; Listing generated by Microsoft (R) Optimizing Compiler Version 19.10.24629.0 

include listing.inc


PUBLIC	??_C@_0BC@EOODALEL@Unknown?5exception?$AA@	; `string'
PUBLIC	??_C@_09PNOCEPJL@?$CF?4?$CKs?5?$CFzi?6?$AA@	; `string'
PUBLIC	??_C@_0BD@OLBABOEK@vector?$DMT?$DO?5too?5long?$AA@ ; `string'
PUBLIC	??_C@_0BA@JFNIOLAK@string?5too?5long?$AA@	; `string'
PUBLIC	??_C@_0BI@CFPLBAOH@invalid?5string?5position?$AA@ ; `string'
PUBLIC	??_C@_0BB@MOGOBHAF@list?$DMT?$DO?5too?5long?$AA@ ; `string'
PUBLIC	??_R0?AVruntime_error@std@@@8			; std::runtime_error `RTTI Type Descriptor'
PUBLIC	??_R4exception@std@@6B@				; std::exception::`RTTI Complete Object Locator'
PUBLIC	_CT??_R0?AVexception@std@@@824
PUBLIC	??_R4runtime_error@std@@6B@			; std::runtime_error::`RTTI Complete Object Locator'
PUBLIC	??_R1A@?0A@EA@runtime_error@std@@8		; std::runtime_error::`RTTI Base Class Descriptor at (0,-1,0,64)'
PUBLIC	??_R1A@?0A@EA@exception@std@@8			; std::exception::`RTTI Base Class Descriptor at (0,-1,0,64)'
PUBLIC	??_R2exception@std@@8				; std::exception::`RTTI Base Class Array'
PUBLIC	_TI2?AVruntime_error@std@@
PUBLIC	_CT??_R0?AVruntime_error@std@@@824
PUBLIC	??_7exception@std@@6B@				; std::exception::`vftable'
PUBLIC	??_R3exception@std@@8				; std::exception::`RTTI Class Hierarchy Descriptor'
PUBLIC	??_7runtime_error@std@@6B@			; std::runtime_error::`vftable'
PUBLIC	_CTA2?AVruntime_error@std@@
PUBLIC	??_R2runtime_error@std@@8			; std::runtime_error::`RTTI Base Class Array'
PUBLIC	??_R0?AVexception@std@@@8			; std::exception `RTTI Type Descriptor'
PUBLIC	??_R3runtime_error@std@@8			; std::runtime_error::`RTTI Class Hierarchy Descriptor'
EXTRN	_invalid_parameter_noinfo_noreturn:PROC
EXTRN	strerror_s:PROC
EXTRN	fread:PROC
EXTRN	??_7type_info@@6B@:BYTE				; type_info::`vftable'
EXTRN	feof:PROC
EXTRN	__std_terminate:PROC
EXTRN	fopen_s:PROC
EXTRN	__stdio_common_vfprintf:PROC
EXTRN	??3@YAXPEAX_K@Z:PROC				; operator delete
EXTRN	??3@YAXPEAX@Z:PROC				; operator delete
EXTRN	__std_exception_copy:PROC
EXTRN	fseek:PROC
EXTRN	?_Xlength_error@std@@YAXPEBD@Z:PROC		; std::_Xlength_error
EXTRN	?_Xout_of_range@std@@YAXPEBD@Z:PROC		; std::_Xout_of_range
EXTRN	?_Xbad_alloc@std@@YAXXZ:PROC			; std::_Xbad_alloc
EXTRN	fclose:PROC
EXTRN	??2@YAPEAX_K@Z:PROC				; operator new
EXTRN	__acrt_iob_func:PROC
EXTRN	ferror:PROC
EXTRN	memmove:PROC
EXTRN	__std_exception_destroy:PROC
EXTRN	ftell:PROC
EXTRN	__security_check_cookie:PROC
EXTRN	__CxxFrameHandler3:PROC
;	COMDAT ??_R3runtime_error@std@@8
rdata$r	SEGMENT
??_R3runtime_error@std@@8 DD 00H			; std::runtime_error::`RTTI Class Hierarchy Descriptor'
	DD	00H
	DD	02H
	DD	imagerel ??_R2runtime_error@std@@8
rdata$r	ENDS
;	COMDAT ??_R0?AVexception@std@@@8
data$r	SEGMENT
??_R0?AVexception@std@@@8 DQ FLAT:??_7type_info@@6B@	; std::exception `RTTI Type Descriptor'
	DQ	0000000000000000H
	DB	'.?AVexception@std@@', 00H
data$r	ENDS
;	COMDAT ?faces@?1??toChar@@YADW4Face@@@Z@4V?$array@D$06@std@@A
_DATA	SEGMENT
?faces@?1??toChar@@YADW4Face@@@Z@4V?$array@D$06@std@@A DB 00H ; `toChar'::`2'::faces
	DB	051H
	DB	04bH
	DB	054H
	DB	041H
	DB	039H
	DB	04aH
_DATA	ENDS
;	COMDAT ??_R2runtime_error@std@@8
rdata$r	SEGMENT
??_R2runtime_error@std@@8 DD imagerel ??_R1A@?0A@EA@runtime_error@std@@8 ; std::runtime_error::`RTTI Base Class Array'
	DD	imagerel ??_R1A@?0A@EA@exception@std@@8
	ORG $+3
rdata$r	ENDS
;	COMDAT _CTA2?AVruntime_error@std@@
xdata$x	SEGMENT
_CTA2?AVruntime_error@std@@ DD 02H
	DD	imagerel _CT??_R0?AVruntime_error@std@@@824
	DD	imagerel _CT??_R0?AVexception@std@@@824
xdata$x	ENDS
;	COMDAT ??_7runtime_error@std@@6B@
CONST	SEGMENT
??_7runtime_error@std@@6B@ DQ FLAT:??_R4runtime_error@std@@6B@ ; std::runtime_error::`vftable'
	DQ	FLAT:??_Eruntime_error@std@@UEAAPEAXI@Z
	DQ	FLAT:?what@exception@std@@UEBAPEBDXZ
CONST	ENDS
;	COMDAT ??_R3exception@std@@8
rdata$r	SEGMENT
??_R3exception@std@@8 DD 00H				; std::exception::`RTTI Class Hierarchy Descriptor'
	DD	00H
	DD	01H
	DD	imagerel ??_R2exception@std@@8
rdata$r	ENDS
;	COMDAT ??_7exception@std@@6B@
CONST	SEGMENT
??_7exception@std@@6B@ DQ FLAT:??_R4exception@std@@6B@	; std::exception::`vftable'
	DQ	FLAT:??_Eexception@std@@UEAAPEAXI@Z
	DQ	FLAT:?what@exception@std@@UEBAPEBDXZ
CONST	ENDS
;	COMDAT _CT??_R0?AVruntime_error@std@@@824
xdata$x	SEGMENT
_CT??_R0?AVruntime_error@std@@@824 DD 00H
	DD	imagerel ??_R0?AVruntime_error@std@@@8
	DD	00H
	DD	0ffffffffH
	ORG $+4
	DD	018H
	DD	imagerel ??0runtime_error@std@@QEAA@AEBV01@@Z
xdata$x	ENDS
;	COMDAT _TI2?AVruntime_error@std@@
xdata$x	SEGMENT
_TI2?AVruntime_error@std@@ DD 00H
	DD	imagerel ??1runtime_error@std@@UEAA@XZ
	DD	00H
	DD	imagerel _CTA2?AVruntime_error@std@@
xdata$x	ENDS
;	COMDAT ??_R2exception@std@@8
rdata$r	SEGMENT
??_R2exception@std@@8 DD imagerel ??_R1A@?0A@EA@exception@std@@8 ; std::exception::`RTTI Base Class Array'
	ORG $+3
rdata$r	ENDS
;	COMDAT ?suits@?1??toChar@@YADW4Suit@@@Z@4V?$array@D$04@std@@A
_DATA	SEGMENT
?suits@?1??toChar@@YADW4Suit@@@Z@4V?$array@D$04@std@@A DB 00H ; `toChar'::`2'::suits
	DB	053H
	DB	044H
	DB	048H
	DB	043H
_DATA	ENDS
;	COMDAT ??_R1A@?0A@EA@exception@std@@8
rdata$r	SEGMENT
??_R1A@?0A@EA@exception@std@@8 DD imagerel ??_R0?AVexception@std@@@8 ; std::exception::`RTTI Base Class Descriptor at (0,-1,0,64)'
	DD	00H
	DD	00H
	DD	0ffffffffH
	DD	00H
	DD	040H
	DD	imagerel ??_R3exception@std@@8
rdata$r	ENDS
;	COMDAT ??_R1A@?0A@EA@runtime_error@std@@8
rdata$r	SEGMENT
??_R1A@?0A@EA@runtime_error@std@@8 DD imagerel ??_R0?AVruntime_error@std@@@8 ; std::runtime_error::`RTTI Base Class Descriptor at (0,-1,0,64)'
	DD	01H
	DD	00H
	DD	0ffffffffH
	DD	00H
	DD	040H
	DD	imagerel ??_R3runtime_error@std@@8
rdata$r	ENDS
;	COMDAT ?faces@?1??rank@@YAHW4Face@@@Z@4V?$array@H$06@std@@A
_DATA	SEGMENT
?faces@?1??rank@@YAHW4Face@@@Z@4V?$array@H$06@std@@A DD 00H ; `rank'::`2'::faces
	DD	02H
	DD	03H
	DD	0aH
	DD	0bH
	DD	014H
	DD	01eH
_DATA	ENDS
;	COMDAT ??_R4runtime_error@std@@6B@
rdata$r	SEGMENT
??_R4runtime_error@std@@6B@ DD 01H			; std::runtime_error::`RTTI Complete Object Locator'
	DD	00H
	DD	00H
	DD	imagerel ??_R0?AVruntime_error@std@@@8
	DD	imagerel ??_R3runtime_error@std@@8
	DD	imagerel ??_R4runtime_error@std@@6B@
rdata$r	ENDS
;	COMDAT _CT??_R0?AVexception@std@@@824
xdata$x	SEGMENT
_CT??_R0?AVexception@std@@@824 DD 00H
	DD	imagerel ??_R0?AVexception@std@@@8
	DD	00H
	DD	0ffffffffH
	ORG $+4
	DD	018H
	DD	imagerel ??0exception@std@@QEAA@AEBV01@@Z
xdata$x	ENDS
;	COMDAT ??_R4exception@std@@6B@
rdata$r	SEGMENT
??_R4exception@std@@6B@ DD 01H				; std::exception::`RTTI Complete Object Locator'
	DD	00H
	DD	00H
	DD	imagerel ??_R0?AVexception@std@@@8
	DD	imagerel ??_R3exception@std@@8
	DD	imagerel ??_R4exception@std@@6B@
rdata$r	ENDS
;	COMDAT ??_R0?AVruntime_error@std@@@8
data$r	SEGMENT
??_R0?AVruntime_error@std@@@8 DQ FLAT:??_7type_info@@6B@ ; std::runtime_error `RTTI Type Descriptor'
	DQ	0000000000000000H
	DB	'.?AVruntime_error@std@@', 00H
data$r	ENDS
;	COMDAT ??_C@_0BB@MOGOBHAF@list?$DMT?$DO?5too?5long?$AA@
CONST	SEGMENT
??_C@_0BB@MOGOBHAF@list?$DMT?$DO?5too?5long?$AA@ DB 'list<T> too long', 00H ; `string'
CONST	ENDS
;	COMDAT ??_C@_0BI@CFPLBAOH@invalid?5string?5position?$AA@
CONST	SEGMENT
??_C@_0BI@CFPLBAOH@invalid?5string?5position?$AA@ DB 'invalid string posi'
	DB	'tion', 00H					; `string'
CONST	ENDS
;	COMDAT ??_C@_0BA@JFNIOLAK@string?5too?5long?$AA@
CONST	SEGMENT
??_C@_0BA@JFNIOLAK@string?5too?5long?$AA@ DB 'string too long', 00H ; `string'
CONST	ENDS
;	COMDAT ??_C@_0BD@OLBABOEK@vector?$DMT?$DO?5too?5long?$AA@
CONST	SEGMENT
??_C@_0BD@OLBABOEK@vector?$DMT?$DO?5too?5long?$AA@ DB 'vector<T> too long'
	DB	00H						; `string'
CONST	ENDS
;	COMDAT ??_C@_09PNOCEPJL@?$CF?4?$CKs?5?$CFzi?6?$AA@
CONST	SEGMENT
??_C@_09PNOCEPJL@?$CF?4?$CKs?5?$CFzi?6?$AA@ DB '%.*s %zi', 0aH, 00H ; `string'
$SG4294967199 DB 'rb', 00H
?piecewise_construct@std@@3Upiecewise_construct_t@1@B	ORG $+1 ; std::piecewise_construct
$SG4294967196 DB '%c%c', 00H
	ORG $+7
$SG4294967193 DB 'usage:', 0aH, 00H
$SG4294967192 DB 09H, '%s path/to/cards/file.txt', 0aH, 00H
$SG4294967191 DB '-', 00H
	ORG $+2
$SG4294967190 DB 'Card Summary', 0aH, 00H
	ORG $+2
$SG4294967189 DB '#', 09H, 'Card', 09H, 'Count', 0aH, 00H
	ORG $+2
$SG4294967188 DB '%i', 09H, '%s', 09H, '%i', 09H, '%x', 0aH, 00H
	ORG $+3
$SG4294967187 DB 'An error occured:', 0aH, 00H
	ORG $+1
$SG4294967186 DB '%s', 0aH, 00H
CONST	ENDS
;	COMDAT ??_C@_0BC@EOODALEL@Unknown?5exception?$AA@
CONST	SEGMENT
??_C@_0BC@EOODALEL@Unknown?5exception?$AA@ DB 'Unknown exception', 00H ; `string'
CONST	ENDS
PUBLIC	??$get@$0A@AEBUCard@@@std@@YAAEBUCard@@$$QEAV?$tuple@AEBUCard@@@0@@Z ; std::get<0,Card const & __ptr64>
PUBLIC	??$move@AEAV?$tuple@AEBUCard@@@std@@@std@@YA$$QEAV?$tuple@AEBUCard@@@0@AEAV10@@Z ; std::move<std::tuple<Card const & __ptr64> & __ptr64>
PUBLIC	??$?0V?$tuple@AEBUCard@@@std@@V?$tuple@$$V@1@$0A@$$Z$S@?$pair@$$CBUCard@@H@std@@QEAA@AEAV?$tuple@AEBUCard@@@1@AEAV?$tuple@$$V@1@U?$integer_sequence@_K$0A@@1@U?$integer_sequence@_K$S@1@@Z ; std::pair<Card const ,int>::pair<Card const ,int><std::tuple<Card const & __ptr64>,std::tuple<>,0>
PUBLIC	??$?0AEBUCard@@$$Z$$V@?$pair@$$CBUCard@@H@std@@QEAA@Upiecewise_construct_t@1@V?$tuple@AEBUCard@@@1@V?$tuple@$$V@1@@Z ; std::pair<Card const ,int>::pair<Card const ,int><Card const & __ptr64>
PUBLIC	??0?$tuple@AEBUCard@@@std@@QEAA@$$QEAV01@@Z	; std::tuple<Card const & __ptr64>::tuple<Card const & __ptr64>
PUBLIC	??$construct@U?$pair@$$CBUCard@@H@std@@AEBUpiecewise_construct_t@2@V?$tuple@AEBUCard@@@2@V?$tuple@$$V@2@@?$allocator@U?$_List_node@U?$pair@$$CBUCard@@H@std@@PEAX@std@@@std@@QEAAXPEAU?$pair@$$CBUCard@@H@1@AEBUpiecewise_construct_t@1@$$QEAV?$tuple@AEBUCard@@@1@$$QEAV?$tuple@$$V@1@@Z ; std::allocator<std::_List_node<std::pair<Card const ,int>,void * __ptr64> >::construct<std::pair<Card const ,int>,std::piecewise_construct_t const & __ptr64,std::tuple<Card const & __ptr64>,std::tuple<> >
PUBLIC	??$construct@U?$pair@$$CBUCard@@H@std@@AEBUpiecewise_construct_t@2@V?$tuple@AEBUCard@@@2@V?$tuple@$$V@2@@?$allocator_traits@V?$allocator@U?$_List_node@U?$pair@$$CBUCard@@H@std@@PEAX@std@@@std@@@std@@SAXAEAV?$allocator@U?$_List_node@U?$pair@$$CBUCard@@H@std@@PEAX@std@@@1@PEAU?$pair@$$CBUCard@@H@1@AEBUpiecewise_construct_t@1@$$QEAV?$tuple@AEBUCard@@@1@$$QEAV?$tuple@$$V@1@@Z ; std::allocator_traits<std::allocator<std::_List_node<std::pair<Card const ,int>,void * __ptr64> > >::construct<std::pair<Card const ,int>,std::piecewise_construct_t const & __ptr64,std::tuple<Card const & __ptr64>,std::tuple<> >
PUBLIC	??$construct@U?$pair@$$CBUCard@@H@std@@AEBUpiecewise_construct_t@2@V?$tuple@AEBUCard@@@2@V?$tuple@$$V@2@@?$_Wrap_alloc@V?$allocator@U?$_List_node@U?$pair@$$CBUCard@@H@std@@PEAX@std@@@std@@@std@@QEAAXPEAU?$pair@$$CBUCard@@H@1@AEBUpiecewise_construct_t@1@$$QEAV?$tuple@AEBUCard@@@1@$$QEAV?$tuple@$$V@1@@Z ; std::_Wrap_alloc<std::allocator<std::_List_node<std::pair<Card const ,int>,void * __ptr64> > >::construct<std::pair<Card const ,int>,std::piecewise_construct_t const & __ptr64,std::tuple<Card const & __ptr64>,std::tuple<> >
PUBLIC	??$_Copy_memmove@PEBDPEAD@std@@YAPEADPEBD0PEAD@Z ; std::_Copy_memmove<char const * __ptr64,char * __ptr64>
PUBLIC	??$_Construct1@V?$_List_unchecked_iterator@V?$_List_val@U?$_List_simple_types@U?$pair@$$CBUCard@@H@std@@@std@@@std@@@std@@V12@@?$allocator_traits@U?$_Wrap_alloc@V?$allocator@V?$_List_unchecked_iterator@V?$_List_val@U?$_List_simple_types@U?$pair@$$CBUCard@@H@std@@@std@@@std@@@std@@@std@@@std@@@std@@SAXU?$integral_constant@_N$00@1@AEAU?$_Wrap_alloc@V?$allocator@V?$_List_unchecked_iterator@V?$_List_val@U?$_List_simple_types@U?$pair@$$CBUCard@@H@std@@@std@@@std@@@std@@@std@@@1@PEAV?$_List_unchecked_iterator@V?$_List_val@U?$_List_simple_types@U?$pair@$$CBUCard@@H@std@@@std@@@std@@@1@$$QEAV41@@Z ; std::allocator_traits<std::_Wrap_alloc<std::allocator<std::_List_unchecked_iterator<std::_List_val<std::_List_simple_types<std::pair<Card const ,int> > > > > > >::_Construct1<std::_List_unchecked_iterator<std::_List_val<std::_List_simple_types<std::pair<Card const ,int> > > >,std::_List_unchecked_iterator<std::_List_val<std::_List_simple_types<std::pair<Card const ,int> > > > >
PUBLIC	??$construct@UCard@@U1@@?$allocator@UCard@@@std@@QEAAXPEAUCard@@$$QEAU2@@Z ; std::allocator<Card>::construct<Card,Card>
PUBLIC	??$forward@V?$_List_iterator@V?$_List_val@U?$_List_simple_types@U?$pair@$$CBUCard@@H@std@@@std@@@std@@@std@@@std@@YA$$QEAV?$_List_iterator@V?$_List_val@U?$_List_simple_types@U?$pair@$$CBUCard@@H@std@@@std@@@std@@@0@AEAV10@@Z ; std::forward<std::_List_iterator<std::_List_val<std::_List_simple_types<std::pair<Card const ,int> > > > >
PUBLIC	??$_Buynode@AEBUpiecewise_construct_t@std@@V?$tuple@AEBUCard@@@2@V?$tuple@$$V@2@@?$_List_buy@U?$pair@$$CBUCard@@H@std@@V?$allocator@U?$pair@$$CBUCard@@H@std@@@2@@std@@QEAAPEAU?$_List_node@U?$pair@$$CBUCard@@H@std@@PEAX@1@PEAU21@0AEBUpiecewise_construct_t@1@$$QEAV?$tuple@AEBUCard@@@1@$$QEAV?$tuple@$$V@1@@Z ; std::_List_buy<std::pair<Card const ,int>,std::allocator<std::pair<Card const ,int> > >::_Buynode<std::piecewise_construct_t const & __ptr64,std::tuple<Card const & __ptr64>,std::tuple<> >
PUBLIC	??$?0AEBUCard@@@?$_Tuple_val@AEBUCard@@@std@@QEAA@AEBUCard@@@Z ; std::_Tuple_val<Card const & __ptr64>::_Tuple_val<Card const & __ptr64><Card const & __ptr64>
PUBLIC	??$?0U_Exact_args_t@std@@$0A@@?$tuple@$$V@std@@QEAA@U_Exact_args_t@1@@Z ; std::tuple<>::tuple<><std::_Exact_args_t,0>
PUBLIC	??$_Uninitialized_copy_al_unchecked1@$$CBDDV?$allocator@D@std@@@std@@YAPEADPEBD0PEADAEAU?$_Wrap_alloc@V?$allocator@D@std@@@0@U_Really_trivial_ptr_iterator_tag@0@U?$integral_constant@_N$00@0@@Z ; std::_Uninitialized_copy_al_unchecked1<char const ,char,std::allocator<char> >
PUBLIC	??$_Ptr_copy_cat@$$CBDD@std@@YA?AU_Really_trivial_ptr_iterator_tag@0@AEBQEBDAEBQEAD@Z ; std::_Ptr_copy_cat<char const ,char>
PUBLIC	?max_size@?$allocator@U?$_List_node@U?$pair@$$CBUCard@@H@std@@PEAX@std@@@std@@QEBA_KXZ ; std::allocator<std::_List_node<std::pair<Card const ,int>,void * __ptr64> >::max_size
PUBLIC	?max_size@?$allocator_traits@V?$allocator@U?$_List_node@U?$pair@$$CBUCard@@H@std@@PEAX@std@@@std@@@std@@SA_KAEBV?$allocator@U?$_List_node@U?$pair@$$CBUCard@@H@std@@PEAX@std@@@2@@Z ; std::allocator_traits<std::allocator<std::_List_node<std::pair<Card const ,int>,void * __ptr64> > >::max_size
PUBLIC	?_Get_first@?$_Compressed_pair@U?$_Wrap_alloc@V?$allocator@U?$_List_node@U?$pair@$$CBUCard@@H@std@@PEAX@std@@@std@@@std@@V?$_List_val@U?$_List_simple_types@U?$pair@$$CBUCard@@H@std@@@std@@@2@$00@std@@QEBAAEBU?$_Wrap_alloc@V?$allocator@U?$_List_node@U?$pair@$$CBUCard@@H@std@@PEAX@std@@@std@@@2@XZ ; std::_Compressed_pair<std::_Wrap_alloc<std::allocator<std::_List_node<std::pair<Card const ,int>,void * __ptr64> > >,std::_List_val<std::_List_simple_types<std::pair<Card const ,int> > >,1>::_Get_first
PUBLIC	?_Getal@?$_List_alloc@U?$_List_base_types@U?$pair@$$CBUCard@@H@std@@V?$allocator@U?$pair@$$CBUCard@@H@std@@@2@@std@@@std@@QEBAAEBU?$_Wrap_alloc@V?$allocator@U?$_List_node@U?$pair@$$CBUCard@@H@std@@PEAX@std@@@std@@@2@XZ ; std::_List_alloc<std::_List_base_types<std::pair<Card const ,int>,std::allocator<std::pair<Card const ,int> > > >::_Getal
PUBLIC	?max_size@?$_Wrap_alloc@V?$allocator@U?$_List_node@U?$pair@$$CBUCard@@H@std@@PEAX@std@@@std@@@std@@QEBA_KU_Nil@2@@Z ; std::_Wrap_alloc<std::allocator<std::_List_node<std::pair<Card const ,int>,void * __ptr64> > >::max_size
PUBLIC	?max_size@?$list@U?$pair@$$CBUCard@@H@std@@V?$allocator@U?$pair@$$CBUCard@@H@std@@@2@@std@@QEBA_KXZ ; std::list<std::pair<Card const ,int>,std::allocator<std::pair<Card const ,int> > >::max_size
PUBLIC	?_Incsize@?$list@U?$pair@$$CBUCard@@H@std@@V?$allocator@U?$pair@$$CBUCard@@H@std@@@2@@std@@QEAAX_K@Z ; std::list<std::pair<Card const ,int>,std::allocator<std::pair<Card const ,int> > >::_Incsize
PUBLIC	??$construct@PEAU?$_List_node@U?$pair@$$CBUCard@@H@std@@PEAX@std@@AEAPEAU12@@?$allocator@U?$_List_node@U?$pair@$$CBUCard@@H@std@@PEAX@std@@@std@@QEAAXPEAPEAU?$_List_node@U?$pair@$$CBUCard@@H@std@@PEAX@1@AEAPEAU21@@Z ; std::allocator<std::_List_node<std::pair<Card const ,int>,void * __ptr64> >::construct<std::_List_node<std::pair<Card const ,int>,void * __ptr64> * __ptr64,std::_List_node<std::pair<Card const ,int>,void * __ptr64> * __ptr64 & __ptr64>
PUBLIC	??$construct@V?$_List_unchecked_iterator@V?$_List_val@U?$_List_simple_types@U?$pair@$$CBUCard@@H@std@@@std@@@std@@@std@@V12@@?$allocator_traits@U?$_Wrap_alloc@V?$allocator@V?$_List_unchecked_iterator@V?$_List_val@U?$_List_simple_types@U?$pair@$$CBUCard@@H@std@@@std@@@std@@@std@@@std@@@std@@@std@@SAXAEAU?$_Wrap_alloc@V?$allocator@V?$_List_unchecked_iterator@V?$_List_val@U?$_List_simple_types@U?$pair@$$CBUCard@@H@std@@@std@@@std@@@std@@@std@@@1@PEAV?$_List_unchecked_iterator@V?$_List_val@U?$_List_simple_types@U?$pair@$$CBUCard@@H@std@@@std@@@std@@@1@$$QEAV31@@Z ; std::allocator_traits<std::_Wrap_alloc<std::allocator<std::_List_unchecked_iterator<std::_List_val<std::_List_simple_types<std::pair<Card const ,int> > > > > > >::construct<std::_List_unchecked_iterator<std::_List_val<std::_List_simple_types<std::pair<Card const ,int> > > >,std::_List_unchecked_iterator<std::_List_val<std::_List_simple_types<std::pair<Card const ,int> > > > >
PUBLIC	??$forward@V?$_List_unchecked_iterator@V?$_List_val@U?$_List_simple_types@U?$pair@$$CBUCard@@H@std@@@std@@@std@@@std@@@std@@YA$$QEAV?$_List_unchecked_iterator@V?$_List_val@U?$_List_simple_types@U?$pair@$$CBUCard@@H@std@@@std@@@std@@@0@AEAV10@@Z ; std::forward<std::_List_unchecked_iterator<std::_List_val<std::_List_simple_types<std::pair<Card const ,int> > > > >
PUBLIC	??$_Construct1@V?$_List_unchecked_iterator@V?$_List_val@U?$_List_simple_types@U?$pair@$$CBUCard@@H@std@@@std@@@std@@@std@@AEBV12@@?$allocator_traits@U?$_Wrap_alloc@V?$allocator@V?$_List_unchecked_iterator@V?$_List_val@U?$_List_simple_types@U?$pair@$$CBUCard@@H@std@@@std@@@std@@@std@@@std@@@std@@@std@@SAXU?$integral_constant@_N$00@1@AEAU?$_Wrap_alloc@V?$allocator@V?$_List_unchecked_iterator@V?$_List_val@U?$_List_simple_types@U?$pair@$$CBUCard@@H@std@@@std@@@std@@@std@@@std@@@1@PEAV?$_List_unchecked_iterator@V?$_List_val@U?$_List_simple_types@U?$pair@$$CBUCard@@H@std@@@std@@@std@@@1@AEBV41@@Z ; std::allocator_traits<std::_Wrap_alloc<std::allocator<std::_List_unchecked_iterator<std::_List_val<std::_List_simple_types<std::pair<Card const ,int> > > > > > >::_Construct1<std::_List_unchecked_iterator<std::_List_val<std::_List_simple_types<std::pair<Card const ,int> > > >,std::_List_unchecked_iterator<std::_List_val<std::_List_simple_types<std::pair<Card const ,int> > > > const & __ptr64>
PUBLIC	??$construct@UCard@@U1@@?$allocator_traits@V?$allocator@UCard@@@std@@@std@@SAXAEAV?$allocator@UCard@@@1@PEAUCard@@$$QEAU3@@Z ; std::allocator_traits<std::allocator<Card> >::construct<Card,Card>
PUBLIC	??$forward@UCard@@@std@@YA$$QEAUCard@@AEAU1@@Z	; std::forward<Card>
PUBLIC	??$_Destroy1@V?$_List_unchecked_iterator@V?$_List_val@U?$_List_simple_types@U?$pair@$$CBUCard@@H@std@@@std@@@std@@@std@@@?$allocator_traits@U?$_Wrap_alloc@V?$allocator@V?$_List_unchecked_iterator@V?$_List_val@U?$_List_simple_types@U?$pair@$$CBUCard@@H@std@@@std@@@std@@@std@@@std@@@std@@@std@@SAXAEAU?$_Wrap_alloc@V?$allocator@V?$_List_unchecked_iterator@V?$_List_val@U?$_List_simple_types@U?$pair@$$CBUCard@@H@std@@@std@@@std@@@std@@@std@@@1@PEAV?$_List_unchecked_iterator@V?$_List_val@U?$_List_simple_types@U?$pair@$$CBUCard@@H@std@@@std@@@std@@@1@U?$integral_constant@_N$00@1@@Z ; std::allocator_traits<std::_Wrap_alloc<std::allocator<std::_List_unchecked_iterator<std::_List_val<std::_List_simple_types<std::pair<Card const ,int> > > > > > >::_Destroy1<std::_List_unchecked_iterator<std::_List_val<std::_List_simple_types<std::pair<Card const ,int> > > > >
PUBLIC	??$?0U?$pair@$$CBUCard@@H@std@@@?$allocator@U?$_List_node@U?$pair@$$CBUCard@@H@std@@PEAX@std@@@std@@QEAA@AEBV?$allocator@U?$pair@$$CBUCard@@H@std@@@1@@Z ; std::allocator<std::_List_node<std::pair<Card const ,int>,void * __ptr64> >::allocator<std::_List_node<std::pair<Card const ,int>,void * __ptr64> ><std::pair<Card const ,int> >
PUBLIC	??$_Buynode_if_nil@AEAU?$pair@$$CBUCard@@H@std@@@?$_Hash@V?$_Umap_traits@$$CBUCard@@HV?$_Uhash_compare@$$CBUCard@@UCardHash@@U?$equal_to@$$CBUCard@@@std@@@std@@V?$allocator@U?$pair@$$CBUCard@@H@std@@@3@$0A@@std@@@std@@IEAA?AV?$_List_unchecked_iterator@V?$_List_val@U?$_List_simple_types@U?$pair@$$CBUCard@@H@std@@@std@@@std@@@1@AEAU?$pair@$$CBUCard@@H@1@V21@@Z ; std::_Hash<std::_Umap_traits<Card const ,int,std::_Uhash_compare<Card const ,CardHash,std::equal_to<Card const > >,std::allocator<std::pair<Card const ,int> >,0> >::_Buynode_if_nil<std::pair<Card const ,int> & __ptr64>
PUBLIC	??$forward@AEAU?$pair@$$CBUCard@@H@std@@@std@@YAAEAU?$pair@$$CBUCard@@H@0@AEAU10@@Z ; std::forward<std::pair<Card const ,int> & __ptr64>
PUBLIC	??$?0V?$_List_iterator@V?$_List_val@U?$_List_simple_types@U?$pair@$$CBUCard@@H@std@@@std@@@std@@@std@@_NX$0A@@?$pair@V?$_List_iterator@V?$_List_val@U?$_List_simple_types@U?$pair@$$CBUCard@@H@std@@@std@@@std@@@std@@_N@std@@QEAA@$$QEAV?$_List_iterator@V?$_List_val@U?$_List_simple_types@U?$pair@$$CBUCard@@H@std@@@std@@@std@@@1@$$QEA_N@Z ; std::pair<std::_List_iterator<std::_List_val<std::_List_simple_types<std::pair<Card const ,int> > > >,bool>::pair<std::_List_iterator<std::_List_val<std::_List_simple_types<std::pair<Card const ,int> > > >,bool><std::_List_iterator<std::_List_val<std::_List_simple_types<std::pair<Card const ,int> > > >,bool,void,0>
PUBLIC	??$_Insert@AEBUpiecewise_construct_t@std@@V?$tuple@AEBUCard@@@2@V?$tuple@$$V@2@@?$list@U?$pair@$$CBUCard@@H@std@@V?$allocator@U?$pair@$$CBUCard@@H@std@@@2@@std@@QEAAXV?$_List_unchecked_const_iterator@V?$_List_val@U?$_List_simple_types@U?$pair@$$CBUCard@@H@std@@@std@@@std@@U_Iterator_base0@2@@1@AEBUpiecewise_construct_t@1@$$QEAV?$tuple@AEBUCard@@@1@$$QEAV?$tuple@$$V@1@@Z ; std::list<std::pair<Card const ,int>,std::allocator<std::pair<Card const ,int> > >::_Insert<std::piecewise_construct_t const & __ptr64,std::tuple<Card const & __ptr64>,std::tuple<> >
PUBLIC	??$?0U_Exact_args_t@std@@AEBUCard@@$$V$0A@@?$tuple@AEBUCard@@@std@@QEAA@U_Exact_args_t@1@AEBUCard@@@Z ; std::tuple<Card const & __ptr64>::tuple<Card const & __ptr64><std::_Exact_args_t,Card const & __ptr64,0>
PUBLIC	??$_Copy_backward_memmove@PEADPEAD@std@@YAPEADPEAD00@Z ; std::_Copy_backward_memmove<char * __ptr64,char * __ptr64>
PUBLIC	??$_Uninitialized_copy_al_unchecked@PEBDPEADV?$allocator@D@std@@@std@@YAPEADPEBD0PEADAEAU?$_Wrap_alloc@V?$allocator@D@std@@@0@@Z ; std::_Uninitialized_copy_al_unchecked<char const * __ptr64,char * __ptr64,std::allocator<char> >
PUBLIC	?_Get_second@?$_Compressed_pair@U?$equal_to@$$CBUCard@@@std@@M$00@std@@QEBAAEBMXZ ; std::_Compressed_pair<std::equal_to<Card const >,float,1>::_Get_second
PUBLIC	?_Mysize@?$_List_alloc@U?$_List_base_types@U?$pair@$$CBUCard@@H@std@@V?$allocator@U?$pair@$$CBUCard@@H@std@@@2@@std@@@std@@QEBAAEB_KXZ ; std::_List_alloc<std::_List_base_types<std::pair<Card const ,int>,std::allocator<std::pair<Card const ,int> > > >::_Mysize
PUBLIC	?_Get_max_bucket_size@?$_Uhash_compare@$$CBUCard@@UCardHash@@U?$equal_to@$$CBUCard@@@std@@@std@@QEBAAEBMXZ ; std::_Uhash_compare<Card const ,CardHash,std::equal_to<Card const > >::_Get_max_bucket_size
PUBLIC	?size@?$list@U?$pair@$$CBUCard@@H@std@@V?$allocator@U?$pair@$$CBUCard@@H@std@@@2@@std@@QEBA_KXZ ; std::list<std::pair<Card const ,int>,std::allocator<std::pair<Card const ,int> > >::size
PUBLIC	?size@?$_Hash@V?$_Umap_traits@$$CBUCard@@HV?$_Uhash_compare@$$CBUCard@@UCardHash@@U?$equal_to@$$CBUCard@@@std@@@std@@V?$allocator@U?$pair@$$CBUCard@@H@std@@@3@$0A@@std@@@std@@QEBA_KXZ ; std::_Hash<std::_Umap_traits<Card const ,int,std::_Uhash_compare<Card const ,CardHash,std::equal_to<Card const > >,std::allocator<std::pair<Card const ,int> >,0> >::size
PUBLIC	?_Max_bucket_size@?$_Hash@V?$_Umap_traits@$$CBUCard@@HV?$_Uhash_compare@$$CBUCard@@UCardHash@@U?$equal_to@$$CBUCard@@@std@@@std@@V?$allocator@U?$pair@$$CBUCard@@H@std@@@3@$0A@@std@@@std@@IEBAAEBMXZ ; std::_Hash<std::_Umap_traits<Card const ,int,std::_Uhash_compare<Card const ,CardHash,std::equal_to<Card const > >,std::allocator<std::pair<Card const ,int> >,0> >::_Max_bucket_size
PUBLIC	?_Make_iter@?$list@U?$pair@$$CBUCard@@H@std@@V?$allocator@U?$pair@$$CBUCard@@H@std@@@2@@std@@QEBA?AV?$_List_iterator@V?$_List_val@U?$_List_simple_types@U?$pair@$$CBUCard@@H@std@@@std@@@std@@@2@V?$_List_const_iterator@V?$_List_val@U?$_List_simple_types@U?$pair@$$CBUCard@@H@std@@@std@@@std@@@2@@Z ; std::list<std::pair<Card const ,int>,std::allocator<std::pair<Card const ,int> > >::_Make_iter
PUBLIC	?_Unlinknode@?$list@U?$pair@$$CBUCard@@H@std@@V?$allocator@U?$pair@$$CBUCard@@H@std@@@2@@std@@QEAAPEAU?$_List_node@U?$pair@$$CBUCard@@H@std@@PEAX@2@V?$_List_const_iterator@V?$_List_val@U?$_List_simple_types@U?$pair@$$CBUCard@@H@std@@@std@@@std@@@2@@Z ; std::list<std::pair<Card const ,int>,std::allocator<std::pair<Card const ,int> > >::_Unlinknode
PUBLIC	??E?$_List_const_iterator@V?$_List_val@U?$_List_simple_types@U?$pair@$$CBUCard@@H@std@@@std@@@std@@@std@@QEAA?AV01@H@Z ; std::_List_const_iterator<std::_List_val<std::_List_simple_types<std::pair<Card const ,int> > > >::operator++
PUBLIC	?_Unchecked@?$_List_iterator@V?$_List_val@U?$_List_simple_types@U?$pair@$$CBUCard@@H@std@@@std@@@std@@@std@@QEBA?AV?$_List_unchecked_iterator@V?$_List_val@U?$_List_simple_types@U?$pair@$$CBUCard@@H@std@@@std@@@std@@@2@XZ ; std::_List_iterator<std::_List_val<std::_List_simple_types<std::pair<Card const ,int> > > >::_Unchecked
PUBLIC	?_Make_iter@?$_Hash@V?$_Umap_traits@$$CBUCard@@HV?$_Uhash_compare@$$CBUCard@@UCardHash@@U?$equal_to@$$CBUCard@@@std@@@std@@V?$allocator@U?$pair@$$CBUCard@@H@std@@@3@$0A@@std@@@std@@QEBA?AV?$_List_iterator@V?$_List_val@U?$_List_simple_types@U?$pair@$$CBUCard@@H@std@@@std@@@std@@@2@V?$_List_const_iterator@V?$_List_val@U?$_List_simple_types@U?$pair@$$CBUCard@@H@std@@@std@@@std@@@2@@Z ; std::_Hash<std::_Umap_traits<Card const ,int,std::_Uhash_compare<Card const ,CardHash,std::equal_to<Card const > >,std::allocator<std::pair<Card const ,int> >,0> >::_Make_iter
PUBLIC	?bucket_count@?$_Hash@V?$_Umap_traits@$$CBUCard@@HV?$_Uhash_compare@$$CBUCard@@UCardHash@@U?$equal_to@$$CBUCard@@@std@@@std@@V?$allocator@U?$pair@$$CBUCard@@H@std@@@3@$0A@@std@@@std@@QEBA_KXZ ; std::_Hash<std::_Umap_traits<Card const ,int,std::_Uhash_compare<Card const ,CardHash,std::equal_to<Card const > >,std::allocator<std::pair<Card const ,int> >,0> >::bucket_count
PUBLIC	?load_factor@?$_Hash@V?$_Umap_traits@$$CBUCard@@HV?$_Uhash_compare@$$CBUCard@@UCardHash@@U?$equal_to@$$CBUCard@@@std@@@std@@V?$allocator@U?$pair@$$CBUCard@@H@std@@@3@$0A@@std@@@std@@QEBAMXZ ; std::_Hash<std::_Umap_traits<Card const ,int,std::_Uhash_compare<Card const ,CardHash,std::equal_to<Card const > >,std::allocator<std::pair<Card const ,int> >,0> >::load_factor
PUBLIC	?max_load_factor@?$_Hash@V?$_Umap_traits@$$CBUCard@@HV?$_Uhash_compare@$$CBUCard@@UCardHash@@U?$equal_to@$$CBUCard@@@std@@@std@@V?$allocator@U?$pair@$$CBUCard@@H@std@@@3@$0A@@std@@@std@@QEBAMXZ ; std::_Hash<std::_Umap_traits<Card const ,int,std::_Uhash_compare<Card const ,CardHash,std::equal_to<Card const > >,std::allocator<std::pair<Card const ,int> >,0> >::max_load_factor
PUBLIC	?_Erase_bucket@?$_Hash@V?$_Umap_traits@$$CBUCard@@HV?$_Uhash_compare@$$CBUCard@@UCardHash@@U?$equal_to@$$CBUCard@@@std@@@std@@V?$allocator@U?$pair@$$CBUCard@@H@std@@@3@$0A@@std@@@std@@IEAAXV?$_List_iterator@V?$_List_val@U?$_List_simple_types@U?$pair@$$CBUCard@@H@std@@@std@@@std@@@2@_K@Z ; std::_Hash<std::_Umap_traits<Card const ,int,std::_Uhash_compare<Card const ,CardHash,std::equal_to<Card const > >,std::allocator<std::pair<Card const ,int> >,0> >::_Erase_bucket
PUBLIC	?_Reinsert@?$_Hash@V?$_Umap_traits@$$CBUCard@@HV?$_Uhash_compare@$$CBUCard@@UCardHash@@U?$equal_to@$$CBUCard@@@std@@@std@@V?$allocator@U?$pair@$$CBUCard@@H@std@@@3@$0A@@std@@@std@@IEAAXXZ ; std::_Hash<std::_Umap_traits<Card const ,int,std::_Uhash_compare<Card const ,CardHash,std::equal_to<Card const > >,std::allocator<std::pair<Card const ,int> >,0> >::_Reinsert
PUBLIC	?erase@?$list@U?$pair@$$CBUCard@@H@std@@V?$allocator@U?$pair@$$CBUCard@@H@std@@@2@@std@@QEAA?AV?$_List_iterator@V?$_List_val@U?$_List_simple_types@U?$pair@$$CBUCard@@H@std@@@std@@@std@@@2@V?$_List_const_iterator@V?$_List_val@U?$_List_simple_types@U?$pair@$$CBUCard@@H@std@@@std@@@std@@@2@@Z ; std::list<std::pair<Card const ,int>,std::allocator<std::pair<Card const ,int> > >::erase
PUBLIC	??0?$_List_unchecked_const_iterator@V?$_List_val@U?$_List_simple_types@U?$pair@$$CBUCard@@H@std@@@std@@@std@@U_Iterator_base0@2@@std@@QEAA@XZ ; std::_List_unchecked_const_iterator<std::_List_val<std::_List_simple_types<std::pair<Card const ,int> > >,std::_Iterator_base0>::_List_unchecked_const_iterator<std::_List_val<std::_List_simple_types<std::pair<Card const ,int> > >,std::_Iterator_base0>
PUBLIC	??F?$_List_unchecked_const_iterator@V?$_List_val@U?$_List_simple_types@U?$pair@$$CBUCard@@H@std@@@std@@@std@@U_Iterator_base0@2@@std@@QEAAAEAV01@XZ ; std::_List_unchecked_const_iterator<std::_List_val<std::_List_simple_types<std::pair<Card const ,int> > >,std::_Iterator_base0>::operator--
PUBLIC	?_Mynode@?$_List_unchecked_const_iterator@V?$_List_val@U?$_List_simple_types@U?$pair@$$CBUCard@@H@std@@@std@@@std@@U_Iterator_base0@2@@std@@QEBAPEAU?$_List_node@U?$pair@$$CBUCard@@H@std@@PEAX@2@XZ ; std::_List_unchecked_const_iterator<std::_List_val<std::_List_simple_types<std::pair<Card const ,int> > >,std::_Iterator_base0>::_Mynode
PUBLIC	?erase@?$_Hash@V?$_Umap_traits@$$CBUCard@@HV?$_Uhash_compare@$$CBUCard@@UCardHash@@U?$equal_to@$$CBUCard@@@std@@@std@@V?$allocator@U?$pair@$$CBUCard@@H@std@@@3@$0A@@std@@@std@@QEAA?AV?$_List_iterator@V?$_List_val@U?$_List_simple_types@U?$pair@$$CBUCard@@H@std@@@std@@@std@@@2@V?$_List_const_iterator@V?$_List_val@U?$_List_simple_types@U?$pair@$$CBUCard@@H@std@@@std@@@std@@@2@@Z ; std::_Hash<std::_Umap_traits<Card const ,int,std::_Uhash_compare<Card const ,CardHash,std::equal_to<Card const > >,std::allocator<std::pair<Card const ,int> >,0> >::erase
PUBLIC	?_Destroy_if_not_nil@?$_Hash@V?$_Umap_traits@$$CBUCard@@HV?$_Uhash_compare@$$CBUCard@@UCardHash@@U?$equal_to@$$CBUCard@@@std@@@std@@V?$allocator@U?$pair@$$CBUCard@@H@std@@@3@$0A@@std@@@std@@IEAAXV?$_List_unchecked_iterator@V?$_List_val@U?$_List_simple_types@U?$pair@$$CBUCard@@H@std@@@std@@@std@@@2@@Z ; std::_Hash<std::_Umap_traits<Card const ,int,std::_Uhash_compare<Card const ,CardHash,std::equal_to<Card const > >,std::allocator<std::pair<Card const ,int> >,0> >::_Destroy_if_not_nil
PUBLIC	?_Insert_bucket@?$_Hash@V?$_Umap_traits@$$CBUCard@@HV?$_Uhash_compare@$$CBUCard@@UCardHash@@U?$equal_to@$$CBUCard@@@std@@@std@@V?$allocator@U?$pair@$$CBUCard@@H@std@@@3@$0A@@std@@@std@@IEAAXV?$_List_unchecked_iterator@V?$_List_val@U?$_List_simple_types@U?$pair@$$CBUCard@@H@std@@@std@@@std@@@2@0_K@Z ; std::_Hash<std::_Umap_traits<Card const ,int,std::_Uhash_compare<Card const ,CardHash,std::equal_to<Card const > >,std::allocator<std::pair<Card const ,int> >,0> >::_Insert_bucket
PUBLIC	?_Check_size@?$_Hash@V?$_Umap_traits@$$CBUCard@@HV?$_Uhash_compare@$$CBUCard@@UCardHash@@U?$equal_to@$$CBUCard@@@std@@@std@@V?$allocator@U?$pair@$$CBUCard@@H@std@@@3@$0A@@std@@@std@@IEAAXXZ ; std::_Hash<std::_Umap_traits<Card const ,int,std::_Uhash_compare<Card const ,CardHash,std::equal_to<Card const > >,std::allocator<std::pair<Card const ,int> >,0> >::_Check_size
PUBLIC	?_Unchecked_splice@?$list@U?$pair@$$CBUCard@@H@std@@V?$allocator@U?$pair@$$CBUCard@@H@std@@@2@@std@@QEAAXV?$_List_unchecked_const_iterator@V?$_List_val@U?$_List_simple_types@U?$pair@$$CBUCard@@H@std@@@std@@@std@@U_Iterator_base0@2@@2@00@Z ; std::list<std::pair<Card const ,int>,std::allocator<std::pair<Card const ,int> > >::_Unchecked_splice
PUBLIC	??0?$_List_unchecked_iterator@V?$_List_val@U?$_List_simple_types@U?$pair@$$CBUCard@@H@std@@@std@@@std@@@std@@QEAA@XZ ; std::_List_unchecked_iterator<std::_List_val<std::_List_simple_types<std::pair<Card const ,int> > > >::_List_unchecked_iterator<std::_List_val<std::_List_simple_types<std::pair<Card const ,int> > > >
PUBLIC	??F?$_List_unchecked_iterator@V?$_List_val@U?$_List_simple_types@U?$pair@$$CBUCard@@H@std@@@std@@@std@@@std@@QEAAAEAV01@XZ ; std::_List_unchecked_iterator<std::_List_val<std::_List_simple_types<std::pair<Card const ,int> > > >::operator--
PUBLIC	??$construct@PEAU?$_List_node@U?$pair@$$CBUCard@@H@std@@PEAX@std@@AEAPEAU12@@?$allocator_traits@V?$allocator@U?$_List_node@U?$pair@$$CBUCard@@H@std@@PEAX@std@@@std@@@std@@SAXAEAV?$allocator@U?$_List_node@U?$pair@$$CBUCard@@H@std@@PEAX@std@@@1@PEAPEAU?$_List_node@U?$pair@$$CBUCard@@H@std@@PEAX@1@AEAPEAU31@@Z ; std::allocator_traits<std::allocator<std::_List_node<std::pair<Card const ,int>,void * __ptr64> > >::construct<std::_List_node<std::pair<Card const ,int>,void * __ptr64> * __ptr64,std::_List_node<std::pair<Card const ,int>,void * __ptr64> * __ptr64 & __ptr64>
PUBLIC	??$forward@AEAPEAU?$_List_node@U?$pair@$$CBUCard@@H@std@@PEAX@std@@@std@@YAAEAPEAU?$_List_node@U?$pair@$$CBUCard@@H@std@@PEAX@0@AEAPEAU10@@Z ; std::forward<std::_List_node<std::pair<Card const ,int>,void * __ptr64> * __ptr64 & __ptr64>
PUBLIC	??$construct@V?$_List_unchecked_iterator@V?$_List_val@U?$_List_simple_types@U?$pair@$$CBUCard@@H@std@@@std@@@std@@@std@@V12@@?$_Wrap_alloc@U?$_Wrap_alloc@V?$allocator@V?$_List_unchecked_iterator@V?$_List_val@U?$_List_simple_types@U?$pair@$$CBUCard@@H@std@@@std@@@std@@@std@@@std@@@std@@@std@@QEAAXPEAV?$_List_unchecked_iterator@V?$_List_val@U?$_List_simple_types@U?$pair@$$CBUCard@@H@std@@@std@@@std@@@1@$$QEAV21@@Z ; std::_Wrap_alloc<std::_Wrap_alloc<std::allocator<std::_List_unchecked_iterator<std::_List_val<std::_List_simple_types<std::pair<Card const ,int> > > > > > >::construct<std::_List_unchecked_iterator<std::_List_val<std::_List_simple_types<std::pair<Card const ,int> > > >,std::_List_unchecked_iterator<std::_List_val<std::_List_simple_types<std::pair<Card const ,int> > > > >
PUBLIC	??$construct@V?$_List_unchecked_iterator@V?$_List_val@U?$_List_simple_types@U?$pair@$$CBUCard@@H@std@@@std@@@std@@@std@@AEBV12@@?$allocator_traits@U?$_Wrap_alloc@V?$allocator@V?$_List_unchecked_iterator@V?$_List_val@U?$_List_simple_types@U?$pair@$$CBUCard@@H@std@@@std@@@std@@@std@@@std@@@std@@@std@@SAXAEAU?$_Wrap_alloc@V?$allocator@V?$_List_unchecked_iterator@V?$_List_val@U?$_List_simple_types@U?$pair@$$CBUCard@@H@std@@@std@@@std@@@std@@@std@@@1@PEAV?$_List_unchecked_iterator@V?$_List_val@U?$_List_simple_types@U?$pair@$$CBUCard@@H@std@@@std@@@std@@@1@AEBV31@@Z ; std::allocator_traits<std::_Wrap_alloc<std::allocator<std::_List_unchecked_iterator<std::_List_val<std::_List_simple_types<std::pair<Card const ,int> > > > > > >::construct<std::_List_unchecked_iterator<std::_List_val<std::_List_simple_types<std::pair<Card const ,int> > > >,std::_List_unchecked_iterator<std::_List_val<std::_List_simple_types<std::pair<Card const ,int> > > > const & __ptr64>
PUBLIC	??$forward@AEBV?$_List_unchecked_iterator@V?$_List_val@U?$_List_simple_types@U?$pair@$$CBUCard@@H@std@@@std@@@std@@@std@@@std@@YAAEBV?$_List_unchecked_iterator@V?$_List_val@U?$_List_simple_types@U?$pair@$$CBUCard@@H@std@@@std@@@std@@@0@AEBV10@@Z ; std::forward<std::_List_unchecked_iterator<std::_List_val<std::_List_simple_types<std::pair<Card const ,int> > > > const & __ptr64>
PUBLIC	??$_Copy_memmove@PEADPEAD@std@@YAPEADPEAD00@Z	; std::_Copy_memmove<char * __ptr64,char * __ptr64>
PUBLIC	??$construct@UCard@@U1@@?$_Wrap_alloc@V?$allocator@UCard@@@std@@@std@@QEAAXPEAUCard@@$$QEAU2@@Z ; std::_Wrap_alloc<std::allocator<Card> >::construct<Card,Card>
PUBLIC	??$destroy@V?$_List_unchecked_iterator@V?$_List_val@U?$_List_simple_types@U?$pair@$$CBUCard@@H@std@@@std@@@std@@@std@@@?$allocator_traits@U?$_Wrap_alloc@V?$allocator@V?$_List_unchecked_iterator@V?$_List_val@U?$_List_simple_types@U?$pair@$$CBUCard@@H@std@@@std@@@std@@@std@@@std@@@std@@@std@@SAXAEAU?$_Wrap_alloc@V?$allocator@V?$_List_unchecked_iterator@V?$_List_val@U?$_List_simple_types@U?$pair@$$CBUCard@@H@std@@@std@@@std@@@std@@@std@@@1@PEAV?$_List_unchecked_iterator@V?$_List_val@U?$_List_simple_types@U?$pair@$$CBUCard@@H@std@@@std@@@std@@@1@@Z ; std::allocator_traits<std::_Wrap_alloc<std::allocator<std::_List_unchecked_iterator<std::_List_val<std::_List_simple_types<std::pair<Card const ,int> > > > > > >::destroy<std::_List_unchecked_iterator<std::_List_val<std::_List_simple_types<std::pair<Card const ,int> > > > >
PUBLIC	??$?0AEBV?$allocator@U?$pair@$$CBUCard@@H@std@@@std@@@?$_Wrap_alloc@V?$allocator@U?$_List_node@U?$pair@$$CBUCard@@H@std@@PEAX@std@@@std@@@std@@QEAA@AEBV?$allocator@U?$pair@$$CBUCard@@H@std@@@1@@Z ; std::_Wrap_alloc<std::allocator<std::_List_node<std::pair<Card const ,int>,void * __ptr64> > >::_Wrap_alloc<std::allocator<std::_List_node<std::pair<Card const ,int>,void * __ptr64> > ><std::allocator<std::pair<Card const ,int> > const & __ptr64>
PUBLIC	??$?0AEBV?$allocator@D@std@@@?$_Wrap_alloc@V?$allocator@D@std@@@std@@QEAA@AEBV?$allocator@D@1@@Z ; std::_Wrap_alloc<std::allocator<char> >::_Wrap_alloc<std::allocator<char> ><std::allocator<char> const & __ptr64>
PUBLIC	??$destroy@UCard@@@?$allocator@UCard@@@std@@QEAAXPEAUCard@@@Z ; std::allocator<Card>::destroy<Card>
PUBLIC	??$construct@UCard@@AEBU1@@?$allocator@UCard@@@std@@QEAAXPEAUCard@@AEBU2@@Z ; std::allocator<Card>::construct<Card,Card const & __ptr64>
PUBLIC	??$forward@_N@std@@YA$$QEA_NAEA_N@Z		; std::forward<bool>
PUBLIC	??$forward@AEAV?$_List_iterator@V?$_List_val@U?$_List_simple_types@U?$pair@$$CBUCard@@H@std@@@std@@@std@@@std@@@std@@YAAEAV?$_List_iterator@V?$_List_val@U?$_List_simple_types@U?$pair@$$CBUCard@@H@std@@@std@@@std@@@0@AEAV10@@Z ; std::forward<std::_List_iterator<std::_List_val<std::_List_simple_types<std::pair<Card const ,int> > > > & __ptr64>
PUBLIC	??$_Insert@AEAU?$pair@$$CBUCard@@H@std@@V?$_List_unchecked_iterator@V?$_List_val@U?$_List_simple_types@U?$pair@$$CBUCard@@H@std@@@std@@@std@@@2@@?$_Hash@V?$_Umap_traits@$$CBUCard@@HV?$_Uhash_compare@$$CBUCard@@UCardHash@@U?$equal_to@$$CBUCard@@@std@@@std@@V?$allocator@U?$pair@$$CBUCard@@H@std@@@3@$0A@@std@@@std@@IEAA?AU?$pair@V?$_List_iterator@V?$_List_val@U?$_List_simple_types@U?$pair@$$CBUCard@@H@std@@@std@@@std@@@std@@_N@1@AEAU?$pair@$$CBUCard@@H@1@V?$_List_unchecked_iterator@V?$_List_val@U?$_List_simple_types@U?$pair@$$CBUCard@@H@std@@@std@@@std@@@1@@Z ; std::_Hash<std::_Umap_traits<Card const ,int,std::_Uhash_compare<Card const ,CardHash,std::equal_to<Card const > >,std::allocator<std::pair<Card const ,int> >,0> >::_Insert<std::pair<Card const ,int> & __ptr64,std::_List_unchecked_iterator<std::_List_val<std::_List_simple_types<std::pair<Card const ,int> > > > >
PUBLIC	??$emplace_front@AEBUpiecewise_construct_t@std@@V?$tuple@AEBUCard@@@2@V?$tuple@$$V@2@@?$list@U?$pair@$$CBUCard@@H@std@@V?$allocator@U?$pair@$$CBUCard@@H@std@@@2@@std@@QEAAXAEBUpiecewise_construct_t@1@$$QEAV?$tuple@AEBUCard@@@1@$$QEAV?$tuple@$$V@1@@Z ; std::list<std::pair<Card const ,int>,std::allocator<std::pair<Card const ,int> > >::emplace_front<std::piecewise_construct_t const & __ptr64,std::tuple<Card const & __ptr64>,std::tuple<> >
PUBLIC	??$forward@V?$tuple@$$V@std@@@std@@YA$$QEAV?$tuple@$$V@0@AEAV10@@Z ; std::forward<std::tuple<> >
PUBLIC	??$forward@V?$tuple@AEBUCard@@@std@@@std@@YA$$QEAV?$tuple@AEBUCard@@@0@AEAV10@@Z ; std::forward<std::tuple<Card const & __ptr64> >
PUBLIC	??$forward@AEBUpiecewise_construct_t@std@@@std@@YAAEBUpiecewise_construct_t@0@AEBU10@@Z ; std::forward<std::piecewise_construct_t const & __ptr64>
PUBLIC	??$?0AEBUCard@@$0A@@?$tuple@AEBUCard@@@std@@QEAA@AEBUCard@@@Z ; std::tuple<Card const & __ptr64>::tuple<Card const & __ptr64><Card const & __ptr64,0>
PUBLIC	??$_Move_unchecked1@PEADPEAD@std@@YAPEADPEAD00U_Trivially_copyable_ptr_iterator_tag@0@@Z ; std::_Move_unchecked1<char * __ptr64,char * __ptr64>
PUBLIC	??$_Move_backward_unchecked1@PEADPEAD@std@@YAPEADPEAD00U_Trivially_copyable_ptr_iterator_tag@0@@Z ; std::_Move_backward_unchecked1<char * __ptr64,char * __ptr64>
PUBLIC	??$_Uninitialized_copy@PEBDPEADV?$allocator@D@std@@@std@@YAPEADPEBD0PEADAEAU?$_Wrap_alloc@V?$allocator@D@std@@@0@@Z ; std::_Uninitialized_copy<char const * __ptr64,char * __ptr64,std::allocator<char> >
PUBLIC	??$_Distance1@PEBD@std@@YA_JPEBD0Urandom_access_iterator_tag@0@@Z ; std::_Distance1<char const * __ptr64>
PUBLIC	??$move@AEAV?$_List_unchecked_iterator@V?$_List_val@U?$_List_simple_types@U?$pair@$$CBUCard@@H@std@@@std@@@std@@@std@@@std@@YA$$QEAV?$_List_unchecked_iterator@V?$_List_val@U?$_List_simple_types@U?$pair@$$CBUCard@@H@std@@@std@@@std@@@0@AEAV10@@Z ; std::move<std::_List_unchecked_iterator<std::_List_val<std::_List_simple_types<std::pair<Card const ,int> > > > & __ptr64>
PUBLIC	??$move@AEAUCard@@@std@@YA$$QEAUCard@@AEAU1@@Z	; std::move<Card & __ptr64>
PUBLIC	?_Unchecked_begin@?$list@U?$pair@$$CBUCard@@H@std@@V?$allocator@U?$pair@$$CBUCard@@H@std@@@2@@std@@QEAA?AV?$_List_unchecked_iterator@V?$_List_val@U?$_List_simple_types@U?$pair@$$CBUCard@@H@std@@@std@@@std@@@2@XZ ; std::list<std::pair<Card const ,int>,std::allocator<std::pair<Card const ,int> > >::_Unchecked_begin
PUBLIC	??0?$allocator@V?$_List_unchecked_iterator@V?$_List_val@U?$_List_simple_types@U?$pair@$$CBUCard@@H@std@@@std@@@std@@@std@@@std@@QEAA@AEBV01@@Z ; std::allocator<std::_List_unchecked_iterator<std::_List_val<std::_List_simple_types<std::pair<Card const ,int> > > > >::allocator<std::_List_unchecked_iterator<std::_List_val<std::_List_simple_types<std::pair<Card const ,int> > > > >
PUBLIC	?_Unchecked_begin@?$_Hash@V?$_Umap_traits@$$CBUCard@@HV?$_Uhash_compare@$$CBUCard@@UCardHash@@U?$equal_to@$$CBUCard@@@std@@@std@@V?$allocator@U?$pair@$$CBUCard@@H@std@@@3@$0A@@std@@@std@@QEAA?AV?$_List_unchecked_iterator@V?$_List_val@U?$_List_simple_types@U?$pair@$$CBUCard@@H@std@@@std@@@std@@@2@XZ ; std::_Hash<std::_Umap_traits<Card const ,int,std::_Uhash_compare<Card const ,CardHash,std::equal_to<Card const > >,std::allocator<std::pair<Card const ,int> >,0> >::_Unchecked_begin
PUBLIC	?front@?$list@U?$pair@$$CBUCard@@H@std@@V?$allocator@U?$pair@$$CBUCard@@H@std@@@2@@std@@QEAAAEAU?$pair@$$CBUCard@@H@2@XZ ; std::list<std::pair<Card const ,int>,std::allocator<std::pair<Card const ,int> > >::front
PUBLIC	??0?$_List_val@U?$_List_simple_types@U?$pair@$$CBUCard@@H@std@@@std@@@std@@QEAA@XZ ; std::_List_val<std::_List_simple_types<std::pair<Card const ,int> > >::_List_val<std::_List_simple_types<std::pair<Card const ,int> > >
PUBLIC	??0?$_Wrap_alloc@V?$allocator@V?$_List_unchecked_iterator@V?$_List_val@U?$_List_simple_types@U?$pair@$$CBUCard@@H@std@@@std@@@std@@@std@@@std@@@std@@QEAA@AEBU01@@Z ; std::_Wrap_alloc<std::allocator<std::_List_unchecked_iterator<std::_List_val<std::_List_simple_types<std::pair<Card const ,int> > > > > >::_Wrap_alloc<std::allocator<std::_List_unchecked_iterator<std::_List_val<std::_List_simple_types<std::pair<Card const ,int> > > > > >
PUBLIC	??$_Kfn@$$CBUCard@@H@?$_Umap_traits@$$CBUCard@@HV?$_Uhash_compare@$$CBUCard@@UCardHash@@U?$equal_to@$$CBUCard@@@std@@@std@@V?$allocator@U?$pair@$$CBUCard@@H@std@@@3@$0A@@std@@SAAEBUCard@@AEBU?$pair@$$CBUCard@@H@1@@Z ; std::_Umap_traits<Card const ,int,std::_Uhash_compare<Card const ,CardHash,std::equal_to<Card const > >,std::allocator<std::pair<Card const ,int> >,0>::_Kfn<Card const ,int>
PUBLIC	??$construct@PEAU?$_List_node@U?$pair@$$CBUCard@@H@std@@PEAX@std@@AEAPEAU12@@?$_Wrap_alloc@V?$allocator@U?$_List_node@U?$pair@$$CBUCard@@H@std@@PEAX@std@@@std@@@std@@QEAAXPEAPEAU?$_List_node@U?$pair@$$CBUCard@@H@std@@PEAX@1@AEAPEAU21@@Z ; std::_Wrap_alloc<std::allocator<std::_List_node<std::pair<Card const ,int>,void * __ptr64> > >::construct<std::_List_node<std::pair<Card const ,int>,void * __ptr64> * __ptr64,std::_List_node<std::pair<Card const ,int>,void * __ptr64> * __ptr64 & __ptr64>
PUBLIC	??$?0U?$integral_constant@_N$0A@@std@@@_Any_tag@std@@QEAA@$$QEAU?$integral_constant@_N$0A@@1@@Z ; std::_Any_tag::_Any_tag<std::integral_constant<bool,0> >
PUBLIC	??$_Uninitialized_move_al_unchecked1@PEAV?$_List_unchecked_iterator@V?$_List_val@U?$_List_simple_types@U?$pair@$$CBUCard@@H@std@@@std@@@std@@@std@@PEAV12@U?$_Wrap_alloc@V?$allocator@V?$_List_unchecked_iterator@V?$_List_val@U?$_List_simple_types@U?$pair@$$CBUCard@@H@std@@@std@@@std@@@std@@@std@@@2@@std@@YAPEAV?$_List_unchecked_iterator@V?$_List_val@U?$_List_simple_types@U?$pair@$$CBUCard@@H@std@@@std@@@std@@@0@PEAV10@00AEAU?$_Wrap_alloc@U?$_Wrap_alloc@V?$allocator@V?$_List_unchecked_iterator@V?$_List_val@U?$_List_simple_types@U?$pair@$$CBUCard@@H@std@@@std@@@std@@@std@@@std@@@std@@@0@U_General_ptr_iterator_tag@0@U_Any_tag@0@@Z ; std::_Uninitialized_move_al_unchecked1<std::_List_unchecked_iterator<std::_List_val<std::_List_simple_types<std::pair<Card const ,int> > > > * __ptr64,std::_List_unchecked_iterator<std::_List_val<std::_List_simple_types<std::pair<Card const ,int> > > > * __ptr64,std::_Wrap_alloc<std::allocator<std::_List_unchecked_iterator<std::_List_val<std::_List_simple_types<std::pair<Card const ,int> > > > > > >
PUBLIC	??$_Ptr_move_cat@V?$_List_unchecked_iterator@V?$_List_val@U?$_List_simple_types@U?$pair@$$CBUCard@@H@std@@@std@@@std@@@std@@V12@@std@@YA?AU_Trivially_copyable_ptr_iterator_tag@0@AEBQEAV?$_List_unchecked_iterator@V?$_List_val@U?$_List_simple_types@U?$pair@$$CBUCard@@H@std@@@std@@@std@@@0@0@Z ; std::_Ptr_move_cat<std::_List_unchecked_iterator<std::_List_val<std::_List_simple_types<std::pair<Card const ,int> > > >,std::_List_unchecked_iterator<std::_List_val<std::_List_simple_types<std::pair<Card const ,int> > > > >
PUBLIC	??$destroy@U?$pair@$$CBUCard@@H@std@@@?$allocator@U?$_List_node@U?$pair@$$CBUCard@@H@std@@PEAX@std@@@std@@QEAAXPEAU?$pair@$$CBUCard@@H@1@@Z ; std::allocator<std::_List_node<std::pair<Card const ,int>,void * __ptr64> >::destroy<std::pair<Card const ,int> >
PUBLIC	??$construct@V?$_List_unchecked_iterator@V?$_List_val@U?$_List_simple_types@U?$pair@$$CBUCard@@H@std@@@std@@@std@@@std@@AEBV12@@?$_Wrap_alloc@U?$_Wrap_alloc@V?$allocator@V?$_List_unchecked_iterator@V?$_List_val@U?$_List_simple_types@U?$pair@$$CBUCard@@H@std@@@std@@@std@@@std@@@std@@@std@@@std@@QEAAXPEAV?$_List_unchecked_iterator@V?$_List_val@U?$_List_simple_types@U?$pair@$$CBUCard@@H@std@@@std@@@std@@@1@AEBV21@@Z ; std::_Wrap_alloc<std::_Wrap_alloc<std::allocator<std::_List_unchecked_iterator<std::_List_val<std::_List_simple_types<std::pair<Card const ,int> > > > > > >::construct<std::_List_unchecked_iterator<std::_List_val<std::_List_simple_types<std::pair<Card const ,int> > > >,std::_List_unchecked_iterator<std::_List_val<std::_List_simple_types<std::pair<Card const ,int> > > > const & __ptr64>
PUBLIC	??$_Uninitialized_move_al_unchecked1@DDV?$allocator@D@std@@@std@@YAPEADPEAD00AEAU?$_Wrap_alloc@V?$allocator@D@std@@@0@U_Really_trivial_ptr_iterator_tag@0@U?$integral_constant@_N$00@0@@Z ; std::_Uninitialized_move_al_unchecked1<char,char,std::allocator<char> >
PUBLIC	??$_Ptr_move_cat@DD@std@@YA?AU_Really_trivial_ptr_iterator_tag@0@AEBQEAD0@Z ; std::_Ptr_move_cat<char,char>
PUBLIC	??$?0U?$integral_constant@_N$00@std@@@_Any_tag@std@@QEAA@$$QEAU?$integral_constant@_N$00@1@@Z ; std::_Any_tag::_Any_tag<std::integral_constant<bool,1> >
PUBLIC	??$_Uninitialized_move_al_unchecked1@PEAUCard@@PEAU1@V?$allocator@UCard@@@std@@@std@@YAPEAUCard@@PEAU1@00AEAU?$_Wrap_alloc@V?$allocator@UCard@@@std@@@0@U_General_ptr_iterator_tag@0@U_Any_tag@0@@Z ; std::_Uninitialized_move_al_unchecked1<Card * __ptr64,Card * __ptr64,std::allocator<Card> >
PUBLIC	??$_Ptr_move_cat@UCard@@U1@@std@@YA?AU_Trivially_copyable_ptr_iterator_tag@0@AEBQEAUCard@@0@Z ; std::_Ptr_move_cat<Card,Card>
PUBLIC	??$destroy@PEAU?$_List_node@U?$pair@$$CBUCard@@H@std@@PEAX@std@@@?$allocator@U?$_List_node@U?$pair@$$CBUCard@@H@std@@PEAX@std@@@std@@QEAAXPEAPEAU?$_List_node@U?$pair@$$CBUCard@@H@std@@PEAX@1@@Z ; std::allocator<std::_List_node<std::pair<Card const ,int>,void * __ptr64> >::destroy<std::_List_node<std::pair<Card const ,int>,void * __ptr64> * __ptr64>
PUBLIC	??$destroy@V?$_List_unchecked_iterator@V?$_List_val@U?$_List_simple_types@U?$pair@$$CBUCard@@H@std@@@std@@@std@@@std@@@?$_Wrap_alloc@U?$_Wrap_alloc@V?$allocator@V?$_List_unchecked_iterator@V?$_List_val@U?$_List_simple_types@U?$pair@$$CBUCard@@H@std@@@std@@@std@@@std@@@std@@@std@@@std@@QEAAXPEAV?$_List_unchecked_iterator@V?$_List_val@U?$_List_simple_types@U?$pair@$$CBUCard@@H@std@@@std@@@std@@@1@@Z ; std::_Wrap_alloc<std::_Wrap_alloc<std::allocator<std::_List_unchecked_iterator<std::_List_val<std::_List_simple_types<std::pair<Card const ,int> > > > > > >::destroy<std::_List_unchecked_iterator<std::_List_val<std::_List_simple_types<std::pair<Card const ,int> > > > >
PUBLIC	??$?0AEBV?$allocator@U?$pair@$$CBUCard@@H@std@@@std@@$$V@?$_Compressed_pair@U?$_Wrap_alloc@V?$allocator@U?$_List_node@U?$pair@$$CBUCard@@H@std@@PEAX@std@@@std@@@std@@V?$_List_val@U?$_List_simple_types@U?$pair@$$CBUCard@@H@std@@@std@@@2@$00@std@@QEAA@U_One_then_variadic_args_t@1@AEBV?$allocator@U?$pair@$$CBUCard@@H@std@@@1@@Z ; std::_Compressed_pair<std::_Wrap_alloc<std::allocator<std::_List_node<std::pair<Card const ,int>,void * __ptr64> > >,std::_List_val<std::_List_simple_types<std::pair<Card const ,int> > >,1>::_Compressed_pair<std::_Wrap_alloc<std::allocator<std::_List_node<std::pair<Card const ,int>,void * __ptr64> > >,std::_List_val<std::_List_simple_types<std::pair<Card const ,int> > >,1><std::allocator<std::pair<Card const ,int> > const & __ptr64>
PUBLIC	??$?0AEBU?$_Wrap_alloc@V?$allocator@V?$_List_unchecked_iterator@V?$_List_val@U?$_List_simple_types@U?$pair@$$CBUCard@@H@std@@@std@@@std@@@std@@@std@@@std@@@?$_Wrap_alloc@U?$_Wrap_alloc@V?$allocator@V?$_List_unchecked_iterator@V?$_List_val@U?$_List_simple_types@U?$pair@$$CBUCard@@H@std@@@std@@@std@@@std@@@std@@@std@@@std@@QEAA@AEBU?$_Wrap_alloc@V?$allocator@V?$_List_unchecked_iterator@V?$_List_val@U?$_List_simple_types@U?$pair@$$CBUCard@@H@std@@@std@@@std@@@std@@@std@@@1@@Z ; std::_Wrap_alloc<std::_Wrap_alloc<std::allocator<std::_List_unchecked_iterator<std::_List_val<std::_List_simple_types<std::pair<Card const ,int> > > > > > >::_Wrap_alloc<std::_Wrap_alloc<std::allocator<std::_List_unchecked_iterator<std::_List_val<std::_List_simple_types<std::pair<Card const ,int> > > > > > ><std::_Wrap_alloc<std::allocator<std::_List_unchecked_iterator<std::_List_val<std::_List_simple_types<std::pair<Card const ,int> > > > > > const & __ptr64>
PUBLIC	??$construct@PEADAEAPEAD@?$allocator@D@std@@QEAAXPEAPEADAEAPEAD@Z ; std::allocator<char>::construct<char * __ptr64,char * __ptr64 & __ptr64>
PUBLIC	??$destroy@PEAD@?$allocator@D@std@@QEAAXPEAPEAD@Z ; std::allocator<char>::destroy<char * __ptr64>
PUBLIC	??$?0AEBV?$allocator@D@std@@$$V@?$_Compressed_pair@U?$_Wrap_alloc@V?$allocator@D@std@@@std@@V?$_Vector_val@U?$_Simple_types@D@std@@@2@$00@std@@QEAA@U_One_then_variadic_args_t@1@AEBV?$allocator@D@1@@Z ; std::_Compressed_pair<std::_Wrap_alloc<std::allocator<char> >,std::_Vector_val<std::_Simple_types<char> >,1>::_Compressed_pair<std::_Wrap_alloc<std::allocator<char> >,std::_Vector_val<std::_Simple_types<char> >,1><std::allocator<char> const & __ptr64>
PUBLIC	??$destroy@UCard@@@?$allocator_traits@V?$allocator@UCard@@@std@@@std@@SAXAEAV?$allocator@UCard@@@1@PEAUCard@@@Z ; std::allocator_traits<std::allocator<Card> >::destroy<Card>
PUBLIC	??$construct@UCard@@AEBU1@@?$allocator_traits@V?$allocator@UCard@@@std@@@std@@SAXAEAV?$allocator@UCard@@@1@PEAUCard@@AEBU3@@Z ; std::allocator_traits<std::allocator<Card> >::construct<Card,Card const & __ptr64>
PUBLIC	??$?0AEAV?$_List_iterator@V?$_List_val@U?$_List_simple_types@U?$pair@$$CBUCard@@H@std@@@std@@@std@@@std@@_NX$0A@@?$pair@V?$_List_iterator@V?$_List_val@U?$_List_simple_types@U?$pair@$$CBUCard@@H@std@@@std@@@std@@@std@@_N@std@@QEAA@AEAV?$_List_iterator@V?$_List_val@U?$_List_simple_types@U?$pair@$$CBUCard@@H@std@@@std@@@std@@@1@$$QEA_N@Z ; std::pair<std::_List_iterator<std::_List_val<std::_List_simple_types<std::pair<Card const ,int> > > >,bool>::pair<std::_List_iterator<std::_List_val<std::_List_simple_types<std::pair<Card const ,int> > > >,bool><std::_List_iterator<std::_List_val<std::_List_simple_types<std::pair<Card const ,int> > > > & __ptr64,bool,void,0>
PUBLIC	??$emplace@AEBUpiecewise_construct_t@std@@V?$tuple@AEBUCard@@@2@V?$tuple@$$V@2@@?$_Hash@V?$_Umap_traits@$$CBUCard@@HV?$_Uhash_compare@$$CBUCard@@UCardHash@@U?$equal_to@$$CBUCard@@@std@@@std@@V?$allocator@U?$pair@$$CBUCard@@H@std@@@3@$0A@@std@@@std@@QEAA?AU?$pair@V?$_List_iterator@V?$_List_val@U?$_List_simple_types@U?$pair@$$CBUCard@@H@std@@@std@@@std@@@std@@_N@1@AEBUpiecewise_construct_t@1@$$QEAV?$tuple@AEBUCard@@@1@$$QEAV?$tuple@$$V@1@@Z ; std::_Hash<std::_Umap_traits<Card const ,int,std::_Uhash_compare<Card const ,CardHash,std::equal_to<Card const > >,std::allocator<std::pair<Card const ,int> >,0> >::emplace<std::piecewise_construct_t const & __ptr64,std::tuple<Card const & __ptr64>,std::tuple<> >
PUBLIC	??$forward_as_tuple@$$V@std@@YA?AV?$tuple@$$V@0@XZ ; std::forward_as_tuple<>
PUBLIC	??$forward_as_tuple@AEBUCard@@@std@@YA?AV?$tuple@AEBUCard@@@0@AEBUCard@@@Z ; std::forward_as_tuple<Card const & __ptr64>
PUBLIC	??$_Move_unchecked@PEADPEAD@std@@YAPEADPEAD00@Z	; std::_Move_unchecked<char * __ptr64,char * __ptr64>
PUBLIC	??$_Move_backward_unchecked@PEADPEAD@std@@YAPEADPEAD00@Z ; std::_Move_backward_unchecked<char * __ptr64,char * __ptr64>
PUBLIC	??$_Ucopy@PEBD@?$vector@DV?$allocator@D@std@@@std@@AEAAPEADPEBD0PEAD@Z ; std::vector<char,std::allocator<char> >::_Ucopy<char const * __ptr64>
PUBLIC	??$distance@PEBD@std@@YA_JPEBD0@Z		; std::distance<char const * __ptr64>
PUBLIC	??$_Unfancy@V?$_List_unchecked_iterator@V?$_List_val@U?$_List_simple_types@U?$pair@$$CBUCard@@H@std@@@std@@@std@@@std@@@std@@YAPEAV?$_List_unchecked_iterator@V?$_List_val@U?$_List_simple_types@U?$pair@$$CBUCard@@H@std@@@std@@@std@@@0@PEAV10@@Z ; std::_Unfancy<std::_List_unchecked_iterator<std::_List_val<std::_List_simple_types<std::pair<Card const ,int> > > > >
PUBLIC	?_Get_first@?$_Compressed_pair@UCardHash@@V?$_Compressed_pair@U?$equal_to@$$CBUCard@@@std@@M$00@std@@$00@std@@QEBAAEBUCardHash@@XZ ; std::_Compressed_pair<CardHash,std::_Compressed_pair<std::equal_to<Card const >,float,1>,1>::_Get_first
PUBLIC	?_Get_second@?$_Compressed_pair@U?$_Wrap_alloc@V?$allocator@U?$_List_node@U?$pair@$$CBUCard@@H@std@@PEAX@std@@@std@@@std@@V?$_List_val@U?$_List_simple_types@U?$pair@$$CBUCard@@H@std@@@std@@@2@$00@std@@QEBAAEBV?$_List_val@U?$_List_simple_types@U?$pair@$$CBUCard@@H@std@@@std@@@2@XZ ; std::_Compressed_pair<std::_Wrap_alloc<std::allocator<std::_List_node<std::pair<Card const ,int>,void * __ptr64> > >,std::_List_val<std::_List_simple_types<std::pair<Card const ,int> > >,1>::_Get_second
PUBLIC	?_Gethash@?$_Uhash_compare@$$CBUCard@@UCardHash@@U?$equal_to@$$CBUCard@@@std@@@std@@QEBAAEBUCardHash@@XZ ; std::_Uhash_compare<Card const ,CardHash,std::equal_to<Card const > >::_Gethash
PUBLIC	?_Get_first@?$_Compressed_pair@U?$equal_to@$$CBUCard@@@std@@M$00@std@@QEBAAEBU?$equal_to@$$CBUCard@@@2@XZ ; std::_Compressed_pair<std::equal_to<Card const >,float,1>::_Get_first
PUBLIC	?_Get_second@?$_Compressed_pair@UCardHash@@V?$_Compressed_pair@U?$equal_to@$$CBUCard@@@std@@M$00@std@@$00@std@@QEBAAEBV?$_Compressed_pair@U?$equal_to@$$CBUCard@@@std@@M$00@2@XZ ; std::_Compressed_pair<CardHash,std::_Compressed_pair<std::equal_to<Card const >,float,1>,1>::_Get_second
PUBLIC	?_Get_data@?$_List_alloc@U?$_List_base_types@U?$pair@$$CBUCard@@H@std@@V?$allocator@U?$pair@$$CBUCard@@H@std@@@2@@std@@@std@@QEBAAEBV?$_List_val@U?$_List_simple_types@U?$pair@$$CBUCard@@H@std@@@std@@@2@XZ ; std::_List_alloc<std::_List_base_types<std::pair<Card const ,int>,std::allocator<std::pair<Card const ,int> > > >::_Get_data
PUBLIC	??A?$vector@V?$_List_unchecked_iterator@V?$_List_val@U?$_List_simple_types@U?$pair@$$CBUCard@@H@std@@@std@@@std@@@std@@U?$_Wrap_alloc@V?$allocator@V?$_List_unchecked_iterator@V?$_List_val@U?$_List_simple_types@U?$pair@$$CBUCard@@H@std@@@std@@@std@@@std@@@std@@@2@@std@@QEAAAEAV?$_List_unchecked_iterator@V?$_List_val@U?$_List_simple_types@U?$pair@$$CBUCard@@H@std@@@std@@@std@@@1@_K@Z ; std::vector<std::_List_unchecked_iterator<std::_List_val<std::_List_simple_types<std::pair<Card const ,int> > > >,std::_Wrap_alloc<std::allocator<std::_List_unchecked_iterator<std::_List_val<std::_List_simple_types<std::pair<Card const ,int> > > > > > >::operator[]
PUBLIC	??R?$equal_to@$$CBUCard@@@std@@QEBA_NAEBUCard@@0@Z ; std::equal_to<Card const >::operator()
PUBLIC	??R?$_Uhash_compare@$$CBUCard@@UCardHash@@U?$equal_to@$$CBUCard@@@std@@@std@@QEBA_KAEBUCard@@@Z ; std::_Uhash_compare<Card const ,CardHash,std::equal_to<Card const > >::operator()
PUBLIC	?_Getkeyeq@?$_Uhash_compare@$$CBUCard@@UCardHash@@U?$equal_to@$$CBUCard@@@std@@@std@@QEBAAEBU?$equal_to@$$CBUCard@@@2@XZ ; std::_Uhash_compare<Card const ,CardHash,std::equal_to<Card const > >::_Getkeyeq
PUBLIC	?_Vec_lo@?$_Hash@V?$_Umap_traits@$$CBUCard@@HV?$_Uhash_compare@$$CBUCard@@UCardHash@@U?$equal_to@$$CBUCard@@@std@@@std@@V?$allocator@U?$pair@$$CBUCard@@H@std@@@3@$0A@@std@@@std@@IEAAAEAV?$_List_unchecked_iterator@V?$_List_val@U?$_List_simple_types@U?$pair@$$CBUCard@@H@std@@@std@@@std@@@2@_K@Z ; std::_Hash<std::_Umap_traits<Card const ,int,std::_Uhash_compare<Card const ,CardHash,std::equal_to<Card const > >,std::allocator<std::pair<Card const ,int> >,0> >::_Vec_lo
PUBLIC	?_Vec_hi@?$_Hash@V?$_Umap_traits@$$CBUCard@@HV?$_Uhash_compare@$$CBUCard@@UCardHash@@U?$equal_to@$$CBUCard@@@std@@@std@@V?$allocator@U?$pair@$$CBUCard@@H@std@@@3@$0A@@std@@@std@@IEAAAEAV?$_List_unchecked_iterator@V?$_List_val@U?$_List_simple_types@U?$pair@$$CBUCard@@H@std@@@std@@@std@@@2@_K@Z ; std::_Hash<std::_Umap_traits<Card const ,int,std::_Uhash_compare<Card const ,CardHash,std::equal_to<Card const > >,std::allocator<std::pair<Card const ,int> >,0> >::_Vec_hi
PUBLIC	?_Make_iter@?$list@U?$pair@$$CBUCard@@H@std@@V?$allocator@U?$pair@$$CBUCard@@H@std@@@2@@std@@QEBA?AV?$_List_iterator@V?$_List_val@U?$_List_simple_types@U?$pair@$$CBUCard@@H@std@@@std@@@std@@@2@V?$_List_unchecked_const_iterator@V?$_List_val@U?$_List_simple_types@U?$pair@$$CBUCard@@H@std@@@std@@@std@@U_Iterator_base0@2@@2@@Z ; std::list<std::pair<Card const ,int>,std::allocator<std::pair<Card const ,int> > >::_Make_iter
PUBLIC	?allocate@?$allocator@U?$_List_node@U?$pair@$$CBUCard@@H@std@@PEAX@std@@@std@@QEAAPEAU?$_List_node@U?$pair@$$CBUCard@@H@std@@PEAX@2@_K@Z ; std::allocator<std::_List_node<std::pair<Card const ,int>,void * __ptr64> >::allocate
PUBLIC	??D?$_List_unchecked_const_iterator@V?$_List_val@U?$_List_simple_types@U?$pair@$$CBUCard@@H@std@@@std@@@std@@U_Iterator_base0@2@@std@@QEBAAEBU?$pair@$$CBUCard@@H@1@XZ ; std::_List_unchecked_const_iterator<std::_List_val<std::_List_simple_types<std::pair<Card const ,int> > >,std::_Iterator_base0>::operator*
PUBLIC	??E?$_List_unchecked_const_iterator@V?$_List_val@U?$_List_simple_types@U?$pair@$$CBUCard@@H@std@@@std@@@std@@U_Iterator_base0@2@@std@@QEAAAEAV01@XZ ; std::_List_unchecked_const_iterator<std::_List_val<std::_List_simple_types<std::pair<Card const ,int> > >,std::_Iterator_base0>::operator++
PUBLIC	??8?$_List_unchecked_const_iterator@V?$_List_val@U?$_List_simple_types@U?$pair@$$CBUCard@@H@std@@@std@@@std@@U_Iterator_base0@2@@std@@QEBA_NAEBV01@@Z ; std::_List_unchecked_const_iterator<std::_List_val<std::_List_simple_types<std::pair<Card const ,int> > >,std::_Iterator_base0>::operator==
PUBLIC	??R?$_Uhash_compare@$$CBUCard@@UCardHash@@U?$equal_to@$$CBUCard@@@std@@@std@@QEBA_NAEBUCard@@0@Z ; std::_Uhash_compare<Card const ,CardHash,std::equal_to<Card const > >::operator()
PUBLIC	?_Make_iter@?$_Hash@V?$_Umap_traits@$$CBUCard@@HV?$_Uhash_compare@$$CBUCard@@UCardHash@@U?$equal_to@$$CBUCard@@@std@@@std@@V?$allocator@U?$pair@$$CBUCard@@H@std@@@3@$0A@@std@@@std@@QEBA?AV?$_List_iterator@V?$_List_val@U?$_List_simple_types@U?$pair@$$CBUCard@@H@std@@@std@@@std@@@2@V?$_List_unchecked_const_iterator@V?$_List_val@U?$_List_simple_types@U?$pair@$$CBUCard@@H@std@@@std@@@std@@U_Iterator_base0@2@@2@@Z ; std::_Hash<std::_Umap_traits<Card const ,int,std::_Uhash_compare<Card const ,CardHash,std::equal_to<Card const > >,std::allocator<std::pair<Card const ,int> >,0> >::_Make_iter
PUBLIC	?_Begin@?$_Hash@V?$_Umap_traits@$$CBUCard@@HV?$_Uhash_compare@$$CBUCard@@UCardHash@@U?$equal_to@$$CBUCard@@@std@@@std@@V?$allocator@U?$pair@$$CBUCard@@H@std@@@3@$0A@@std@@@std@@IEAA?AV?$_List_unchecked_iterator@V?$_List_val@U?$_List_simple_types@U?$pair@$$CBUCard@@H@std@@@std@@@std@@@2@_K@Z ; std::_Hash<std::_Umap_traits<Card const ,int,std::_Uhash_compare<Card const ,CardHash,std::equal_to<Card const > >,std::allocator<std::pair<Card const ,int> >,0> >::_Begin
PUBLIC	?_End@?$_Hash@V?$_Umap_traits@$$CBUCard@@HV?$_Uhash_compare@$$CBUCard@@UCardHash@@U?$equal_to@$$CBUCard@@@std@@@std@@V?$allocator@U?$pair@$$CBUCard@@H@std@@@3@$0A@@std@@@std@@IEAA?AV?$_List_unchecked_iterator@V?$_List_val@U?$_List_simple_types@U?$pair@$$CBUCard@@H@std@@@std@@@std@@@2@_K@Z ; std::_Hash<std::_Umap_traits<Card const ,int,std::_Uhash_compare<Card const ,CardHash,std::equal_to<Card const > >,std::allocator<std::pair<Card const ,int> >,0> >::_End
PUBLIC	?_Hashval@?$_Hash@V?$_Umap_traits@$$CBUCard@@HV?$_Uhash_compare@$$CBUCard@@UCardHash@@U?$equal_to@$$CBUCard@@@std@@@std@@V?$allocator@U?$pair@$$CBUCard@@H@std@@@3@$0A@@std@@@std@@IEBA_KAEBUCard@@@Z ; std::_Hash<std::_Umap_traits<Card const ,int,std::_Uhash_compare<Card const ,CardHash,std::equal_to<Card const > >,std::allocator<std::pair<Card const ,int> >,0> >::_Hashval
PUBLIC	?allocate@?$_Wrap_alloc@V?$allocator@U?$_List_node@U?$pair@$$CBUCard@@H@std@@PEAX@std@@@std@@@std@@QEAAPEAU?$_List_node@U?$pair@$$CBUCard@@H@std@@PEAX@2@_K@Z ; std::_Wrap_alloc<std::allocator<std::_List_node<std::pair<Card const ,int>,void * __ptr64> > >::allocate
PUBLIC	??9?$_List_unchecked_const_iterator@V?$_List_val@U?$_List_simple_types@U?$pair@$$CBUCard@@H@std@@@std@@@std@@U_Iterator_base0@2@@std@@QEBA_NAEBV01@@Z ; std::_List_unchecked_const_iterator<std::_List_val<std::_List_simple_types<std::pair<Card const ,int> > >,std::_Iterator_base0>::operator!=
PUBLIC	??D?$_List_unchecked_iterator@V?$_List_val@U?$_List_simple_types@U?$pair@$$CBUCard@@H@std@@@std@@@std@@@std@@QEBAAEAU?$pair@$$CBUCard@@H@1@XZ ; std::_List_unchecked_iterator<std::_List_val<std::_List_simple_types<std::pair<Card const ,int> > > >::operator*
PUBLIC	??E?$_List_unchecked_iterator@V?$_List_val@U?$_List_simple_types@U?$pair@$$CBUCard@@H@std@@@std@@@std@@@std@@QEAAAEAV01@XZ ; std::_List_unchecked_iterator<std::_List_val<std::_List_simple_types<std::pair<Card const ,int> > > >::operator++
PUBLIC	??0?$allocator@UCard@@@std@@QEAA@AEBV01@@Z	; std::allocator<Card>::allocator<Card>
PUBLIC	?lower_bound@?$_Hash@V?$_Umap_traits@$$CBUCard@@HV?$_Uhash_compare@$$CBUCard@@UCardHash@@U?$equal_to@$$CBUCard@@@std@@@std@@V?$allocator@U?$pair@$$CBUCard@@H@std@@@3@$0A@@std@@@std@@QEAA?AV?$_List_iterator@V?$_List_val@U?$_List_simple_types@U?$pair@$$CBUCard@@H@std@@@std@@@std@@@2@AEBUCard@@@Z ; std::_Hash<std::_Umap_traits<Card const ,int,std::_Uhash_compare<Card const ,CardHash,std::equal_to<Card const > >,std::allocator<std::pair<Card const ,int> >,0> >::lower_bound
PUBLIC	?_Buynode0@?$_List_alloc@U?$_List_base_types@U?$pair@$$CBUCard@@H@std@@V?$allocator@U?$pair@$$CBUCard@@H@std@@@2@@std@@@std@@QEAAPEAU?$_List_node@U?$pair@$$CBUCard@@H@std@@PEAX@2@PEAU32@0@Z ; std::_List_alloc<std::_List_base_types<std::pair<Card const ,int>,std::allocator<std::pair<Card const ,int> > > >::_Buynode0
PUBLIC	??0?$_Wrap_alloc@V?$allocator@D@std@@@std@@QEAA@$$QEAU01@@Z ; std::_Wrap_alloc<std::allocator<char> >::_Wrap_alloc<std::allocator<char> >
PUBLIC	??4?$_Wrap_alloc@V?$allocator@D@std@@@std@@QEAAAEAU01@$$QEAU01@@Z ; std::_Wrap_alloc<std::allocator<char> >::operator=
PUBLIC	?_Unused_capacity@?$vector@DV?$allocator@D@std@@@std@@AEBA_KXZ ; std::vector<char,std::allocator<char> >::_Unused_capacity
PUBLIC	?_Umove@?$vector@DV?$allocator@D@std@@@std@@AEAAPEADPEAD00@Z ; std::vector<char,std::allocator<char> >::_Umove
PUBLIC	?_Calculate_growth@?$vector@DV?$allocator@D@std@@@std@@AEBA_K_K@Z ; std::vector<char,std::allocator<char> >::_Calculate_growth
PUBLIC	?_Orphan_range@?$vector@DV?$allocator@D@std@@@std@@AEBAXPEAD0@Z ; std::vector<char,std::allocator<char> >::_Orphan_range
PUBLIC	?_Orphan_range@?$vector@UCard@@V?$allocator@UCard@@@std@@@std@@AEBAXPEAUCard@@0@Z ; std::vector<Card,std::allocator<Card> >::_Orphan_range
PUBLIC	??0?$_Wrap_alloc@V?$allocator@UCard@@@std@@@std@@QEAA@$$QEAU01@@Z ; std::_Wrap_alloc<std::allocator<Card> >::_Wrap_alloc<std::allocator<Card> >
PUBLIC	?find@?$_Hash@V?$_Umap_traits@$$CBUCard@@HV?$_Uhash_compare@$$CBUCard@@UCardHash@@U?$equal_to@$$CBUCard@@@std@@@std@@V?$allocator@U?$pair@$$CBUCard@@H@std@@@3@$0A@@std@@@std@@QEAA?AV?$_List_iterator@V?$_List_val@U?$_List_simple_types@U?$pair@$$CBUCard@@H@std@@@std@@@std@@@2@AEBUCard@@@Z ; std::_Hash<std::_Umap_traits<Card const ,int,std::_Uhash_compare<Card const ,CardHash,std::equal_to<Card const > >,std::allocator<std::pair<Card const ,int> >,0> >::find
PUBLIC	?_Buyheadnode@?$_List_alloc@U?$_List_base_types@U?$pair@$$CBUCard@@H@std@@V?$allocator@U?$pair@$$CBUCard@@H@std@@@2@@std@@@std@@QEAAPEAU?$_List_node@U?$pair@$$CBUCard@@H@std@@PEAX@2@XZ ; std::_List_alloc<std::_List_base_types<std::pair<Card const ,int>,std::allocator<std::pair<Card const ,int> > > >::_Buyheadnode
PUBLIC	??0?$_Vector_val@U?$_Simple_types@V?$_List_unchecked_iterator@V?$_List_val@U?$_List_simple_types@U?$pair@$$CBUCard@@H@std@@@std@@@std@@@std@@@std@@@std@@QEAA@XZ ; std::_Vector_val<std::_Simple_types<std::_List_unchecked_iterator<std::_List_val<std::_List_simple_types<std::pair<Card const ,int> > > > > >::_Vector_val<std::_Simple_types<std::_List_unchecked_iterator<std::_List_val<std::_List_simple_types<std::pair<Card const ,int> > > > > >
PUBLIC	??$_Traits_equal@U?$char_traits@D@std@@_K@std@@YA_NQEBD_K01@Z ; std::_Traits_equal<std::char_traits<char>,unsigned __int64>
PUBLIC	??$_Rechecked@PEAV?$_List_unchecked_iterator@V?$_List_val@U?$_List_simple_types@U?$pair@$$CBUCard@@H@std@@@std@@@std@@@std@@PEAV12@@std@@YAAEAPEAV?$_List_unchecked_iterator@V?$_List_val@U?$_List_simple_types@U?$pair@$$CBUCard@@H@std@@@std@@@std@@@0@AEAPEAV10@PEAV10@@Z ; std::_Rechecked<std::_List_unchecked_iterator<std::_List_val<std::_List_simple_types<std::pair<Card const ,int> > > > * __ptr64,std::_List_unchecked_iterator<std::_List_val<std::_List_simple_types<std::pair<Card const ,int> > > > * __ptr64>
PUBLIC	??$_Uninitialized_move_al_unchecked@PEAV?$_List_unchecked_iterator@V?$_List_val@U?$_List_simple_types@U?$pair@$$CBUCard@@H@std@@@std@@@std@@@std@@PEAV12@U?$_Wrap_alloc@V?$allocator@V?$_List_unchecked_iterator@V?$_List_val@U?$_List_simple_types@U?$pair@$$CBUCard@@H@std@@@std@@@std@@@std@@@std@@@2@@std@@YAPEAV?$_List_unchecked_iterator@V?$_List_val@U?$_List_simple_types@U?$pair@$$CBUCard@@H@std@@@std@@@std@@@0@PEAV10@00AEAU?$_Wrap_alloc@U?$_Wrap_alloc@V?$allocator@V?$_List_unchecked_iterator@V?$_List_val@U?$_List_simple_types@U?$pair@$$CBUCard@@H@std@@@std@@@std@@@std@@@std@@@std@@@0@@Z ; std::_Uninitialized_move_al_unchecked<std::_List_unchecked_iterator<std::_List_val<std::_List_simple_types<std::pair<Card const ,int> > > > * __ptr64,std::_List_unchecked_iterator<std::_List_val<std::_List_simple_types<std::pair<Card const ,int> > > > * __ptr64,std::_Wrap_alloc<std::allocator<std::_List_unchecked_iterator<std::_List_val<std::_List_simple_types<std::pair<Card const ,int> > > > > > >
PUBLIC	??$_Unchecked@PEAV?$_List_unchecked_iterator@V?$_List_val@U?$_List_simple_types@U?$pair@$$CBUCard@@H@std@@@std@@@std@@@std@@@std@@YAPEAV?$_List_unchecked_iterator@V?$_List_val@U?$_List_simple_types@U?$pair@$$CBUCard@@H@std@@@std@@@std@@@0@PEAV10@@Z ; std::_Unchecked<std::_List_unchecked_iterator<std::_List_val<std::_List_simple_types<std::pair<Card const ,int> > > > * __ptr64>
PUBLIC	??$destroy@U?$pair@$$CBUCard@@H@std@@@?$allocator_traits@V?$allocator@U?$_List_node@U?$pair@$$CBUCard@@H@std@@PEAX@std@@@std@@@std@@SAXAEAV?$allocator@U?$_List_node@U?$pair@$$CBUCard@@H@std@@PEAX@std@@@1@PEAU?$pair@$$CBUCard@@H@1@@Z ; std::allocator_traits<std::allocator<std::_List_node<std::pair<Card const ,int>,void * __ptr64> > >::destroy<std::pair<Card const ,int> >
PUBLIC	??$_Uninit_alloc_fill_n1@PEAV?$_List_unchecked_iterator@V?$_List_val@U?$_List_simple_types@U?$pair@$$CBUCard@@H@std@@@std@@@std@@@std@@_KU?$_Wrap_alloc@V?$allocator@V?$_List_unchecked_iterator@V?$_List_val@U?$_List_simple_types@U?$pair@$$CBUCard@@H@std@@@std@@@std@@@std@@@std@@@2@@std@@YAPEAV?$_List_unchecked_iterator@V?$_List_val@U?$_List_simple_types@U?$pair@$$CBUCard@@H@std@@@std@@@std@@@0@PEAV10@_KAEBV10@AEAU?$_Wrap_alloc@U?$_Wrap_alloc@V?$allocator@V?$_List_unchecked_iterator@V?$_List_val@U?$_List_simple_types@U?$pair@$$CBUCard@@H@std@@@std@@@std@@@std@@@std@@@std@@@0@U?$integral_constant@_N$0A@@0@@Z ; std::_Uninit_alloc_fill_n1<std::_List_unchecked_iterator<std::_List_val<std::_List_simple_types<std::pair<Card const ,int> > > > * __ptr64,unsigned __int64,std::_Wrap_alloc<std::allocator<std::_List_unchecked_iterator<std::_List_val<std::_List_simple_types<std::pair<Card const ,int> > > > > > >
PUBLIC	??$_Rechecked@PEADPEAD@std@@YAAEAPEADAEAPEADPEAD@Z ; std::_Rechecked<char * __ptr64,char * __ptr64>
PUBLIC	??$_Uninitialized_move_al_unchecked@PEADPEADV?$allocator@D@std@@@std@@YAPEADPEAD00AEAU?$_Wrap_alloc@V?$allocator@D@std@@@0@@Z ; std::_Uninitialized_move_al_unchecked<char * __ptr64,char * __ptr64,std::allocator<char> >
PUBLIC	??$_Unchecked@PEAD@std@@YAPEADPEAD@Z		; std::_Unchecked<char * __ptr64>
PUBLIC	??$_Rechecked@PEAUCard@@PEAU1@@std@@YAAEAPEAUCard@@AEAPEAU1@PEAU1@@Z ; std::_Rechecked<Card * __ptr64,Card * __ptr64>
PUBLIC	??$_Uninitialized_move_al_unchecked@PEAUCard@@PEAU1@V?$allocator@UCard@@@std@@@std@@YAPEAUCard@@PEAU1@00AEAU?$_Wrap_alloc@V?$allocator@UCard@@@std@@@0@@Z ; std::_Uninitialized_move_al_unchecked<Card * __ptr64,Card * __ptr64,std::allocator<Card> >
PUBLIC	??$_Unchecked@PEAUCard@@@std@@YAPEAUCard@@PEAU1@@Z ; std::_Unchecked<Card * __ptr64>
PUBLIC	??$destroy@PEAU?$_List_node@U?$pair@$$CBUCard@@H@std@@PEAX@std@@@?$allocator_traits@V?$allocator@U?$_List_node@U?$pair@$$CBUCard@@H@std@@PEAX@std@@@std@@@std@@SAXAEAV?$allocator@U?$_List_node@U?$pair@$$CBUCard@@H@std@@PEAX@std@@@1@PEAPEAU?$_List_node@U?$pair@$$CBUCard@@H@std@@PEAX@1@@Z ; std::allocator_traits<std::allocator<std::_List_node<std::pair<Card const ,int>,void * __ptr64> > >::destroy<std::_List_node<std::pair<Card const ,int>,void * __ptr64> * __ptr64>
PUBLIC	??$_Fill_unchecked1@PEAV?$_List_unchecked_iterator@V?$_List_val@U?$_List_simple_types@U?$pair@$$CBUCard@@H@std@@@std@@@std@@@std@@V12@@std@@YAXPEAV?$_List_unchecked_iterator@V?$_List_val@U?$_List_simple_types@U?$pair@$$CBUCard@@H@std@@@std@@@std@@@0@0AEBV10@U?$integral_constant@_N$0A@@0@@Z ; std::_Fill_unchecked1<std::_List_unchecked_iterator<std::_List_val<std::_List_simple_types<std::pair<Card const ,int> > > > * __ptr64,std::_List_unchecked_iterator<std::_List_val<std::_List_simple_types<std::pair<Card const ,int> > > > >
PUBLIC	??$_Fill_memset_is_safe@PEAV?$_List_unchecked_iterator@V?$_List_val@U?$_List_simple_types@U?$pair@$$CBUCard@@H@std@@@std@@@std@@@std@@V12@@std@@YA?AU?$integral_constant@_N$0A@@0@AEBQEAV?$_List_unchecked_iterator@V?$_List_val@U?$_List_simple_types@U?$pair@$$CBUCard@@H@std@@@std@@@std@@@0@AEBV20@@Z ; std::_Fill_memset_is_safe<std::_List_unchecked_iterator<std::_List_val<std::_List_simple_types<std::pair<Card const ,int> > > > * __ptr64,std::_List_unchecked_iterator<std::_List_val<std::_List_simple_types<std::pair<Card const ,int> > > > >
PUBLIC	??$_Destroy_range1@U?$_Wrap_alloc@V?$allocator@V?$_List_unchecked_iterator@V?$_List_val@U?$_List_simple_types@U?$pair@$$CBUCard@@H@std@@@std@@@std@@@std@@@std@@@std@@PEAV?$_List_unchecked_iterator@V?$_List_val@U?$_List_simple_types@U?$pair@$$CBUCard@@H@std@@@std@@@std@@@2@@std@@YAXPEAV?$_List_unchecked_iterator@V?$_List_val@U?$_List_simple_types@U?$pair@$$CBUCard@@H@std@@@std@@@std@@@0@0AEAU?$_Wrap_alloc@U?$_Wrap_alloc@V?$allocator@V?$_List_unchecked_iterator@V?$_List_val@U?$_List_simple_types@U?$pair@$$CBUCard@@H@std@@@std@@@std@@@std@@@std@@@std@@@0@U?$integral_constant@_N$0A@@0@@Z ; std::_Destroy_range1<std::_Wrap_alloc<std::allocator<std::_List_unchecked_iterator<std::_List_val<std::_List_simple_types<std::pair<Card const ,int> > > > > >,std::_List_unchecked_iterator<std::_List_val<std::_List_simple_types<std::pair<Card const ,int> > > > * __ptr64>
PUBLIC	??$_Destroy_range1@V?$allocator@D@std@@PEAD@std@@YAXPEAD0AEAU?$_Wrap_alloc@V?$allocator@D@std@@@0@U?$integral_constant@_N$00@0@@Z ; std::_Destroy_range1<std::allocator<char>,char * __ptr64>
PUBLIC	??$_Destroy_range1@V?$allocator@UCard@@@std@@PEAUCard@@@std@@YAXPEAUCard@@0AEAU?$_Wrap_alloc@V?$allocator@UCard@@@std@@@0@U?$integral_constant@_N$00@0@@Z ; std::_Destroy_range1<std::allocator<Card>,Card * __ptr64>
PUBLIC	??$?0AEBV?$allocator@U?$pair@$$CBUCard@@H@std@@@std@@X@?$_List_alloc@U?$_List_base_types@U?$pair@$$CBUCard@@H@std@@V?$allocator@U?$pair@$$CBUCard@@H@std@@@2@@std@@@std@@QEAA@AEBV?$allocator@U?$pair@$$CBUCard@@H@std@@@1@@Z ; std::_List_alloc<std::_List_base_types<std::pair<Card const ,int>,std::allocator<std::pair<Card const ,int> > > >::_List_alloc<std::_List_base_types<std::pair<Card const ,int>,std::allocator<std::pair<Card const ,int> > > ><std::allocator<std::pair<Card const ,int> > const & __ptr64,void>
PUBLIC	??$?0AEBU?$_Wrap_alloc@V?$allocator@V?$_List_unchecked_iterator@V?$_List_val@U?$_List_simple_types@U?$pair@$$CBUCard@@H@std@@@std@@@std@@@std@@@std@@@std@@$$V@?$_Compressed_pair@U?$_Wrap_alloc@U?$_Wrap_alloc@V?$allocator@V?$_List_unchecked_iterator@V?$_List_val@U?$_List_simple_types@U?$pair@$$CBUCard@@H@std@@@std@@@std@@@std@@@std@@@std@@@std@@V?$_Vector_val@U?$_Simple_types@V?$_List_unchecked_iterator@V?$_List_val@U?$_List_simple_types@U?$pair@$$CBUCard@@H@std@@@std@@@std@@@std@@@std@@@2@$00@std@@QEAA@U_One_then_variadic_args_t@1@AEBU?$_Wrap_alloc@V?$allocator@V?$_List_unchecked_iterator@V?$_List_val@U?$_List_simple_types@U?$pair@$$CBUCard@@H@std@@@std@@@std@@@std@@@std@@@1@@Z ; std::_Compressed_pair<std::_Wrap_alloc<std::_Wrap_alloc<std::allocator<std::_List_unchecked_iterator<std::_List_val<std::_List_simple_types<std::pair<Card const ,int> > > > > > >,std::_Vector_val<std::_Simple_types<std::_List_unchecked_iterator<std::_List_val<std::_List_simple_types<std::pair<Card const ,int> > > > > >,1>::_Compressed_pair<std::_Wrap_alloc<std::_Wrap_alloc<std::allocator<std::_List_unchecked_iterator<std::_List_val<std::_List_simple_types<std::pair<Card const ,int> > > > > > >,std::_Vector_val<std::_Simple_types<std::_List_unchecked_iterator<std::_List_val<std::_List_simple_types<std::pair<Card const ,int> > > > > >,1><std::_Wrap_alloc<std::allocator<std::_List_unchecked_iterator<std::_List_val<std::_List_simple_types<std::pair<Card const ,int> > > > > > const & __ptr64>
PUBLIC	??$forward@AEBU?$_Wrap_alloc@V?$allocator@V?$_List_unchecked_iterator@V?$_List_val@U?$_List_simple_types@U?$pair@$$CBUCard@@H@std@@@std@@@std@@@std@@@std@@@std@@@std@@YAAEBU?$_Wrap_alloc@V?$allocator@V?$_List_unchecked_iterator@V?$_List_val@U?$_List_simple_types@U?$pair@$$CBUCard@@H@std@@@std@@@std@@@std@@@std@@@0@AEBU10@@Z ; std::forward<std::_Wrap_alloc<std::allocator<std::_List_unchecked_iterator<std::_List_val<std::_List_simple_types<std::pair<Card const ,int> > > > > > const & __ptr64>
PUBLIC	??$construct@PEADAEAPEAD@?$allocator_traits@V?$allocator@D@std@@@std@@SAXAEAV?$allocator@D@1@PEAPEADAEAPEAD@Z ; std::allocator_traits<std::allocator<char> >::construct<char * __ptr64,char * __ptr64 & __ptr64>
PUBLIC	??$forward@AEAPEAD@std@@YAAEAPEADAEAPEAD@Z	; std::forward<char * __ptr64 & __ptr64>
PUBLIC	??$destroy@PEAD@?$allocator_traits@V?$allocator@D@std@@@std@@SAXAEAV?$allocator@D@1@PEAPEAD@Z ; std::allocator_traits<std::allocator<char> >::destroy<char * __ptr64>
PUBLIC	??$_Uninitialized_default_fill_n1@PEAD_KV?$allocator@D@std@@@std@@YAPEADPEAD_KAEAU?$_Wrap_alloc@V?$allocator@D@std@@@0@U?$integral_constant@_N$00@0@@Z ; std::_Uninitialized_default_fill_n1<char * __ptr64,unsigned __int64,std::allocator<char> >
PUBLIC	??$_Pocma@U?$_Wrap_alloc@V?$allocator@D@std@@@std@@@std@@YAXAEAU?$_Wrap_alloc@V?$allocator@D@std@@@0@0U?$integral_constant@_N$00@0@@Z ; std::_Pocma<std::_Wrap_alloc<std::allocator<char> > >
PUBLIC	??$?0AEAU?$equal_to@$$CBUCard@@@std@@M@?$_Compressed_pair@U?$equal_to@$$CBUCard@@@std@@M$00@std@@QEAA@U_One_then_variadic_args_t@1@AEAU?$equal_to@$$CBUCard@@@1@$$QEAM@Z ; std::_Compressed_pair<std::equal_to<Card const >,float,1>::_Compressed_pair<std::equal_to<Card const >,float,1><std::equal_to<Card const > & __ptr64,float>
PUBLIC	??$forward@M@std@@YA$$QEAMAEAM@Z		; std::forward<float>
PUBLIC	??$forward@AEAU?$equal_to@$$CBUCard@@@std@@@std@@YAAEAU?$equal_to@$$CBUCard@@@0@AEAU10@@Z ; std::forward<std::equal_to<Card const > & __ptr64>
PUBLIC	??$forward@U_One_then_variadic_args_t@std@@@std@@YA$$QEAU_One_then_variadic_args_t@0@AEAU10@@Z ; std::forward<std::_One_then_variadic_args_t>
PUBLIC	??$forward@AEAUCardHash@@@std@@YAAEAUCardHash@@AEAU1@@Z ; std::forward<CardHash & __ptr64>
PUBLIC	??$?0U?$pair@$$CBUCard@@H@std@@@?$allocator@V?$_List_unchecked_iterator@V?$_List_val@U?$_List_simple_types@U?$pair@$$CBUCard@@H@std@@@std@@@std@@@std@@@std@@QEAA@AEBV?$allocator@U?$pair@$$CBUCard@@H@std@@@1@@Z ; std::allocator<std::_List_unchecked_iterator<std::_List_val<std::_List_simple_types<std::pair<Card const ,int> > > > >::allocator<std::_List_unchecked_iterator<std::_List_val<std::_List_simple_types<std::pair<Card const ,int> > > > ><std::pair<Card const ,int> >
PUBLIC	??$forward@AEBV?$allocator@U?$pair@$$CBUCard@@H@std@@@std@@@std@@YAAEBV?$allocator@U?$pair@$$CBUCard@@H@std@@@0@AEBV10@@Z ; std::forward<std::allocator<std::pair<Card const ,int> > const & __ptr64>
PUBLIC	??$?0U?$_Wrap_alloc@V?$allocator@D@std@@@std@@$$V@?$_Compressed_pair@U?$_Wrap_alloc@V?$allocator@D@std@@@std@@V?$_String_val@U?$_Simple_types@D@std@@@2@$00@std@@QEAA@U_One_then_variadic_args_t@1@$$QEAU?$_Wrap_alloc@V?$allocator@D@std@@@1@@Z ; std::_Compressed_pair<std::_Wrap_alloc<std::allocator<char> >,std::_String_val<std::_Simple_types<char> >,1>::_Compressed_pair<std::_Wrap_alloc<std::allocator<char> >,std::_String_val<std::_Simple_types<char> >,1><std::_Wrap_alloc<std::allocator<char> > >
PUBLIC	??$?0AEBV?$allocator@D@std@@X@?$_Vector_alloc@U?$_Vec_base_types@DV?$allocator@D@std@@@std@@@std@@QEAA@AEBV?$allocator@D@1@@Z ; std::_Vector_alloc<std::_Vec_base_types<char,std::allocator<char> > >::_Vector_alloc<std::_Vec_base_types<char,std::allocator<char> > ><std::allocator<char> const & __ptr64,void>
PUBLIC	??$forward@AEBV?$allocator@D@std@@@std@@YAAEBV?$allocator@D@0@AEBV10@@Z ; std::forward<std::allocator<char> const & __ptr64>
PUBLIC	??$?0U?$_Wrap_alloc@V?$allocator@D@std@@@std@@$$V@?$_Compressed_pair@U?$_Wrap_alloc@V?$allocator@D@std@@@std@@V?$_Vector_val@U?$_Simple_types@D@std@@@2@$00@std@@QEAA@U_One_then_variadic_args_t@1@$$QEAU?$_Wrap_alloc@V?$allocator@D@std@@@1@@Z ; std::_Compressed_pair<std::_Wrap_alloc<std::allocator<char> >,std::_Vector_val<std::_Simple_types<char> >,1>::_Compressed_pair<std::_Wrap_alloc<std::allocator<char> >,std::_Vector_val<std::_Simple_types<char> >,1><std::_Wrap_alloc<std::allocator<char> > >
PUBLIC	??$forward@U?$_Wrap_alloc@V?$allocator@D@std@@@std@@@std@@YA$$QEAU?$_Wrap_alloc@V?$allocator@D@std@@@0@AEAU10@@Z ; std::forward<std::_Wrap_alloc<std::allocator<char> > >
PUBLIC	??$?0U?$_Wrap_alloc@V?$allocator@UCard@@@std@@@std@@$$V@?$_Compressed_pair@U?$_Wrap_alloc@V?$allocator@UCard@@@std@@@std@@V?$_Vector_val@U?$_Simple_types@UCard@@@std@@@2@$00@std@@QEAA@U_One_then_variadic_args_t@1@$$QEAU?$_Wrap_alloc@V?$allocator@UCard@@@std@@@1@@Z ; std::_Compressed_pair<std::_Wrap_alloc<std::allocator<Card> >,std::_Vector_val<std::_Simple_types<Card> >,1>::_Compressed_pair<std::_Wrap_alloc<std::allocator<Card> >,std::_Vector_val<std::_Simple_types<Card> >,1><std::_Wrap_alloc<std::allocator<Card> > >
PUBLIC	??$forward@U?$_Wrap_alloc@V?$allocator@UCard@@@std@@@std@@@std@@YA$$QEAU?$_Wrap_alloc@V?$allocator@UCard@@@std@@@0@AEAU10@@Z ; std::forward<std::_Wrap_alloc<std::allocator<Card> > >
PUBLIC	??$destroy@UCard@@@?$_Wrap_alloc@V?$allocator@UCard@@@std@@@std@@QEAAXPEAUCard@@@Z ; std::_Wrap_alloc<std::allocator<Card> >::destroy<Card>
PUBLIC	??$construct@UCard@@AEBU1@@?$_Wrap_alloc@V?$allocator@UCard@@@std@@@std@@QEAAXPEAUCard@@AEBU2@@Z ; std::_Wrap_alloc<std::allocator<Card> >::construct<Card,Card const & __ptr64>
PUBLIC	??$_Unfancy@UCard@@@std@@YAPEAUCard@@PEAU1@@Z	; std::_Unfancy<Card>
PUBLIC	??$_Emplace_back_with_unused_capacity@AEBUCard@@@?$vector@UCard@@V?$allocator@UCard@@@std@@@std@@AEAAXAEBUCard@@@Z ; std::vector<Card,std::allocator<Card> >::_Emplace_back_with_unused_capacity<Card const & __ptr64>
PUBLIC	??$forward@AEBUCard@@@std@@YAAEBUCard@@AEBU1@@Z	; std::forward<Card const & __ptr64>
PUBLIC	??$_Try_emplace@AEBUCard@@$$V@?$unordered_map@$$CBUCard@@HUCardHash@@U?$equal_to@$$CBUCard@@@std@@V?$allocator@U?$pair@$$CBUCard@@H@std@@@4@@std@@QEAA?AU?$pair@V?$_List_iterator@V?$_List_val@U?$_List_simple_types@U?$pair@$$CBUCard@@H@std@@@std@@@std@@@std@@_N@1@AEBUCard@@@Z ; std::unordered_map<Card const ,int,CardHash,std::equal_to<Card const >,std::allocator<std::pair<Card const ,int> > >::_Try_emplace<Card const & __ptr64>
PUBLIC	??$_Insert_range@PEBD@?$vector@DV?$allocator@D@std@@@std@@AEAAXV?$_Vector_const_iterator@V?$_Vector_val@U?$_Simple_types@D@std@@@std@@@1@PEBD1Uforward_iterator_tag@1@@Z ; std::vector<char,std::allocator<char> >::_Insert_range<char const * __ptr64>
PUBLIC	??$_Unchecked@PEBD@std@@YAPEBDPEBD@Z		; std::_Unchecked<char const * __ptr64>
PUBLIC	??$end@V?$Span@D@myio@@@std@@YAPEBDAEBV?$Span@D@myio@@@Z ; std::end<myio::Span<char> >
PUBLIC	??$begin@V?$Span@D@myio@@@std@@YAPEBDAEBV?$Span@D@myio@@@Z ; std::begin<myio::Span<char> >
PUBLIC	??0?$_Vector_const_iterator@V?$_Vector_val@U?$_Simple_types@D@std@@@std@@@std@@QEAA@PEADPEBU_Container_base0@1@@Z ; std::_Vector_const_iterator<std::_Vector_val<std::_Simple_types<char> > >::_Vector_const_iterator<std::_Vector_val<std::_Simple_types<char> > >
PUBLIC	??Y?$_Vector_const_iterator@V?$_Vector_val@U?$_Simple_types@D@std@@@std@@@std@@QEAAAEAV01@_J@Z ; std::_Vector_const_iterator<std::_Vector_val<std::_Simple_types<char> > >::operator+=
PUBLIC	?max_size@?$allocator@V?$_List_unchecked_iterator@V?$_List_val@U?$_List_simple_types@U?$pair@$$CBUCard@@H@std@@@std@@@std@@@std@@@std@@QEBA_KXZ ; std::allocator<std::_List_unchecked_iterator<std::_List_val<std::_List_simple_types<std::pair<Card const ,int> > > > >::max_size
PUBLIC	??0_Bxty@?$_String_val@U?$_Simple_types@D@std@@@std@@QEAA@XZ ; std::_String_val<std::_Simple_types<char> >::_Bxty::_Bxty
PUBLIC	??0?$_Vector_iterator@V?$_Vector_val@U?$_Simple_types@D@std@@@std@@@std@@QEAA@PEADPEBU_Container_base0@1@@Z ; std::_Vector_iterator<std::_Vector_val<std::_Simple_types<char> > >::_Vector_iterator<std::_Vector_val<std::_Simple_types<char> > >
PUBLIC	??Y?$_Vector_iterator@V?$_Vector_val@U?$_Simple_types@D@std@@@std@@@std@@QEAAAEAV01@_J@Z ; std::_Vector_iterator<std::_Vector_val<std::_Simple_types<char> > >::operator+=
PUBLIC	??0?$allocator@UCard@@@std@@QEAA@XZ		; std::allocator<Card>::allocator<Card>
PUBLIC	?max_size@?$allocator_traits@V?$allocator@V?$_List_unchecked_iterator@V?$_List_val@U?$_List_simple_types@U?$pair@$$CBUCard@@H@std@@@std@@@std@@@std@@@std@@@std@@SA_KAEBV?$allocator@V?$_List_unchecked_iterator@V?$_List_val@U?$_List_simple_types@U?$pair@$$CBUCard@@H@std@@@std@@@std@@@std@@@2@@Z ; std::allocator_traits<std::allocator<std::_List_unchecked_iterator<std::_List_val<std::_List_simple_types<std::pair<Card const ,int> > > > > >::max_size
PUBLIC	?push_back@?$basic_string@DU?$char_traits@D@std@@V?$allocator@D@2@@std@@QEAAXD@Z ; std::basic_string<char,std::char_traits<char>,std::allocator<char> >::push_back
PUBLIC	?_Equal@?$basic_string@DU?$char_traits@D@std@@V?$allocator@D@2@@std@@QEBA_NAEBV12@@Z ; std::basic_string<char,std::char_traits<char>,std::allocator<char> >::_Equal
PUBLIC	??0?$_Wrap_alloc@V?$allocator@D@std@@@std@@QEAA@XZ ; std::_Wrap_alloc<std::allocator<char> >::_Wrap_alloc<std::allocator<char> >
PUBLIC	??0?$_String_val@U?$_Simple_types@D@std@@@std@@QEAA@XZ ; std::_String_val<std::_Simple_types<char> >::_String_val<std::_Simple_types<char> >
PUBLIC	?begin@?$vector@DV?$allocator@D@std@@@std@@QEAA?AV?$_Vector_iterator@V?$_Vector_val@U?$_Simple_types@D@std@@@std@@@2@XZ ; std::vector<char,std::allocator<char> >::begin
PUBLIC	?end@?$vector@DV?$allocator@D@std@@@std@@QEAA?AV?$_Vector_iterator@V?$_Vector_val@U?$_Simple_types@D@std@@@std@@@2@XZ ; std::vector<char,std::allocator<char> >::end
PUBLIC	??0?$_Vector_val@U?$_Simple_types@D@std@@@std@@QEAA@XZ ; std::_Vector_val<std::_Simple_types<char> >::_Vector_val<std::_Simple_types<char> >
PUBLIC	??H?$_Vector_iterator@V?$_Vector_val@U?$_Simple_types@D@std@@@std@@@std@@QEBA?AV01@_J@Z ; std::_Vector_iterator<std::_Vector_val<std::_Simple_types<char> > >::operator+
PUBLIC	?_Has_unused_capacity@?$vector@UCard@@V?$allocator@UCard@@@std@@@std@@AEBA_NXZ ; std::vector<Card,std::allocator<Card> >::_Has_unused_capacity
PUBLIC	?_Calculate_growth@?$vector@UCard@@V?$allocator@UCard@@@std@@@std@@AEBA_K_K@Z ; std::vector<Card,std::allocator<Card> >::_Calculate_growth
PUBLIC	??0?$_Wrap_alloc@V?$allocator@UCard@@@std@@@std@@QEAA@XZ ; std::_Wrap_alloc<std::allocator<Card> >::_Wrap_alloc<std::allocator<Card> >
PUBLIC	??0?$_Vector_val@U?$_Simple_types@UCard@@@std@@@std@@QEAA@XZ ; std::_Vector_val<std::_Simple_types<Card> >::_Vector_val<std::_Simple_types<Card> >
PUBLIC	?max_size@?$_Wrap_alloc@V?$allocator@V?$_List_unchecked_iterator@V?$_List_val@U?$_List_simple_types@U?$pair@$$CBUCard@@H@std@@@std@@@std@@@std@@@std@@@std@@QEBA_KU_Nil@2@@Z ; std::_Wrap_alloc<std::allocator<std::_List_unchecked_iterator<std::_List_val<std::_List_simple_types<std::pair<Card const ,int> > > > > >::max_size
PUBLIC	??$_Uninitialized_move@PEAV?$_List_unchecked_iterator@V?$_List_val@U?$_List_simple_types@U?$pair@$$CBUCard@@H@std@@@std@@@std@@@std@@PEAV12@U?$_Wrap_alloc@V?$allocator@V?$_List_unchecked_iterator@V?$_List_val@U?$_List_simple_types@U?$pair@$$CBUCard@@H@std@@@std@@@std@@@std@@@std@@@2@@std@@YAPEAV?$_List_unchecked_iterator@V?$_List_val@U?$_List_simple_types@U?$pair@$$CBUCard@@H@std@@@std@@@std@@@0@PEAV10@00AEAU?$_Wrap_alloc@U?$_Wrap_alloc@V?$allocator@V?$_List_unchecked_iterator@V?$_List_val@U?$_List_simple_types@U?$pair@$$CBUCard@@H@std@@@std@@@std@@@std@@@std@@@std@@@0@@Z ; std::_Uninitialized_move<std::_List_unchecked_iterator<std::_List_val<std::_List_simple_types<std::pair<Card const ,int> > > > * __ptr64,std::_List_unchecked_iterator<std::_List_val<std::_List_simple_types<std::pair<Card const ,int> > > > * __ptr64,std::_Wrap_alloc<std::allocator<std::_List_unchecked_iterator<std::_List_val<std::_List_simple_types<std::pair<Card const ,int> > > > > > >
PUBLIC	??$_Fn@U?$_Wrap_alloc@V?$allocator@V?$_List_unchecked_iterator@V?$_List_val@U?$_List_simple_types@U?$pair@$$CBUCard@@H@std@@@std@@@std@@@std@@@std@@@std@@@_Alloc_max_size@std@@SA_KHAEBU?$_Wrap_alloc@V?$allocator@V?$_List_unchecked_iterator@V?$_List_val@U?$_List_simple_types@U?$pair@$$CBUCard@@H@std@@@std@@@std@@@std@@@std@@@1@@Z ; std::_Alloc_max_size::_Fn<std::_Wrap_alloc<std::allocator<std::_List_unchecked_iterator<std::_List_val<std::_List_simple_types<std::pair<Card const ,int> > > > > > >
PUBLIC	??$destroy@U?$pair@$$CBUCard@@H@std@@@?$_Wrap_alloc@V?$allocator@U?$_List_node@U?$pair@$$CBUCard@@H@std@@PEAX@std@@@std@@@std@@QEAAXPEAU?$pair@$$CBUCard@@H@1@@Z ; std::_Wrap_alloc<std::allocator<std::_List_node<std::pair<Card const ,int>,void * __ptr64> > >::destroy<std::pair<Card const ,int> >
PUBLIC	??$_Uninitialized_fill_n@PEAV?$_List_unchecked_iterator@V?$_List_val@U?$_List_simple_types@U?$pair@$$CBUCard@@H@std@@@std@@@std@@@std@@_KU?$_Wrap_alloc@V?$allocator@V?$_List_unchecked_iterator@V?$_List_val@U?$_List_simple_types@U?$pair@$$CBUCard@@H@std@@@std@@@std@@@std@@@std@@@2@@std@@YAPEAV?$_List_unchecked_iterator@V?$_List_val@U?$_List_simple_types@U?$pair@$$CBUCard@@H@std@@@std@@@std@@@0@PEAV10@_KAEBV10@AEAU?$_Wrap_alloc@U?$_Wrap_alloc@V?$allocator@V?$_List_unchecked_iterator@V?$_List_val@U?$_List_simple_types@U?$pair@$$CBUCard@@H@std@@@std@@@std@@@std@@@std@@@std@@@0@@Z ; std::_Uninitialized_fill_n<std::_List_unchecked_iterator<std::_List_val<std::_List_simple_types<std::pair<Card const ,int> > > > * __ptr64,unsigned __int64,std::_Wrap_alloc<std::allocator<std::_List_unchecked_iterator<std::_List_val<std::_List_simple_types<std::pair<Card const ,int> > > > > > >
PUBLIC	??$_Uninitialized_move@PEADPEADV?$allocator@D@std@@@std@@YAPEADPEAD00AEAU?$_Wrap_alloc@V?$allocator@D@std@@@0@@Z ; std::_Uninitialized_move<char * __ptr64,char * __ptr64,std::allocator<char> >
PUBLIC	??$_Uninitialized_move@PEAUCard@@PEAU1@V?$allocator@UCard@@@std@@@std@@YAPEAUCard@@PEAU1@00AEAU?$_Wrap_alloc@V?$allocator@UCard@@@std@@@0@@Z ; std::_Uninitialized_move<Card * __ptr64,Card * __ptr64,std::allocator<Card> >
PUBLIC	??$destroy@PEAU?$_List_node@U?$pair@$$CBUCard@@H@std@@PEAX@std@@@?$_Wrap_alloc@V?$allocator@U?$_List_node@U?$pair@$$CBUCard@@H@std@@PEAX@std@@@std@@@std@@QEAAXPEAPEAU?$_List_node@U?$pair@$$CBUCard@@H@std@@PEAX@1@@Z ; std::_Wrap_alloc<std::allocator<std::_List_node<std::pair<Card const ,int>,void * __ptr64> > >::destroy<std::_List_node<std::pair<Card const ,int>,void * __ptr64> * __ptr64>
PUBLIC	??$addressof@PEAU?$_List_node@U?$pair@$$CBUCard@@H@std@@PEAX@std@@@std@@YAPEAPEAU?$_List_node@U?$pair@$$CBUCard@@H@std@@PEAX@0@AEAPEAU10@@Z ; std::addressof<std::_List_node<std::pair<Card const ,int>,void * __ptr64> * __ptr64>
PUBLIC	??$_Fill_unchecked@PEAV?$_List_unchecked_iterator@V?$_List_val@U?$_List_simple_types@U?$pair@$$CBUCard@@H@std@@@std@@@std@@@std@@V12@@std@@YAXPEAV?$_List_unchecked_iterator@V?$_List_val@U?$_List_simple_types@U?$pair@$$CBUCard@@H@std@@@std@@@std@@@0@0AEBV10@@Z ; std::_Fill_unchecked<std::_List_unchecked_iterator<std::_List_val<std::_List_simple_types<std::pair<Card const ,int> > > > * __ptr64,std::_List_unchecked_iterator<std::_List_val<std::_List_simple_types<std::pair<Card const ,int> > > > >
PUBLIC	??$_Destroy_range@U?$_Wrap_alloc@V?$allocator@V?$_List_unchecked_iterator@V?$_List_val@U?$_List_simple_types@U?$pair@$$CBUCard@@H@std@@@std@@@std@@@std@@@std@@@std@@PEAV?$_List_unchecked_iterator@V?$_List_val@U?$_List_simple_types@U?$pair@$$CBUCard@@H@std@@@std@@@std@@@2@@std@@YAXPEAV?$_List_unchecked_iterator@V?$_List_val@U?$_List_simple_types@U?$pair@$$CBUCard@@H@std@@@std@@@std@@@0@0AEAU?$_Wrap_alloc@U?$_Wrap_alloc@V?$allocator@V?$_List_unchecked_iterator@V?$_List_val@U?$_List_simple_types@U?$pair@$$CBUCard@@H@std@@@std@@@std@@@std@@@std@@@std@@@0@@Z ; std::_Destroy_range<std::_Wrap_alloc<std::allocator<std::_List_unchecked_iterator<std::_List_val<std::_List_simple_types<std::pair<Card const ,int> > > > > >,std::_List_unchecked_iterator<std::_List_val<std::_List_simple_types<std::pair<Card const ,int> > > > * __ptr64>
PUBLIC	??$_Min_value@_K@std@@YAAEB_KAEB_K0@Z		; std::_Min_value<unsigned __int64>
PUBLIC	??$_Unfancy@D@std@@YAPEADPEAD@Z			; std::_Unfancy<char>
PUBLIC	??$_Destroy_range@V?$allocator@D@std@@PEAD@std@@YAXPEAD0AEAU?$_Wrap_alloc@V?$allocator@D@std@@@0@@Z ; std::_Destroy_range<std::allocator<char>,char * __ptr64>
PUBLIC	??$_Destroy_range@V?$allocator@UCard@@@std@@PEAUCard@@@std@@YAXPEAUCard@@0AEAU?$_Wrap_alloc@V?$allocator@UCard@@@std@@@0@@Z ; std::_Destroy_range<std::allocator<Card>,Card * __ptr64>
PUBLIC	??$?0AEBV?$allocator@U?$pair@$$CBUCard@@H@std@@@std@@X@?$_List_buy@U?$pair@$$CBUCard@@H@std@@V?$allocator@U?$pair@$$CBUCard@@H@std@@@2@@std@@QEAA@AEBV?$allocator@U?$pair@$$CBUCard@@H@std@@@1@@Z ; std::_List_buy<std::pair<Card const ,int>,std::allocator<std::pair<Card const ,int> > >::_List_buy<std::pair<Card const ,int>,std::allocator<std::pair<Card const ,int> > ><std::allocator<std::pair<Card const ,int> > const & __ptr64,void>
PUBLIC	??$?0AEBU?$_Wrap_alloc@V?$allocator@V?$_List_unchecked_iterator@V?$_List_val@U?$_List_simple_types@U?$pair@$$CBUCard@@H@std@@@std@@@std@@@std@@@std@@@std@@X@?$_Vector_alloc@U?$_Vec_base_types@V?$_List_unchecked_iterator@V?$_List_val@U?$_List_simple_types@U?$pair@$$CBUCard@@H@std@@@std@@@std@@@std@@U?$_Wrap_alloc@V?$allocator@V?$_List_unchecked_iterator@V?$_List_val@U?$_List_simple_types@U?$pair@$$CBUCard@@H@std@@@std@@@std@@@std@@@std@@@2@@std@@@std@@QEAA@AEBU?$_Wrap_alloc@V?$allocator@V?$_List_unchecked_iterator@V?$_List_val@U?$_List_simple_types@U?$pair@$$CBUCard@@H@std@@@std@@@std@@@std@@@std@@@1@@Z ; std::_Vector_alloc<std::_Vec_base_types<std::_List_unchecked_iterator<std::_List_val<std::_List_simple_types<std::pair<Card const ,int> > > >,std::_Wrap_alloc<std::allocator<std::_List_unchecked_iterator<std::_List_val<std::_List_simple_types<std::pair<Card const ,int> > > > > > > >::_Vector_alloc<std::_Vec_base_types<std::_List_unchecked_iterator<std::_List_val<std::_List_simple_types<std::pair<Card const ,int> > > >,std::_Wrap_alloc<std::allocator<std::_List_unchecked_iterator<std::_List_val<std::_List_simple_types<std::pair<Card const ,int> > > > > > > ><std::_Wrap_alloc<std::allocator<std::_List_unchecked_iterator<std::_List_val<std::_List_simple_types<std::pair<Card const ,int> > > > > > const & __ptr64,void>
PUBLIC	??$addressof@U?$pair@$$CBUCard@@H@std@@@std@@YAPEAU?$pair@$$CBUCard@@H@0@AEAU10@@Z ; std::addressof<std::pair<Card const ,int> >
PUBLIC	??$construct@PEADAEAPEAD@?$_Wrap_alloc@V?$allocator@D@std@@@std@@QEAAXPEAPEADAEAPEAD@Z ; std::_Wrap_alloc<std::allocator<char> >::construct<char * __ptr64,char * __ptr64 & __ptr64>
PUBLIC	??$destroy@PEAD@?$_Wrap_alloc@V?$allocator@D@std@@@std@@QEAAXPEAPEAD@Z ; std::_Wrap_alloc<std::allocator<char> >::destroy<char * __ptr64>
PUBLIC	??$addressof@PEAD@std@@YAPEAPEADAEAPEAD@Z	; std::addressof<char * __ptr64>
PUBLIC	??$?0$$V@?$_Compressed_pair@U?$_Wrap_alloc@V?$allocator@D@std@@@std@@V?$_String_val@U?$_Simple_types@D@std@@@2@$00@std@@QEAA@U_Zero_then_variadic_args_t@1@@Z ; std::_Compressed_pair<std::_Wrap_alloc<std::allocator<char> >,std::_String_val<std::_Simple_types<char> >,1>::_Compressed_pair<std::_Wrap_alloc<std::allocator<char> >,std::_String_val<std::_Simple_types<char> >,1><>
PUBLIC	??$_Uninitialized_default_fill_n@PEAD_KV?$allocator@D@std@@@std@@YAPEADPEAD_KAEAU?$_Wrap_alloc@V?$allocator@D@std@@@0@@Z ; std::_Uninitialized_default_fill_n<char * __ptr64,unsigned __int64,std::allocator<char> >
PUBLIC	??$?0$$V@?$_Compressed_pair@U?$_Wrap_alloc@V?$allocator@D@std@@@std@@V?$_Vector_val@U?$_Simple_types@D@std@@@2@$00@std@@QEAA@U_Zero_then_variadic_args_t@1@@Z ; std::_Compressed_pair<std::_Wrap_alloc<std::allocator<char> >,std::_Vector_val<std::_Simple_types<char> >,1>::_Compressed_pair<std::_Wrap_alloc<std::allocator<char> >,std::_Vector_val<std::_Simple_types<char> >,1><>
PUBLIC	??$_Pocma@U?$_Wrap_alloc@V?$allocator@D@std@@@std@@@std@@YAXAEAU?$_Wrap_alloc@V?$allocator@D@std@@@0@0@Z ; std::_Pocma<std::_Wrap_alloc<std::allocator<char> > >
PUBLIC	??$?0$$V@?$_Compressed_pair@U?$_Wrap_alloc@V?$allocator@UCard@@@std@@@std@@V?$_Vector_val@U?$_Simple_types@UCard@@@std@@@2@$00@std@@QEAA@U_Zero_then_variadic_args_t@1@@Z ; std::_Compressed_pair<std::_Wrap_alloc<std::allocator<Card> >,std::_Vector_val<std::_Simple_types<Card> >,1>::_Compressed_pair<std::_Wrap_alloc<std::allocator<Card> >,std::_Vector_val<std::_Simple_types<Card> >,1><>
PUBLIC	??$?0AEAUCardHash@@U_One_then_variadic_args_t@std@@AEAU?$equal_to@$$CBUCard@@@2@M@?$_Compressed_pair@UCardHash@@V?$_Compressed_pair@U?$equal_to@$$CBUCard@@@std@@M$00@std@@$00@std@@QEAA@U_One_then_variadic_args_t@1@AEAUCardHash@@$$QEAU21@AEAU?$equal_to@$$CBUCard@@@1@$$QEAM@Z ; std::_Compressed_pair<CardHash,std::_Compressed_pair<std::equal_to<Card const >,float,1>,1>::_Compressed_pair<CardHash,std::_Compressed_pair<std::equal_to<Card const >,float,1>,1><CardHash & __ptr64,std::_One_then_variadic_args_t,std::equal_to<Card const > & __ptr64,float>
PUBLIC	??$?0AEBV?$allocator@U?$pair@$$CBUCard@@H@std@@@std@@@?$_Wrap_alloc@V?$allocator@V?$_List_unchecked_iterator@V?$_List_val@U?$_List_simple_types@U?$pair@$$CBUCard@@H@std@@@std@@@std@@@std@@@std@@@std@@QEAA@AEBV?$allocator@U?$pair@$$CBUCard@@H@std@@@1@@Z ; std::_Wrap_alloc<std::allocator<std::_List_unchecked_iterator<std::_List_val<std::_List_simple_types<std::pair<Card const ,int> > > > > >::_Wrap_alloc<std::allocator<std::_List_unchecked_iterator<std::_List_val<std::_List_simple_types<std::pair<Card const ,int> > > > > ><std::allocator<std::pair<Card const ,int> > const & __ptr64>
PUBLIC	??$move@AEAV?$basic_string@DU?$char_traits@D@std@@V?$allocator@D@2@@std@@@std@@YA$$QEAV?$basic_string@DU?$char_traits@D@std@@V?$allocator@D@2@@0@AEAV10@@Z ; std::move<std::basic_string<char,std::char_traits<char>,std::allocator<char> > & __ptr64>
PUBLIC	??$?0U?$_Wrap_alloc@V?$allocator@D@std@@@std@@X@?$_String_alloc@U?$_String_base_types@DV?$allocator@D@std@@@std@@@std@@QEAA@$$QEAU?$_Wrap_alloc@V?$allocator@D@std@@@1@@Z ; std::_String_alloc<std::_String_base_types<char,std::allocator<char> > >::_String_alloc<std::_String_base_types<char,std::allocator<char> > ><std::_Wrap_alloc<std::allocator<char> >,void>
PUBLIC	??$?0U_Nil@std@@AEBV?$allocator@D@1@X@?$vector@DV?$allocator@D@std@@@std@@AEAA@U_Nil@1@AEBV?$allocator@D@1@@Z ; std::vector<char,std::allocator<char> >::vector<char,std::allocator<char> ><std::_Nil,std::allocator<char> const & __ptr64,void>
PUBLIC	??$?0U?$_Wrap_alloc@V?$allocator@D@std@@@std@@X@?$_Vector_alloc@U?$_Vec_base_types@DV?$allocator@D@std@@@std@@@std@@QEAA@$$QEAU?$_Wrap_alloc@V?$allocator@D@std@@@1@@Z ; std::_Vector_alloc<std::_Vec_base_types<char,std::allocator<char> > >::_Vector_alloc<std::_Vec_base_types<char,std::allocator<char> > ><std::_Wrap_alloc<std::allocator<char> >,void>
PUBLIC	??$move@AEAU?$_Wrap_alloc@V?$allocator@D@std@@@std@@@std@@YA$$QEAU?$_Wrap_alloc@V?$allocator@D@std@@@0@AEAU10@@Z ; std::move<std::_Wrap_alloc<std::allocator<char> > & __ptr64>
PUBLIC	??$move@AEAV?$vector@DV?$allocator@D@std@@@std@@@std@@YA$$QEAV?$vector@DV?$allocator@D@std@@@0@AEAV10@@Z ; std::move<std::vector<char,std::allocator<char> > & __ptr64>
PUBLIC	??$_Unfancy_maybe_null@D@std@@YAPEADPEAD@Z	; std::_Unfancy_maybe_null<char>
PUBLIC	??$move@AEAV?$vector@UCard@@V?$allocator@UCard@@@std@@@std@@@std@@YA$$QEAV?$vector@UCard@@V?$allocator@UCard@@@std@@@0@AEAV10@@Z ; std::move<std::vector<Card,std::allocator<Card> > & __ptr64>
PUBLIC	??$?0U?$_Wrap_alloc@V?$allocator@UCard@@@std@@@std@@X@?$_Vector_alloc@U?$_Vec_base_types@UCard@@V?$allocator@UCard@@@std@@@std@@@std@@QEAA@$$QEAU?$_Wrap_alloc@V?$allocator@UCard@@@std@@@1@@Z ; std::_Vector_alloc<std::_Vec_base_types<Card,std::allocator<Card> > >::_Vector_alloc<std::_Vec_base_types<Card,std::allocator<Card> > ><std::_Wrap_alloc<std::allocator<Card> >,void>
PUBLIC	??$move@AEAU?$_Wrap_alloc@V?$allocator@UCard@@@std@@@std@@@std@@YA$$QEAU?$_Wrap_alloc@V?$allocator@UCard@@@std@@@0@AEAU10@@Z ; std::move<std::_Wrap_alloc<std::allocator<Card> > & __ptr64>
PUBLIC	??$emplace_back@AEBUCard@@@?$vector@UCard@@V?$allocator@UCard@@@std@@@std@@QEAAXAEBUCard@@@Z ; std::vector<Card,std::allocator<Card> >::emplace_back<Card const & __ptr64>
PUBLIC	??$try_emplace@$$V@?$unordered_map@$$CBUCard@@HUCardHash@@U?$equal_to@$$CBUCard@@@std@@V?$allocator@U?$pair@$$CBUCard@@H@std@@@4@@std@@QEAA?AU?$pair@V?$_List_iterator@V?$_List_val@U?$_List_simple_types@U?$pair@$$CBUCard@@H@std@@@std@@@std@@@std@@_N@1@AEBUCard@@@Z ; std::unordered_map<Card const ,int,CardHash,std::equal_to<Card const >,std::allocator<std::pair<Card const ,int> > >::try_emplace<>
PUBLIC	??$insert@PEBD@?$vector@DV?$allocator@D@std@@@std@@QEAA?AV?$_Vector_iterator@V?$_Vector_val@U?$_Simple_types@D@std@@@std@@@1@V?$_Vector_const_iterator@V?$_Vector_val@U?$_Simple_types@D@std@@@std@@@1@PEBD1@Z ; std::vector<char,std::allocator<char> >::insert<char const * __ptr64>
PUBLIC	??$end@V?$vector@DV?$allocator@D@std@@@std@@@std@@YA?AV?$_Vector_iterator@V?$_Vector_val@U?$_Simple_types@D@std@@@std@@@0@AEAV?$vector@DV?$allocator@D@std@@@0@@Z ; std::end<std::vector<char,std::allocator<char> > >
PUBLIC	??$?8DU?$char_traits@D@std@@V?$allocator@D@1@@std@@YA_NAEBV?$basic_string@DU?$char_traits@D@std@@V?$allocator@D@2@@0@0@Z ; std::operator==<char,std::char_traits<char>,std::allocator<char> >
PUBLIC	??$?HDU?$char_traits@D@std@@V?$allocator@D@1@@std@@YA?AV?$basic_string@DU?$char_traits@D@std@@V?$allocator@D@2@@0@$$QEAV10@D@Z ; std::operator+<char,std::char_traits<char>,std::allocator<char> >
PUBLIC	??$cend@V?$Span@D@myio@@@std@@YAPEBDAEBV?$Span@D@myio@@@Z ; std::cend<myio::Span<char> >
PUBLIC	??$cbegin@V?$Span@D@myio@@@std@@YAPEBDAEBV?$Span@D@myio@@@Z ; std::cbegin<myio::Span<char> >
PUBLIC	??$__vcrt_va_start_verify_argument_type@QEBD@@YAXXZ ; __vcrt_va_start_verify_argument_type<char const * __ptr64 const>
PUBLIC	?allocate@?$allocator@V?$_List_unchecked_iterator@V?$_List_val@U?$_List_simple_types@U?$pair@$$CBUCard@@H@std@@@std@@@std@@@std@@@std@@QEAAPEAV?$_List_unchecked_iterator@V?$_List_val@U?$_List_simple_types@U?$pair@$$CBUCard@@H@std@@@std@@@std@@@2@_K@Z ; std::allocator<std::_List_unchecked_iterator<std::_List_val<std::_List_simple_types<std::pair<Card const ,int> > > > >::allocate
PUBLIC	?_Get_second@?$_Compressed_pair@U?$_Wrap_alloc@U?$_Wrap_alloc@V?$allocator@V?$_List_unchecked_iterator@V?$_List_val@U?$_List_simple_types@U?$pair@$$CBUCard@@H@std@@@std@@@std@@@std@@@std@@@std@@@std@@V?$_Vector_val@U?$_Simple_types@V?$_List_unchecked_iterator@V?$_List_val@U?$_List_simple_types@U?$pair@$$CBUCard@@H@std@@@std@@@std@@@std@@@std@@@2@$00@std@@QEBAAEBV?$_Vector_val@U?$_Simple_types@V?$_List_unchecked_iterator@V?$_List_val@U?$_List_simple_types@U?$pair@$$CBUCard@@H@std@@@std@@@std@@@std@@@std@@@2@XZ ; std::_Compressed_pair<std::_Wrap_alloc<std::_Wrap_alloc<std::allocator<std::_List_unchecked_iterator<std::_List_val<std::_List_simple_types<std::pair<Card const ,int> > > > > > >,std::_Vector_val<std::_Simple_types<std::_List_unchecked_iterator<std::_List_val<std::_List_simple_types<std::pair<Card const ,int> > > > > >,1>::_Get_second
PUBLIC	?allocate@?$_Wrap_alloc@V?$allocator@V?$_List_unchecked_iterator@V?$_List_val@U?$_List_simple_types@U?$pair@$$CBUCard@@H@std@@@std@@@std@@@std@@@std@@@std@@QEAAPEAV?$_List_unchecked_iterator@V?$_List_val@U?$_List_simple_types@U?$pair@$$CBUCard@@H@std@@@std@@@std@@@2@_K@Z ; std::_Wrap_alloc<std::allocator<std::_List_unchecked_iterator<std::_List_val<std::_List_simple_types<std::pair<Card const ,int> > > > > >::allocate
PUBLIC	?_Umove_if_noexcept1@?$vector@V?$_List_unchecked_iterator@V?$_List_val@U?$_List_simple_types@U?$pair@$$CBUCard@@H@std@@@std@@@std@@@std@@U?$_Wrap_alloc@V?$allocator@V?$_List_unchecked_iterator@V?$_List_val@U?$_List_simple_types@U?$pair@$$CBUCard@@H@std@@@std@@@std@@@std@@@std@@@2@@std@@AEAAXPEAV?$_List_unchecked_iterator@V?$_List_val@U?$_List_simple_types@U?$pair@$$CBUCard@@H@std@@@std@@@std@@@2@00U?$integral_constant@_N$00@2@@Z ; std::vector<std::_List_unchecked_iterator<std::_List_val<std::_List_simple_types<std::pair<Card const ,int> > > >,std::_Wrap_alloc<std::allocator<std::_List_unchecked_iterator<std::_List_val<std::_List_simple_types<std::pair<Card const ,int> > > > > > >::_Umove_if_noexcept1
PUBLIC	?_Get_data@?$_Vector_alloc@U?$_Vec_base_types@V?$_List_unchecked_iterator@V?$_List_val@U?$_List_simple_types@U?$pair@$$CBUCard@@H@std@@@std@@@std@@@std@@U?$_Wrap_alloc@V?$allocator@V?$_List_unchecked_iterator@V?$_List_val@U?$_List_simple_types@U?$pair@$$CBUCard@@H@std@@@std@@@std@@@std@@@std@@@2@@std@@@std@@QEBAAEBV?$_Vector_val@U?$_Simple_types@V?$_List_unchecked_iterator@V?$_List_val@U?$_List_simple_types@U?$pair@$$CBUCard@@H@std@@@std@@@std@@@std@@@std@@@2@XZ ; std::_Vector_alloc<std::_Vec_base_types<std::_List_unchecked_iterator<std::_List_val<std::_List_simple_types<std::pair<Card const ,int> > > >,std::_Wrap_alloc<std::allocator<std::_List_unchecked_iterator<std::_List_val<std::_List_simple_types<std::pair<Card const ,int> > > > > > > >::_Get_data
PUBLIC	?max_size@?$allocator_traits@U?$_Wrap_alloc@V?$allocator@V?$_List_unchecked_iterator@V?$_List_val@U?$_List_simple_types@U?$pair@$$CBUCard@@H@std@@@std@@@std@@@std@@@std@@@std@@@std@@SA_KAEBU?$_Wrap_alloc@V?$allocator@V?$_List_unchecked_iterator@V?$_List_val@U?$_List_simple_types@U?$pair@$$CBUCard@@H@std@@@std@@@std@@@std@@@std@@@2@@Z ; std::allocator_traits<std::_Wrap_alloc<std::allocator<std::_List_unchecked_iterator<std::_List_val<std::_List_simple_types<std::pair<Card const ,int> > > > > > >::max_size
PUBLIC	?_Get_first@?$_Compressed_pair@U?$_Wrap_alloc@U?$_Wrap_alloc@V?$allocator@V?$_List_unchecked_iterator@V?$_List_val@U?$_List_simple_types@U?$pair@$$CBUCard@@H@std@@@std@@@std@@@std@@@std@@@std@@@std@@V?$_Vector_val@U?$_Simple_types@V?$_List_unchecked_iterator@V?$_List_val@U?$_List_simple_types@U?$pair@$$CBUCard@@H@std@@@std@@@std@@@std@@@std@@@2@$00@std@@QEBAAEBU?$_Wrap_alloc@U?$_Wrap_alloc@V?$allocator@V?$_List_unchecked_iterator@V?$_List_val@U?$_List_simple_types@U?$pair@$$CBUCard@@H@std@@@std@@@std@@@std@@@std@@@std@@@2@XZ ; std::_Compressed_pair<std::_Wrap_alloc<std::_Wrap_alloc<std::allocator<std::_List_unchecked_iterator<std::_List_val<std::_List_simple_types<std::pair<Card const ,int> > > > > > >,std::_Vector_val<std::_Simple_types<std::_List_unchecked_iterator<std::_List_val<std::_List_simple_types<std::pair<Card const ,int> > > > > >,1>::_Get_first
PUBLIC	?_Myval@?$_List_alloc@U?$_List_base_types@U?$pair@$$CBUCard@@H@std@@V?$allocator@U?$pair@$$CBUCard@@H@std@@@2@@std@@@std@@SAAEAU?$pair@$$CBUCard@@H@2@PEAU?$_List_node@U?$pair@$$CBUCard@@H@std@@PEAX@2@@Z ; std::_List_alloc<std::_List_base_types<std::pair<Card const ,int>,std::allocator<std::pair<Card const ,int> > > >::_Myval
PUBLIC	?deallocate@?$allocator@U?$_List_node@U?$pair@$$CBUCard@@H@std@@PEAX@std@@@std@@QEAAXPEAU?$_List_node@U?$pair@$$CBUCard@@H@std@@PEAX@2@_K@Z ; std::allocator<std::_List_node<std::pair<Card const ,int>,void * __ptr64> >::deallocate
PUBLIC	?_Prevnode@?$_List_val@U?$_List_simple_types@U?$pair@$$CBUCard@@H@std@@@std@@@std@@SAAEAPEAU?$_List_node@U?$pair@$$CBUCard@@H@std@@PEAX@2@PEAU32@@Z ; std::_List_val<std::_List_simple_types<std::pair<Card const ,int> > >::_Prevnode
PUBLIC	??0?$_List_unchecked_iterator@V?$_List_val@U?$_List_simple_types@U?$pair@$$CBUCard@@H@std@@@std@@@std@@@std@@QEAA@PEAU?$_List_node@U?$pair@$$CBUCard@@H@std@@PEAX@1@PEBV?$_List_val@U?$_List_simple_types@U?$pair@$$CBUCard@@H@std@@@std@@@1@@Z ; std::_List_unchecked_iterator<std::_List_val<std::_List_simple_types<std::pair<Card const ,int> > > >::_List_unchecked_iterator<std::_List_val<std::_List_simple_types<std::pair<Card const ,int> > > >
PUBLIC	?_Get_first@?$_Compressed_pair@U?$_Wrap_alloc@V?$allocator@U?$_List_node@U?$pair@$$CBUCard@@H@std@@PEAX@std@@@std@@@std@@V?$_List_val@U?$_List_simple_types@U?$pair@$$CBUCard@@H@std@@@std@@@2@$00@std@@QEAAAEAU?$_Wrap_alloc@V?$allocator@U?$_List_node@U?$pair@$$CBUCard@@H@std@@PEAX@std@@@std@@@2@XZ ; std::_Compressed_pair<std::_Wrap_alloc<std::allocator<std::_List_node<std::pair<Card const ,int>,void * __ptr64> > >,std::_List_val<std::_List_simple_types<std::pair<Card const ,int> > >,1>::_Get_first
PUBLIC	?deallocate@?$allocator@V?$_List_unchecked_iterator@V?$_List_val@U?$_List_simple_types@U?$pair@$$CBUCard@@H@std@@@std@@@std@@@std@@@std@@QEAAXPEAV?$_List_unchecked_iterator@V?$_List_val@U?$_List_simple_types@U?$pair@$$CBUCard@@H@std@@@std@@@std@@@2@_K@Z ; std::allocator<std::_List_unchecked_iterator<std::_List_val<std::_List_simple_types<std::pair<Card const ,int> > > > >::deallocate
PUBLIC	?_Umove_if_noexcept@?$vector@V?$_List_unchecked_iterator@V?$_List_val@U?$_List_simple_types@U?$pair@$$CBUCard@@H@std@@@std@@@std@@@std@@U?$_Wrap_alloc@V?$allocator@V?$_List_unchecked_iterator@V?$_List_val@U?$_List_simple_types@U?$pair@$$CBUCard@@H@std@@@std@@@std@@@std@@@std@@@2@@std@@AEAAXPEAV?$_List_unchecked_iterator@V?$_List_val@U?$_List_simple_types@U?$pair@$$CBUCard@@H@std@@@std@@@std@@@2@00@Z ; std::vector<std::_List_unchecked_iterator<std::_List_val<std::_List_simple_types<std::pair<Card const ,int> > > >,std::_Wrap_alloc<std::allocator<std::_List_unchecked_iterator<std::_List_val<std::_List_simple_types<std::pair<Card const ,int> > > > > > >::_Umove_if_noexcept
PUBLIC	?_Change_array@?$vector@V?$_List_unchecked_iterator@V?$_List_val@U?$_List_simple_types@U?$pair@$$CBUCard@@H@std@@@std@@@std@@@std@@U?$_Wrap_alloc@V?$allocator@V?$_List_unchecked_iterator@V?$_List_val@U?$_List_simple_types@U?$pair@$$CBUCard@@H@std@@@std@@@std@@@std@@@std@@@2@@std@@AEAAXQEAV?$_List_unchecked_iterator@V?$_List_val@U?$_List_simple_types@U?$pair@$$CBUCard@@H@std@@@std@@@std@@@2@_K1@Z ; std::vector<std::_List_unchecked_iterator<std::_List_val<std::_List_simple_types<std::pair<Card const ,int> > > >,std::_Wrap_alloc<std::allocator<std::_List_unchecked_iterator<std::_List_val<std::_List_simple_types<std::pair<Card const ,int> > > > > > >::_Change_array
PUBLIC	?_Getal@?$_Vector_alloc@U?$_Vec_base_types@V?$_List_unchecked_iterator@V?$_List_val@U?$_List_simple_types@U?$pair@$$CBUCard@@H@std@@@std@@@std@@@std@@U?$_Wrap_alloc@V?$allocator@V?$_List_unchecked_iterator@V?$_List_val@U?$_List_simple_types@U?$pair@$$CBUCard@@H@std@@@std@@@std@@@std@@@std@@@2@@std@@@std@@QEBAAEBU?$_Wrap_alloc@U?$_Wrap_alloc@V?$allocator@V?$_List_unchecked_iterator@V?$_List_val@U?$_List_simple_types@U?$pair@$$CBUCard@@H@std@@@std@@@std@@@std@@@std@@@std@@@2@XZ ; std::_Vector_alloc<std::_Vec_base_types<std::_List_unchecked_iterator<std::_List_val<std::_List_simple_types<std::pair<Card const ,int> > > >,std::_Wrap_alloc<std::allocator<std::_List_unchecked_iterator<std::_List_val<std::_List_simple_types<std::pair<Card const ,int> > > > > > > >::_Getal
PUBLIC	?_Myfirst@?$_Vector_alloc@U?$_Vec_base_types@V?$_List_unchecked_iterator@V?$_List_val@U?$_List_simple_types@U?$pair@$$CBUCard@@H@std@@@std@@@std@@@std@@U?$_Wrap_alloc@V?$allocator@V?$_List_unchecked_iterator@V?$_List_val@U?$_List_simple_types@U?$pair@$$CBUCard@@H@std@@@std@@@std@@@std@@@std@@@2@@std@@@std@@QEBAAEBQEAV?$_List_unchecked_iterator@V?$_List_val@U?$_List_simple_types@U?$pair@$$CBUCard@@H@std@@@std@@@std@@@2@XZ ; std::_Vector_alloc<std::_Vec_base_types<std::_List_unchecked_iterator<std::_List_val<std::_List_simple_types<std::pair<Card const ,int> > > >,std::_Wrap_alloc<std::allocator<std::_List_unchecked_iterator<std::_List_val<std::_List_simple_types<std::pair<Card const ,int> > > > > > > >::_Myfirst
PUBLIC	?_Mylast@?$_Vector_alloc@U?$_Vec_base_types@V?$_List_unchecked_iterator@V?$_List_val@U?$_List_simple_types@U?$pair@$$CBUCard@@H@std@@@std@@@std@@@std@@U?$_Wrap_alloc@V?$allocator@V?$_List_unchecked_iterator@V?$_List_val@U?$_List_simple_types@U?$pair@$$CBUCard@@H@std@@@std@@@std@@@std@@@std@@@2@@std@@@std@@QEBAAEBQEAV?$_List_unchecked_iterator@V?$_List_val@U?$_List_simple_types@U?$pair@$$CBUCard@@H@std@@@std@@@std@@@2@XZ ; std::_Vector_alloc<std::_Vec_base_types<std::_List_unchecked_iterator<std::_List_val<std::_List_simple_types<std::pair<Card const ,int> > > >,std::_Wrap_alloc<std::allocator<std::_List_unchecked_iterator<std::_List_val<std::_List_simple_types<std::pair<Card const ,int> > > > > > > >::_Mylast
PUBLIC	?_Myend@?$_Vector_alloc@U?$_Vec_base_types@V?$_List_unchecked_iterator@V?$_List_val@U?$_List_simple_types@U?$pair@$$CBUCard@@H@std@@@std@@@std@@@std@@U?$_Wrap_alloc@V?$allocator@V?$_List_unchecked_iterator@V?$_List_val@U?$_List_simple_types@U?$pair@$$CBUCard@@H@std@@@std@@@std@@@std@@@std@@@2@@std@@@std@@QEBAAEBQEAV?$_List_unchecked_iterator@V?$_List_val@U?$_List_simple_types@U?$pair@$$CBUCard@@H@std@@@std@@@std@@@2@XZ ; std::_Vector_alloc<std::_Vec_base_types<std::_List_unchecked_iterator<std::_List_val<std::_List_simple_types<std::pair<Card const ,int> > > >,std::_Wrap_alloc<std::allocator<std::_List_unchecked_iterator<std::_List_val<std::_List_simple_types<std::pair<Card const ,int> > > > > > > >::_Myend
PUBLIC	?allocate@?$_Wrap_alloc@U?$_Wrap_alloc@V?$allocator@V?$_List_unchecked_iterator@V?$_List_val@U?$_List_simple_types@U?$pair@$$CBUCard@@H@std@@@std@@@std@@@std@@@std@@@std@@@std@@QEAAPEAV?$_List_unchecked_iterator@V?$_List_val@U?$_List_simple_types@U?$pair@$$CBUCard@@H@std@@@std@@@std@@@2@_K@Z ; std::_Wrap_alloc<std::_Wrap_alloc<std::allocator<std::_List_unchecked_iterator<std::_List_val<std::_List_simple_types<std::pair<Card const ,int> > > > > > >::allocate
PUBLIC	?max_size@?$_Wrap_alloc@U?$_Wrap_alloc@V?$allocator@V?$_List_unchecked_iterator@V?$_List_val@U?$_List_simple_types@U?$pair@$$CBUCard@@H@std@@@std@@@std@@@std@@@std@@@std@@@std@@QEBA_KU_Nil@2@@Z ; std::_Wrap_alloc<std::_Wrap_alloc<std::allocator<std::_List_unchecked_iterator<std::_List_val<std::_List_simple_types<std::pair<Card const ,int> > > > > > >::max_size
PUBLIC	?_Get_second@?$_Compressed_pair@U?$_Wrap_alloc@U?$_Wrap_alloc@V?$allocator@V?$_List_unchecked_iterator@V?$_List_val@U?$_List_simple_types@U?$pair@$$CBUCard@@H@std@@@std@@@std@@@std@@@std@@@std@@@std@@V?$_Vector_val@U?$_Simple_types@V?$_List_unchecked_iterator@V?$_List_val@U?$_List_simple_types@U?$pair@$$CBUCard@@H@std@@@std@@@std@@@std@@@std@@@2@$00@std@@QEAAAEAV?$_Vector_val@U?$_Simple_types@V?$_List_unchecked_iterator@V?$_List_val@U?$_List_simple_types@U?$pair@$$CBUCard@@H@std@@@std@@@std@@@std@@@std@@@2@XZ ; std::_Compressed_pair<std::_Wrap_alloc<std::_Wrap_alloc<std::allocator<std::_List_unchecked_iterator<std::_List_val<std::_List_simple_types<std::pair<Card const ,int> > > > > > >,std::_Vector_val<std::_Simple_types<std::_List_unchecked_iterator<std::_List_val<std::_List_simple_types<std::pair<Card const ,int> > > > > >,1>::_Get_second
PUBLIC	?max_size@?$allocator@D@std@@QEBA_KXZ		; std::allocator<char>::max_size
PUBLIC	?max_size@?$basic_string@DU?$char_traits@D@std@@V?$allocator@D@2@@std@@QEBA_KXZ ; std::basic_string<char,std::char_traits<char>,std::allocator<char> >::max_size
PUBLIC	?max_size@?$allocator@UCard@@@std@@QEBA_KXZ	; std::allocator<Card>::max_size
PUBLIC	?_Get_second@?$_Compressed_pair@U?$_Wrap_alloc@V?$allocator@UCard@@@std@@@std@@V?$_Vector_val@U?$_Simple_types@UCard@@@std@@@2@$00@std@@QEBAAEBV?$_Vector_val@U?$_Simple_types@UCard@@@std@@@2@XZ ; std::_Compressed_pair<std::_Wrap_alloc<std::allocator<Card> >,std::_Vector_val<std::_Simple_types<Card> >,1>::_Get_second
PUBLIC	?_Get_second@?$_Compressed_pair@U?$equal_to@$$CBUCard@@@std@@M$00@std@@QEAAAEAMXZ ; std::_Compressed_pair<std::equal_to<Card const >,float,1>::_Get_second
PUBLIC	?_Get_second@?$_Compressed_pair@UCardHash@@V?$_Compressed_pair@U?$equal_to@$$CBUCard@@@std@@M$00@std@@$00@std@@QEAAAEAV?$_Compressed_pair@U?$equal_to@$$CBUCard@@@std@@M$00@2@XZ ; std::_Compressed_pair<CardHash,std::_Compressed_pair<std::equal_to<Card const >,float,1>,1>::_Get_second
PUBLIC	?_Unchecked_end@?$list@U?$pair@$$CBUCard@@H@std@@V?$allocator@U?$pair@$$CBUCard@@H@std@@@2@@std@@QEAA?AV?$_List_unchecked_iterator@V?$_List_val@U?$_List_simple_types@U?$pair@$$CBUCard@@H@std@@@std@@@std@@@2@XZ ; std::list<std::pair<Card const ,int>,std::allocator<std::pair<Card const ,int> > >::_Unchecked_end
PUBLIC	?_Freenode@?$_List_buy@U?$pair@$$CBUCard@@H@std@@V?$allocator@U?$pair@$$CBUCard@@H@std@@@2@@std@@QEAAXPEAU?$_List_node@U?$pair@$$CBUCard@@H@std@@PEAX@2@@Z ; std::_List_buy<std::pair<Card const ,int>,std::allocator<std::pair<Card const ,int> > >::_Freenode
PUBLIC	?_Prevnode@?$_List_alloc@U?$_List_base_types@U?$pair@$$CBUCard@@H@std@@V?$allocator@U?$pair@$$CBUCard@@H@std@@@2@@std@@@std@@SAAEAPEAU?$_List_node@U?$pair@$$CBUCard@@H@std@@PEAX@2@PEAU32@@Z ; std::_List_alloc<std::_List_base_types<std::pair<Card const ,int>,std::allocator<std::pair<Card const ,int> > > >::_Prevnode
PUBLIC	?_Getal@?$_List_alloc@U?$_List_base_types@U?$pair@$$CBUCard@@H@std@@V?$allocator@U?$pair@$$CBUCard@@H@std@@@2@@std@@@std@@QEAAAEAU?$_Wrap_alloc@V?$allocator@U?$_List_node@U?$pair@$$CBUCard@@H@std@@PEAX@std@@@std@@@2@XZ ; std::_List_alloc<std::_List_base_types<std::pair<Card const ,int>,std::allocator<std::pair<Card const ,int> > > >::_Getal
PUBLIC	?_Mysize@?$_List_alloc@U?$_List_base_types@U?$pair@$$CBUCard@@H@std@@V?$allocator@U?$pair@$$CBUCard@@H@std@@@2@@std@@@std@@QEAAAEA_KXZ ; std::_List_alloc<std::_List_base_types<std::pair<Card const ,int>,std::allocator<std::pair<Card const ,int> > > >::_Mysize
PUBLIC	?deallocate@?$_Wrap_alloc@V?$allocator@U?$_List_node@U?$pair@$$CBUCard@@H@std@@PEAX@std@@@std@@@std@@QEAAXPEAU?$_List_node@U?$pair@$$CBUCard@@H@std@@PEAX@2@_K@Z ; std::_Wrap_alloc<std::allocator<std::_List_node<std::pair<Card const ,int>,void * __ptr64> > >::deallocate
PUBLIC	??0?$_List_unchecked_const_iterator@V?$_List_val@U?$_List_simple_types@U?$pair@$$CBUCard@@H@std@@@std@@@std@@U_Iterator_base0@2@@std@@QEAA@PEAU?$_List_node@U?$pair@$$CBUCard@@H@std@@PEAX@1@PEBV?$_List_val@U?$_List_simple_types@U?$pair@$$CBUCard@@H@std@@@std@@@1@@Z ; std::_List_unchecked_const_iterator<std::_List_val<std::_List_simple_types<std::pair<Card const ,int> > >,std::_Iterator_base0>::_List_unchecked_const_iterator<std::_List_val<std::_List_simple_types<std::pair<Card const ,int> > >,std::_Iterator_base0>
PUBLIC	?deallocate@?$_Wrap_alloc@V?$allocator@V?$_List_unchecked_iterator@V?$_List_val@U?$_List_simple_types@U?$pair@$$CBUCard@@H@std@@@std@@@std@@@std@@@std@@@std@@QEAAXPEAV?$_List_unchecked_iterator@V?$_List_val@U?$_List_simple_types@U?$pair@$$CBUCard@@H@std@@@std@@@std@@@2@_K@Z ; std::_Wrap_alloc<std::allocator<std::_List_unchecked_iterator<std::_List_val<std::_List_simple_types<std::pair<Card const ,int> > > > > >::deallocate
PUBLIC	?_Reallocate_exactly@?$vector@V?$_List_unchecked_iterator@V?$_List_val@U?$_List_simple_types@U?$pair@$$CBUCard@@H@std@@@std@@@std@@@std@@U?$_Wrap_alloc@V?$allocator@V?$_List_unchecked_iterator@V?$_List_val@U?$_List_simple_types@U?$pair@$$CBUCard@@H@std@@@std@@@std@@@std@@@std@@@2@@std@@AEAAX_K@Z ; std::vector<std::_List_unchecked_iterator<std::_List_val<std::_List_simple_types<std::pair<Card const ,int> > > >,std::_Wrap_alloc<std::allocator<std::_List_unchecked_iterator<std::_List_val<std::_List_simple_types<std::pair<Card const ,int> > > > > > >::_Reallocate_exactly
PUBLIC	?size@?$vector@V?$_List_unchecked_iterator@V?$_List_val@U?$_List_simple_types@U?$pair@$$CBUCard@@H@std@@@std@@@std@@@std@@U?$_Wrap_alloc@V?$allocator@V?$_List_unchecked_iterator@V?$_List_val@U?$_List_simple_types@U?$pair@$$CBUCard@@H@std@@@std@@@std@@@std@@@std@@@2@@std@@QEBA_KXZ ; std::vector<std::_List_unchecked_iterator<std::_List_val<std::_List_simple_types<std::pair<Card const ,int> > > >,std::_Wrap_alloc<std::allocator<std::_List_unchecked_iterator<std::_List_val<std::_List_simple_types<std::pair<Card const ,int> > > > > > >::size
PUBLIC	?max_size@?$vector@V?$_List_unchecked_iterator@V?$_List_val@U?$_List_simple_types@U?$pair@$$CBUCard@@H@std@@@std@@@std@@@std@@U?$_Wrap_alloc@V?$allocator@V?$_List_unchecked_iterator@V?$_List_val@U?$_List_simple_types@U?$pair@$$CBUCard@@H@std@@@std@@@std@@@std@@@std@@@2@@std@@QEBA_KXZ ; std::vector<std::_List_unchecked_iterator<std::_List_val<std::_List_simple_types<std::pair<Card const ,int> > > >,std::_Wrap_alloc<std::allocator<std::_List_unchecked_iterator<std::_List_val<std::_List_simple_types<std::pair<Card const ,int> > > > > > >::max_size
PUBLIC	?capacity@?$vector@V?$_List_unchecked_iterator@V?$_List_val@U?$_List_simple_types@U?$pair@$$CBUCard@@H@std@@@std@@@std@@@std@@U?$_Wrap_alloc@V?$allocator@V?$_List_unchecked_iterator@V?$_List_val@U?$_List_simple_types@U?$pair@$$CBUCard@@H@std@@@std@@@std@@@std@@@std@@@2@@std@@QEBA_KXZ ; std::vector<std::_List_unchecked_iterator<std::_List_val<std::_List_simple_types<std::pair<Card const ,int> > > >,std::_Wrap_alloc<std::allocator<std::_List_unchecked_iterator<std::_List_val<std::_List_simple_types<std::pair<Card const ,int> > > > > > >::capacity
PUBLIC	?_Ufill@?$vector@V?$_List_unchecked_iterator@V?$_List_val@U?$_List_simple_types@U?$pair@$$CBUCard@@H@std@@@std@@@std@@@std@@U?$_Wrap_alloc@V?$allocator@V?$_List_unchecked_iterator@V?$_List_val@U?$_List_simple_types@U?$pair@$$CBUCard@@H@std@@@std@@@std@@@std@@@std@@@2@@std@@AEAAPEAV?$_List_unchecked_iterator@V?$_List_val@U?$_List_simple_types@U?$pair@$$CBUCard@@H@std@@@std@@@std@@@2@PEAV32@_KAEBV32@@Z ; std::vector<std::_List_unchecked_iterator<std::_List_val<std::_List_simple_types<std::pair<Card const ,int> > > >,std::_Wrap_alloc<std::allocator<std::_List_unchecked_iterator<std::_List_val<std::_List_simple_types<std::pair<Card const ,int> > > > > > >::_Ufill
PUBLIC	?_Calculate_growth@?$vector@V?$_List_unchecked_iterator@V?$_List_val@U?$_List_simple_types@U?$pair@$$CBUCard@@H@std@@@std@@@std@@@std@@U?$_Wrap_alloc@V?$allocator@V?$_List_unchecked_iterator@V?$_List_val@U?$_List_simple_types@U?$pair@$$CBUCard@@H@std@@@std@@@std@@@std@@@std@@@2@@std@@AEBA_K_K@Z ; std::vector<std::_List_unchecked_iterator<std::_List_val<std::_List_simple_types<std::pair<Card const ,int> > > >,std::_Wrap_alloc<std::allocator<std::_List_unchecked_iterator<std::_List_val<std::_List_simple_types<std::pair<Card const ,int> > > > > > >::_Calculate_growth
PUBLIC	?_Buy@?$vector@V?$_List_unchecked_iterator@V?$_List_val@U?$_List_simple_types@U?$pair@$$CBUCard@@H@std@@@std@@@std@@@std@@U?$_Wrap_alloc@V?$allocator@V?$_List_unchecked_iterator@V?$_List_val@U?$_List_simple_types@U?$pair@$$CBUCard@@H@std@@@std@@@std@@@std@@@std@@@2@@std@@AEAA_N_K@Z ; std::vector<std::_List_unchecked_iterator<std::_List_val<std::_List_simple_types<std::pair<Card const ,int> > > >,std::_Wrap_alloc<std::allocator<std::_List_unchecked_iterator<std::_List_val<std::_List_simple_types<std::pair<Card const ,int> > > > > > >::_Buy
PUBLIC	?_Xlength@?$vector@V?$_List_unchecked_iterator@V?$_List_val@U?$_List_simple_types@U?$pair@$$CBUCard@@H@std@@@std@@@std@@@std@@U?$_Wrap_alloc@V?$allocator@V?$_List_unchecked_iterator@V?$_List_val@U?$_List_simple_types@U?$pair@$$CBUCard@@H@std@@@std@@@std@@@std@@@std@@@2@@std@@CAXXZ ; std::vector<std::_List_unchecked_iterator<std::_List_val<std::_List_simple_types<std::pair<Card const ,int> > > >,std::_Wrap_alloc<std::allocator<std::_List_unchecked_iterator<std::_List_val<std::_List_simple_types<std::pair<Card const ,int> > > > > > >::_Xlength
PUBLIC	?_Get_data@?$_Vector_alloc@U?$_Vec_base_types@V?$_List_unchecked_iterator@V?$_List_val@U?$_List_simple_types@U?$pair@$$CBUCard@@H@std@@@std@@@std@@@std@@U?$_Wrap_alloc@V?$allocator@V?$_List_unchecked_iterator@V?$_List_val@U?$_List_simple_types@U?$pair@$$CBUCard@@H@std@@@std@@@std@@@std@@@std@@@2@@std@@@std@@QEAAAEAV?$_Vector_val@U?$_Simple_types@V?$_List_unchecked_iterator@V?$_List_val@U?$_List_simple_types@U?$pair@$$CBUCard@@H@std@@@std@@@std@@@std@@@std@@@2@XZ ; std::_Vector_alloc<std::_Vec_base_types<std::_List_unchecked_iterator<std::_List_val<std::_List_simple_types<std::pair<Card const ,int> > > >,std::_Wrap_alloc<std::allocator<std::_List_unchecked_iterator<std::_List_val<std::_List_simple_types<std::pair<Card const ,int> > > > > > > >::_Get_data
PUBLIC	?_Get_first@?$_Compressed_pair@U?$_Wrap_alloc@U?$_Wrap_alloc@V?$allocator@V?$_List_unchecked_iterator@V?$_List_val@U?$_List_simple_types@U?$pair@$$CBUCard@@H@std@@@std@@@std@@@std@@@std@@@std@@@std@@V?$_Vector_val@U?$_Simple_types@V?$_List_unchecked_iterator@V?$_List_val@U?$_List_simple_types@U?$pair@$$CBUCard@@H@std@@@std@@@std@@@std@@@std@@@2@$00@std@@QEAAAEAU?$_Wrap_alloc@U?$_Wrap_alloc@V?$allocator@V?$_List_unchecked_iterator@V?$_List_val@U?$_List_simple_types@U?$pair@$$CBUCard@@H@std@@@std@@@std@@@std@@@std@@@std@@@2@XZ ; std::_Compressed_pair<std::_Wrap_alloc<std::_Wrap_alloc<std::allocator<std::_List_unchecked_iterator<std::_List_val<std::_List_simple_types<std::pair<Card const ,int> > > > > > >,std::_Vector_val<std::_Simple_types<std::_List_unchecked_iterator<std::_List_val<std::_List_simple_types<std::pair<Card const ,int> > > > > >,1>::_Get_first
PUBLIC	??0?$allocator@D@std@@QEAA@AEBV01@@Z		; std::allocator<char>::allocator<char>
PUBLIC	?deallocate@?$allocator@D@std@@QEAAXPEAD_K@Z	; std::allocator<char>::deallocate
PUBLIC	?allocate@?$allocator@D@std@@QEAAPEAD_K@Z	; std::allocator<char>::allocate
PUBLIC	?erase@?$basic_string@DU?$char_traits@D@std@@V?$allocator@D@2@@std@@QEAAAEAV12@_K@Z ; std::basic_string<char,std::char_traits<char>,std::allocator<char> >::erase
PUBLIC	?erase@?$basic_string@DU?$char_traits@D@std@@V?$allocator@D@2@@std@@QEAAAEAV12@_K0@Z ; std::basic_string<char,std::char_traits<char>,std::allocator<char> >::erase
PUBLIC	?_Copy@?$basic_string@DU?$char_traits@D@std@@V?$allocator@D@2@@std@@QEAAX_K@Z ; std::basic_string<char,std::char_traits<char>,std::allocator<char> >::_Copy
PUBLIC	?_Xran@?$basic_string@DU?$char_traits@D@std@@V?$allocator@D@2@@std@@SAXXZ ; std::basic_string<char,std::char_traits<char>,std::allocator<char> >::_Xran
PUBLIC	?_Orphan_all@?$_String_alloc@U?$_String_base_types@DV?$allocator@D@std@@@std@@@std@@QEAAXXZ ; std::_String_alloc<std::_String_base_types<char,std::allocator<char> > >::_Orphan_all
PUBLIC	?max_size@?$allocator_traits@V?$allocator@D@std@@@std@@SA_KAEBV?$allocator@D@2@@Z ; std::allocator_traits<std::allocator<char> >::max_size
PUBLIC	?_Get_second@?$_Compressed_pair@U?$_Wrap_alloc@V?$allocator@D@std@@@std@@V?$_String_val@U?$_Simple_types@D@std@@@2@$00@std@@QEAAAEAV?$_String_val@U?$_Simple_types@D@std@@@2@XZ ; std::_Compressed_pair<std::_Wrap_alloc<std::allocator<char> >,std::_String_val<std::_Simple_types<char> >,1>::_Get_second
PUBLIC	?_Get_second@?$_Compressed_pair@U?$_Wrap_alloc@V?$allocator@D@std@@@std@@V?$_String_val@U?$_Simple_types@D@std@@@2@$00@std@@QEBAAEBV?$_String_val@U?$_Simple_types@D@std@@@2@XZ ; std::_Compressed_pair<std::_Wrap_alloc<std::allocator<char> >,std::_String_val<std::_Simple_types<char> >,1>::_Get_second
PUBLIC	?_Umove_if_noexcept1@?$vector@DV?$allocator@D@std@@@std@@AEAAXPEAD00U?$integral_constant@_N$00@2@@Z ; std::vector<char,std::allocator<char> >::_Umove_if_noexcept1
PUBLIC	?_Get_first@?$_Compressed_pair@U?$_Wrap_alloc@V?$allocator@D@std@@@std@@V?$_Vector_val@U?$_Simple_types@D@std@@@2@$00@std@@QEBAAEBU?$_Wrap_alloc@V?$allocator@D@std@@@2@XZ ; std::_Compressed_pair<std::_Wrap_alloc<std::allocator<char> >,std::_Vector_val<std::_Simple_types<char> >,1>::_Get_first
PUBLIC	?_Get_second@?$_Compressed_pair@U?$_Wrap_alloc@V?$allocator@D@std@@@std@@V?$_Vector_val@U?$_Simple_types@D@std@@@2@$00@std@@QEAAAEAV?$_Vector_val@U?$_Simple_types@D@std@@@2@XZ ; std::_Compressed_pair<std::_Wrap_alloc<std::allocator<char> >,std::_Vector_val<std::_Simple_types<char> >,1>::_Get_second
PUBLIC	?_Get_second@?$_Compressed_pair@U?$_Wrap_alloc@V?$allocator@D@std@@@std@@V?$_Vector_val@U?$_Simple_types@D@std@@@2@$00@std@@QEBAAEBV?$_Vector_val@U?$_Simple_types@D@std@@@2@XZ ; std::_Compressed_pair<std::_Wrap_alloc<std::allocator<char> >,std::_Vector_val<std::_Simple_types<char> >,1>::_Get_second
PUBLIC	?deallocate@?$allocator@UCard@@@std@@QEAAXPEAUCard@@_K@Z ; std::allocator<Card>::deallocate
PUBLIC	?allocate@?$allocator@UCard@@@std@@QEAAPEAUCard@@_K@Z ; std::allocator<Card>::allocate
PUBLIC	?_Umove_if_noexcept1@?$vector@UCard@@V?$allocator@UCard@@@std@@@std@@AEAAXPEAUCard@@00U?$integral_constant@_N$00@2@@Z ; std::vector<Card,std::allocator<Card> >::_Umove_if_noexcept1
PUBLIC	?_Get_data@?$_Vector_alloc@U?$_Vec_base_types@UCard@@V?$allocator@UCard@@@std@@@std@@@std@@QEBAAEBV?$_Vector_val@U?$_Simple_types@UCard@@@std@@@2@XZ ; std::_Vector_alloc<std::_Vec_base_types<Card,std::allocator<Card> > >::_Get_data
PUBLIC	?_Mylast@?$_Vector_alloc@U?$_Vec_base_types@UCard@@V?$allocator@UCard@@@std@@@std@@@std@@QEBAAEBQEAUCard@@XZ ; std::_Vector_alloc<std::_Vec_base_types<Card,std::allocator<Card> > >::_Mylast
PUBLIC	?max_size@?$allocator_traits@V?$allocator@UCard@@@std@@@std@@SA_KAEBV?$allocator@UCard@@@2@@Z ; std::allocator_traits<std::allocator<Card> >::max_size
PUBLIC	?_Get_first@?$_Compressed_pair@U?$_Wrap_alloc@V?$allocator@UCard@@@std@@@std@@V?$_Vector_val@U?$_Simple_types@UCard@@@std@@@2@$00@std@@QEBAAEBU?$_Wrap_alloc@V?$allocator@UCard@@@std@@@2@XZ ; std::_Compressed_pair<std::_Wrap_alloc<std::allocator<Card> >,std::_Vector_val<std::_Simple_types<Card> >,1>::_Get_first
PUBLIC	?_Get_max_bucket_size@?$_Uhash_compare@$$CBUCard@@UCardHash@@U?$equal_to@$$CBUCard@@@std@@@std@@QEAAAEAMXZ ; std::_Uhash_compare<Card const ,CardHash,std::equal_to<Card const > >::_Get_max_bucket_size
PUBLIC	?_Unchecked_end@?$_Hash@V?$_Umap_traits@$$CBUCard@@HV?$_Uhash_compare@$$CBUCard@@UCardHash@@U?$equal_to@$$CBUCard@@@std@@@std@@V?$allocator@U?$pair@$$CBUCard@@H@std@@@3@$0A@@std@@@std@@QEAA?AV?$_List_unchecked_iterator@V?$_List_val@U?$_List_simple_types@U?$pair@$$CBUCard@@H@std@@@std@@@std@@@2@XZ ; std::_Hash<std::_Umap_traits<Card const ,int,std::_Uhash_compare<Card const ,CardHash,std::equal_to<Card const > >,std::allocator<std::pair<Card const ,int> >,0> >::_Unchecked_end
PUBLIC	?clear@?$list@U?$pair@$$CBUCard@@H@std@@V?$allocator@U?$pair@$$CBUCard@@H@std@@@2@@std@@QEAAXXZ ; std::list<std::pair<Card const ,int>,std::allocator<std::pair<Card const ,int> > >::clear
PUBLIC	?_Freeheadnode@?$_List_alloc@U?$_List_base_types@U?$pair@$$CBUCard@@H@std@@V?$allocator@U?$pair@$$CBUCard@@H@std@@@2@@std@@@std@@QEAAXPEAU?$_List_node@U?$pair@$$CBUCard@@H@std@@PEAX@2@@Z ; std::_List_alloc<std::_List_base_types<std::pair<Card const ,int>,std::allocator<std::pair<Card const ,int> > > >::_Freeheadnode
PUBLIC	??0?$_List_const_iterator@V?$_List_val@U?$_List_simple_types@U?$pair@$$CBUCard@@H@std@@@std@@@std@@@std@@QEAA@PEAU?$_List_node@U?$pair@$$CBUCard@@H@std@@PEAX@1@PEBV?$_List_val@U?$_List_simple_types@U?$pair@$$CBUCard@@H@std@@@std@@@1@@Z ; std::_List_const_iterator<std::_List_val<std::_List_simple_types<std::pair<Card const ,int> > > >::_List_const_iterator<std::_List_val<std::_List_simple_types<std::pair<Card const ,int> > > >
PUBLIC	?_Get_second@?$_Compressed_pair@U?$_Wrap_alloc@V?$allocator@U?$_List_node@U?$pair@$$CBUCard@@H@std@@PEAX@std@@@std@@@std@@V?$_List_val@U?$_List_simple_types@U?$pair@$$CBUCard@@H@std@@@std@@@2@$00@std@@QEAAAEAV?$_List_val@U?$_List_simple_types@U?$pair@$$CBUCard@@H@std@@@std@@@2@XZ ; std::_Compressed_pair<std::_Wrap_alloc<std::allocator<std::_List_node<std::pair<Card const ,int>,void * __ptr64> > >,std::_List_val<std::_List_simple_types<std::pair<Card const ,int> > >,1>::_Get_second
PUBLIC	?assign@?$vector@V?$_List_unchecked_iterator@V?$_List_val@U?$_List_simple_types@U?$pair@$$CBUCard@@H@std@@@std@@@std@@@std@@U?$_Wrap_alloc@V?$allocator@V?$_List_unchecked_iterator@V?$_List_val@U?$_List_simple_types@U?$pair@$$CBUCard@@H@std@@@std@@@std@@@std@@@std@@@2@@std@@QEAAX_KAEBV?$_List_unchecked_iterator@V?$_List_val@U?$_List_simple_types@U?$pair@$$CBUCard@@H@std@@@std@@@std@@@2@@Z ; std::vector<std::_List_unchecked_iterator<std::_List_val<std::_List_simple_types<std::pair<Card const ,int> > > >,std::_Wrap_alloc<std::allocator<std::_List_unchecked_iterator<std::_List_val<std::_List_simple_types<std::pair<Card const ,int> > > > > > >::assign
PUBLIC	?reserve@?$vector@V?$_List_unchecked_iterator@V?$_List_val@U?$_List_simple_types@U?$pair@$$CBUCard@@H@std@@@std@@@std@@@std@@U?$_Wrap_alloc@V?$allocator@V?$_List_unchecked_iterator@V?$_List_val@U?$_List_simple_types@U?$pair@$$CBUCard@@H@std@@@std@@@std@@@std@@@std@@@2@@std@@QEAAX_K@Z ; std::vector<std::_List_unchecked_iterator<std::_List_val<std::_List_simple_types<std::pair<Card const ,int> > > >,std::_Wrap_alloc<std::allocator<std::_List_unchecked_iterator<std::_List_val<std::_List_simple_types<std::pair<Card const ,int> > > > > > >::reserve
PUBLIC	?_Destroy@?$vector@V?$_List_unchecked_iterator@V?$_List_val@U?$_List_simple_types@U?$pair@$$CBUCard@@H@std@@@std@@@std@@@std@@U?$_Wrap_alloc@V?$allocator@V?$_List_unchecked_iterator@V?$_List_val@U?$_List_simple_types@U?$pair@$$CBUCard@@H@std@@@std@@@std@@@std@@@std@@@2@@std@@AEAAXPEAV?$_List_unchecked_iterator@V?$_List_val@U?$_List_simple_types@U?$pair@$$CBUCard@@H@std@@@std@@@std@@@2@0@Z ; std::vector<std::_List_unchecked_iterator<std::_List_val<std::_List_simple_types<std::pair<Card const ,int> > > >,std::_Wrap_alloc<std::allocator<std::_List_unchecked_iterator<std::_List_val<std::_List_simple_types<std::pair<Card const ,int> > > > > > >::_Destroy
PUBLIC	?_Orphan_all@?$_Vector_alloc@U?$_Vec_base_types@V?$_List_unchecked_iterator@V?$_List_val@U?$_List_simple_types@U?$pair@$$CBUCard@@H@std@@@std@@@std@@@std@@U?$_Wrap_alloc@V?$allocator@V?$_List_unchecked_iterator@V?$_List_val@U?$_List_simple_types@U?$pair@$$CBUCard@@H@std@@@std@@@std@@@std@@@std@@@2@@std@@@std@@QEAAXXZ ; std::_Vector_alloc<std::_Vec_base_types<std::_List_unchecked_iterator<std::_List_val<std::_List_simple_types<std::pair<Card const ,int> > > >,std::_Wrap_alloc<std::allocator<std::_List_unchecked_iterator<std::_List_val<std::_List_simple_types<std::pair<Card const ,int> > > > > > > >::_Orphan_all
PUBLIC	?_Getal@?$_Vector_alloc@U?$_Vec_base_types@V?$_List_unchecked_iterator@V?$_List_val@U?$_List_simple_types@U?$pair@$$CBUCard@@H@std@@@std@@@std@@@std@@U?$_Wrap_alloc@V?$allocator@V?$_List_unchecked_iterator@V?$_List_val@U?$_List_simple_types@U?$pair@$$CBUCard@@H@std@@@std@@@std@@@std@@@std@@@2@@std@@@std@@QEAAAEAU?$_Wrap_alloc@U?$_Wrap_alloc@V?$allocator@V?$_List_unchecked_iterator@V?$_List_val@U?$_List_simple_types@U?$pair@$$CBUCard@@H@std@@@std@@@std@@@std@@@std@@@std@@@2@XZ ; std::_Vector_alloc<std::_Vec_base_types<std::_List_unchecked_iterator<std::_List_val<std::_List_simple_types<std::pair<Card const ,int> > > >,std::_Wrap_alloc<std::allocator<std::_List_unchecked_iterator<std::_List_val<std::_List_simple_types<std::pair<Card const ,int> > > > > > > >::_Getal
PUBLIC	?_Myfirst@?$_Vector_alloc@U?$_Vec_base_types@V?$_List_unchecked_iterator@V?$_List_val@U?$_List_simple_types@U?$pair@$$CBUCard@@H@std@@@std@@@std@@@std@@U?$_Wrap_alloc@V?$allocator@V?$_List_unchecked_iterator@V?$_List_val@U?$_List_simple_types@U?$pair@$$CBUCard@@H@std@@@std@@@std@@@std@@@std@@@2@@std@@@std@@QEAAAEAPEAV?$_List_unchecked_iterator@V?$_List_val@U?$_List_simple_types@U?$pair@$$CBUCard@@H@std@@@std@@@std@@@2@XZ ; std::_Vector_alloc<std::_Vec_base_types<std::_List_unchecked_iterator<std::_List_val<std::_List_simple_types<std::pair<Card const ,int> > > >,std::_Wrap_alloc<std::allocator<std::_List_unchecked_iterator<std::_List_val<std::_List_simple_types<std::pair<Card const ,int> > > > > > > >::_Myfirst
PUBLIC	?_Mylast@?$_Vector_alloc@U?$_Vec_base_types@V?$_List_unchecked_iterator@V?$_List_val@U?$_List_simple_types@U?$pair@$$CBUCard@@H@std@@@std@@@std@@@std@@U?$_Wrap_alloc@V?$allocator@V?$_List_unchecked_iterator@V?$_List_val@U?$_List_simple_types@U?$pair@$$CBUCard@@H@std@@@std@@@std@@@std@@@std@@@2@@std@@@std@@QEAAAEAPEAV?$_List_unchecked_iterator@V?$_List_val@U?$_List_simple_types@U?$pair@$$CBUCard@@H@std@@@std@@@std@@@2@XZ ; std::_Vector_alloc<std::_Vec_base_types<std::_List_unchecked_iterator<std::_List_val<std::_List_simple_types<std::pair<Card const ,int> > > >,std::_Wrap_alloc<std::allocator<std::_List_unchecked_iterator<std::_List_val<std::_List_simple_types<std::pair<Card const ,int> > > > > > > >::_Mylast
PUBLIC	?_Myend@?$_Vector_alloc@U?$_Vec_base_types@V?$_List_unchecked_iterator@V?$_List_val@U?$_List_simple_types@U?$pair@$$CBUCard@@H@std@@@std@@@std@@@std@@U?$_Wrap_alloc@V?$allocator@V?$_List_unchecked_iterator@V?$_List_val@U?$_List_simple_types@U?$pair@$$CBUCard@@H@std@@@std@@@std@@@std@@@std@@@2@@std@@@std@@QEAAAEAPEAV?$_List_unchecked_iterator@V?$_List_val@U?$_List_simple_types@U?$pair@$$CBUCard@@H@std@@@std@@@std@@@2@XZ ; std::_Vector_alloc<std::_Vec_base_types<std::_List_unchecked_iterator<std::_List_val<std::_List_simple_types<std::pair<Card const ,int> > > >,std::_Wrap_alloc<std::allocator<std::_List_unchecked_iterator<std::_List_val<std::_List_simple_types<std::pair<Card const ,int> > > > > > > >::_Myend
PUBLIC	?deallocate@?$_Wrap_alloc@U?$_Wrap_alloc@V?$allocator@V?$_List_unchecked_iterator@V?$_List_val@U?$_List_simple_types@U?$pair@$$CBUCard@@H@std@@@std@@@std@@@std@@@std@@@std@@@std@@QEAAXPEAV?$_List_unchecked_iterator@V?$_List_val@U?$_List_simple_types@U?$pair@$$CBUCard@@H@std@@@std@@@std@@@2@_K@Z ; std::_Wrap_alloc<std::_Wrap_alloc<std::allocator<std::_List_unchecked_iterator<std::_List_val<std::_List_simple_types<std::pair<Card const ,int> > > > > > >::deallocate
PUBLIC	?assign@?$basic_string@DU?$char_traits@D@std@@V?$allocator@D@2@@std@@QEAAAEAV12@AEBV12@_K_K@Z ; std::basic_string<char,std::char_traits<char>,std::allocator<char> >::assign
PUBLIC	?_Clamp_suffix_size@?$basic_string@DU?$char_traits@D@std@@V?$allocator@D@2@@std@@QEBA_K_K0@Z ; std::basic_string<char,std::char_traits<char>,std::allocator<char> >::_Clamp_suffix_size
PUBLIC	?_Eos@?$basic_string@DU?$char_traits@D@std@@V?$allocator@D@2@@std@@QEAAX_K@Z ; std::basic_string<char,std::char_traits<char>,std::allocator<char> >::_Eos
PUBLIC	?_Grow@?$basic_string@DU?$char_traits@D@std@@V?$allocator@D@2@@std@@QEAA_N_K@Z ; std::basic_string<char,std::char_traits<char>,std::allocator<char> >::_Grow
PUBLIC	?_Inside@?$basic_string@DU?$char_traits@D@std@@V?$allocator@D@2@@std@@QEBA_NQEBD@Z ; std::basic_string<char,std::char_traits<char>,std::allocator<char> >::_Inside
PUBLIC	?_Xlen@?$basic_string@DU?$char_traits@D@std@@V?$allocator@D@2@@std@@SAXXZ ; std::basic_string<char,std::char_traits<char>,std::allocator<char> >::_Xlen
PUBLIC	?_Check_offset@?$basic_string@DU?$char_traits@D@std@@V?$allocator@D@2@@std@@QEBAX_K@Z ; std::basic_string<char,std::char_traits<char>,std::allocator<char> >::_Check_offset
PUBLIC	?_Get_data@?$_String_alloc@U?$_String_base_types@DV?$allocator@D@std@@@std@@@std@@QEAAAEAV?$_String_val@U?$_Simple_types@D@std@@@2@XZ ; std::_String_alloc<std::_String_base_types<char,std::allocator<char> > >::_Get_data
PUBLIC	?_Get_data@?$_String_alloc@U?$_String_base_types@DV?$allocator@D@std@@@std@@@std@@QEBAAEBV?$_String_val@U?$_Simple_types@D@std@@@2@XZ ; std::_String_alloc<std::_String_base_types<char,std::allocator<char> > >::_Get_data
PUBLIC	?_Mysize@?$_String_alloc@U?$_String_base_types@DV?$allocator@D@std@@@std@@@std@@QEAAAEA_KXZ ; std::_String_alloc<std::_String_base_types<char,std::allocator<char> > >::_Mysize
PUBLIC	?_Myres@?$_String_alloc@U?$_String_base_types@DV?$allocator@D@std@@@std@@@std@@QEAAAEA_KXZ ; std::_String_alloc<std::_String_base_types<char,std::allocator<char> > >::_Myres
PUBLIC	?allocate@?$_Wrap_alloc@V?$allocator@D@std@@@std@@QEAAPEAD_K@Z ; std::_Wrap_alloc<std::allocator<char> >::allocate
PUBLIC	?deallocate@?$_Wrap_alloc@V?$allocator@D@std@@@std@@QEAAXPEAD_K@Z ; std::_Wrap_alloc<std::allocator<char> >::deallocate
PUBLIC	?max_size@?$_Wrap_alloc@V?$allocator@D@std@@@std@@QEBA_KU_Nil@2@@Z ; std::_Wrap_alloc<std::allocator<char> >::max_size
PUBLIC	?_Myptr@?$_String_val@U?$_Simple_types@D@std@@@std@@QEAAPEADXZ ; std::_String_val<std::_Simple_types<char> >::_Myptr
PUBLIC	?_Myptr@?$_String_val@U?$_Simple_types@D@std@@@std@@QEBAPEBDXZ ; std::_String_val<std::_Simple_types<char> >::_Myptr
PUBLIC	?_Large_string_engaged@?$_String_val@U?$_Simple_types@D@std@@@std@@QEBA_NXZ ; std::_String_val<std::_Simple_types<char> >::_Large_string_engaged
PUBLIC	?_Get_first@?$_Compressed_pair@U?$_Wrap_alloc@V?$allocator@D@std@@@std@@V?$_String_val@U?$_Simple_types@D@std@@@2@$00@std@@QEAAAEAU?$_Wrap_alloc@V?$allocator@D@std@@@2@XZ ; std::_Compressed_pair<std::_Wrap_alloc<std::allocator<char> >,std::_String_val<std::_Simple_types<char> >,1>::_Get_first
PUBLIC	?_Get_first@?$_Compressed_pair@U?$_Wrap_alloc@V?$allocator@D@std@@@std@@V?$_String_val@U?$_Simple_types@D@std@@@2@$00@std@@QEBAAEBU?$_Wrap_alloc@V?$allocator@D@std@@@2@XZ ; std::_Compressed_pair<std::_Wrap_alloc<std::allocator<char> >,std::_String_val<std::_Simple_types<char> >,1>::_Get_first
PUBLIC	?_Umove_if_noexcept@?$vector@DV?$allocator@D@std@@@std@@AEAAXPEAD00@Z ; std::vector<char,std::allocator<char> >::_Umove_if_noexcept
PUBLIC	?_Destroy@?$vector@DV?$allocator@D@std@@@std@@AEAAXPEAD0@Z ; std::vector<char,std::allocator<char> >::_Destroy
PUBLIC	?_Change_array@?$vector@DV?$allocator@D@std@@@std@@AEAAXQEAD_K1@Z ; std::vector<char,std::allocator<char> >::_Change_array
PUBLIC	?_Orphan_all@?$_Vector_alloc@U?$_Vec_base_types@DV?$allocator@D@std@@@std@@@std@@QEAAXXZ ; std::_Vector_alloc<std::_Vec_base_types<char,std::allocator<char> > >::_Orphan_all
PUBLIC	?_Swap_all@?$_Vector_alloc@U?$_Vec_base_types@DV?$allocator@D@std@@@std@@@std@@QEAAXAEAV12@@Z ; std::_Vector_alloc<std::_Vec_base_types<char,std::allocator<char> > >::_Swap_all
PUBLIC	?_Getal@?$_Vector_alloc@U?$_Vec_base_types@DV?$allocator@D@std@@@std@@@std@@QEBAAEBU?$_Wrap_alloc@V?$allocator@D@std@@@2@XZ ; std::_Vector_alloc<std::_Vec_base_types<char,std::allocator<char> > >::_Getal
PUBLIC	?_Get_data@?$_Vector_alloc@U?$_Vec_base_types@DV?$allocator@D@std@@@std@@@std@@QEAAAEAV?$_Vector_val@U?$_Simple_types@D@std@@@2@XZ ; std::_Vector_alloc<std::_Vec_base_types<char,std::allocator<char> > >::_Get_data
PUBLIC	?_Get_data@?$_Vector_alloc@U?$_Vec_base_types@DV?$allocator@D@std@@@std@@@std@@QEBAAEBV?$_Vector_val@U?$_Simple_types@D@std@@@2@XZ ; std::_Vector_alloc<std::_Vec_base_types<char,std::allocator<char> > >::_Get_data
PUBLIC	?_Myend@?$_Vector_alloc@U?$_Vec_base_types@DV?$allocator@D@std@@@std@@@std@@QEAAAEAPEADXZ ; std::_Vector_alloc<std::_Vec_base_types<char,std::allocator<char> > >::_Myend
PUBLIC	?_Myend@?$_Vector_alloc@U?$_Vec_base_types@DV?$allocator@D@std@@@std@@@std@@QEBAAEBQEADXZ ; std::_Vector_alloc<std::_Vec_base_types<char,std::allocator<char> > >::_Myend
PUBLIC	?_Get_first@?$_Compressed_pair@U?$_Wrap_alloc@V?$allocator@D@std@@@std@@V?$_Vector_val@U?$_Simple_types@D@std@@@2@$00@std@@QEAAAEAU?$_Wrap_alloc@V?$allocator@D@std@@@2@XZ ; std::_Compressed_pair<std::_Wrap_alloc<std::allocator<char> >,std::_Vector_val<std::_Simple_types<char> >,1>::_Get_first
PUBLIC	?size@?$vector@UCard@@V?$allocator@UCard@@@std@@@std@@QEBA_KXZ ; std::vector<Card,std::allocator<Card> >::size
PUBLIC	?_Umove_if_noexcept@?$vector@UCard@@V?$allocator@UCard@@@std@@@std@@AEAAXPEAUCard@@00@Z ; std::vector<Card,std::allocator<Card> >::_Umove_if_noexcept
PUBLIC	?_Destroy@?$vector@UCard@@V?$allocator@UCard@@@std@@@std@@AEAAXPEAUCard@@0@Z ; std::vector<Card,std::allocator<Card> >::_Destroy
PUBLIC	?_Change_array@?$vector@UCard@@V?$allocator@UCard@@@std@@@std@@AEAAXQEAUCard@@_K1@Z ; std::vector<Card,std::allocator<Card> >::_Change_array
PUBLIC	?_Orphan_all@?$_Vector_alloc@U?$_Vec_base_types@UCard@@V?$allocator@UCard@@@std@@@std@@@std@@QEAAXXZ ; std::_Vector_alloc<std::_Vec_base_types<Card,std::allocator<Card> > >::_Orphan_all
PUBLIC	?_Swap_all@?$_Vector_alloc@U?$_Vec_base_types@UCard@@V?$allocator@UCard@@@std@@@std@@@std@@QEAAXAEAV12@@Z ; std::_Vector_alloc<std::_Vec_base_types<Card,std::allocator<Card> > >::_Swap_all
PUBLIC	?_Getal@?$_Vector_alloc@U?$_Vec_base_types@UCard@@V?$allocator@UCard@@@std@@@std@@@std@@QEBAAEBU?$_Wrap_alloc@V?$allocator@UCard@@@std@@@2@XZ ; std::_Vector_alloc<std::_Vec_base_types<Card,std::allocator<Card> > >::_Getal
PUBLIC	?_Myfirst@?$_Vector_alloc@U?$_Vec_base_types@UCard@@V?$allocator@UCard@@@std@@@std@@@std@@QEBAAEBQEAUCard@@XZ ; std::_Vector_alloc<std::_Vec_base_types<Card,std::allocator<Card> > >::_Myfirst
PUBLIC	?_Myend@?$_Vector_alloc@U?$_Vec_base_types@UCard@@V?$allocator@UCard@@@std@@@std@@@std@@QEAAAEAPEAUCard@@XZ ; std::_Vector_alloc<std::_Vec_base_types<Card,std::allocator<Card> > >::_Myend
PUBLIC	?_Myend@?$_Vector_alloc@U?$_Vec_base_types@UCard@@V?$allocator@UCard@@@std@@@std@@@std@@QEBAAEBQEAUCard@@XZ ; std::_Vector_alloc<std::_Vec_base_types<Card,std::allocator<Card> > >::_Myend
PUBLIC	?allocate@?$_Wrap_alloc@V?$allocator@UCard@@@std@@@std@@QEAAPEAUCard@@_K@Z ; std::_Wrap_alloc<std::allocator<Card> >::allocate
PUBLIC	?deallocate@?$_Wrap_alloc@V?$allocator@UCard@@@std@@@std@@QEAAXPEAUCard@@_K@Z ; std::_Wrap_alloc<std::allocator<Card> >::deallocate
PUBLIC	?max_size@?$_Wrap_alloc@V?$allocator@UCard@@@std@@@std@@QEBA_KU_Nil@2@@Z ; std::_Wrap_alloc<std::allocator<Card> >::max_size
PUBLIC	??0?$_Vector_const_iterator@V?$_Vector_val@U?$_Simple_types@UCard@@@std@@@std@@@std@@QEAA@PEAUCard@@PEBU_Container_base0@1@@Z ; std::_Vector_const_iterator<std::_Vector_val<std::_Simple_types<Card> > >::_Vector_const_iterator<std::_Vector_val<std::_Simple_types<Card> > >
PUBLIC	?_Compat@?$_Vector_const_iterator@V?$_Vector_val@U?$_Simple_types@UCard@@@std@@@std@@@std@@QEBAXAEBV12@@Z ; std::_Vector_const_iterator<std::_Vector_val<std::_Simple_types<Card> > >::_Compat
PUBLIC	?_Get_first@?$_Compressed_pair@U?$_Wrap_alloc@V?$allocator@UCard@@@std@@@std@@V?$_Vector_val@U?$_Simple_types@UCard@@@std@@@2@$00@std@@QEAAAEAU?$_Wrap_alloc@V?$allocator@UCard@@@std@@@2@XZ ; std::_Compressed_pair<std::_Wrap_alloc<std::allocator<Card> >,std::_Vector_val<std::_Simple_types<Card> >,1>::_Get_first
PUBLIC	?_Get_second@?$_Compressed_pair@U?$_Wrap_alloc@V?$allocator@UCard@@@std@@@std@@V?$_Vector_val@U?$_Simple_types@UCard@@@std@@@2@$00@std@@QEAAAEAV?$_Vector_val@U?$_Simple_types@UCard@@@std@@@2@XZ ; std::_Compressed_pair<std::_Wrap_alloc<std::allocator<Card> >,std::_Vector_val<std::_Simple_types<Card> >,1>::_Get_second
PUBLIC	??0?$_Umap_traits@$$CBUCard@@HV?$_Uhash_compare@$$CBUCard@@UCardHash@@U?$equal_to@$$CBUCard@@@std@@@std@@V?$allocator@U?$pair@$$CBUCard@@H@std@@@3@$0A@@std@@QEAA@AEBV?$_Uhash_compare@$$CBUCard@@UCardHash@@U?$equal_to@$$CBUCard@@@std@@@1@@Z ; std::_Umap_traits<Card const ,int,std::_Uhash_compare<Card const ,CardHash,std::equal_to<Card const > >,std::allocator<std::pair<Card const ,int> >,0>::_Umap_traits<Card const ,int,std::_Uhash_compare<Card const ,CardHash,std::equal_to<Card const > >,std::allocator<std::pair<Card const ,int> >,0>
PUBLIC	?_Init@?$_Hash@V?$_Umap_traits@$$CBUCard@@HV?$_Uhash_compare@$$CBUCard@@UCardHash@@U?$equal_to@$$CBUCard@@@std@@@std@@V?$allocator@U?$pair@$$CBUCard@@H@std@@@3@$0A@@std@@@std@@IEAAX_K@Z ; std::_Hash<std::_Umap_traits<Card const ,int,std::_Uhash_compare<Card const ,CardHash,std::equal_to<Card const > >,std::allocator<std::pair<Card const ,int> >,0> >::_Init
PUBLIC	?_Max_bucket_size@?$_Hash@V?$_Umap_traits@$$CBUCard@@HV?$_Uhash_compare@$$CBUCard@@UCardHash@@U?$equal_to@$$CBUCard@@@std@@@std@@V?$allocator@U?$pair@$$CBUCard@@H@std@@@3@$0A@@std@@@std@@IEAAAEAMXZ ; std::_Hash<std::_Umap_traits<Card const ,int,std::_Uhash_compare<Card const ,CardHash,std::equal_to<Card const > >,std::allocator<std::pair<Card const ,int> >,0> >::_Max_bucket_size
PUBLIC	??0?$list@U?$pair@$$CBUCard@@H@std@@V?$allocator@U?$pair@$$CBUCard@@H@std@@@2@@std@@QEAA@AEBV?$allocator@U?$pair@$$CBUCard@@H@std@@@1@@Z ; std::list<std::pair<Card const ,int>,std::allocator<std::pair<Card const ,int> > >::list<std::pair<Card const ,int>,std::allocator<std::pair<Card const ,int> > >
PUBLIC	?_Tidy@?$list@U?$pair@$$CBUCard@@H@std@@V?$allocator@U?$pair@$$CBUCard@@H@std@@@2@@std@@QEAAXXZ ; std::list<std::pair<Card const ,int>,std::allocator<std::pair<Card const ,int> > >::_Tidy
PUBLIC	?_Nextnode@?$_List_alloc@U?$_List_base_types@U?$pair@$$CBUCard@@H@std@@V?$allocator@U?$pair@$$CBUCard@@H@std@@@2@@std@@@std@@SAAEAPEAU?$_List_node@U?$pair@$$CBUCard@@H@std@@PEAX@2@PEAU32@@Z ; std::_List_alloc<std::_List_base_types<std::pair<Card const ,int>,std::allocator<std::pair<Card const ,int> > > >::_Nextnode
PUBLIC	??1?$_List_alloc@U?$_List_base_types@U?$pair@$$CBUCard@@H@std@@V?$allocator@U?$pair@$$CBUCard@@H@std@@@2@@std@@@std@@QEAA@XZ ; std::_List_alloc<std::_List_base_types<std::pair<Card const ,int>,std::allocator<std::pair<Card const ,int> > > >::~_List_alloc<std::_List_base_types<std::pair<Card const ,int>,std::allocator<std::pair<Card const ,int> > > >
PUBLIC	?_Get_data@?$_List_alloc@U?$_List_base_types@U?$pair@$$CBUCard@@H@std@@V?$allocator@U?$pair@$$CBUCard@@H@std@@@2@@std@@@std@@QEAAAEAV?$_List_val@U?$_List_simple_types@U?$pair@$$CBUCard@@H@std@@@std@@@2@XZ ; std::_List_alloc<std::_List_base_types<std::pair<Card const ,int>,std::allocator<std::pair<Card const ,int> > > >::_Get_data
PUBLIC	?_Myhead@?$_List_alloc@U?$_List_base_types@U?$pair@$$CBUCard@@H@std@@V?$allocator@U?$pair@$$CBUCard@@H@std@@@2@@std@@@std@@QEAAAEAPEAU?$_List_node@U?$pair@$$CBUCard@@H@std@@PEAX@2@XZ ; std::_List_alloc<std::_List_base_types<std::pair<Card const ,int>,std::allocator<std::pair<Card const ,int> > > >::_Myhead
PUBLIC	?_Nextnode@?$_List_val@U?$_List_simple_types@U?$pair@$$CBUCard@@H@std@@@std@@@std@@SAAEAPEAU?$_List_node@U?$pair@$$CBUCard@@H@std@@PEAX@2@PEAU32@@Z ; std::_List_val<std::_List_simple_types<std::pair<Card const ,int> > >::_Nextnode
PUBLIC	?_Myval@?$_List_val@U?$_List_simple_types@U?$pair@$$CBUCard@@H@std@@@std@@@std@@SAAEAU?$pair@$$CBUCard@@H@2@PEAU?$_List_node@U?$pair@$$CBUCard@@H@std@@PEAX@2@@Z ; std::_List_val<std::_List_simple_types<std::pair<Card const ,int> > >::_Myval
PUBLIC	??0?$_List_iterator@V?$_List_val@U?$_List_simple_types@U?$pair@$$CBUCard@@H@std@@@std@@@std@@@std@@QEAA@PEAU?$_List_node@U?$pair@$$CBUCard@@H@std@@PEAX@1@PEBV?$_List_val@U?$_List_simple_types@U?$pair@$$CBUCard@@H@std@@@std@@@1@@Z ; std::_List_iterator<std::_List_val<std::_List_simple_types<std::pair<Card const ,int> > > >::_List_iterator<std::_List_val<std::_List_simple_types<std::pair<Card const ,int> > > >
PUBLIC	??0?$vector@V?$_List_unchecked_iterator@V?$_List_val@U?$_List_simple_types@U?$pair@$$CBUCard@@H@std@@@std@@@std@@@std@@U?$_Wrap_alloc@V?$allocator@V?$_List_unchecked_iterator@V?$_List_val@U?$_List_simple_types@U?$pair@$$CBUCard@@H@std@@@std@@@std@@@std@@@std@@@2@@std@@QEAA@AEBU?$_Wrap_alloc@V?$allocator@V?$_List_unchecked_iterator@V?$_List_val@U?$_List_simple_types@U?$pair@$$CBUCard@@H@std@@@std@@@std@@@std@@@std@@@1@@Z ; std::vector<std::_List_unchecked_iterator<std::_List_val<std::_List_simple_types<std::pair<Card const ,int> > > >,std::_Wrap_alloc<std::allocator<std::_List_unchecked_iterator<std::_List_val<std::_List_simple_types<std::pair<Card const ,int> > > > > > >::vector<std::_List_unchecked_iterator<std::_List_val<std::_List_simple_types<std::pair<Card const ,int> > > >,std::_Wrap_alloc<std::allocator<std::_List_unchecked_iterator<std::_List_val<std::_List_simple_types<std::pair<Card const ,int> > > > > > >
PUBLIC	?_Tidy@?$vector@V?$_List_unchecked_iterator@V?$_List_val@U?$_List_simple_types@U?$pair@$$CBUCard@@H@std@@@std@@@std@@@std@@U?$_Wrap_alloc@V?$allocator@V?$_List_unchecked_iterator@V?$_List_val@U?$_List_simple_types@U?$pair@$$CBUCard@@H@std@@@std@@@std@@@std@@@std@@@2@@std@@AEAAXXZ ; std::vector<std::_List_unchecked_iterator<std::_List_val<std::_List_simple_types<std::pair<Card const ,int> > > >,std::_Wrap_alloc<std::allocator<std::_List_unchecked_iterator<std::_List_val<std::_List_simple_types<std::pair<Card const ,int> > > > > > >::_Tidy
PUBLIC	?pointer_to@?$pointer_traits@PEAU?$pair@$$CBUCard@@H@std@@@std@@SAPEAU?$pair@$$CBUCard@@H@2@AEAU32@@Z ; std::pointer_traits<std::pair<Card const ,int> * __ptr64>::pointer_to
PUBLIC	??1?$_List_buy@U?$pair@$$CBUCard@@H@std@@V?$allocator@U?$pair@$$CBUCard@@H@std@@@2@@std@@QEAA@XZ ; std::_List_buy<std::pair<Card const ,int>,std::allocator<std::pair<Card const ,int> > >::~_List_buy<std::pair<Card const ,int>,std::allocator<std::pair<Card const ,int> > >
PUBLIC	?_Assign_rv_contents@?$basic_string@DU?$char_traits@D@std@@V?$allocator@D@2@@std@@QEAAX$$QEAV12@@Z ; std::basic_string<char,std::char_traits<char>,std::allocator<char> >::_Assign_rv_contents
PUBLIC	?assign@?$basic_string@DU?$char_traits@D@std@@V?$allocator@D@2@@std@@QEAAAEAV12@QEBD_K@Z ; std::basic_string<char,std::char_traits<char>,std::allocator<char> >::assign
PUBLIC	?assign@?$basic_string@DU?$char_traits@D@std@@V?$allocator@D@2@@std@@QEAAAEAV12@QEBD@Z ; std::basic_string<char,std::char_traits<char>,std::allocator<char> >::assign
PUBLIC	?_Tidy_init@?$basic_string@DU?$char_traits@D@std@@V?$allocator@D@2@@std@@QEAAXXZ ; std::basic_string<char,std::char_traits<char>,std::allocator<char> >::_Tidy_init
PUBLIC	?_Tidy_deallocate_only@?$basic_string@DU?$char_traits@D@std@@V?$allocator@D@2@@std@@QEAAXXZ ; std::basic_string<char,std::char_traits<char>,std::allocator<char> >::_Tidy_deallocate_only
PUBLIC	?_Myptr@?$_String_alloc@U?$_String_base_types@DV?$allocator@D@std@@@std@@@std@@QEAAPEADXZ ; std::_String_alloc<std::_String_base_types<char,std::allocator<char> > >::_Myptr
PUBLIC	?_Myptr@?$_String_alloc@U?$_String_base_types@DV?$allocator@D@std@@@std@@@std@@QEBAPEBDXZ ; std::_String_alloc<std::_String_base_types<char,std::allocator<char> > >::_Myptr
PUBLIC	??0?$_String_alloc@U?$_String_base_types@DV?$allocator@D@std@@@std@@@std@@QEAA@XZ ; std::_String_alloc<std::_String_base_types<char,std::allocator<char> > >::_String_alloc<std::_String_base_types<char,std::allocator<char> > >
PUBLIC	?_Getal@?$_String_alloc@U?$_String_base_types@DV?$allocator@D@std@@@std@@@std@@QEAAAEAU?$_Wrap_alloc@V?$allocator@D@std@@@2@XZ ; std::_String_alloc<std::_String_base_types<char,std::allocator<char> > >::_Getal
PUBLIC	?_Getal@?$_String_alloc@U?$_String_base_types@DV?$allocator@D@std@@@std@@@std@@QEBAAEBU?$_Wrap_alloc@V?$allocator@D@std@@@2@XZ ; std::_String_alloc<std::_String_base_types<char,std::allocator<char> > >::_Getal
PUBLIC	?_Mysize@?$_String_alloc@U?$_String_base_types@DV?$allocator@D@std@@@std@@@std@@QEBAAEB_KXZ ; std::_String_alloc<std::_String_base_types<char,std::allocator<char> > >::_Mysize
PUBLIC	??1_Bxty@?$_String_val@U?$_Simple_types@D@std@@@std@@QEAA@XZ ; std::_String_val<std::_Simple_types<char> >::_Bxty::~_Bxty
PUBLIC	?_Move_from@?$vector@DV?$allocator@D@std@@@std@@AEAAX$$QEAV12@U?$integral_constant@_N$00@2@@Z ; std::vector<char,std::allocator<char> >::_Move_from
PUBLIC	?_Reallocate_exactly@?$vector@DV?$allocator@D@std@@@std@@AEAAX_K@Z ; std::vector<char,std::allocator<char> >::_Reallocate_exactly
PUBLIC	?max_size@?$vector@DV?$allocator@D@std@@@std@@QEBA_KXZ ; std::vector<char,std::allocator<char> >::max_size
PUBLIC	?capacity@?$vector@DV?$allocator@D@std@@@std@@QEBA_KXZ ; std::vector<char,std::allocator<char> >::capacity
PUBLIC	?_Udefault@?$vector@DV?$allocator@D@std@@@std@@AEAAPEADPEAD_K@Z ; std::vector<char,std::allocator<char> >::_Udefault
PUBLIC	?_Buy@?$vector@DV?$allocator@D@std@@@std@@AEAA_N_K@Z ; std::vector<char,std::allocator<char> >::_Buy
PUBLIC	?_Tidy@?$vector@DV?$allocator@D@std@@@std@@AEAAXXZ ; std::vector<char,std::allocator<char> >::_Tidy
PUBLIC	?_Xlength@?$vector@DV?$allocator@D@std@@@std@@CAXXZ ; std::vector<char,std::allocator<char> >::_Xlength
PUBLIC	??0?$_Vector_alloc@U?$_Vec_base_types@DV?$allocator@D@std@@@std@@@std@@QEAA@XZ ; std::_Vector_alloc<std::_Vec_base_types<char,std::allocator<char> > >::_Vector_alloc<std::_Vec_base_types<char,std::allocator<char> > >
PUBLIC	?_Move_alloc@?$_Vector_alloc@U?$_Vec_base_types@DV?$allocator@D@std@@@std@@@std@@QEAAXAEAU?$_Wrap_alloc@V?$allocator@D@std@@@2@@Z ; std::_Vector_alloc<std::_Vec_base_types<char,std::allocator<char> > >::_Move_alloc
PUBLIC	?_Getal@?$_Vector_alloc@U?$_Vec_base_types@DV?$allocator@D@std@@@std@@@std@@QEAAAEAU?$_Wrap_alloc@V?$allocator@D@std@@@2@XZ ; std::_Vector_alloc<std::_Vec_base_types<char,std::allocator<char> > >::_Getal
PUBLIC	?_Myfirst@?$_Vector_alloc@U?$_Vec_base_types@DV?$allocator@D@std@@@std@@@std@@QEAAAEAPEADXZ ; std::_Vector_alloc<std::_Vec_base_types<char,std::allocator<char> > >::_Myfirst
PUBLIC	?_Myfirst@?$_Vector_alloc@U?$_Vec_base_types@DV?$allocator@D@std@@@std@@@std@@QEBAAEBQEADXZ ; std::_Vector_alloc<std::_Vec_base_types<char,std::allocator<char> > >::_Myfirst
PUBLIC	?_Mylast@?$_Vector_alloc@U?$_Vec_base_types@DV?$allocator@D@std@@@std@@@std@@QEAAAEAPEADXZ ; std::_Vector_alloc<std::_Vec_base_types<char,std::allocator<char> > >::_Mylast
PUBLIC	?_Mylast@?$_Vector_alloc@U?$_Vec_base_types@DV?$allocator@D@std@@@std@@@std@@QEBAAEBQEADXZ ; std::_Vector_alloc<std::_Vec_base_types<char,std::allocator<char> > >::_Mylast
PUBLIC	?_Move_from@?$vector@UCard@@V?$allocator@UCard@@@std@@@std@@AEAAX$$QEAV12@U?$integral_constant@_N$00@2@@Z ; std::vector<Card,std::allocator<Card> >::_Move_from
PUBLIC	?_Reallocate_exactly@?$vector@UCard@@V?$allocator@UCard@@@std@@@std@@AEAAX_K@Z ; std::vector<Card,std::allocator<Card> >::_Reallocate_exactly
PUBLIC	?max_size@?$vector@UCard@@V?$allocator@UCard@@@std@@@std@@QEBA_KXZ ; std::vector<Card,std::allocator<Card> >::max_size
PUBLIC	?capacity@?$vector@UCard@@V?$allocator@UCard@@@std@@@std@@QEBA_KXZ ; std::vector<Card,std::allocator<Card> >::capacity
PUBLIC	?_Tidy@?$vector@UCard@@V?$allocator@UCard@@@std@@@std@@AEAAXXZ ; std::vector<Card,std::allocator<Card> >::_Tidy
PUBLIC	?_Xlength@?$vector@UCard@@V?$allocator@UCard@@@std@@@std@@CAXXZ ; std::vector<Card,std::allocator<Card> >::_Xlength
PUBLIC	?end@?$Span@D@myio@@QEBAPEBDXZ			; myio::Span<char>::end
PUBLIC	??0?$_Vector_alloc@U?$_Vec_base_types@UCard@@V?$allocator@UCard@@@std@@@std@@@std@@QEAA@XZ ; std::_Vector_alloc<std::_Vec_base_types<Card,std::allocator<Card> > >::_Vector_alloc<std::_Vec_base_types<Card,std::allocator<Card> > >
PUBLIC	?_Getal@?$_Vector_alloc@U?$_Vec_base_types@UCard@@V?$allocator@UCard@@@std@@@std@@@std@@QEAAAEAU?$_Wrap_alloc@V?$allocator@UCard@@@std@@@2@XZ ; std::_Vector_alloc<std::_Vec_base_types<Card,std::allocator<Card> > >::_Getal
PUBLIC	?_Get_data@?$_Vector_alloc@U?$_Vec_base_types@UCard@@V?$allocator@UCard@@@std@@@std@@@std@@QEAAAEAV?$_Vector_val@U?$_Simple_types@UCard@@@std@@@2@XZ ; std::_Vector_alloc<std::_Vec_base_types<Card,std::allocator<Card> > >::_Get_data
PUBLIC	?_Myfirst@?$_Vector_alloc@U?$_Vec_base_types@UCard@@V?$allocator@UCard@@@std@@@std@@@std@@QEAAAEAPEAUCard@@XZ ; std::_Vector_alloc<std::_Vec_base_types<Card,std::allocator<Card> > >::_Myfirst
PUBLIC	?_Mylast@?$_Vector_alloc@U?$_Vec_base_types@UCard@@V?$allocator@UCard@@@std@@@std@@@std@@QEAAAEAPEAUCard@@XZ ; std::_Vector_alloc<std::_Vec_base_types<Card,std::allocator<Card> > >::_Mylast
PUBLIC	??0?$_Vector_iterator@V?$_Vector_val@U?$_Simple_types@UCard@@@std@@@std@@@std@@QEAA@PEAUCard@@PEBU_Container_base0@1@@Z ; std::_Vector_iterator<std::_Vector_val<std::_Simple_types<Card> > >::_Vector_iterator<std::_Vector_val<std::_Simple_types<Card> > >
PUBLIC	??D?$_Vector_const_iterator@V?$_Vector_val@U?$_Simple_types@UCard@@@std@@@std@@@std@@QEBAAEBUCard@@XZ ; std::_Vector_const_iterator<std::_Vector_val<std::_Simple_types<Card> > >::operator*
PUBLIC	??E?$_Vector_const_iterator@V?$_Vector_val@U?$_Simple_types@UCard@@@std@@@std@@@std@@QEAAAEAV01@XZ ; std::_Vector_const_iterator<std::_Vector_val<std::_Simple_types<Card> > >::operator++
PUBLIC	??8?$_Vector_const_iterator@V?$_Vector_val@U?$_Simple_types@UCard@@@std@@@std@@@std@@QEBA_NAEBV01@@Z ; std::_Vector_const_iterator<std::_Vector_val<std::_Simple_types<Card> > >::operator==
PUBLIC	??0?$allocator@U?$pair@$$CBUCard@@H@std@@@std@@QEAA@XZ ; std::allocator<std::pair<Card const ,int> >::allocator<std::pair<Card const ,int> >
PUBLIC	??0?$_Uhash_compare@$$CBUCard@@UCardHash@@U?$equal_to@$$CBUCard@@@std@@@std@@QEAA@UCardHash@@U?$equal_to@$$CBUCard@@@1@@Z ; std::_Uhash_compare<Card const ,CardHash,std::equal_to<Card const > >::_Uhash_compare<Card const ,CardHash,std::equal_to<Card const > >
PUBLIC	??0?$_Hash@V?$_Umap_traits@$$CBUCard@@HV?$_Uhash_compare@$$CBUCard@@UCardHash@@U?$equal_to@$$CBUCard@@@std@@@std@@V?$allocator@U?$pair@$$CBUCard@@H@std@@@3@$0A@@std@@@std@@QEAA@AEBV?$_Uhash_compare@$$CBUCard@@UCardHash@@U?$equal_to@$$CBUCard@@@std@@@1@AEBV?$allocator@U?$pair@$$CBUCard@@H@std@@@1@@Z ; std::_Hash<std::_Umap_traits<Card const ,int,std::_Uhash_compare<Card const ,CardHash,std::equal_to<Card const > >,std::allocator<std::pair<Card const ,int> >,0> >::_Hash<std::_Umap_traits<Card const ,int,std::_Uhash_compare<Card const ,CardHash,std::equal_to<Card const > >,std::allocator<std::pair<Card const ,int> >,0> >
PUBLIC	??1?$list@U?$pair@$$CBUCard@@H@std@@V?$allocator@U?$pair@$$CBUCard@@H@std@@@2@@std@@QEAA@XZ ; std::list<std::pair<Card const ,int>,std::allocator<std::pair<Card const ,int> > >::~list<std::pair<Card const ,int>,std::allocator<std::pair<Card const ,int> > >
PUBLIC	?begin@?$list@U?$pair@$$CBUCard@@H@std@@V?$allocator@U?$pair@$$CBUCard@@H@std@@@2@@std@@QEAA?AV?$_List_iterator@V?$_List_val@U?$_List_simple_types@U?$pair@$$CBUCard@@H@std@@@std@@@std@@@2@XZ ; std::list<std::pair<Card const ,int>,std::allocator<std::pair<Card const ,int> > >::begin
PUBLIC	?end@?$list@U?$pair@$$CBUCard@@H@std@@V?$allocator@U?$pair@$$CBUCard@@H@std@@@2@@std@@QEAA?AV?$_List_iterator@V?$_List_val@U?$_List_simple_types@U?$pair@$$CBUCard@@H@std@@@std@@@std@@@2@XZ ; std::list<std::pair<Card const ,int>,std::allocator<std::pair<Card const ,int> > >::end
PUBLIC	??D?$_List_const_iterator@V?$_List_val@U?$_List_simple_types@U?$pair@$$CBUCard@@H@std@@@std@@@std@@@std@@QEBAAEBU?$pair@$$CBUCard@@H@1@XZ ; std::_List_const_iterator<std::_List_val<std::_List_simple_types<std::pair<Card const ,int> > > >::operator*
PUBLIC	??E?$_List_const_iterator@V?$_List_val@U?$_List_simple_types@U?$pair@$$CBUCard@@H@std@@@std@@@std@@@std@@QEAAAEAV01@XZ ; std::_List_const_iterator<std::_List_val<std::_List_simple_types<std::pair<Card const ,int> > > >::operator++
PUBLIC	??8?$_List_const_iterator@V?$_List_val@U?$_List_simple_types@U?$pair@$$CBUCard@@H@std@@@std@@@std@@@std@@QEBA_NAEBV01@@Z ; std::_List_const_iterator<std::_List_val<std::_List_simple_types<std::pair<Card const ,int> > > >::operator==
PUBLIC	??C?$_List_iterator@V?$_List_val@U?$_List_simple_types@U?$pair@$$CBUCard@@H@std@@@std@@@std@@@std@@QEBAPEAU?$pair@$$CBUCard@@H@1@XZ ; std::_List_iterator<std::_List_val<std::_List_simple_types<std::pair<Card const ,int> > > >::operator->
PUBLIC	??1?$vector@V?$_List_unchecked_iterator@V?$_List_val@U?$_List_simple_types@U?$pair@$$CBUCard@@H@std@@@std@@@std@@@std@@U?$_Wrap_alloc@V?$allocator@V?$_List_unchecked_iterator@V?$_List_val@U?$_List_simple_types@U?$pair@$$CBUCard@@H@std@@@std@@@std@@@std@@@std@@@2@@std@@QEAA@XZ ; std::vector<std::_List_unchecked_iterator<std::_List_val<std::_List_simple_types<std::pair<Card const ,int> > > >,std::_Wrap_alloc<std::allocator<std::_List_unchecked_iterator<std::_List_val<std::_List_simple_types<std::pair<Card const ,int> > > > > > >::~vector<std::_List_unchecked_iterator<std::_List_val<std::_List_simple_types<std::pair<Card const ,int> > > >,std::_Wrap_alloc<std::allocator<std::_List_unchecked_iterator<std::_List_val<std::_List_simple_types<std::pair<Card const ,int> > > > > > >
PUBLIC	??1?$_String_val@U?$_Simple_types@D@std@@@std@@QEAA@XZ ; std::_String_val<std::_Simple_types<char> >::~_String_val<std::_Simple_types<char> >
PUBLIC	??1?$_Compressed_pair@U?$_Wrap_alloc@V?$allocator@D@std@@@std@@V?$_String_val@U?$_Simple_types@D@std@@@2@$00@std@@QEAA@XZ ; std::_Compressed_pair<std::_Wrap_alloc<std::allocator<char> >,std::_String_val<std::_Simple_types<char> >,1>::~_Compressed_pair<std::_Wrap_alloc<std::allocator<char> >,std::_String_val<std::_Simple_types<char> >,1>
PUBLIC	??1?$_String_alloc@U?$_String_base_types@DV?$allocator@D@std@@@std@@@std@@QEAA@XZ ; std::_String_alloc<std::_String_base_types<char,std::allocator<char> > >::~_String_alloc<std::_String_base_types<char,std::allocator<char> > >
PUBLIC	??0?$allocator@D@std@@QEAA@XZ			; std::allocator<char>::allocator<char>
PUBLIC	??0?$basic_string@DU?$char_traits@D@std@@V?$allocator@D@2@@std@@QEAA@XZ ; std::basic_string<char,std::char_traits<char>,std::allocator<char> >::basic_string<char,std::char_traits<char>,std::allocator<char> >
PUBLIC	??0?$basic_string@DU?$char_traits@D@std@@V?$allocator@D@2@@std@@QEAA@QEBD@Z ; std::basic_string<char,std::char_traits<char>,std::allocator<char> >::basic_string<char,std::char_traits<char>,std::allocator<char> >
PUBLIC	??0?$basic_string@DU?$char_traits@D@std@@V?$allocator@D@2@@std@@QEAA@$$QEAV01@@Z ; std::basic_string<char,std::char_traits<char>,std::allocator<char> >::basic_string<char,std::char_traits<char>,std::allocator<char> >
PUBLIC	??1?$basic_string@DU?$char_traits@D@std@@V?$allocator@D@2@@std@@QEAA@XZ ; std::basic_string<char,std::char_traits<char>,std::allocator<char> >::~basic_string<char,std::char_traits<char>,std::allocator<char> >
PUBLIC	?c_str@?$basic_string@DU?$char_traits@D@std@@V?$allocator@D@2@@std@@QEBAPEBDXZ ; std::basic_string<char,std::char_traits<char>,std::allocator<char> >::c_str
PUBLIC	??0?$vector@DV?$allocator@D@std@@@std@@QEAA@XZ	; std::vector<char,std::allocator<char> >::vector<char,std::allocator<char> >
PUBLIC	??0?$vector@DV?$allocator@D@std@@@std@@QEAA@_KAEBV?$allocator@D@1@@Z ; std::vector<char,std::allocator<char> >::vector<char,std::allocator<char> >
PUBLIC	??0?$vector@DV?$allocator@D@std@@@std@@QEAA@$$QEAV01@@Z ; std::vector<char,std::allocator<char> >::vector<char,std::allocator<char> >
PUBLIC	??4?$vector@DV?$allocator@D@std@@@std@@QEAAAEAV01@$$QEAV01@@Z ; std::vector<char,std::allocator<char> >::operator=
PUBLIC	??1?$vector@DV?$allocator@D@std@@@std@@QEAA@XZ	; std::vector<char,std::allocator<char> >::~vector<char,std::allocator<char> >
PUBLIC	?reserve@?$vector@DV?$allocator@D@std@@@std@@QEAAX_K@Z ; std::vector<char,std::allocator<char> >::reserve
PUBLIC	?data@?$vector@DV?$allocator@D@std@@@std@@QEAAPEADXZ ; std::vector<char,std::allocator<char> >::data
PUBLIC	?size@?$vector@DV?$allocator@D@std@@@std@@QEBA_KXZ ; std::vector<char,std::allocator<char> >::size
PUBLIC	??A?$array@D$04@std@@QEAAAEAD_K@Z		; std::array<char,5>::operator[]
PUBLIC	??A?$array@D$06@std@@QEAAAEAD_K@Z		; std::array<char,7>::operator[]
PUBLIC	??0?$vector@UCard@@V?$allocator@UCard@@@std@@@std@@QEAA@XZ ; std::vector<Card,std::allocator<Card> >::vector<Card,std::allocator<Card> >
PUBLIC	??0?$vector@UCard@@V?$allocator@UCard@@@std@@@std@@QEAA@$$QEAV01@@Z ; std::vector<Card,std::allocator<Card> >::vector<Card,std::allocator<Card> >
PUBLIC	??1?$vector@UCard@@V?$allocator@UCard@@@std@@@std@@QEAA@XZ ; std::vector<Card,std::allocator<Card> >::~vector<Card,std::allocator<Card> >
PUBLIC	?push_back@?$vector@UCard@@V?$allocator@UCard@@@std@@@std@@QEAAXAEBUCard@@@Z ; std::vector<Card,std::allocator<Card> >::push_back
PUBLIC	?reserve@?$vector@UCard@@V?$allocator@UCard@@@std@@@std@@QEAAX_K@Z ; std::vector<Card,std::allocator<Card> >::reserve
PUBLIC	?begin@?$vector@UCard@@V?$allocator@UCard@@@std@@@std@@QEAA?AV?$_Vector_iterator@V?$_Vector_val@U?$_Simple_types@UCard@@@std@@@std@@@2@XZ ; std::vector<Card,std::allocator<Card> >::begin
PUBLIC	?end@?$vector@UCard@@V?$allocator@UCard@@@std@@@std@@QEAA?AV?$_Vector_iterator@V?$_Vector_val@U?$_Simple_types@UCard@@@std@@@std@@@2@XZ ; std::vector<Card,std::allocator<Card> >::end
PUBLIC	??0?$Span@D@myio@@QEAA@PEBD_K@Z			; myio::Span<char>::Span<char>
PUBLIC	?begin@?$Span@D@myio@@QEBAPEBDXZ		; myio::Span<char>::begin
PUBLIC	?length@?$Span@D@myio@@QEBA_KXZ			; myio::Span<char>::length
PUBLIC	??D?$_Vector_iterator@V?$_Vector_val@U?$_Simple_types@UCard@@@std@@@std@@@std@@QEBAAEAUCard@@XZ ; std::_Vector_iterator<std::_Vector_val<std::_Simple_types<Card> > >::operator*
PUBLIC	??E?$_Vector_iterator@V?$_Vector_val@U?$_Simple_types@UCard@@@std@@@std@@@std@@QEAAAEAV01@XZ ; std::_Vector_iterator<std::_Vector_val<std::_Simple_types<Card> > >::operator++
PUBLIC	??9?$_Vector_const_iterator@V?$_Vector_val@U?$_Simple_types@UCard@@@std@@@std@@@std@@QEBA_NAEBV01@@Z ; std::_Vector_const_iterator<std::_Vector_val<std::_Simple_types<Card> > >::operator!=
PUBLIC	??0?$unordered_map@$$CBUCard@@HUCardHash@@U?$equal_to@$$CBUCard@@@std@@V?$allocator@U?$pair@$$CBUCard@@H@std@@@4@@std@@QEAA@XZ ; std::unordered_map<Card const ,int,CardHash,std::equal_to<Card const >,std::allocator<std::pair<Card const ,int> > >::unordered_map<Card const ,int,CardHash,std::equal_to<Card const >,std::allocator<std::pair<Card const ,int> > >
PUBLIC	??A?$unordered_map@$$CBUCard@@HUCardHash@@U?$equal_to@$$CBUCard@@@std@@V?$allocator@U?$pair@$$CBUCard@@H@std@@@4@@std@@QEAAAEAHAEBUCard@@@Z ; std::unordered_map<Card const ,int,CardHash,std::equal_to<Card const >,std::allocator<std::pair<Card const ,int> > >::operator[]
PUBLIC	??1?$_Hash@V?$_Umap_traits@$$CBUCard@@HV?$_Uhash_compare@$$CBUCard@@UCardHash@@U?$equal_to@$$CBUCard@@@std@@@std@@V?$allocator@U?$pair@$$CBUCard@@H@std@@@3@$0A@@std@@@std@@QEAA@XZ ; std::_Hash<std::_Umap_traits<Card const ,int,std::_Uhash_compare<Card const ,CardHash,std::equal_to<Card const > >,std::allocator<std::pair<Card const ,int> >,0> >::~_Hash<std::_Umap_traits<Card const ,int,std::_Uhash_compare<Card const ,CardHash,std::equal_to<Card const > >,std::allocator<std::pair<Card const ,int> >,0> >
PUBLIC	?begin@?$_Hash@V?$_Umap_traits@$$CBUCard@@HV?$_Uhash_compare@$$CBUCard@@UCardHash@@U?$equal_to@$$CBUCard@@@std@@@std@@V?$allocator@U?$pair@$$CBUCard@@H@std@@@3@$0A@@std@@@std@@QEAA?AV?$_List_iterator@V?$_List_val@U?$_List_simple_types@U?$pair@$$CBUCard@@H@std@@@std@@@std@@@2@XZ ; std::_Hash<std::_Umap_traits<Card const ,int,std::_Uhash_compare<Card const ,CardHash,std::equal_to<Card const > >,std::allocator<std::pair<Card const ,int> >,0> >::begin
PUBLIC	?end@?$_Hash@V?$_Umap_traits@$$CBUCard@@HV?$_Uhash_compare@$$CBUCard@@UCardHash@@U?$equal_to@$$CBUCard@@@std@@@std@@V?$allocator@U?$pair@$$CBUCard@@H@std@@@3@$0A@@std@@@std@@QEAA?AV?$_List_iterator@V?$_List_val@U?$_List_simple_types@U?$pair@$$CBUCard@@H@std@@@std@@@std@@@2@XZ ; std::_Hash<std::_Umap_traits<Card const ,int,std::_Uhash_compare<Card const ,CardHash,std::equal_to<Card const > >,std::allocator<std::pair<Card const ,int> >,0> >::end
PUBLIC	??9?$_List_const_iterator@V?$_List_val@U?$_List_simple_types@U?$pair@$$CBUCard@@H@std@@@std@@@std@@@std@@QEBA_NAEBV01@@Z ; std::_List_const_iterator<std::_List_val<std::_List_simple_types<std::pair<Card const ,int> > > >::operator!=
PUBLIC	??D?$_List_iterator@V?$_List_val@U?$_List_simple_types@U?$pair@$$CBUCard@@H@std@@@std@@@std@@@std@@QEBAAEAU?$pair@$$CBUCard@@H@1@XZ ; std::_List_iterator<std::_List_val<std::_List_simple_types<std::pair<Card const ,int> > > >::operator*
PUBLIC	??E?$_List_iterator@V?$_List_val@U?$_List_simple_types@U?$pair@$$CBUCard@@H@std@@@std@@@std@@@std@@QEAAAEAV01@XZ ; std::_List_iterator<std::_List_val<std::_List_simple_types<std::pair<Card const ,int> > > >::operator++
PUBLIC	??1?$unordered_map@$$CBUCard@@HUCardHash@@U?$equal_to@$$CBUCard@@@std@@V?$allocator@U?$pair@$$CBUCard@@H@std@@@4@@std@@QEAA@XZ ; std::unordered_map<Card const ,int,CardHash,std::equal_to<Card const >,std::allocator<std::pair<Card const ,int> > >::~unordered_map<Card const ,int,CardHash,std::equal_to<Card const >,std::allocator<std::pair<Card const ,int> > >
PUBLIC	main
PUBLIC	?toString@@YA?AV?$basic_string@DU?$char_traits@D@std@@V?$allocator@D@2@@std@@AEBUCard@@@Z ; toString
PUBLIC	?read_cards@@YA?AV?$vector@UCard@@V?$allocator@UCard@@@std@@@std@@AEBV?$Span@D@myio@@@Z ; read_cards
PUBLIC	??9@YA_NAEBUCard@@0@Z				; operator!=
PUBLIC	??8@YA_NAEBUCard@@0@Z				; operator==
PUBLIC	??RCardHash@@QEBAHAEBUCard@@@Z			; CardHash::operator()
PUBLIC	?Invalid@Card@@SA?AU1@XZ			; Card::Invalid
PUBLIC	??0Card@@QEAA@W4Suit@@W4Face@@@Z		; Card::Card
PUBLIC	?toChar@@YADW4Face@@@Z				; toChar
PUBLIC	?toChar@@YADW4Suit@@@Z				; toChar
PUBLIC	??0?$tuple@$$V@std@@QEAA@AEBV01@@Z		; std::tuple<>::tuple<>
PUBLIC	??0?$tuple@$$V@std@@QEAA@XZ			; std::tuple<>::tuple<>
PUBLIC	?read_all_bytes@myio@@YA?AV?$vector@DV?$allocator@D@std@@@std@@V?$basic_string@DU?$char_traits@D@std@@V?$allocator@D@2@@3@@Z ; myio::read_all_bytes
PUBLIC	?read_all_bytes@myio@@YA?AV?$vector@DV?$allocator@D@std@@@std@@AEAVCFile@1@@Z ; myio::read_all_bytes
PUBLIC	?error@CFile@myio@@QEBA_NXZ			; myio::CFile::error
PUBLIC	?eof@CFile@myio@@QEBA_NXZ			; myio::CFile::eof
PUBLIC	?bad@CFile@myio@@QEBA_NXZ			; myio::CFile::bad
PUBLIC	?read@CFile@myio@@QEAA_KPEAD_K1@Z		; myio::CFile::read
PUBLIC	?tell@CFile@myio@@QEBA_KXZ			; myio::CFile::tell
PUBLIC	?seek@CFile@myio@@QEAA_NJW4Seek@2@@Z		; myio::CFile::seek
PUBLIC	??1CFile@myio@@QEAA@XZ				; myio::CFile::~CFile
PUBLIC	??0CFile@myio@@QEAA@PEBD0@Z			; myio::CFile::CFile
PUBLIC	??0CFile@myio@@QEAA@PEAU_iobuf@@_N@Z		; myio::CFile::CFile
PUBLIC	??0runtime_error@std@@QEAA@AEBV01@@Z		; std::runtime_error::runtime_error
PUBLIC	??1runtime_error@std@@UEAA@XZ			; std::runtime_error::~runtime_error
PUBLIC	??_Gruntime_error@std@@UEAAPEAXI@Z		; std::runtime_error::`scalar deleting destructor'
PUBLIC	??0runtime_error@std@@QEAA@PEBD@Z		; std::runtime_error::runtime_error
PUBLIC	?_Deallocate@std@@YAXPEAX_K1@Z			; std::_Deallocate
PUBLIC	?_Allocate@std@@YAPEAX_K0_N@Z			; std::_Allocate
PUBLIC	?_Getcont@_Iterator_base0@std@@QEBAPEBU_Container_base0@2@XZ ; std::_Iterator_base0::_Getcont
PUBLIC	?_Adopt@_Iterator_base0@std@@QEAAXPEBX@Z	; std::_Iterator_base0::_Adopt
PUBLIC	?_Swap_all@_Container_base0@std@@QEAAXAEAU12@@Z	; std::_Container_base0::_Swap_all
PUBLIC	?_Orphan_all@_Container_base0@std@@QEAAXXZ	; std::_Container_base0::_Orphan_all
PUBLIC	?assign@?$char_traits@D@std@@SAXAEADAEBD@Z	; std::char_traits<char>::assign
PUBLIC	?move@?$char_traits@D@std@@SAPEADQEADQEBD_K@Z	; std::char_traits<char>::move
PUBLIC	?copy@?$char_traits@D@std@@SAPEADQEADQEBD_K@Z	; std::char_traits<char>::copy
PUBLIC	?length@?$char_traits@D@std@@SA_KQEBD@Z		; std::char_traits<char>::length
PUBLIC	?compare@?$char_traits@D@std@@SAHQEBD0_K@Z	; std::char_traits<char>::compare
PUBLIC	??3@YAXPEAX0@Z					; operator delete
PUBLIC	??2@YAPEAX_KPEAX@Z				; operator new
PUBLIC	??_Gexception@std@@UEAAPEAXI@Z			; std::exception::`scalar deleting destructor'
PUBLIC	?what@exception@std@@UEBAPEBDXZ			; std::exception::what
PUBLIC	??1exception@std@@UEAA@XZ			; std::exception::~exception
PUBLIC	??0exception@std@@QEAA@AEBV01@@Z		; std::exception::exception
PUBLIC	??0exception@std@@QEAA@QEBD@Z			; std::exception::exception
PUBLIC	printf
PUBLIC	fprintf
PUBLIC	_vfprintf_l
PUBLIC	__local_stdio_printf_options
PUBLIC	?_OptionsStorage@?1??__local_stdio_printf_options@@9@4_KA ; `__local_stdio_printf_options'::`2'::_OptionsStorage
PUBLIC	__real@3f800000
PUBLIC	__real@5f800000
EXTRN	??_Eexception@std@@UEAAPEAXI@Z:PROC		; std::exception::`vector deleting destructor'
EXTRN	??_Eruntime_error@std@@UEAAPEAXI@Z:PROC		; std::runtime_error::`vector deleting destructor'
EXTRN	_CxxThrowException:PROC
EXTRN	__GSHandlerCheck:PROC
EXTRN	__GSHandlerCheck_EH:PROC
EXTRN	memcmp:PROC
EXTRN	memcpy:PROC
EXTRN	memset:PROC
EXTRN	__ImageBase:BYTE
EXTRN	__security_cookie:QWORD
EXTRN	_fltused:DWORD
;	COMDAT ?_OptionsStorage@?1??__local_stdio_printf_options@@9@4_KA
_BSS	SEGMENT
?_OptionsStorage@?1??__local_stdio_printf_options@@9@4_KA DQ 01H DUP (?) ; `__local_stdio_printf_options'::`2'::_OptionsStorage
_BSS	ENDS
;	COMDAT pdata
pdata	SEGMENT
$pdata$??$_Copy_memmove@PEBDPEAD@std@@YAPEADPEBD0PEAD@Z DD imagerel $LN4
	DD	imagerel $LN4+48
	DD	imagerel $unwind$??$_Copy_memmove@PEBDPEAD@std@@YAPEADPEBD0PEAD@Z
pdata	ENDS
;	COMDAT pdata
pdata	SEGMENT
$pdata$??$_Buynode@AEBUpiecewise_construct_t@std@@V?$tuple@AEBUCard@@@2@V?$tuple@$$V@2@@?$_List_buy@U?$pair@$$CBUCard@@H@std@@V?$allocator@U?$pair@$$CBUCard@@H@std@@@2@@std@@QEAAPEAU?$_List_node@U?$pair@$$CBUCard@@H@std@@PEAX@1@PEAU21@0AEBUpiecewise_construct_t@1@$$QEAV?$tuple@AEBUCard@@@1@$$QEAV?$tuple@$$V@1@@Z DD imagerel $LN90
	DD	imagerel $LN90+46
	DD	imagerel $unwind$??$_Buynode@AEBUpiecewise_construct_t@std@@V?$tuple@AEBUCard@@@2@V?$tuple@$$V@2@@?$_List_buy@U?$pair@$$CBUCard@@H@std@@V?$allocator@U?$pair@$$CBUCard@@H@std@@@2@@std@@QEAAPEAU?$_List_node@U?$pair@$$CBUCard@@H@std@@PEAX@1@PEAU21@0AEBUpiecewise_construct_t@1@$$QEAV?$tuple@AEBUCard@@@1@$$QEAV?$tuple@$$V@1@@Z
pdata	ENDS
;	COMDAT pdata
pdata	SEGMENT
$pdata$??$_Uninitialized_copy_al_unchecked1@$$CBDDV?$allocator@D@std@@@std@@YAPEADPEBD0PEADAEAU?$_Wrap_alloc@V?$allocator@D@std@@@0@U_Really_trivial_ptr_iterator_tag@0@U?$integral_constant@_N$00@0@@Z DD imagerel $LN6
	DD	imagerel $LN6+48
	DD	imagerel $unwind$??$_Uninitialized_copy_al_unchecked1@$$CBDDV?$allocator@D@std@@@std@@YAPEADPEBD0PEADAEAU?$_Wrap_alloc@V?$allocator@D@std@@@0@U_Really_trivial_ptr_iterator_tag@0@U?$integral_constant@_N$00@0@@Z
pdata	ENDS
;	COMDAT pdata
pdata	SEGMENT
$pdata$?_Incsize@?$list@U?$pair@$$CBUCard@@H@std@@V?$allocator@U?$pair@$$CBUCard@@H@std@@@2@@std@@QEAAX_K@Z DD imagerel $LN43
	DD	imagerel $LN43+53
	DD	imagerel $unwind$?_Incsize@?$list@U?$pair@$$CBUCard@@H@std@@V?$allocator@U?$pair@$$CBUCard@@H@std@@@2@@std@@QEAAX_K@Z
pdata	ENDS
;	COMDAT pdata
pdata	SEGMENT
$pdata$??$_Insert@AEBUpiecewise_construct_t@std@@V?$tuple@AEBUCard@@@2@V?$tuple@$$V@2@@?$list@U?$pair@$$CBUCard@@H@std@@V?$allocator@U?$pair@$$CBUCard@@H@std@@@2@@std@@QEAAXV?$_List_unchecked_const_iterator@V?$_List_val@U?$_List_simple_types@U?$pair@$$CBUCard@@H@std@@@std@@@std@@U_Iterator_base0@2@@1@AEBUpiecewise_construct_t@1@$$QEAV?$tuple@AEBUCard@@@1@$$QEAV?$tuple@$$V@1@@Z DD imagerel $LN73
	DD	imagerel $LN73+98
	DD	imagerel $unwind$??$_Insert@AEBUpiecewise_construct_t@std@@V?$tuple@AEBUCard@@@2@V?$tuple@$$V@2@@?$list@U?$pair@$$CBUCard@@H@std@@V?$allocator@U?$pair@$$CBUCard@@H@std@@@2@@std@@QEAAXV?$_List_unchecked_const_iterator@V?$_List_val@U?$_List_simple_types@U?$pair@$$CBUCard@@H@std@@@std@@@std@@U_Iterator_base0@2@@1@AEBUpiecewise_construct_t@1@$$QEAV?$tuple@AEBUCard@@@1@$$QEAV?$tuple@$$V@1@@Z
pdata	ENDS
;	COMDAT pdata
pdata	SEGMENT
$pdata$??$_Uninitialized_copy_al_unchecked@PEBDPEADV?$allocator@D@std@@@std@@YAPEADPEBD0PEADAEAU?$_Wrap_alloc@V?$allocator@D@std@@@0@@Z DD imagerel $LN10
	DD	imagerel $LN10+48
	DD	imagerel $unwind$??$_Uninitialized_copy_al_unchecked@PEBDPEADV?$allocator@D@std@@@std@@YAPEADPEBD0PEADAEAU?$_Wrap_alloc@V?$allocator@D@std@@@0@@Z
pdata	ENDS
;	COMDAT pdata
pdata	SEGMENT
$pdata$?_Reinsert@?$_Hash@V?$_Umap_traits@$$CBUCard@@HV?$_Uhash_compare@$$CBUCard@@UCardHash@@U?$equal_to@$$CBUCard@@@std@@@std@@V?$allocator@U?$pair@$$CBUCard@@H@std@@@3@$0A@@std@@@std@@IEAAXXZ DD imagerel $LN114
	DD	imagerel $LN114+18
	DD	imagerel $unwind$?_Reinsert@?$_Hash@V?$_Umap_traits@$$CBUCard@@HV?$_Uhash_compare@$$CBUCard@@UCardHash@@U?$equal_to@$$CBUCard@@@std@@@std@@V?$allocator@U?$pair@$$CBUCard@@H@std@@@3@$0A@@std@@@std@@IEAAXXZ
pdata	ENDS
;	COMDAT pdata
pdata	SEGMENT
$pdata$1$?_Reinsert@?$_Hash@V?$_Umap_traits@$$CBUCard@@HV?$_Uhash_compare@$$CBUCard@@UCardHash@@U?$equal_to@$$CBUCard@@@std@@@std@@V?$allocator@U?$pair@$$CBUCard@@H@std@@@3@$0A@@std@@@std@@IEAAXXZ DD imagerel $LN114+18
	DD	imagerel $LN114+74
	DD	imagerel $chain$1$?_Reinsert@?$_Hash@V?$_Umap_traits@$$CBUCard@@HV?$_Uhash_compare@$$CBUCard@@UCardHash@@U?$equal_to@$$CBUCard@@@std@@@std@@V?$allocator@U?$pair@$$CBUCard@@H@std@@@3@$0A@@std@@@std@@IEAAXXZ
pdata	ENDS
;	COMDAT pdata
pdata	SEGMENT
$pdata$2$?_Reinsert@?$_Hash@V?$_Umap_traits@$$CBUCard@@HV?$_Uhash_compare@$$CBUCard@@UCardHash@@U?$equal_to@$$CBUCard@@@std@@@std@@V?$allocator@U?$pair@$$CBUCard@@H@std@@@3@$0A@@std@@@std@@IEAAXXZ DD imagerel $LN114+74
	DD	imagerel $LN114+80
	DD	imagerel $chain$2$?_Reinsert@?$_Hash@V?$_Umap_traits@$$CBUCard@@HV?$_Uhash_compare@$$CBUCard@@UCardHash@@U?$equal_to@$$CBUCard@@@std@@@std@@V?$allocator@U?$pair@$$CBUCard@@H@std@@@3@$0A@@std@@@std@@IEAAXXZ
pdata	ENDS
;	COMDAT pdata
pdata	SEGMENT
$pdata$?erase@?$list@U?$pair@$$CBUCard@@H@std@@V?$allocator@U?$pair@$$CBUCard@@H@std@@@2@@std@@QEAA?AV?$_List_iterator@V?$_List_val@U?$_List_simple_types@U?$pair@$$CBUCard@@H@std@@@std@@@std@@@2@V?$_List_const_iterator@V?$_List_val@U?$_List_simple_types@U?$pair@$$CBUCard@@H@std@@@std@@@std@@@2@@Z DD imagerel $LN127
	DD	imagerel $LN127+63
	DD	imagerel $unwind$?erase@?$list@U?$pair@$$CBUCard@@H@std@@V?$allocator@U?$pair@$$CBUCard@@H@std@@@2@@std@@QEAA?AV?$_List_iterator@V?$_List_val@U?$_List_simple_types@U?$pair@$$CBUCard@@H@std@@@std@@@std@@@2@V?$_List_const_iterator@V?$_List_val@U?$_List_simple_types@U?$pair@$$CBUCard@@H@std@@@std@@@std@@@2@@Z
pdata	ENDS
;	COMDAT pdata
pdata	SEGMENT
$pdata$?erase@?$_Hash@V?$_Umap_traits@$$CBUCard@@HV?$_Uhash_compare@$$CBUCard@@UCardHash@@U?$equal_to@$$CBUCard@@@std@@@std@@V?$allocator@U?$pair@$$CBUCard@@H@std@@@3@$0A@@std@@@std@@QEAA?AV?$_List_iterator@V?$_List_val@U?$_List_simple_types@U?$pair@$$CBUCard@@H@std@@@std@@@std@@@2@V?$_List_const_iterator@V?$_List_val@U?$_List_simple_types@U?$pair@$$CBUCard@@H@std@@@std@@@std@@@2@@Z DD imagerel $LN343
	DD	imagerel $LN343+152
	DD	imagerel $unwind$?erase@?$_Hash@V?$_Umap_traits@$$CBUCard@@HV?$_Uhash_compare@$$CBUCard@@UCardHash@@U?$equal_to@$$CBUCard@@@std@@@std@@V?$allocator@U?$pair@$$CBUCard@@H@std@@@3@$0A@@std@@@std@@QEAA?AV?$_List_iterator@V?$_List_val@U?$_List_simple_types@U?$pair@$$CBUCard@@H@std@@@std@@@std@@@2@V?$_List_const_iterator@V?$_List_val@U?$_List_simple_types@U?$pair@$$CBUCard@@H@std@@@std@@@std@@@2@@Z
pdata	ENDS
;	COMDAT pdata
pdata	SEGMENT
$pdata$?_Check_size@?$_Hash@V?$_Umap_traits@$$CBUCard@@HV?$_Uhash_compare@$$CBUCard@@UCardHash@@U?$equal_to@$$CBUCard@@@std@@@std@@V?$allocator@U?$pair@$$CBUCard@@H@std@@@3@$0A@@std@@@std@@IEAAXXZ DD imagerel $LN188
	DD	imagerel $LN188+119
	DD	imagerel $unwind$?_Check_size@?$_Hash@V?$_Umap_traits@$$CBUCard@@HV?$_Uhash_compare@$$CBUCard@@UCardHash@@U?$equal_to@$$CBUCard@@@std@@@std@@V?$allocator@U?$pair@$$CBUCard@@H@std@@@3@$0A@@std@@@std@@IEAAXXZ
pdata	ENDS
;	COMDAT pdata
pdata	SEGMENT
$pdata$1$?_Check_size@?$_Hash@V?$_Umap_traits@$$CBUCard@@HV?$_Uhash_compare@$$CBUCard@@UCardHash@@U?$equal_to@$$CBUCard@@@std@@@std@@V?$allocator@U?$pair@$$CBUCard@@H@std@@@3@$0A@@std@@@std@@IEAAXXZ DD imagerel $LN188+119
	DD	imagerel $LN188+186
	DD	imagerel $chain$1$?_Check_size@?$_Hash@V?$_Umap_traits@$$CBUCard@@HV?$_Uhash_compare@$$CBUCard@@UCardHash@@U?$equal_to@$$CBUCard@@@std@@@std@@V?$allocator@U?$pair@$$CBUCard@@H@std@@@3@$0A@@std@@@std@@IEAAXXZ
pdata	ENDS
;	COMDAT pdata
pdata	SEGMENT
$pdata$2$?_Check_size@?$_Hash@V?$_Umap_traits@$$CBUCard@@HV?$_Uhash_compare@$$CBUCard@@UCardHash@@U?$equal_to@$$CBUCard@@@std@@@std@@V?$allocator@U?$pair@$$CBUCard@@H@std@@@3@$0A@@std@@@std@@IEAAXXZ DD imagerel $LN188+186
	DD	imagerel $LN188+192
	DD	imagerel $chain$2$?_Check_size@?$_Hash@V?$_Umap_traits@$$CBUCard@@HV?$_Uhash_compare@$$CBUCard@@UCardHash@@U?$equal_to@$$CBUCard@@@std@@@std@@V?$allocator@U?$pair@$$CBUCard@@H@std@@@3@$0A@@std@@@std@@IEAAXXZ
pdata	ENDS
;	COMDAT pdata
pdata	SEGMENT
$pdata$??$_Copy_memmove@PEADPEAD@std@@YAPEADPEAD00@Z DD imagerel $LN4
	DD	imagerel $LN4+48
	DD	imagerel $unwind$??$_Copy_memmove@PEADPEAD@std@@YAPEADPEAD00@Z
pdata	ENDS
;	COMDAT pdata
pdata	SEGMENT
$pdata$??$_Insert@AEAU?$pair@$$CBUCard@@H@std@@V?$_List_unchecked_iterator@V?$_List_val@U?$_List_simple_types@U?$pair@$$CBUCard@@H@std@@@std@@@std@@@2@@?$_Hash@V?$_Umap_traits@$$CBUCard@@HV?$_Uhash_compare@$$CBUCard@@UCardHash@@U?$equal_to@$$CBUCard@@@std@@@std@@V?$allocator@U?$pair@$$CBUCard@@H@std@@@3@$0A@@std@@@std@@IEAA?AU?$pair@V?$_List_iterator@V?$_List_val@U?$_List_simple_types@U?$pair@$$CBUCard@@H@std@@@std@@@std@@@std@@_N@1@AEAU?$pair@$$CBUCard@@H@1@V?$_List_unchecked_iterator@V?$_List_val@U?$_List_simple_types@U?$pair@$$CBUCard@@H@std@@@std@@@std@@@1@@Z DD imagerel $LN626
	DD	imagerel $LN626+317
	DD	imagerel $unwind$??$_Insert@AEAU?$pair@$$CBUCard@@H@std@@V?$_List_unchecked_iterator@V?$_List_val@U?$_List_simple_types@U?$pair@$$CBUCard@@H@std@@@std@@@std@@@2@@?$_Hash@V?$_Umap_traits@$$CBUCard@@HV?$_Uhash_compare@$$CBUCard@@UCardHash@@U?$equal_to@$$CBUCard@@@std@@@std@@V?$allocator@U?$pair@$$CBUCard@@H@std@@@3@$0A@@std@@@std@@IEAA?AU?$pair@V?$_List_iterator@V?$_List_val@U?$_List_simple_types@U?$pair@$$CBUCard@@H@std@@@std@@@std@@@std@@_N@1@AEAU?$pair@$$CBUCard@@H@1@V?$_List_unchecked_iterator@V?$_List_val@U?$_List_simple_types@U?$pair@$$CBUCard@@H@std@@@std@@@std@@@1@@Z
pdata	ENDS
;	COMDAT pdata
pdata	SEGMENT
$pdata$?catch$81@?0???$_Insert@AEAU?$pair@$$CBUCard@@H@std@@V?$_List_unchecked_iterator@V?$_List_val@U?$_List_simple_types@U?$pair@$$CBUCard@@H@std@@@std@@@std@@@2@@?$_Hash@V?$_Umap_traits@$$CBUCard@@HV?$_Uhash_compare@$$CBUCard@@UCardHash@@U?$equal_to@$$CBUCard@@@std@@@std@@V?$allocator@U?$pair@$$CBUCard@@H@std@@@3@$0A@@std@@@std@@IEAA?AU?$pair@V?$_List_iterator@V?$_List_val@U?$_List_simple_types@U?$pair@$$CBUCard@@H@std@@@std@@@std@@@std@@_N@1@AEAU?$pair@$$CBUCard@@H@1@V?$_List_unchecked_iterator@V?$_List_val@U?$_List_simple_types@U?$pair@$$CBUCard@@H@std@@@std@@@std@@@1@@Z@4HA DD imagerel ?catch$81@?0???$_Insert@AEAU?$pair@$$CBUCard@@H@std@@V?$_List_unchecked_iterator@V?$_List_val@U?$_List_simple_types@U?$pair@$$CBUCard@@H@std@@@std@@@std@@@2@@?$_Hash@V?$_Umap_traits@$$CBUCard@@HV?$_Uhash_compare@$$CBUCard@@UCardHash@@U?$equal_to@$$CBUCard@@@std@@@std@@V?$allocator@U?$pair@$$CBUCard@@H@std@@@3@$0A@@std@@@std@@IEAA?AU?$pair@V?$_List_iterator@V?$_List_val@U?$_List_simple_types@U?$pair@$$CBUCard@@H@std@@@std@@@std@@@std@@_N@1@AEAU?$pair@$$CBUCard@@H@1@V?$_List_unchecked_iterator@V?$_List_val@U?$_List_simple_types@U?$pair@$$CBUCard@@H@std@@@std@@@std@@@1@@Z@4HA
	DD	imagerel ?catch$81@?0???$_Insert@AEAU?$pair@$$CBUCard@@H@std@@V?$_List_unchecked_iterator@V?$_List_val@U?$_List_simple_types@U?$pair@$$CBUCard@@H@std@@@std@@@std@@@2@@?$_Hash@V?$_Umap_traits@$$CBUCard@@HV?$_Uhash_compare@$$CBUCard@@UCardHash@@U?$equal_to@$$CBUCard@@@std@@@std@@V?$allocator@U?$pair@$$CBUCard@@H@std@@@3@$0A@@std@@@std@@IEAA?AU?$pair@V?$_List_iterator@V?$_List_val@U?$_List_simple_types@U?$pair@$$CBUCard@@H@std@@@std@@@std@@@std@@_N@1@AEAU?$pair@$$CBUCard@@H@1@V?$_List_unchecked_iterator@V?$_List_val@U?$_List_simple_types@U?$pair@$$CBUCard@@H@std@@@std@@@std@@@1@@Z@4HA+52
	DD	imagerel $unwind$?catch$81@?0???$_Insert@AEAU?$pair@$$CBUCard@@H@std@@V?$_List_unchecked_iterator@V?$_List_val@U?$_List_simple_types@U?$pair@$$CBUCard@@H@std@@@std@@@std@@@2@@?$_Hash@V?$_Umap_traits@$$CBUCard@@HV?$_Uhash_compare@$$CBUCard@@UCardHash@@U?$equal_to@$$CBUCard@@@std@@@std@@V?$allocator@U?$pair@$$CBUCard@@H@std@@@3@$0A@@std@@@std@@IEAA?AU?$pair@V?$_List_iterator@V?$_List_val@U?$_List_simple_types@U?$pair@$$CBUCard@@H@std@@@std@@@std@@@std@@_N@1@AEAU?$pair@$$CBUCard@@H@1@V?$_List_unchecked_iterator@V?$_List_val@U?$_List_simple_types@U?$pair@$$CBUCard@@H@std@@@std@@@std@@@1@@Z@4HA
pdata	ENDS
;	COMDAT pdata
pdata	SEGMENT
$pdata$??$emplace_front@AEBUpiecewise_construct_t@std@@V?$tuple@AEBUCard@@@2@V?$tuple@$$V@2@@?$list@U?$pair@$$CBUCard@@H@std@@V?$allocator@U?$pair@$$CBUCard@@H@std@@@2@@std@@QEAAXAEBUpiecewise_construct_t@1@$$QEAV?$tuple@AEBUCard@@@1@$$QEAV?$tuple@$$V@1@@Z DD imagerel $LN112
	DD	imagerel $LN112+104
	DD	imagerel $unwind$??$emplace_front@AEBUpiecewise_construct_t@std@@V?$tuple@AEBUCard@@@2@V?$tuple@$$V@2@@?$list@U?$pair@$$CBUCard@@H@std@@V?$allocator@U?$pair@$$CBUCard@@H@std@@@2@@std@@QEAAXAEBUpiecewise_construct_t@1@$$QEAV?$tuple@AEBUCard@@@1@$$QEAV?$tuple@$$V@1@@Z
pdata	ENDS
;	COMDAT pdata
pdata	SEGMENT
$pdata$??$_Move_unchecked1@PEADPEAD@std@@YAPEADPEAD00U_Trivially_copyable_ptr_iterator_tag@0@@Z DD imagerel $LN6
	DD	imagerel $LN6+48
	DD	imagerel $unwind$??$_Move_unchecked1@PEADPEAD@std@@YAPEADPEAD00U_Trivially_copyable_ptr_iterator_tag@0@@Z
pdata	ENDS
;	COMDAT pdata
pdata	SEGMENT
$pdata$??$_Uninitialized_copy@PEBDPEADV?$allocator@D@std@@@std@@YAPEADPEBD0PEADAEAU?$_Wrap_alloc@V?$allocator@D@std@@@0@@Z DD imagerel $LN20
	DD	imagerel $LN20+48
	DD	imagerel $unwind$??$_Uninitialized_copy@PEBDPEADV?$allocator@D@std@@@std@@YAPEADPEBD0PEADAEAU?$_Wrap_alloc@V?$allocator@D@std@@@0@@Z
pdata	ENDS
;	COMDAT pdata
pdata	SEGMENT
$pdata$??$_Uninitialized_move_al_unchecked1@DDV?$allocator@D@std@@@std@@YAPEADPEAD00AEAU?$_Wrap_alloc@V?$allocator@D@std@@@0@U_Really_trivial_ptr_iterator_tag@0@U?$integral_constant@_N$00@0@@Z DD imagerel $LN6
	DD	imagerel $LN6+48
	DD	imagerel $unwind$??$_Uninitialized_move_al_unchecked1@DDV?$allocator@D@std@@@std@@YAPEADPEAD00AEAU?$_Wrap_alloc@V?$allocator@D@std@@@0@U_Really_trivial_ptr_iterator_tag@0@U?$integral_constant@_N$00@0@@Z
pdata	ENDS
;	COMDAT pdata
pdata	SEGMENT
$pdata$??$emplace@AEBUpiecewise_construct_t@std@@V?$tuple@AEBUCard@@@2@V?$tuple@$$V@2@@?$_Hash@V?$_Umap_traits@$$CBUCard@@HV?$_Uhash_compare@$$CBUCard@@UCardHash@@U?$equal_to@$$CBUCard@@@std@@@std@@V?$allocator@U?$pair@$$CBUCard@@H@std@@@3@$0A@@std@@@std@@QEAA?AU?$pair@V?$_List_iterator@V?$_List_val@U?$_List_simple_types@U?$pair@$$CBUCard@@H@std@@@std@@@std@@@std@@_N@1@AEBUpiecewise_construct_t@1@$$QEAV?$tuple@AEBUCard@@@1@$$QEAV?$tuple@$$V@1@@Z DD imagerel $LN191
	DD	imagerel $LN191+143
	DD	imagerel $unwind$??$emplace@AEBUpiecewise_construct_t@std@@V?$tuple@AEBUCard@@@2@V?$tuple@$$V@2@@?$_Hash@V?$_Umap_traits@$$CBUCard@@HV?$_Uhash_compare@$$CBUCard@@UCardHash@@U?$equal_to@$$CBUCard@@@std@@@std@@V?$allocator@U?$pair@$$CBUCard@@H@std@@@3@$0A@@std@@@std@@QEAA?AU?$pair@V?$_List_iterator@V?$_List_val@U?$_List_simple_types@U?$pair@$$CBUCard@@H@std@@@std@@@std@@@std@@_N@1@AEBUpiecewise_construct_t@1@$$QEAV?$tuple@AEBUCard@@@1@$$QEAV?$tuple@$$V@1@@Z
pdata	ENDS
;	COMDAT pdata
pdata	SEGMENT
$pdata$??$_Move_unchecked@PEADPEAD@std@@YAPEADPEAD00@Z DD imagerel $LN10
	DD	imagerel $LN10+48
	DD	imagerel $unwind$??$_Move_unchecked@PEADPEAD@std@@YAPEADPEAD00@Z
pdata	ENDS
;	COMDAT pdata
pdata	SEGMENT
$pdata$??$_Ucopy@PEBD@?$vector@DV?$allocator@D@std@@@std@@AEAAPEADPEBD0PEAD@Z DD imagerel $LN28
	DD	imagerel $LN28+45
	DD	imagerel $unwind$??$_Ucopy@PEBD@?$vector@DV?$allocator@D@std@@@std@@AEAAPEADPEBD0PEAD@Z
pdata	ENDS
;	COMDAT pdata
pdata	SEGMENT
$pdata$?lower_bound@?$_Hash@V?$_Umap_traits@$$CBUCard@@HV?$_Uhash_compare@$$CBUCard@@UCardHash@@U?$equal_to@$$CBUCard@@@std@@@std@@V?$allocator@U?$pair@$$CBUCard@@H@std@@@3@$0A@@std@@@std@@QEAA?AV?$_List_iterator@V?$_List_val@U?$_List_simple_types@U?$pair@$$CBUCard@@H@std@@@std@@@std@@@2@AEBUCard@@@Z DD imagerel $LN271
	DD	imagerel $LN271+156
	DD	imagerel $unwind$?lower_bound@?$_Hash@V?$_Umap_traits@$$CBUCard@@HV?$_Uhash_compare@$$CBUCard@@UCardHash@@U?$equal_to@$$CBUCard@@@std@@@std@@V?$allocator@U?$pair@$$CBUCard@@H@std@@@3@$0A@@std@@@std@@QEAA?AV?$_List_iterator@V?$_List_val@U?$_List_simple_types@U?$pair@$$CBUCard@@H@std@@@std@@@std@@@2@AEBUCard@@@Z
pdata	ENDS
;	COMDAT pdata
pdata	SEGMENT
$pdata$?_Buynode0@?$_List_alloc@U?$_List_base_types@U?$pair@$$CBUCard@@H@std@@V?$allocator@U?$pair@$$CBUCard@@H@std@@@2@@std@@@std@@QEAAPEAU?$_List_node@U?$pair@$$CBUCard@@H@std@@PEAX@2@PEAU32@0@Z DD imagerel $LN96
	DD	imagerel $LN96+68
	DD	imagerel $unwind$?_Buynode0@?$_List_alloc@U?$_List_base_types@U?$pair@$$CBUCard@@H@std@@V?$allocator@U?$pair@$$CBUCard@@H@std@@@2@@std@@@std@@QEAAPEAU?$_List_node@U?$pair@$$CBUCard@@H@std@@PEAX@2@PEAU32@0@Z
pdata	ENDS
;	COMDAT pdata
pdata	SEGMENT
$pdata$?_Umove@?$vector@DV?$allocator@D@std@@@std@@AEAAPEADPEAD00@Z DD imagerel $LN28
	DD	imagerel $LN28+45
	DD	imagerel $unwind$?_Umove@?$vector@DV?$allocator@D@std@@@std@@AEAAPEADPEAD00@Z
pdata	ENDS
;	COMDAT pdata
pdata	SEGMENT
$pdata$?find@?$_Hash@V?$_Umap_traits@$$CBUCard@@HV?$_Uhash_compare@$$CBUCard@@UCardHash@@U?$equal_to@$$CBUCard@@@std@@@std@@V?$allocator@U?$pair@$$CBUCard@@H@std@@@3@$0A@@std@@@std@@QEAA?AV?$_List_iterator@V?$_List_val@U?$_List_simple_types@U?$pair@$$CBUCard@@H@std@@@std@@@std@@@2@AEBUCard@@@Z DD imagerel $LN4
	DD	imagerel $LN4+23
	DD	imagerel $unwind$?find@?$_Hash@V?$_Umap_traits@$$CBUCard@@HV?$_Uhash_compare@$$CBUCard@@UCardHash@@U?$equal_to@$$CBUCard@@@std@@@std@@V?$allocator@U?$pair@$$CBUCard@@H@std@@@3@$0A@@std@@@std@@QEAA?AV?$_List_iterator@V?$_List_val@U?$_List_simple_types@U?$pair@$$CBUCard@@H@std@@@std@@@std@@@2@AEBUCard@@@Z
pdata	ENDS
;	COMDAT pdata
pdata	SEGMENT
$pdata$??$_Traits_equal@U?$char_traits@D@std@@_K@std@@YA_NQEBD_K01@Z DD imagerel $LN9
	DD	imagerel $LN9+41
	DD	imagerel $unwind$??$_Traits_equal@U?$char_traits@D@std@@_K@std@@YA_NQEBD_K01@Z
pdata	ENDS
;	COMDAT pdata
pdata	SEGMENT
$pdata$??$_Uninitialized_move_al_unchecked@PEAV?$_List_unchecked_iterator@V?$_List_val@U?$_List_simple_types@U?$pair@$$CBUCard@@H@std@@@std@@@std@@@std@@PEAV12@U?$_Wrap_alloc@V?$allocator@V?$_List_unchecked_iterator@V?$_List_val@U?$_List_simple_types@U?$pair@$$CBUCard@@H@std@@@std@@@std@@@std@@@std@@@2@@std@@YAPEAV?$_List_unchecked_iterator@V?$_List_val@U?$_List_simple_types@U?$pair@$$CBUCard@@H@std@@@std@@@std@@@0@PEAV10@00AEAU?$_Wrap_alloc@U?$_Wrap_alloc@V?$allocator@V?$_List_unchecked_iterator@V?$_List_val@U?$_List_simple_types@U?$pair@$$CBUCard@@H@std@@@std@@@std@@@std@@@std@@@std@@@0@@Z DD imagerel $LN9
	DD	imagerel $LN9+14
	DD	imagerel $unwind$??$_Uninitialized_move_al_unchecked@PEAV?$_List_unchecked_iterator@V?$_List_val@U?$_List_simple_types@U?$pair@$$CBUCard@@H@std@@@std@@@std@@@std@@PEAV12@U?$_Wrap_alloc@V?$allocator@V?$_List_unchecked_iterator@V?$_List_val@U?$_List_simple_types@U?$pair@$$CBUCard@@H@std@@@std@@@std@@@std@@@std@@@2@@std@@YAPEAV?$_List_unchecked_iterator@V?$_List_val@U?$_List_simple_types@U?$pair@$$CBUCard@@H@std@@@std@@@std@@@0@PEAV10@00AEAU?$_Wrap_alloc@U?$_Wrap_alloc@V?$allocator@V?$_List_unchecked_iterator@V?$_List_val@U?$_List_simple_types@U?$pair@$$CBUCard@@H@std@@@std@@@std@@@std@@@std@@@std@@@0@@Z
pdata	ENDS
;	COMDAT pdata
pdata	SEGMENT
$pdata$??$_Uninitialized_move_al_unchecked@PEADPEADV?$allocator@D@std@@@std@@YAPEADPEAD00AEAU?$_Wrap_alloc@V?$allocator@D@std@@@0@@Z DD imagerel $LN10
	DD	imagerel $LN10+48
	DD	imagerel $unwind$??$_Uninitialized_move_al_unchecked@PEADPEADV?$allocator@D@std@@@std@@YAPEADPEAD00AEAU?$_Wrap_alloc@V?$allocator@D@std@@@0@@Z
pdata	ENDS
;	COMDAT pdata
pdata	SEGMENT
$pdata$??$_Uninitialized_move_al_unchecked@PEAUCard@@PEAU1@V?$allocator@UCard@@@std@@@std@@YAPEAUCard@@PEAU1@00AEAU?$_Wrap_alloc@V?$allocator@UCard@@@std@@@0@@Z DD imagerel $LN9
	DD	imagerel $LN9+14
	DD	imagerel $unwind$??$_Uninitialized_move_al_unchecked@PEAUCard@@PEAU1@V?$allocator@UCard@@@std@@@std@@YAPEAUCard@@PEAU1@00AEAU?$_Wrap_alloc@V?$allocator@UCard@@@std@@@0@@Z
pdata	ENDS
;	COMDAT pdata
pdata	SEGMENT
$pdata$??$_Fill_unchecked1@PEAV?$_List_unchecked_iterator@V?$_List_val@U?$_List_simple_types@U?$pair@$$CBUCard@@H@std@@@std@@@std@@@std@@V12@@std@@YAXPEAV?$_List_unchecked_iterator@V?$_List_val@U?$_List_simple_types@U?$pair@$$CBUCard@@H@std@@@std@@@std@@@0@0AEBV10@U?$integral_constant@_N$0A@@0@@Z DD imagerel $LN16
	DD	imagerel $LN16+63
	DD	imagerel $unwind$??$_Fill_unchecked1@PEAV?$_List_unchecked_iterator@V?$_List_val@U?$_List_simple_types@U?$pair@$$CBUCard@@H@std@@@std@@@std@@@std@@V12@@std@@YAXPEAV?$_List_unchecked_iterator@V?$_List_val@U?$_List_simple_types@U?$pair@$$CBUCard@@H@std@@@std@@@std@@@0@0AEBV10@U?$integral_constant@_N$0A@@0@@Z
pdata	ENDS
;	COMDAT pdata
pdata	SEGMENT
$pdata$0$??$_Fill_unchecked1@PEAV?$_List_unchecked_iterator@V?$_List_val@U?$_List_simple_types@U?$pair@$$CBUCard@@H@std@@@std@@@std@@@std@@V12@@std@@YAXPEAV?$_List_unchecked_iterator@V?$_List_val@U?$_List_simple_types@U?$pair@$$CBUCard@@H@std@@@std@@@std@@@0@0AEBV10@U?$integral_constant@_N$0A@@0@@Z DD imagerel $LN16+63
	DD	imagerel $LN16+114
	DD	imagerel $chain$0$??$_Fill_unchecked1@PEAV?$_List_unchecked_iterator@V?$_List_val@U?$_List_simple_types@U?$pair@$$CBUCard@@H@std@@@std@@@std@@@std@@V12@@std@@YAXPEAV?$_List_unchecked_iterator@V?$_List_val@U?$_List_simple_types@U?$pair@$$CBUCard@@H@std@@@std@@@std@@@0@0AEBV10@U?$integral_constant@_N$0A@@0@@Z
pdata	ENDS
;	COMDAT pdata
pdata	SEGMENT
$pdata$1$??$_Fill_unchecked1@PEAV?$_List_unchecked_iterator@V?$_List_val@U?$_List_simple_types@U?$pair@$$CBUCard@@H@std@@@std@@@std@@@std@@V12@@std@@YAXPEAV?$_List_unchecked_iterator@V?$_List_val@U?$_List_simple_types@U?$pair@$$CBUCard@@H@std@@@std@@@std@@@0@0AEBV10@U?$integral_constant@_N$0A@@0@@Z DD imagerel $LN16+114
	DD	imagerel $LN16+151
	DD	imagerel $chain$1$??$_Fill_unchecked1@PEAV?$_List_unchecked_iterator@V?$_List_val@U?$_List_simple_types@U?$pair@$$CBUCard@@H@std@@@std@@@std@@@std@@V12@@std@@YAXPEAV?$_List_unchecked_iterator@V?$_List_val@U?$_List_simple_types@U?$pair@$$CBUCard@@H@std@@@std@@@std@@@0@0AEBV10@U?$integral_constant@_N$0A@@0@@Z
pdata	ENDS
;	COMDAT pdata
pdata	SEGMENT
$pdata$??$?0AEBV?$allocator@U?$pair@$$CBUCard@@H@std@@@std@@X@?$_List_alloc@U?$_List_base_types@U?$pair@$$CBUCard@@H@std@@V?$allocator@U?$pair@$$CBUCard@@H@std@@@2@@std@@@std@@QEAA@AEBV?$allocator@U?$pair@$$CBUCard@@H@std@@@1@@Z DD imagerel $LN25
	DD	imagerel $LN25+40
	DD	imagerel $unwind$??$?0AEBV?$allocator@U?$pair@$$CBUCard@@H@std@@@std@@X@?$_List_alloc@U?$_List_base_types@U?$pair@$$CBUCard@@H@std@@V?$allocator@U?$pair@$$CBUCard@@H@std@@@2@@std@@@std@@QEAA@AEBV?$allocator@U?$pair@$$CBUCard@@H@std@@@1@@Z
pdata	ENDS
;	COMDAT pdata
pdata	SEGMENT
$pdata$??$_Uninitialized_default_fill_n1@PEAD_KV?$allocator@D@std@@@std@@YAPEADPEAD_KAEAU?$_Wrap_alloc@V?$allocator@D@std@@@0@U?$integral_constant@_N$00@0@@Z DD imagerel $LN4
	DD	imagerel $LN4+41
	DD	imagerel $unwind$??$_Uninitialized_default_fill_n1@PEAD_KV?$allocator@D@std@@@std@@YAPEADPEAD_KAEAU?$_Wrap_alloc@V?$allocator@D@std@@@0@U?$integral_constant@_N$00@0@@Z
pdata	ENDS
;	COMDAT pdata
pdata	SEGMENT
$pdata$??$_Try_emplace@AEBUCard@@$$V@?$unordered_map@$$CBUCard@@HUCardHash@@U?$equal_to@$$CBUCard@@@std@@V?$allocator@U?$pair@$$CBUCard@@H@std@@@4@@std@@QEAA?AU?$pair@V?$_List_iterator@V?$_List_val@U?$_List_simple_types@U?$pair@$$CBUCard@@H@std@@@std@@@std@@@std@@_N@1@AEBUCard@@@Z DD imagerel $LN347
	DD	imagerel $LN347+205
	DD	imagerel $unwind$??$_Try_emplace@AEBUCard@@$$V@?$unordered_map@$$CBUCard@@HUCardHash@@U?$equal_to@$$CBUCard@@@std@@V?$allocator@U?$pair@$$CBUCard@@H@std@@@4@@std@@QEAA?AU?$pair@V?$_List_iterator@V?$_List_val@U?$_List_simple_types@U?$pair@$$CBUCard@@H@std@@@std@@@std@@@std@@_N@1@AEBUCard@@@Z
pdata	ENDS
;	COMDAT pdata
pdata	SEGMENT
$pdata$??$_Insert_range@PEBD@?$vector@DV?$allocator@D@std@@@std@@AEAAXV?$_Vector_const_iterator@V?$_Vector_val@U?$_Simple_types@D@std@@@std@@@1@PEBD1Uforward_iterator_tag@1@@Z DD imagerel $LN460
	DD	imagerel $LN460+76
	DD	imagerel $unwind$??$_Insert_range@PEBD@?$vector@DV?$allocator@D@std@@@std@@AEAAXV?$_Vector_const_iterator@V?$_Vector_val@U?$_Simple_types@D@std@@@std@@@1@PEBD1Uforward_iterator_tag@1@@Z
pdata	ENDS
;	COMDAT pdata
pdata	SEGMENT
$pdata$1$??$_Insert_range@PEBD@?$vector@DV?$allocator@D@std@@@std@@AEAAXV?$_Vector_const_iterator@V?$_Vector_val@U?$_Simple_types@D@std@@@std@@@1@PEBD1Uforward_iterator_tag@1@@Z DD imagerel $LN460+76
	DD	imagerel $LN460+126
	DD	imagerel $chain$1$??$_Insert_range@PEBD@?$vector@DV?$allocator@D@std@@@std@@AEAAXV?$_Vector_const_iterator@V?$_Vector_val@U?$_Simple_types@D@std@@@std@@@1@PEBD1Uforward_iterator_tag@1@@Z
pdata	ENDS
;	COMDAT pdata
pdata	SEGMENT
$pdata$2$??$_Insert_range@PEBD@?$vector@DV?$allocator@D@std@@@std@@AEAAXV?$_Vector_const_iterator@V?$_Vector_val@U?$_Simple_types@D@std@@@std@@@1@PEBD1Uforward_iterator_tag@1@@Z DD imagerel $LN460+126
	DD	imagerel $LN460+284
	DD	imagerel $chain$2$??$_Insert_range@PEBD@?$vector@DV?$allocator@D@std@@@std@@AEAAXV?$_Vector_const_iterator@V?$_Vector_val@U?$_Simple_types@D@std@@@std@@@1@PEBD1Uforward_iterator_tag@1@@Z
pdata	ENDS
;	COMDAT pdata
pdata	SEGMENT
$pdata$3$??$_Insert_range@PEBD@?$vector@DV?$allocator@D@std@@@std@@AEAAXV?$_Vector_const_iterator@V?$_Vector_val@U?$_Simple_types@D@std@@@std@@@1@PEBD1Uforward_iterator_tag@1@@Z DD imagerel $LN460+284
	DD	imagerel $LN460+406
	DD	imagerel $chain$3$??$_Insert_range@PEBD@?$vector@DV?$allocator@D@std@@@std@@AEAAXV?$_Vector_const_iterator@V?$_Vector_val@U?$_Simple_types@D@std@@@std@@@1@PEBD1Uforward_iterator_tag@1@@Z
pdata	ENDS
;	COMDAT pdata
pdata	SEGMENT
$pdata$4$??$_Insert_range@PEBD@?$vector@DV?$allocator@D@std@@@std@@AEAAXV?$_Vector_const_iterator@V?$_Vector_val@U?$_Simple_types@D@std@@@std@@@1@PEBD1Uforward_iterator_tag@1@@Z DD imagerel $LN460+406
	DD	imagerel $LN460+419
	DD	imagerel $chain$4$??$_Insert_range@PEBD@?$vector@DV?$allocator@D@std@@@std@@AEAAXV?$_Vector_const_iterator@V?$_Vector_val@U?$_Simple_types@D@std@@@std@@@1@PEBD1Uforward_iterator_tag@1@@Z
pdata	ENDS
;	COMDAT pdata
pdata	SEGMENT
$pdata$5$??$_Insert_range@PEBD@?$vector@DV?$allocator@D@std@@@std@@AEAAXV?$_Vector_const_iterator@V?$_Vector_val@U?$_Simple_types@D@std@@@std@@@1@PEBD1Uforward_iterator_tag@1@@Z DD imagerel $LN460+419
	DD	imagerel $LN460+425
	DD	imagerel $chain$5$??$_Insert_range@PEBD@?$vector@DV?$allocator@D@std@@@std@@AEAAXV?$_Vector_const_iterator@V?$_Vector_val@U?$_Simple_types@D@std@@@std@@@1@PEBD1Uforward_iterator_tag@1@@Z
pdata	ENDS
;	COMDAT pdata
pdata	SEGMENT
$pdata$?push_back@?$basic_string@DU?$char_traits@D@std@@V?$allocator@D@2@@std@@QEAAXD@Z DD imagerel $LN57
	DD	imagerel $LN57+121
	DD	imagerel $unwind$?push_back@?$basic_string@DU?$char_traits@D@std@@V?$allocator@D@2@@std@@QEAAXD@Z
pdata	ENDS
;	COMDAT pdata
pdata	SEGMENT
$pdata$?_Equal@?$basic_string@DU?$char_traits@D@std@@V?$allocator@D@2@@std@@QEBA_NAEBV12@@Z DD imagerel $LN62
	DD	imagerel $LN62+63
	DD	imagerel $unwind$?_Equal@?$basic_string@DU?$char_traits@D@std@@V?$allocator@D@2@@std@@QEBA_NAEBV12@@Z
pdata	ENDS
;	COMDAT pdata
pdata	SEGMENT
$pdata$??$_Uninitialized_move@PEAV?$_List_unchecked_iterator@V?$_List_val@U?$_List_simple_types@U?$pair@$$CBUCard@@H@std@@@std@@@std@@@std@@PEAV12@U?$_Wrap_alloc@V?$allocator@V?$_List_unchecked_iterator@V?$_List_val@U?$_List_simple_types@U?$pair@$$CBUCard@@H@std@@@std@@@std@@@std@@@std@@@2@@std@@YAPEAV?$_List_unchecked_iterator@V?$_List_val@U?$_List_simple_types@U?$pair@$$CBUCard@@H@std@@@std@@@std@@@0@PEAV10@00AEAU?$_Wrap_alloc@U?$_Wrap_alloc@V?$allocator@V?$_List_unchecked_iterator@V?$_List_val@U?$_List_simple_types@U?$pair@$$CBUCard@@H@std@@@std@@@std@@@std@@@std@@@std@@@0@@Z DD imagerel $LN19
	DD	imagerel $LN19+14
	DD	imagerel $unwind$??$_Uninitialized_move@PEAV?$_List_unchecked_iterator@V?$_List_val@U?$_List_simple_types@U?$pair@$$CBUCard@@H@std@@@std@@@std@@@std@@PEAV12@U?$_Wrap_alloc@V?$allocator@V?$_List_unchecked_iterator@V?$_List_val@U?$_List_simple_types@U?$pair@$$CBUCard@@H@std@@@std@@@std@@@std@@@std@@@2@@std@@YAPEAV?$_List_unchecked_iterator@V?$_List_val@U?$_List_simple_types@U?$pair@$$CBUCard@@H@std@@@std@@@std@@@0@PEAV10@00AEAU?$_Wrap_alloc@U?$_Wrap_alloc@V?$allocator@V?$_List_unchecked_iterator@V?$_List_val@U?$_List_simple_types@U?$pair@$$CBUCard@@H@std@@@std@@@std@@@std@@@std@@@std@@@0@@Z
pdata	ENDS
;	COMDAT pdata
pdata	SEGMENT
$pdata$??$_Uninitialized_fill_n@PEAV?$_List_unchecked_iterator@V?$_List_val@U?$_List_simple_types@U?$pair@$$CBUCard@@H@std@@@std@@@std@@@std@@_KU?$_Wrap_alloc@V?$allocator@V?$_List_unchecked_iterator@V?$_List_val@U?$_List_simple_types@U?$pair@$$CBUCard@@H@std@@@std@@@std@@@std@@@std@@@2@@std@@YAPEAV?$_List_unchecked_iterator@V?$_List_val@U?$_List_simple_types@U?$pair@$$CBUCard@@H@std@@@std@@@std@@@0@PEAV10@_KAEBV10@AEAU?$_Wrap_alloc@U?$_Wrap_alloc@V?$allocator@V?$_List_unchecked_iterator@V?$_List_val@U?$_List_simple_types@U?$pair@$$CBUCard@@H@std@@@std@@@std@@@std@@@std@@@std@@@0@@Z DD imagerel $LN4
	DD	imagerel $LN4+14
	DD	imagerel $unwind$??$_Uninitialized_fill_n@PEAV?$_List_unchecked_iterator@V?$_List_val@U?$_List_simple_types@U?$pair@$$CBUCard@@H@std@@@std@@@std@@@std@@_KU?$_Wrap_alloc@V?$allocator@V?$_List_unchecked_iterator@V?$_List_val@U?$_List_simple_types@U?$pair@$$CBUCard@@H@std@@@std@@@std@@@std@@@std@@@2@@std@@YAPEAV?$_List_unchecked_iterator@V?$_List_val@U?$_List_simple_types@U?$pair@$$CBUCard@@H@std@@@std@@@std@@@0@PEAV10@_KAEBV10@AEAU?$_Wrap_alloc@U?$_Wrap_alloc@V?$allocator@V?$_List_unchecked_iterator@V?$_List_val@U?$_List_simple_types@U?$pair@$$CBUCard@@H@std@@@std@@@std@@@std@@@std@@@std@@@0@@Z
pdata	ENDS
;	COMDAT pdata
pdata	SEGMENT
$pdata$??$_Uninitialized_move@PEADPEADV?$allocator@D@std@@@std@@YAPEADPEAD00AEAU?$_Wrap_alloc@V?$allocator@D@std@@@0@@Z DD imagerel $LN20
	DD	imagerel $LN20+48
	DD	imagerel $unwind$??$_Uninitialized_move@PEADPEADV?$allocator@D@std@@@std@@YAPEADPEAD00AEAU?$_Wrap_alloc@V?$allocator@D@std@@@0@@Z
pdata	ENDS
;	COMDAT pdata
pdata	SEGMENT
$pdata$??$_Uninitialized_move@PEAUCard@@PEAU1@V?$allocator@UCard@@@std@@@std@@YAPEAUCard@@PEAU1@00AEAU?$_Wrap_alloc@V?$allocator@UCard@@@std@@@0@@Z DD imagerel $LN19
	DD	imagerel $LN19+14
	DD	imagerel $unwind$??$_Uninitialized_move@PEAUCard@@PEAU1@V?$allocator@UCard@@@std@@@std@@YAPEAUCard@@PEAU1@00AEAU?$_Wrap_alloc@V?$allocator@UCard@@@std@@@0@@Z
pdata	ENDS
;	COMDAT pdata
pdata	SEGMENT
$pdata$??$?0AEBV?$allocator@U?$pair@$$CBUCard@@H@std@@@std@@X@?$_List_buy@U?$pair@$$CBUCard@@H@std@@V?$allocator@U?$pair@$$CBUCard@@H@std@@@2@@std@@QEAA@AEBV?$allocator@U?$pair@$$CBUCard@@H@std@@@1@@Z DD imagerel $LN31
	DD	imagerel $LN31+40
	DD	imagerel $unwind$??$?0AEBV?$allocator@U?$pair@$$CBUCard@@H@std@@@std@@X@?$_List_buy@U?$pair@$$CBUCard@@H@std@@V?$allocator@U?$pair@$$CBUCard@@H@std@@@2@@std@@QEAA@AEBV?$allocator@U?$pair@$$CBUCard@@H@std@@@1@@Z
pdata	ENDS
;	COMDAT pdata
pdata	SEGMENT
$pdata$??$_Uninitialized_default_fill_n@PEAD_KV?$allocator@D@std@@@std@@YAPEADPEAD_KAEAU?$_Wrap_alloc@V?$allocator@D@std@@@0@@Z DD imagerel $LN6
	DD	imagerel $LN6+41
	DD	imagerel $unwind$??$_Uninitialized_default_fill_n@PEAD_KV?$allocator@D@std@@@std@@YAPEADPEAD_KAEAU?$_Wrap_alloc@V?$allocator@D@std@@@0@@Z
pdata	ENDS
;	COMDAT pdata
pdata	SEGMENT
$pdata$??$emplace_back@AEBUCard@@@?$vector@UCard@@V?$allocator@UCard@@@std@@@std@@QEAAXAEBUCard@@@Z DD imagerel $LN272
	DD	imagerel $LN272+99
	DD	imagerel $unwind$??$emplace_back@AEBUCard@@@?$vector@UCard@@V?$allocator@UCard@@@std@@@std@@QEAAXAEBUCard@@@Z
pdata	ENDS
;	COMDAT pdata
pdata	SEGMENT
$pdata$1$??$emplace_back@AEBUCard@@@?$vector@UCard@@V?$allocator@UCard@@@std@@@std@@QEAAXAEBUCard@@@Z DD imagerel $LN272+99
	DD	imagerel $LN272+231
	DD	imagerel $chain$1$??$emplace_back@AEBUCard@@@?$vector@UCard@@V?$allocator@UCard@@@std@@@std@@QEAAXAEBUCard@@@Z
pdata	ENDS
;	COMDAT pdata
pdata	SEGMENT
$pdata$2$??$emplace_back@AEBUCard@@@?$vector@UCard@@V?$allocator@UCard@@@std@@@std@@QEAAXAEBUCard@@@Z DD imagerel $LN272+231
	DD	imagerel $LN272+237
	DD	imagerel $chain$2$??$emplace_back@AEBUCard@@@?$vector@UCard@@V?$allocator@UCard@@@std@@@std@@QEAAXAEBUCard@@@Z
pdata	ENDS
;	COMDAT pdata
pdata	SEGMENT
$pdata$??$try_emplace@$$V@?$unordered_map@$$CBUCard@@HUCardHash@@U?$equal_to@$$CBUCard@@@std@@V?$allocator@U?$pair@$$CBUCard@@H@std@@@4@@std@@QEAA?AU?$pair@V?$_List_iterator@V?$_List_val@U?$_List_simple_types@U?$pair@$$CBUCard@@H@std@@@std@@@std@@@std@@_N@1@AEBUCard@@@Z DD imagerel $LN4
	DD	imagerel $LN4+23
	DD	imagerel $unwind$??$try_emplace@$$V@?$unordered_map@$$CBUCard@@HUCardHash@@U?$equal_to@$$CBUCard@@@std@@V?$allocator@U?$pair@$$CBUCard@@H@std@@@4@@std@@QEAA?AU?$pair@V?$_List_iterator@V?$_List_val@U?$_List_simple_types@U?$pair@$$CBUCard@@H@std@@@std@@@std@@@std@@_N@1@AEBUCard@@@Z
pdata	ENDS
;	COMDAT pdata
pdata	SEGMENT
$pdata$??R<lambda_623dd86cbf13f282318dce6f531d7d95>@@QEBA_K_K0@Z DD imagerel ??R<lambda_623dd86cbf13f282318dce6f531d7d95>@@QEBA_K_K0@Z
	DD	imagerel ??R<lambda_623dd86cbf13f282318dce6f531d7d95>@@QEBA_K_K0@Z+39
	DD	imagerel $unwind$??R<lambda_623dd86cbf13f282318dce6f531d7d95>@@QEBA_K_K0@Z
pdata	ENDS
;	COMDAT pdata
pdata	SEGMENT
$pdata$??R<lambda_26a3ddb05cc2de95bf037bc1f320ffba>@@QEBA_KPEAD_K@Z DD imagerel ??R<lambda_26a3ddb05cc2de95bf037bc1f320ffba>@@QEBA_KPEAD_K@Z
	DD	imagerel ??R<lambda_26a3ddb05cc2de95bf037bc1f320ffba>@@QEBA_KPEAD_K@Z+114
	DD	imagerel $unwind$??R<lambda_26a3ddb05cc2de95bf037bc1f320ffba>@@QEBA_KPEAD_K@Z
pdata	ENDS
;	COMDAT pdata
pdata	SEGMENT
$pdata$??$read_block_by_block@V<lambda_771619969f232a159adf3e328d064436>@@@myio@@YAXAEAVCFile@0@$$QEAV<lambda_771619969f232a159adf3e328d064436>@@_K@Z DD imagerel ??$read_block_by_block@V<lambda_771619969f232a159adf3e328d064436>@@@myio@@YAXAEAVCFile@0@$$QEAV<lambda_771619969f232a159adf3e328d064436>@@_K@Z
	DD	imagerel ??$read_block_by_block@V<lambda_771619969f232a159adf3e328d064436>@@@myio@@YAXAEAVCFile@0@$$QEAV<lambda_771619969f232a159adf3e328d064436>@@_K@Z+541
	DD	imagerel $unwind$??$read_block_by_block@V<lambda_771619969f232a159adf3e328d064436>@@@myio@@YAXAEAVCFile@0@$$QEAV<lambda_771619969f232a159adf3e328d064436>@@_K@Z
pdata	ENDS
;	COMDAT pdata
pdata	SEGMENT
$pdata$??$insert@PEBD@?$vector@DV?$allocator@D@std@@@std@@QEAA?AV?$_Vector_iterator@V?$_Vector_val@U?$_Simple_types@D@std@@@std@@@1@V?$_Vector_const_iterator@V?$_Vector_val@U?$_Simple_types@D@std@@@std@@@1@PEBD1@Z DD imagerel $LN47
	DD	imagerel $LN47+77
	DD	imagerel $unwind$??$insert@PEBD@?$vector@DV?$allocator@D@std@@@std@@QEAA?AV?$_Vector_iterator@V?$_Vector_val@U?$_Simple_types@D@std@@@std@@@1@V?$_Vector_const_iterator@V?$_Vector_val@U?$_Simple_types@D@std@@@std@@@1@PEBD1@Z
pdata	ENDS
;	COMDAT pdata
pdata	SEGMENT
$pdata$??$?8DU?$char_traits@D@std@@V?$allocator@D@1@@std@@YA_NAEBV?$basic_string@DU?$char_traits@D@std@@V?$allocator@D@2@@0@0@Z DD imagerel $LN65
	DD	imagerel $LN65+63
	DD	imagerel $unwind$??$?8DU?$char_traits@D@std@@V?$allocator@D@1@@std@@YA_NAEBV?$basic_string@DU?$char_traits@D@std@@V?$allocator@D@2@@0@0@Z
pdata	ENDS
;	COMDAT pdata
pdata	SEGMENT
$pdata$??$?HDU?$char_traits@D@std@@V?$allocator@D@1@@std@@YA?AV?$basic_string@DU?$char_traits@D@std@@V?$allocator@D@2@@0@$$QEAV10@D@Z DD imagerel $LN162
	DD	imagerel $LN162+235
	DD	imagerel $unwind$??$?HDU?$char_traits@D@std@@V?$allocator@D@1@@std@@YA?AV?$basic_string@DU?$char_traits@D@std@@V?$allocator@D@2@@0@$$QEAV10@D@Z
pdata	ENDS
;	COMDAT pdata
pdata	SEGMENT
$pdata$?allocate@?$allocator@V?$_List_unchecked_iterator@V?$_List_val@U?$_List_simple_types@U?$pair@$$CBUCard@@H@std@@@std@@@std@@@std@@@std@@QEAAPEAV?$_List_unchecked_iterator@V?$_List_val@U?$_List_simple_types@U?$pair@$$CBUCard@@H@std@@@std@@@std@@@2@_K@Z DD imagerel $LN17
	DD	imagerel $LN17+112
	DD	imagerel $unwind$?allocate@?$allocator@V?$_List_unchecked_iterator@V?$_List_val@U?$_List_simple_types@U?$pair@$$CBUCard@@H@std@@@std@@@std@@@std@@@std@@QEAAPEAV?$_List_unchecked_iterator@V?$_List_val@U?$_List_simple_types@U?$pair@$$CBUCard@@H@std@@@std@@@std@@@2@_K@Z
pdata	ENDS
;	COMDAT pdata
pdata	SEGMENT
$pdata$?allocate@?$_Wrap_alloc@V?$allocator@V?$_List_unchecked_iterator@V?$_List_val@U?$_List_simple_types@U?$pair@$$CBUCard@@H@std@@@std@@@std@@@std@@@std@@@std@@QEAAPEAV?$_List_unchecked_iterator@V?$_List_val@U?$_List_simple_types@U?$pair@$$CBUCard@@H@std@@@std@@@std@@@2@_K@Z DD imagerel $LN20
	DD	imagerel $LN20+112
	DD	imagerel $unwind$?allocate@?$_Wrap_alloc@V?$allocator@V?$_List_unchecked_iterator@V?$_List_val@U?$_List_simple_types@U?$pair@$$CBUCard@@H@std@@@std@@@std@@@std@@@std@@@std@@QEAAPEAV?$_List_unchecked_iterator@V?$_List_val@U?$_List_simple_types@U?$pair@$$CBUCard@@H@std@@@std@@@std@@@2@_K@Z
pdata	ENDS
;	COMDAT pdata
pdata	SEGMENT
$pdata$?_Umove_if_noexcept1@?$vector@V?$_List_unchecked_iterator@V?$_List_val@U?$_List_simple_types@U?$pair@$$CBUCard@@H@std@@@std@@@std@@@std@@U?$_Wrap_alloc@V?$allocator@V?$_List_unchecked_iterator@V?$_List_val@U?$_List_simple_types@U?$pair@$$CBUCard@@H@std@@@std@@@std@@@std@@@std@@@2@@std@@AEAAXPEAV?$_List_unchecked_iterator@V?$_List_val@U?$_List_simple_types@U?$pair@$$CBUCard@@H@std@@@std@@@std@@@2@00U?$integral_constant@_N$00@2@@Z DD imagerel $LN27
	DD	imagerel $LN27+26
	DD	imagerel $unwind$?_Umove_if_noexcept1@?$vector@V?$_List_unchecked_iterator@V?$_List_val@U?$_List_simple_types@U?$pair@$$CBUCard@@H@std@@@std@@@std@@@std@@U?$_Wrap_alloc@V?$allocator@V?$_List_unchecked_iterator@V?$_List_val@U?$_List_simple_types@U?$pair@$$CBUCard@@H@std@@@std@@@std@@@std@@@std@@@2@@std@@AEAAXPEAV?$_List_unchecked_iterator@V?$_List_val@U?$_List_simple_types@U?$pair@$$CBUCard@@H@std@@@std@@@std@@@2@00U?$integral_constant@_N$00@2@@Z
pdata	ENDS
;	COMDAT pdata
pdata	SEGMENT
$pdata$?deallocate@?$allocator@V?$_List_unchecked_iterator@V?$_List_val@U?$_List_simple_types@U?$pair@$$CBUCard@@H@std@@@std@@@std@@@std@@@std@@QEAAXPEAV?$_List_unchecked_iterator@V?$_List_val@U?$_List_simple_types@U?$pair@$$CBUCard@@H@std@@@std@@@std@@@2@_K@Z DD imagerel $LN19
	DD	imagerel $LN19+109
	DD	imagerel $unwind$?deallocate@?$allocator@V?$_List_unchecked_iterator@V?$_List_val@U?$_List_simple_types@U?$pair@$$CBUCard@@H@std@@@std@@@std@@@std@@@std@@QEAAXPEAV?$_List_unchecked_iterator@V?$_List_val@U?$_List_simple_types@U?$pair@$$CBUCard@@H@std@@@std@@@std@@@2@_K@Z
pdata	ENDS
;	COMDAT pdata
pdata	SEGMENT
$pdata$?_Umove_if_noexcept@?$vector@V?$_List_unchecked_iterator@V?$_List_val@U?$_List_simple_types@U?$pair@$$CBUCard@@H@std@@@std@@@std@@@std@@U?$_Wrap_alloc@V?$allocator@V?$_List_unchecked_iterator@V?$_List_val@U?$_List_simple_types@U?$pair@$$CBUCard@@H@std@@@std@@@std@@@std@@@std@@@2@@std@@AEAAXPEAV?$_List_unchecked_iterator@V?$_List_val@U?$_List_simple_types@U?$pair@$$CBUCard@@H@std@@@std@@@std@@@2@00@Z DD imagerel $LN29
	DD	imagerel $LN29+26
	DD	imagerel $unwind$?_Umove_if_noexcept@?$vector@V?$_List_unchecked_iterator@V?$_List_val@U?$_List_simple_types@U?$pair@$$CBUCard@@H@std@@@std@@@std@@@std@@U?$_Wrap_alloc@V?$allocator@V?$_List_unchecked_iterator@V?$_List_val@U?$_List_simple_types@U?$pair@$$CBUCard@@H@std@@@std@@@std@@@std@@@std@@@2@@std@@AEAAXPEAV?$_List_unchecked_iterator@V?$_List_val@U?$_List_simple_types@U?$pair@$$CBUCard@@H@std@@@std@@@std@@@2@00@Z
pdata	ENDS
;	COMDAT pdata
pdata	SEGMENT
$pdata$?_Change_array@?$vector@V?$_List_unchecked_iterator@V?$_List_val@U?$_List_simple_types@U?$pair@$$CBUCard@@H@std@@@std@@@std@@@std@@U?$_Wrap_alloc@V?$allocator@V?$_List_unchecked_iterator@V?$_List_val@U?$_List_simple_types@U?$pair@$$CBUCard@@H@std@@@std@@@std@@@std@@@std@@@2@@std@@AEAAXQEAV?$_List_unchecked_iterator@V?$_List_val@U?$_List_simple_types@U?$pair@$$CBUCard@@H@std@@@std@@@std@@@2@_K1@Z DD imagerel $LN116
	DD	imagerel $LN116+189
	DD	imagerel $unwind$?_Change_array@?$vector@V?$_List_unchecked_iterator@V?$_List_val@U?$_List_simple_types@U?$pair@$$CBUCard@@H@std@@@std@@@std@@@std@@U?$_Wrap_alloc@V?$allocator@V?$_List_unchecked_iterator@V?$_List_val@U?$_List_simple_types@U?$pair@$$CBUCard@@H@std@@@std@@@std@@@std@@@std@@@2@@std@@AEAAXQEAV?$_List_unchecked_iterator@V?$_List_val@U?$_List_simple_types@U?$pair@$$CBUCard@@H@std@@@std@@@std@@@2@_K1@Z
pdata	ENDS
;	COMDAT pdata
pdata	SEGMENT
$pdata$?allocate@?$_Wrap_alloc@U?$_Wrap_alloc@V?$allocator@V?$_List_unchecked_iterator@V?$_List_val@U?$_List_simple_types@U?$pair@$$CBUCard@@H@std@@@std@@@std@@@std@@@std@@@std@@@std@@QEAAPEAV?$_List_unchecked_iterator@V?$_List_val@U?$_List_simple_types@U?$pair@$$CBUCard@@H@std@@@std@@@std@@@2@_K@Z DD imagerel $LN23
	DD	imagerel $LN23+112
	DD	imagerel $unwind$?allocate@?$_Wrap_alloc@U?$_Wrap_alloc@V?$allocator@V?$_List_unchecked_iterator@V?$_List_val@U?$_List_simple_types@U?$pair@$$CBUCard@@H@std@@@std@@@std@@@std@@@std@@@std@@@std@@QEAAPEAV?$_List_unchecked_iterator@V?$_List_val@U?$_List_simple_types@U?$pair@$$CBUCard@@H@std@@@std@@@std@@@2@_K@Z
pdata	ENDS
;	COMDAT pdata
pdata	SEGMENT
$pdata$?deallocate@?$_Wrap_alloc@V?$allocator@V?$_List_unchecked_iterator@V?$_List_val@U?$_List_simple_types@U?$pair@$$CBUCard@@H@std@@@std@@@std@@@std@@@std@@@std@@QEAAXPEAV?$_List_unchecked_iterator@V?$_List_val@U?$_List_simple_types@U?$pair@$$CBUCard@@H@std@@@std@@@std@@@2@_K@Z DD imagerel $LN22
	DD	imagerel $LN22+109
	DD	imagerel $unwind$?deallocate@?$_Wrap_alloc@V?$allocator@V?$_List_unchecked_iterator@V?$_List_val@U?$_List_simple_types@U?$pair@$$CBUCard@@H@std@@@std@@@std@@@std@@@std@@@std@@QEAAXPEAV?$_List_unchecked_iterator@V?$_List_val@U?$_List_simple_types@U?$pair@$$CBUCard@@H@std@@@std@@@std@@@2@_K@Z
pdata	ENDS
;	COMDAT pdata
pdata	SEGMENT
$pdata$?_Reallocate_exactly@?$vector@V?$_List_unchecked_iterator@V?$_List_val@U?$_List_simple_types@U?$pair@$$CBUCard@@H@std@@@std@@@std@@@std@@U?$_Wrap_alloc@V?$allocator@V?$_List_unchecked_iterator@V?$_List_val@U?$_List_simple_types@U?$pair@$$CBUCard@@H@std@@@std@@@std@@@std@@@std@@@2@@std@@AEAAX_K@Z DD imagerel $LN103
	DD	imagerel $LN103+172
	DD	imagerel $unwind$?_Reallocate_exactly@?$vector@V?$_List_unchecked_iterator@V?$_List_val@U?$_List_simple_types@U?$pair@$$CBUCard@@H@std@@@std@@@std@@@std@@U?$_Wrap_alloc@V?$allocator@V?$_List_unchecked_iterator@V?$_List_val@U?$_List_simple_types@U?$pair@$$CBUCard@@H@std@@@std@@@std@@@std@@@std@@@2@@std@@AEAAX_K@Z
pdata	ENDS
;	COMDAT pdata
pdata	SEGMENT
$pdata$?_Ufill@?$vector@V?$_List_unchecked_iterator@V?$_List_val@U?$_List_simple_types@U?$pair@$$CBUCard@@H@std@@@std@@@std@@@std@@U?$_Wrap_alloc@V?$allocator@V?$_List_unchecked_iterator@V?$_List_val@U?$_List_simple_types@U?$pair@$$CBUCard@@H@std@@@std@@@std@@@std@@@std@@@2@@std@@AEAAPEAV?$_List_unchecked_iterator@V?$_List_val@U?$_List_simple_types@U?$pair@$$CBUCard@@H@std@@@std@@@std@@@2@PEAV32@_KAEBV32@@Z DD imagerel $LN12
	DD	imagerel $LN12+26
	DD	imagerel $unwind$?_Ufill@?$vector@V?$_List_unchecked_iterator@V?$_List_val@U?$_List_simple_types@U?$pair@$$CBUCard@@H@std@@@std@@@std@@@std@@U?$_Wrap_alloc@V?$allocator@V?$_List_unchecked_iterator@V?$_List_val@U?$_List_simple_types@U?$pair@$$CBUCard@@H@std@@@std@@@std@@@std@@@std@@@2@@std@@AEAAPEAV?$_List_unchecked_iterator@V?$_List_val@U?$_List_simple_types@U?$pair@$$CBUCard@@H@std@@@std@@@std@@@2@PEAV32@_KAEBV32@@Z
pdata	ENDS
;	COMDAT pdata
pdata	SEGMENT
$pdata$?_Buy@?$vector@V?$_List_unchecked_iterator@V?$_List_val@U?$_List_simple_types@U?$pair@$$CBUCard@@H@std@@@std@@@std@@@std@@U?$_Wrap_alloc@V?$allocator@V?$_List_unchecked_iterator@V?$_List_val@U?$_List_simple_types@U?$pair@$$CBUCard@@H@std@@@std@@@std@@@std@@@std@@@2@@std@@AEAA_N_K@Z DD imagerel $LN113
	DD	imagerel $LN113+91
	DD	imagerel $unwind$?_Buy@?$vector@V?$_List_unchecked_iterator@V?$_List_val@U?$_List_simple_types@U?$pair@$$CBUCard@@H@std@@@std@@@std@@@std@@U?$_Wrap_alloc@V?$allocator@V?$_List_unchecked_iterator@V?$_List_val@U?$_List_simple_types@U?$pair@$$CBUCard@@H@std@@@std@@@std@@@std@@@std@@@2@@std@@AEAA_N_K@Z
pdata	ENDS
;	COMDAT pdata
pdata	SEGMENT
$pdata$?_Xlength@?$vector@V?$_List_unchecked_iterator@V?$_List_val@U?$_List_simple_types@U?$pair@$$CBUCard@@H@std@@@std@@@std@@@std@@U?$_Wrap_alloc@V?$allocator@V?$_List_unchecked_iterator@V?$_List_val@U?$_List_simple_types@U?$pair@$$CBUCard@@H@std@@@std@@@std@@@std@@@std@@@2@@std@@CAXXZ DD imagerel $LN4
	DD	imagerel $LN4+17
	DD	imagerel $unwind$?_Xlength@?$vector@V?$_List_unchecked_iterator@V?$_List_val@U?$_List_simple_types@U?$pair@$$CBUCard@@H@std@@@std@@@std@@@std@@U?$_Wrap_alloc@V?$allocator@V?$_List_unchecked_iterator@V?$_List_val@U?$_List_simple_types@U?$pair@$$CBUCard@@H@std@@@std@@@std@@@std@@@std@@@2@@std@@CAXXZ
pdata	ENDS
;	COMDAT pdata
pdata	SEGMENT
$pdata$?deallocate@?$allocator@D@std@@QEAAXPEAD_K@Z DD imagerel $LN18
	DD	imagerel $LN18+81
	DD	imagerel $unwind$?deallocate@?$allocator@D@std@@QEAAXPEAD_K@Z
pdata	ENDS
;	COMDAT pdata
pdata	SEGMENT
$pdata$?allocate@?$allocator@D@std@@QEAAPEAD_K@Z DD imagerel $LN16
	DD	imagerel $LN16+83
	DD	imagerel $unwind$?allocate@?$allocator@D@std@@QEAAPEAD_K@Z
pdata	ENDS
;	COMDAT pdata
pdata	SEGMENT
$pdata$?erase@?$basic_string@DU?$char_traits@D@std@@V?$allocator@D@2@@std@@QEAAAEAV12@_K@Z DD imagerel $LN38
	DD	imagerel $LN38+54
	DD	imagerel $unwind$?erase@?$basic_string@DU?$char_traits@D@std@@V?$allocator@D@2@@std@@QEAAAEAV12@_K@Z
pdata	ENDS
;	COMDAT pdata
pdata	SEGMENT
$pdata$?erase@?$basic_string@DU?$char_traits@D@std@@V?$allocator@D@2@@std@@QEAAAEAV12@_K0@Z DD imagerel $LN96
	DD	imagerel $LN96+157
	DD	imagerel $unwind$?erase@?$basic_string@DU?$char_traits@D@std@@V?$allocator@D@2@@std@@QEAAAEAV12@_K0@Z
pdata	ENDS
;	COMDAT pdata
pdata	SEGMENT
$pdata$?_Copy@?$basic_string@DU?$char_traits@D@std@@V?$allocator@D@2@@std@@QEAAX_K@Z DD imagerel $LN118
	DD	imagerel $LN118+335
	DD	imagerel $unwind$?_Copy@?$basic_string@DU?$char_traits@D@std@@V?$allocator@D@2@@std@@QEAAX_K@Z
pdata	ENDS
;	COMDAT pdata
pdata	SEGMENT
$pdata$?catch$16@?0??_Copy@?$basic_string@DU?$char_traits@D@std@@V?$allocator@D@2@@std@@QEAAX_K@Z@4HA DD imagerel ?catch$16@?0??_Copy@?$basic_string@DU?$char_traits@D@std@@V?$allocator@D@2@@std@@QEAAX_K@Z@4HA
	DD	imagerel ?catch$16@?0??_Copy@?$basic_string@DU?$char_traits@D@std@@V?$allocator@D@2@@std@@QEAAX_K@Z@4HA+47
	DD	imagerel $unwind$?catch$16@?0??_Copy@?$basic_string@DU?$char_traits@D@std@@V?$allocator@D@2@@std@@QEAAX_K@Z@4HA
pdata	ENDS
;	COMDAT pdata
pdata	SEGMENT
$pdata$?_Xran@?$basic_string@DU?$char_traits@D@std@@V?$allocator@D@2@@std@@SAXXZ DD imagerel $LN4
	DD	imagerel $LN4+17
	DD	imagerel $unwind$?_Xran@?$basic_string@DU?$char_traits@D@std@@V?$allocator@D@2@@std@@SAXXZ
pdata	ENDS
;	COMDAT pdata
pdata	SEGMENT
$pdata$?deallocate@?$allocator@UCard@@@std@@QEAAXPEAUCard@@_K@Z DD imagerel $LN19
	DD	imagerel $LN19+105
	DD	imagerel $unwind$?deallocate@?$allocator@UCard@@@std@@QEAAXPEAUCard@@_K@Z
pdata	ENDS
;	COMDAT pdata
pdata	SEGMENT
$pdata$?allocate@?$allocator@UCard@@@std@@QEAAPEAUCard@@_K@Z DD imagerel $LN17
	DD	imagerel $LN17+108
	DD	imagerel $unwind$?allocate@?$allocator@UCard@@@std@@QEAAPEAUCard@@_K@Z
pdata	ENDS
;	COMDAT pdata
pdata	SEGMENT
$pdata$?_Umove_if_noexcept1@?$vector@UCard@@V?$allocator@UCard@@@std@@@std@@AEAAXPEAUCard@@00U?$integral_constant@_N$00@2@@Z DD imagerel $LN27
	DD	imagerel $LN27+26
	DD	imagerel $unwind$?_Umove_if_noexcept1@?$vector@UCard@@V?$allocator@UCard@@@std@@@std@@AEAAXPEAUCard@@00U?$integral_constant@_N$00@2@@Z
pdata	ENDS
;	COMDAT pdata
pdata	SEGMENT
$pdata$?clear@?$list@U?$pair@$$CBUCard@@H@std@@V?$allocator@U?$pair@$$CBUCard@@H@std@@@2@@std@@QEAAXXZ DD imagerel $LN158
	DD	imagerel $LN158+38
	DD	imagerel $unwind$?clear@?$list@U?$pair@$$CBUCard@@H@std@@V?$allocator@U?$pair@$$CBUCard@@H@std@@@2@@std@@QEAAXXZ
pdata	ENDS
;	COMDAT pdata
pdata	SEGMENT
$pdata$0$?clear@?$list@U?$pair@$$CBUCard@@H@std@@V?$allocator@U?$pair@$$CBUCard@@H@std@@@2@@std@@QEAAXXZ DD imagerel $LN158+38
	DD	imagerel $LN158+69
	DD	imagerel $chain$0$?clear@?$list@U?$pair@$$CBUCard@@H@std@@V?$allocator@U?$pair@$$CBUCard@@H@std@@@2@@std@@QEAAXXZ
pdata	ENDS
;	COMDAT pdata
pdata	SEGMENT
$pdata$1$?clear@?$list@U?$pair@$$CBUCard@@H@std@@V?$allocator@U?$pair@$$CBUCard@@H@std@@@2@@std@@QEAAXXZ DD imagerel $LN158+69
	DD	imagerel $LN158+75
	DD	imagerel $chain$1$?clear@?$list@U?$pair@$$CBUCard@@H@std@@V?$allocator@U?$pair@$$CBUCard@@H@std@@@2@@std@@QEAAXXZ
pdata	ENDS
;	COMDAT pdata
pdata	SEGMENT
$pdata$?assign@?$vector@V?$_List_unchecked_iterator@V?$_List_val@U?$_List_simple_types@U?$pair@$$CBUCard@@H@std@@@std@@@std@@@std@@U?$_Wrap_alloc@V?$allocator@V?$_List_unchecked_iterator@V?$_List_val@U?$_List_simple_types@U?$pair@$$CBUCard@@H@std@@@std@@@std@@@std@@@std@@@2@@std@@QEAAX_KAEBV?$_List_unchecked_iterator@V?$_List_val@U?$_List_simple_types@U?$pair@$$CBUCard@@H@std@@@std@@@std@@@2@@Z DD imagerel $LN405
	DD	imagerel $LN405+66
	DD	imagerel $unwind$?assign@?$vector@V?$_List_unchecked_iterator@V?$_List_val@U?$_List_simple_types@U?$pair@$$CBUCard@@H@std@@@std@@@std@@@std@@U?$_Wrap_alloc@V?$allocator@V?$_List_unchecked_iterator@V?$_List_val@U?$_List_simple_types@U?$pair@$$CBUCard@@H@std@@@std@@@std@@@std@@@std@@@2@@std@@QEAAX_KAEBV?$_List_unchecked_iterator@V?$_List_val@U?$_List_simple_types@U?$pair@$$CBUCard@@H@std@@@std@@@std@@@2@@Z
pdata	ENDS
;	COMDAT pdata
pdata	SEGMENT
$pdata$0$?assign@?$vector@V?$_List_unchecked_iterator@V?$_List_val@U?$_List_simple_types@U?$pair@$$CBUCard@@H@std@@@std@@@std@@@std@@U?$_Wrap_alloc@V?$allocator@V?$_List_unchecked_iterator@V?$_List_val@U?$_List_simple_types@U?$pair@$$CBUCard@@H@std@@@std@@@std@@@std@@@std@@@2@@std@@QEAAX_KAEBV?$_List_unchecked_iterator@V?$_List_val@U?$_List_simple_types@U?$pair@$$CBUCard@@H@std@@@std@@@std@@@2@@Z DD imagerel $LN405+66
	DD	imagerel $LN405+212
	DD	imagerel $chain$0$?assign@?$vector@V?$_List_unchecked_iterator@V?$_List_val@U?$_List_simple_types@U?$pair@$$CBUCard@@H@std@@@std@@@std@@@std@@U?$_Wrap_alloc@V?$allocator@V?$_List_unchecked_iterator@V?$_List_val@U?$_List_simple_types@U?$pair@$$CBUCard@@H@std@@@std@@@std@@@std@@@std@@@2@@std@@QEAAX_KAEBV?$_List_unchecked_iterator@V?$_List_val@U?$_List_simple_types@U?$pair@$$CBUCard@@H@std@@@std@@@std@@@2@@Z
pdata	ENDS
;	COMDAT pdata
pdata	SEGMENT
$pdata$1$?assign@?$vector@V?$_List_unchecked_iterator@V?$_List_val@U?$_List_simple_types@U?$pair@$$CBUCard@@H@std@@@std@@@std@@@std@@U?$_Wrap_alloc@V?$allocator@V?$_List_unchecked_iterator@V?$_List_val@U?$_List_simple_types@U?$pair@$$CBUCard@@H@std@@@std@@@std@@@std@@@std@@@2@@std@@QEAAX_KAEBV?$_List_unchecked_iterator@V?$_List_val@U?$_List_simple_types@U?$pair@$$CBUCard@@H@std@@@std@@@std@@@2@@Z DD imagerel $LN405+212
	DD	imagerel $LN405+285
	DD	imagerel $chain$1$?assign@?$vector@V?$_List_unchecked_iterator@V?$_List_val@U?$_List_simple_types@U?$pair@$$CBUCard@@H@std@@@std@@@std@@@std@@U?$_Wrap_alloc@V?$allocator@V?$_List_unchecked_iterator@V?$_List_val@U?$_List_simple_types@U?$pair@$$CBUCard@@H@std@@@std@@@std@@@std@@@std@@@2@@std@@QEAAX_KAEBV?$_List_unchecked_iterator@V?$_List_val@U?$_List_simple_types@U?$pair@$$CBUCard@@H@std@@@std@@@std@@@2@@Z
pdata	ENDS
;	COMDAT pdata
pdata	SEGMENT
$pdata$2$?assign@?$vector@V?$_List_unchecked_iterator@V?$_List_val@U?$_List_simple_types@U?$pair@$$CBUCard@@H@std@@@std@@@std@@@std@@U?$_Wrap_alloc@V?$allocator@V?$_List_unchecked_iterator@V?$_List_val@U?$_List_simple_types@U?$pair@$$CBUCard@@H@std@@@std@@@std@@@std@@@std@@@2@@std@@QEAAX_KAEBV?$_List_unchecked_iterator@V?$_List_val@U?$_List_simple_types@U?$pair@$$CBUCard@@H@std@@@std@@@std@@@2@@Z DD imagerel $LN405+285
	DD	imagerel $LN405+297
	DD	imagerel $chain$2$?assign@?$vector@V?$_List_unchecked_iterator@V?$_List_val@U?$_List_simple_types@U?$pair@$$CBUCard@@H@std@@@std@@@std@@@std@@U?$_Wrap_alloc@V?$allocator@V?$_List_unchecked_iterator@V?$_List_val@U?$_List_simple_types@U?$pair@$$CBUCard@@H@std@@@std@@@std@@@std@@@std@@@2@@std@@QEAAX_KAEBV?$_List_unchecked_iterator@V?$_List_val@U?$_List_simple_types@U?$pair@$$CBUCard@@H@std@@@std@@@std@@@2@@Z
pdata	ENDS
;	COMDAT pdata
pdata	SEGMENT
$pdata$?reserve@?$vector@V?$_List_unchecked_iterator@V?$_List_val@U?$_List_simple_types@U?$pair@$$CBUCard@@H@std@@@std@@@std@@@std@@U?$_Wrap_alloc@V?$allocator@V?$_List_unchecked_iterator@V?$_List_val@U?$_List_simple_types@U?$pair@$$CBUCard@@H@std@@@std@@@std@@@std@@@std@@@2@@std@@QEAAX_K@Z DD imagerel $LN56
	DD	imagerel $LN56+55
	DD	imagerel $unwind$?reserve@?$vector@V?$_List_unchecked_iterator@V?$_List_val@U?$_List_simple_types@U?$pair@$$CBUCard@@H@std@@@std@@@std@@@std@@U?$_Wrap_alloc@V?$allocator@V?$_List_unchecked_iterator@V?$_List_val@U?$_List_simple_types@U?$pair@$$CBUCard@@H@std@@@std@@@std@@@std@@@std@@@2@@std@@QEAAX_K@Z
pdata	ENDS
;	COMDAT pdata
pdata	SEGMENT
$pdata$?deallocate@?$_Wrap_alloc@U?$_Wrap_alloc@V?$allocator@V?$_List_unchecked_iterator@V?$_List_val@U?$_List_simple_types@U?$pair@$$CBUCard@@H@std@@@std@@@std@@@std@@@std@@@std@@@std@@QEAAXPEAV?$_List_unchecked_iterator@V?$_List_val@U?$_List_simple_types@U?$pair@$$CBUCard@@H@std@@@std@@@std@@@2@_K@Z DD imagerel $LN25
	DD	imagerel $LN25+109
	DD	imagerel $unwind$?deallocate@?$_Wrap_alloc@U?$_Wrap_alloc@V?$allocator@V?$_List_unchecked_iterator@V?$_List_val@U?$_List_simple_types@U?$pair@$$CBUCard@@H@std@@@std@@@std@@@std@@@std@@@std@@@std@@QEAAXPEAV?$_List_unchecked_iterator@V?$_List_val@U?$_List_simple_types@U?$pair@$$CBUCard@@H@std@@@std@@@std@@@2@_K@Z
pdata	ENDS
;	COMDAT pdata
pdata	SEGMENT
$pdata$?assign@?$basic_string@DU?$char_traits@D@std@@V?$allocator@D@2@@std@@QEAAAEAV12@AEBV12@_K_K@Z DD imagerel $LN159
	DD	imagerel $LN159+246
	DD	imagerel $unwind$?assign@?$basic_string@DU?$char_traits@D@std@@V?$allocator@D@2@@std@@QEAAAEAV12@AEBV12@_K_K@Z
pdata	ENDS
;	COMDAT pdata
pdata	SEGMENT
$pdata$?_Grow@?$basic_string@DU?$char_traits@D@std@@V?$allocator@D@2@@std@@QEAA_N_K@Z DD imagerel $LN34
	DD	imagerel $LN34+51
	DD	imagerel $unwind$?_Grow@?$basic_string@DU?$char_traits@D@std@@V?$allocator@D@2@@std@@QEAA_N_K@Z
pdata	ENDS
;	COMDAT pdata
pdata	SEGMENT
$pdata$?_Xlen@?$basic_string@DU?$char_traits@D@std@@V?$allocator@D@2@@std@@SAXXZ DD imagerel $LN4
	DD	imagerel $LN4+17
	DD	imagerel $unwind$?_Xlen@?$basic_string@DU?$char_traits@D@std@@V?$allocator@D@2@@std@@SAXXZ
pdata	ENDS
;	COMDAT pdata
pdata	SEGMENT
$pdata$?_Check_offset@?$basic_string@DU?$char_traits@D@std@@V?$allocator@D@2@@std@@QEBAX_K@Z DD imagerel $LN10
	DD	imagerel $LN10+10
	DD	imagerel $unwind$?_Check_offset@?$basic_string@DU?$char_traits@D@std@@V?$allocator@D@2@@std@@QEBAX_K@Z
pdata	ENDS
;	COMDAT pdata
pdata	SEGMENT
$pdata$?allocate@?$_Wrap_alloc@V?$allocator@D@std@@@std@@QEAAPEAD_K@Z DD imagerel $LN19
	DD	imagerel $LN19+83
	DD	imagerel $unwind$?allocate@?$_Wrap_alloc@V?$allocator@D@std@@@std@@QEAAPEAD_K@Z
pdata	ENDS
;	COMDAT pdata
pdata	SEGMENT
$pdata$?deallocate@?$_Wrap_alloc@V?$allocator@D@std@@@std@@QEAAXPEAD_K@Z DD imagerel $LN21
	DD	imagerel $LN21+81
	DD	imagerel $unwind$?deallocate@?$_Wrap_alloc@V?$allocator@D@std@@@std@@QEAAXPEAD_K@Z
pdata	ENDS
;	COMDAT pdata
pdata	SEGMENT
$pdata$?_Change_array@?$vector@DV?$allocator@D@std@@@std@@AEAAXQEAD_K1@Z DD imagerel $LN112
	DD	imagerel $LN112+156
	DD	imagerel $unwind$?_Change_array@?$vector@DV?$allocator@D@std@@@std@@AEAAXQEAD_K1@Z
pdata	ENDS
;	COMDAT pdata
pdata	SEGMENT
$pdata$?_Umove_if_noexcept@?$vector@UCard@@V?$allocator@UCard@@@std@@@std@@AEAAXPEAUCard@@00@Z DD imagerel $LN29
	DD	imagerel $LN29+26
	DD	imagerel $unwind$?_Umove_if_noexcept@?$vector@UCard@@V?$allocator@UCard@@@std@@@std@@AEAAXPEAUCard@@00@Z
pdata	ENDS
;	COMDAT pdata
pdata	SEGMENT
$pdata$?_Change_array@?$vector@UCard@@V?$allocator@UCard@@@std@@@std@@AEAAXQEAUCard@@_K1@Z DD imagerel $LN113
	DD	imagerel $LN113+183
	DD	imagerel $unwind$?_Change_array@?$vector@UCard@@V?$allocator@UCard@@@std@@@std@@AEAAXQEAUCard@@_K1@Z
pdata	ENDS
;	COMDAT pdata
pdata	SEGMENT
$pdata$?allocate@?$_Wrap_alloc@V?$allocator@UCard@@@std@@@std@@QEAAPEAUCard@@_K@Z DD imagerel $LN20
	DD	imagerel $LN20+108
	DD	imagerel $unwind$?allocate@?$_Wrap_alloc@V?$allocator@UCard@@@std@@@std@@QEAAPEAUCard@@_K@Z
pdata	ENDS
;	COMDAT pdata
pdata	SEGMENT
$pdata$?deallocate@?$_Wrap_alloc@V?$allocator@UCard@@@std@@@std@@QEAAXPEAUCard@@_K@Z DD imagerel $LN22
	DD	imagerel $LN22+105
	DD	imagerel $unwind$?deallocate@?$_Wrap_alloc@V?$allocator@UCard@@@std@@@std@@QEAAXPEAUCard@@_K@Z
pdata	ENDS
;	COMDAT pdata
pdata	SEGMENT
$pdata$?_Init@?$_Hash@V?$_Umap_traits@$$CBUCard@@HV?$_Uhash_compare@$$CBUCard@@UCardHash@@U?$equal_to@$$CBUCard@@@std@@@std@@V?$allocator@U?$pair@$$CBUCard@@H@std@@@3@$0A@@std@@@std@@IEAAX_K@Z DD imagerel $LN84
	DD	imagerel $LN84+141
	DD	imagerel $unwind$?_Init@?$_Hash@V?$_Umap_traits@$$CBUCard@@HV?$_Uhash_compare@$$CBUCard@@UCardHash@@U?$equal_to@$$CBUCard@@@std@@@std@@V?$allocator@U?$pair@$$CBUCard@@H@std@@@3@$0A@@std@@@std@@IEAAX_K@Z
pdata	ENDS
;	COMDAT pdata
pdata	SEGMENT
$pdata$??0?$list@U?$pair@$$CBUCard@@H@std@@V?$allocator@U?$pair@$$CBUCard@@H@std@@@2@@std@@QEAA@AEBV?$allocator@U?$pair@$$CBUCard@@H@std@@@1@@Z DD imagerel $LN34
	DD	imagerel $LN34+40
	DD	imagerel $unwind$??0?$list@U?$pair@$$CBUCard@@H@std@@V?$allocator@U?$pair@$$CBUCard@@H@std@@@2@@std@@QEAA@AEBV?$allocator@U?$pair@$$CBUCard@@H@std@@@1@@Z
pdata	ENDS
;	COMDAT pdata
pdata	SEGMENT
$pdata$?_Tidy@?$list@U?$pair@$$CBUCard@@H@std@@V?$allocator@U?$pair@$$CBUCard@@H@std@@@2@@std@@QEAAXXZ DD imagerel $LN162
	DD	imagerel $LN162+38
	DD	imagerel $unwind$?_Tidy@?$list@U?$pair@$$CBUCard@@H@std@@V?$allocator@U?$pair@$$CBUCard@@H@std@@@2@@std@@QEAAXXZ
pdata	ENDS
;	COMDAT pdata
pdata	SEGMENT
$pdata$0$?_Tidy@?$list@U?$pair@$$CBUCard@@H@std@@V?$allocator@U?$pair@$$CBUCard@@H@std@@@2@@std@@QEAAXXZ DD imagerel $LN162+38
	DD	imagerel $LN162+69
	DD	imagerel $chain$0$?_Tidy@?$list@U?$pair@$$CBUCard@@H@std@@V?$allocator@U?$pair@$$CBUCard@@H@std@@@2@@std@@QEAAXXZ
pdata	ENDS
;	COMDAT pdata
pdata	SEGMENT
$pdata$1$?_Tidy@?$list@U?$pair@$$CBUCard@@H@std@@V?$allocator@U?$pair@$$CBUCard@@H@std@@@2@@std@@QEAAXXZ DD imagerel $LN162+69
	DD	imagerel $LN162+75
	DD	imagerel $chain$1$?_Tidy@?$list@U?$pair@$$CBUCard@@H@std@@V?$allocator@U?$pair@$$CBUCard@@H@std@@@2@@std@@QEAAXXZ
pdata	ENDS
;	COMDAT pdata
pdata	SEGMENT
$pdata$?_Tidy@?$vector@V?$_List_unchecked_iterator@V?$_List_val@U?$_List_simple_types@U?$pair@$$CBUCard@@H@std@@@std@@@std@@@std@@U?$_Wrap_alloc@V?$allocator@V?$_List_unchecked_iterator@V?$_List_val@U?$_List_simple_types@U?$pair@$$CBUCard@@H@std@@@std@@@std@@@std@@@std@@@2@@std@@AEAAXXZ DD imagerel $LN116
	DD	imagerel $LN116+145
	DD	imagerel $unwind$?_Tidy@?$vector@V?$_List_unchecked_iterator@V?$_List_val@U?$_List_simple_types@U?$pair@$$CBUCard@@H@std@@@std@@@std@@@std@@U?$_Wrap_alloc@V?$allocator@V?$_List_unchecked_iterator@V?$_List_val@U?$_List_simple_types@U?$pair@$$CBUCard@@H@std@@@std@@@std@@@std@@@std@@@2@@std@@AEAAXXZ
pdata	ENDS
;	COMDAT pdata
pdata	SEGMENT
$pdata$?_Assign_rv_contents@?$basic_string@DU?$char_traits@D@std@@V?$allocator@D@2@@std@@QEAAX$$QEAV12@@Z DD imagerel $LN62
	DD	imagerel $LN62+101
	DD	imagerel $unwind$?_Assign_rv_contents@?$basic_string@DU?$char_traits@D@std@@V?$allocator@D@2@@std@@QEAAX$$QEAV12@@Z
pdata	ENDS
;	COMDAT pdata
pdata	SEGMENT
$pdata$?assign@?$basic_string@DU?$char_traits@D@std@@V?$allocator@D@2@@std@@QEAAAEAV12@QEBD_K@Z DD imagerel $LN112
	DD	imagerel $LN112+246
	DD	imagerel $unwind$?assign@?$basic_string@DU?$char_traits@D@std@@V?$allocator@D@2@@std@@QEAAAEAV12@QEBD_K@Z
pdata	ENDS
;	COMDAT pdata
pdata	SEGMENT
$pdata$?_Tidy_deallocate_only@?$basic_string@DU?$char_traits@D@std@@V?$allocator@D@2@@std@@QEAAXXZ DD imagerel $LN42
	DD	imagerel $LN42+98
	DD	imagerel $unwind$?_Tidy_deallocate_only@?$basic_string@DU?$char_traits@D@std@@V?$allocator@D@2@@std@@QEAAXXZ
pdata	ENDS
;	COMDAT pdata
pdata	SEGMENT
$pdata$?_Reallocate_exactly@?$vector@DV?$allocator@D@std@@@std@@AEAAX_K@Z DD imagerel $LN99
	DD	imagerel $LN99+100
	DD	imagerel $unwind$?_Reallocate_exactly@?$vector@DV?$allocator@D@std@@@std@@AEAAX_K@Z
pdata	ENDS
;	COMDAT pdata
pdata	SEGMENT
$pdata$?_Udefault@?$vector@DV?$allocator@D@std@@@std@@AEAAPEADPEAD_K@Z DD imagerel $LN14
	DD	imagerel $LN14+41
	DD	imagerel $unwind$?_Udefault@?$vector@DV?$allocator@D@std@@@std@@AEAAPEADPEAD_K@Z
pdata	ENDS
;	COMDAT pdata
pdata	SEGMENT
$pdata$?_Buy@?$vector@DV?$allocator@D@std@@@std@@AEAA_N_K@Z DD imagerel $LN120
	DD	imagerel $LN120+119
	DD	imagerel $unwind$?_Buy@?$vector@DV?$allocator@D@std@@@std@@AEAA_N_K@Z
pdata	ENDS
;	COMDAT pdata
pdata	SEGMENT
$pdata$?_Tidy@?$vector@DV?$allocator@D@std@@@std@@AEAAXXZ DD imagerel $LN112
	DD	imagerel $LN112+112
	DD	imagerel $unwind$?_Tidy@?$vector@DV?$allocator@D@std@@@std@@AEAAXXZ
pdata	ENDS
;	COMDAT pdata
pdata	SEGMENT
$pdata$?_Xlength@?$vector@DV?$allocator@D@std@@@std@@CAXXZ DD imagerel $LN4
	DD	imagerel $LN4+17
	DD	imagerel $unwind$?_Xlength@?$vector@DV?$allocator@D@std@@@std@@CAXXZ
pdata	ENDS
;	COMDAT pdata
pdata	SEGMENT
$pdata$?_Reallocate_exactly@?$vector@UCard@@V?$allocator@UCard@@@std@@@std@@AEAAX_K@Z DD imagerel $LN100
	DD	imagerel $LN100+167
	DD	imagerel $unwind$?_Reallocate_exactly@?$vector@UCard@@V?$allocator@UCard@@@std@@@std@@AEAAX_K@Z
pdata	ENDS
;	COMDAT pdata
pdata	SEGMENT
$pdata$?_Tidy@?$vector@UCard@@V?$allocator@UCard@@@std@@@std@@AEAAXXZ DD imagerel $LN113
	DD	imagerel $LN113+139
	DD	imagerel $unwind$?_Tidy@?$vector@UCard@@V?$allocator@UCard@@@std@@@std@@AEAAXXZ
pdata	ENDS
;	COMDAT pdata
pdata	SEGMENT
$pdata$?_Xlength@?$vector@UCard@@V?$allocator@UCard@@@std@@@std@@CAXXZ DD imagerel $LN4
	DD	imagerel $LN4+17
	DD	imagerel $unwind$?_Xlength@?$vector@UCard@@V?$allocator@UCard@@@std@@@std@@CAXXZ
pdata	ENDS
;	COMDAT pdata
pdata	SEGMENT
$pdata$??0?$_Hash@V?$_Umap_traits@$$CBUCard@@HV?$_Uhash_compare@$$CBUCard@@UCardHash@@U?$equal_to@$$CBUCard@@@std@@@std@@V?$allocator@U?$pair@$$CBUCard@@H@std@@@3@$0A@@std@@@std@@QEAA@AEBV?$_Uhash_compare@$$CBUCard@@UCardHash@@U?$equal_to@$$CBUCard@@@std@@@1@AEBV?$allocator@U?$pair@$$CBUCard@@H@std@@@1@@Z DD imagerel $LN66
	DD	imagerel $LN66+116
	DD	imagerel $unwind$??0?$_Hash@V?$_Umap_traits@$$CBUCard@@HV?$_Uhash_compare@$$CBUCard@@UCardHash@@U?$equal_to@$$CBUCard@@@std@@@std@@V?$allocator@U?$pair@$$CBUCard@@H@std@@@3@$0A@@std@@@std@@QEAA@AEBV?$_Uhash_compare@$$CBUCard@@UCardHash@@U?$equal_to@$$CBUCard@@@std@@@1@AEBV?$allocator@U?$pair@$$CBUCard@@H@std@@@1@@Z
pdata	ENDS
;	COMDAT pdata
pdata	SEGMENT
$pdata$??1?$list@U?$pair@$$CBUCard@@H@std@@V?$allocator@U?$pair@$$CBUCard@@H@std@@@2@@std@@QEAA@XZ DD imagerel $LN231
	DD	imagerel $LN231+38
	DD	imagerel $unwind$??1?$list@U?$pair@$$CBUCard@@H@std@@V?$allocator@U?$pair@$$CBUCard@@H@std@@@2@@std@@QEAA@XZ
pdata	ENDS
;	COMDAT pdata
pdata	SEGMENT
$pdata$0$??1?$list@U?$pair@$$CBUCard@@H@std@@V?$allocator@U?$pair@$$CBUCard@@H@std@@@2@@std@@QEAA@XZ DD imagerel $LN231+38
	DD	imagerel $LN231+69
	DD	imagerel $chain$0$??1?$list@U?$pair@$$CBUCard@@H@std@@V?$allocator@U?$pair@$$CBUCard@@H@std@@@2@@std@@QEAA@XZ
pdata	ENDS
;	COMDAT pdata
pdata	SEGMENT
$pdata$1$??1?$list@U?$pair@$$CBUCard@@H@std@@V?$allocator@U?$pair@$$CBUCard@@H@std@@@2@@std@@QEAA@XZ DD imagerel $LN231+69
	DD	imagerel $LN231+82
	DD	imagerel $chain$1$??1?$list@U?$pair@$$CBUCard@@H@std@@V?$allocator@U?$pair@$$CBUCard@@H@std@@@2@@std@@QEAA@XZ
pdata	ENDS
;	COMDAT pdata
pdata	SEGMENT
$pdata$??0?$basic_string@DU?$char_traits@D@std@@V?$allocator@D@2@@std@@QEAA@QEBD@Z DD imagerel $LN27
	DD	imagerel $LN27+56
	DD	imagerel $unwind$??0?$basic_string@DU?$char_traits@D@std@@V?$allocator@D@2@@std@@QEAA@QEBD@Z
pdata	ENDS
;	COMDAT pdata
pdata	SEGMENT
$pdata$??0?$basic_string@DU?$char_traits@D@std@@V?$allocator@D@2@@std@@QEAA@$$QEAV01@@Z DD imagerel $LN99
	DD	imagerel $LN99+118
	DD	imagerel $unwind$??0?$basic_string@DU?$char_traits@D@std@@V?$allocator@D@2@@std@@QEAA@$$QEAV01@@Z
pdata	ENDS
;	COMDAT pdata
pdata	SEGMENT
$pdata$??1?$basic_string@DU?$char_traits@D@std@@V?$allocator@D@2@@std@@QEAA@XZ DD imagerel $LN45
	DD	imagerel $LN45+98
	DD	imagerel $unwind$??1?$basic_string@DU?$char_traits@D@std@@V?$allocator@D@2@@std@@QEAA@XZ
pdata	ENDS
;	COMDAT pdata
pdata	SEGMENT
$pdata$??0?$vector@DV?$allocator@D@std@@@std@@QEAA@_KAEBV?$allocator@D@1@@Z DD imagerel $LN171
	DD	imagerel $LN171+167
	DD	imagerel $unwind$??0?$vector@DV?$allocator@D@std@@@std@@QEAA@_KAEBV?$allocator@D@1@@Z
pdata	ENDS
;	COMDAT pdata
pdata	SEGMENT
$pdata$??4?$vector@DV?$allocator@D@std@@@std@@QEAAAEAV01@$$QEAV01@@Z DD imagerel $LN98
	DD	imagerel $LN98+75
	DD	imagerel $unwind$??4?$vector@DV?$allocator@D@std@@@std@@QEAAAEAV01@$$QEAV01@@Z
pdata	ENDS
;	COMDAT pdata
pdata	SEGMENT
$pdata$??1?$vector@DV?$allocator@D@std@@@std@@QEAA@XZ DD imagerel $LN115
	DD	imagerel $LN115+112
	DD	imagerel $unwind$??1?$vector@DV?$allocator@D@std@@@std@@QEAA@XZ
pdata	ENDS
;	COMDAT pdata
pdata	SEGMENT
$pdata$?reserve@?$vector@UCard@@V?$allocator@UCard@@@std@@@std@@QEAAX_K@Z DD imagerel $LN47
	DD	imagerel $LN47+54
	DD	imagerel $unwind$?reserve@?$vector@UCard@@V?$allocator@UCard@@@std@@@std@@QEAAX_K@Z
pdata	ENDS
;	COMDAT pdata
pdata	SEGMENT
$pdata$??0?$unordered_map@$$CBUCard@@HUCardHash@@U?$equal_to@$$CBUCard@@@std@@V?$allocator@U?$pair@$$CBUCard@@H@std@@@4@@std@@QEAA@XZ DD imagerel $LN96
	DD	imagerel $LN96+114
	DD	imagerel $unwind$??0?$unordered_map@$$CBUCard@@HUCardHash@@U?$equal_to@$$CBUCard@@@std@@V?$allocator@U?$pair@$$CBUCard@@H@std@@@4@@std@@QEAA@XZ
pdata	ENDS
;	COMDAT pdata
pdata	SEGMENT
$pdata$??A?$unordered_map@$$CBUCard@@HUCardHash@@U?$equal_to@$$CBUCard@@@std@@V?$allocator@U?$pair@$$CBUCard@@H@std@@@4@@std@@QEAAAEAHAEBUCard@@@Z DD imagerel $LN19
	DD	imagerel $LN19+31
	DD	imagerel $unwind$??A?$unordered_map@$$CBUCard@@HUCardHash@@U?$equal_to@$$CBUCard@@@std@@V?$allocator@U?$pair@$$CBUCard@@H@std@@@4@@std@@QEAAAEAHAEBUCard@@@Z
pdata	ENDS
;	COMDAT pdata
pdata	SEGMENT
$pdata$??1?$_Hash@V?$_Umap_traits@$$CBUCard@@HV?$_Uhash_compare@$$CBUCard@@UCardHash@@U?$equal_to@$$CBUCard@@@std@@@std@@V?$allocator@U?$pair@$$CBUCard@@H@std@@@3@$0A@@std@@@std@@QEAA@XZ DD imagerel $LN238
	DD	imagerel $LN238+50
	DD	imagerel $unwind$??1?$_Hash@V?$_Umap_traits@$$CBUCard@@HV?$_Uhash_compare@$$CBUCard@@UCardHash@@U?$equal_to@$$CBUCard@@@std@@@std@@V?$allocator@U?$pair@$$CBUCard@@H@std@@@3@$0A@@std@@@std@@QEAA@XZ
pdata	ENDS
;	COMDAT pdata
pdata	SEGMENT
$pdata$0$??1?$_Hash@V?$_Umap_traits@$$CBUCard@@HV?$_Uhash_compare@$$CBUCard@@UCardHash@@U?$equal_to@$$CBUCard@@@std@@@std@@V?$allocator@U?$pair@$$CBUCard@@H@std@@@3@$0A@@std@@@std@@QEAA@XZ DD imagerel $LN238+50
	DD	imagerel $LN238+77
	DD	imagerel $chain$0$??1?$_Hash@V?$_Umap_traits@$$CBUCard@@HV?$_Uhash_compare@$$CBUCard@@UCardHash@@U?$equal_to@$$CBUCard@@@std@@@std@@V?$allocator@U?$pair@$$CBUCard@@H@std@@@3@$0A@@std@@@std@@QEAA@XZ
pdata	ENDS
;	COMDAT pdata
pdata	SEGMENT
$pdata$1$??1?$_Hash@V?$_Umap_traits@$$CBUCard@@HV?$_Uhash_compare@$$CBUCard@@UCardHash@@U?$equal_to@$$CBUCard@@@std@@@std@@V?$allocator@U?$pair@$$CBUCard@@H@std@@@3@$0A@@std@@@std@@QEAA@XZ DD imagerel $LN238+77
	DD	imagerel $LN238+91
	DD	imagerel $chain$1$??1?$_Hash@V?$_Umap_traits@$$CBUCard@@HV?$_Uhash_compare@$$CBUCard@@UCardHash@@U?$equal_to@$$CBUCard@@@std@@@std@@V?$allocator@U?$pair@$$CBUCard@@H@std@@@3@$0A@@std@@@std@@QEAA@XZ
pdata	ENDS
;	COMDAT pdata
pdata	SEGMENT
$pdata$??1?$unordered_map@$$CBUCard@@HUCardHash@@U?$equal_to@$$CBUCard@@@std@@V?$allocator@U?$pair@$$CBUCard@@H@std@@@4@@std@@QEAA@XZ DD imagerel $LN242
	DD	imagerel $LN242+50
	DD	imagerel $unwind$??1?$unordered_map@$$CBUCard@@HUCardHash@@U?$equal_to@$$CBUCard@@@std@@V?$allocator@U?$pair@$$CBUCard@@H@std@@@4@@std@@QEAA@XZ
pdata	ENDS
;	COMDAT pdata
pdata	SEGMENT
$pdata$0$??1?$unordered_map@$$CBUCard@@HUCardHash@@U?$equal_to@$$CBUCard@@@std@@V?$allocator@U?$pair@$$CBUCard@@H@std@@@4@@std@@QEAA@XZ DD imagerel $LN242+50
	DD	imagerel $LN242+77
	DD	imagerel $chain$0$??1?$unordered_map@$$CBUCard@@HUCardHash@@U?$equal_to@$$CBUCard@@@std@@V?$allocator@U?$pair@$$CBUCard@@H@std@@@4@@std@@QEAA@XZ
pdata	ENDS
;	COMDAT pdata
pdata	SEGMENT
$pdata$1$??1?$unordered_map@$$CBUCard@@HUCardHash@@U?$equal_to@$$CBUCard@@@std@@V?$allocator@U?$pair@$$CBUCard@@H@std@@@4@@std@@QEAA@XZ DD imagerel $LN242+77
	DD	imagerel $LN242+91
	DD	imagerel $chain$1$??1?$unordered_map@$$CBUCard@@HUCardHash@@U?$equal_to@$$CBUCard@@@std@@V?$allocator@U?$pair@$$CBUCard@@H@std@@@4@@std@@QEAA@XZ
pdata	ENDS
;	COMDAT pdata
pdata	SEGMENT
$pdata$??R<lambda_771619969f232a159adf3e328d064436>@@QEBAHV?$Span@D@myio@@@Z DD imagerel ??R<lambda_771619969f232a159adf3e328d064436>@@QEBAHV?$Span@D@myio@@@Z
	DD	imagerel ??R<lambda_771619969f232a159adf3e328d064436>@@QEBAHV?$Span@D@myio@@@Z+67
	DD	imagerel $unwind$??R<lambda_771619969f232a159adf3e328d064436>@@QEBAHV?$Span@D@myio@@@Z
pdata	ENDS
pdata	SEGMENT
$pdata$main DD	imagerel $LN2115
	DD	imagerel $LN2115+1831
	DD	imagerel $unwind$main
pdata	ENDS
pdata	SEGMENT
$pdata$main$catch$443 DD imagerel main$catch$443
	DD	imagerel main$catch$443+134
	DD	imagerel $unwind$main$catch$443
pdata	ENDS
pdata	SEGMENT
$pdata$?toString@@YA?AV?$basic_string@DU?$char_traits@D@std@@V?$allocator@D@2@@std@@AEBUCard@@@Z DD imagerel $LN117
	DD	imagerel $LN117+341
	DD	imagerel $unwind$?toString@@YA?AV?$basic_string@DU?$char_traits@D@std@@V?$allocator@D@2@@std@@AEBUCard@@@Z
$pdata$?read_cards@@YA?AV?$vector@UCard@@V?$allocator@UCard@@@std@@@std@@AEBV?$Span@D@myio@@@Z DD imagerel $LN178
	DD	imagerel $LN178+340
	DD	imagerel $unwind$?read_cards@@YA?AV?$vector@UCard@@V?$allocator@UCard@@@std@@@std@@AEBV?$Span@D@myio@@@Z
pdata	ENDS
pdata	SEGMENT
$pdata$?dtor$0@?0??read_cards@@YA?AV?$vector@UCard@@V?$allocator@UCard@@@std@@@std@@AEBV?$Span@D@myio@@@Z@4HA DD imagerel ?dtor$0@?0??read_cards@@YA?AV?$vector@UCard@@V?$allocator@UCard@@@std@@@std@@AEBV?$Span@D@myio@@@Z@4HA
	DD	imagerel ?dtor$0@?0??read_cards@@YA?AV?$vector@UCard@@V?$allocator@UCard@@@std@@@std@@AEBV?$Span@D@myio@@@Z@4HA+38
	DD	imagerel $unwind$?dtor$0@?0??read_cards@@YA?AV?$vector@UCard@@V?$allocator@UCard@@@std@@@std@@AEBV?$Span@D@myio@@@Z@4HA
pdata	ENDS
pdata	SEGMENT
$pdata$?read_all_bytes@myio@@YA?AV?$vector@DV?$allocator@D@std@@@std@@V?$basic_string@DU?$char_traits@D@std@@V?$allocator@D@2@@3@@Z DD imagerel $LN77
	DD	imagerel $LN77+341
	DD	imagerel $unwind$?read_all_bytes@myio@@YA?AV?$vector@DV?$allocator@D@std@@@std@@V?$basic_string@DU?$char_traits@D@std@@V?$allocator@D@2@@3@@Z
$pdata$?read_all_bytes@myio@@YA?AV?$vector@DV?$allocator@D@std@@@std@@AEAVCFile@1@@Z DD imagerel $LN205
	DD	imagerel $LN205+241
	DD	imagerel $unwind$?read_all_bytes@myio@@YA?AV?$vector@DV?$allocator@D@std@@@std@@AEAVCFile@1@@Z
pdata	ENDS
;	COMDAT pdata
pdata	SEGMENT
$pdata$?error@CFile@myio@@QEBA_NXZ DD imagerel $LN4
	DD	imagerel $LN4+22
	DD	imagerel $unwind$?error@CFile@myio@@QEBA_NXZ
pdata	ENDS
;	COMDAT pdata
pdata	SEGMENT
$pdata$?eof@CFile@myio@@QEBA_NXZ DD imagerel $LN4
	DD	imagerel $LN4+22
	DD	imagerel $unwind$?eof@CFile@myio@@QEBA_NXZ
pdata	ENDS
;	COMDAT pdata
pdata	SEGMENT
$pdata$?tell@CFile@myio@@QEBA_KXZ DD imagerel $LN4
	DD	imagerel $LN4+19
	DD	imagerel $unwind$?tell@CFile@myio@@QEBA_KXZ
pdata	ENDS
;	COMDAT pdata
pdata	SEGMENT
$pdata$?seek@CFile@myio@@QEAA_NJW4Seek@2@@Z DD imagerel $LN4
	DD	imagerel $LN4+24
	DD	imagerel $unwind$?seek@CFile@myio@@QEAA_NJW4Seek@2@@Z
pdata	ENDS
;	COMDAT pdata
pdata	SEGMENT
$pdata$??0CFile@myio@@QEAA@PEBD0@Z DD imagerel $LN7
	DD	imagerel $LN7+168
	DD	imagerel $unwind$??0CFile@myio@@QEAA@PEBD0@Z
pdata	ENDS
;	COMDAT pdata
pdata	SEGMENT
$pdata$??0runtime_error@std@@QEAA@AEBV01@@Z DD imagerel $LN6
	DD	imagerel $LN6+63
	DD	imagerel $unwind$??0runtime_error@std@@QEAA@AEBV01@@Z
pdata	ENDS
;	COMDAT pdata
pdata	SEGMENT
$pdata$??_Gruntime_error@std@@UEAAPEAXI@Z DD imagerel $LN11
	DD	imagerel $LN11+66
	DD	imagerel $unwind$??_Gruntime_error@std@@UEAAPEAXI@Z
pdata	ENDS
;	COMDAT pdata
pdata	SEGMENT
$pdata$??0runtime_error@std@@QEAA@PEBD@Z DD imagerel $LN6
	DD	imagerel $LN6+74
	DD	imagerel $unwind$??0runtime_error@std@@QEAA@PEBD@Z
pdata	ENDS
;	COMDAT pdata
pdata	SEGMENT
$pdata$?_Deallocate@std@@YAXPEAX_K1@Z DD imagerel $LN16
	DD	imagerel $LN16+105
	DD	imagerel $unwind$?_Deallocate@std@@YAXPEAX_K1@Z
pdata	ENDS
;	COMDAT pdata
pdata	SEGMENT
$pdata$?_Allocate@std@@YAPEAX_K0_N@Z DD imagerel $LN14
	DD	imagerel $LN14+108
	DD	imagerel $unwind$?_Allocate@std@@YAPEAX_K0_N@Z
pdata	ENDS
;	COMDAT pdata
pdata	SEGMENT
$pdata$?copy@?$char_traits@D@std@@SAPEADQEADQEBD_K@Z DD imagerel $LN4
	DD	imagerel $LN4+23
	DD	imagerel $unwind$?copy@?$char_traits@D@std@@SAPEADQEADQEBD_K@Z
pdata	ENDS
;	COMDAT pdata
pdata	SEGMENT
$pdata$?compare@?$char_traits@D@std@@SAHQEBD0_K@Z DD imagerel $LN4
	DD	imagerel $LN4+14
	DD	imagerel $unwind$?compare@?$char_traits@D@std@@SAHQEBD0_K@Z
pdata	ENDS
;	COMDAT pdata
pdata	SEGMENT
$pdata$??_Gexception@std@@UEAAPEAXI@Z DD imagerel $LN8
	DD	imagerel $LN8+66
	DD	imagerel $unwind$??_Gexception@std@@UEAAPEAXI@Z
pdata	ENDS
;	COMDAT pdata
pdata	SEGMENT
$pdata$??0exception@std@@QEAA@AEBV01@@Z DD imagerel $LN4
	DD	imagerel $LN4+53
	DD	imagerel $unwind$??0exception@std@@QEAA@AEBV01@@Z
pdata	ENDS
;	COMDAT pdata
pdata	SEGMENT
$pdata$??0exception@std@@QEAA@QEBD@Z DD imagerel $LN4
	DD	imagerel $LN4+64
	DD	imagerel $unwind$??0exception@std@@QEAA@QEBD@Z
pdata	ENDS
;	COMDAT pdata
pdata	SEGMENT
$pdata$printf DD imagerel $LN8
	DD	imagerel $LN8+83
	DD	imagerel $unwind$printf
pdata	ENDS
;	COMDAT pdata
pdata	SEGMENT
$pdata$fprintf DD imagerel $LN8
	DD	imagerel $LN8+68
	DD	imagerel $unwind$fprintf
pdata	ENDS
;	COMDAT pdata
pdata	SEGMENT
$pdata$_vfprintf_l DD imagerel $LN4
	DD	imagerel $LN4+67
	DD	imagerel $unwind$_vfprintf_l
pdata	ENDS
;	COMDAT __real@5f800000
CONST	SEGMENT
__real@5f800000 DD 05f800000r			; 1.84467e+19
CONST	ENDS
;	COMDAT __real@3f800000
CONST	SEGMENT
__real@3f800000 DD 03f800000r			; 1
CONST	ENDS
;	COMDAT xdata
xdata	SEGMENT
$unwind$_vfprintf_l DD 060f01H
	DD	09640fH
	DD	08340fH
	DD	0700b520fH
xdata	ENDS
;	COMDAT xdata
xdata	SEGMENT
$unwind$fprintf DD 041601H
	DD	070125216H
	DD	030106011H
xdata	ENDS
;	COMDAT xdata
xdata	SEGMENT
$unwind$printf DD 041b01H
	DD	07017521bH
	DD	030156016H
xdata	ENDS
;	COMDAT xdata
xdata	SEGMENT
$unwind$??0exception@std@@QEAA@QEBD@Z DD 020601H
	DD	030025206H
xdata	ENDS
;	COMDAT xdata
xdata	SEGMENT
$unwind$??0exception@std@@QEAA@AEBV01@@Z DD 020601H
	DD	030023206H
xdata	ENDS
;	COMDAT xdata
xdata	SEGMENT
$unwind$??_Gexception@std@@UEAAPEAXI@Z DD 040a01H
	DD	06340aH
	DD	07006320aH
xdata	ENDS
;	COMDAT xdata
xdata	SEGMENT
$unwind$?compare@?$char_traits@D@std@@SAHQEBD0_K@Z DD 010401H
	DD	04204H
xdata	ENDS
;	COMDAT xdata
xdata	SEGMENT
$unwind$?copy@?$char_traits@D@std@@SAPEADQEADQEBD_K@Z DD 020601H
	DD	030023206H
xdata	ENDS
;	COMDAT xdata
xdata	SEGMENT
$unwind$?_Allocate@std@@YAPEAX_K0_N@Z DD 010401H
	DD	04204H
xdata	ENDS
;	COMDAT xdata
xdata	SEGMENT
$unwind$?_Deallocate@std@@YAXPEAX_K1@Z DD 010401H
	DD	04204H
xdata	ENDS
;	COMDAT xdata
xdata	SEGMENT
$unwind$??0runtime_error@std@@QEAA@PEBD@Z DD 020601H
	DD	030025206H
xdata	ENDS
;	COMDAT xdata
xdata	SEGMENT
$unwind$??_Gruntime_error@std@@UEAAPEAXI@Z DD 040a01H
	DD	06340aH
	DD	07006320aH
xdata	ENDS
;	COMDAT xdata
xdata	SEGMENT
$unwind$??0runtime_error@std@@QEAA@AEBV01@@Z DD 020601H
	DD	030023206H
xdata	ENDS
;	COMDAT xdata
xdata	SEGMENT
$unwind$??0CFile@myio@@QEAA@PEBD0@Z DD 051f19H
	DD	04e340dH
	DD	04a010dH
	DD	07006H
	DD	imagerel __GSHandlerCheck
	DD	0240H
xdata	ENDS
;	COMDAT xdata
xdata	SEGMENT
$unwind$?seek@CFile@myio@@QEAA_NJW4Seek@2@@Z DD 010401H
	DD	04204H
xdata	ENDS
;	COMDAT xdata
xdata	SEGMENT
$unwind$?tell@CFile@myio@@QEBA_KXZ DD 010401H
	DD	04204H
xdata	ENDS
;	COMDAT xdata
xdata	SEGMENT
$unwind$?eof@CFile@myio@@QEBA_NXZ DD 010401H
	DD	04204H
xdata	ENDS
;	COMDAT xdata
xdata	SEGMENT
$unwind$?error@CFile@myio@@QEBA_NXZ DD 010401H
	DD	04204H
$cppxdata$main DD 019930522H
	DD	09H
	DD	imagerel $stateUnwindMap$main
	DD	01H
	DD	imagerel $tryMap$main
	DD	012H
	DD	imagerel $ip2state$main
	DD	0a8H
	DD	00H
	DD	01H
$cppxdata$?toString@@YA?AV?$basic_string@DU?$char_traits@D@std@@V?$allocator@D@2@@std@@AEBUCard@@@Z DD 019930522H
	DD	02H
	DD	imagerel $stateUnwindMap$?toString@@YA?AV?$basic_string@DU?$char_traits@D@std@@V?$allocator@D@2@@std@@AEBUCard@@@Z
	DD	00H
	DD	00H
	DD	05H
	DD	imagerel $ip2state$?toString@@YA?AV?$basic_string@DU?$char_traits@D@std@@V?$allocator@D@2@@std@@AEBUCard@@@Z
	DD	028H
	DD	00H
	DD	01H
$cppxdata$?read_cards@@YA?AV?$vector@UCard@@V?$allocator@UCard@@@std@@@std@@AEBV?$Span@D@myio@@@Z DD 019930522H
	DD	01H
	DD	imagerel $stateUnwindMap$?read_cards@@YA?AV?$vector@UCard@@V?$allocator@UCard@@@std@@@std@@AEBV?$Span@D@myio@@@Z
	DD	00H
	DD	00H
	DD	02H
	DD	imagerel $ip2state$?read_cards@@YA?AV?$vector@UCard@@V?$allocator@UCard@@@std@@@std@@AEBV?$Span@D@myio@@@Z
	DD	028H
	DD	00H
	DD	01H
$cppxdata$?read_all_bytes@myio@@YA?AV?$vector@DV?$allocator@D@std@@@std@@V?$basic_string@DU?$char_traits@D@std@@V?$allocator@D@2@@3@@Z DD 019930522H
	DD	02H
	DD	imagerel $stateUnwindMap$?read_all_bytes@myio@@YA?AV?$vector@DV?$allocator@D@std@@@std@@V?$basic_string@DU?$char_traits@D@std@@V?$allocator@D@2@@3@@Z
	DD	00H
	DD	00H
	DD	05H
	DD	imagerel $ip2state$?read_all_bytes@myio@@YA?AV?$vector@DV?$allocator@D@std@@@std@@V?$basic_string@DU?$char_traits@D@std@@V?$allocator@D@2@@3@@Z
	DD	038H
	DD	00H
	DD	01H
$cppxdata$?read_all_bytes@myio@@YA?AV?$vector@DV?$allocator@D@std@@@std@@AEAVCFile@1@@Z DD 019930522H
	DD	01H
	DD	imagerel $stateUnwindMap$?read_all_bytes@myio@@YA?AV?$vector@DV?$allocator@D@std@@@std@@AEAVCFile@1@@Z
	DD	00H
	DD	00H
	DD	03H
	DD	imagerel $ip2state$?read_all_bytes@myio@@YA?AV?$vector@DV?$allocator@D@std@@@std@@AEAVCFile@1@@Z
	DD	028H
	DD	00H
	DD	01H
CONST	ENDS
xdata	SEGMENT
$unwind$main DD	0b3519H
	DD	0286423H
	DD	026341fH
	DD	0200113H
	DD	0e00af00cH
	DD	0c006d008H
	DD	07004H
	DD	imagerel __GSHandlerCheck_EH
	DD	imagerel $cppxdata$main
	DD	0fbH
$stateUnwindMap$main DD 0ffffffffH
	DD	00H
	DD	00H
	DD	imagerel main$dtor$0
	DD	01H
	DD	imagerel main$dtor$1
	DD	01H
	DD	imagerel main$dtor$3
	DD	01H
	DD	imagerel main$dtor$6
	DD	04H
	DD	imagerel main$dtor$188
	DD	05H
	DD	imagerel main$dtor$189
	DD	04H
	DD	imagerel main$dtor$7
	DD	0ffffffffH
	DD	00H
$tryMap$main DD	00H
	DD	07H
	DD	08H
	DD	01H
	DD	imagerel $handlerMap$0$main
$handlerMap$0$main DD 08H
	DD	FLAT:??_R0?AVruntime_error@std@@@8
	DD	0b0H
	DD	imagerel main$catch$443
	DD	058H
$ip2state$main DD imagerel main
	DD	0ffffffffH
	DD	imagerel main+125
	DD	00H
	DD	imagerel main+142
	DD	01H
	DD	imagerel main+214
	DD	02H
	DD	imagerel main+481
	DD	01H
	DD	imagerel main+628
	DD	03H
