; Listing generated by Microsoft (R) Optimizing Compiler Version 19.00.24224.0 

include listing.inc

INCLUDELIB OLDNAMES

PUBLIC	??_C@_0BC@EOODALEL@Unknown?5exception?$AA@	; `string'
PUBLIC	??_C@_08EPJLHIJG@bad?5cast?$AA@			; `string'
PUBLIC	??_C@_0BA@ELKIONDK@bad?5locale?5name?$AA@	; `string'
PUBLIC	??_C@_00CNPNBAHC@?$AA@				; `string'
PUBLIC	??_C@_02LMMGGCAJ@?3?5?$AA@			; `string'
PUBLIC	??_C@_07DCLBNMLN@generic?$AA@			; `string'
PUBLIC	??_C@_08LLGCOLLL@iostream?$AA@			; `string'
PUBLIC	??_C@_0BG@PADBLCHM@iostream?5stream?5error?$AA@	; `string'
PUBLIC	??_C@_0BF@PHHKMMFD@ios_base?3?3badbit?5set?$AA@	; `string'
PUBLIC	??_C@_0BG@FMKFHCIL@ios_base?3?3failbit?5set?$AA@ ; `string'
PUBLIC	??_C@_0BF@OOHOMBOF@ios_base?3?3eofbit?5set?$AA@	; `string'
PUBLIC	??_C@_0BA@JFNIOLAK@string?5too?5long?$AA@	; `string'
PUBLIC	??_C@_0BI@CFPLBAOH@invalid?5string?5position?$AA@ ; `string'
PUBLIC	??_R0?AVfailure@ios_base@std@@@8		; std::ios_base::failure `RTTI Type Descriptor'
PUBLIC	??_R0?AVruntime_error@std@@@8			; std::runtime_error `RTTI Type Descriptor'
PUBLIC	??_R4exception@std@@6B@				; std::exception::`RTTI Complete Object Locator'
PUBLIC	??_R2system_error@std@@8			; std::system_error::`RTTI Base Class Array'
PUBLIC	??_R4facet@locale@std@@6B@			; std::locale::facet::`RTTI Complete Object Locator'
PUBLIC	??_R1A@?0A@EA@system_error@std@@8		; std::system_error::`RTTI Base Class Descriptor at (0,-1,0,64)'
PUBLIC	??_R3?$ctype@D@std@@8				; std::ctype<char>::`RTTI Class Hierarchy Descriptor'
PUBLIC	??_R1A@?0A@EA@_Iostream_error_category@std@@8	; std::_Iostream_error_category::`RTTI Base Class Descriptor at (0,-1,0,64)'
PUBLIC	_CT??_R0?AVexception@std@@@824
PUBLIC	??_7error_category@std@@6B@			; std::error_category::`vftable'
PUBLIC	??_R4runtime_error@std@@6B@			; std::runtime_error::`RTTI Complete Object Locator'
PUBLIC	??_R4_System_error@std@@6B@			; std::_System_error::`RTTI Complete Object Locator'
PUBLIC	??_R3_Facet_base@std@@8				; std::_Facet_base::`RTTI Class Hierarchy Descriptor'
PUBLIC	??_R1A@?0A@EA@bad_cast@std@@8			; std::bad_cast::`RTTI Base Class Descriptor at (0,-1,0,64)'
PUBLIC	??_R4_Generic_error_category@std@@6B@		; std::_Generic_error_category::`RTTI Complete Object Locator'
PUBLIC	??_7_Generic_error_category@std@@6B@		; std::_Generic_error_category::`vftable'
PUBLIC	_CT??_R0?AVfailure@ios_base@std@@@840
PUBLIC	??_7_Iostream_error_category@std@@6B@		; std::_Iostream_error_category::`vftable'
PUBLIC	??_R0?AVerror_category@std@@@8			; std::error_category `RTTI Type Descriptor'
PUBLIC	??_R0?AV?$ctype@D@std@@@8			; std::ctype<char> `RTTI Type Descriptor'
PUBLIC	??_R3_Crt_new_delete@std@@8			; std::_Crt_new_delete::`RTTI Class Hierarchy Descriptor'
PUBLIC	??_R1A@?0A@EA@runtime_error@std@@8		; std::runtime_error::`RTTI Base Class Descriptor at (0,-1,0,64)'
PUBLIC	??_R2_System_error@std@@8			; std::_System_error::`RTTI Base Class Array'
PUBLIC	??_R0?AVsystem_error@std@@@8			; std::system_error `RTTI Type Descriptor'
PUBLIC	??_R1A@?0A@EA@exception@std@@8			; std::exception::`RTTI Base Class Descriptor at (0,-1,0,64)'
PUBLIC	??_R4_Iostream_error_category@std@@6B@		; std::_Iostream_error_category::`RTTI Complete Object Locator'
PUBLIC	??_R4system_error@std@@6B@			; std::system_error::`RTTI Complete Object Locator'
PUBLIC	??_R1A@?0A@EA@_Generic_error_category@std@@8	; std::_Generic_error_category::`RTTI Base Class Descriptor at (0,-1,0,64)'
PUBLIC	??_R1A@?0A@EA@_Facet_base@std@@8		; std::_Facet_base::`RTTI Base Class Descriptor at (0,-1,0,64)'
PUBLIC	??_R0?AV_Facet_base@std@@@8			; std::_Facet_base `RTTI Type Descriptor'
PUBLIC	??_7ctype_base@std@@6B@				; std::ctype_base::`vftable'
PUBLIC	??_R3_System_error@std@@8			; std::_System_error::`RTTI Class Hierarchy Descriptor'
PUBLIC	??_R0?AV_Generic_error_category@std@@@8		; std::_Generic_error_category `RTTI Type Descriptor'
PUBLIC	??_R3_Iostream_error_category@std@@8		; std::_Iostream_error_category::`RTTI Class Hierarchy Descriptor'
PUBLIC	??_R0?AU_Crt_new_delete@std@@@8			; std::_Crt_new_delete `RTTI Type Descriptor'
PUBLIC	??_R17?0A@EA@_Crt_new_delete@std@@8		; std::_Crt_new_delete::`RTTI Base Class Descriptor at (8,-1,0,64)'
PUBLIC	??_R2bad_cast@std@@8				; std::bad_cast::`RTTI Base Class Array'
PUBLIC	??_R2exception@std@@8				; std::exception::`RTTI Base Class Array'
PUBLIC	??_R4failure@ios_base@std@@6B@			; std::ios_base::failure::`RTTI Complete Object Locator'
PUBLIC	??_7bad_cast@std@@6B@				; std::bad_cast::`vftable'
PUBLIC	_TI2?AVruntime_error@std@@
PUBLIC	??_R3_Generic_error_category@std@@8		; std::_Generic_error_category::`RTTI Class Hierarchy Descriptor'
PUBLIC	??_R2_Iostream_error_category@std@@8		; std::_Iostream_error_category::`RTTI Base Class Array'
PUBLIC	_CT??_R0?AVruntime_error@std@@@824
PUBLIC	_CT??_R0?AVbad_cast@std@@@824
PUBLIC	??_R2error_category@std@@8			; std::error_category::`RTTI Base Class Array'
PUBLIC	??_R1A@?0A@EA@facet@locale@std@@8		; std::locale::facet::`RTTI Base Class Descriptor at (0,-1,0,64)'
PUBLIC	??_R0?AV_Iostream_error_category@std@@@8	; std::_Iostream_error_category `RTTI Type Descriptor'
PUBLIC	??_R0?AVbad_cast@std@@@8			; std::bad_cast `RTTI Type Descriptor'
PUBLIC	??_7?$ctype@D@std@@6B@				; std::ctype<char>::`vftable'
PUBLIC	_CTA2?AVbad_cast@std@@
PUBLIC	??_R2failure@ios_base@std@@8			; std::ios_base::failure::`RTTI Base Class Array'
PUBLIC	??_R4error_category@std@@6B@			; std::error_category::`RTTI Complete Object Locator'
PUBLIC	??_R0?AUctype_base@std@@@8			; std::ctype_base `RTTI Type Descriptor'
PUBLIC	??_R3failure@ios_base@std@@8			; std::ios_base::failure::`RTTI Class Hierarchy Descriptor'
PUBLIC	??_7facet@locale@std@@6B@			; std::locale::facet::`vftable'
PUBLIC	??_7exception@std@@6B@				; std::exception::`vftable'
PUBLIC	_CTA5?AVfailure@ios_base@std@@
PUBLIC	_TI2?AVbad_cast@std@@
PUBLIC	??_R2?$ctype@D@std@@8				; std::ctype<char>::`RTTI Base Class Array'
PUBLIC	??_R3exception@std@@8				; std::exception::`RTTI Class Hierarchy Descriptor'
PUBLIC	??_7runtime_error@std@@6B@			; std::runtime_error::`vftable'
PUBLIC	??_7_System_error@std@@6B@			; std::_System_error::`vftable'
PUBLIC	??_R1A@?0A@EA@failure@ios_base@std@@8		; std::ios_base::failure::`RTTI Base Class Descriptor at (0,-1,0,64)'
PUBLIC	??_R0?AVfacet@locale@std@@@8			; std::locale::facet `RTTI Type Descriptor'
PUBLIC	??_R3facet@locale@std@@8			; std::locale::facet::`RTTI Class Hierarchy Descriptor'
PUBLIC	??_R3ctype_base@std@@8				; std::ctype_base::`RTTI Class Hierarchy Descriptor'
PUBLIC	?npos@?$basic_string@DU?$char_traits@D@std@@V?$allocator@D@2@@std@@2_KB ; std::basic_string<char,std::char_traits<char>,std::allocator<char> >::npos
PUBLIC	?_Psave@?$_Facetptr@V?$ctype@D@std@@@std@@2PEBVfacet@locale@2@EB ; std::_Facetptr<std::ctype<char> >::_Psave
PUBLIC	??_R2_Generic_error_category@std@@8		; std::_Generic_error_category::`RTTI Base Class Array'
PUBLIC	??_R1A@?0A@EA@_System_error@std@@8		; std::_System_error::`RTTI Base Class Descriptor at (0,-1,0,64)'
PUBLIC	??_R3bad_cast@std@@8				; std::bad_cast::`RTTI Class Hierarchy Descriptor'
PUBLIC	??_R3error_category@std@@8			; std::error_category::`RTTI Class Hierarchy Descriptor'
PUBLIC	??_R4ctype_base@std@@6B@			; std::ctype_base::`RTTI Complete Object Locator'
PUBLIC	??_R4bad_cast@std@@6B@				; std::bad_cast::`RTTI Complete Object Locator'
PUBLIC	??_R1A@?0A@EA@_Crt_new_delete@std@@8		; std::_Crt_new_delete::`RTTI Base Class Descriptor at (0,-1,0,64)'
PUBLIC	??_R4_Facet_base@std@@6B@			; std::_Facet_base::`RTTI Complete Object Locator'
PUBLIC	_CTA2?AVruntime_error@std@@
PUBLIC	??_R2runtime_error@std@@8			; std::runtime_error::`RTTI Base Class Array'
PUBLIC	_CT??_R0?AV_System_error@std@@@840
PUBLIC	??_7_Facet_base@std@@6B@			; std::_Facet_base::`vftable'
PUBLIC	_CT??_R0?AVsystem_error@std@@@840
PUBLIC	??_R1A@?0A@EA@ctype_base@std@@8			; std::ctype_base::`RTTI Base Class Descriptor at (0,-1,0,64)'
PUBLIC	??_R0?AV_System_error@std@@@8			; std::_System_error `RTTI Type Descriptor'
PUBLIC	??_R2_Crt_new_delete@std@@8			; std::_Crt_new_delete::`RTTI Base Class Array'
PUBLIC	??_R1A@?0A@EA@?$ctype@D@std@@8			; std::ctype<char>::`RTTI Base Class Descriptor at (0,-1,0,64)'
PUBLIC	_TI5?AVfailure@ios_base@std@@
PUBLIC	??_R3system_error@std@@8			; std::system_error::`RTTI Class Hierarchy Descriptor'
PUBLIC	??_R2_Facet_base@std@@8				; std::_Facet_base::`RTTI Base Class Array'
PUBLIC	??_R2facet@locale@std@@8			; std::locale::facet::`RTTI Base Class Array'
PUBLIC	??_R0?AVexception@std@@@8			; std::exception `RTTI Type Descriptor'
PUBLIC	??_R4?$ctype@D@std@@6B@				; std::ctype<char>::`RTTI Complete Object Locator'
PUBLIC	??_7system_error@std@@6B@			; std::system_error::`vftable'
PUBLIC	??_R3runtime_error@std@@8			; std::runtime_error::`RTTI Class Hierarchy Descriptor'
PUBLIC	??_R2ctype_base@std@@8				; std::ctype_base::`RTTI Base Class Array'
PUBLIC	??_7failure@ios_base@std@@6B@			; std::ios_base::failure::`vftable'
PUBLIC	??_R1A@?0A@EA@error_category@std@@8		; std::error_category::`RTTI Base Class Descriptor at (0,-1,0,64)'
EXTRN	_invalid_parameter_noinfo_noreturn:PROC
EXTRN	??_7type_info@@6B@:BYTE				; type_info::`vftable'
EXTRN	__std_terminate:PROC
EXTRN	free:PROC
EXTRN	_Toupper:PROC
EXTRN	_Init_thread_abort:PROC
EXTRN	_Init_thread_header:PROC
EXTRN	_purecall:PROC
EXTRN	_Tolower:PROC
EXTRN	??3@YAXPEAX_K@Z:PROC				; operator delete
EXTRN	??3@YAXPEAX@Z:PROC				; operator delete
EXTRN	_Getctype:PROC
EXTRN	atexit:PROC
EXTRN	__std_exception_copy:PROC
EXTRN	_Init_thread_footer:PROC
EXTRN	?_Syserror_map@std@@YAPEBDH@Z:PROC		; std::_Syserror_map
EXTRN	?_Xlength_error@std@@YAXPEBD@Z:PROC		; std::_Xlength_error
EXTRN	?id@?$ctype@D@std@@2V0locale@2@A:QWORD		; std::ctype<char>::id
EXTRN	?_Facet_Register@std@@YAXPEAV_Facet_base@1@@Z:PROC ; std::_Facet_Register
EXTRN	?_Xout_of_range@std@@YAXPEBD@Z:PROC		; std::_Xout_of_range
EXTRN	?_Id_cnt@id@locale@std@@0HA:DWORD		; std::locale::id::_Id_cnt
EXTRN	?_Locinfo_ctor@_Locinfo@std@@SAXPEAV12@PEBD@Z:PROC ; std::_Locinfo::_Locinfo_ctor
EXTRN	?_Locinfo_dtor@_Locinfo@std@@SAXPEAV12@@Z:PROC	; std::_Locinfo::_Locinfo_dtor
EXTRN	?_Xbad_alloc@std@@YAXXZ:PROC			; std::_Xbad_alloc
EXTRN	?uncaught_exception@std@@YA_NXZ:PROC		; std::uncaught_exception
EXTRN	?_Getgloballocale@locale@std@@CAPEAV_Locimp@12@XZ:PROC ; std::locale::_Getgloballocale
EXTRN	?cout@std@@3V?$basic_ostream@DU?$char_traits@D@std@@@1@A:BYTE ; std::cout
EXTRN	??0_Lockit@std@@QEAA@H@Z:PROC			; std::_Lockit::_Lockit
EXTRN	??1_Lockit@std@@QEAA@XZ:PROC			; std::_Lockit::~_Lockit
EXTRN	??2@YAPEAX_K@Z:PROC				; operator new
EXTRN	_Init_thread_epoch:DWORD
EXTRN	memmove:PROC
EXTRN	??_V@YAXPEAX@Z:PROC				; operator delete[]
EXTRN	__std_exception_destroy:PROC
EXTRN	__security_check_cookie:PROC
;	COMDAT ?_Psave@?$_Facetptr@V?$ctype@D@std@@@std@@2PEBVfacet@locale@2@EB
_BSS	SEGMENT
?_Psave@?$_Facetptr@V?$ctype@D@std@@@std@@2PEBVfacet@locale@2@EB DQ 01H DUP (?) ; std::_Facetptr<std::ctype<char> >::_Psave
_BSS	ENDS
;	COMDAT ??_R1A@?0A@EA@error_category@std@@8
rdata$r	SEGMENT
??_R1A@?0A@EA@error_category@std@@8 DD imagerel ??_R0?AVerror_category@std@@@8 ; std::error_category::`RTTI Base Class Descriptor at (0,-1,0,64)'
	DD	00H
	DD	00H
	DD	0ffffffffH
	DD	00H
	DD	040H
	DD	imagerel ??_R3error_category@std@@8
rdata$r	ENDS
;	COMDAT ??_7failure@ios_base@std@@6B@
CONST	SEGMENT
??_7failure@ios_base@std@@6B@ DQ FLAT:??_R4failure@ios_base@std@@6B@ ; std::ios_base::failure::`vftable'
	DQ	FLAT:??_Efailure@ios_base@std@@UEAAPEAXI@Z
	DQ	FLAT:?what@exception@std@@UEBAPEBDXZ
CONST	ENDS
;	COMDAT ??_R2ctype_base@std@@8
rdata$r	SEGMENT
??_R2ctype_base@std@@8 DD imagerel ??_R1A@?0A@EA@ctype_base@std@@8 ; std::ctype_base::`RTTI Base Class Array'
	DD	imagerel ??_R1A@?0A@EA@facet@locale@std@@8
	DD	imagerel ??_R1A@?0A@EA@_Facet_base@std@@8
	DD	imagerel ??_R17?0A@EA@_Crt_new_delete@std@@8
	ORG $+3
rdata$r	ENDS
;	COMDAT ??_R3runtime_error@std@@8
rdata$r	SEGMENT
??_R3runtime_error@std@@8 DD 00H			; std::runtime_error::`RTTI Class Hierarchy Descriptor'
	DD	00H
	DD	02H
	DD	imagerel ??_R2runtime_error@std@@8
rdata$r	ENDS
;	COMDAT ??_7system_error@std@@6B@
CONST	SEGMENT
??_7system_error@std@@6B@ DQ FLAT:??_R4system_error@std@@6B@ ; std::system_error::`vftable'
	DQ	FLAT:??_Esystem_error@std@@UEAAPEAXI@Z
	DQ	FLAT:?what@exception@std@@UEBAPEBDXZ
CONST	ENDS
;	COMDAT ??_R4?$ctype@D@std@@6B@
rdata$r	SEGMENT
??_R4?$ctype@D@std@@6B@ DD 01H				; std::ctype<char>::`RTTI Complete Object Locator'
	DD	00H
	DD	00H
	DD	imagerel ??_R0?AV?$ctype@D@std@@@8
	DD	imagerel ??_R3?$ctype@D@std@@8
	DD	imagerel ??_R4?$ctype@D@std@@6B@
rdata$r	ENDS
;	COMDAT ??_R0?AVexception@std@@@8
data$r	SEGMENT
??_R0?AVexception@std@@@8 DQ FLAT:??_7type_info@@6B@	; std::exception `RTTI Type Descriptor'
	DQ	0000000000000000H
	DB	'.?AVexception@std@@', 00H
data$r	ENDS
;	COMDAT ??_R2facet@locale@std@@8
rdata$r	SEGMENT
??_R2facet@locale@std@@8 DD imagerel ??_R1A@?0A@EA@facet@locale@std@@8 ; std::locale::facet::`RTTI Base Class Array'
	DD	imagerel ??_R1A@?0A@EA@_Facet_base@std@@8
	DD	imagerel ??_R17?0A@EA@_Crt_new_delete@std@@8
	ORG $+3
rdata$r	ENDS
;	COMDAT ??_R2_Facet_base@std@@8
rdata$r	SEGMENT
??_R2_Facet_base@std@@8 DD imagerel ??_R1A@?0A@EA@_Facet_base@std@@8 ; std::_Facet_base::`RTTI Base Class Array'
	ORG $+3
rdata$r	ENDS
;	COMDAT ??_R3system_error@std@@8
rdata$r	SEGMENT
??_R3system_error@std@@8 DD 00H				; std::system_error::`RTTI Class Hierarchy Descriptor'
	DD	00H
	DD	04H
	DD	imagerel ??_R2system_error@std@@8
rdata$r	ENDS
;	COMDAT _TI5?AVfailure@ios_base@std@@
xdata$x	SEGMENT
_TI5?AVfailure@ios_base@std@@ DD 00H
	DD	imagerel ??1failure@ios_base@std@@UEAA@XZ
	DD	00H
	DD	imagerel _CTA5?AVfailure@ios_base@std@@
xdata$x	ENDS
;	COMDAT ??_R1A@?0A@EA@?$ctype@D@std@@8
rdata$r	SEGMENT
??_R1A@?0A@EA@?$ctype@D@std@@8 DD imagerel ??_R0?AV?$ctype@D@std@@@8 ; std::ctype<char>::`RTTI Base Class Descriptor at (0,-1,0,64)'
	DD	04H
	DD	00H
	DD	0ffffffffH
	DD	00H
	DD	040H
	DD	imagerel ??_R3?$ctype@D@std@@8
rdata$r	ENDS
;	COMDAT ??_R2_Crt_new_delete@std@@8
rdata$r	SEGMENT
??_R2_Crt_new_delete@std@@8 DD imagerel ??_R1A@?0A@EA@_Crt_new_delete@std@@8 ; std::_Crt_new_delete::`RTTI Base Class Array'
	ORG $+3
rdata$r	ENDS
;	COMDAT ??_R0?AV_System_error@std@@@8
data$r	SEGMENT
??_R0?AV_System_error@std@@@8 DQ FLAT:??_7type_info@@6B@ ; std::_System_error `RTTI Type Descriptor'
	DQ	0000000000000000H
	DB	'.?AV_System_error@std@@', 00H
data$r	ENDS
;	COMDAT ??_R1A@?0A@EA@ctype_base@std@@8
rdata$r	SEGMENT
??_R1A@?0A@EA@ctype_base@std@@8 DD imagerel ??_R0?AUctype_base@std@@@8 ; std::ctype_base::`RTTI Base Class Descriptor at (0,-1,0,64)'
	DD	03H
	DD	00H
	DD	0ffffffffH
	DD	00H
	DD	040H
	DD	imagerel ??_R3ctype_base@std@@8
rdata$r	ENDS
;	COMDAT _CT??_R0?AVsystem_error@std@@@840
xdata$x	SEGMENT
_CT??_R0?AVsystem_error@std@@@840 DD 00H
	DD	imagerel ??_R0?AVsystem_error@std@@@8
	DD	00H
	DD	0ffffffffH
	ORG $+4
	DD	028H
	DD	imagerel ??0system_error@std@@QEAA@AEBV01@@Z
xdata$x	ENDS
;	COMDAT ??_7_Facet_base@std@@6B@
CONST	SEGMENT
??_7_Facet_base@std@@6B@ DQ FLAT:??_R4_Facet_base@std@@6B@ ; std::_Facet_base::`vftable'
	DQ	FLAT:??_E_Facet_base@std@@UEAAPEAXI@Z
	DQ	FLAT:_purecall
	DQ	FLAT:_purecall
CONST	ENDS
;	COMDAT _CT??_R0?AV_System_error@std@@@840
xdata$x	SEGMENT
_CT??_R0?AV_System_error@std@@@840 DD 00H
	DD	imagerel ??_R0?AV_System_error@std@@@8
	DD	00H
	DD	0ffffffffH
	ORG $+4
	DD	028H
	DD	imagerel ??0_System_error@std@@QEAA@AEBV01@@Z
xdata$x	ENDS
;	COMDAT ??_R2runtime_error@std@@8
rdata$r	SEGMENT
??_R2runtime_error@std@@8 DD imagerel ??_R1A@?0A@EA@runtime_error@std@@8 ; std::runtime_error::`RTTI Base Class Array'
	DD	imagerel ??_R1A@?0A@EA@exception@std@@8
	ORG $+3
rdata$r	ENDS
;	COMDAT _CTA2?AVruntime_error@std@@
xdata$x	SEGMENT
_CTA2?AVruntime_error@std@@ DD 02H
	DD	imagerel _CT??_R0?AVruntime_error@std@@@824
	DD	imagerel _CT??_R0?AVexception@std@@@824
xdata$x	ENDS
;	COMDAT ??_R4_Facet_base@std@@6B@
rdata$r	SEGMENT
??_R4_Facet_base@std@@6B@ DD 01H			; std::_Facet_base::`RTTI Complete Object Locator'
	DD	00H
	DD	00H
	DD	imagerel ??_R0?AV_Facet_base@std@@@8
	DD	imagerel ??_R3_Facet_base@std@@8
	DD	imagerel ??_R4_Facet_base@std@@6B@
rdata$r	ENDS
;	COMDAT ??_R1A@?0A@EA@_Crt_new_delete@std@@8
rdata$r	SEGMENT
??_R1A@?0A@EA@_Crt_new_delete@std@@8 DD imagerel ??_R0?AU_Crt_new_delete@std@@@8 ; std::_Crt_new_delete::`RTTI Base Class Descriptor at (0,-1,0,64)'
	DD	00H
	DD	00H
	DD	0ffffffffH
	DD	00H
	DD	040H
	DD	imagerel ??_R3_Crt_new_delete@std@@8
rdata$r	ENDS
;	COMDAT ??_R4bad_cast@std@@6B@
rdata$r	SEGMENT
??_R4bad_cast@std@@6B@ DD 01H				; std::bad_cast::`RTTI Complete Object Locator'
	DD	00H
	DD	00H
	DD	imagerel ??_R0?AVbad_cast@std@@@8
	DD	imagerel ??_R3bad_cast@std@@8
	DD	imagerel ??_R4bad_cast@std@@6B@
rdata$r	ENDS
;	COMDAT ??_R4ctype_base@std@@6B@
rdata$r	SEGMENT
??_R4ctype_base@std@@6B@ DD 01H				; std::ctype_base::`RTTI Complete Object Locator'
	DD	00H
	DD	00H
	DD	imagerel ??_R0?AUctype_base@std@@@8
	DD	imagerel ??_R3ctype_base@std@@8
	DD	imagerel ??_R4ctype_base@std@@6B@
rdata$r	ENDS
;	COMDAT ??_R3error_category@std@@8
rdata$r	SEGMENT
??_R3error_category@std@@8 DD 00H			; std::error_category::`RTTI Class Hierarchy Descriptor'
	DD	00H
	DD	01H
	DD	imagerel ??_R2error_category@std@@8
rdata$r	ENDS
;	COMDAT ??_R3bad_cast@std@@8
rdata$r	SEGMENT
??_R3bad_cast@std@@8 DD 00H				; std::bad_cast::`RTTI Class Hierarchy Descriptor'
	DD	00H
	DD	02H
	DD	imagerel ??_R2bad_cast@std@@8
rdata$r	ENDS
;	COMDAT ??_R1A@?0A@EA@_System_error@std@@8
rdata$r	SEGMENT
??_R1A@?0A@EA@_System_error@std@@8 DD imagerel ??_R0?AV_System_error@std@@@8 ; std::_System_error::`RTTI Base Class Descriptor at (0,-1,0,64)'
	DD	02H
	DD	00H
	DD	0ffffffffH
	DD	00H
	DD	040H
	DD	imagerel ??_R3_System_error@std@@8
rdata$r	ENDS
;	COMDAT ??_R2_Generic_error_category@std@@8
rdata$r	SEGMENT
??_R2_Generic_error_category@std@@8 DD imagerel ??_R1A@?0A@EA@_Generic_error_category@std@@8 ; std::_Generic_error_category::`RTTI Base Class Array'
	DD	imagerel ??_R1A@?0A@EA@error_category@std@@8
	ORG $+3
rdata$r	ENDS
;	COMDAT ?npos@?$basic_string@DU?$char_traits@D@std@@V?$allocator@D@2@@std@@2_KB
CONST	SEGMENT
?npos@?$basic_string@DU?$char_traits@D@std@@V?$allocator@D@2@@std@@2_KB DQ ffffffffffffffffH ; std::basic_string<char,std::char_traits<char>,std::allocator<char> >::npos
CONST	ENDS
;	COMDAT ??_R3ctype_base@std@@8
rdata$r	SEGMENT
??_R3ctype_base@std@@8 DD 00H				; std::ctype_base::`RTTI Class Hierarchy Descriptor'
	DD	01H
	DD	04H
	DD	imagerel ??_R2ctype_base@std@@8
rdata$r	ENDS
;	COMDAT ??_R3facet@locale@std@@8
rdata$r	SEGMENT
??_R3facet@locale@std@@8 DD 00H				; std::locale::facet::`RTTI Class Hierarchy Descriptor'
	DD	01H
	DD	03H
	DD	imagerel ??_R2facet@locale@std@@8
rdata$r	ENDS
;	COMDAT ??_R0?AVfacet@locale@std@@@8
data$r	SEGMENT
??_R0?AVfacet@locale@std@@@8 DQ FLAT:??_7type_info@@6B@	; std::locale::facet `RTTI Type Descriptor'
	DQ	0000000000000000H
	DB	'.?AVfacet@locale@std@@', 00H
data$r	ENDS
;	COMDAT ??_R1A@?0A@EA@failure@ios_base@std@@8
rdata$r	SEGMENT
??_R1A@?0A@EA@failure@ios_base@std@@8 DD imagerel ??_R0?AVfailure@ios_base@std@@@8 ; std::ios_base::failure::`RTTI Base Class Descriptor at (0,-1,0,64)'
	DD	04H
	DD	00H
	DD	0ffffffffH
	DD	00H
	DD	040H
	DD	imagerel ??_R3failure@ios_base@std@@8
rdata$r	ENDS
;	COMDAT ??_7_System_error@std@@6B@
CONST	SEGMENT
??_7_System_error@std@@6B@ DQ FLAT:??_R4_System_error@std@@6B@ ; std::_System_error::`vftable'
	DQ	FLAT:??_E_System_error@std@@UEAAPEAXI@Z
	DQ	FLAT:?what@exception@std@@UEBAPEBDXZ
CONST	ENDS
;	COMDAT ??_7runtime_error@std@@6B@
CONST	SEGMENT
??_7runtime_error@std@@6B@ DQ FLAT:??_R4runtime_error@std@@6B@ ; std::runtime_error::`vftable'
	DQ	FLAT:??_Eruntime_error@std@@UEAAPEAXI@Z
	DQ	FLAT:?what@exception@std@@UEBAPEBDXZ
CONST	ENDS
;	COMDAT ??_R3exception@std@@8
rdata$r	SEGMENT
??_R3exception@std@@8 DD 00H				; std::exception::`RTTI Class Hierarchy Descriptor'
	DD	00H
	DD	01H
	DD	imagerel ??_R2exception@std@@8
rdata$r	ENDS
;	COMDAT ??_R2?$ctype@D@std@@8
rdata$r	SEGMENT
??_R2?$ctype@D@std@@8 DD imagerel ??_R1A@?0A@EA@?$ctype@D@std@@8 ; std::ctype<char>::`RTTI Base Class Array'
	DD	imagerel ??_R1A@?0A@EA@ctype_base@std@@8
	DD	imagerel ??_R1A@?0A@EA@facet@locale@std@@8
	DD	imagerel ??_R1A@?0A@EA@_Facet_base@std@@8
	DD	imagerel ??_R17?0A@EA@_Crt_new_delete@std@@8
	ORG $+3
rdata$r	ENDS
;	COMDAT _TI2?AVbad_cast@std@@
xdata$x	SEGMENT
_TI2?AVbad_cast@std@@ DD 00H
	DD	imagerel ??1bad_cast@std@@UEAA@XZ
	DD	00H
	DD	imagerel _CTA2?AVbad_cast@std@@
xdata$x	ENDS
;	COMDAT _CTA5?AVfailure@ios_base@std@@
xdata$x	SEGMENT
_CTA5?AVfailure@ios_base@std@@ DD 05H
	DD	imagerel _CT??_R0?AVfailure@ios_base@std@@@840
	DD	imagerel _CT??_R0?AVsystem_error@std@@@840
	DD	imagerel _CT??_R0?AV_System_error@std@@@840
	DD	imagerel _CT??_R0?AVruntime_error@std@@@824
	DD	imagerel _CT??_R0?AVexception@std@@@824
xdata$x	ENDS
;	COMDAT ??_7exception@std@@6B@
CONST	SEGMENT
??_7exception@std@@6B@ DQ FLAT:??_R4exception@std@@6B@	; std::exception::`vftable'
	DQ	FLAT:??_Eexception@std@@UEAAPEAXI@Z
	DQ	FLAT:?what@exception@std@@UEBAPEBDXZ
CONST	ENDS
;	COMDAT ??_7facet@locale@std@@6B@
CONST	SEGMENT
??_7facet@locale@std@@6B@ DQ FLAT:??_R4facet@locale@std@@6B@ ; std::locale::facet::`vftable'
	DQ	FLAT:??_Efacet@locale@std@@MEAAPEAXI@Z
	DQ	FLAT:?_Incref@facet@locale@std@@UEAAXXZ
	DQ	FLAT:?_Decref@facet@locale@std@@UEAAPEAV_Facet_base@3@XZ
CONST	ENDS
;	COMDAT ??_R3failure@ios_base@std@@8
rdata$r	SEGMENT
??_R3failure@ios_base@std@@8 DD 00H			; std::ios_base::failure::`RTTI Class Hierarchy Descriptor'
	DD	00H
	DD	05H
	DD	imagerel ??_R2failure@ios_base@std@@8
rdata$r	ENDS
;	COMDAT ??_R0?AUctype_base@std@@@8
data$r	SEGMENT
??_R0?AUctype_base@std@@@8 DQ FLAT:??_7type_info@@6B@	; std::ctype_base `RTTI Type Descriptor'
	DQ	0000000000000000H
	DB	'.?AUctype_base@std@@', 00H
data$r	ENDS
;	COMDAT ??_R4error_category@std@@6B@
rdata$r	SEGMENT
??_R4error_category@std@@6B@ DD 01H			; std::error_category::`RTTI Complete Object Locator'
	DD	00H
	DD	00H
	DD	imagerel ??_R0?AVerror_category@std@@@8
	DD	imagerel ??_R3error_category@std@@8
	DD	imagerel ??_R4error_category@std@@6B@
rdata$r	ENDS
;	COMDAT ??_R2failure@ios_base@std@@8
rdata$r	SEGMENT
??_R2failure@ios_base@std@@8 DD imagerel ??_R1A@?0A@EA@failure@ios_base@std@@8 ; std::ios_base::failure::`RTTI Base Class Array'
	DD	imagerel ??_R1A@?0A@EA@system_error@std@@8
	DD	imagerel ??_R1A@?0A@EA@_System_error@std@@8
	DD	imagerel ??_R1A@?0A@EA@runtime_error@std@@8
	DD	imagerel ??_R1A@?0A@EA@exception@std@@8
	ORG $+3
rdata$r	ENDS
;	COMDAT _CTA2?AVbad_cast@std@@
xdata$x	SEGMENT
_CTA2?AVbad_cast@std@@ DD 02H
	DD	imagerel _CT??_R0?AVbad_cast@std@@@824
	DD	imagerel _CT??_R0?AVexception@std@@@824
xdata$x	ENDS
;	COMDAT ??_7?$ctype@D@std@@6B@
CONST	SEGMENT
??_7?$ctype@D@std@@6B@ DQ FLAT:??_R4?$ctype@D@std@@6B@	; std::ctype<char>::`vftable'
	DQ	FLAT:??_E?$ctype@D@std@@MEAAPEAXI@Z
	DQ	FLAT:?_Incref@facet@locale@std@@UEAAXXZ
	DQ	FLAT:?_Decref@facet@locale@std@@UEAAPEAV_Facet_base@3@XZ
	DQ	FLAT:?do_tolower@?$ctype@D@std@@MEBAPEBDPEADPEBD@Z
	DQ	FLAT:?do_tolower@?$ctype@D@std@@MEBADD@Z
	DQ	FLAT:?do_toupper@?$ctype@D@std@@MEBAPEBDPEADPEBD@Z
	DQ	FLAT:?do_toupper@?$ctype@D@std@@MEBADD@Z
	DQ	FLAT:?do_widen@?$ctype@D@std@@MEBAPEBDPEBD0PEAD@Z
	DQ	FLAT:?do_widen@?$ctype@D@std@@MEBADD@Z
	DQ	FLAT:?do_narrow@?$ctype@D@std@@MEBAPEBDPEBD0DPEAD@Z
	DQ	FLAT:?do_narrow@?$ctype@D@std@@MEBADDD@Z
CONST	ENDS
;	COMDAT ??_R0?AVbad_cast@std@@@8
data$r	SEGMENT
??_R0?AVbad_cast@std@@@8 DQ FLAT:??_7type_info@@6B@	; std::bad_cast `RTTI Type Descriptor'
	DQ	0000000000000000H
	DB	'.?AVbad_cast@std@@', 00H
data$r	ENDS
;	COMDAT ??_R0?AV_Iostream_error_category@std@@@8
data$r	SEGMENT
??_R0?AV_Iostream_error_category@std@@@8 DQ FLAT:??_7type_info@@6B@ ; std::_Iostream_error_category `RTTI Type Descriptor'
	DQ	0000000000000000H
	DB	'.?AV_Iostream_error_category@std@@', 00H
data$r	ENDS
;	COMDAT ??_R1A@?0A@EA@facet@locale@std@@8
rdata$r	SEGMENT
??_R1A@?0A@EA@facet@locale@std@@8 DD imagerel ??_R0?AVfacet@locale@std@@@8 ; std::locale::facet::`RTTI Base Class Descriptor at (0,-1,0,64)'
	DD	02H
	DD	00H
	DD	0ffffffffH
	DD	00H
	DD	040H
	DD	imagerel ??_R3facet@locale@std@@8
rdata$r	ENDS
;	COMDAT ??_R2error_category@std@@8
rdata$r	SEGMENT
??_R2error_category@std@@8 DD imagerel ??_R1A@?0A@EA@error_category@std@@8 ; std::error_category::`RTTI Base Class Array'
	ORG $+3
rdata$r	ENDS
;	COMDAT _CT??_R0?AVbad_cast@std@@@824
xdata$x	SEGMENT
_CT??_R0?AVbad_cast@std@@@824 DD 00H
	DD	imagerel ??_R0?AVbad_cast@std@@@8
	DD	00H
	DD	0ffffffffH
	ORG $+4
	DD	018H
	DD	imagerel ??0bad_cast@std@@QEAA@AEBV01@@Z
xdata$x	ENDS
;	COMDAT _CT??_R0?AVruntime_error@std@@@824
xdata$x	SEGMENT
_CT??_R0?AVruntime_error@std@@@824 DD 00H
	DD	imagerel ??_R0?AVruntime_error@std@@@8
	DD	00H
	DD	0ffffffffH
	ORG $+4
	DD	018H
	DD	imagerel ??0runtime_error@std@@QEAA@AEBV01@@Z
xdata$x	ENDS
;	COMDAT ??_R2_Iostream_error_category@std@@8
rdata$r	SEGMENT
??_R2_Iostream_error_category@std@@8 DD imagerel ??_R1A@?0A@EA@_Iostream_error_category@std@@8 ; std::_Iostream_error_category::`RTTI Base Class Array'
	DD	imagerel ??_R1A@?0A@EA@_Generic_error_category@std@@8
	DD	imagerel ??_R1A@?0A@EA@error_category@std@@8
	ORG $+3
rdata$r	ENDS
;	COMDAT ??_R3_Generic_error_category@std@@8
rdata$r	SEGMENT
??_R3_Generic_error_category@std@@8 DD 00H		; std::_Generic_error_category::`RTTI Class Hierarchy Descriptor'
	DD	00H
	DD	02H
	DD	imagerel ??_R2_Generic_error_category@std@@8
rdata$r	ENDS
;	COMDAT _TI2?AVruntime_error@std@@
xdata$x	SEGMENT
_TI2?AVruntime_error@std@@ DD 00H
	DD	imagerel ??1runtime_error@std@@UEAA@XZ
	DD	00H
	DD	imagerel _CTA2?AVruntime_error@std@@
xdata$x	ENDS
;	COMDAT ??_7bad_cast@std@@6B@
CONST	SEGMENT
??_7bad_cast@std@@6B@ DQ FLAT:??_R4bad_cast@std@@6B@	; std::bad_cast::`vftable'
	DQ	FLAT:??_Ebad_cast@std@@UEAAPEAXI@Z
	DQ	FLAT:?what@exception@std@@UEBAPEBDXZ
CONST	ENDS
;	COMDAT ??_R4failure@ios_base@std@@6B@
rdata$r	SEGMENT
??_R4failure@ios_base@std@@6B@ DD 01H			; std::ios_base::failure::`RTTI Complete Object Locator'
	DD	00H
	DD	00H
	DD	imagerel ??_R0?AVfailure@ios_base@std@@@8
	DD	imagerel ??_R3failure@ios_base@std@@8
	DD	imagerel ??_R4failure@ios_base@std@@6B@
rdata$r	ENDS
;	COMDAT ??_R2exception@std@@8
rdata$r	SEGMENT
??_R2exception@std@@8 DD imagerel ??_R1A@?0A@EA@exception@std@@8 ; std::exception::`RTTI Base Class Array'
	ORG $+3
rdata$r	ENDS
;	COMDAT ??_R2bad_cast@std@@8
rdata$r	SEGMENT
??_R2bad_cast@std@@8 DD imagerel ??_R1A@?0A@EA@bad_cast@std@@8 ; std::bad_cast::`RTTI Base Class Array'
	DD	imagerel ??_R1A@?0A@EA@exception@std@@8
	ORG $+3
rdata$r	ENDS
;	COMDAT ??_R17?0A@EA@_Crt_new_delete@std@@8
rdata$r	SEGMENT
??_R17?0A@EA@_Crt_new_delete@std@@8 DD imagerel ??_R0?AU_Crt_new_delete@std@@@8 ; std::_Crt_new_delete::`RTTI Base Class Descriptor at (8,-1,0,64)'
	DD	00H
	DD	08H
	DD	0ffffffffH
	DD	00H
	DD	040H
	DD	imagerel ??_R3_Crt_new_delete@std@@8
rdata$r	ENDS
;	COMDAT ??_R0?AU_Crt_new_delete@std@@@8
data$r	SEGMENT
??_R0?AU_Crt_new_delete@std@@@8 DQ FLAT:??_7type_info@@6B@ ; std::_Crt_new_delete `RTTI Type Descriptor'
	DQ	0000000000000000H
	DB	'.?AU_Crt_new_delete@std@@', 00H
data$r	ENDS
;	COMDAT ??_R3_Iostream_error_category@std@@8
rdata$r	SEGMENT
??_R3_Iostream_error_category@std@@8 DD 00H		; std::_Iostream_error_category::`RTTI Class Hierarchy Descriptor'
	DD	00H
	DD	03H
	DD	imagerel ??_R2_Iostream_error_category@std@@8
rdata$r	ENDS
;	COMDAT ??_R0?AV_Generic_error_category@std@@@8
data$r	SEGMENT
??_R0?AV_Generic_error_category@std@@@8 DQ FLAT:??_7type_info@@6B@ ; std::_Generic_error_category `RTTI Type Descriptor'
	DQ	0000000000000000H
	DB	'.?AV_Generic_error_category@std@@', 00H
data$r	ENDS
;	COMDAT ??_R3_System_error@std@@8
rdata$r	SEGMENT
??_R3_System_error@std@@8 DD 00H			; std::_System_error::`RTTI Class Hierarchy Descriptor'
	DD	00H
	DD	03H
	DD	imagerel ??_R2_System_error@std@@8
rdata$r	ENDS
;	COMDAT ??_7ctype_base@std@@6B@
CONST	SEGMENT
??_7ctype_base@std@@6B@ DQ FLAT:??_R4ctype_base@std@@6B@ ; std::ctype_base::`vftable'
	DQ	FLAT:??_Ectype_base@std@@UEAAPEAXI@Z
	DQ	FLAT:?_Incref@facet@locale@std@@UEAAXXZ
	DQ	FLAT:?_Decref@facet@locale@std@@UEAAPEAV_Facet_base@3@XZ
CONST	ENDS
;	COMDAT ??_R0?AV_Facet_base@std@@@8
data$r	SEGMENT
??_R0?AV_Facet_base@std@@@8 DQ FLAT:??_7type_info@@6B@	; std::_Facet_base `RTTI Type Descriptor'
	DQ	0000000000000000H
	DB	'.?AV_Facet_base@std@@', 00H
data$r	ENDS
;	COMDAT ??_R1A@?0A@EA@_Facet_base@std@@8
rdata$r	SEGMENT
??_R1A@?0A@EA@_Facet_base@std@@8 DD imagerel ??_R0?AV_Facet_base@std@@@8 ; std::_Facet_base::`RTTI Base Class Descriptor at (0,-1,0,64)'
	DD	00H
	DD	00H
	DD	0ffffffffH
	DD	00H
	DD	040H
	DD	imagerel ??_R3_Facet_base@std@@8
rdata$r	ENDS
;	COMDAT ??_R1A@?0A@EA@_Generic_error_category@std@@8
rdata$r	SEGMENT
??_R1A@?0A@EA@_Generic_error_category@std@@8 DD imagerel ??_R0?AV_Generic_error_category@std@@@8 ; std::_Generic_error_category::`RTTI Base Class Descriptor at (0,-1,0,64)'
	DD	01H
	DD	00H
	DD	0ffffffffH
	DD	00H
	DD	040H
	DD	imagerel ??_R3_Generic_error_category@std@@8
rdata$r	ENDS
;	COMDAT ??_R4system_error@std@@6B@
rdata$r	SEGMENT
??_R4system_error@std@@6B@ DD 01H			; std::system_error::`RTTI Complete Object Locator'
	DD	00H
	DD	00H
	DD	imagerel ??_R0?AVsystem_error@std@@@8
	DD	imagerel ??_R3system_error@std@@8
	DD	imagerel ??_R4system_error@std@@6B@
rdata$r	ENDS
;	COMDAT ??_R4_Iostream_error_category@std@@6B@
rdata$r	SEGMENT
??_R4_Iostream_error_category@std@@6B@ DD 01H		; std::_Iostream_error_category::`RTTI Complete Object Locator'
	DD	00H
	DD	00H
	DD	imagerel ??_R0?AV_Iostream_error_category@std@@@8
	DD	imagerel ??_R3_Iostream_error_category@std@@8
	DD	imagerel ??_R4_Iostream_error_category@std@@6B@
rdata$r	ENDS
;	COMDAT ??_R1A@?0A@EA@exception@std@@8
rdata$r	SEGMENT
??_R1A@?0A@EA@exception@std@@8 DD imagerel ??_R0?AVexception@std@@@8 ; std::exception::`RTTI Base Class Descriptor at (0,-1,0,64)'
	DD	00H
	DD	00H
	DD	0ffffffffH
	DD	00H
	DD	040H
	DD	imagerel ??_R3exception@std@@8
rdata$r	ENDS
;	COMDAT ??_R0?AVsystem_error@std@@@8
data$r	SEGMENT
??_R0?AVsystem_error@std@@@8 DQ FLAT:??_7type_info@@6B@	; std::system_error `RTTI Type Descriptor'
	DQ	0000000000000000H
	DB	'.?AVsystem_error@std@@', 00H
data$r	ENDS
;	COMDAT ??_R2_System_error@std@@8
rdata$r	SEGMENT
??_R2_System_error@std@@8 DD imagerel ??_R1A@?0A@EA@_System_error@std@@8 ; std::_System_error::`RTTI Base Class Array'
	DD	imagerel ??_R1A@?0A@EA@runtime_error@std@@8
	DD	imagerel ??_R1A@?0A@EA@exception@std@@8
	ORG $+3
rdata$r	ENDS
;	COMDAT ??_R1A@?0A@EA@runtime_error@std@@8
rdata$r	SEGMENT
??_R1A@?0A@EA@runtime_error@std@@8 DD imagerel ??_R0?AVruntime_error@std@@@8 ; std::runtime_error::`RTTI Base Class Descriptor at (0,-1,0,64)'
	DD	01H
	DD	00H
	DD	0ffffffffH
	DD	00H
	DD	040H
	DD	imagerel ??_R3runtime_error@std@@8
rdata$r	ENDS
;	COMDAT ??_R3_Crt_new_delete@std@@8
rdata$r	SEGMENT
??_R3_Crt_new_delete@std@@8 DD 00H			; std::_Crt_new_delete::`RTTI Class Hierarchy Descriptor'
	DD	00H
	DD	01H
	DD	imagerel ??_R2_Crt_new_delete@std@@8
rdata$r	ENDS
;	COMDAT ??_R0?AV?$ctype@D@std@@@8
data$r	SEGMENT
??_R0?AV?$ctype@D@std@@@8 DQ FLAT:??_7type_info@@6B@	; std::ctype<char> `RTTI Type Descriptor'
	DQ	0000000000000000H
	DB	'.?AV?$ctype@D@std@@', 00H
data$r	ENDS
;	COMDAT ??_R0?AVerror_category@std@@@8
data$r	SEGMENT
??_R0?AVerror_category@std@@@8 DQ FLAT:??_7type_info@@6B@ ; std::error_category `RTTI Type Descriptor'
	DQ	0000000000000000H
	DB	'.?AVerror_category@std@@', 00H
data$r	ENDS
;	COMDAT ??_7_Iostream_error_category@std@@6B@
CONST	SEGMENT
??_7_Iostream_error_category@std@@6B@ DQ FLAT:??_R4_Iostream_error_category@std@@6B@ ; std::_Iostream_error_category::`vftable'
	DQ	FLAT:??_E_Iostream_error_category@std@@UEAAPEAXI@Z
	DQ	FLAT:?name@_Iostream_error_category@std@@UEBAPEBDXZ
	DQ	FLAT:?message@_Iostream_error_category@std@@UEBA?AV?$basic_string@DU?$char_traits@D@std@@V?$allocator@D@2@@2@H@Z
	DQ	FLAT:?default_error_condition@error_category@std@@UEBA?AVerror_condition@2@H@Z
	DQ	FLAT:?equivalent@error_category@std@@UEBA_NAEBVerror_code@2@H@Z
	DQ	FLAT:?equivalent@error_category@std@@UEBA_NHAEBVerror_condition@2@@Z
CONST	ENDS
;	COMDAT _CT??_R0?AVfailure@ios_base@std@@@840
xdata$x	SEGMENT
_CT??_R0?AVfailure@ios_base@std@@@840 DD 00H
	DD	imagerel ??_R0?AVfailure@ios_base@std@@@8
	DD	00H
	DD	0ffffffffH
	ORG $+4
	DD	028H
	DD	imagerel ??0failure@ios_base@std@@QEAA@AEBV012@@Z
xdata$x	ENDS
;	COMDAT ??_7_Generic_error_category@std@@6B@
CONST	SEGMENT
??_7_Generic_error_category@std@@6B@ DQ FLAT:??_R4_Generic_error_category@std@@6B@ ; std::_Generic_error_category::`vftable'
	DQ	FLAT:??_E_Generic_error_category@std@@UEAAPEAXI@Z
	DQ	FLAT:?name@_Generic_error_category@std@@UEBAPEBDXZ
	DQ	FLAT:?message@_Generic_error_category@std@@UEBA?AV?$basic_string@DU?$char_traits@D@std@@V?$allocator@D@2@@2@H@Z
	DQ	FLAT:?default_error_condition@error_category@std@@UEBA?AVerror_condition@2@H@Z
	DQ	FLAT:?equivalent@error_category@std@@UEBA_NAEBVerror_code@2@H@Z
	DQ	FLAT:?equivalent@error_category@std@@UEBA_NHAEBVerror_condition@2@@Z
CONST	ENDS
;	COMDAT ??_R4_Generic_error_category@std@@6B@
rdata$r	SEGMENT
??_R4_Generic_error_category@std@@6B@ DD 01H		; std::_Generic_error_category::`RTTI Complete Object Locator'
	DD	00H
	DD	00H
	DD	imagerel ??_R0?AV_Generic_error_category@std@@@8
	DD	imagerel ??_R3_Generic_error_category@std@@8
	DD	imagerel ??_R4_Generic_error_category@std@@6B@
rdata$r	ENDS
;	COMDAT ??_R1A@?0A@EA@bad_cast@std@@8
rdata$r	SEGMENT
??_R1A@?0A@EA@bad_cast@std@@8 DD imagerel ??_R0?AVbad_cast@std@@@8 ; std::bad_cast::`RTTI Base Class Descriptor at (0,-1,0,64)'
	DD	01H
	DD	00H
	DD	0ffffffffH
	DD	00H
	DD	040H
	DD	imagerel ??_R3bad_cast@std@@8
rdata$r	ENDS
;	COMDAT ??_R3_Facet_base@std@@8
rdata$r	SEGMENT
??_R3_Facet_base@std@@8 DD 00H				; std::_Facet_base::`RTTI Class Hierarchy Descriptor'
	DD	00H
	DD	01H
	DD	imagerel ??_R2_Facet_base@std@@8
rdata$r	ENDS
;	COMDAT ??_R4_System_error@std@@6B@
rdata$r	SEGMENT
??_R4_System_error@std@@6B@ DD 01H			; std::_System_error::`RTTI Complete Object Locator'
	DD	00H
	DD	00H
	DD	imagerel ??_R0?AV_System_error@std@@@8
	DD	imagerel ??_R3_System_error@std@@8
	DD	imagerel ??_R4_System_error@std@@6B@
rdata$r	ENDS
;	COMDAT ??_R4runtime_error@std@@6B@
rdata$r	SEGMENT
??_R4runtime_error@std@@6B@ DD 01H			; std::runtime_error::`RTTI Complete Object Locator'
	DD	00H
	DD	00H
	DD	imagerel ??_R0?AVruntime_error@std@@@8
	DD	imagerel ??_R3runtime_error@std@@8
	DD	imagerel ??_R4runtime_error@std@@6B@
rdata$r	ENDS
;	COMDAT ??_7error_category@std@@6B@
CONST	SEGMENT
??_7error_category@std@@6B@ DQ FLAT:??_R4error_category@std@@6B@ ; std::error_category::`vftable'
	DQ	FLAT:??_Eerror_category@std@@UEAAPEAXI@Z
	DQ	FLAT:_purecall
	DQ	FLAT:_purecall
	DQ	FLAT:?default_error_condition@error_category@std@@UEBA?AVerror_condition@2@H@Z
	DQ	FLAT:?equivalent@error_category@std@@UEBA_NAEBVerror_code@2@H@Z
	DQ	FLAT:?equivalent@error_category@std@@UEBA_NHAEBVerror_condition@2@@Z
CONST	ENDS
;	COMDAT _CT??_R0?AVexception@std@@@824
xdata$x	SEGMENT
_CT??_R0?AVexception@std@@@824 DD 00H
	DD	imagerel ??_R0?AVexception@std@@@8
	DD	00H
	DD	0ffffffffH
	ORG $+4
	DD	018H
	DD	imagerel ??0exception@std@@QEAA@AEBV01@@Z
xdata$x	ENDS
;	COMDAT ??_R1A@?0A@EA@_Iostream_error_category@std@@8
rdata$r	SEGMENT
??_R1A@?0A@EA@_Iostream_error_category@std@@8 DD imagerel ??_R0?AV_Iostream_error_category@std@@@8 ; std::_Iostream_error_category::`RTTI Base Class Descriptor at (0,-1,0,64)'
	DD	02H
	DD	00H
	DD	0ffffffffH
	DD	00H
	DD	040H
	DD	imagerel ??_R3_Iostream_error_category@std@@8
rdata$r	ENDS
;	COMDAT ??_R3?$ctype@D@std@@8
rdata$r	SEGMENT
??_R3?$ctype@D@std@@8 DD 00H				; std::ctype<char>::`RTTI Class Hierarchy Descriptor'
	DD	01H
	DD	05H
	DD	imagerel ??_R2?$ctype@D@std@@8
rdata$r	ENDS
;	COMDAT ??_R1A@?0A@EA@system_error@std@@8
rdata$r	SEGMENT
??_R1A@?0A@EA@system_error@std@@8 DD imagerel ??_R0?AVsystem_error@std@@@8 ; std::system_error::`RTTI Base Class Descriptor at (0,-1,0,64)'
	DD	03H
	DD	00H
	DD	0ffffffffH
	DD	00H
	DD	040H
	DD	imagerel ??_R3system_error@std@@8
rdata$r	ENDS
;	COMDAT ??_R4facet@locale@std@@6B@
rdata$r	SEGMENT
??_R4facet@locale@std@@6B@ DD 01H			; std::locale::facet::`RTTI Complete Object Locator'
	DD	00H
	DD	00H
	DD	imagerel ??_R0?AVfacet@locale@std@@@8
	DD	imagerel ??_R3facet@locale@std@@8
	DD	imagerel ??_R4facet@locale@std@@6B@
rdata$r	ENDS
;	COMDAT ??_R2system_error@std@@8
rdata$r	SEGMENT
??_R2system_error@std@@8 DD imagerel ??_R1A@?0A@EA@system_error@std@@8 ; std::system_error::`RTTI Base Class Array'
	DD	imagerel ??_R1A@?0A@EA@_System_error@std@@8
	DD	imagerel ??_R1A@?0A@EA@runtime_error@std@@8
	DD	imagerel ??_R1A@?0A@EA@exception@std@@8
	ORG $+3
rdata$r	ENDS
;	COMDAT ??_R4exception@std@@6B@
rdata$r	SEGMENT
??_R4exception@std@@6B@ DD 01H				; std::exception::`RTTI Complete Object Locator'
	DD	00H
	DD	00H
	DD	imagerel ??_R0?AVexception@std@@@8
	DD	imagerel ??_R3exception@std@@8
	DD	imagerel ??_R4exception@std@@6B@
rdata$r	ENDS
;	COMDAT ??_R0?AVruntime_error@std@@@8
data$r	SEGMENT
??_R0?AVruntime_error@std@@@8 DQ FLAT:??_7type_info@@6B@ ; std::runtime_error `RTTI Type Descriptor'
	DQ	0000000000000000H
	DB	'.?AVruntime_error@std@@', 00H
data$r	ENDS
;	COMDAT ??_R0?AVfailure@ios_base@std@@@8
data$r	SEGMENT
??_R0?AVfailure@ios_base@std@@@8 DQ FLAT:??_7type_info@@6B@ ; std::ios_base::failure `RTTI Type Descriptor'
	DQ	0000000000000000H
	DB	'.?AVfailure@ios_base@std@@', 00H
data$r	ENDS
;	COMDAT ??_C@_0BI@CFPLBAOH@invalid?5string?5position?$AA@
CONST	SEGMENT
??_C@_0BI@CFPLBAOH@invalid?5string?5position?$AA@ DB 'invalid string posi'
	DB	'tion', 00H					; `string'
CONST	ENDS
;	COMDAT ??_C@_0BA@JFNIOLAK@string?5too?5long?$AA@
CONST	SEGMENT
??_C@_0BA@JFNIOLAK@string?5too?5long?$AA@ DB 'string too long', 00H ; `string'
$SG4294967239 DB 'fileformat', 00H
CONST	ENDS
;	COMDAT ??_C@_0BF@OOHOMBOF@ios_base?3?3eofbit?5set?$AA@
CONST	SEGMENT
??_C@_0BF@OOHOMBOF@ios_base?3?3eofbit?5set?$AA@ DB 'ios_base::eofbit set', 00H ; `string'
CONST	ENDS
;	COMDAT ??_C@_0BG@FMKFHCIL@ios_base?3?3failbit?5set?$AA@
CONST	SEGMENT
??_C@_0BG@FMKFHCIL@ios_base?3?3failbit?5set?$AA@ DB 'ios_base::failbit se'
	DB	't', 00H					; `string'
CONST	ENDS
;	COMDAT ??_C@_0BF@PHHKMMFD@ios_base?3?3badbit?5set?$AA@
CONST	SEGMENT
??_C@_0BF@PHHKMMFD@ios_base?3?3badbit?5set?$AA@ DB 'ios_base::badbit set', 00H ; `string'
CONST	ENDS
;	COMDAT ??_C@_0BG@PADBLCHM@iostream?5stream?5error?$AA@
CONST	SEGMENT
??_C@_0BG@PADBLCHM@iostream?5stream?5error?$AA@ DB 'iostream stream error'
	DB	00H						; `string'
CONST	ENDS
;	COMDAT ??_C@_08LLGCOLLL@iostream?$AA@
CONST	SEGMENT
??_C@_08LLGCOLLL@iostream?$AA@ DB 'iostream', 00H	; `string'
CONST	ENDS
;	COMDAT ??_C@_07DCLBNMLN@generic?$AA@
CONST	SEGMENT
??_C@_07DCLBNMLN@generic?$AA@ DB 'generic', 00H		; `string'
CONST	ENDS
;	COMDAT ??_C@_02LMMGGCAJ@?3?5?$AA@
CONST	SEGMENT
??_C@_02LMMGGCAJ@?3?5?$AA@ DB ': ', 00H			; `string'
CONST	ENDS
;	COMDAT ??_C@_00CNPNBAHC@?$AA@
CONST	SEGMENT
??_C@_00CNPNBAHC@?$AA@ DB 00H				; `string'
CONST	ENDS
;	COMDAT ??_C@_0BA@ELKIONDK@bad?5locale?5name?$AA@
CONST	SEGMENT
??_C@_0BA@ELKIONDK@bad?5locale?5name?$AA@ DB 'bad locale name', 00H ; `string'
CONST	ENDS
;	COMDAT ??_C@_08EPJLHIJG@bad?5cast?$AA@
CONST	SEGMENT
??_C@_08EPJLHIJG@bad?5cast?$AA@ DB 'bad cast', 00H	; `string'
CONST	ENDS
;	COMDAT ??_C@_0BC@EOODALEL@Unknown?5exception?$AA@
CONST	SEGMENT
??_C@_0BC@EOODALEL@Unknown?5exception?$AA@ DB 'Unknown exception', 00H ; `string'
CONST	ENDS
PUBLIC	??$construct@PEADAEAPEAD@?$allocator@D@std@@QEAAXPEAPEADAEAPEAD@Z ; std::allocator<char>::construct<char * __ptr64,char * __ptr64 & __ptr64>
PUBLIC	??$destroy@PEAD@?$allocator@D@std@@QEAAXPEAPEAD@Z ; std::allocator<char>::destroy<char * __ptr64>
PUBLIC	??0?$_Wrap_alloc@V?$allocator@D@std@@@std@@QEAA@$$QEAU01@@Z ; std::_Wrap_alloc<std::allocator<char> >::_Wrap_alloc<std::allocator<char> >
PUBLIC	??$construct@PEADAEAPEAD@?$allocator_traits@V?$allocator@D@std@@@std@@SAXAEAV?$allocator@D@1@PEAPEADAEAPEAD@Z ; std::allocator_traits<std::allocator<char> >::construct<char * __ptr64,char * __ptr64 & __ptr64>
PUBLIC	??$forward@AEAPEAD@std@@YAAEAPEADAEAPEAD@Z	; std::forward<char * __ptr64 & __ptr64>
PUBLIC	??$destroy@PEAD@?$allocator_traits@V?$allocator@D@std@@@std@@SAXAEAV?$allocator@D@1@PEAPEAD@Z ; std::allocator_traits<std::allocator<char> >::destroy<char * __ptr64>
PUBLIC	??$forward@V?$allocator@D@std@@@std@@YA$$QEAV?$allocator@D@0@AEAV10@@Z ; std::forward<std::allocator<char> >
PUBLIC	??$?0U?$_Wrap_alloc@V?$allocator@D@std@@@std@@$$V@?$_Compressed_pair@U?$_Wrap_alloc@V?$allocator@D@std@@@std@@V?$_String_val@U?$_Simple_types@D@std@@@2@$00@std@@QEAA@U_One_then_variadic_args_t@1@$$QEAU?$_Wrap_alloc@V?$allocator@D@std@@@1@@Z ; std::_Compressed_pair<std::_Wrap_alloc<std::allocator<char> >,std::_String_val<std::_Simple_types<char> >,1>::_Compressed_pair<std::_Wrap_alloc<std::allocator<char> >,std::_String_val<std::_Simple_types<char> >,1><std::_Wrap_alloc<std::allocator<char> > >
PUBLIC	??$forward@U?$_Wrap_alloc@V?$allocator@D@std@@@std@@@std@@YA$$QEAU?$_Wrap_alloc@V?$allocator@D@std@@@0@AEAU10@@Z ; std::forward<std::_Wrap_alloc<std::allocator<char> > >
PUBLIC	?clear@?$basic_ios@DU?$char_traits@D@std@@@std@@QEAAXH_N@Z ; std::basic_ios<char,std::char_traits<char> >::clear
PUBLIC	?tie@?$basic_ios@DU?$char_traits@D@std@@@std@@QEBAPEAV?$basic_ostream@DU?$char_traits@D@std@@@2@XZ ; std::basic_ios<char,std::char_traits<char> >::tie
PUBLIC	?pubsync@?$basic_streambuf@DU?$char_traits@D@std@@@std@@QEAAHXZ ; std::basic_streambuf<char,std::char_traits<char> >::pubsync
PUBLIC	?_Pninc@?$basic_streambuf@DU?$char_traits@D@std@@@std@@IEAAPEADXZ ; std::basic_streambuf<char,std::char_traits<char> >::_Pninc
PUBLIC	?_Pnavail@?$basic_streambuf@DU?$char_traits@D@std@@@std@@IEBA_JXZ ; std::basic_streambuf<char,std::char_traits<char> >::_Pnavail
PUBLIC	?_Osfx@?$basic_ostream@DU?$char_traits@D@std@@@std@@QEAAXXZ ; std::basic_ostream<char,std::char_traits<char> >::_Osfx
PUBLIC	??0?$allocator@D@std@@QEAA@XZ			; std::allocator<char>::allocator<char>
PUBLIC	??0_Bxty@?$_String_val@U?$_Simple_types@D@std@@@std@@QEAA@XZ ; std::_String_val<std::_Simple_types<char> >::_Bxty::_Bxty
PUBLIC	??0_Sentry_base@?$basic_ostream@DU?$char_traits@D@std@@@std@@QEAA@AEAV12@@Z ; std::basic_ostream<char,std::char_traits<char> >::_Sentry_base::_Sentry_base
PUBLIC	??1_Sentry_base@?$basic_ostream@DU?$char_traits@D@std@@@std@@QEAA@XZ ; std::basic_ostream<char,std::char_traits<char> >::_Sentry_base::~_Sentry_base
PUBLIC	?setstate@?$basic_ios@DU?$char_traits@D@std@@@std@@QEAAXH_N@Z ; std::basic_ios<char,std::char_traits<char> >::setstate
PUBLIC	?rdbuf@?$basic_ios@DU?$char_traits@D@std@@@std@@QEBAPEAV?$basic_streambuf@DU?$char_traits@D@std@@@2@XZ ; std::basic_ios<char,std::char_traits<char> >::rdbuf
PUBLIC	?fill@?$basic_ios@DU?$char_traits@D@std@@@std@@QEBADXZ ; std::basic_ios<char,std::char_traits<char> >::fill
PUBLIC	?widen@?$basic_ios@DU?$char_traits@D@std@@@std@@QEBADD@Z ; std::basic_ios<char,std::char_traits<char> >::widen
PUBLIC	?sputc@?$basic_streambuf@DU?$char_traits@D@std@@@std@@QEAAHD@Z ; std::basic_streambuf<char,std::char_traits<char> >::sputc
PUBLIC	?sputn@?$basic_streambuf@DU?$char_traits@D@std@@@std@@QEAA_JPEBD_J@Z ; std::basic_streambuf<char,std::char_traits<char> >::sputn
PUBLIC	?put@?$basic_ostream@DU?$char_traits@D@std@@@std@@QEAAAEAV12@D@Z ; std::basic_ostream<char,std::char_traits<char> >::put
PUBLIC	?flush@?$basic_ostream@DU?$char_traits@D@std@@@std@@QEAAAEAV12@XZ ; std::basic_ostream<char,std::char_traits<char> >::flush
PUBLIC	??0?$_Wrap_alloc@V?$allocator@D@std@@@std@@QEAA@XZ ; std::_Wrap_alloc<std::allocator<char> >::_Wrap_alloc<std::allocator<char> >
PUBLIC	??0?$_String_val@U?$_Simple_types@D@std@@@std@@QEAA@XZ ; std::_String_val<std::_Simple_types<char> >::_String_val<std::_Simple_types<char> >
PUBLIC	??0sentry@?$basic_ostream@DU?$char_traits@D@std@@@std@@QEAA@AEAV12@@Z ; std::basic_ostream<char,std::char_traits<char> >::sentry::sentry
PUBLIC	??1sentry@?$basic_ostream@DU?$char_traits@D@std@@@std@@QEAA@XZ ; std::basic_ostream<char,std::char_traits<char> >::sentry::~sentry
PUBLIC	??Bsentry@?$basic_ostream@DU?$char_traits@D@std@@@std@@QEBA_NXZ ; std::basic_ostream<char,std::char_traits<char> >::sentry::operator bool
PUBLIC	??0?$_Immortalizer@V_Iostream_error_category@std@@@std@@QEAA@XZ ; std::_Immortalizer<std::_Iostream_error_category>::_Immortalizer<std::_Iostream_error_category>
PUBLIC	??1?$_Immortalizer@V_Iostream_error_category@std@@@std@@QEAA@XZ ; std::_Immortalizer<std::_Iostream_error_category>::~_Immortalizer<std::_Iostream_error_category>
PUBLIC	??0bad_cast@std@@QEAA@AEBV01@@Z			; std::bad_cast::bad_cast
PUBLIC	??__F_Static@?1???$_Immortalize@V_Iostream_error_category@std@@@std@@YAAEAV_Iostream_error_category@0@XZ@YAXXZ ; `std::_Immortalize<std::_Iostream_error_category>'::`2'::`dynamic atexit destructor for '_Static''
PUBLIC	??$construct@PEADAEAPEAD@?$_Wrap_alloc@V?$allocator@D@std@@@std@@QEAAXPEAPEADAEAPEAD@Z ; std::_Wrap_alloc<std::allocator<char> >::construct<char * __ptr64,char * __ptr64 & __ptr64>
PUBLIC	??$_Unfancy@D@std@@YAPEADPEAD@Z			; std::_Unfancy<char>
PUBLIC	??$destroy@PEAD@?$_Wrap_alloc@V?$allocator@D@std@@@std@@QEAAXPEAPEAD@Z ; std::_Wrap_alloc<std::allocator<char> >::destroy<char * __ptr64>
PUBLIC	??$addressof@PEAD@std@@YAPEAPEADAEAPEAD@Z	; std::addressof<char * __ptr64>
PUBLIC	??$?0$$V@?$_Compressed_pair@U?$_Wrap_alloc@V?$allocator@D@std@@@std@@V?$_String_val@U?$_Simple_types@D@std@@@2@$00@std@@QEAA@U_Zero_then_variadic_args_t@1@@Z ; std::_Compressed_pair<std::_Wrap_alloc<std::allocator<char> >,std::_String_val<std::_Simple_types<char> >,1>::_Compressed_pair<std::_Wrap_alloc<std::allocator<char> >,std::_String_val<std::_Simple_types<char> >,1><>
PUBLIC	??$?0V?$allocator@D@std@@@?$_Wrap_alloc@V?$allocator@D@std@@@std@@QEAA@$$QEAV?$allocator@D@1@@Z ; std::_Wrap_alloc<std::allocator<char> >::_Wrap_alloc<std::allocator<char> ><std::allocator<char> >
PUBLIC	??$forward@V?$basic_string@DU?$char_traits@D@std@@V?$allocator@D@2@@std@@@std@@YA$$QEAV?$basic_string@DU?$char_traits@D@std@@V?$allocator@D@2@@0@AEAV10@@Z ; std::forward<std::basic_string<char,std::char_traits<char>,std::allocator<char> > >
PUBLIC	??$?0U?$_Wrap_alloc@V?$allocator@D@std@@@std@@X@?$_String_alloc@U?$_String_base_types@DV?$allocator@D@std@@@std@@@std@@QEAA@$$QEAU?$_Wrap_alloc@V?$allocator@D@std@@@1@@Z ; std::_String_alloc<std::_String_base_types<char,std::allocator<char> > >::_String_alloc<std::_String_base_types<char,std::allocator<char> > ><std::_Wrap_alloc<std::allocator<char> >,void>
PUBLIC	??$move@AEAU?$_Wrap_alloc@V?$allocator@D@std@@@std@@@std@@YA$$QEAU?$_Wrap_alloc@V?$allocator@D@std@@@0@AEAU10@@Z ; std::move<std::_Wrap_alloc<std::allocator<char> > & __ptr64>
PUBLIC	??$endl@DU?$char_traits@D@std@@@std@@YAAEAV?$basic_ostream@DU?$char_traits@D@std@@@0@AEAV10@@Z ; std::endl<char,std::char_traits<char> >
PUBLIC	??$?6U?$char_traits@D@std@@@std@@YAAEAV?$basic_ostream@DU?$char_traits@D@std@@@0@AEAV10@PEBD@Z ; std::operator<<<std::char_traits<char> >
PUBLIC	??$_Immortalize@V_Iostream_error_category@std@@@std@@YAAEAV_Iostream_error_category@0@XZ ; std::_Immortalize<std::_Iostream_error_category>
PUBLIC	??$use_facet@V?$ctype@D@std@@@std@@YAAEBV?$ctype@D@0@AEBVlocale@0@@Z ; std::use_facet<std::ctype<char> >
PUBLIC	?max_size@?$allocator@D@std@@QEBA_KXZ		; std::allocator<char>::max_size
PUBLIC	?allocate@?$allocator@D@std@@QEAAPEAD_K@Z	; std::allocator<char>::allocate
PUBLIC	?max_size@?$allocator_traits@V?$allocator@D@std@@@std@@SA_KAEBV?$allocator@D@2@@Z ; std::allocator_traits<std::allocator<char> >::max_size
PUBLIC	?allocate@?$_Wrap_alloc@V?$allocator@D@std@@@std@@QEAAPEAD_K@Z ; std::_Wrap_alloc<std::allocator<char> >::allocate
PUBLIC	?max_size@?$_Wrap_alloc@V?$allocator@D@std@@@std@@QEBA_KU_Nil@2@@Z ; std::_Wrap_alloc<std::allocator<char> >::max_size
PUBLIC	??0?$allocator@D@std@@QEAA@AEBV01@@Z		; std::allocator<char>::allocator<char>
PUBLIC	?deallocate@?$allocator@D@std@@QEAAXPEAD_K@Z	; std::allocator<char>::deallocate
PUBLIC	?max_size@?$basic_string@DU?$char_traits@D@std@@V?$allocator@D@2@@std@@QEBA_KXZ ; std::basic_string<char,std::char_traits<char>,std::allocator<char> >::max_size
PUBLIC	?_Copy@?$basic_string@DU?$char_traits@D@std@@V?$allocator@D@2@@std@@QEAAX_K0@Z ; std::basic_string<char,std::char_traits<char>,std::allocator<char> >::_Copy
PUBLIC	?_Xran@?$basic_string@DU?$char_traits@D@std@@V?$allocator@D@2@@std@@QEBAXXZ ; std::basic_string<char,std::char_traits<char>,std::allocator<char> >::_Xran
PUBLIC	?_Get_second@?$_Compressed_pair@U?$_Wrap_alloc@V?$allocator@D@std@@@std@@V?$_String_val@U?$_Simple_types@D@std@@@2@$00@std@@QEAAAEAV?$_String_val@U?$_Simple_types@D@std@@@2@XZ ; std::_Compressed_pair<std::_Wrap_alloc<std::allocator<char> >,std::_String_val<std::_Simple_types<char> >,1>::_Get_second
PUBLIC	?_Get_second@?$_Compressed_pair@U?$_Wrap_alloc@V?$allocator@D@std@@@std@@V?$_String_val@U?$_Simple_types@D@std@@@2@$00@std@@QEBAAEBV?$_String_val@U?$_Simple_types@D@std@@@2@XZ ; std::_Compressed_pair<std::_Wrap_alloc<std::allocator<char> >,std::_String_val<std::_Simple_types<char> >,1>::_Get_second
PUBLIC	?assign@?$basic_string@DU?$char_traits@D@std@@V?$allocator@D@2@@std@@QEAAAEAV12@PEBD_K@Z ; std::basic_string<char,std::char_traits<char>,std::allocator<char> >::assign
PUBLIC	?erase@?$basic_string@DU?$char_traits@D@std@@V?$allocator@D@2@@std@@QEAAAEAV12@_K@Z ; std::basic_string<char,std::char_traits<char>,std::allocator<char> >::erase
PUBLIC	?erase@?$basic_string@DU?$char_traits@D@std@@V?$allocator@D@2@@std@@QEAAAEAV12@_K0@Z ; std::basic_string<char,std::char_traits<char>,std::allocator<char> >::erase
PUBLIC	?_Clamp_suffix_size@?$basic_string@DU?$char_traits@D@std@@V?$allocator@D@2@@std@@QEBA_K_K0@Z ; std::basic_string<char,std::char_traits<char>,std::allocator<char> >::_Clamp_suffix_size
PUBLIC	?_Eos@?$basic_string@DU?$char_traits@D@std@@V?$allocator@D@2@@std@@QEAAX_K@Z ; std::basic_string<char,std::char_traits<char>,std::allocator<char> >::_Eos
PUBLIC	?_Grow@?$basic_string@DU?$char_traits@D@std@@V?$allocator@D@2@@std@@QEAA_N_K_N@Z ; std::basic_string<char,std::char_traits<char>,std::allocator<char> >::_Grow
PUBLIC	?_Inside@?$basic_string@DU?$char_traits@D@std@@V?$allocator@D@2@@std@@QEAA_NPEBD@Z ; std::basic_string<char,std::char_traits<char>,std::allocator<char> >::_Inside
PUBLIC	?_Xlen@?$basic_string@DU?$char_traits@D@std@@V?$allocator@D@2@@std@@QEBAXXZ ; std::basic_string<char,std::char_traits<char>,std::allocator<char> >::_Xlen
PUBLIC	?_Check_offset@?$basic_string@DU?$char_traits@D@std@@V?$allocator@D@2@@std@@QEBAX_K@Z ; std::basic_string<char,std::char_traits<char>,std::allocator<char> >::_Check_offset
PUBLIC	?_Get_data@?$_String_alloc@U?$_String_base_types@DV?$allocator@D@std@@@std@@@std@@QEAAAEAV?$_String_val@U?$_Simple_types@D@std@@@2@XZ ; std::_String_alloc<std::_String_base_types<char,std::allocator<char> > >::_Get_data
PUBLIC	?_Get_data@?$_String_alloc@U?$_String_base_types@DV?$allocator@D@std@@@std@@@std@@QEBAAEBV?$_String_val@U?$_Simple_types@D@std@@@2@XZ ; std::_String_alloc<std::_String_base_types<char,std::allocator<char> > >::_Get_data
PUBLIC	?_Bx@?$_String_alloc@U?$_String_base_types@DV?$allocator@D@std@@@std@@@std@@QEAAAEAT_Bxty@?$_String_val@U?$_Simple_types@D@std@@@2@XZ ; std::_String_alloc<std::_String_base_types<char,std::allocator<char> > >::_Bx
PUBLIC	?_Mysize@?$_String_alloc@U?$_String_base_types@DV?$allocator@D@std@@@std@@@std@@QEAAAEA_KXZ ; std::_String_alloc<std::_String_base_types<char,std::allocator<char> > >::_Mysize
PUBLIC	?_Myres@?$_String_alloc@U?$_String_base_types@DV?$allocator@D@std@@@std@@@std@@QEAAAEA_KXZ ; std::_String_alloc<std::_String_base_types<char,std::allocator<char> > >::_Myres
PUBLIC	?deallocate@?$_Wrap_alloc@V?$allocator@D@std@@@std@@QEAAXPEAD_K@Z ; std::_Wrap_alloc<std::allocator<char> >::deallocate
PUBLIC	?select_on_container_copy_construction@?$allocator_traits@V?$allocator@D@std@@@std@@SA?AV?$allocator@D@2@AEBV32@@Z ; std::allocator_traits<std::allocator<char> >::select_on_container_copy_construction
PUBLIC	?_Myptr@?$_String_val@U?$_Simple_types@D@std@@@std@@QEAAPEADXZ ; std::_String_val<std::_Simple_types<char> >::_Myptr
PUBLIC	?_Myptr@?$_String_val@U?$_Simple_types@D@std@@@std@@QEBAPEBDXZ ; std::_String_val<std::_Simple_types<char> >::_Myptr
PUBLIC	?_Get_first@?$_Compressed_pair@U?$_Wrap_alloc@V?$allocator@D@std@@@std@@V?$_String_val@U?$_Simple_types@D@std@@@2@$00@std@@QEAAAEAU?$_Wrap_alloc@V?$allocator@D@std@@@2@XZ ; std::_Compressed_pair<std::_Wrap_alloc<std::allocator<char> >,std::_String_val<std::_Simple_types<char> >,1>::_Get_first
PUBLIC	?_Get_first@?$_Compressed_pair@U?$_Wrap_alloc@V?$allocator@D@std@@@std@@V?$_String_val@U?$_Simple_types@D@std@@@2@$00@std@@QEBAAEBU?$_Wrap_alloc@V?$allocator@D@std@@@2@XZ ; std::_Compressed_pair<std::_Wrap_alloc<std::allocator<char> >,std::_String_val<std::_Simple_types<char> >,1>::_Get_first
PUBLIC	?_Assign_rv@?$basic_string@DU?$char_traits@D@std@@V?$allocator@D@2@@std@@QEAAX$$QEAV12@@Z ; std::basic_string<char,std::char_traits<char>,std::allocator<char> >::_Assign_rv
PUBLIC	?append@?$basic_string@DU?$char_traits@D@std@@V?$allocator@D@2@@std@@QEAAAEAV12@AEBV12@_K1@Z ; std::basic_string<char,std::char_traits<char>,std::allocator<char> >::append
PUBLIC	?append@?$basic_string@DU?$char_traits@D@std@@V?$allocator@D@2@@std@@QEAAAEAV12@PEBD_K@Z ; std::basic_string<char,std::char_traits<char>,std::allocator<char> >::append
PUBLIC	?assign@?$basic_string@DU?$char_traits@D@std@@V?$allocator@D@2@@std@@QEAAAEAV12@AEBV12@_K1@Z ; std::basic_string<char,std::char_traits<char>,std::allocator<char> >::assign
PUBLIC	?assign@?$basic_string@DU?$char_traits@D@std@@V?$allocator@D@2@@std@@QEAAAEAV12@PEBD@Z ; std::basic_string<char,std::char_traits<char>,std::allocator<char> >::assign
PUBLIC	?_Tidy@?$basic_string@DU?$char_traits@D@std@@V?$allocator@D@2@@std@@QEAAX_N_K@Z ; std::basic_string<char,std::char_traits<char>,std::allocator<char> >::_Tidy
PUBLIC	?_Myptr@?$_String_alloc@U?$_String_base_types@DV?$allocator@D@std@@@std@@@std@@QEAAPEADXZ ; std::_String_alloc<std::_String_base_types<char,std::allocator<char> > >::_Myptr
PUBLIC	?_Myptr@?$_String_alloc@U?$_String_base_types@DV?$allocator@D@std@@@std@@@std@@QEBAPEBDXZ ; std::_String_alloc<std::_String_base_types<char,std::allocator<char> > >::_Myptr
PUBLIC	??0?$_String_alloc@U?$_String_base_types@DV?$allocator@D@std@@@std@@@std@@QEAA@XZ ; std::_String_alloc<std::_String_base_types<char,std::allocator<char> > >::_String_alloc<std::_String_base_types<char,std::allocator<char> > >
PUBLIC	?_Getal@?$_String_alloc@U?$_String_base_types@DV?$allocator@D@std@@@std@@@std@@QEAAAEAU?$_Wrap_alloc@V?$allocator@D@std@@@2@XZ ; std::_String_alloc<std::_String_base_types<char,std::allocator<char> > >::_Getal
PUBLIC	?_Getal@?$_String_alloc@U?$_String_base_types@DV?$allocator@D@std@@@std@@@std@@QEBAAEBU?$_Wrap_alloc@V?$allocator@D@std@@@2@XZ ; std::_String_alloc<std::_String_base_types<char,std::allocator<char> > >::_Getal
PUBLIC	?_Mysize@?$_String_alloc@U?$_String_base_types@DV?$allocator@D@std@@@std@@@std@@QEBAAEB_KXZ ; std::_String_alloc<std::_String_base_types<char,std::allocator<char> > >::_Mysize
PUBLIC	?select_on_container_copy_construction@?$_Wrap_alloc@V?$allocator@D@std@@@std@@QEBA?AU12@U_Nil@2@@Z ; std::_Wrap_alloc<std::allocator<char> >::select_on_container_copy_construction
PUBLIC	??1_Bxty@?$_String_val@U?$_Simple_types@D@std@@@std@@QEAA@XZ ; std::_String_val<std::_Simple_types<char> >::_Bxty::~_Bxty
PUBLIC	?_Tidy@?$_Yarn@D@std@@AEAAXXZ			; std::_Yarn<char>::_Tidy
PUBLIC	?_Tidy@?$_Yarn@_W@std@@AEAAXXZ			; std::_Yarn<wchar_t>::_Tidy
PUBLIC	??1?$_String_val@U?$_Simple_types@D@std@@@std@@QEAA@XZ ; std::_String_val<std::_Simple_types<char> >::~_String_val<std::_Simple_types<char> >
PUBLIC	??1?$_Compressed_pair@U?$_Wrap_alloc@V?$allocator@D@std@@@std@@V?$_String_val@U?$_Simple_types@D@std@@@2@$00@std@@QEAA@XZ ; std::_Compressed_pair<std::_Wrap_alloc<std::allocator<char> >,std::_String_val<std::_Simple_types<char> >,1>::~_Compressed_pair<std::_Wrap_alloc<std::allocator<char> >,std::_String_val<std::_Simple_types<char> >,1>
PUBLIC	??1?$_String_alloc@U?$_String_base_types@DV?$allocator@D@std@@@std@@@std@@QEAA@XZ ; std::_String_alloc<std::_String_base_types<char,std::allocator<char> > >::~_String_alloc<std::_String_base_types<char,std::allocator<char> > >
PUBLIC	??6?$basic_ostream@DU?$char_traits@D@std@@@std@@QEAAAEAV01@P6AAEAV01@AEAV01@@Z@Z ; std::basic_ostream<char,std::char_traits<char> >::operator<<
PUBLIC	??0?$basic_string@DU?$char_traits@D@std@@V?$allocator@D@2@@std@@QEAA@AEBV01@@Z ; std::basic_string<char,std::char_traits<char>,std::allocator<char> >::basic_string<char,std::char_traits<char>,std::allocator<char> >
PUBLIC	??0?$basic_string@DU?$char_traits@D@std@@V?$allocator@D@2@@std@@QEAA@PEBD@Z ; std::basic_string<char,std::char_traits<char>,std::allocator<char> >::basic_string<char,std::char_traits<char>,std::allocator<char> >
PUBLIC	??0?$basic_string@DU?$char_traits@D@std@@V?$allocator@D@2@@std@@QEAA@$$QEAV01@@Z ; std::basic_string<char,std::char_traits<char>,std::allocator<char> >::basic_string<char,std::char_traits<char>,std::allocator<char> >
PUBLIC	??1?$basic_string@DU?$char_traits@D@std@@V?$allocator@D@2@@std@@QEAA@XZ ; std::basic_string<char,std::char_traits<char>,std::allocator<char> >::~basic_string<char,std::char_traits<char>,std::allocator<char> >
PUBLIC	?append@?$basic_string@DU?$char_traits@D@std@@V?$allocator@D@2@@std@@QEAAAEAV12@AEBV12@@Z ; std::basic_string<char,std::char_traits<char>,std::allocator<char> >::append
PUBLIC	?append@?$basic_string@DU?$char_traits@D@std@@V?$allocator@D@2@@std@@QEAAAEAV12@PEBD@Z ; std::basic_string<char,std::char_traits<char>,std::allocator<char> >::append
PUBLIC	?c_str@?$basic_string@DU?$char_traits@D@std@@V?$allocator@D@2@@std@@QEBAPEBDXZ ; std::basic_string<char,std::char_traits<char>,std::allocator<char> >::c_str
PUBLIC	?empty@?$basic_string@DU?$char_traits@D@std@@V?$allocator@D@2@@std@@QEBA_NXZ ; std::basic_string<char,std::char_traits<char>,std::allocator<char> >::empty
PUBLIC	??0?$_Yarn@D@std@@QEAA@XZ			; std::_Yarn<char>::_Yarn<char>
PUBLIC	??1?$_Yarn@D@std@@QEAA@XZ			; std::_Yarn<char>::~_Yarn<char>
PUBLIC	?c_str@?$_Yarn@D@std@@QEBAPEBDXZ		; std::_Yarn<char>::c_str
PUBLIC	??0?$_Yarn@_W@std@@QEAA@XZ			; std::_Yarn<wchar_t>::_Yarn<wchar_t>
PUBLIC	??1?$_Yarn@_W@std@@QEAA@XZ			; std::_Yarn<wchar_t>::~_Yarn<wchar_t>
PUBLIC	main
PUBLIC	??0_System_error@std@@QEAA@AEBV01@@Z		; std::_System_error::_System_error
PUBLIC	??0system_error@std@@QEAA@AEBV01@@Z		; std::system_error::system_error
PUBLIC	??0failure@ios_base@std@@QEAA@AEBV012@@Z	; std::ios_base::failure::failure
PUBLIC	??1failure@ios_base@std@@UEAA@XZ		; std::ios_base::failure::~failure
PUBLIC	??_Gfailure@ios_base@std@@UEAAPEAXI@Z		; std::ios_base::failure::`scalar deleting destructor'
PUBLIC	?getloc@ios_base@std@@QEBA?AVlocale@2@XZ	; std::ios_base::getloc
PUBLIC	?width@ios_base@std@@QEAA_J_J@Z			; std::ios_base::width
PUBLIC	?width@ios_base@std@@QEBA_JXZ			; std::ios_base::width
PUBLIC	?flags@ios_base@std@@QEBAHXZ			; std::ios_base::flags
PUBLIC	?good@ios_base@std@@QEBA_NXZ			; std::ios_base::good
PUBLIC	?rdstate@ios_base@std@@QEBAHXZ			; std::ios_base::rdstate
PUBLIC	?clear@ios_base@std@@QEAAXH_N@Z			; std::ios_base::clear
PUBLIC	??0failure@ios_base@std@@QEAA@PEBDAEBVerror_code@2@@Z ; std::ios_base::failure::failure
PUBLIC	?iostream_category@std@@YAAEBVerror_category@1@XZ ; std::iostream_category
PUBLIC	??1_Iostream_error_category@std@@UEAA@XZ	; std::_Iostream_error_category::~_Iostream_error_category
PUBLIC	??_G_Iostream_error_category@std@@UEAAPEAXI@Z	; std::_Iostream_error_category::`scalar deleting destructor'
PUBLIC	?message@_Iostream_error_category@std@@UEBA?AV?$basic_string@DU?$char_traits@D@std@@V?$allocator@D@2@@2@H@Z ; std::_Iostream_error_category::message
PUBLIC	?name@_Iostream_error_category@std@@UEBAPEBDXZ	; std::_Iostream_error_category::name
PUBLIC	??0_Iostream_error_category@std@@QEAA@XZ	; std::_Iostream_error_category::_Iostream_error_category
PUBLIC	??1_Generic_error_category@std@@UEAA@XZ		; std::_Generic_error_category::~_Generic_error_category
PUBLIC	??_G_Generic_error_category@std@@UEAAPEAXI@Z	; std::_Generic_error_category::`scalar deleting destructor'
PUBLIC	?message@_Generic_error_category@std@@UEBA?AV?$basic_string@DU?$char_traits@D@std@@V?$allocator@D@2@@2@H@Z ; std::_Generic_error_category::message
PUBLIC	?name@_Generic_error_category@std@@UEBAPEBDXZ	; std::_Generic_error_category::name
PUBLIC	??0_Generic_error_category@std@@QEAA@XZ		; std::_Generic_error_category::_Generic_error_category
PUBLIC	??1system_error@std@@UEAA@XZ			; std::system_error::~system_error
PUBLIC	??_Gsystem_error@std@@UEAAPEAXI@Z		; std::system_error::`scalar deleting destructor'
PUBLIC	??0system_error@std@@QEAA@Verror_code@1@PEBD@Z	; std::system_error::system_error
PUBLIC	??1_System_error@std@@UEAA@XZ			; std::_System_error::~_System_error
PUBLIC	??_G_System_error@std@@UEAAPEAXI@Z		; std::_System_error::`scalar deleting destructor'
PUBLIC	??0_System_error@std@@IEAA@Verror_code@1@AEBV?$basic_string@DU?$char_traits@D@std@@V?$allocator@D@2@@1@@Z ; std::_System_error::_System_error
PUBLIC	?_Makestr@_System_error@std@@CA?AV?$basic_string@DU?$char_traits@D@std@@V?$allocator@D@2@@2@Verror_code@2@V32@@Z ; std::_System_error::_Makestr
PUBLIC	?make_error_code@std@@YA?AVerror_code@1@W4io_errc@1@@Z ; std::make_error_code
PUBLIC	?equivalent@error_category@std@@UEBA_NAEBVerror_code@2@H@Z ; std::error_category::equivalent
PUBLIC	?equivalent@error_category@std@@UEBA_NHAEBVerror_condition@2@@Z ; std::error_category::equivalent
PUBLIC	?default_error_condition@error_category@std@@UEBA?AVerror_condition@2@H@Z ; std::error_category::default_error_condition
PUBLIC	??8std@@YA_NAEBVerror_condition@0@0@Z		; std::operator==
PUBLIC	?category@error_condition@std@@QEBAAEBVerror_category@2@XZ ; std::error_condition::category
PUBLIC	?value@error_condition@std@@QEBAHXZ		; std::error_condition::value
PUBLIC	??0error_condition@std@@QEAA@HAEBVerror_category@1@@Z ; std::error_condition::error_condition
PUBLIC	?message@error_code@std@@QEBA?AV?$basic_string@DU?$char_traits@D@std@@V?$allocator@D@2@@2@XZ ; std::error_code::message
PUBLIC	?category@error_code@std@@QEBAAEBVerror_category@2@XZ ; std::error_code::category
PUBLIC	?value@error_code@std@@QEBAHXZ			; std::error_code::value
PUBLIC	??0error_code@std@@QEAA@HAEBVerror_category@1@@Z ; std::error_code::error_code
PUBLIC	??_Gerror_category@std@@UEAAPEAXI@Z		; std::error_category::`scalar deleting destructor'
PUBLIC	??8error_category@std@@QEBA_NAEBV01@@Z		; std::error_category::operator==
PUBLIC	??1error_category@std@@UEAA@XZ			; std::error_category::~error_category
PUBLIC	??0error_category@std@@QEAA@XZ			; std::error_category::error_category
PUBLIC	??_G?$ctype@D@std@@MEAAPEAXI@Z			; std::ctype<char>::`scalar deleting destructor'
PUBLIC	?do_narrow@?$ctype@D@std@@MEBAPEBDPEBD0DPEAD@Z	; std::ctype<char>::do_narrow
PUBLIC	?do_narrow@?$ctype@D@std@@MEBADDD@Z		; std::ctype<char>::do_narrow
PUBLIC	?do_widen@?$ctype@D@std@@MEBAPEBDPEBD0PEAD@Z	; std::ctype<char>::do_widen
PUBLIC	?do_widen@?$ctype@D@std@@MEBADD@Z		; std::ctype<char>::do_widen
PUBLIC	?do_toupper@?$ctype@D@std@@MEBAPEBDPEADPEBD@Z	; std::ctype<char>::do_toupper
PUBLIC	?do_toupper@?$ctype@D@std@@MEBADD@Z		; std::ctype<char>::do_toupper
PUBLIC	?do_tolower@?$ctype@D@std@@MEBAPEBDPEADPEBD@Z	; std::ctype<char>::do_tolower
PUBLIC	?do_tolower@?$ctype@D@std@@MEBADD@Z		; std::ctype<char>::do_tolower
PUBLIC	?_Tidy@?$ctype@D@std@@IEAAXXZ			; std::ctype<char>::_Tidy
PUBLIC	?_Init@?$ctype@D@std@@IEAAXAEBV_Locinfo@2@@Z	; std::ctype<char>::_Init
PUBLIC	??1?$ctype@D@std@@MEAA@XZ			; std::ctype<char>::~ctype<char>
PUBLIC	?_Getcat@?$ctype@D@std@@SA_KPEAPEBVfacet@locale@2@PEBV42@@Z ; std::ctype<char>::_Getcat
PUBLIC	??0?$ctype@D@std@@QEAA@AEBV_Locinfo@1@_K@Z	; std::ctype<char>::ctype<char>
PUBLIC	?widen@?$ctype@D@std@@QEBADD@Z			; std::ctype<char>::widen
PUBLIC	??_Gctype_base@std@@UEAAPEAXI@Z			; std::ctype_base::`scalar deleting destructor'
PUBLIC	??1ctype_base@std@@UEAA@XZ			; std::ctype_base::~ctype_base
PUBLIC	??0ctype_base@std@@QEAA@_K@Z			; std::ctype_base::ctype_base
PUBLIC	??0_Facet_base@std@@QEAA@XZ			; std::_Facet_base::_Facet_base
PUBLIC	??_Gfacet@locale@std@@MEAAPEAXI@Z		; std::locale::facet::`scalar deleting destructor'
PUBLIC	?_Getfacet@locale@std@@QEBAPEBVfacet@12@_K@Z	; std::locale::_Getfacet
PUBLIC	?c_str@locale@std@@QEBAPEBDXZ			; std::locale::c_str
PUBLIC	??1locale@std@@QEAA@XZ				; std::locale::~locale
PUBLIC	??0locale@std@@QEAA@AEBV01@@Z			; std::locale::locale
PUBLIC	??1facet@locale@std@@MEAA@XZ			; std::locale::facet::~facet
PUBLIC	??0facet@locale@std@@IEAA@_K@Z			; std::locale::facet::facet
PUBLIC	?_Decref@facet@locale@std@@UEAAPEAV_Facet_base@3@XZ ; std::locale::facet::_Decref
PUBLIC	?_Incref@facet@locale@std@@UEAAXXZ		; std::locale::facet::_Incref
PUBLIC	??Bid@locale@std@@QEAA_KXZ			; std::locale::id::operator unsigned __int64
PUBLIC	??_G_Facet_base@std@@UEAAPEAXI@Z		; std::_Facet_base::`scalar deleting destructor'
PUBLIC	??1_Facet_base@std@@UEAA@XZ			; std::_Facet_base::~_Facet_base
PUBLIC	??0runtime_error@std@@QEAA@AEBV01@@Z		; std::runtime_error::runtime_error
PUBLIC	?_Getctype@_Locinfo@std@@QEBA?AU_Ctypevec@@XZ	; std::_Locinfo::_Getctype
PUBLIC	??1_Locinfo@std@@QEAA@XZ			; std::_Locinfo::~_Locinfo
PUBLIC	??0_Locinfo@std@@QEAA@PEBD@Z			; std::_Locinfo::_Locinfo
PUBLIC	??1bad_cast@std@@UEAA@XZ			; std::bad_cast::~bad_cast
PUBLIC	??_Gbad_cast@std@@UEAAPEAXI@Z			; std::bad_cast::`scalar deleting destructor'
PUBLIC	??0bad_cast@std@@QEAA@XZ			; std::bad_cast::bad_cast
PUBLIC	??1runtime_error@std@@UEAA@XZ			; std::runtime_error::~runtime_error
PUBLIC	??_Gruntime_error@std@@UEAAPEAXI@Z		; std::runtime_error::`scalar deleting destructor'
PUBLIC	??0runtime_error@std@@QEAA@PEBD@Z		; std::runtime_error::runtime_error
PUBLIC	??0runtime_error@std@@QEAA@AEBV?$basic_string@DU?$char_traits@D@std@@V?$allocator@D@2@@1@@Z ; std::runtime_error::runtime_error
PUBLIC	?_Init_atomic_counter@std@@YAXAEAKK@Z		; std::_Init_atomic_counter
PUBLIC	?_Deallocate@std@@YAXPEAX_K1@Z			; std::_Deallocate
PUBLIC	?_Allocate@std@@YAPEAX_K0_N@Z			; std::_Allocate
PUBLIC	?eof@?$char_traits@D@std@@SAHXZ			; std::char_traits<char>::eof
PUBLIC	?eq_int_type@?$char_traits@D@std@@SA_NAEBH0@Z	; std::char_traits<char>::eq_int_type
PUBLIC	?to_int_type@?$char_traits@D@std@@SAHAEBD@Z	; std::char_traits<char>::to_int_type
PUBLIC	?assign@?$char_traits@D@std@@SAXAEADAEBD@Z	; std::char_traits<char>::assign
PUBLIC	?move@?$char_traits@D@std@@SAPEADPEADPEBD_K@Z	; std::char_traits<char>::move
PUBLIC	?copy@?$char_traits@D@std@@SAPEADPEADPEBD_K@Z	; std::char_traits<char>::copy
PUBLIC	?length@?$char_traits@D@std@@SA_KPEBD@Z		; std::char_traits<char>::length
PUBLIC	??2@YAPEAX_KPEAX@Z				; operator new
PUBLIC	??_Gexception@std@@UEAAPEAXI@Z			; std::exception::`scalar deleting destructor'
PUBLIC	?what@exception@std@@UEBAPEBDXZ			; std::exception::what
PUBLIC	??1exception@std@@UEAA@XZ			; std::exception::~exception
PUBLIC	??0exception@std@@QEAA@AEBV01@@Z		; std::exception::exception
PUBLIC	??0exception@std@@QEAA@QEBDH@Z			; std::exception::exception
PUBLIC	??0exception@std@@QEAA@QEBD@Z			; std::exception::exception
PUBLIC	?$TSS0@?1???$_Immortalize@V_Iostream_error_category@std@@@std@@YAAEAV_Iostream_error_category@1@XZ@4HA ; TSS0<`template-parameter-2',unsigned int,std::V_Iostream_error_category::mortalize>
PUBLIC	?_Static@?1???$_Immortalize@V_Iostream_error_category@std@@@std@@YAAEAV_Iostream_error_category@1@XZ@4U?$_Immortalizer@V_Iostream_error_category@std@@@1@A ; `std::_Immortalize<std::_Iostream_error_category>'::`2'::_Static
EXTRN	??_Ebad_cast@std@@UEAAPEAXI@Z:PROC		; std::bad_cast::`vector deleting destructor'
EXTRN	??_Efacet@locale@std@@MEAAPEAXI@Z:PROC		; std::locale::facet::`vector deleting destructor'
EXTRN	??_E_System_error@std@@UEAAPEAXI@Z:PROC		; std::_System_error::`vector deleting destructor'
EXTRN	??_Eexception@std@@UEAAPEAXI@Z:PROC		; std::exception::`vector deleting destructor'
EXTRN	??_Efailure@ios_base@std@@UEAAPEAXI@Z:PROC	; std::ios_base::failure::`vector deleting destructor'
EXTRN	??_E?$ctype@D@std@@MEAAPEAXI@Z:PROC		; std::ctype<char>::`vector deleting destructor'
EXTRN	??_E_Iostream_error_category@std@@UEAAPEAXI@Z:PROC ; std::_Iostream_error_category::`vector deleting destructor'
EXTRN	??_Esystem_error@std@@UEAAPEAXI@Z:PROC		; std::system_error::`vector deleting destructor'
EXTRN	??_Eruntime_error@std@@UEAAPEAXI@Z:PROC		; std::runtime_error::`vector deleting destructor'
EXTRN	??_Ectype_base@std@@UEAAPEAXI@Z:PROC		; std::ctype_base::`vector deleting destructor'
EXTRN	??_Eerror_category@std@@UEAAPEAXI@Z:PROC	; std::error_category::`vector deleting destructor'
EXTRN	??_E_Facet_base@std@@UEAAPEAXI@Z:PROC		; std::_Facet_base::`vector deleting destructor'
EXTRN	??_E_Generic_error_category@std@@UEAAPEAXI@Z:PROC ; std::_Generic_error_category::`vector deleting destructor'
EXTRN	_CxxThrowException:PROC
EXTRN	__CxxFrameHandler3:PROC
EXTRN	__GSHandlerCheck:PROC
EXTRN	__GSHandlerCheck_EH:PROC
EXTRN	memcpy:PROC
EXTRN	__security_cookie:QWORD
EXTRN	_tls_index:DWORD
;	COMDAT ?$TSS0@?1???$_Immortalize@V_Iostream_error_category@std@@@std@@YAAEAV_Iostream_error_category@1@XZ@4HA
_BSS	SEGMENT
?$TSS0@?1???$_Immortalize@V_Iostream_error_category@std@@@std@@YAAEAV_Iostream_error_category@1@XZ@4HA DD 01H DUP (?) ; TSS0<`template-parameter-2',unsigned int,std::V_Iostream_error_category::mortalize>
_BSS	ENDS
;	COMDAT ?_Static@?1???$_Immortalize@V_Iostream_error_category@std@@@std@@YAAEAV_Iostream_error_category@1@XZ@4U?$_Immortalizer@V_Iostream_error_category@std@@@1@A
_BSS	SEGMENT
?_Static@?1???$_Immortalize@V_Iostream_error_category@std@@@std@@YAAEAV_Iostream_error_category@1@XZ@4U?$_Immortalizer@V_Iostream_error_category@std@@@1@A DB 010H DUP (?) ; `std::_Immortalize<std::_Iostream_error_category>'::`2'::_Static
_BSS	ENDS
;	COMDAT pdata
pdata	SEGMENT
$pdata$?_Osfx@?$basic_ostream@DU?$char_traits@D@std@@@std@@QEAAXXZ DD imagerel $LN30
	DD	imagerel $LN30+98
	DD	imagerel $unwind$?_Osfx@?$basic_ostream@DU?$char_traits@D@std@@@std@@QEAAXXZ
pdata	ENDS
;	COMDAT pdata
pdata	SEGMENT
$pdata$?catch$0@?0??_Osfx@?$basic_ostream@DU?$char_traits@D@std@@@std@@QEAAXXZ@4HA DD imagerel ?catch$0@?0??_Osfx@?$basic_ostream@DU?$char_traits@D@std@@@std@@QEAAXXZ@4HA
	DD	imagerel ?catch$0@?0??_Osfx@?$basic_ostream@DU?$char_traits@D@std@@@std@@QEAAXXZ@4HA+27
	DD	imagerel $unwind$?catch$0@?0??_Osfx@?$basic_ostream@DU?$char_traits@D@std@@@std@@QEAAXXZ@4HA
pdata	ENDS
;	COMDAT pdata
pdata	SEGMENT
$pdata$??0_Sentry_base@?$basic_ostream@DU?$char_traits@D@std@@@std@@QEAA@AEAV12@@Z DD imagerel $LN10
	DD	imagerel $LN10+44
	DD	imagerel $unwind$??0_Sentry_base@?$basic_ostream@DU?$char_traits@D@std@@@std@@QEAA@AEAV12@@Z
pdata	ENDS
;	COMDAT pdata
pdata	SEGMENT
$pdata$??1_Sentry_base@?$basic_ostream@DU?$char_traits@D@std@@@std@@QEAA@XZ DD imagerel $LN8
	DD	imagerel $LN8+45
	DD	imagerel $unwind$??1_Sentry_base@?$basic_ostream@DU?$char_traits@D@std@@@std@@QEAA@XZ
pdata	ENDS
;	COMDAT pdata
pdata	SEGMENT
$pdata$?widen@?$basic_ios@DU?$char_traits@D@std@@@std@@QEBADD@Z DD imagerel $LN16
	DD	imagerel $LN16+121
	DD	imagerel $unwind$?widen@?$basic_ios@DU?$char_traits@D@std@@@std@@QEBADD@Z
pdata	ENDS
;	COMDAT pdata
pdata	SEGMENT
$pdata$?put@?$basic_ostream@DU?$char_traits@D@std@@@std@@QEAAAEAV12@D@Z DD imagerel $LN1100
	DD	imagerel $LN1100+331
	DD	imagerel $unwind$?put@?$basic_ostream@DU?$char_traits@D@std@@@std@@QEAAAEAV12@D@Z
pdata	ENDS
;	COMDAT pdata
pdata	SEGMENT
$pdata$?catch$228@?0??put@?$basic_ostream@DU?$char_traits@D@std@@@std@@QEAAAEAV12@D@Z@4HA DD imagerel ?catch$228@?0??put@?$basic_ostream@DU?$char_traits@D@std@@@std@@QEAAAEAV12@D@Z@4HA
	DD	imagerel ?catch$228@?0??put@?$basic_ostream@DU?$char_traits@D@std@@@std@@QEAAAEAV12@D@Z@4HA+80
	DD	imagerel $unwind$?catch$228@?0??put@?$basic_ostream@DU?$char_traits@D@std@@@std@@QEAAAEAV12@D@Z@4HA
pdata	ENDS
;	COMDAT pdata
pdata	SEGMENT
$pdata$?flush@?$basic_ostream@DU?$char_traits@D@std@@@std@@QEAAAEAV12@XZ DD imagerel $LN61
	DD	imagerel $LN61+176
	DD	imagerel $unwind$?flush@?$basic_ostream@DU?$char_traits@D@std@@@std@@QEAAAEAV12@XZ
pdata	ENDS
;	COMDAT pdata
pdata	SEGMENT
$pdata$??0sentry@?$basic_ostream@DU?$char_traits@D@std@@@std@@QEAA@AEAV12@@Z DD imagerel $LN26
	DD	imagerel $LN26+123
	DD	imagerel $unwind$??0sentry@?$basic_ostream@DU?$char_traits@D@std@@@std@@QEAA@AEAV12@@Z
pdata	ENDS
;	COMDAT pdata
pdata	SEGMENT
$pdata$??1sentry@?$basic_ostream@DU?$char_traits@D@std@@@std@@QEAA@XZ DD imagerel $LN13
	DD	imagerel $LN13+70
	DD	imagerel $unwind$??1sentry@?$basic_ostream@DU?$char_traits@D@std@@@std@@QEAA@XZ
pdata	ENDS
;	COMDAT pdata
pdata	SEGMENT
$pdata$??0bad_cast@std@@QEAA@AEBV01@@Z DD imagerel $LN6
	DD	imagerel $LN6+63
	DD	imagerel $unwind$??0bad_cast@std@@QEAA@AEBV01@@Z
pdata	ENDS
;	COMDAT pdata
pdata	SEGMENT
$pdata$??$endl@DU?$char_traits@D@std@@@std@@YAAEAV?$basic_ostream@DU?$char_traits@D@std@@@0@AEAV10@@Z DD imagerel $LN18
	DD	imagerel $LN18+151
	DD	imagerel $unwind$??$endl@DU?$char_traits@D@std@@@std@@YAAEAV?$basic_ostream@DU?$char_traits@D@std@@@0@AEAV10@@Z
pdata	ENDS
;	COMDAT pdata
pdata	SEGMENT
$pdata$??$?6U?$char_traits@D@std@@@std@@YAAEAV?$basic_ostream@DU?$char_traits@D@std@@@0@AEAV10@PEBD@Z DD imagerel $LN1171
	DD	imagerel $LN1171+580
	DD	imagerel $unwind$??$?6U?$char_traits@D@std@@@std@@YAAEAV?$basic_ostream@DU?$char_traits@D@std@@@0@AEAV10@PEBD@Z
pdata	ENDS
;	COMDAT pdata
pdata	SEGMENT
$pdata$?catch$232@?0???$?6U?$char_traits@D@std@@@std@@YAAEAV?$basic_ostream@DU?$char_traits@D@std@@@0@AEAV10@PEBD@Z@4HA DD imagerel ?catch$232@?0???$?6U?$char_traits@D@std@@@std@@YAAEAV?$basic_ostream@DU?$char_traits@D@std@@@0@AEAV10@PEBD@Z@4HA
	DD	imagerel ?catch$232@?0???$?6U?$char_traits@D@std@@@std@@YAAEAV?$basic_ostream@DU?$char_traits@D@std@@@0@AEAV10@PEBD@Z@4HA+80
	DD	imagerel $unwind$?catch$232@?0???$?6U?$char_traits@D@std@@@std@@YAAEAV?$basic_ostream@DU?$char_traits@D@std@@@0@AEAV10@PEBD@Z@4HA
pdata	ENDS
;	COMDAT pdata
pdata	SEGMENT
$pdata$??$_Immortalize@V_Iostream_error_category@std@@@std@@YAAEAV_Iostream_error_category@0@XZ DD imagerel $LN23
	DD	imagerel $LN23+116
	DD	imagerel $unwind$??$_Immortalize@V_Iostream_error_category@std@@@std@@YAAEAV_Iostream_error_category@0@XZ
pdata	ENDS
;	COMDAT pdata
pdata	SEGMENT
$pdata$??$use_facet@V?$ctype@D@std@@@std@@YAAEBV?$ctype@D@0@AEBVlocale@0@@Z DD imagerel $LN36
	DD	imagerel $LN36+351
	DD	imagerel $unwind$??$use_facet@V?$ctype@D@std@@@std@@YAAEBV?$ctype@D@0@AEBVlocale@0@@Z
pdata	ENDS
;	COMDAT pdata
pdata	SEGMENT
$pdata$?allocate@?$allocator@D@std@@QEAAPEAD_K@Z DD imagerel $LN16
	DD	imagerel $LN16+83
	DD	imagerel $unwind$?allocate@?$allocator@D@std@@QEAAPEAD_K@Z
pdata	ENDS
;	COMDAT pdata
pdata	SEGMENT
$pdata$?allocate@?$_Wrap_alloc@V?$allocator@D@std@@@std@@QEAAPEAD_K@Z DD imagerel $LN19
	DD	imagerel $LN19+83
	DD	imagerel $unwind$?allocate@?$_Wrap_alloc@V?$allocator@D@std@@@std@@QEAAPEAD_K@Z
pdata	ENDS
;	COMDAT pdata
pdata	SEGMENT
$pdata$?deallocate@?$allocator@D@std@@QEAAXPEAD_K@Z DD imagerel $LN18
	DD	imagerel $LN18+81
	DD	imagerel $unwind$?deallocate@?$allocator@D@std@@QEAAXPEAD_K@Z
pdata	ENDS
;	COMDAT pdata
pdata	SEGMENT
$pdata$?_Copy@?$basic_string@DU?$char_traits@D@std@@V?$allocator@D@2@@std@@QEAAX_K0@Z DD imagerel $LN464
	DD	imagerel $LN464+389
	DD	imagerel $unwind$?_Copy@?$basic_string@DU?$char_traits@D@std@@V?$allocator@D@2@@std@@QEAAX_K0@Z
pdata	ENDS
;	COMDAT pdata
pdata	SEGMENT
$pdata$?catch$107@?0??_Copy@?$basic_string@DU?$char_traits@D@std@@V?$allocator@D@2@@std@@QEAAX_K0@Z@4HA DD imagerel ?catch$107@?0??_Copy@?$basic_string@DU?$char_traits@D@std@@V?$allocator@D@2@@std@@QEAAX_K0@Z@4HA
	DD	imagerel ?catch$107@?0??_Copy@?$basic_string@DU?$char_traits@D@std@@V?$allocator@D@2@@std@@QEAAX_K0@Z@4HA+51
	DD	imagerel $unwind$?catch$107@?0??_Copy@?$basic_string@DU?$char_traits@D@std@@V?$allocator@D@2@@std@@QEAAX_K0@Z@4HA
pdata	ENDS
;	COMDAT pdata
pdata	SEGMENT
$pdata$?catch$106@?0??_Copy@?$basic_string@DU?$char_traits@D@std@@V?$allocator@D@2@@std@@QEAAX_K0@Z@4HA DD imagerel ?catch$106@?0??_Copy@?$basic_string@DU?$char_traits@D@std@@V?$allocator@D@2@@std@@QEAAX_K0@Z@4HA
	DD	imagerel ?catch$106@?0??_Copy@?$basic_string@DU?$char_traits@D@std@@V?$allocator@D@2@@std@@QEAAX_K0@Z@4HA+154
	DD	imagerel $unwind$?catch$106@?0??_Copy@?$basic_string@DU?$char_traits@D@std@@V?$allocator@D@2@@std@@QEAAX_K0@Z@4HA
pdata	ENDS
;	COMDAT pdata
pdata	SEGMENT
$pdata$?_Xran@?$basic_string@DU?$char_traits@D@std@@V?$allocator@D@2@@std@@QEBAXXZ DD imagerel $LN4
	DD	imagerel $LN4+17
	DD	imagerel $unwind$?_Xran@?$basic_string@DU?$char_traits@D@std@@V?$allocator@D@2@@std@@QEBAXXZ
pdata	ENDS
;	COMDAT pdata
pdata	SEGMENT
$pdata$?assign@?$basic_string@DU?$char_traits@D@std@@V?$allocator@D@2@@std@@QEAAAEAV12@PEBD_K@Z DD imagerel $LN189
	DD	imagerel $LN189+304
	DD	imagerel $unwind$?assign@?$basic_string@DU?$char_traits@D@std@@V?$allocator@D@2@@std@@QEAAAEAV12@PEBD_K@Z
pdata	ENDS
;	COMDAT pdata
pdata	SEGMENT
$pdata$?erase@?$basic_string@DU?$char_traits@D@std@@V?$allocator@D@2@@std@@QEAAAEAV12@_K@Z DD imagerel $LN39
	DD	imagerel $LN39+61
	DD	imagerel $unwind$?erase@?$basic_string@DU?$char_traits@D@std@@V?$allocator@D@2@@std@@QEAAAEAV12@_K@Z
pdata	ENDS
;	COMDAT pdata
pdata	SEGMENT
$pdata$?erase@?$basic_string@DU?$char_traits@D@std@@V?$allocator@D@2@@std@@QEAAAEAV12@_K0@Z DD imagerel $LN95
	DD	imagerel $LN95+200
	DD	imagerel $unwind$?erase@?$basic_string@DU?$char_traits@D@std@@V?$allocator@D@2@@std@@QEAAAEAV12@_K0@Z
pdata	ENDS
;	COMDAT pdata
pdata	SEGMENT
$pdata$?_Grow@?$basic_string@DU?$char_traits@D@std@@V?$allocator@D@2@@std@@QEAA_N_K_N@Z DD imagerel $LN91
	DD	imagerel $LN91+130
	DD	imagerel $unwind$?_Grow@?$basic_string@DU?$char_traits@D@std@@V?$allocator@D@2@@std@@QEAA_N_K_N@Z
pdata	ENDS
;	COMDAT pdata
pdata	SEGMENT
$pdata$?_Xlen@?$basic_string@DU?$char_traits@D@std@@V?$allocator@D@2@@std@@QEBAXXZ DD imagerel $LN4
	DD	imagerel $LN4+17
	DD	imagerel $unwind$?_Xlen@?$basic_string@DU?$char_traits@D@std@@V?$allocator@D@2@@std@@QEBAXXZ
pdata	ENDS
;	COMDAT pdata
pdata	SEGMENT
$pdata$?_Check_offset@?$basic_string@DU?$char_traits@D@std@@V?$allocator@D@2@@std@@QEBAX_K@Z DD imagerel $LN19
	DD	imagerel $LN19+28
	DD	imagerel $unwind$?_Check_offset@?$basic_string@DU?$char_traits@D@std@@V?$allocator@D@2@@std@@QEBAX_K@Z
pdata	ENDS
;	COMDAT pdata
pdata	SEGMENT
$pdata$?deallocate@?$_Wrap_alloc@V?$allocator@D@std@@@std@@QEAAXPEAD_K@Z DD imagerel $LN21
	DD	imagerel $LN21+81
	DD	imagerel $unwind$?deallocate@?$_Wrap_alloc@V?$allocator@D@std@@@std@@QEAAXPEAD_K@Z
pdata	ENDS
;	COMDAT pdata
pdata	SEGMENT
$pdata$?_Assign_rv@?$basic_string@DU?$char_traits@D@std@@V?$allocator@D@2@@std@@QEAAX$$QEAV12@@Z DD imagerel $LN251
	DD	imagerel $LN251+128
	DD	imagerel $unwind$?_Assign_rv@?$basic_string@DU?$char_traits@D@std@@V?$allocator@D@2@@std@@QEAAX$$QEAV12@@Z
pdata	ENDS
;	COMDAT pdata
pdata	SEGMENT
$pdata$?append@?$basic_string@DU?$char_traits@D@std@@V?$allocator@D@2@@std@@QEAAAEAV12@AEBV12@_K1@Z DD imagerel $LN206
	DD	imagerel $LN206+75
	DD	imagerel $unwind$?append@?$basic_string@DU?$char_traits@D@std@@V?$allocator@D@2@@std@@QEAAAEAV12@AEBV12@_K1@Z
pdata	ENDS
;	COMDAT pdata
pdata	SEGMENT
$pdata$0$?append@?$basic_string@DU?$char_traits@D@std@@V?$allocator@D@2@@std@@QEAAAEAV12@AEBV12@_K1@Z DD imagerel $LN206+75
	DD	imagerel $LN206+253
	DD	imagerel $chain$0$?append@?$basic_string@DU?$char_traits@D@std@@V?$allocator@D@2@@std@@QEAAAEAV12@AEBV12@_K1@Z
pdata	ENDS
;	COMDAT pdata
pdata	SEGMENT
$pdata$1$?append@?$basic_string@DU?$char_traits@D@std@@V?$allocator@D@2@@std@@QEAAAEAV12@AEBV12@_K1@Z DD imagerel $LN206+253
	DD	imagerel $LN206+279
	DD	imagerel $chain$1$?append@?$basic_string@DU?$char_traits@D@std@@V?$allocator@D@2@@std@@QEAAAEAV12@AEBV12@_K1@Z
pdata	ENDS
;	COMDAT pdata
pdata	SEGMENT
$pdata$2$?append@?$basic_string@DU?$char_traits@D@std@@V?$allocator@D@2@@std@@QEAAAEAV12@AEBV12@_K1@Z DD imagerel $LN206+279
	DD	imagerel $LN206+292
	DD	imagerel $chain$2$?append@?$basic_string@DU?$char_traits@D@std@@V?$allocator@D@2@@std@@QEAAAEAV12@AEBV12@_K1@Z
pdata	ENDS
;	COMDAT pdata
pdata	SEGMENT
$pdata$?append@?$basic_string@DU?$char_traits@D@std@@V?$allocator@D@2@@std@@QEAAAEAV12@PEBD_K@Z DD imagerel $LN221
	DD	imagerel $LN221+138
	DD	imagerel $unwind$?append@?$basic_string@DU?$char_traits@D@std@@V?$allocator@D@2@@std@@QEAAAEAV12@PEBD_K@Z
pdata	ENDS
;	COMDAT pdata
pdata	SEGMENT
$pdata$0$?append@?$basic_string@DU?$char_traits@D@std@@V?$allocator@D@2@@std@@QEAAAEAV12@PEBD_K@Z DD imagerel $LN221+138
	DD	imagerel $LN221+298
	DD	imagerel $chain$0$?append@?$basic_string@DU?$char_traits@D@std@@V?$allocator@D@2@@std@@QEAAAEAV12@PEBD_K@Z
pdata	ENDS
;	COMDAT pdata
pdata	SEGMENT
$pdata$1$?append@?$basic_string@DU?$char_traits@D@std@@V?$allocator@D@2@@std@@QEAAAEAV12@PEBD_K@Z DD imagerel $LN221+298
	DD	imagerel $LN221+311
	DD	imagerel $chain$1$?append@?$basic_string@DU?$char_traits@D@std@@V?$allocator@D@2@@std@@QEAAAEAV12@PEBD_K@Z
pdata	ENDS
;	COMDAT pdata
pdata	SEGMENT
$pdata$2$?append@?$basic_string@DU?$char_traits@D@std@@V?$allocator@D@2@@std@@QEAAAEAV12@PEBD_K@Z DD imagerel $LN221+311
	DD	imagerel $LN221+324
	DD	imagerel $chain$2$?append@?$basic_string@DU?$char_traits@D@std@@V?$allocator@D@2@@std@@QEAAAEAV12@PEBD_K@Z
pdata	ENDS
;	COMDAT pdata
pdata	SEGMENT
$pdata$?assign@?$basic_string@DU?$char_traits@D@std@@V?$allocator@D@2@@std@@QEAAAEAV12@AEBV12@_K1@Z DD imagerel $LN212
	DD	imagerel $LN212+302
	DD	imagerel $unwind$?assign@?$basic_string@DU?$char_traits@D@std@@V?$allocator@D@2@@std@@QEAAAEAV12@AEBV12@_K1@Z
pdata	ENDS
;	COMDAT pdata
pdata	SEGMENT
$pdata$?_Tidy@?$basic_string@DU?$char_traits@D@std@@V?$allocator@D@2@@std@@QEAAX_N_K@Z DD imagerel $LN120
	DD	imagerel $LN120+170
	DD	imagerel $unwind$?_Tidy@?$basic_string@DU?$char_traits@D@std@@V?$allocator@D@2@@std@@QEAAX_N_K@Z
pdata	ENDS
;	COMDAT pdata
pdata	SEGMENT
$pdata$?_Tidy@?$_Yarn@D@std@@AEAAXXZ DD imagerel $LN6
	DD	imagerel $LN6+35
	DD	imagerel $unwind$?_Tidy@?$_Yarn@D@std@@AEAAXXZ
pdata	ENDS
;	COMDAT pdata
pdata	SEGMENT
$pdata$?_Tidy@?$_Yarn@_W@std@@AEAAXXZ DD imagerel $LN6
	DD	imagerel $LN6+35
	DD	imagerel $unwind$?_Tidy@?$_Yarn@_W@std@@AEAAXXZ
pdata	ENDS
;	COMDAT pdata
pdata	SEGMENT
$pdata$??0?$basic_string@DU?$char_traits@D@std@@V?$allocator@D@2@@std@@QEAA@AEBV01@@Z DD imagerel $LN143
	DD	imagerel $LN143+49
	DD	imagerel $unwind$??0?$basic_string@DU?$char_traits@D@std@@V?$allocator@D@2@@std@@QEAA@AEBV01@@Z
pdata	ENDS
;	COMDAT pdata
pdata	SEGMENT
$pdata$??0?$basic_string@DU?$char_traits@D@std@@V?$allocator@D@2@@std@@QEAA@PEBD@Z DD imagerel $LN131
	DD	imagerel $LN131+60
	DD	imagerel $unwind$??0?$basic_string@DU?$char_traits@D@std@@V?$allocator@D@2@@std@@QEAA@PEBD@Z
pdata	ENDS
;	COMDAT pdata
pdata	SEGMENT
$pdata$??0?$basic_string@DU?$char_traits@D@std@@V?$allocator@D@2@@std@@QEAA@$$QEAV01@@Z DD imagerel $LN392
	DD	imagerel $LN392+148
	DD	imagerel $unwind$??0?$basic_string@DU?$char_traits@D@std@@V?$allocator@D@2@@std@@QEAA@$$QEAV01@@Z
pdata	ENDS
;	COMDAT pdata
pdata	SEGMENT
$pdata$??1?$basic_string@DU?$char_traits@D@std@@V?$allocator@D@2@@std@@QEAA@XZ DD imagerel $LN123
	DD	imagerel $LN123+129
	DD	imagerel $unwind$??1?$basic_string@DU?$char_traits@D@std@@V?$allocator@D@2@@std@@QEAA@XZ
pdata	ENDS
;	COMDAT pdata
pdata	SEGMENT
$pdata$??1?$_Yarn@D@std@@QEAA@XZ DD imagerel $LN8
	DD	imagerel $LN8+35
	DD	imagerel $unwind$??1?$_Yarn@D@std@@QEAA@XZ
pdata	ENDS
;	COMDAT pdata
pdata	SEGMENT
$pdata$??1?$_Yarn@_W@std@@QEAA@XZ DD imagerel $LN8
	DD	imagerel $LN8+35
	DD	imagerel $unwind$??1?$_Yarn@_W@std@@QEAA@XZ
pdata	ENDS
pdata	SEGMENT
$pdata$main DD	imagerel $LN6
	DD	imagerel $LN6+24
	DD	imagerel $unwind$main
pdata	ENDS
;	COMDAT pdata
pdata	SEGMENT
$pdata$??0_System_error@std@@QEAA@AEBV01@@Z DD imagerel $LN9
	DD	imagerel $LN9+80
	DD	imagerel $unwind$??0_System_error@std@@QEAA@AEBV01@@Z
pdata	ENDS
;	COMDAT pdata
pdata	SEGMENT
$pdata$??0system_error@std@@QEAA@AEBV01@@Z DD imagerel $LN12
	DD	imagerel $LN12+90
	DD	imagerel $unwind$??0system_error@std@@QEAA@AEBV01@@Z
pdata	ENDS
;	COMDAT pdata
pdata	SEGMENT
$pdata$??0failure@ios_base@std@@QEAA@AEBV012@@Z DD imagerel $LN15
	DD	imagerel $LN15+90
	DD	imagerel $unwind$??0failure@ios_base@std@@QEAA@AEBV012@@Z
pdata	ENDS
;	COMDAT pdata
pdata	SEGMENT
$pdata$??_Gfailure@ios_base@std@@UEAAPEAXI@Z DD imagerel $LN20
	DD	imagerel $LN20+66
	DD	imagerel $unwind$??_Gfailure@ios_base@std@@UEAAPEAXI@Z
pdata	ENDS
;	COMDAT pdata
pdata	SEGMENT
$pdata$?getloc@ios_base@std@@QEBA?AVlocale@2@XZ DD imagerel $LN6
	DD	imagerel $LN6+46
	DD	imagerel $unwind$?getloc@ios_base@std@@QEBA?AVlocale@2@XZ
pdata	ENDS
;	COMDAT pdata
pdata	SEGMENT
$pdata$?clear@ios_base@std@@QEAAXH_N@Z DD imagerel $LN1105
	DD	imagerel $LN1105+1086
	DD	imagerel $unwind$?clear@ios_base@std@@QEAAXH_N@Z
pdata	ENDS
;	COMDAT pdata
pdata	SEGMENT
$pdata$??0failure@ios_base@std@@QEAA@PEBDAEBVerror_code@2@@Z DD imagerel $LN5
	DD	imagerel $LN5+50
	DD	imagerel $unwind$??0failure@ios_base@std@@QEAA@PEBDAEBVerror_code@2@@Z
pdata	ENDS
;	COMDAT pdata
pdata	SEGMENT
$pdata$?iostream_category@std@@YAAEBVerror_category@1@XZ DD imagerel $LN25
	DD	imagerel $LN25+116
	DD	imagerel $unwind$?iostream_category@std@@YAAEBVerror_category@1@XZ
pdata	ENDS
;	COMDAT pdata
pdata	SEGMENT
$pdata$??_G_Iostream_error_category@std@@UEAAPEAXI@Z DD imagerel $LN15
	DD	imagerel $LN15+43
	DD	imagerel $unwind$??_G_Iostream_error_category@std@@UEAAPEAXI@Z
pdata	ENDS
;	COMDAT pdata
pdata	SEGMENT
$pdata$?message@_Iostream_error_category@std@@UEBA?AV?$basic_string@DU?$char_traits@D@std@@V?$allocator@D@2@@2@H@Z DD imagerel $LN138
	DD	imagerel $LN138+77
	DD	imagerel $unwind$?message@_Iostream_error_category@std@@UEBA?AV?$basic_string@DU?$char_traits@D@std@@V?$allocator@D@2@@2@H@Z
pdata	ENDS
;	COMDAT pdata
pdata	SEGMENT
$pdata$??_G_Generic_error_category@std@@UEAAPEAXI@Z DD imagerel $LN12
	DD	imagerel $LN12+43
	DD	imagerel $unwind$??_G_Generic_error_category@std@@UEAAPEAXI@Z
pdata	ENDS
;	COMDAT pdata
pdata	SEGMENT
$pdata$?message@_Generic_error_category@std@@UEBA?AV?$basic_string@DU?$char_traits@D@std@@V?$allocator@D@2@@2@H@Z DD imagerel $LN136
	DD	imagerel $LN136+86
	DD	imagerel $unwind$?message@_Generic_error_category@std@@UEBA?AV?$basic_string@DU?$char_traits@D@std@@V?$allocator@D@2@@2@H@Z
pdata	ENDS
;	COMDAT pdata
pdata	SEGMENT
$pdata$??_Gsystem_error@std@@UEAAPEAXI@Z DD imagerel $LN17
	DD	imagerel $LN17+66
	DD	imagerel $unwind$??_Gsystem_error@std@@UEAAPEAXI@Z
pdata	ENDS
;	COMDAT pdata
pdata	SEGMENT
$pdata$??0system_error@std@@QEAA@Verror_code@1@PEBD@Z DD imagerel $LN253
	DD	imagerel $LN253+259
	DD	imagerel $unwind$??0system_error@std@@QEAA@Verror_code@1@PEBD@Z
pdata	ENDS
;	COMDAT pdata
pdata	SEGMENT
$pdata$??_G_System_error@std@@UEAAPEAXI@Z DD imagerel $LN14
	DD	imagerel $LN14+66
	DD	imagerel $unwind$??_G_System_error@std@@UEAAPEAXI@Z
pdata	ENDS
;	COMDAT pdata
pdata	SEGMENT
$pdata$??0_System_error@std@@IEAA@Verror_code@1@AEBV?$basic_string@DU?$char_traits@D@std@@V?$allocator@D@2@@1@@Z DD imagerel $LN292
	DD	imagerel $LN292+309
	DD	imagerel $unwind$??0_System_error@std@@IEAA@Verror_code@1@AEBV?$basic_string@DU?$char_traits@D@std@@V?$allocator@D@2@@1@@Z
pdata	ENDS
;	COMDAT pdata
pdata	SEGMENT
$pdata$?_Makestr@_System_error@std@@CA?AV?$basic_string@DU?$char_traits@D@std@@V?$allocator@D@2@@2@Verror_code@2@V32@@Z DD imagerel $LN147
	DD	imagerel $LN147+247
	DD	imagerel $unwind$?_Makestr@_System_error@std@@CA?AV?$basic_string@DU?$char_traits@D@std@@V?$allocator@D@2@@2@Verror_code@2@V32@@Z
pdata	ENDS
;	COMDAT pdata
pdata	SEGMENT
$pdata$?make_error_code@std@@YA?AVerror_code@1@W4io_errc@1@@Z DD imagerel $LN29
	DD	imagerel $LN29+143
	DD	imagerel $unwind$?make_error_code@std@@YA?AVerror_code@1@W4io_errc@1@@Z
pdata	ENDS
;	COMDAT pdata
pdata	SEGMENT
$pdata$?equivalent@error_category@std@@UEBA_NHAEBVerror_condition@2@@Z DD imagerel $LN32
	DD	imagerel $LN32+95
	DD	imagerel $unwind$?equivalent@error_category@std@@UEBA_NHAEBVerror_condition@2@@Z
pdata	ENDS
;	COMDAT pdata
pdata	SEGMENT
$pdata$?message@error_code@std@@QEBA?AV?$basic_string@DU?$char_traits@D@std@@V?$allocator@D@2@@2@XZ DD imagerel $LN12
	DD	imagerel $LN12+39
	DD	imagerel $unwind$?message@error_code@std@@QEBA?AV?$basic_string@DU?$char_traits@D@std@@V?$allocator@D@2@@2@XZ
pdata	ENDS
;	COMDAT pdata
pdata	SEGMENT
$pdata$??_Gerror_category@std@@UEAAPEAXI@Z DD imagerel $LN9
	DD	imagerel $LN9+43
	DD	imagerel $unwind$??_Gerror_category@std@@UEAAPEAXI@Z
pdata	ENDS
;	COMDAT pdata
pdata	SEGMENT
$pdata$??_G?$ctype@D@std@@MEAAPEAXI@Z DD imagerel $LN24
	DD	imagerel $LN24+106
	DD	imagerel $unwind$??_G?$ctype@D@std@@MEAAPEAXI@Z
pdata	ENDS
;	COMDAT pdata
pdata	SEGMENT
$pdata$?do_narrow@?$ctype@D@std@@MEBAPEBDPEBD0DPEAD@Z DD imagerel $LN4
	DD	imagerel $LN4+31
	DD	imagerel $unwind$?do_narrow@?$ctype@D@std@@MEBAPEBDPEBD0DPEAD@Z
pdata	ENDS
;	COMDAT pdata
pdata	SEGMENT
$pdata$?do_widen@?$ctype@D@std@@MEBAPEBDPEBD0PEAD@Z DD imagerel $LN4
	DD	imagerel $LN4+29
	DD	imagerel $unwind$?do_widen@?$ctype@D@std@@MEBAPEBDPEBD0PEAD@Z
pdata	ENDS
;	COMDAT pdata
pdata	SEGMENT
$pdata$?do_toupper@?$ctype@D@std@@MEBAPEBDPEADPEBD@Z DD imagerel $LN12
	DD	imagerel $LN12+38
	DD	imagerel $unwind$?do_toupper@?$ctype@D@std@@MEBAPEBDPEADPEBD@Z
pdata	ENDS
;	COMDAT pdata
pdata	SEGMENT
$pdata$0$?do_toupper@?$ctype@D@std@@MEBAPEBDPEADPEBD@Z DD imagerel $LN12+38
	DD	imagerel $LN12+77
	DD	imagerel $chain$0$?do_toupper@?$ctype@D@std@@MEBAPEBDPEADPEBD@Z
pdata	ENDS
;	COMDAT pdata
pdata	SEGMENT
$pdata$1$?do_toupper@?$ctype@D@std@@MEBAPEBDPEADPEBD@Z DD imagerel $LN12+77
	DD	imagerel $LN12+96
	DD	imagerel $chain$1$?do_toupper@?$ctype@D@std@@MEBAPEBDPEADPEBD@Z
pdata	ENDS
;	COMDAT pdata
pdata	SEGMENT
$pdata$?do_tolower@?$ctype@D@std@@MEBAPEBDPEADPEBD@Z DD imagerel $LN12
	DD	imagerel $LN12+38
	DD	imagerel $unwind$?do_tolower@?$ctype@D@std@@MEBAPEBDPEADPEBD@Z
pdata	ENDS
;	COMDAT pdata
pdata	SEGMENT
$pdata$0$?do_tolower@?$ctype@D@std@@MEBAPEBDPEADPEBD@Z DD imagerel $LN12+38
	DD	imagerel $LN12+77
	DD	imagerel $chain$0$?do_tolower@?$ctype@D@std@@MEBAPEBDPEADPEBD@Z
pdata	ENDS
;	COMDAT pdata
pdata	SEGMENT
$pdata$1$?do_tolower@?$ctype@D@std@@MEBAPEBDPEADPEBD@Z DD imagerel $LN12+77
	DD	imagerel $LN12+96
	DD	imagerel $chain$1$?do_tolower@?$ctype@D@std@@MEBAPEBDPEADPEBD@Z
pdata	ENDS
;	COMDAT pdata
pdata	SEGMENT
$pdata$?_Tidy@?$ctype@D@std@@IEAAXXZ DD imagerel $LN8
	DD	imagerel $LN8+64
	DD	imagerel $unwind$?_Tidy@?$ctype@D@std@@IEAAXXZ
pdata	ENDS
;	COMDAT pdata
pdata	SEGMENT
$pdata$?_Init@?$ctype@D@std@@IEAAXAEBV_Locinfo@2@@Z DD imagerel $LN6
	DD	imagerel $LN6+40
	DD	imagerel $unwind$?_Init@?$ctype@D@std@@IEAAXAEBV_Locinfo@2@@Z
pdata	ENDS
;	COMDAT pdata
pdata	SEGMENT
$pdata$??1?$ctype@D@std@@MEAA@XZ DD imagerel $LN19
	DD	imagerel $LN19+73
	DD	imagerel $unwind$??1?$ctype@D@std@@MEAA@XZ
pdata	ENDS
;	COMDAT pdata
pdata	SEGMENT
$pdata$?_Getcat@?$ctype@D@std@@SA_KPEAPEBVfacet@locale@2@PEBV42@@Z DD imagerel $LN35
	DD	imagerel $LN35+199
	DD	imagerel $unwind$?_Getcat@?$ctype@D@std@@SA_KPEAPEBVfacet@locale@2@PEBV42@@Z
pdata	ENDS
;	COMDAT pdata
pdata	SEGMENT
$pdata$?dtor$0@?0??_Getcat@?$ctype@D@std@@SA_KPEAPEBVfacet@locale@2@PEBV42@@Z@4HA DD imagerel ?dtor$0@?0??_Getcat@?$ctype@D@std@@SA_KPEAPEBVfacet@locale@2@PEBV42@@Z@4HA
	DD	imagerel ?dtor$0@?0??_Getcat@?$ctype@D@std@@SA_KPEAPEBVfacet@locale@2@PEBV42@@Z@4HA+32
	DD	imagerel $unwind$?dtor$0@?0??_Getcat@?$ctype@D@std@@SA_KPEAPEBVfacet@locale@2@PEBV42@@Z@4HA
pdata	ENDS
;	COMDAT pdata
pdata	SEGMENT
$pdata$??0?$ctype@D@std@@QEAA@AEBV_Locinfo@1@_K@Z DD imagerel $LN17
	DD	imagerel $LN17+57
	DD	imagerel $unwind$??0?$ctype@D@std@@QEAA@AEBV_Locinfo@1@_K@Z
pdata	ENDS
;	COMDAT pdata
pdata	SEGMENT
$pdata$?widen@?$ctype@D@std@@QEBADD@Z DD imagerel $LN8
	DD	imagerel $LN8+37
	DD	imagerel $unwind$?widen@?$ctype@D@std@@QEBADD@Z
pdata	ENDS
;	COMDAT pdata
pdata	SEGMENT
$pdata$??_Gctype_base@std@@UEAAPEAXI@Z DD imagerel $LN15
	DD	imagerel $LN15+43
	DD	imagerel $unwind$??_Gctype_base@std@@UEAAPEAXI@Z
pdata	ENDS
;	COMDAT pdata
pdata	SEGMENT
$pdata$??_Gfacet@locale@std@@MEAAPEAXI@Z DD imagerel $LN12
	DD	imagerel $LN12+43
	DD	imagerel $unwind$??_Gfacet@locale@std@@MEAAPEAXI@Z
pdata	ENDS
;	COMDAT pdata
pdata	SEGMENT
$pdata$?_Getfacet@locale@std@@QEBAPEBVfacet@12@_K@Z DD imagerel $LN12
	DD	imagerel $LN12+82
	DD	imagerel $unwind$?_Getfacet@locale@std@@QEBAPEBVfacet@12@_K@Z
pdata	ENDS
;	COMDAT pdata
pdata	SEGMENT
$pdata$??1locale@std@@QEAA@XZ DD imagerel $LN6
	DD	imagerel $LN6+57
	DD	imagerel $unwind$??1locale@std@@QEAA@XZ
pdata	ENDS
;	COMDAT pdata
pdata	SEGMENT
$pdata$??0locale@std@@QEAA@AEBV01@@Z DD imagerel $LN3
	DD	imagerel $LN3+42
	DD	imagerel $unwind$??0locale@std@@QEAA@AEBV01@@Z
pdata	ENDS
;	COMDAT pdata
pdata	SEGMENT
$pdata$??Bid@locale@std@@QEAA_KXZ DD imagerel $LN8
	DD	imagerel $LN8+80
	DD	imagerel $unwind$??Bid@locale@std@@QEAA_KXZ
pdata	ENDS
;	COMDAT pdata
pdata	SEGMENT
$pdata$??_G_Facet_base@std@@UEAAPEAXI@Z DD imagerel $LN9
	DD	imagerel $LN9+43
	DD	imagerel $unwind$??_G_Facet_base@std@@UEAAPEAXI@Z
pdata	ENDS
;	COMDAT pdata
pdata	SEGMENT
$pdata$??0runtime_error@std@@QEAA@AEBV01@@Z DD imagerel $LN6
	DD	imagerel $LN6+63
	DD	imagerel $unwind$??0runtime_error@std@@QEAA@AEBV01@@Z
pdata	ENDS
;	COMDAT pdata
pdata	SEGMENT
$pdata$?_Getctype@_Locinfo@std@@QEBA?AU_Ctypevec@@XZ DD imagerel $LN4
	DD	imagerel $LN4+42
	DD	imagerel $unwind$?_Getctype@_Locinfo@std@@QEBA?AU_Ctypevec@@XZ
pdata	ENDS
;	COMDAT pdata
pdata	SEGMENT
$pdata$??1_Locinfo@std@@QEAA@XZ DD imagerel $LN39
	DD	imagerel $LN39+163
	DD	imagerel $unwind$??1_Locinfo@std@@QEAA@XZ
pdata	ENDS
;	COMDAT pdata
pdata	SEGMENT
$pdata$??0_Locinfo@std@@QEAA@PEBD@Z DD imagerel $LN28
	DD	imagerel $LN28+201
	DD	imagerel $unwind$??0_Locinfo@std@@QEAA@PEBD@Z
pdata	ENDS
;	COMDAT pdata
pdata	SEGMENT
$pdata$??_Gbad_cast@std@@UEAAPEAXI@Z DD imagerel $LN11
	DD	imagerel $LN11+66
	DD	imagerel $unwind$??_Gbad_cast@std@@UEAAPEAXI@Z
pdata	ENDS
;	COMDAT pdata
pdata	SEGMENT
$pdata$??_Gruntime_error@std@@UEAAPEAXI@Z DD imagerel $LN11
	DD	imagerel $LN11+66
	DD	imagerel $unwind$??_Gruntime_error@std@@UEAAPEAXI@Z
pdata	ENDS
;	COMDAT pdata
pdata	SEGMENT
$pdata$??0runtime_error@std@@QEAA@PEBD@Z DD imagerel $LN6
	DD	imagerel $LN6+74
	DD	imagerel $unwind$??0runtime_error@std@@QEAA@PEBD@Z
pdata	ENDS
;	COMDAT pdata
pdata	SEGMENT
$pdata$??0runtime_error@std@@QEAA@AEBV?$basic_string@DU?$char_traits@D@std@@V?$allocator@D@2@@1@@Z DD imagerel $LN23
	DD	imagerel $LN23+84
	DD	imagerel $unwind$??0runtime_error@std@@QEAA@AEBV?$basic_string@DU?$char_traits@D@std@@V?$allocator@D@2@@1@@Z
pdata	ENDS
;	COMDAT pdata
pdata	SEGMENT
$pdata$?_Deallocate@std@@YAXPEAX_K1@Z DD imagerel $LN16
	DD	imagerel $LN16+105
	DD	imagerel $unwind$?_Deallocate@std@@YAXPEAX_K1@Z
pdata	ENDS
;	COMDAT pdata
pdata	SEGMENT
$pdata$?_Allocate@std@@YAPEAX_K0_N@Z DD imagerel $LN14
	DD	imagerel $LN14+113
	DD	imagerel $unwind$?_Allocate@std@@YAPEAX_K0_N@Z
pdata	ENDS
;	COMDAT pdata
pdata	SEGMENT
$pdata$?copy@?$char_traits@D@std@@SAPEADPEADPEBD_K@Z DD imagerel $LN7
	DD	imagerel $LN7+28
	DD	imagerel $unwind$?copy@?$char_traits@D@std@@SAPEADPEADPEBD_K@Z
pdata	ENDS
;	COMDAT pdata
pdata	SEGMENT
$pdata$??_Gexception@std@@UEAAPEAXI@Z DD imagerel $LN8
	DD	imagerel $LN8+66
	DD	imagerel $unwind$??_Gexception@std@@UEAAPEAXI@Z
pdata	ENDS
;	COMDAT pdata
pdata	SEGMENT
$pdata$??0exception@std@@QEAA@AEBV01@@Z DD imagerel $LN4
	DD	imagerel $LN4+53
	DD	imagerel $unwind$??0exception@std@@QEAA@AEBV01@@Z
pdata	ENDS
;	COMDAT pdata
pdata	SEGMENT
$pdata$??0exception@std@@QEAA@QEBD@Z DD imagerel $LN4
	DD	imagerel $LN4+64
	DD	imagerel $unwind$??0exception@std@@QEAA@QEBD@Z
pdata	ENDS
;	COMDAT xdata
xdata	SEGMENT
$unwind$??0exception@std@@QEAA@QEBD@Z DD 020601H
	DD	030025206H
xdata	ENDS
;	COMDAT xdata
xdata	SEGMENT
$unwind$??0exception@std@@QEAA@AEBV01@@Z DD 020601H
	DD	030023206H
xdata	ENDS
;	COMDAT xdata
xdata	SEGMENT
$unwind$??_Gexception@std@@UEAAPEAXI@Z DD 040a01H
	DD	06340aH
	DD	07006320aH
xdata	ENDS
;	COMDAT xdata
xdata	SEGMENT
$unwind$?copy@?$char_traits@D@std@@SAPEADPEADPEBD_K@Z DD 020601H
	DD	030023206H
xdata	ENDS
;	COMDAT xdata
xdata	SEGMENT
$unwind$?_Allocate@std@@YAPEAX_K0_N@Z DD 010401H
	DD	04204H
xdata	ENDS
;	COMDAT xdata
xdata	SEGMENT
$unwind$?_Deallocate@std@@YAXPEAX_K1@Z DD 010401H
	DD	04204H
xdata	ENDS
;	COMDAT xdata
xdata	SEGMENT
$unwind$??0runtime_error@std@@QEAA@AEBV?$basic_string@DU?$char_traits@D@std@@V?$allocator@D@2@@1@@Z DD 020601H
	DD	030025206H
xdata	ENDS
;	COMDAT xdata
xdata	SEGMENT
$unwind$??0runtime_error@std@@QEAA@PEBD@Z DD 020601H
	DD	030025206H
xdata	ENDS
;	COMDAT xdata
xdata	SEGMENT
$unwind$??_Gruntime_error@std@@UEAAPEAXI@Z DD 040a01H
	DD	06340aH
	DD	07006320aH
xdata	ENDS
;	COMDAT xdata
xdata	SEGMENT
$unwind$??_Gbad_cast@std@@UEAAPEAXI@Z DD 040a01H
	DD	06340aH
	DD	07006320aH
xdata	ENDS
;	COMDAT xdata
xdata	SEGMENT
$ip2state$??0_Locinfo@std@@QEAA@PEBD@Z DD imagerel ??0_Locinfo@std@@QEAA@PEBD@Z
	DD	0ffffffffH
	DD	imagerel ??0_Locinfo@std@@QEAA@PEBD@Z+38
	DD	00H
	DD	imagerel ??0_Locinfo@std@@QEAA@PEBD@Z+47
	DD	01H
	DD	imagerel ??0_Locinfo@std@@QEAA@PEBD@Z+54
	DD	02H
	DD	imagerel ??0_Locinfo@std@@QEAA@PEBD@Z+62
	DD	03H
	DD	imagerel ??0_Locinfo@std@@QEAA@PEBD@Z+70
	DD	04H
	DD	imagerel ??0_Locinfo@std@@QEAA@PEBD@Z+77
	DD	05H
	DD	imagerel ??0_Locinfo@std@@QEAA@PEBD@Z+84
	DD	06H
	DD	imagerel ??0_Locinfo@std@@QEAA@PEBD@Z+187
	DD	0ffffffffH
xdata	ENDS
;	COMDAT xdata
xdata	SEGMENT
$stateUnwindMap$??0_Locinfo@std@@QEAA@PEBD@Z DD 0ffffffffH
	DD	imagerel ?dtor$0@?0???0_Locinfo@std@@QEAA@PEBD@Z@4HA
	DD	00H
	DD	imagerel ?dtor$1@?0???0_Locinfo@std@@QEAA@PEBD@Z@4HA
	DD	01H
	DD	imagerel ?dtor$2@?0???0_Locinfo@std@@QEAA@PEBD@Z@4HA
	DD	02H
	DD	imagerel ?dtor$3@?0???0_Locinfo@std@@QEAA@PEBD@Z@4HA
	DD	03H
	DD	imagerel ?dtor$4@?0???0_Locinfo@std@@QEAA@PEBD@Z@4HA
	DD	04H
	DD	imagerel ?dtor$5@?0???0_Locinfo@std@@QEAA@PEBD@Z@4HA
	DD	05H
	DD	imagerel ?dtor$6@?0???0_Locinfo@std@@QEAA@PEBD@Z@4HA
xdata	ENDS
;	COMDAT CONST
CONST	SEGMENT
$cppxdata$??0_Locinfo@std@@QEAA@PEBD@Z DD 019930522H
	DD	07H
	DD	imagerel $stateUnwindMap$??0_Locinfo@std@@QEAA@PEBD@Z
	DD	00H
	DD	00H
	DD	09H
	DD	imagerel $ip2state$??0_Locinfo@std@@QEAA@PEBD@Z
	DD	020H
	DD	00H
	DD	01H
CONST	ENDS
;	COMDAT xdata
xdata	SEGMENT
$unwind$??0_Locinfo@std@@QEAA@PEBD@Z DD 041811H
	DD	0d3418H
	DD	07006920aH
	DD	imagerel __CxxFrameHandler3
	DD	imagerel $cppxdata$??0_Locinfo@std@@QEAA@PEBD@Z
xdata	ENDS
;	COMDAT xdata
xdata	SEGMENT
$ip2state$??1_Locinfo@std@@QEAA@XZ DD imagerel ??1_Locinfo@std@@QEAA@XZ
	DD	0ffffffffH
xdata	ENDS
;	COMDAT CONST
CONST	SEGMENT
$cppxdata$??1_Locinfo@std@@QEAA@XZ DD 019930522H
	DD	00H
	DD	00H
	DD	00H
	DD	00H
	DD	01H
	DD	imagerel $ip2state$??1_Locinfo@std@@QEAA@XZ
	DD	020H
	DD	00H
	DD	05H
CONST	ENDS
;	COMDAT xdata
xdata	SEGMENT
$unwind$??1_Locinfo@std@@QEAA@XZ DD 041419H
	DD	083414H
	DD	070025206H
	DD	imagerel __CxxFrameHandler3
	DD	imagerel $cppxdata$??1_Locinfo@std@@QEAA@XZ
xdata	ENDS
;	COMDAT xdata
xdata	SEGMENT
$unwind$?_Getctype@_Locinfo@std@@QEBA?AU_Ctypevec@@XZ DD 020601H
	DD	030027206H
xdata	ENDS
;	COMDAT xdata
xdata	SEGMENT
$unwind$??0runtime_error@std@@QEAA@AEBV01@@Z DD 020601H
	DD	030023206H
xdata	ENDS
;	COMDAT xdata
xdata	SEGMENT
$unwind$??_G_Facet_base@std@@UEAAPEAXI@Z DD 020601H
	DD	030023206H
xdata	ENDS
;	COMDAT xdata
xdata	SEGMENT
$unwind$??Bid@locale@std@@QEAA_KXZ DD 020601H
	DD	030023206H
xdata	ENDS
;	COMDAT xdata
xdata	SEGMENT
$ip2state$??0locale@std@@QEAA@AEBV01@@Z DD imagerel ??0locale@std@@QEAA@AEBV01@@Z
	DD	0ffffffffH
xdata	ENDS
;	COMDAT CONST
CONST	SEGMENT
$cppxdata$??0locale@std@@QEAA@AEBV01@@Z DD 019930522H
	DD	00H
	DD	00H
	DD	00H
	DD	00H
	DD	01H
	DD	imagerel $ip2state$??0locale@std@@QEAA@AEBV01@@Z
	DD	020H
	DD	00H
	DD	05H
CONST	ENDS
;	COMDAT xdata
xdata	SEGMENT
$unwind$??0locale@std@@QEAA@AEBV01@@Z DD 020f19H
	DD	030025206H
	DD	imagerel __CxxFrameHandler3
	DD	imagerel $cppxdata$??0locale@std@@QEAA@AEBV01@@Z
xdata	ENDS
;	COMDAT xdata
xdata	SEGMENT
$ip2state$??1locale@std@@QEAA@XZ DD imagerel ??1locale@std@@QEAA@XZ
	DD	0ffffffffH
xdata	ENDS
;	COMDAT CONST
CONST	SEGMENT
$cppxdata$??1locale@std@@QEAA@XZ DD 019930522H
	DD	00H
	DD	00H
	DD	00H
	DD	00H
	DD	01H
	DD	imagerel $ip2state$??1locale@std@@QEAA@XZ
	DD	020H
	DD	00H
	DD	05H
CONST	ENDS
;	COMDAT xdata
xdata	SEGMENT
$unwind$??1locale@std@@QEAA@XZ DD 010d19H
	DD	06204H
	DD	imagerel __CxxFrameHandler3
	DD	imagerel $cppxdata$??1locale@std@@QEAA@XZ
xdata	ENDS
;	COMDAT xdata
xdata	SEGMENT
$unwind$?_Getfacet@locale@std@@QEBAPEBVfacet@12@_K@Z DD 040a01H
	DD	06340aH
	DD	07006320aH
xdata	ENDS
;	COMDAT xdata
xdata	SEGMENT
$unwind$??_Gfacet@locale@std@@MEAAPEAXI@Z DD 020601H
	DD	030023206H
xdata	ENDS
;	COMDAT xdata
xdata	SEGMENT
$unwind$??_Gctype_base@std@@UEAAPEAXI@Z DD 020601H
	DD	030023206H
xdata	ENDS
;	COMDAT xdata
xdata	SEGMENT
$unwind$?widen@?$ctype@D@std@@QEBADD@Z DD 010401H
	DD	04204H
xdata	ENDS
;	COMDAT xdata
xdata	SEGMENT
$unwind$??0?$ctype@D@std@@QEAA@AEBV_Locinfo@1@_K@Z DD 020601H
	DD	030027206H
xdata	ENDS
;	COMDAT xdata
xdata	SEGMENT
$unwind$?dtor$0@?0??_Getcat@?$ctype@D@std@@SA_KPEAPEBVfacet@locale@2@PEBV42@@Z@4HA DD 020601H
	DD	050023206H
xdata	ENDS
;	COMDAT xdata
xdata	SEGMENT
$ip2state$?_Getcat@?$ctype@D@std@@SA_KPEAPEBVfacet@locale@2@PEBV42@@Z DD imagerel ?_Getcat@?$ctype@D@std@@SA_KPEAPEBVfacet@locale@2@PEBV42@@Z
	DD	0ffffffffH
	DD	imagerel ?_Getcat@?$ctype@D@std@@SA_KPEAPEBVfacet@locale@2@PEBV42@@Z+77
	DD	00H
	DD	imagerel ?_Getcat@?$ctype@D@std@@SA_KPEAPEBVfacet@locale@2@PEBV42@@Z+160
	DD	0ffffffffH
xdata	ENDS
;	COMDAT xdata
xdata	SEGMENT
$stateUnwindMap$?_Getcat@?$ctype@D@std@@SA_KPEAPEBVfacet@locale@2@PEBV42@@Z DD 0ffffffffH
	DD	imagerel ?dtor$0@?0??_Getcat@?$ctype@D@std@@SA_KPEAPEBVfacet@locale@2@PEBV42@@Z@4HA
xdata	ENDS
;	COMDAT CONST
CONST	SEGMENT
$cppxdata$?_Getcat@?$ctype@D@std@@SA_KPEAPEBVfacet@locale@2@PEBV42@@Z DD 019930522H
	DD	01H
	DD	imagerel $stateUnwindMap$?_Getcat@?$ctype@D@std@@SA_KPEAPEBVfacet@locale@2@PEBV42@@Z
	DD	00H
	DD	00H
	DD	03H
	DD	imagerel $ip2state$?_Getcat@?$ctype@D@std@@SA_KPEAPEBVfacet@locale@2@PEBV42@@Z
	DD	020H
	DD	00H
	DD	01H
CONST	ENDS
;	COMDAT xdata
xdata	SEGMENT
$unwind$?_Getcat@?$ctype@D@std@@SA_KPEAPEBVfacet@locale@2@PEBV42@@Z DD 071c11H
	DD	01a641cH
	DD	0193418H
	DD	016010bH
	DD	07004H
	DD	imagerel __CxxFrameHandler3
	DD	imagerel $cppxdata$?_Getcat@?$ctype@D@std@@SA_KPEAPEBVfacet@locale@2@PEBV42@@Z
xdata	ENDS
;	COMDAT xdata
xdata	SEGMENT
$unwind$??1?$ctype@D@std@@MEAA@XZ DD 020601H
	DD	030023206H
xdata	ENDS
;	COMDAT xdata
xdata	SEGMENT
$unwind$?_Init@?$ctype@D@std@@IEAAXAEBV_Locinfo@2@@Z DD 020601H
	DD	030027206H
xdata	ENDS
;	COMDAT xdata
xdata	SEGMENT
$unwind$?_Tidy@?$ctype@D@std@@IEAAXXZ DD 020601H
	DD	030023206H
xdata	ENDS
;	COMDAT xdata
xdata	SEGMENT
$chain$1$?do_tolower@?$ctype@D@std@@MEBAPEBDPEADPEBD@Z DD 021H
	DD	imagerel $LN12
	DD	imagerel $LN12+38
	DD	imagerel $unwind$?do_tolower@?$ctype@D@std@@MEBAPEBDPEADPEBD@Z
xdata	ENDS
;	COMDAT xdata
xdata	SEGMENT
$chain$0$?do_tolower@?$ctype@D@std@@MEBAPEBDPEADPEBD@Z DD 020521H
	DD	065405H
	DD	imagerel $LN12
	DD	imagerel $LN12+38
	DD	imagerel $unwind$?do_tolower@?$ctype@D@std@@MEBAPEBDPEADPEBD@Z
xdata	ENDS
;	COMDAT xdata
xdata	SEGMENT
$unwind$?do_tolower@?$ctype@D@std@@MEBAPEBDPEADPEBD@Z DD 060f01H
	DD	08640fH
	DD	07340fH
	DD	0700b320fH
xdata	ENDS
;	COMDAT xdata
xdata	SEGMENT
$chain$1$?do_toupper@?$ctype@D@std@@MEBAPEBDPEADPEBD@Z DD 021H
	DD	imagerel $LN12
	DD	imagerel $LN12+38
	DD	imagerel $unwind$?do_toupper@?$ctype@D@std@@MEBAPEBDPEADPEBD@Z
xdata	ENDS
;	COMDAT xdata
xdata	SEGMENT
$chain$0$?do_toupper@?$ctype@D@std@@MEBAPEBDPEADPEBD@Z DD 020521H
	DD	065405H
	DD	imagerel $LN12
	DD	imagerel $LN12+38
	DD	imagerel $unwind$?do_toupper@?$ctype@D@std@@MEBAPEBDPEADPEBD@Z
xdata	ENDS
;	COMDAT xdata
xdata	SEGMENT
$unwind$?do_toupper@?$ctype@D@std@@MEBAPEBDPEADPEBD@Z DD 060f01H
	DD	08640fH
	DD	07340fH
	DD	0700b320fH
xdata	ENDS
;	COMDAT xdata
xdata	SEGMENT
$unwind$?do_widen@?$ctype@D@std@@MEBAPEBDPEBD0PEAD@Z DD 020601H
	DD	030023206H
xdata	ENDS
;	COMDAT xdata
xdata	SEGMENT
$unwind$?do_narrow@?$ctype@D@std@@MEBAPEBDPEBD0DPEAD@Z DD 020601H
	DD	030023206H
xdata	ENDS
;	COMDAT xdata
xdata	SEGMENT
$unwind$??_G?$ctype@D@std@@MEAAPEAXI@Z DD 040a01H
	DD	06340aH
	DD	07006320aH
xdata	ENDS
;	COMDAT xdata
xdata	SEGMENT
$unwind$??_Gerror_category@std@@UEAAPEAXI@Z DD 020601H
	DD	030023206H
xdata	ENDS
;	COMDAT xdata
xdata	SEGMENT
$unwind$?message@error_code@std@@QEBA?AV?$basic_string@DU?$char_traits@D@std@@V?$allocator@D@2@@2@XZ DD 020601H
	DD	030025206H
xdata	ENDS
;	COMDAT xdata
xdata	SEGMENT
$unwind$?equivalent@error_category@std@@UEBA_NHAEBVerror_condition@2@@Z DD 020601H
	DD	030025206H
xdata	ENDS
;	COMDAT xdata
xdata	SEGMENT
$unwind$?make_error_code@std@@YA?AVerror_code@1@W4io_errc@1@@Z DD 040a01H
	DD	06340aH
	DD	07006320aH
xdata	ENDS
;	COMDAT xdata
xdata	SEGMENT
$ip2state$?_Makestr@_System_error@std@@CA?AV?$basic_string@DU?$char_traits@D@std@@V?$allocator@D@2@@2@Verror_code@2@V32@@Z DD imagerel ?_Makestr@_System_error@std@@CA?AV?$basic_string@DU?$char_traits@D@std@@V?$allocator@D@2@@2@Verror_code@2@V32@@Z
	DD	0ffffffffH
	DD	imagerel ?_Makestr@_System_error@std@@CA?AV?$basic_string@DU?$char_traits@D@std@@V?$allocator@D@2@@2@Verror_code@2@V32@@Z+54
	DD	00H
	DD	imagerel ?_Makestr@_System_error@std@@CA?AV?$basic_string@DU?$char_traits@D@std@@V?$allocator@D@2@@2@Verror_code@2@V32@@Z+96
	DD	01H
	DD	imagerel ?_Makestr@_System_error@std@@CA?AV?$basic_string@DU?$char_traits@D@std@@V?$allocator@D@2@@2@Verror_code@2@V32@@Z+115
	DD	00H
	DD	imagerel ?_Makestr@_System_error@std@@CA?AV?$basic_string@DU?$char_traits@D@std@@V?$allocator@D@2@@2@Verror_code@2@V32@@Z+215
	DD	0ffffffffH
xdata	ENDS
;	COMDAT xdata
xdata	SEGMENT
$stateUnwindMap$?_Makestr@_System_error@std@@CA?AV?$basic_string@DU?$char_traits@D@std@@V?$allocator@D@2@@2@Verror_code@2@V32@@Z DD 0ffffffffH
	DD	imagerel ?dtor$0@?0??_Makestr@_System_error@std@@CA?AV?$basic_string@DU?$char_traits@D@std@@V?$allocator@D@2@@2@Verror_code@2@V32@@Z@4HA
	DD	00H
	DD	imagerel ?dtor$1@?0??_Makestr@_System_error@std@@CA?AV?$basic_string@DU?$char_traits@D@std@@V?$allocator@D@2@@2@Verror_code@2@V32@@Z@4HA
xdata	ENDS
;	COMDAT CONST
CONST	SEGMENT
$cppxdata$?_Makestr@_System_error@std@@CA?AV?$basic_string@DU?$char_traits@D@std@@V?$allocator@D@2@@2@Verror_code@2@V32@@Z DD 019930522H
	DD	02H
	DD	imagerel $stateUnwindMap$?_Makestr@_System_error@std@@CA?AV?$basic_string@DU?$char_traits@D@std@@V?$allocator@D@2@@2@Verror_code@2@V32@@Z
	DD	00H
	DD	00H
	DD	05H
	DD	imagerel $ip2state$?_Makestr@_System_error@std@@CA?AV?$basic_string@DU?$char_traits@D@std@@V?$allocator@D@2@@2@Verror_code@2@V32@@Z
	DD	028H
	DD	00H
	DD	01H
CONST	ENDS
;	COMDAT xdata
xdata	SEGMENT
$unwind$?_Makestr@_System_error@std@@CA?AV?$basic_string@DU?$char_traits@D@std@@V?$allocator@D@2@@2@Verror_code@2@V32@@Z DD 042019H
	DD	07004b208H
	DD	030026003H
	DD	imagerel __GSHandlerCheck_EH
	DD	imagerel $cppxdata$?_Makestr@_System_error@std@@CA?AV?$basic_string@DU?$char_traits@D@std@@V?$allocator@D@2@@2@Verror_code@2@V32@@Z
	DD	05aH
xdata	ENDS
;	COMDAT xdata
xdata	SEGMENT
$unwind$??0_System_error@std@@IEAA@Verror_code@1@AEBV?$basic_string@DU?$char_traits@D@std@@V?$allocator@D@2@@1@@Z DD 041c19H
	DD	015340dH
	DD	07006f20dH
	DD	imagerel __GSHandlerCheck
	DD	070H
xdata	ENDS
;	COMDAT xdata
xdata	SEGMENT
$unwind$??_G_System_error@std@@UEAAPEAXI@Z DD 040a01H
	DD	06340aH
	DD	07006320aH
xdata	ENDS
;	COMDAT xdata
xdata	SEGMENT
$ip2state$??0system_error@std@@QEAA@Verror_code@1@PEBD@Z DD imagerel ??0system_error@std@@QEAA@Verror_code@1@PEBD@Z
	DD	0ffffffffH
	DD	imagerel ??0system_error@std@@QEAA@Verror_code@1@PEBD@Z+104
	DD	00H
	DD	imagerel ??0system_error@std@@QEAA@Verror_code@1@PEBD@Z+131
	DD	0ffffffffH
xdata	ENDS
;	COMDAT xdata
xdata	SEGMENT
$stateUnwindMap$??0system_error@std@@QEAA@Verror_code@1@PEBD@Z DD 0ffffffffH
	DD	imagerel ?dtor$0@?0???0system_error@std@@QEAA@Verror_code@1@PEBD@Z@4HA
xdata	ENDS
;	COMDAT CONST
CONST	SEGMENT
$cppxdata$??0system_error@std@@QEAA@Verror_code@1@PEBD@Z DD 019930522H
	DD	01H
	DD	imagerel $stateUnwindMap$??0system_error@std@@QEAA@Verror_code@1@PEBD@Z
	DD	00H
	DD	00H
	DD	03H
	DD	imagerel $ip2state$??0system_error@std@@QEAA@Verror_code@1@PEBD@Z
	DD	020H
	DD	00H
	DD	01H
CONST	ENDS
;	COMDAT xdata
xdata	SEGMENT
$unwind$??0system_error@std@@QEAA@Verror_code@1@PEBD@Z DD 042319H
	DD	0133414H
	DD	07004d208H
	DD	imagerel __GSHandlerCheck_EH
	DD	imagerel $cppxdata$??0system_error@std@@QEAA@Verror_code@1@PEBD@Z
	DD	062H
xdata	ENDS
;	COMDAT xdata
xdata	SEGMENT
$unwind$??_Gsystem_error@std@@UEAAPEAXI@Z DD 040a01H
	DD	06340aH
	DD	07006320aH
xdata	ENDS
;	COMDAT xdata
xdata	SEGMENT
$unwind$?message@_Generic_error_category@std@@UEBA?AV?$basic_string@DU?$char_traits@D@std@@V?$allocator@D@2@@2@H@Z DD 040a01H
	DD	08340aH
	DD	07006520aH
xdata	ENDS
;	COMDAT xdata
xdata	SEGMENT
$unwind$??_G_Generic_error_category@std@@UEAAPEAXI@Z DD 020601H
	DD	030023206H
xdata	ENDS
;	COMDAT xdata
xdata	SEGMENT
$unwind$?message@_Iostream_error_category@std@@UEBA?AV?$basic_string@DU?$char_traits@D@std@@V?$allocator@D@2@@2@H@Z DD 020601H
	DD	030025206H
xdata	ENDS
;	COMDAT xdata
xdata	SEGMENT
$unwind$??_G_Iostream_error_category@std@@UEAAPEAXI@Z DD 020601H
	DD	030023206H
xdata	ENDS
;	COMDAT xdata
xdata	SEGMENT
$unwind$?iostream_category@std@@YAAEBVerror_category@1@XZ DD 010401H
	DD	04204H
xdata	ENDS
;	COMDAT xdata
xdata	SEGMENT
$unwind$??0failure@ios_base@std@@QEAA@PEBDAEBVerror_code@2@@Z DD 020601H
	DD	030025206H
xdata	ENDS
;	COMDAT xdata
xdata	SEGMENT
$ip2state$?clear@ios_base@std@@QEAAXH_N@Z DD imagerel ?clear@ios_base@std@@QEAAXH_N@Z
	DD	0ffffffffH
	DD	imagerel ?clear@ios_base@std@@QEAAXH_N@Z+241
	DD	00H
	DD	imagerel ?clear@ios_base@std@@QEAAXH_N@Z+495
	DD	0ffffffffH
	DD	imagerel ?clear@ios_base@std@@QEAAXH_N@Z+674
	DD	01H
	DD	imagerel ?clear@ios_base@std@@QEAAXH_N@Z+928
	DD	0ffffffffH
xdata	ENDS
;	COMDAT xdata
xdata	SEGMENT
$stateUnwindMap$?clear@ios_base@std@@QEAAXH_N@Z DD 0ffffffffH
	DD	imagerel ?dtor$7@?0??clear@ios_base@std@@QEAAXH_N@Z@4HA
	DD	0ffffffffH
	DD	imagerel ?dtor$127@?0??clear@ios_base@std@@QEAAXH_N@Z@4HA
xdata	ENDS
;	COMDAT CONST
CONST	SEGMENT
$cppxdata$?clear@ios_base@std@@QEAAXH_N@Z DD 019930522H
	DD	02H
	DD	imagerel $stateUnwindMap$?clear@ios_base@std@@QEAAXH_N@Z
	DD	00H
	DD	00H
	DD	05H
	DD	imagerel $ip2state$?clear@ios_base@std@@QEAAXH_N@Z
	DD	088H
	DD	00H
	DD	01H
CONST	ENDS
;	COMDAT xdata
xdata	SEGMENT
$unwind$?clear@ios_base@std@@QEAAXH_N@Z DD 072d19H
	DD	010681fH
	DD	025341bH
	DD	022010fH
	DD	05004H
	DD	imagerel __GSHandlerCheck_EH
	DD	imagerel $cppxdata$?clear@ios_base@std@@QEAAXH_N@Z
	DD	0f2H
xdata	ENDS
;	COMDAT xdata
xdata	SEGMENT
$ip2state$?getloc@ios_base@std@@QEBA?AVlocale@2@XZ DD imagerel ?getloc@ios_base@std@@QEBA?AVlocale@2@XZ
	DD	0ffffffffH
	DD	imagerel ?getloc@ios_base@std@@QEBA?AVlocale@2@XZ+22
	DD	00H
	DD	imagerel ?getloc@ios_base@std@@QEBA?AVlocale@2@XZ+37
	DD	0ffffffffH
xdata	ENDS
;	COMDAT xdata
xdata	SEGMENT
$stateUnwindMap$?getloc@ios_base@std@@QEBA?AVlocale@2@XZ DD 0ffffffffH
	DD	imagerel __std_terminate
xdata	ENDS
;	COMDAT CONST
CONST	SEGMENT
$cppxdata$?getloc@ios_base@std@@QEBA?AVlocale@2@XZ DD 019930522H
	DD	01H
	DD	imagerel $stateUnwindMap$?getloc@ios_base@std@@QEBA?AVlocale@2@XZ
	DD	00H
	DD	00H
	DD	03H
	DD	imagerel $ip2state$?getloc@ios_base@std@@QEBA?AVlocale@2@XZ
	DD	020H
	DD	00H
	DD	01H
CONST	ENDS
;	COMDAT xdata
xdata	SEGMENT
$unwind$?getloc@ios_base@std@@QEBA?AVlocale@2@XZ DD 020f11H
	DD	030025206H
	DD	imagerel __CxxFrameHandler3
	DD	imagerel $cppxdata$?getloc@ios_base@std@@QEBA?AVlocale@2@XZ
xdata	ENDS
;	COMDAT xdata
xdata	SEGMENT
$unwind$??_Gfailure@ios_base@std@@UEAAPEAXI@Z DD 040a01H
	DD	06340aH
	DD	07006320aH
xdata	ENDS
;	COMDAT xdata
xdata	SEGMENT
$unwind$??0failure@ios_base@std@@QEAA@AEBV012@@Z DD 040a01H
	DD	06340aH
	DD	07006320aH
xdata	ENDS
;	COMDAT xdata
xdata	SEGMENT
$unwind$??0system_error@std@@QEAA@AEBV01@@Z DD 040a01H
	DD	06340aH
	DD	07006320aH
xdata	ENDS
;	COMDAT xdata
xdata	SEGMENT
$unwind$??0_System_error@std@@QEAA@AEBV01@@Z DD 040a01H
	DD	06340aH
	DD	07006320aH
xdata	ENDS
xdata	SEGMENT
$unwind$main DD	010401H
	DD	04204H
xdata	ENDS
;	COMDAT xdata
xdata	SEGMENT
$unwind$??1?$_Yarn@_W@std@@QEAA@XZ DD 020601H
	DD	030023206H
xdata	ENDS
;	COMDAT xdata
xdata	SEGMENT
$unwind$??1?$_Yarn@D@std@@QEAA@XZ DD 020601H
	DD	030023206H
xdata	ENDS
;	COMDAT xdata
xdata	SEGMENT
$unwind$??1?$basic_string@DU?$char_traits@D@std@@V?$allocator@D@2@@std@@QEAA@XZ DD 020601H
	DD	030023206H
xdata	ENDS
;	COMDAT xdata
xdata	SEGMENT
$unwind$??0?$basic_string@DU?$char_traits@D@std@@V?$allocator@D@2@@std@@QEAA@$$QEAV01@@Z DD 040a01H
	DD	06340aH
	DD	07006320aH
xdata	ENDS
;	COMDAT xdata
xdata	SEGMENT
$unwind$??0?$basic_string@DU?$char_traits@D@std@@V?$allocator@D@2@@std@@QEAA@PEBD@Z DD 020601H
	DD	030023206H
xdata	ENDS
;	COMDAT xdata
xdata	SEGMENT
$unwind$??0?$basic_string@DU?$char_traits@D@std@@V?$allocator@D@2@@std@@QEAA@AEBV01@@Z DD 020601H
	DD	030023206H
xdata	ENDS
;	COMDAT xdata
xdata	SEGMENT
$unwind$?_Tidy@?$_Yarn@_W@std@@AEAAXXZ DD 020601H
	DD	030023206H
xdata	ENDS
;	COMDAT xdata
xdata	SEGMENT
$unwind$?_Tidy@?$_Yarn@D@std@@AEAAXXZ DD 020601H
	DD	030023206H
xdata	ENDS
;	COMDAT xdata
xdata	SEGMENT
$unwind$?_Tidy@?$basic_string@DU?$char_traits@D@std@@V?$allocator@D@2@@std@@QEAAX_N_K@Z DD 060f01H
	DD	07640fH
	DD	06340fH
	DD	0700b320fH
xdata	ENDS
;	COMDAT xdata
xdata	SEGMENT
$unwind$?assign@?$basic_string@DU?$char_traits@D@std@@V?$allocator@D@2@@std@@QEAAAEAV12@AEBV12@_K1@Z DD 081501H
	DD	087415H
	DD	076415H
	DD	063415H
	DD	0e0113215H
xdata	ENDS
;	COMDAT xdata
xdata	SEGMENT
$chain$2$?append@?$basic_string@DU?$char_traits@D@std@@V?$allocator@D@2@@std@@QEAAAEAV12@PEBD_K@Z DD 020021H
	DD	067400H
	DD	imagerel $LN221
	DD	imagerel $LN221+138
	DD	imagerel $unwind$?append@?$basic_string@DU?$char_traits@D@std@@V?$allocator@D@2@@std@@QEAAAEAV12@PEBD_K@Z
xdata	ENDS
;	COMDAT xdata
xdata	SEGMENT
$chain$1$?append@?$basic_string@DU?$char_traits@D@std@@V?$allocator@D@2@@std@@QEAAAEAV12@PEBD_K@Z DD 021H
	DD	imagerel $LN221
	DD	imagerel $LN221+138
	DD	imagerel $unwind$?append@?$basic_string@DU?$char_traits@D@std@@V?$allocator@D@2@@std@@QEAAAEAV12@PEBD_K@Z
xdata	ENDS
;	COMDAT xdata
xdata	SEGMENT
$chain$0$?append@?$basic_string@DU?$char_traits@D@std@@V?$allocator@D@2@@std@@QEAAAEAV12@PEBD_K@Z DD 020521H
	DD	067405H
	DD	imagerel $LN221
	DD	imagerel $LN221+138
	DD	imagerel $unwind$?append@?$basic_string@DU?$char_traits@D@std@@V?$allocator@D@2@@std@@QEAAAEAV12@PEBD_K@Z
xdata	ENDS
;	COMDAT xdata
xdata	SEGMENT
$unwind$?append@?$basic_string@DU?$char_traits@D@std@@V?$allocator@D@2@@std@@QEAAAEAV12@PEBD_K@Z DD 060f01H
	DD	08540fH
	DD	07340fH
	DD	0600b320fH
xdata	ENDS
;	COMDAT xdata
xdata	SEGMENT
$chain$2$?append@?$basic_string@DU?$char_traits@D@std@@V?$allocator@D@2@@std@@QEAAAEAV12@AEBV12@_K1@Z DD 020021H
	DD	067400H
	DD	imagerel $LN206
	DD	imagerel $LN206+75
	DD	imagerel $unwind$?append@?$basic_string@DU?$char_traits@D@std@@V?$allocator@D@2@@std@@QEAAAEAV12@AEBV12@_K1@Z
xdata	ENDS
;	COMDAT xdata
xdata	SEGMENT
$chain$1$?append@?$basic_string@DU?$char_traits@D@std@@V?$allocator@D@2@@std@@QEAAAEAV12@AEBV12@_K1@Z DD 021H
	DD	imagerel $LN206
	DD	imagerel $LN206+75
	DD	imagerel $unwind$?append@?$basic_string@DU?$char_traits@D@std@@V?$allocator@D@2@@std@@QEAAAEAV12@AEBV12@_K1@Z
xdata	ENDS
;	COMDAT xdata
xdata	SEGMENT
$chain$0$?append@?$basic_string@DU?$char_traits@D@std@@V?$allocator@D@2@@std@@QEAAAEAV12@AEBV12@_K1@Z DD 020521H
	DD	067405H
	DD	imagerel $LN206
	DD	imagerel $LN206+75
	DD	imagerel $unwind$?append@?$basic_string@DU?$char_traits@D@std@@V?$allocator@D@2@@std@@QEAAAEAV12@AEBV12@_K1@Z
xdata	ENDS
;	COMDAT xdata
xdata	SEGMENT
$unwind$?append@?$basic_string@DU?$char_traits@D@std@@V?$allocator@D@2@@std@@QEAAAEAV12@AEBV12@_K1@Z DD 081501H
	DD	096415H
	DD	085415H
	DD	073415H
	DD	0e0113215H
xdata	ENDS
;	COMDAT xdata
xdata	SEGMENT
$unwind$?_Assign_rv@?$basic_string@DU?$char_traits@D@std@@V?$allocator@D@2@@std@@QEAAX$$QEAV12@@Z DD 040a01H
	DD	06340aH
	DD	07006320aH
xdata	ENDS
;	COMDAT xdata
xdata	SEGMENT
$unwind$?deallocate@?$_Wrap_alloc@V?$allocator@D@std@@@std@@QEAAXPEAD_K@Z DD 010401H
	DD	04204H
xdata	ENDS
;	COMDAT xdata
xdata	SEGMENT
$unwind$?_Check_offset@?$basic_string@DU?$char_traits@D@std@@V?$allocator@D@2@@std@@QEBAX_K@Z DD 010401H
	DD	04204H
xdata	ENDS
;	COMDAT xdata
xdata	SEGMENT
$unwind$?_Xlen@?$basic_string@DU?$char_traits@D@std@@V?$allocator@D@2@@std@@QEBAXXZ DD 010401H
	DD	04204H
xdata	ENDS
;	COMDAT xdata
xdata	SEGMENT
$unwind$?_Grow@?$basic_string@DU?$char_traits@D@std@@V?$allocator@D@2@@std@@QEAA_N_K_N@Z DD 020601H
	DD	030023206H
xdata	ENDS
;	COMDAT xdata
xdata	SEGMENT
$unwind$?erase@?$basic_string@DU?$char_traits@D@std@@V?$allocator@D@2@@std@@QEAAAEAV12@_K0@Z DD 040a01H
	DD	06340aH
	DD	07006320aH
xdata	ENDS
;	COMDAT xdata
xdata	SEGMENT
$unwind$?erase@?$basic_string@DU?$char_traits@D@std@@V?$allocator@D@2@@std@@QEAAAEAV12@_K@Z DD 010401H
	DD	04204H
xdata	ENDS
;	COMDAT xdata
xdata	SEGMENT
$unwind$?assign@?$basic_string@DU?$char_traits@D@std@@V?$allocator@D@2@@std@@QEAAAEAV12@PEBD_K@Z DD 060f01H
	DD	07640fH
	DD	06340fH
	DD	0700b320fH
xdata	ENDS
;	COMDAT xdata
xdata	SEGMENT
$unwind$?_Xran@?$basic_string@DU?$char_traits@D@std@@V?$allocator@D@2@@std@@QEBAXXZ DD 010401H
	DD	04204H
xdata	ENDS
;	COMDAT xdata
xdata	SEGMENT
$unwind$?catch$106@?0??_Copy@?$basic_string@DU?$char_traits@D@std@@V?$allocator@D@2@@std@@QEAAX_K0@Z@4HA DD 030b19H
	DD	05007420bH
	DD	03006H
	DD	imagerel __CxxFrameHandler3
	DD	imagerel $cppxdata$?_Copy@?$basic_string@DU?$char_traits@D@std@@V?$allocator@D@2@@std@@QEAAX_K0@Z
xdata	ENDS
;	COMDAT xdata
xdata	SEGMENT
$unwind$?catch$107@?0??_Copy@?$basic_string@DU?$char_traits@D@std@@V?$allocator@D@2@@std@@QEAAX_K0@Z@4HA DD 020a19H
	DD	05006320aH
	DD	imagerel __CxxFrameHandler3
	DD	imagerel $cppxdata$?_Copy@?$basic_string@DU?$char_traits@D@std@@V?$allocator@D@2@@std@@QEAAX_K0@Z
xdata	ENDS
;	COMDAT xdata
xdata	SEGMENT
$ip2state$?_Copy@?$basic_string@DU?$char_traits@D@std@@V?$allocator@D@2@@std@@QEAAX_K0@Z DD imagerel ?_Copy@?$basic_string@DU?$char_traits@D@std@@V?$allocator@D@2@@std@@QEAAX_K0@Z
	DD	0ffffffffH
	DD	imagerel ?_Copy@?$basic_string@DU?$char_traits@D@std@@V?$allocator@D@2@@std@@QEAAX_K0@Z+110
	DD	00H
	DD	imagerel ?_Copy@?$basic_string@DU?$char_traits@D@std@@V?$allocator@D@2@@std@@QEAAX_K0@Z+176
	DD	0ffffffffH
	DD	imagerel ?catch$107@?0??_Copy@?$basic_string@DU?$char_traits@D@std@@V?$allocator@D@2@@std@@QEAAX_K0@Z@4HA
	DD	00H
	DD	imagerel ?catch$107@?0??_Copy@?$basic_string@DU?$char_traits@D@std@@V?$allocator@D@2@@std@@QEAAX_K0@Z@4HA+13
	DD	01H
	DD	imagerel ?catch$107@?0??_Copy@?$basic_string@DU?$char_traits@D@std@@V?$allocator@D@2@@std@@QEAAX_K0@Z@4HA+21
	DD	02H
	DD	imagerel ?catch$107@?0??_Copy@?$basic_string@DU?$char_traits@D@std@@V?$allocator@D@2@@std@@QEAAX_K0@Z@4HA+37
	DD	00H
	DD	imagerel ?catch$106@?0??_Copy@?$basic_string@DU?$char_traits@D@std@@V?$allocator@D@2@@std@@QEAAX_K0@Z@4HA+14
	DD	03H
xdata	ENDS
;	COMDAT xdata
xdata	SEGMENT
$handlerMap$1$?_Copy@?$basic_string@DU?$char_traits@D@std@@V?$allocator@D@2@@std@@QEAAX_K0@Z DD 040H
	DD	00H
	DD	00H
	DD	imagerel ?catch$106@?0??_Copy@?$basic_string@DU?$char_traits@D@std@@V?$allocator@D@2@@std@@QEAAX_K0@Z@4HA
	DD	048H
xdata	ENDS
;	COMDAT xdata
xdata	SEGMENT
$handlerMap$0$?_Copy@?$basic_string@DU?$char_traits@D@std@@V?$allocator@D@2@@std@@QEAAX_K0@Z DD 040H
	DD	00H
	DD	00H
	DD	imagerel ?catch$107@?0??_Copy@?$basic_string@DU?$char_traits@D@std@@V?$allocator@D@2@@std@@QEAAX_K0@Z@4HA
	DD	038H
xdata	ENDS
;	COMDAT xdata
xdata	SEGMENT
$tryMap$?_Copy@?$basic_string@DU?$char_traits@D@std@@V?$allocator@D@2@@std@@QEAAX_K0@Z DD 00H
	DD	00H
	DD	03H
	DD	01H
	DD	imagerel $handlerMap$0$?_Copy@?$basic_string@DU?$char_traits@D@std@@V?$allocator@D@2@@std@@QEAAX_K0@Z
	DD	02H
	DD	02H
	DD	03H
	DD	01H
	DD	imagerel $handlerMap$1$?_Copy@?$basic_string@DU?$char_traits@D@std@@V?$allocator@D@2@@std@@QEAAX_K0@Z
xdata	ENDS
;	COMDAT xdata
xdata	SEGMENT
$stateUnwindMap$?_Copy@?$basic_string@DU?$char_traits@D@std@@V?$allocator@D@2@@std@@QEAAX_K0@Z DD 0ffffffffH
	DD	00H
	DD	0ffffffffH
	DD	00H
	DD	01H
	DD	00H
	DD	01H
	DD	00H
xdata	ENDS
;	COMDAT CONST
CONST	SEGMENT
$cppxdata$?_Copy@?$basic_string@DU?$char_traits@D@std@@V?$allocator@D@2@@std@@QEAAX_K0@Z DD 019930522H
	DD	04H
	DD	imagerel $stateUnwindMap$?_Copy@?$basic_string@DU?$char_traits@D@std@@V?$allocator@D@2@@std@@QEAAX_K0@Z
	DD	02H
	DD	imagerel $tryMap$?_Copy@?$basic_string@DU?$char_traits@D@std@@V?$allocator@D@2@@std@@QEAAX_K0@Z
	DD	08H
	DD	imagerel $ip2state$?_Copy@?$basic_string@DU?$char_traits@D@std@@V?$allocator@D@2@@std@@QEAAX_K0@Z
	DD	020H
	DD	00H
	DD	01H
CONST	ENDS
;	COMDAT xdata
xdata	SEGMENT
$unwind$?_Copy@?$basic_string@DU?$char_traits@D@std@@V?$allocator@D@2@@std@@QEAAX_K0@Z DD 052119H
	DD	0e0146218H
	DD	060117012H
	DD	03010H
	DD	imagerel __CxxFrameHandler3
	DD	imagerel $cppxdata$?_Copy@?$basic_string@DU?$char_traits@D@std@@V?$allocator@D@2@@std@@QEAAX_K0@Z
xdata	ENDS
;	COMDAT xdata
xdata	SEGMENT
$unwind$?deallocate@?$allocator@D@std@@QEAAXPEAD_K@Z DD 010401H
	DD	04204H
xdata	ENDS
;	COMDAT xdata
xdata	SEGMENT
$unwind$?allocate@?$_Wrap_alloc@V?$allocator@D@std@@@std@@QEAAPEAD_K@Z DD 010401H
	DD	04204H
xdata	ENDS
;	COMDAT xdata
xdata	SEGMENT
$unwind$?allocate@?$allocator@D@std@@QEAAPEAD_K@Z DD 010401H
	DD	04204H
xdata	ENDS
;	COMDAT xdata
xdata	SEGMENT
$ip2state$??$use_facet@V?$ctype@D@std@@@std@@YAAEBV?$ctype@D@0@AEBVlocale@0@@Z DD imagerel ??$use_facet@V?$ctype@D@std@@@std@@YAAEBV?$ctype@D@0@AEBVlocale@0@@Z
	DD	0ffffffffH
	DD	imagerel ??$use_facet@V?$ctype@D@std@@@std@@YAAEBV?$ctype@D@0@AEBVlocale@0@@Z+38
	DD	00H
	DD	imagerel ??$use_facet@V?$ctype@D@std@@@std@@YAAEBV?$ctype@D@0@AEBVlocale@0@@Z+325
	DD	0ffffffffH
xdata	ENDS
;	COMDAT xdata
xdata	SEGMENT
$stateUnwindMap$??$use_facet@V?$ctype@D@std@@@std@@YAAEBV?$ctype@D@0@AEBVlocale@0@@Z DD 0ffffffffH
	DD	imagerel ?dtor$0@?0???$use_facet@V?$ctype@D@std@@@std@@YAAEBV?$ctype@D@0@AEBVlocale@0@@Z@4HA
xdata	ENDS
;	COMDAT CONST
CONST	SEGMENT
$cppxdata$??$use_facet@V?$ctype@D@std@@@std@@YAAEBV?$ctype@D@0@AEBVlocale@0@@Z DD 019930522H
	DD	01H
	DD	imagerel $stateUnwindMap$??$use_facet@V?$ctype@D@std@@@std@@YAAEBV?$ctype@D@0@AEBVlocale@0@@Z
	DD	00H
	DD	00H
	DD	03H
	DD	imagerel $ip2state$??$use_facet@V?$ctype@D@std@@@std@@YAAEBV?$ctype@D@0@AEBVlocale@0@@Z
	DD	020H
	DD	00H
	DD	01H
CONST	ENDS
;	COMDAT xdata
xdata	SEGMENT
$unwind$??$use_facet@V?$ctype@D@std@@@std@@YAAEBV?$ctype@D@0@AEBVlocale@0@@Z DD 061611H
	DD	0f3416H
	DD	070047208H
	DD	050026003H
	DD	imagerel __CxxFrameHandler3
	DD	imagerel $cppxdata$??$use_facet@V?$ctype@D@std@@@std@@YAAEBV?$ctype@D@0@AEBVlocale@0@@Z
xdata	ENDS
;	COMDAT xdata
xdata	SEGMENT
$unwind$??$_Immortalize@V_Iostream_error_category@std@@@std@@YAAEAV_Iostream_error_category@0@XZ DD 010401H
	DD	04204H
xdata	ENDS
;	COMDAT xdata
xdata	SEGMENT
$unwind$?catch$232@?0???$?6U?$char_traits@D@std@@@std@@YAAEAV?$basic_ostream@DU?$char_traits@D@std@@@0@AEAV10@PEBD@Z@4HA DD 020a19H
	DD	05006320aH
	DD	imagerel __CxxFrameHandler3
	DD	imagerel $cppxdata$??$?6U?$char_traits@D@std@@@std@@YAAEAV?$basic_ostream@DU?$char_traits@D@std@@@0@AEAV10@PEBD@Z
xdata	ENDS
;	COMDAT xdata
xdata	SEGMENT
$ip2state$??$?6U?$char_traits@D@std@@@std@@YAAEAV?$basic_ostream@DU?$char_traits@D@std@@@0@AEAV10@PEBD@Z DD imagerel ??$?6U?$char_traits@D@std@@@std@@YAAEAV?$basic_ostream@DU?$char_traits@D@std@@@0@AEAV10@PEBD@Z
	DD	0ffffffffH
	DD	imagerel ??$?6U?$char_traits@D@std@@@std@@YAAEAV?$basic_ostream@DU?$char_traits@D@std@@@0@AEAV10@PEBD@Z+114
	DD	00H
	DD	imagerel ??$?6U?$char_traits@D@std@@@std@@YAAEAV?$basic_ostream@DU?$char_traits@D@std@@@0@AEAV10@PEBD@Z+168
	DD	01H
	DD	imagerel ??$?6U?$char_traits@D@std@@@std@@YAAEAV?$basic_ostream@DU?$char_traits@D@std@@@0@AEAV10@PEBD@Z+182
	DD	02H
	DD	imagerel ??$?6U?$char_traits@D@std@@@std@@YAAEAV?$basic_ostream@DU?$char_traits@D@std@@@0@AEAV10@PEBD@Z+456
	DD	01H
	DD	imagerel ??$?6U?$char_traits@D@std@@@std@@YAAEAV?$basic_ostream@DU?$char_traits@D@std@@@0@AEAV10@PEBD@Z+513
	DD	06H
	DD	imagerel ??$?6U?$char_traits@D@std@@@std@@YAAEAV?$basic_ostream@DU?$char_traits@D@std@@@0@AEAV10@PEBD@Z+531
	DD	07H
	DD	imagerel ??$?6U?$char_traits@D@std@@@std@@YAAEAV?$basic_ostream@DU?$char_traits@D@std@@@0@AEAV10@PEBD@Z+555
	DD	0ffffffffH
	DD	imagerel ?catch$232@?0???$?6U?$char_traits@D@std@@@std@@YAAEAV?$basic_ostream@DU?$char_traits@D@std@@@0@AEAV10@PEBD@Z@4HA
	DD	00H
	DD	imagerel ?catch$232@?0???$?6U?$char_traits@D@std@@@std@@YAAEAV?$basic_ostream@DU?$char_traits@D@std@@@0@AEAV10@PEBD@Z@4HA+13
	DD	03H
	DD	imagerel ?catch$232@?0???$?6U?$char_traits@D@std@@@std@@YAAEAV?$basic_ostream@DU?$char_traits@D@std@@@0@AEAV10@PEBD@Z@4HA+54
	DD	00H
	DD	imagerel ?catch$232@?0???$?6U?$char_traits@D@std@@@std@@YAAEAV?$basic_ostream@DU?$char_traits@D@std@@@0@AEAV10@PEBD@Z@4HA+63
	DD	03H
	DD	imagerel ?catch$232@?0???$?6U?$char_traits@D@std@@@std@@YAAEAV?$basic_ostream@DU?$char_traits@D@std@@@0@AEAV10@PEBD@Z@4HA+73
	DD	00H
xdata	ENDS
;	COMDAT xdata
xdata	SEGMENT
$handlerMap$0$??$?6U?$char_traits@D@std@@@std@@YAAEAV?$basic_ostream@DU?$char_traits@D@std@@@0@AEAV10@PEBD@Z DD 040H
	DD	00H
	DD	00H
	DD	imagerel ?catch$232@?0???$?6U?$char_traits@D@std@@@std@@YAAEAV?$basic_ostream@DU?$char_traits@D@std@@@0@AEAV10@PEBD@Z@4HA
	DD	038H
xdata	ENDS
;	COMDAT xdata
xdata	SEGMENT
$tryMap$??$?6U?$char_traits@D@std@@@std@@YAAEAV?$basic_ostream@DU?$char_traits@D@std@@@0@AEAV10@PEBD@Z DD 02H
	DD	02H
	DD	05H
	DD	01H
	DD	imagerel $handlerMap$0$??$?6U?$char_traits@D@std@@@std@@YAAEAV?$basic_ostream@DU?$char_traits@D@std@@@0@AEAV10@PEBD@Z
xdata	ENDS
;	COMDAT xdata
xdata	SEGMENT
$stateUnwindMap$??$?6U?$char_traits@D@std@@@std@@YAAEAV?$basic_ostream@DU?$char_traits@D@std@@@0@AEAV10@PEBD@Z DD 0ffffffffH
	DD	imagerel ?dtor$1@?0???$?6U?$char_traits@D@std@@@std@@YAAEAV?$basic_ostream@DU?$char_traits@D@std@@@0@AEAV10@PEBD@Z@4HA
	DD	0ffffffffH
	DD	imagerel ?dtor$0@?0???$?6U?$char_traits@D@std@@@std@@YAAEAV?$basic_ostream@DU?$char_traits@D@std@@@0@AEAV10@PEBD@Z@4HA
	DD	01H
	DD	00H
	DD	01H
	DD	00H
	DD	03H
	DD	00H
	DD	03H
	DD	00H
	DD	0ffffffffH
	DD	imagerel __std_terminate
	DD	06H
	DD	imagerel __std_terminate
xdata	ENDS
;	COMDAT CONST
CONST	SEGMENT
$cppxdata$??$?6U?$char_traits@D@std@@@std@@YAAEAV?$basic_ostream@DU?$char_traits@D@std@@@0@AEAV10@PEBD@Z DD 019930522H
	DD	08H
	DD	imagerel $stateUnwindMap$??$?6U?$char_traits@D@std@@@std@@YAAEAV?$basic_ostream@DU?$char_traits@D@std@@@0@AEAV10@PEBD@Z
	DD	01H
	DD	imagerel $tryMap$??$?6U?$char_traits@D@std@@@std@@YAAEAV?$basic_ostream@DU?$char_traits@D@std@@@0@AEAV10@PEBD@Z
	DD	0dH
	DD	imagerel $ip2state$??$?6U?$char_traits@D@std@@@std@@YAAEAV?$basic_ostream@DU?$char_traits@D@std@@@0@AEAV10@PEBD@Z
	DD	040H
	DD	00H
	DD	01H
CONST	ENDS
;	COMDAT xdata
xdata	SEGMENT
$unwind$??$?6U?$char_traits@D@std@@@std@@YAAEAV?$basic_ostream@DU?$char_traits@D@std@@@0@AEAV10@PEBD@Z DD 081e19H
	DD	0e741eH
	DD	0d6419H
	DD	0c3414H
	DD	0e0029206H
	DD	imagerel __CxxFrameHandler3
	DD	imagerel $cppxdata$??$?6U?$char_traits@D@std@@@std@@YAAEAV?$basic_ostream@DU?$char_traits@D@std@@@0@AEAV10@PEBD@Z
xdata	ENDS
;	COMDAT xdata
xdata	SEGMENT
$ip2state$??$endl@DU?$char_traits@D@std@@@std@@YAAEAV?$basic_ostream@DU?$char_traits@D@std@@@0@AEAV10@@Z DD imagerel ??$endl@DU?$char_traits@D@std@@@std@@YAAEAV?$basic_ostream@DU?$char_traits@D@std@@@0@AEAV10@@Z
	DD	0ffffffffH
	DD	imagerel ??$endl@DU?$char_traits@D@std@@@std@@YAAEAV?$basic_ostream@DU?$char_traits@D@std@@@0@AEAV10@@Z+44
	DD	00H
	DD	imagerel ??$endl@DU?$char_traits@D@std@@@std@@YAAEAV?$basic_ostream@DU?$char_traits@D@std@@@0@AEAV10@@Z+55
	DD	01H
	DD	imagerel ??$endl@DU?$char_traits@D@std@@@std@@YAAEAV?$basic_ostream@DU?$char_traits@D@std@@@0@AEAV10@@Z+91
	DD	0ffffffffH
xdata	ENDS
;	COMDAT xdata
xdata	SEGMENT
$stateUnwindMap$??$endl@DU?$char_traits@D@std@@@std@@YAAEAV?$basic_ostream@DU?$char_traits@D@std@@@0@AEAV10@@Z DD 0ffffffffH
	DD	imagerel ?dtor$0@?0???$endl@DU?$char_traits@D@std@@@std@@YAAEAV?$basic_ostream@DU?$char_traits@D@std@@@0@AEAV10@@Z@4HA
	DD	0ffffffffH
	DD	imagerel __std_terminate
xdata	ENDS
;	COMDAT CONST
CONST	SEGMENT
$cppxdata$??$endl@DU?$char_traits@D@std@@@std@@YAAEAV?$basic_ostream@DU?$char_traits@D@std@@@0@AEAV10@@Z DD 019930522H
	DD	02H
	DD	imagerel $stateUnwindMap$??$endl@DU?$char_traits@D@std@@@std@@YAAEAV?$basic_ostream@DU?$char_traits@D@std@@@0@AEAV10@@Z
	DD	00H
	DD	00H
	DD	04H
	DD	imagerel $ip2state$??$endl@DU?$char_traits@D@std@@@std@@YAAEAV?$basic_ostream@DU?$char_traits@D@std@@@0@AEAV10@@Z
	DD	020H
	DD	00H
	DD	01H
CONST	ENDS
;	COMDAT xdata
xdata	SEGMENT
$unwind$??$endl@DU?$char_traits@D@std@@@std@@YAAEAV?$basic_ostream@DU?$char_traits@D@std@@@0@AEAV10@@Z DD 041411H
	DD	0a3414H
	DD	070027206H
	DD	imagerel __CxxFrameHandler3
	DD	imagerel $cppxdata$??$endl@DU?$char_traits@D@std@@@std@@YAAEAV?$basic_ostream@DU?$char_traits@D@std@@@0@AEAV10@@Z
xdata	ENDS
;	COMDAT xdata
xdata	SEGMENT
$unwind$??0bad_cast@std@@QEAA@AEBV01@@Z DD 020601H
	DD	030023206H
xdata	ENDS
;	COMDAT xdata
xdata	SEGMENT
$ip2state$??1sentry@?$basic_ostream@DU?$char_traits@D@std@@@std@@QEAA@XZ DD imagerel ??1sentry@?$basic_ostream@DU?$char_traits@D@std@@@std@@QEAA@XZ
	DD	0ffffffffH
	DD	imagerel ??1sentry@?$basic_ostream@DU?$char_traits@D@std@@@std@@QEAA@XZ+37
	DD	00H
	DD	imagerel ??1sentry@?$basic_ostream@DU?$char_traits@D@std@@@std@@QEAA@XZ+64
	DD	0ffffffffH
xdata	ENDS
;	COMDAT xdata
xdata	SEGMENT
$stateUnwindMap$??1sentry@?$basic_ostream@DU?$char_traits@D@std@@@std@@QEAA@XZ DD 0ffffffffH
	DD	imagerel __std_terminate
xdata	ENDS
;	COMDAT CONST
CONST	SEGMENT
$cppxdata$??1sentry@?$basic_ostream@DU?$char_traits@D@std@@@std@@QEAA@XZ DD 019930522H
	DD	01H
	DD	imagerel $stateUnwindMap$??1sentry@?$basic_ostream@DU?$char_traits@D@std@@@std@@QEAA@XZ
	DD	00H
	DD	00H
	DD	03H
	DD	imagerel $ip2state$??1sentry@?$basic_ostream@DU?$char_traits@D@std@@@std@@QEAA@XZ
	DD	020H
	DD	00H
	DD	05H
CONST	ENDS
;	COMDAT xdata
xdata	SEGMENT
$unwind$??1sentry@?$basic_ostream@DU?$char_traits@D@std@@@std@@QEAA@XZ DD 020f19H
	DD	030025206H
	DD	imagerel __CxxFrameHandler3
	DD	imagerel $cppxdata$??1sentry@?$basic_ostream@DU?$char_traits@D@std@@@std@@QEAA@XZ
xdata	ENDS
;	COMDAT xdata
xdata	SEGMENT
$ip2state$??0sentry@?$basic_ostream@DU?$char_traits@D@std@@@std@@QEAA@AEAV12@@Z DD imagerel ??0sentry@?$basic_ostream@DU?$char_traits@D@std@@@std@@QEAA@AEAV12@@Z
	DD	0ffffffffH
	DD	imagerel ??0sentry@?$basic_ostream@DU?$char_traits@D@std@@@std@@QEAA@AEAV12@@Z+57
	DD	00H
	DD	imagerel ??0sentry@?$basic_ostream@DU?$char_traits@D@std@@@std@@QEAA@AEAV12@@Z+109
	DD	0ffffffffH
xdata	ENDS
;	COMDAT xdata
xdata	SEGMENT
$stateUnwindMap$??0sentry@?$basic_ostream@DU?$char_traits@D@std@@@std@@QEAA@AEAV12@@Z DD 0ffffffffH
	DD	imagerel ?dtor$0@?0???0sentry@?$basic_ostream@DU?$char_traits@D@std@@@std@@QEAA@AEAV12@@Z@4HA
xdata	ENDS
;	COMDAT CONST
CONST	SEGMENT
$cppxdata$??0sentry@?$basic_ostream@DU?$char_traits@D@std@@@std@@QEAA@AEAV12@@Z DD 019930522H
	DD	01H
	DD	imagerel $stateUnwindMap$??0sentry@?$basic_ostream@DU?$char_traits@D@std@@@std@@QEAA@AEAV12@@Z
	DD	00H
	DD	00H
	DD	03H
	DD	imagerel $ip2state$??0sentry@?$basic_ostream@DU?$char_traits@D@std@@@std@@QEAA@AEAV12@@Z
	DD	020H
	DD	00H
	DD	01H
CONST	ENDS
;	COMDAT xdata
xdata	SEGMENT
$unwind$??0sentry@?$basic_ostream@DU?$char_traits@D@std@@@std@@QEAA@AEAV12@@Z DD 041811H
	DD	093418H
	DD	07006520aH
	DD	imagerel __CxxFrameHandler3
	DD	imagerel $cppxdata$??0sentry@?$basic_ostream@DU?$char_traits@D@std@@@std@@QEAA@AEAV12@@Z
xdata	ENDS
;	COMDAT xdata
xdata	SEGMENT
$ip2state$?flush@?$basic_ostream@DU?$char_traits@D@std@@@std@@QEAAAEAV12@XZ DD imagerel ?flush@?$basic_ostream@DU?$char_traits@D@std@@@std@@QEAAAEAV12@XZ
	DD	0ffffffffH
	DD	imagerel ?flush@?$basic_ostream@DU?$char_traits@D@std@@@std@@QEAAAEAV12@XZ+51
	DD	00H
	DD	imagerel ?flush@?$basic_ostream@DU?$char_traits@D@std@@@std@@QEAAAEAV12@XZ+118
	DD	01H
	DD	imagerel ?flush@?$basic_ostream@DU?$char_traits@D@std@@@std@@QEAAAEAV12@XZ+138
	DD	02H
	DD	imagerel ?flush@?$basic_ostream@DU?$char_traits@D@std@@@std@@QEAAAEAV12@XZ+167
	DD	0ffffffffH
xdata	ENDS
;	COMDAT xdata
xdata	SEGMENT
$stateUnwindMap$?flush@?$basic_ostream@DU?$char_traits@D@std@@@std@@QEAAAEAV12@XZ DD 0ffffffffH
	DD	imagerel ?dtor$0@?0??flush@?$basic_ostream@DU?$char_traits@D@std@@@std@@QEAAAEAV12@XZ@4HA
	DD	0ffffffffH
	DD	imagerel __std_terminate
	DD	01H
	DD	imagerel __std_terminate
xdata	ENDS
;	COMDAT CONST
CONST	SEGMENT
$cppxdata$?flush@?$basic_ostream@DU?$char_traits@D@std@@@std@@QEAAAEAV12@XZ DD 019930522H
	DD	03H
	DD	imagerel $stateUnwindMap$?flush@?$basic_ostream@DU?$char_traits@D@std@@@std@@QEAAAEAV12@XZ
	DD	00H
	DD	00H
	DD	05H
	DD	imagerel $ip2state$?flush@?$basic_ostream@DU?$char_traits@D@std@@@std@@QEAAAEAV12@XZ
	DD	020H
	DD	00H
	DD	01H
CONST	ENDS
;	COMDAT xdata
xdata	SEGMENT
$unwind$?flush@?$basic_ostream@DU?$char_traits@D@std@@@std@@QEAAAEAV12@XZ DD 020f11H
	DD	030027206H
	DD	imagerel __CxxFrameHandler3
	DD	imagerel $cppxdata$?flush@?$basic_ostream@DU?$char_traits@D@std@@@std@@QEAAAEAV12@XZ
xdata	ENDS
;	COMDAT xdata
xdata	SEGMENT
$unwind$?catch$228@?0??put@?$basic_ostream@DU?$char_traits@D@std@@@std@@QEAAAEAV12@D@Z@4HA DD 020a19H
	DD	05006320aH
	DD	imagerel __CxxFrameHandler3
	DD	imagerel $cppxdata$?put@?$basic_ostream@DU?$char_traits@D@std@@@std@@QEAAAEAV12@D@Z
xdata	ENDS
;	COMDAT xdata
xdata	SEGMENT
$ip2state$?put@?$basic_ostream@DU?$char_traits@D@std@@@std@@QEAAAEAV12@D@Z DD imagerel ?put@?$basic_ostream@DU?$char_traits@D@std@@@std@@QEAAAEAV12@D@Z
	DD	0ffffffffH
	DD	imagerel ?put@?$basic_ostream@DU?$char_traits@D@std@@@std@@QEAAAEAV12@D@Z+71
	DD	00H
	DD	imagerel ?put@?$basic_ostream@DU?$char_traits@D@std@@@std@@QEAAAEAV12@D@Z+124
	DD	01H
	DD	imagerel ?put@?$basic_ostream@DU?$char_traits@D@std@@@std@@QEAAAEAV12@D@Z+135
	DD	02H
	DD	imagerel ?put@?$basic_ostream@DU?$char_traits@D@std@@@std@@QEAAAEAV12@D@Z+214
	DD	01H
	DD	imagerel ?put@?$basic_ostream@DU?$char_traits@D@std@@@std@@QEAAAEAV12@D@Z+270
	DD	06H
	DD	imagerel ?put@?$basic_ostream@DU?$char_traits@D@std@@@std@@QEAAAEAV12@D@Z+288
	DD	07H
	DD	imagerel ?put@?$basic_ostream@DU?$char_traits@D@std@@@std@@QEAAAEAV12@D@Z+312
	DD	0ffffffffH
	DD	imagerel ?catch$228@?0??put@?$basic_ostream@DU?$char_traits@D@std@@@std@@QEAAAEAV12@D@Z@4HA
	DD	00H
	DD	imagerel ?catch$228@?0??put@?$basic_ostream@DU?$char_traits@D@std@@@std@@QEAAAEAV12@D@Z@4HA+13
	DD	03H
	DD	imagerel ?catch$228@?0??put@?$basic_ostream@DU?$char_traits@D@std@@@std@@QEAAAEAV12@D@Z@4HA+54
	DD	00H
	DD	imagerel ?catch$228@?0??put@?$basic_ostream@DU?$char_traits@D@std@@@std@@QEAAAEAV12@D@Z@4HA+63
	DD	03H
	DD	imagerel ?catch$228@?0??put@?$basic_ostream@DU?$char_traits@D@std@@@std@@QEAAAEAV12@D@Z@4HA+73
	DD	00H
xdata	ENDS
;	COMDAT xdata
xdata	SEGMENT
$handlerMap$0$?put@?$basic_ostream@DU?$char_traits@D@std@@@std@@QEAAAEAV12@D@Z DD 040H
	DD	00H
	DD	00H
	DD	imagerel ?catch$228@?0??put@?$basic_ostream@DU?$char_traits@D@std@@@std@@QEAAAEAV12@D@Z@4HA
	DD	038H
xdata	ENDS
;	COMDAT xdata
xdata	SEGMENT
$tryMap$?put@?$basic_ostream@DU?$char_traits@D@std@@@std@@QEAAAEAV12@D@Z DD 02H
	DD	02H
	DD	05H
	DD	01H
	DD	imagerel $handlerMap$0$?put@?$basic_ostream@DU?$char_traits@D@std@@@std@@QEAAAEAV12@D@Z
xdata	ENDS
;	COMDAT xdata
xdata	SEGMENT
$stateUnwindMap$?put@?$basic_ostream@DU?$char_traits@D@std@@@std@@QEAAAEAV12@D@Z DD 0ffffffffH
	DD	imagerel ?dtor$1@?0??put@?$basic_ostream@DU?$char_traits@D@std@@@std@@QEAAAEAV12@D@Z@4HA
	DD	0ffffffffH
	DD	imagerel ?dtor$0@?0??put@?$basic_ostream@DU?$char_traits@D@std@@@std@@QEAAAEAV12@D@Z@4HA
	DD	01H
	DD	00H
	DD	01H
	DD	00H
	DD	03H
	DD	00H
	DD	03H
	DD	00H
	DD	0ffffffffH
	DD	imagerel __std_terminate
	DD	06H
	DD	imagerel __std_terminate
xdata	ENDS
;	COMDAT CONST
CONST	SEGMENT
$cppxdata$?put@?$basic_ostream@DU?$char_traits@D@std@@@std@@QEAAAEAV12@D@Z DD 019930522H
	DD	08H
	DD	imagerel $stateUnwindMap$?put@?$basic_ostream@DU?$char_traits@D@std@@@std@@QEAAAEAV12@D@Z
	DD	01H
	DD	imagerel $tryMap$?put@?$basic_ostream@DU?$char_traits@D@std@@@std@@QEAAAEAV12@D@Z
	DD	0dH
	DD	imagerel $ip2state$?put@?$basic_ostream@DU?$char_traits@D@std@@@std@@QEAAAEAV12@D@Z
	DD	030H
	DD	00H
	DD	01H
CONST	ENDS
;	COMDAT xdata
xdata	SEGMENT
$unwind$?put@?$basic_ostream@DU?$char_traits@D@std@@@std@@QEAAAEAV12@D@Z DD 061919H
	DD	0f6419H
	DD	0e3414H
	DD	070029206H
	DD	imagerel __CxxFrameHandler3
	DD	imagerel $cppxdata$?put@?$basic_ostream@DU?$char_traits@D@std@@@std@@QEAAAEAV12@D@Z
xdata	ENDS
;	COMDAT xdata
xdata	SEGMENT
$ip2state$?widen@?$basic_ios@DU?$char_traits@D@std@@@std@@QEBADD@Z DD imagerel ?widen@?$basic_ios@DU?$char_traits@D@std@@@std@@QEBADD@Z
	DD	0ffffffffH
	DD	imagerel ?widen@?$basic_ios@DU?$char_traits@D@std@@@std@@QEBADD@Z+34
	DD	00H
	DD	imagerel ?widen@?$basic_ios@DU?$char_traits@D@std@@@std@@QEBADD@Z+45
	DD	01H
	DD	imagerel ?widen@?$basic_ios@DU?$char_traits@D@std@@@std@@QEBADD@Z+81
	DD	0ffffffffH
xdata	ENDS
;	COMDAT xdata
xdata	SEGMENT
$stateUnwindMap$?widen@?$basic_ios@DU?$char_traits@D@std@@@std@@QEBADD@Z DD 0ffffffffH
	DD	imagerel ?dtor$0@?0??widen@?$basic_ios@DU?$char_traits@D@std@@@std@@QEBADD@Z@4HA
	DD	0ffffffffH
	DD	imagerel __std_terminate
xdata	ENDS
;	COMDAT CONST
CONST	SEGMENT
$cppxdata$?widen@?$basic_ios@DU?$char_traits@D@std@@@std@@QEBADD@Z DD 019930522H
	DD	02H
	DD	imagerel $stateUnwindMap$?widen@?$basic_ios@DU?$char_traits@D@std@@@std@@QEBADD@Z
	DD	00H
	DD	00H
	DD	04H
	DD	imagerel $ip2state$?widen@?$basic_ios@DU?$char_traits@D@std@@@std@@QEBADD@Z
	DD	020H
	DD	00H
	DD	01H
CONST	ENDS
;	COMDAT xdata
xdata	SEGMENT
$unwind$?widen@?$basic_ios@DU?$char_traits@D@std@@@std@@QEBADD@Z DD 041411H
	DD	0a3414H
	DD	070027206H
	DD	imagerel __CxxFrameHandler3
	DD	imagerel $cppxdata$?widen@?$basic_ios@DU?$char_traits@D@std@@@std@@QEBADD@Z
xdata	ENDS
;	COMDAT xdata
xdata	SEGMENT
$ip2state$??1_Sentry_base@?$basic_ostream@DU?$char_traits@D@std@@@std@@QEAA@XZ DD imagerel ??1_Sentry_base@?$basic_ostream@DU?$char_traits@D@std@@@std@@QEAA@XZ
	DD	0ffffffffH
xdata	ENDS
;	COMDAT CONST
CONST	SEGMENT
$cppxdata$??1_Sentry_base@?$basic_ostream@DU?$char_traits@D@std@@@std@@QEAA@XZ DD 019930522H
	DD	00H
	DD	00H
	DD	00H
	DD	00H
	DD	01H
	DD	imagerel $ip2state$??1_Sentry_base@?$basic_ostream@DU?$char_traits@D@std@@@std@@QEAA@XZ
	DD	020H
	DD	00H
	DD	05H
CONST	ENDS
;	COMDAT xdata
xdata	SEGMENT
$unwind$??1_Sentry_base@?$basic_ostream@DU?$char_traits@D@std@@@std@@QEAA@XZ DD 010d19H
	DD	06204H
	DD	imagerel __CxxFrameHandler3
	DD	imagerel $cppxdata$??1_Sentry_base@?$basic_ostream@DU?$char_traits@D@std@@@std@@QEAA@XZ
xdata	ENDS
;	COMDAT xdata
xdata	SEGMENT
$unwind$??0_Sentry_base@?$basic_ostream@DU?$char_traits@D@std@@@std@@QEAA@AEAV12@@Z DD 020601H
	DD	030023206H
xdata	ENDS
;	COMDAT xdata
xdata	SEGMENT
$unwind$?catch$0@?0??_Osfx@?$basic_ostream@DU?$char_traits@D@std@@@std@@QEAAXXZ@4HA DD 020a19H
	DD	05006320aH
	DD	imagerel __CxxFrameHandler3
	DD	imagerel $cppxdata$?_Osfx@?$basic_ostream@DU?$char_traits@D@std@@@std@@QEAAXXZ
xdata	ENDS
;	COMDAT xdata
xdata	SEGMENT
$ip2state$?_Osfx@?$basic_ostream@DU?$char_traits@D@std@@@std@@QEAAXXZ DD imagerel ?_Osfx@?$basic_ostream@DU?$char_traits@D@std@@@std@@QEAAXXZ
	DD	0ffffffffH
	DD	imagerel ?_Osfx@?$basic_ostream@DU?$char_traits@D@std@@@std@@QEAAXXZ+18
	DD	00H
	DD	imagerel ?_Osfx@?$basic_ostream@DU?$char_traits@D@std@@@std@@QEAAXXZ+92
	DD	0ffffffffH
	DD	imagerel ?catch$0@?0??_Osfx@?$basic_ostream@DU?$char_traits@D@std@@@std@@QEAAXXZ@4HA
	DD	00H
xdata	ENDS
;	COMDAT xdata
xdata	SEGMENT
$handlerMap$0$?_Osfx@?$basic_ostream@DU?$char_traits@D@std@@@std@@QEAAXXZ DD 040H
	DD	00H
	DD	00H
	DD	imagerel ?catch$0@?0??_Osfx@?$basic_ostream@DU?$char_traits@D@std@@@std@@QEAAXXZ@4HA
	DD	038H
xdata	ENDS
;	COMDAT xdata
xdata	SEGMENT
$tryMap$?_Osfx@?$basic_ostream@DU?$char_traits@D@std@@@std@@QEAAXXZ DD 00H
	DD	00H
	DD	01H
	DD	01H
	DD	imagerel $handlerMap$0$?_Osfx@?$basic_ostream@DU?$char_traits@D@std@@@std@@QEAAXXZ
xdata	ENDS
;	COMDAT xdata
xdata	SEGMENT
$stateUnwindMap$?_Osfx@?$basic_ostream@DU?$char_traits@D@std@@@std@@QEAAXXZ DD 0ffffffffH
	DD	00H
	DD	0ffffffffH
	DD	00H
xdata	ENDS
;	COMDAT CONST
CONST	SEGMENT
$cppxdata$?_Osfx@?$basic_ostream@DU?$char_traits@D@std@@@std@@QEAAXXZ DD 019930522H
	DD	02H
	DD	imagerel $stateUnwindMap$?_Osfx@?$basic_ostream@DU?$char_traits@D@std@@@std@@QEAAXXZ
	DD	01H
	DD	imagerel $tryMap$?_Osfx@?$basic_ostream@DU?$char_traits@D@std@@@std@@QEAAXXZ
	DD	04H
	DD	imagerel $ip2state$?_Osfx@?$basic_ostream@DU?$char_traits@D@std@@@std@@QEAAXXZ
	DD	020H
	DD	00H
	DD	01H
CONST	ENDS
;	COMDAT xdata
xdata	SEGMENT
$unwind$?_Osfx@?$basic_ostream@DU?$char_traits@D@std@@@std@@QEAAXXZ DD 020f19H
	DD	030025206H
	DD	imagerel __CxxFrameHandler3
	DD	imagerel $cppxdata$?_Osfx@?$basic_ostream@DU?$char_traits@D@std@@@std@@QEAAXXZ
xdata	ENDS
; Function compile flags: /Ogtpy
; File c:\users\alist_000\cppmisc\packages\visualcpptools.14.0.24224-pre\lib\native\include\vcruntime_exception.h
;	COMDAT ??0exception@std@@QEAA@QEBD@Z
_TEXT	SEGMENT
_InitData$ = 32
this$ = 64
_Message$ = 72
??0exception@std@@QEAA@QEBD@Z PROC			; std::exception::exception, COMDAT

; 53   :     {

$LN4:
  00000	40 53		 push	 rbx
  00002	48 83 ec 30	 sub	 rsp, 48			; 00000030H
  00006	48 8b d9	 mov	 rbx, rcx

; 54   :         __std_exception_data _InitData = { _Message, true };

  00009	c6 44 24 28 01	 mov	 BYTE PTR _InitData$[rsp+8], 1
  0000e	48 8b c2	 mov	 rax, rdx
  00011	48 8d 0d 00 00
	00 00		 lea	 rcx, OFFSET FLAT:??_7exception@std@@6B@
  00018	48 8d 53 08	 lea	 rdx, QWORD PTR [rbx+8]
  0001c	48 89 44 24 20	 mov	 QWORD PTR _InitData$[rsp], rax
  00021	48 89 0b	 mov	 QWORD PTR [rbx], rcx
  00024	33 c9		 xor	 ecx, ecx
  00026	48 89 0a	 mov	 QWORD PTR [rdx], rcx
  00029	48 89 4a 08	 mov	 QWORD PTR [rdx+8], rcx

; 55   :         __std_exception_copy(&_InitData, &_Data);

  0002d	48 8d 4c 24 20	 lea	 rcx, QWORD PTR _InitData$[rsp]
  00032	e8 00 00 00 00	 call	 __std_exception_copy

; 56   :     }

  00037	48 8b c3	 mov	 rax, rbx
  0003a	48 83 c4 30	 add	 rsp, 48			; 00000030H
  0003e	5b		 pop	 rbx
  0003f	c3		 ret	 0
??0exception@std@@QEAA@QEBD@Z ENDP			; std::exception::exception
_TEXT	ENDS
; Function compile flags: /Ogtpy
; File c:\users\alist_000\cppmisc\packages\visualcpptools.14.0.24224-pre\lib\native\include\vcruntime_exception.h
;	COMDAT ??0exception@std@@QEAA@QEBDH@Z
_TEXT	SEGMENT
this$ = 8
_Message$ = 16
__formal$ = 24
??0exception@std@@QEAA@QEBDH@Z PROC			; std::exception::exception, COMDAT

; 60   :     {

  00000	48 8d 05 00 00
	00 00		 lea	 rax, OFFSET FLAT:??_7exception@std@@6B@
  00007	48 89 01	 mov	 QWORD PTR [rcx], rax
  0000a	33 c0		 xor	 eax, eax
  0000c	48 89 41 10	 mov	 QWORD PTR [rcx+16], rax

; 61   :         _Data._What = _Message;
; 62   :     }

  00010	48 8b c1	 mov	 rax, rcx
  00013	48 89 51 08	 mov	 QWORD PTR [rcx+8], rdx
  00017	c3		 ret	 0
??0exception@std@@QEAA@QEBDH@Z ENDP			; std::exception::exception
_TEXT	ENDS
; Function compile flags: /Ogtpy
; File c:\users\alist_000\cppmisc\packages\visualcpptools.14.0.24224-pre\lib\native\include\vcruntime_exception.h
;	COMDAT ??0exception@std@@QEAA@AEBV01@@Z
_TEXT	SEGMENT
this$ = 48
_Other$ = 56
??0exception@std@@QEAA@AEBV01@@Z PROC			; std::exception::exception, COMDAT

; 66   :     {

$LN4:
  00000	40 53		 push	 rbx
  00002	48 83 ec 20	 sub	 rsp, 32			; 00000020H
  00006	48 8b d9	 mov	 rbx, rcx
  00009	48 8b c2	 mov	 rax, rdx
  0000c	48 8d 53 08	 lea	 rdx, QWORD PTR [rbx+8]
  00010	48 8d 0d 00 00
	00 00		 lea	 rcx, OFFSET FLAT:??_7exception@std@@6B@
  00017	48 89 0b	 mov	 QWORD PTR [rbx], rcx
  0001a	33 c9		 xor	 ecx, ecx
  0001c	48 89 0a	 mov	 QWORD PTR [rdx], rcx
  0001f	48 89 4a 08	 mov	 QWORD PTR [rdx+8], rcx

; 67   :         __std_exception_copy(&_Other._Data, &_Data);

  00023	48 8d 48 08	 lea	 rcx, QWORD PTR [rax+8]
  00027	e8 00 00 00 00	 call	 __std_exception_copy

; 68   :     }

  0002c	48 8b c3	 mov	 rax, rbx
  0002f	48 83 c4 20	 add	 rsp, 32			; 00000020H
  00033	5b		 pop	 rbx
  00034	c3		 ret	 0
??0exception@std@@QEAA@AEBV01@@Z ENDP			; std::exception::exception
_TEXT	ENDS
; Function compile flags: /Ogtpy
; File c:\users\alist_000\cppmisc\packages\visualcpptools.14.0.24224-pre\lib\native\include\vcruntime_exception.h
;	COMDAT ??1exception@std@@UEAA@XZ
_TEXT	SEGMENT
this$ = 8
??1exception@std@@UEAA@XZ PROC				; std::exception::~exception, COMDAT

; 83   :     {

  00000	48 8d 05 00 00
	00 00		 lea	 rax, OFFSET FLAT:??_7exception@std@@6B@
  00007	48 89 01	 mov	 QWORD PTR [rcx], rax

; 84   :         __std_exception_destroy(&_Data);

  0000a	48 83 c1 08	 add	 rcx, 8
  0000e	e9 00 00 00 00	 jmp	 __std_exception_destroy
??1exception@std@@UEAA@XZ ENDP				; std::exception::~exception
_TEXT	ENDS
; Function compile flags: /Ogtpy
; File c:\users\alist_000\cppmisc\packages\visualcpptools.14.0.24224-pre\lib\native\include\vcruntime_exception.h
;	COMDAT ?what@exception@std@@UEBAPEBDXZ
_TEXT	SEGMENT
this$ = 8
?what@exception@std@@UEBAPEBDXZ PROC			; std::exception::what, COMDAT

; 89   :         return _Data._What ? _Data._What : "Unknown exception";

  00000	48 8b 51 08	 mov	 rdx, QWORD PTR [rcx+8]
  00004	48 8d 05 00 00
	00 00		 lea	 rax, OFFSET FLAT:??_C@_0BC@EOODALEL@Unknown?5exception?$AA@
  0000b	48 85 d2	 test	 rdx, rdx
  0000e	48 0f 45 c2	 cmovne	 rax, rdx

; 90   :     }

  00012	c3		 ret	 0
?what@exception@std@@UEBAPEBDXZ ENDP			; std::exception::what
_TEXT	ENDS
; Function compile flags: /Ogtpy
; File c:\users\alist_000\cppmisc\packages\visualcpptools.14.0.24224-pre\lib\native\include\vcruntime_exception.h
;	COMDAT ??_Gexception@std@@UEAAPEAXI@Z
_TEXT	SEGMENT
this$ = 48
__flags$ = 56
??_Gexception@std@@UEAAPEAXI@Z PROC			; std::exception::`scalar deleting destructor', COMDAT
$LN8:
  00000	48 89 5c 24 08	 mov	 QWORD PTR [rsp+8], rbx
  00005	57		 push	 rdi
  00006	48 83 ec 20	 sub	 rsp, 32			; 00000020H

; 83   :     {

  0000a	48 8d 05 00 00
	00 00		 lea	 rax, OFFSET FLAT:??_7exception@std@@6B@
  00011	48 8b f9	 mov	 rdi, rcx
  00014	48 89 01	 mov	 QWORD PTR [rcx], rax
  00017	8b da		 mov	 ebx, edx

; 84   :         __std_exception_destroy(&_Data);

  00019	48 83 c1 08	 add	 rcx, 8
  0001d	e8 00 00 00 00	 call	 __std_exception_destroy
  00022	f6 c3 01	 test	 bl, 1
  00025	74 0d		 je	 SHORT $LN6@scalar
  00027	ba 18 00 00 00	 mov	 edx, 24
  0002c	48 8b cf	 mov	 rcx, rdi
  0002f	e8 00 00 00 00	 call	 ??3@YAXPEAX_K@Z		; operator delete
$LN6@scalar:
  00034	48 8b c7	 mov	 rax, rdi
  00037	48 8b 5c 24 30	 mov	 rbx, QWORD PTR [rsp+48]
  0003c	48 83 c4 20	 add	 rsp, 32			; 00000020H
  00040	5f		 pop	 rdi
  00041	c3		 ret	 0
??_Gexception@std@@UEAAPEAXI@Z ENDP			; std::exception::`scalar deleting destructor'
_TEXT	ENDS
; Function compile flags: /Ogtpy
; File c:\users\alist_000\cppmisc\packages\visualcpptools.14.0.24224-pre\lib\native\include\vcruntime_new.h
;	COMDAT ??2@YAPEAX_KPEAX@Z
_TEXT	SEGMENT
_Size$ = 8
_Where$ = 16
??2@YAPEAX_KPEAX@Z PROC					; operator new, COMDAT

; 88   :         (void)_Size;
; 89   :         return _Where;

  00000	48 8b c2	 mov	 rax, rdx

; 90   :     }

  00003	c3		 ret	 0
??2@YAPEAX_KPEAX@Z ENDP					; operator new
_TEXT	ENDS
; Function compile flags: /Ogtpy
; File c:\users\alist_000\cppmisc\packages\visualcpptools.14.0.24224-pre\lib\native\include\iosfwd
;	COMDAT ?length@?$char_traits@D@std@@SA_KPEBD@Z
_TEXT	SEGMENT
_First$ = 8
?length@?$char_traits@D@std@@SA_KPEBD@Z PROC		; std::char_traits<char>::length, COMDAT

; 523  : 		return (*_First == 0 ? 0

  00000	80 39 00	 cmp	 BYTE PTR [rcx], 0
  00003	75 03		 jne	 SHORT $LN3@length
  00005	33 c0		 xor	 eax, eax

; 524  : 			: _CSTD strlen(_First));
; 525  : 		}

  00007	c3		 ret	 0
$LN3@length:

; 523  : 		return (*_First == 0 ? 0

  00008	48 83 c8 ff	 or	 rax, -1
  0000c	0f 1f 40 00	 npad	 4
$LL5@length:
  00010	48 ff c0	 inc	 rax
  00013	80 3c 01 00	 cmp	 BYTE PTR [rcx+rax], 0
  00017	75 f7		 jne	 SHORT $LL5@length

; 524  : 			: _CSTD strlen(_First));
; 525  : 		}

  00019	c3		 ret	 0
?length@?$char_traits@D@std@@SA_KPEBD@Z ENDP		; std::char_traits<char>::length
_TEXT	ENDS
; Function compile flags: /Ogtpy
; File c:\users\alist_000\cppmisc\packages\visualcpptools.14.0.24224-pre\lib\native\include\iosfwd
;	COMDAT ?copy@?$char_traits@D@std@@SAPEADPEADPEBD_K@Z
_TEXT	SEGMENT
_First1$ = 48
_First2$ = 56
_Count$ = 64
?copy@?$char_traits@D@std@@SAPEADPEADPEBD_K@Z PROC	; std::char_traits<char>::copy, COMDAT

; 529  : 		{	// copy [_First2, _First2 + _Count) to [_First1, ...)

$LN7:
  00000	40 53		 push	 rbx
  00002	48 83 ec 20	 sub	 rsp, 32			; 00000020H
  00006	48 8b d9	 mov	 rbx, rcx

; 530  : 		return (_Count == 0 ? _First1

  00009	4d 85 c0	 test	 r8, r8
  0000c	74 05		 je	 SHORT $LN5@copy
  0000e	e8 00 00 00 00	 call	 memcpy
$LN5@copy:
  00013	48 8b c3	 mov	 rax, rbx

; 531  : 			: (_Elem *)_CSTD memcpy(_First1, _First2, _Count));
; 532  : 		}

  00016	48 83 c4 20	 add	 rsp, 32			; 00000020H
  0001a	5b		 pop	 rbx
  0001b	c3		 ret	 0
?copy@?$char_traits@D@std@@SAPEADPEADPEBD_K@Z ENDP	; std::char_traits<char>::copy
_TEXT	ENDS
; Function compile flags: /Ogtpy
; File c:\users\alist_000\cppmisc\packages\visualcpptools.14.0.24224-pre\lib\native\include\iosfwd
;	COMDAT ?move@?$char_traits@D@std@@SAPEADPEADPEBD_K@Z
_TEXT	SEGMENT
_First1$ = 8
_First2$ = 16
_Count$ = 24
?move@?$char_traits@D@std@@SAPEADPEADPEBD_K@Z PROC	; std::char_traits<char>::move, COMDAT

; 553  : 		return (_Count == 0 ? _First1

  00000	4d 85 c0	 test	 r8, r8
  00003	75 04		 jne	 SHORT $LN3@move
  00005	48 8b c1	 mov	 rax, rcx

; 554  : 			: (_Elem *)_CSTD memmove(_First1, _First2, _Count));
; 555  : 		}

  00008	c3		 ret	 0
$LN3@move:

; 553  : 		return (_Count == 0 ? _First1

  00009	e9 00 00 00 00	 jmp	 memmove
?move@?$char_traits@D@std@@SAPEADPEADPEBD_K@Z ENDP	; std::char_traits<char>::move
_TEXT	ENDS
; Function compile flags: /Ogtpy
; File c:\users\alist_000\cppmisc\packages\visualcpptools.14.0.24224-pre\lib\native\include\iosfwd
;	COMDAT ?assign@?$char_traits@D@std@@SAXAEADAEBD@Z
_TEXT	SEGMENT
_Left$ = 8
_Right$ = 16
?assign@?$char_traits@D@std@@SAXAEADAEBD@Z PROC		; std::char_traits<char>::assign, COMDAT

; 565  : 		_Left = _Right;

  00000	0f b6 02	 movzx	 eax, BYTE PTR [rdx]
  00003	88 01		 mov	 BYTE PTR [rcx], al

; 566  : 		}

  00005	c3		 ret	 0
?assign@?$char_traits@D@std@@SAXAEADAEBD@Z ENDP		; std::char_traits<char>::assign
_TEXT	ENDS
; Function compile flags: /Ogtpy
; File c:\users\alist_000\cppmisc\packages\visualcpptools.14.0.24224-pre\lib\native\include\iosfwd
;	COMDAT ?to_int_type@?$char_traits@D@std@@SAHAEBD@Z
_TEXT	SEGMENT
_Ch$ = 8
?to_int_type@?$char_traits@D@std@@SAHAEBD@Z PROC	; std::char_traits<char>::to_int_type, COMDAT

; 589  : 		return ((unsigned char)_Ch);

  00000	0f b6 01	 movzx	 eax, BYTE PTR [rcx]

; 590  : 		}

  00003	c3		 ret	 0
?to_int_type@?$char_traits@D@std@@SAHAEBD@Z ENDP	; std::char_traits<char>::to_int_type
_TEXT	ENDS
; Function compile flags: /Ogtpy
; File c:\users\alist_000\cppmisc\packages\visualcpptools.14.0.24224-pre\lib\native\include\iosfwd
;	COMDAT ?eq_int_type@?$char_traits@D@std@@SA_NAEBH0@Z
_TEXT	SEGMENT
_Left$ = 8
_Right$ = 16
?eq_int_type@?$char_traits@D@std@@SA_NAEBH0@Z PROC	; std::char_traits<char>::eq_int_type, COMDAT

; 594  : 		{	// test for metacharacter equality

  00000	8b 02		 mov	 eax, DWORD PTR [rdx]
  00002	39 01		 cmp	 DWORD PTR [rcx], eax
  00004	0f 94 c0	 sete	 al

; 595  : 		return (_Left == _Right);
; 596  : 		}

  00007	c3		 ret	 0
?eq_int_type@?$char_traits@D@std@@SA_NAEBH0@Z ENDP	; std::char_traits<char>::eq_int_type
_TEXT	ENDS
; Function compile flags: /Ogtpy
; File c:\users\alist_000\cppmisc\packages\visualcpptools.14.0.24224-pre\lib\native\include\iosfwd
;	COMDAT ?eof@?$char_traits@D@std@@SAHXZ
_TEXT	SEGMENT
?eof@?$char_traits@D@std@@SAHXZ PROC			; std::char_traits<char>::eof, COMDAT

; 606  : 		return (EOF);

  00000	83 c8 ff	 or	 eax, -1

; 607  : 		}

  00003	c3		 ret	 0
?eof@?$char_traits@D@std@@SAHXZ ENDP			; std::char_traits<char>::eof
_TEXT	ENDS
; Function compile flags: /Ogtpy
; File c:\users\alist_000\cppmisc\packages\visualcpptools.14.0.24224-pre\lib\native\include\xmemory0
;	COMDAT ?_Allocate@std@@YAPEAX_K0_N@Z
_TEXT	SEGMENT
_Count$ = 48
_Sz$ = 56
_Try_aligned_allocation$ = 64
?_Allocate@std@@YAPEAX_K0_N@Z PROC			; std::_Allocate, COMDAT

; 48   : 	{	// allocate storage for _Count elements of size _Sz

$LN14:
  00000	48 83 ec 28	 sub	 rsp, 40			; 00000028H
  00004	4c 8b ca	 mov	 r9, rdx

; 49   : 	void *_Ptr = 0;
; 50   : 
; 51   : 	if (_Count == 0)

  00007	48 85 c9	 test	 rcx, rcx
  0000a	75 07		 jne	 SHORT $LN2@Allocate

; 52   : 		return (_Ptr);

  0000c	33 c0		 xor	 eax, eax

; 87   : 	}

  0000e	48 83 c4 28	 add	 rsp, 40			; 00000028H
  00012	c3		 ret	 0
$LN2@Allocate:

; 53   : 
; 54   : 	// check overflow of multiply
; 55   : 	if ((size_t)(-1) / _Sz < _Count)

  00013	33 d2		 xor	 edx, edx
  00015	48 83 c8 ff	 or	 rax, -1
  00019	49 f7 f1	 div	 r9
  0001c	48 3b c1	 cmp	 rax, rcx
  0001f	72 44		 jb	 SHORT $LN11@Allocate

; 57   : 	const size_t _User_size = _Count * _Sz;

  00021	49 0f af c9	 imul	 rcx, r9

; 58   : 
; 59   :  #if defined(_M_IX86) || defined(_M_X64)
; 60   : 	if (_Try_aligned_allocation
; 61   : 		&& _BIG_ALLOCATION_THRESHOLD <= _User_size)

  00025	45 84 c0	 test	 r8b, r8b
  00028	74 2e		 je	 SHORT $LN4@Allocate
  0002a	48 81 f9 00 10
	00 00		 cmp	 rcx, 4096		; 00001000H
  00031	72 25		 jb	 SHORT $LN4@Allocate

; 62   : 		{	// allocate large block
; 63   : 		static_assert(sizeof (void *) < _BIG_ALLOCATION_ALIGNMENT,
; 64   : 			"Big allocations should at least match vector register size");
; 65   : 		const size_t _Block_size = _NON_USER_SIZE + _User_size;

  00033	48 8d 41 27	 lea	 rax, QWORD PTR [rcx+39]

; 66   : 		if (_Block_size <= _User_size)

  00037	48 3b c1	 cmp	 rax, rcx
  0003a	76 2f		 jbe	 SHORT $LN13@Allocate

; 68   : 		const uintptr_t _Ptr_container =
; 69   : 			reinterpret_cast<uintptr_t>(::operator new(_Block_size));

  0003c	48 8b c8	 mov	 rcx, rax
  0003f	e8 00 00 00 00	 call	 ??2@YAPEAX_K@Z		; operator new

; 70   : 		_SCL_SECURE_ALWAYS_VALIDATE(_Ptr_container != 0);
; 71   : 		_Ptr = reinterpret_cast<void *>((_Ptr_container + _NON_USER_SIZE)

  00044	48 8d 48 27	 lea	 rcx, QWORD PTR [rax+39]
  00048	48 83 e1 e0	 and	 rcx, -32		; ffffffffffffffe0H

; 72   : 			& ~(_BIG_ALLOCATION_ALIGNMENT - 1));
; 73   : 		static_cast<uintptr_t *>(_Ptr)[-1] = _Ptr_container;

  0004c	48 89 41 f8	 mov	 QWORD PTR [rcx-8], rax

; 84   : 		_SCL_SECURE_ALWAYS_VALIDATE(_Ptr != 0);
; 85   : 		}
; 86   : 	return (_Ptr);

  00050	48 8b c1	 mov	 rax, rcx

; 87   : 	}

  00053	48 83 c4 28	 add	 rsp, 40			; 00000028H
  00057	c3		 ret	 0
$LN4@Allocate:

; 74   : 
; 75   :  #ifdef _DEBUG
; 76   : 		static_cast<uintptr_t *>(_Ptr)[-2] = _BIG_ALLOCATION_SENTINEL;
; 77   :  #endif /* _DEBUG */
; 78   : 		}
; 79   : 	else
; 80   :  #endif /* defined(_M_IX86) || defined(_M_X64) */
; 81   : 
; 82   : 		{	// allocate normal block
; 83   : 		_Ptr = ::operator new(_User_size);

  00058	e8 00 00 00 00	 call	 ??2@YAPEAX_K@Z		; operator new
  0005d	48 8b c8	 mov	 rcx, rax

; 87   : 	}

  00060	48 83 c4 28	 add	 rsp, 40			; 00000028H
  00064	c3		 ret	 0
$LN11@Allocate:

; 56   : 		_Xbad_alloc();	// report no memory

  00065	e8 00 00 00 00	 call	 ?_Xbad_alloc@std@@YAXXZ	; std::_Xbad_alloc
  0006a	cc		 int	 3
$LN13@Allocate:

; 67   : 			_Xbad_alloc();	// report no memory

  0006b	e8 00 00 00 00	 call	 ?_Xbad_alloc@std@@YAXXZ	; std::_Xbad_alloc
  00070	cc		 int	 3
$LN10@Allocate:
?_Allocate@std@@YAPEAX_K0_N@Z ENDP			; std::_Allocate
_TEXT	ENDS
; Function compile flags: /Ogtpy
; File c:\users\alist_000\cppmisc\packages\visualcpptools.14.0.24224-pre\lib\native\include\xmemory0
;	COMDAT ?_Deallocate@std@@YAXPEAX_K1@Z
_TEXT	SEGMENT
_Ptr$ = 48
_Count$ = 56
_Sz$ = 64
?_Deallocate@std@@YAXPEAX_K1@Z PROC			; std::_Deallocate, COMDAT

; 92   : 	{	// deallocate storage for _Count elements of size _Sz

$LN16:
  00000	48 83 ec 28	 sub	 rsp, 40			; 00000028H
  00004	4c 8b ca	 mov	 r9, rdx

; 93   :  #if defined(_M_IX86) || defined(_M_X64)
; 94   : 	_SCL_SECURE_ALWAYS_VALIDATE(_Count <= (size_t)(-1) / _Sz);

  00007	48 83 c8 ff	 or	 rax, -1
  0000b	33 d2		 xor	 edx, edx
  0000d	49 f7 f0	 div	 r8
  00010	4c 3b c8	 cmp	 r9, rax
  00013	77 36		 ja	 SHORT $LN10@Deallocate

; 95   : 	const size_t _User_size = _Count * _Sz;

  00015	4d 0f af c8	 imul	 r9, r8

; 96   : 	if (_BIG_ALLOCATION_THRESHOLD <= _User_size)

  00019	49 81 f9 00 10
	00 00		 cmp	 r9, 4096		; 00001000H
  00020	72 20		 jb	 SHORT $LN3@Deallocate

; 97   : 		{	// deallocate large block
; 98   : 		const uintptr_t _Ptr_user = reinterpret_cast<uintptr_t>(_Ptr);
; 99   : 		_SCL_SECURE_ALWAYS_VALIDATE(

  00022	f6 c1 1f	 test	 cl, 31
  00025	75 2a		 jne	 SHORT $LN12@Deallocate

; 100  : 			(_Ptr_user & (_BIG_ALLOCATION_ALIGNMENT - 1)) == 0);
; 101  : 		const uintptr_t _Ptr_ptr = _Ptr_user - sizeof(void *);
; 102  : 		const uintptr_t _Ptr_container =
; 103  : 			*reinterpret_cast<uintptr_t *>(_Ptr_ptr);

  00027	48 8b 41 f8	 mov	 rax, QWORD PTR [rcx-8]

; 104  : 
; 105  :  #ifdef _DEBUG
; 106  : 		// If the following asserts, it likely means that we are performing
; 107  : 		// an aligned delete on memory coming from an unaligned allocation.
; 108  : 		_SCL_SECURE_ALWAYS_VALIDATE(
; 109  : 			reinterpret_cast<uintptr_t *>(_Ptr_ptr)[-1] ==
; 110  : 				_BIG_ALLOCATION_SENTINEL);
; 111  :  #endif /* _DEBUG */
; 112  : 
; 113  : 		// Extra paranoia on aligned allocation/deallocation
; 114  : 		_SCL_SECURE_ALWAYS_VALIDATE(_Ptr_container < _Ptr_user);

  0002b	48 3b c1	 cmp	 rax, rcx
  0002e	73 27		 jae	 SHORT $LN13@Deallocate

; 115  : 
; 116  :  #ifdef _DEBUG
; 117  : 		_SCL_SECURE_ALWAYS_VALIDATE(2 * sizeof(void *)
; 118  : 			<= _Ptr_user - _Ptr_container);
; 119  : 
; 120  :  #else /* _DEBUG */
; 121  : 		_SCL_SECURE_ALWAYS_VALIDATE(sizeof(void *)

  00030	48 2b c8	 sub	 rcx, rax
  00033	48 83 f9 08	 cmp	 rcx, 8
  00037	72 24		 jb	 SHORT $LN14@Deallocate

; 122  : 			<= _Ptr_user - _Ptr_container);
; 123  :  #endif /* _DEBUG */
; 124  : 
; 125  : 		_SCL_SECURE_ALWAYS_VALIDATE(_Ptr_user - _Ptr_container

  00039	48 83 f9 27	 cmp	 rcx, 39			; 00000027H
  0003d	77 24		 ja	 SHORT $LN15@Deallocate

; 126  : 			<= _NON_USER_SIZE);
; 127  : 
; 128  : 		_Ptr = reinterpret_cast<void *>(_Ptr_container);

  0003f	48 8b c8	 mov	 rcx, rax
$LN3@Deallocate:

; 133  : 	}

  00042	48 83 c4 28	 add	 rsp, 40			; 00000028H

; 129  : 		}
; 130  :  #endif /* defined(_M_IX86) || defined(_M_X64) */
; 131  : 
; 132  : 	::operator delete(_Ptr);

  00046	e9 00 00 00 00	 jmp	 ??3@YAXPEAX@Z		; operator delete
$LN10@Deallocate:

; 93   :  #if defined(_M_IX86) || defined(_M_X64)
; 94   : 	_SCL_SECURE_ALWAYS_VALIDATE(_Count <= (size_t)(-1) / _Sz);

  0004b	e8 00 00 00 00	 call	 _invalid_parameter_noinfo_noreturn
  00050	cc		 int	 3
$LN12@Deallocate:

; 97   : 		{	// deallocate large block
; 98   : 		const uintptr_t _Ptr_user = reinterpret_cast<uintptr_t>(_Ptr);
; 99   : 		_SCL_SECURE_ALWAYS_VALIDATE(

  00051	e8 00 00 00 00	 call	 _invalid_parameter_noinfo_noreturn
  00056	cc		 int	 3
$LN13@Deallocate:

; 104  : 
; 105  :  #ifdef _DEBUG
; 106  : 		// If the following asserts, it likely means that we are performing
; 107  : 		// an aligned delete on memory coming from an unaligned allocation.
; 108  : 		_SCL_SECURE_ALWAYS_VALIDATE(
; 109  : 			reinterpret_cast<uintptr_t *>(_Ptr_ptr)[-1] ==
; 110  : 				_BIG_ALLOCATION_SENTINEL);
; 111  :  #endif /* _DEBUG */
; 112  : 
; 113  : 		// Extra paranoia on aligned allocation/deallocation
; 114  : 		_SCL_SECURE_ALWAYS_VALIDATE(_Ptr_container < _Ptr_user);

  00057	e8 00 00 00 00	 call	 _invalid_parameter_noinfo_noreturn
  0005c	cc		 int	 3
$LN14@Deallocate:

; 115  : 
; 116  :  #ifdef _DEBUG
; 117  : 		_SCL_SECURE_ALWAYS_VALIDATE(2 * sizeof(void *)
; 118  : 			<= _Ptr_user - _Ptr_container);
; 119  : 
; 120  :  #else /* _DEBUG */
; 121  : 		_SCL_SECURE_ALWAYS_VALIDATE(sizeof(void *)

  0005d	e8 00 00 00 00	 call	 _invalid_parameter_noinfo_noreturn
  00062	cc		 int	 3
$LN15@Deallocate:

; 122  : 			<= _Ptr_user - _Ptr_container);
; 123  :  #endif /* _DEBUG */
; 124  : 
; 125  : 		_SCL_SECURE_ALWAYS_VALIDATE(_Ptr_user - _Ptr_container

  00063	e8 00 00 00 00	 call	 _invalid_parameter_noinfo_noreturn
  00068	cc		 int	 3
$LN9@Deallocate:
?_Deallocate@std@@YAXPEAX_K1@Z ENDP			; std::_Deallocate
_TEXT	ENDS
; Function compile flags: /Ogtpy
; File c:\users\alist_000\cppmisc\packages\visualcpptools.14.0.24224-pre\lib\native\include\xatomic0.h
;	COMDAT ?_Init_atomic_counter@std@@YAXAEAKK@Z
_TEXT	SEGMENT
_Counter$ = 8
_Value$ = 16
?_Init_atomic_counter@std@@YAXAEAKK@Z PROC		; std::_Init_atomic_counter, COMDAT

; 63   : 	_Counter = _Value;

  00000	89 11		 mov	 DWORD PTR [rcx], edx

; 64   : 	}

  00002	c3		 ret	 0
?_Init_atomic_counter@std@@YAXAEAKK@Z ENDP		; std::_Init_atomic_counter
_TEXT	ENDS
; Function compile flags: /Ogtpy
; File c:\users\alist_000\cppmisc\packages\visualcpptools.14.0.24224-pre\lib\native\include\stdexcept
; File c:\users\alist_000\cppmisc\packages\visualcpptools.14.0.24224-pre\lib\native\include\xstring
; File c:\users\alist_000\cppmisc\packages\visualcpptools.14.0.24224-pre\lib\native\include\stdexcept
; File c:\users\alist_000\cppmisc\packages\visualcpptools.14.0.24224-pre\lib\native\include\xstring
; File c:\users\alist_000\cppmisc\packages\visualcpptools.14.0.24224-pre\lib\native\include\xstddef
; File c:\users\alist_000\cppmisc\packages\visualcpptools.14.0.24224-pre\lib\native\include\vcruntime_exception.h
; File c:\users\alist_000\cppmisc\packages\visualcpptools.14.0.24224-pre\lib\native\include\stdexcept
;	COMDAT ??0runtime_error@std@@QEAA@AEBV?$basic_string@DU?$char_traits@D@std@@V?$allocator@D@2@@1@@Z
_TEXT	SEGMENT
_InitData$1 = 32
this$ = 64
_Message$ = 72
??0runtime_error@std@@QEAA@AEBV?$basic_string@DU?$char_traits@D@std@@V?$allocator@D@2@@1@@Z PROC ; std::runtime_error::runtime_error, COMDAT

; 163  : 		{	// construct from message string

$LN23:
  00000	40 53		 push	 rbx
  00002	48 83 ec 30	 sub	 rsp, 48			; 00000030H
; File c:\users\alist_000\cppmisc\packages\visualcpptools.14.0.24224-pre\lib\native\include\xstring

; 516  : 		return (this->_BUF_SIZE <= _Myres

  00006	48 83 7a 18 10	 cmp	 QWORD PTR [rdx+24], 16
; File c:\users\alist_000\cppmisc\packages\visualcpptools.14.0.24224-pre\lib\native\include\stdexcept

; 163  : 		{	// construct from message string

  0000b	48 8b c2	 mov	 rax, rdx
  0000e	48 8b d9	 mov	 rbx, rcx
; File c:\users\alist_000\cppmisc\packages\visualcpptools.14.0.24224-pre\lib\native\include\xstring

; 516  : 		return (this->_BUF_SIZE <= _Myres

  00011	72 03		 jb	 SHORT $LN16@runtime_er
; File c:\users\alist_000\cppmisc\packages\visualcpptools.14.0.24224-pre\lib\native\include\xstddef

; 740  : 	return (_Ptr);

  00013	48 8b 02	 mov	 rax, QWORD PTR [rdx]
$LN16@runtime_er:
; File c:\users\alist_000\cppmisc\packages\visualcpptools.14.0.24224-pre\lib\native\include\vcruntime_exception.h

; 52   :         : _Data()

  00016	48 8d 53 08	 lea	 rdx, QWORD PTR [rbx+8]

; 53   :     {
; 54   :         __std_exception_data _InitData = { _Message, true };

  0001a	48 89 44 24 20	 mov	 QWORD PTR _InitData$1[rsp], rax
  0001f	48 8d 0d 00 00
	00 00		 lea	 rcx, OFFSET FLAT:??_7exception@std@@6B@
  00026	c6 44 24 28 01	 mov	 BYTE PTR _InitData$1[rsp+8], 1
  0002b	48 89 0b	 mov	 QWORD PTR [rbx], rcx
  0002e	33 c9		 xor	 ecx, ecx
  00030	48 89 0a	 mov	 QWORD PTR [rdx], rcx
  00033	48 89 4a 08	 mov	 QWORD PTR [rdx+8], rcx

; 55   :         __std_exception_copy(&_InitData, &_Data);

  00037	48 8d 4c 24 20	 lea	 rcx, QWORD PTR _InitData$1[rsp]
  0003c	e8 00 00 00 00	 call	 __std_exception_copy
; File c:\users\alist_000\cppmisc\packages\visualcpptools.14.0.24224-pre\lib\native\include\stdexcept

; 163  : 		{	// construct from message string

  00041	48 8d 05 00 00
	00 00		 lea	 rax, OFFSET FLAT:??_7runtime_error@std@@6B@
  00048	48 89 03	 mov	 QWORD PTR [rbx], rax

; 164  : 		}

  0004b	48 8b c3	 mov	 rax, rbx
  0004e	48 83 c4 30	 add	 rsp, 48			; 00000030H
  00052	5b		 pop	 rbx
  00053	c3		 ret	 0
??0runtime_error@std@@QEAA@AEBV?$basic_string@DU?$char_traits@D@std@@V?$allocator@D@2@@1@@Z ENDP ; std::runtime_error::runtime_error
_TEXT	ENDS
; Function compile flags: /Ogtpy
; File c:\users\alist_000\cppmisc\packages\visualcpptools.14.0.24224-pre\lib\native\include\stdexcept
; File c:\users\alist_000\cppmisc\packages\visualcpptools.14.0.24224-pre\lib\native\include\vcruntime_exception.h
; File c:\users\alist_000\cppmisc\packages\visualcpptools.14.0.24224-pre\lib\native\include\stdexcept
; File c:\users\alist_000\cppmisc\packages\visualcpptools.14.0.24224-pre\lib\native\include\vcruntime_exception.h
; File c:\users\alist_000\cppmisc\packages\visualcpptools.14.0.24224-pre\lib\native\include\stdexcept
;	COMDAT ??0runtime_error@std@@QEAA@PEBD@Z
_TEXT	SEGMENT
_InitData$1 = 32
this$ = 64
_Message$ = 72
??0runtime_error@std@@QEAA@PEBD@Z PROC			; std::runtime_error::runtime_error, COMDAT

; 168  : 		{	// construct from message string

$LN6:
  00000	40 53		 push	 rbx
  00002	48 83 ec 30	 sub	 rsp, 48			; 00000030H
  00006	48 8b d9	 mov	 rbx, rcx
; File c:\users\alist_000\cppmisc\packages\visualcpptools.14.0.24224-pre\lib\native\include\vcruntime_exception.h

; 54   :         __std_exception_data _InitData = { _Message, true };

  00009	c6 44 24 28 01	 mov	 BYTE PTR _InitData$1[rsp+8], 1
; File c:\users\alist_000\cppmisc\packages\visualcpptools.14.0.24224-pre\lib\native\include\stdexcept

; 168  : 		{	// construct from message string

  0000e	48 8b c2	 mov	 rax, rdx
; File c:\users\alist_000\cppmisc\packages\visualcpptools.14.0.24224-pre\lib\native\include\vcruntime_exception.h

; 53   :     {

  00011	48 8d 0d 00 00
	00 00		 lea	 rcx, OFFSET FLAT:??_7exception@std@@6B@
  00018	48 8d 53 08	 lea	 rdx, QWORD PTR [rbx+8]

; 54   :         __std_exception_data _InitData = { _Message, true };

  0001c	48 89 44 24 20	 mov	 QWORD PTR _InitData$1[rsp], rax
  00021	48 89 0b	 mov	 QWORD PTR [rbx], rcx
  00024	33 c9		 xor	 ecx, ecx
  00026	48 89 0a	 mov	 QWORD PTR [rdx], rcx
  00029	48 89 4a 08	 mov	 QWORD PTR [rdx+8], rcx

; 55   :         __std_exception_copy(&_InitData, &_Data);

  0002d	48 8d 4c 24 20	 lea	 rcx, QWORD PTR _InitData$1[rsp]
  00032	e8 00 00 00 00	 call	 __std_exception_copy
; File c:\users\alist_000\cppmisc\packages\visualcpptools.14.0.24224-pre\lib\native\include\stdexcept

; 168  : 		{	// construct from message string

  00037	48 8d 05 00 00
	00 00		 lea	 rax, OFFSET FLAT:??_7runtime_error@std@@6B@
  0003e	48 89 03	 mov	 QWORD PTR [rbx], rax

; 169  : 		}

  00041	48 8b c3	 mov	 rax, rbx
  00044	48 83 c4 30	 add	 rsp, 48			; 00000030H
  00048	5b		 pop	 rbx
  00049	c3		 ret	 0
??0runtime_error@std@@QEAA@PEBD@Z ENDP			; std::runtime_error::runtime_error
_TEXT	ENDS
; Function compile flags: /Ogtpy
; File c:\users\alist_000\cppmisc\packages\visualcpptools.14.0.24224-pre\lib\native\include\vcruntime_exception.h
;	COMDAT ??_Gruntime_error@std@@UEAAPEAXI@Z
_TEXT	SEGMENT
this$ = 48
__flags$ = 56
??_Gruntime_error@std@@UEAAPEAXI@Z PROC			; std::runtime_error::`scalar deleting destructor', COMDAT
$LN11:
  00000	48 89 5c 24 08	 mov	 QWORD PTR [rsp+8], rbx
  00005	57		 push	 rdi
  00006	48 83 ec 20	 sub	 rsp, 32			; 00000020H

; 83   :     {

  0000a	48 8d 05 00 00
	00 00		 lea	 rax, OFFSET FLAT:??_7exception@std@@6B@
  00011	48 8b f9	 mov	 rdi, rcx
  00014	48 89 01	 mov	 QWORD PTR [rcx], rax
  00017	8b da		 mov	 ebx, edx

; 84   :         __std_exception_destroy(&_Data);

  00019	48 83 c1 08	 add	 rcx, 8
  0001d	e8 00 00 00 00	 call	 __std_exception_destroy
  00022	f6 c3 01	 test	 bl, 1
  00025	74 0d		 je	 SHORT $LN9@scalar
  00027	ba 18 00 00 00	 mov	 edx, 24
  0002c	48 8b cf	 mov	 rcx, rdi
  0002f	e8 00 00 00 00	 call	 ??3@YAXPEAX_K@Z		; operator delete
$LN9@scalar:
  00034	48 8b c7	 mov	 rax, rdi
  00037	48 8b 5c 24 30	 mov	 rbx, QWORD PTR [rsp+48]
  0003c	48 83 c4 20	 add	 rsp, 32			; 00000020H
  00040	5f		 pop	 rdi
  00041	c3		 ret	 0
??_Gruntime_error@std@@UEAAPEAXI@Z ENDP			; std::runtime_error::`scalar deleting destructor'
_TEXT	ENDS
; Function compile flags: /Ogtpy
; File c:\users\alist_000\cppmisc\packages\visualcpptools.14.0.24224-pre\lib\native\include\vcruntime_exception.h
;	COMDAT ??1runtime_error@std@@UEAA@XZ
_TEXT	SEGMENT
this$ = 8
??1runtime_error@std@@UEAA@XZ PROC			; std::runtime_error::~runtime_error, COMDAT

; 83   :     {

  00000	48 8d 05 00 00
	00 00		 lea	 rax, OFFSET FLAT:??_7exception@std@@6B@
  00007	48 89 01	 mov	 QWORD PTR [rcx], rax

; 84   :         __std_exception_destroy(&_Data);

  0000a	48 83 c1 08	 add	 rcx, 8
  0000e	e9 00 00 00 00	 jmp	 __std_exception_destroy
??1runtime_error@std@@UEAA@XZ ENDP			; std::runtime_error::~runtime_error
_TEXT	ENDS
; Function compile flags: /Ogtpy
; File c:\users\alist_000\cppmisc\packages\visualcpptools.14.0.24224-pre\lib\native\include\vcruntime_typeinfo.h
; File c:\users\alist_000\cppmisc\packages\visualcpptools.14.0.24224-pre\lib\native\include\vcruntime_exception.h
; File c:\users\alist_000\cppmisc\packages\visualcpptools.14.0.24224-pre\lib\native\include\vcruntime_typeinfo.h
;	COMDAT ??0bad_cast@std@@QEAA@XZ
_TEXT	SEGMENT
this$ = 8
??0bad_cast@std@@QEAA@XZ PROC				; std::bad_cast::bad_cast, COMDAT
; File c:\users\alist_000\cppmisc\packages\visualcpptools.14.0.24224-pre\lib\native\include\vcruntime_exception.h

; 59   :         : _Data()

  00000	33 c0		 xor	 eax, eax
  00002	48 89 41 10	 mov	 QWORD PTR [rcx+16], rax

; 60   :     {
; 61   :         _Data._What = _Message;

  00006	48 8d 05 00 00
	00 00		 lea	 rax, OFFSET FLAT:??_C@_08EPJLHIJG@bad?5cast?$AA@
  0000d	48 89 41 08	 mov	 QWORD PTR [rcx+8], rax
; File c:\users\alist_000\cppmisc\packages\visualcpptools.14.0.24224-pre\lib\native\include\vcruntime_typeinfo.h

; 125  :     {

  00011	48 8d 05 00 00
	00 00		 lea	 rax, OFFSET FLAT:??_7bad_cast@std@@6B@
  00018	48 89 01	 mov	 QWORD PTR [rcx], rax

; 126  :     }

  0001b	48 8b c1	 mov	 rax, rcx
  0001e	c3		 ret	 0
??0bad_cast@std@@QEAA@XZ ENDP				; std::bad_cast::bad_cast
_TEXT	ENDS
; Function compile flags: /Ogtpy
; File c:\users\alist_000\cppmisc\packages\visualcpptools.14.0.24224-pre\lib\native\include\vcruntime_exception.h
;	COMDAT ??_Gbad_cast@std@@UEAAPEAXI@Z
_TEXT	SEGMENT
this$ = 48
__flags$ = 56
??_Gbad_cast@std@@UEAAPEAXI@Z PROC			; std::bad_cast::`scalar deleting destructor', COMDAT
$LN11:
  00000	48 89 5c 24 08	 mov	 QWORD PTR [rsp+8], rbx
  00005	57		 push	 rdi
  00006	48 83 ec 20	 sub	 rsp, 32			; 00000020H

; 83   :     {

  0000a	48 8d 05 00 00
	00 00		 lea	 rax, OFFSET FLAT:??_7exception@std@@6B@
  00011	48 8b f9	 mov	 rdi, rcx
  00014	48 89 01	 mov	 QWORD PTR [rcx], rax
  00017	8b da		 mov	 ebx, edx

; 84   :         __std_exception_destroy(&_Data);

  00019	48 83 c1 08	 add	 rcx, 8
  0001d	e8 00 00 00 00	 call	 __std_exception_destroy
  00022	f6 c3 01	 test	 bl, 1
  00025	74 0d		 je	 SHORT $LN9@scalar
  00027	ba 18 00 00 00	 mov	 edx, 24
  0002c	48 8b cf	 mov	 rcx, rdi
  0002f	e8 00 00 00 00	 call	 ??3@YAXPEAX_K@Z		; operator delete
$LN9@scalar:
  00034	48 8b c7	 mov	 rax, rdi
  00037	48 8b 5c 24 30	 mov	 rbx, QWORD PTR [rsp+48]
  0003c	48 83 c4 20	 add	 rsp, 32			; 00000020H
  00040	5f		 pop	 rdi
  00041	c3		 ret	 0
??_Gbad_cast@std@@UEAAPEAXI@Z ENDP			; std::bad_cast::`scalar deleting destructor'
_TEXT	ENDS
; Function compile flags: /Ogtpy
; File c:\users\alist_000\cppmisc\packages\visualcpptools.14.0.24224-pre\lib\native\include\vcruntime_exception.h
;	COMDAT ??1bad_cast@std@@UEAA@XZ
_TEXT	SEGMENT
this$ = 8
??1bad_cast@std@@UEAA@XZ PROC				; std::bad_cast::~bad_cast, COMDAT

; 83   :     {

  00000	48 8d 05 00 00
	00 00		 lea	 rax, OFFSET FLAT:??_7exception@std@@6B@
  00007	48 89 01	 mov	 QWORD PTR [rcx], rax

; 84   :         __std_exception_destroy(&_Data);

  0000a	48 83 c1 08	 add	 rcx, 8
  0000e	e9 00 00 00 00	 jmp	 __std_exception_destroy
??1bad_cast@std@@UEAA@XZ ENDP				; std::bad_cast::~bad_cast
_TEXT	ENDS
; Function compile flags: /Ogtpy
; File c:\users\alist_000\cppmisc\packages\visualcpptools.14.0.24224-pre\lib\native\include\xlocinfo
; File c:\users\alist_000\cppmisc\packages\visualcpptools.14.0.24224-pre\lib\native\include\xutility
; File c:\users\alist_000\cppmisc\packages\visualcpptools.14.0.24224-pre\lib\native\include\xlocinfo
; File c:\users\alist_000\cppmisc\packages\visualcpptools.14.0.24224-pre\lib\native\include\vcruntime_exception.h
; File c:\users\alist_000\cppmisc\packages\visualcpptools.14.0.24224-pre\lib\native\include\stdexcept
; File c:\users\alist_000\cppmisc\packages\visualcpptools.14.0.24224-pre\lib\native\include\xlocinfo
;	COMDAT ??0_Locinfo@std@@QEAA@PEBD@Z
_TEXT	SEGMENT
$T1 = 32
_InitData$2 = 40
$T3 = 56
this$ = 96
_Pch$ = 104
??0_Locinfo@std@@QEAA@PEBD@Z PROC			; std::_Locinfo::_Locinfo, COMDAT

; 76   : 		{	// construct from NTBS

$LN28:
  00000	48 89 4c 24 08	 mov	 QWORD PTR [rsp+8], rcx
  00005	57		 push	 rdi
  00006	48 83 ec 50	 sub	 rsp, 80			; 00000050H
  0000a	48 c7 44 24 20
	fe ff ff ff	 mov	 QWORD PTR $T1[rsp], -2
  00013	48 89 5c 24 68	 mov	 QWORD PTR [rsp+104], rbx
  00018	48 8b fa	 mov	 rdi, rdx
  0001b	48 8b d9	 mov	 rbx, rcx

; 73   : 		: _Lock(_LOCK_LOCALE)

  0001e	33 d2		 xor	 edx, edx
  00020	e8 00 00 00 00	 call	 ??0_Lockit@std@@QEAA@H@Z ; std::_Lockit::_Lockit
  00025	90		 npad	 1
; File c:\users\alist_000\cppmisc\packages\visualcpptools.14.0.24224-pre\lib\native\include\xutility

; 3733 : 		: _Myptr(0), _Nul(0)

  00026	33 c0		 xor	 eax, eax
  00028	48 89 43 08	 mov	 QWORD PTR [rbx+8], rax
  0002c	88 43 10	 mov	 BYTE PTR [rbx+16], al
  0002f	48 89 43 18	 mov	 QWORD PTR [rbx+24], rax
  00033	88 43 20	 mov	 BYTE PTR [rbx+32], al
  00036	48 89 43 28	 mov	 QWORD PTR [rbx+40], rax
  0003a	66 89 43 30	 mov	 WORD PTR [rbx+48], ax
  0003e	48 89 43 38	 mov	 QWORD PTR [rbx+56], rax
  00042	66 89 43 40	 mov	 WORD PTR [rbx+64], ax
  00046	48 89 43 48	 mov	 QWORD PTR [rbx+72], rax
  0004a	88 43 50	 mov	 BYTE PTR [rbx+80], al
  0004d	48 89 43 58	 mov	 QWORD PTR [rbx+88], rax
  00051	88 43 60	 mov	 BYTE PTR [rbx+96], al
; File c:\users\alist_000\cppmisc\packages\visualcpptools.14.0.24224-pre\lib\native\include\xlocinfo

; 77   : 		if (_Pch == 0)

  00054	48 85 ff	 test	 rdi, rdi
  00057	75 56		 jne	 SHORT $LN2@Locinfo
; File c:\users\alist_000\cppmisc\packages\visualcpptools.14.0.24224-pre\lib\native\include\vcruntime_exception.h

; 53   :     {

  00059	48 8d 05 00 00
	00 00		 lea	 rax, OFFSET FLAT:??_7exception@std@@6B@
  00060	48 89 44 24 38	 mov	 QWORD PTR $T3[rsp], rax

; 52   :         : _Data()

  00065	33 c0		 xor	 eax, eax
  00067	48 89 44 24 40	 mov	 QWORD PTR $T3[rsp+8], rax
  0006c	48 89 44 24 48	 mov	 QWORD PTR $T3[rsp+16], rax

; 54   :         __std_exception_data _InitData = { _Message, true };

  00071	48 8d 05 00 00
	00 00		 lea	 rax, OFFSET FLAT:??_C@_0BA@ELKIONDK@bad?5locale?5name?$AA@
  00078	48 89 44 24 28	 mov	 QWORD PTR _InitData$2[rsp], rax
  0007d	c6 44 24 30 01	 mov	 BYTE PTR _InitData$2[rsp+8], 1

; 55   :         __std_exception_copy(&_InitData, &_Data);

  00082	48 8d 54 24 40	 lea	 rdx, QWORD PTR $T3[rsp+8]
  00087	48 8d 4c 24 28	 lea	 rcx, QWORD PTR _InitData$2[rsp]
  0008c	e8 00 00 00 00	 call	 __std_exception_copy
; File c:\users\alist_000\cppmisc\packages\visualcpptools.14.0.24224-pre\lib\native\include\stdexcept

; 168  : 		{	// construct from message string

  00091	48 8d 05 00 00
	00 00		 lea	 rax, OFFSET FLAT:??_7runtime_error@std@@6B@
  00098	48 89 44 24 38	 mov	 QWORD PTR $T3[rsp], rax
; File c:\users\alist_000\cppmisc\packages\visualcpptools.14.0.24224-pre\lib\native\include\xlocinfo

; 78   : 			_THROW_NCEE(runtime_error, "bad locale name");

  0009d	48 8d 15 00 00
	00 00		 lea	 rdx, OFFSET FLAT:_TI2?AVruntime_error@std@@
  000a4	48 8d 4c 24 38	 lea	 rcx, QWORD PTR $T3[rsp]
  000a9	e8 00 00 00 00	 call	 _CxxThrowException
  000ae	cc		 int	 3
$LN2@Locinfo:

; 79   : 		_Locinfo_ctor(this, _Pch);

  000af	48 8b d7	 mov	 rdx, rdi
  000b2	48 8b cb	 mov	 rcx, rbx
  000b5	e8 00 00 00 00	 call	 ?_Locinfo_ctor@_Locinfo@std@@SAXPEAV12@PEBD@Z ; std::_Locinfo::_Locinfo_ctor
  000ba	90		 npad	 1

; 80   : 		}

  000bb	48 8b c3	 mov	 rax, rbx
  000be	48 8b 5c 24 68	 mov	 rbx, QWORD PTR [rsp+104]
  000c3	48 83 c4 50	 add	 rsp, 80			; 00000050H
  000c7	5f		 pop	 rdi
  000c8	c3		 ret	 0
$LN27@Locinfo:
??0_Locinfo@std@@QEAA@PEBD@Z ENDP			; std::_Locinfo::_Locinfo
_TEXT	ENDS
;	COMDAT text$x
text$x	SEGMENT
$T1 = 32
_InitData$2 = 40
$T3 = 56
this$ = 96
_Pch$ = 104
?dtor$0@?0???0_Locinfo@std@@QEAA@PEBD@Z@4HA PROC	; `std::_Locinfo::_Locinfo'::`1'::dtor$0
  00000	48 8b 8a 60 00
	00 00		 mov	 rcx, QWORD PTR this$[rdx]
  00007	e9 00 00 00 00	 jmp	 ??1_Lockit@std@@QEAA@XZ	; std::_Lockit::~_Lockit
?dtor$0@?0???0_Locinfo@std@@QEAA@PEBD@Z@4HA ENDP	; `std::_Locinfo::_Locinfo'::`1'::dtor$0
$T1 = 32
_InitData$2 = 40
$T3 = 56
this$ = 96
_Pch$ = 104
?dtor$1@?0???0_Locinfo@std@@QEAA@PEBD@Z@4HA PROC	; `std::_Locinfo::_Locinfo'::`1'::dtor$1
  0000c	48 8b 8a 60 00
	00 00		 mov	 rcx, QWORD PTR this$[rdx]
  00013	48 83 c1 08	 add	 rcx, 8
  00017	e9 00 00 00 00	 jmp	 ??1?$_Yarn@D@std@@QEAA@XZ ; std::_Yarn<char>::~_Yarn<char>
?dtor$1@?0???0_Locinfo@std@@QEAA@PEBD@Z@4HA ENDP	; `std::_Locinfo::_Locinfo'::`1'::dtor$1
$T1 = 32
_InitData$2 = 40
$T3 = 56
this$ = 96
_Pch$ = 104
?dtor$2@?0???0_Locinfo@std@@QEAA@PEBD@Z@4HA PROC	; `std::_Locinfo::_Locinfo'::`1'::dtor$2
  0001c	48 8b 8a 60 00
	00 00		 mov	 rcx, QWORD PTR this$[rdx]
  00023	48 83 c1 18	 add	 rcx, 24
  00027	e9 00 00 00 00	 jmp	 ??1?$_Yarn@D@std@@QEAA@XZ ; std::_Yarn<char>::~_Yarn<char>
?dtor$2@?0???0_Locinfo@std@@QEAA@PEBD@Z@4HA ENDP	; `std::_Locinfo::_Locinfo'::`1'::dtor$2
$T1 = 32
_InitData$2 = 40
$T3 = 56
this$ = 96
_Pch$ = 104
?dtor$3@?0???0_Locinfo@std@@QEAA@PEBD@Z@4HA PROC	; `std::_Locinfo::_Locinfo'::`1'::dtor$3
  0002c	48 8b 8a 60 00
	00 00		 mov	 rcx, QWORD PTR this$[rdx]
  00033	48 83 c1 28	 add	 rcx, 40			; 00000028H
  00037	e9 00 00 00 00	 jmp	 ??1?$_Yarn@_W@std@@QEAA@XZ ; std::_Yarn<wchar_t>::~_Yarn<wchar_t>
?dtor$3@?0???0_Locinfo@std@@QEAA@PEBD@Z@4HA ENDP	; `std::_Locinfo::_Locinfo'::`1'::dtor$3
$T1 = 32
_InitData$2 = 40
$T3 = 56
this$ = 96
_Pch$ = 104
?dtor$4@?0???0_Locinfo@std@@QEAA@PEBD@Z@4HA PROC	; `std::_Locinfo::_Locinfo'::`1'::dtor$4
  0003c	48 8b 8a 60 00
	00 00		 mov	 rcx, QWORD PTR this$[rdx]
  00043	48 83 c1 38	 add	 rcx, 56			; 00000038H
  00047	e9 00 00 00 00	 jmp	 ??1?$_Yarn@_W@std@@QEAA@XZ ; std::_Yarn<wchar_t>::~_Yarn<wchar_t>
?dtor$4@?0???0_Locinfo@std@@QEAA@PEBD@Z@4HA ENDP	; `std::_Locinfo::_Locinfo'::`1'::dtor$4
$T1 = 32
_InitData$2 = 40
$T3 = 56
this$ = 96
_Pch$ = 104
?dtor$5@?0???0_Locinfo@std@@QEAA@PEBD@Z@4HA PROC	; `std::_Locinfo::_Locinfo'::`1'::dtor$5
  0004c	48 8b 8a 60 00
	00 00		 mov	 rcx, QWORD PTR this$[rdx]
  00053	48 83 c1 48	 add	 rcx, 72			; 00000048H
  00057	e9 00 00 00 00	 jmp	 ??1?$_Yarn@D@std@@QEAA@XZ ; std::_Yarn<char>::~_Yarn<char>
?dtor$5@?0???0_Locinfo@std@@QEAA@PEBD@Z@4HA ENDP	; `std::_Locinfo::_Locinfo'::`1'::dtor$5
$T1 = 32
_InitData$2 = 40
$T3 = 56
this$ = 96
_Pch$ = 104
?dtor$6@?0???0_Locinfo@std@@QEAA@PEBD@Z@4HA PROC	; `std::_Locinfo::_Locinfo'::`1'::dtor$6
  0005c	48 8b 8a 60 00
	00 00		 mov	 rcx, QWORD PTR this$[rdx]
  00063	48 83 c1 58	 add	 rcx, 88			; 00000058H
  00067	e9 00 00 00 00	 jmp	 ??1?$_Yarn@D@std@@QEAA@XZ ; std::_Yarn<char>::~_Yarn<char>
?dtor$6@?0???0_Locinfo@std@@QEAA@PEBD@Z@4HA ENDP	; `std::_Locinfo::_Locinfo'::`1'::dtor$6
text$x	ENDS
; Function compile flags: /Ogtpy
;	COMDAT text$x
text$x	SEGMENT
$T1 = 32
_InitData$2 = 40
$T3 = 56
this$ = 96
_Pch$ = 104
?dtor$0@?0???0_Locinfo@std@@QEAA@PEBD@Z@4HA PROC	; `std::_Locinfo::_Locinfo'::`1'::dtor$0
  00000	48 8b 8a 60 00
	00 00		 mov	 rcx, QWORD PTR this$[rdx]
  00007	e9 00 00 00 00	 jmp	 ??1_Lockit@std@@QEAA@XZ	; std::_Lockit::~_Lockit
?dtor$0@?0???0_Locinfo@std@@QEAA@PEBD@Z@4HA ENDP	; `std::_Locinfo::_Locinfo'::`1'::dtor$0
text$x	ENDS
; Function compile flags: /Ogtpy
;	COMDAT text$x
text$x	SEGMENT
$T1 = 32
_InitData$2 = 40
$T3 = 56
this$ = 96
_Pch$ = 104
?dtor$1@?0???0_Locinfo@std@@QEAA@PEBD@Z@4HA PROC	; `std::_Locinfo::_Locinfo'::`1'::dtor$1
  0000c	48 8b 8a 60 00
	00 00		 mov	 rcx, QWORD PTR this$[rdx]
  00013	48 83 c1 08	 add	 rcx, 8
  00017	e9 00 00 00 00	 jmp	 ??1?$_Yarn@D@std@@QEAA@XZ ; std::_Yarn<char>::~_Yarn<char>
?dtor$1@?0???0_Locinfo@std@@QEAA@PEBD@Z@4HA ENDP	; `std::_Locinfo::_Locinfo'::`1'::dtor$1
text$x	ENDS
; Function compile flags: /Ogtpy
;	COMDAT text$x
text$x	SEGMENT
$T1 = 32
_InitData$2 = 40
$T3 = 56
this$ = 96
_Pch$ = 104
?dtor$2@?0???0_Locinfo@std@@QEAA@PEBD@Z@4HA PROC	; `std::_Locinfo::_Locinfo'::`1'::dtor$2
  0001c	48 8b 8a 60 00
	00 00		 mov	 rcx, QWORD PTR this$[rdx]
  00023	48 83 c1 18	 add	 rcx, 24
  00027	e9 00 00 00 00	 jmp	 ??1?$_Yarn@D@std@@QEAA@XZ ; std::_Yarn<char>::~_Yarn<char>
?dtor$2@?0???0_Locinfo@std@@QEAA@PEBD@Z@4HA ENDP	; `std::_Locinfo::_Locinfo'::`1'::dtor$2
text$x	ENDS
; Function compile flags: /Ogtpy
;	COMDAT text$x
text$x	SEGMENT
$T1 = 32
_InitData$2 = 40
$T3 = 56
this$ = 96
_Pch$ = 104
?dtor$3@?0???0_Locinfo@std@@QEAA@PEBD@Z@4HA PROC	; `std::_Locinfo::_Locinfo'::`1'::dtor$3
  0002c	48 8b 8a 60 00
	00 00		 mov	 rcx, QWORD PTR this$[rdx]
  00033	48 83 c1 28	 add	 rcx, 40			; 00000028H
  00037	e9 00 00 00 00	 jmp	 ??1?$_Yarn@_W@std@@QEAA@XZ ; std::_Yarn<wchar_t>::~_Yarn<wchar_t>
?dtor$3@?0???0_Locinfo@std@@QEAA@PEBD@Z@4HA ENDP	; `std::_Locinfo::_Locinfo'::`1'::dtor$3
text$x	ENDS
; Function compile flags: /Ogtpy
;	COMDAT text$x
text$x	SEGMENT
$T1 = 32
_InitData$2 = 40
$T3 = 56
this$ = 96
_Pch$ = 104
?dtor$4@?0???0_Locinfo@std@@QEAA@PEBD@Z@4HA PROC	; `std::_Locinfo::_Locinfo'::`1'::dtor$4
  0003c	48 8b 8a 60 00
	00 00		 mov	 rcx, QWORD PTR this$[rdx]
  00043	48 83 c1 38	 add	 rcx, 56			; 00000038H
  00047	e9 00 00 00 00	 jmp	 ??1?$_Yarn@_W@std@@QEAA@XZ ; std::_Yarn<wchar_t>::~_Yarn<wchar_t>
?dtor$4@?0???0_Locinfo@std@@QEAA@PEBD@Z@4HA ENDP	; `std::_Locinfo::_Locinfo'::`1'::dtor$4
text$x	ENDS
; Function compile flags: /Ogtpy
;	COMDAT text$x
text$x	SEGMENT
$T1 = 32
_InitData$2 = 40
$T3 = 56
this$ = 96
_Pch$ = 104
?dtor$5@?0???0_Locinfo@std@@QEAA@PEBD@Z@4HA PROC	; `std::_Locinfo::_Locinfo'::`1'::dtor$5
  0004c	48 8b 8a 60 00
	00 00		 mov	 rcx, QWORD PTR this$[rdx]
  00053	48 83 c1 48	 add	 rcx, 72			; 00000048H
  00057	e9 00 00 00 00	 jmp	 ??1?$_Yarn@D@std@@QEAA@XZ ; std::_Yarn<char>::~_Yarn<char>
?dtor$5@?0???0_Locinfo@std@@QEAA@PEBD@Z@4HA ENDP	; `std::_Locinfo::_Locinfo'::`1'::dtor$5
text$x	ENDS
; Function compile flags: /Ogtpy
;	COMDAT text$x
text$x	SEGMENT
$T1 = 32
_InitData$2 = 40
$T3 = 56
this$ = 96
_Pch$ = 104
?dtor$6@?0???0_Locinfo@std@@QEAA@PEBD@Z@4HA PROC	; `std::_Locinfo::_Locinfo'::`1'::dtor$6
  0005c	48 8b 8a 60 00
	00 00		 mov	 rcx, QWORD PTR this$[rdx]
  00063	48 83 c1 58	 add	 rcx, 88			; 00000058H
  00067	e9 00 00 00 00	 jmp	 ??1?$_Yarn@D@std@@QEAA@XZ ; std::_Yarn<char>::~_Yarn<char>
?dtor$6@?0???0_Locinfo@std@@QEAA@PEBD@Z@4HA ENDP	; `std::_Locinfo::_Locinfo'::`1'::dtor$6
text$x	ENDS
; Function compile flags: /Ogtpy
; File c:\users\alist_000\cppmisc\packages\visualcpptools.14.0.24224-pre\lib\native\include\xlocinfo
; File c:\users\alist_000\cppmisc\packages\visualcpptools.14.0.24224-pre\lib\native\include\xutility
; File c:\users\alist_000\cppmisc\packages\visualcpptools.14.0.24224-pre\lib\native\include\xlocinfo
;	COMDAT ??1_Locinfo@std@@QEAA@XZ
_TEXT	SEGMENT
$T1 = 32
this$ = 64
??1_Locinfo@std@@QEAA@XZ PROC				; std::_Locinfo::~_Locinfo, COMDAT

; 94   : 		{	// destroy the object

$LN39:
  00000	40 57		 push	 rdi
  00002	48 83 ec 30	 sub	 rsp, 48			; 00000030H
  00006	48 c7 44 24 20
	fe ff ff ff	 mov	 QWORD PTR $T1[rsp], -2
  0000f	48 89 5c 24 40	 mov	 QWORD PTR [rsp+64], rbx
  00014	48 8b d9	 mov	 rbx, rcx

; 95   : 		_Locinfo_dtor(this);

  00017	e8 00 00 00 00	 call	 ?_Locinfo_dtor@_Locinfo@std@@SAXPEAV12@@Z ; std::_Locinfo::_Locinfo_dtor
  0001c	90		 npad	 1
; File c:\users\alist_000\cppmisc\packages\visualcpptools.14.0.24224-pre\lib\native\include\xutility

; 3811 : 		if (_Myptr != 0)

  0001d	48 8b 4b 58	 mov	 rcx, QWORD PTR [rbx+88]
  00021	48 85 c9	 test	 rcx, rcx
  00024	74 06		 je	 SHORT $LN7@Locinfo

; 3812 : 
; 3813 :  #ifdef _DEBUG
; 3814 : 			_free_dbg(_Myptr, _CRT_BLOCK);
; 3815 : 
; 3816 :  #else /* _DEBUG */
; 3817 : 			_CSTD free(_Myptr);

  00026	e8 00 00 00 00	 call	 free
  0002b	90		 npad	 1
$LN7@Locinfo:

; 3818 :  #endif /* _DEBUG */
; 3819 : 
; 3820 : 		_Myptr = 0;

  0002c	33 ff		 xor	 edi, edi
  0002e	48 89 7b 58	 mov	 QWORD PTR [rbx+88], rdi

; 3811 : 		if (_Myptr != 0)

  00032	48 8b 4b 48	 mov	 rcx, QWORD PTR [rbx+72]
  00036	48 85 c9	 test	 rcx, rcx
  00039	74 06		 je	 SHORT $LN13@Locinfo

; 3812 : 
; 3813 :  #ifdef _DEBUG
; 3814 : 			_free_dbg(_Myptr, _CRT_BLOCK);
; 3815 : 
; 3816 :  #else /* _DEBUG */
; 3817 : 			_CSTD free(_Myptr);

  0003b	e8 00 00 00 00	 call	 free
  00040	90		 npad	 1
$LN13@Locinfo:

; 3818 :  #endif /* _DEBUG */
; 3819 : 
; 3820 : 		_Myptr = 0;

  00041	48 89 7b 48	 mov	 QWORD PTR [rbx+72], rdi

; 3811 : 		if (_Myptr != 0)

  00045	48 8b 4b 38	 mov	 rcx, QWORD PTR [rbx+56]
  00049	48 85 c9	 test	 rcx, rcx
  0004c	74 06		 je	 SHORT $LN19@Locinfo

; 3812 : 
; 3813 :  #ifdef _DEBUG
; 3814 : 			_free_dbg(_Myptr, _CRT_BLOCK);
; 3815 : 
; 3816 :  #else /* _DEBUG */
; 3817 : 			_CSTD free(_Myptr);

  0004e	e8 00 00 00 00	 call	 free
  00053	90		 npad	 1
$LN19@Locinfo:

; 3818 :  #endif /* _DEBUG */
; 3819 : 
; 3820 : 		_Myptr = 0;

  00054	48 89 7b 38	 mov	 QWORD PTR [rbx+56], rdi

; 3811 : 		if (_Myptr != 0)

  00058	48 8b 4b 28	 mov	 rcx, QWORD PTR [rbx+40]
  0005c	48 85 c9	 test	 rcx, rcx
  0005f	74 06		 je	 SHORT $LN25@Locinfo

; 3812 : 
; 3813 :  #ifdef _DEBUG
; 3814 : 			_free_dbg(_Myptr, _CRT_BLOCK);
; 3815 : 
; 3816 :  #else /* _DEBUG */
; 3817 : 			_CSTD free(_Myptr);

  00061	e8 00 00 00 00	 call	 free
  00066	90		 npad	 1
$LN25@Locinfo:

; 3818 :  #endif /* _DEBUG */
; 3819 : 
; 3820 : 		_Myptr = 0;

  00067	48 89 7b 28	 mov	 QWORD PTR [rbx+40], rdi

; 3811 : 		if (_Myptr != 0)

  0006b	48 8b 4b 18	 mov	 rcx, QWORD PTR [rbx+24]
  0006f	48 85 c9	 test	 rcx, rcx
  00072	74 06		 je	 SHORT $LN31@Locinfo

; 3812 : 
; 3813 :  #ifdef _DEBUG
; 3814 : 			_free_dbg(_Myptr, _CRT_BLOCK);
; 3815 : 
; 3816 :  #else /* _DEBUG */
; 3817 : 			_CSTD free(_Myptr);

  00074	e8 00 00 00 00	 call	 free
  00079	90		 npad	 1
$LN31@Locinfo:

; 3818 :  #endif /* _DEBUG */
; 3819 : 
; 3820 : 		_Myptr = 0;

  0007a	48 89 7b 18	 mov	 QWORD PTR [rbx+24], rdi

; 3811 : 		if (_Myptr != 0)

  0007e	48 8b 4b 08	 mov	 rcx, QWORD PTR [rbx+8]
  00082	48 85 c9	 test	 rcx, rcx
  00085	74 06		 je	 SHORT $LN37@Locinfo

; 3812 : 
; 3813 :  #ifdef _DEBUG
; 3814 : 			_free_dbg(_Myptr, _CRT_BLOCK);
; 3815 : 
; 3816 :  #else /* _DEBUG */
; 3817 : 			_CSTD free(_Myptr);

  00087	e8 00 00 00 00	 call	 free
  0008c	90		 npad	 1
$LN37@Locinfo:

; 3818 :  #endif /* _DEBUG */
; 3819 : 
; 3820 : 		_Myptr = 0;

  0008d	48 89 7b 08	 mov	 QWORD PTR [rbx+8], rdi
; File c:\users\alist_000\cppmisc\packages\visualcpptools.14.0.24224-pre\lib\native\include\xlocinfo

; 96   : 		}

  00091	48 8b cb	 mov	 rcx, rbx
  00094	48 8b 5c 24 40	 mov	 rbx, QWORD PTR [rsp+64]
  00099	48 83 c4 30	 add	 rsp, 48			; 00000030H
  0009d	5f		 pop	 rdi
  0009e	e9 00 00 00 00	 jmp	 ??1_Lockit@std@@QEAA@XZ	; std::_Lockit::~_Lockit
??1_Locinfo@std@@QEAA@XZ ENDP				; std::_Locinfo::~_Locinfo
_TEXT	ENDS
; Function compile flags: /Ogtpy
; File c:\users\alist_000\cppmisc\packages\visualcpptools.14.0.24224-pre\lib\native\include\xlocinfo
;	COMDAT ?_Getctype@_Locinfo@std@@QEBA?AU_Ctypevec@@XZ
_TEXT	SEGMENT
$T1 = 32
this$ = 80
__$ReturnUdt$ = 88
?_Getctype@_Locinfo@std@@QEBA?AU_Ctypevec@@XZ PROC	; std::_Locinfo::_Getctype, COMDAT

; 116  : 		{	// return ctype stuff

$LN4:
  00000	40 53		 push	 rbx
  00002	48 83 ec 40	 sub	 rsp, 64			; 00000040H

; 117  : 		return (::_Getctype());

  00006	48 8d 4c 24 20	 lea	 rcx, QWORD PTR $T1[rsp]
  0000b	48 8b da	 mov	 rbx, rdx
  0000e	e8 00 00 00 00	 call	 _Getctype
  00013	0f 10 00	 movups	 xmm0, XMMWORD PTR [rax]
  00016	0f 10 48 10	 movups	 xmm1, XMMWORD PTR [rax+16]
  0001a	48 8b c3	 mov	 rax, rbx
  0001d	0f 11 03	 movups	 XMMWORD PTR [rbx], xmm0
  00020	0f 11 4b 10	 movups	 XMMWORD PTR [rbx+16], xmm1

; 118  : 		}

  00024	48 83 c4 40	 add	 rsp, 64			; 00000040H
  00028	5b		 pop	 rbx
  00029	c3		 ret	 0
?_Getctype@_Locinfo@std@@QEBA?AU_Ctypevec@@XZ ENDP	; std::_Locinfo::_Getctype
_TEXT	ENDS
; Function compile flags: /Ogtpy
; File c:\users\alist_000\cppmisc\packages\visualcpptools.14.0.24224-pre\lib\native\include\vcruntime_exception.h
;	COMDAT ??0runtime_error@std@@QEAA@AEBV01@@Z
_TEXT	SEGMENT
this$ = 48
__that$ = 56
??0runtime_error@std@@QEAA@AEBV01@@Z PROC		; std::runtime_error::runtime_error, COMDAT
$LN6:
  00000	40 53		 push	 rbx
  00002	48 83 ec 20	 sub	 rsp, 32			; 00000020H
  00006	48 8b d9	 mov	 rbx, rcx
  00009	48 8b c2	 mov	 rax, rdx

; 65   :         : _Data()

  0000c	48 8d 53 08	 lea	 rdx, QWORD PTR [rbx+8]

; 66   :     {

  00010	48 8d 0d 00 00
	00 00		 lea	 rcx, OFFSET FLAT:??_7exception@std@@6B@
  00017	48 89 0b	 mov	 QWORD PTR [rbx], rcx
  0001a	33 c9		 xor	 ecx, ecx
  0001c	48 89 0a	 mov	 QWORD PTR [rdx], rcx
  0001f	48 89 4a 08	 mov	 QWORD PTR [rdx+8], rcx

; 67   :         __std_exception_copy(&_Other._Data, &_Data);

  00023	48 8d 48 08	 lea	 rcx, QWORD PTR [rax+8]
  00027	e8 00 00 00 00	 call	 __std_exception_copy
  0002c	48 8d 05 00 00
	00 00		 lea	 rax, OFFSET FLAT:??_7runtime_error@std@@6B@
  00033	48 89 03	 mov	 QWORD PTR [rbx], rax
  00036	48 8b c3	 mov	 rax, rbx
  00039	48 83 c4 20	 add	 rsp, 32			; 00000020H
  0003d	5b		 pop	 rbx
  0003e	c3		 ret	 0
??0runtime_error@std@@QEAA@AEBV01@@Z ENDP		; std::runtime_error::runtime_error
_TEXT	ENDS
; Function compile flags: /Ogtpy
; File c:\users\alist_000\cppmisc\packages\visualcpptools.14.0.24224-pre\lib\native\include\xfacet
;	COMDAT ??1_Facet_base@std@@UEAA@XZ
_TEXT	SEGMENT
this$ = 8
??1_Facet_base@std@@UEAA@XZ PROC			; std::_Facet_base::~_Facet_base, COMDAT

; 24   : 		{	// ensure that derived classes can be destroyed properly

  00000	48 8d 05 00 00
	00 00		 lea	 rax, OFFSET FLAT:??_7_Facet_base@std@@6B@
  00007	48 89 01	 mov	 QWORD PTR [rcx], rax

; 25   : 		}

  0000a	c3		 ret	 0
??1_Facet_base@std@@UEAA@XZ ENDP			; std::_Facet_base::~_Facet_base
_TEXT	ENDS
; Function compile flags: /Ogtpy
; File c:\users\alist_000\cppmisc\packages\visualcpptools.14.0.24224-pre\lib\native\include\xfacet
;	COMDAT ??_G_Facet_base@std@@UEAAPEAXI@Z
_TEXT	SEGMENT
this$ = 48
__flags$ = 56
??_G_Facet_base@std@@UEAAPEAXI@Z PROC			; std::_Facet_base::`scalar deleting destructor', COMDAT
$LN9:
  00000	40 53		 push	 rbx
  00002	48 83 ec 20	 sub	 rsp, 32			; 00000020H

; 24   : 		{	// ensure that derived classes can be destroyed properly

  00006	48 8d 05 00 00
	00 00		 lea	 rax, OFFSET FLAT:??_7_Facet_base@std@@6B@
  0000d	48 8b d9	 mov	 rbx, rcx
  00010	48 89 01	 mov	 QWORD PTR [rcx], rax
  00013	f6 c2 01	 test	 dl, 1
  00016	74 0a		 je	 SHORT $LN7@scalar
  00018	ba 08 00 00 00	 mov	 edx, 8
  0001d	e8 00 00 00 00	 call	 ??3@YAXPEAX_K@Z		; operator delete
$LN7@scalar:
  00022	48 8b c3	 mov	 rax, rbx
  00025	48 83 c4 20	 add	 rsp, 32			; 00000020H
  00029	5b		 pop	 rbx
  0002a	c3		 ret	 0
??_G_Facet_base@std@@UEAAPEAXI@Z ENDP			; std::_Facet_base::`scalar deleting destructor'
_TEXT	ENDS
; Function compile flags: /Ogtpy
; File c:\users\alist_000\cppmisc\packages\visualcpptools.14.0.24224-pre\lib\native\include\xlocale
;	COMDAT ??Bid@locale@std@@QEAA_KXZ
_TEXT	SEGMENT
_Lock$1 = 48
this$ = 48
??Bid@locale@std@@QEAA_KXZ PROC				; std::locale::id::operator unsigned __int64, COMDAT

; 114  : 			{	// get stamp, with lazy allocation

$LN8:
  00000	40 53		 push	 rbx
  00002	48 83 ec 20	 sub	 rsp, 32			; 00000020H

; 115  : 			if (_Id == 0)

  00006	48 83 39 00	 cmp	 QWORD PTR [rcx], 0
  0000a	48 8b d9	 mov	 rbx, rcx
  0000d	75 38		 jne	 SHORT $LN6@operator

; 116  : 				{	// still zero, allocate stamp
; 117  : 				_BEGIN_LOCK(_LOCK_LOCALE)

  0000f	33 d2		 xor	 edx, edx
  00011	48 8d 4c 24 30	 lea	 rcx, QWORD PTR _Lock$1[rsp]
  00016	e8 00 00 00 00	 call	 ??0_Lockit@std@@QEAA@H@Z ; std::_Lockit::_Lockit

; 118  : 					if (_Id == 0)

  0001b	48 83 3b 00	 cmp	 QWORD PTR [rbx], 0
  0001f	75 13		 jne	 SHORT $LN3@operator

; 119  : 						_Id = ++_Id_cnt;

  00021	8b 05 00 00 00
	00		 mov	 eax, DWORD PTR ?_Id_cnt@id@locale@std@@0HA ; std::locale::id::_Id_cnt
  00027	ff c0		 inc	 eax
  00029	89 05 00 00 00
	00		 mov	 DWORD PTR ?_Id_cnt@id@locale@std@@0HA, eax ; std::locale::id::_Id_cnt
  0002f	48 98		 cdqe
  00031	48 89 03	 mov	 QWORD PTR [rbx], rax
$LN3@operator:

; 120  : 				_END_LOCK()

  00034	48 8d 4c 24 30	 lea	 rcx, QWORD PTR _Lock$1[rsp]
  00039	e8 00 00 00 00	 call	 ??1_Lockit@std@@QEAA@XZ	; std::_Lockit::~_Lockit

; 121  : 				}
; 122  : 			return (_Id);

  0003e	48 8b 03	 mov	 rax, QWORD PTR [rbx]

; 123  : 			}

  00041	48 83 c4 20	 add	 rsp, 32			; 00000020H
  00045	5b		 pop	 rbx
  00046	c3		 ret	 0
$LN6@operator:

; 121  : 				}
; 122  : 			return (_Id);

  00047	48 8b 01	 mov	 rax, QWORD PTR [rcx]

; 123  : 			}

  0004a	48 83 c4 20	 add	 rsp, 32			; 00000020H
  0004e	5b		 pop	 rbx
  0004f	c3		 ret	 0
??Bid@locale@std@@QEAA_KXZ ENDP				; std::locale::id::operator unsigned __int64
_TEXT	ENDS
; Function compile flags: /Ogtpy
; File c:\users\alist_000\cppmisc\packages\visualcpptools.14.0.24224-pre\lib\native\include\xlocale
;	COMDAT ?_Incref@facet@locale@std@@UEAAXXZ
_TEXT	SEGMENT
this$ = 8
?_Incref@facet@locale@std@@UEAAXXZ PROC			; std::locale::facet::_Incref, COMDAT

; 150  : 			_MT_INCR(_Myrefs);

  00000	f0 ff 41 08	 lock inc DWORD PTR [rcx+8]

; 151  : 			}

  00004	c3		 ret	 0
?_Incref@facet@locale@std@@UEAAXXZ ENDP			; std::locale::facet::_Incref
_TEXT	ENDS
; Function compile flags: /Ogtpy
; File c:\users\alist_000\cppmisc\packages\visualcpptools.14.0.24224-pre\lib\native\include\xlocale
;	COMDAT ?_Decref@facet@locale@std@@UEAAPEAV_Facet_base@3@XZ
_TEXT	SEGMENT
this$ = 8
?_Decref@facet@locale@std@@UEAAPEAV_Facet_base@3@XZ PROC ; std::locale::facet::_Decref, COMDAT

; 155  : 			if (_MT_DECR(_Myrefs) == 0)

  00000	f0 83 41 08 ff	 lock add DWORD PTR [rcx+8], -1
  00005	b8 00 00 00 00	 mov	 eax, 0
  0000a	48 0f 44 c1	 cmove	 rax, rcx

; 156  : 				return (this);
; 157  : 			else
; 158  : 				return (0);
; 159  : 			}

  0000e	c3		 ret	 0
?_Decref@facet@locale@std@@UEAAPEAV_Facet_base@3@XZ ENDP ; std::locale::facet::_Decref
_TEXT	ENDS
; Function compile flags: /Ogtpy
; File c:\users\alist_000\cppmisc\packages\visualcpptools.14.0.24224-pre\lib\native\include\xlocale
; File c:\users\alist_000\cppmisc\packages\visualcpptools.14.0.24224-pre\lib\native\include\xatomic0.h
; File c:\users\alist_000\cppmisc\packages\visualcpptools.14.0.24224-pre\lib\native\include\xlocale
;	COMDAT ??0facet@locale@std@@IEAA@_K@Z
_TEXT	SEGMENT
this$ = 8
_Initrefs$ = 16
??0facet@locale@std@@IEAA@_K@Z PROC			; std::locale::facet::facet, COMDAT

; 166  : 			{	// construct with initial reference count

  00000	48 8d 05 00 00
	00 00		 lea	 rax, OFFSET FLAT:??_7facet@locale@std@@6B@
; File c:\users\alist_000\cppmisc\packages\visualcpptools.14.0.24224-pre\lib\native\include\xatomic0.h

; 63   : 	_Counter = _Value;

  00007	89 51 08	 mov	 DWORD PTR [rcx+8], edx
; File c:\users\alist_000\cppmisc\packages\visualcpptools.14.0.24224-pre\lib\native\include\xlocale

; 166  : 			{	// construct with initial reference count

  0000a	48 89 01	 mov	 QWORD PTR [rcx], rax

; 167  : 			_Init_atomic_counter(_Myrefs, (_Atomic_integral_t)_Initrefs);
; 168  : 			}

  0000d	48 8b c1	 mov	 rax, rcx
  00010	c3		 ret	 0
??0facet@locale@std@@IEAA@_K@Z ENDP			; std::locale::facet::facet
_TEXT	ENDS
; Function compile flags: /Ogtpy
; File c:\users\alist_000\cppmisc\packages\visualcpptools.14.0.24224-pre\lib\native\include\xlocale
; File c:\users\alist_000\cppmisc\packages\visualcpptools.14.0.24224-pre\lib\native\include\xfacet
; File c:\users\alist_000\cppmisc\packages\visualcpptools.14.0.24224-pre\lib\native\include\xlocale
;	COMDAT ??1facet@locale@std@@MEAA@XZ
_TEXT	SEGMENT
this$ = 8
??1facet@locale@std@@MEAA@XZ PROC			; std::locale::facet::~facet, COMDAT
; File c:\users\alist_000\cppmisc\packages\visualcpptools.14.0.24224-pre\lib\native\include\xfacet

; 24   : 		{	// ensure that derived classes can be destroyed properly

  00000	48 8d 05 00 00
	00 00		 lea	 rax, OFFSET FLAT:??_7_Facet_base@std@@6B@
  00007	48 89 01	 mov	 QWORD PTR [rcx], rax
; File c:\users\alist_000\cppmisc\packages\visualcpptools.14.0.24224-pre\lib\native\include\xlocale

; 172  : 			}

  0000a	c3		 ret	 0
??1facet@locale@std@@MEAA@XZ ENDP			; std::locale::facet::~facet
_TEXT	ENDS
; Function compile flags: /Ogtpy
; File c:\users\alist_000\cppmisc\packages\visualcpptools.14.0.24224-pre\lib\native\include\xlocale
;	COMDAT ??0locale@std@@QEAA@AEBV01@@Z
_TEXT	SEGMENT
$T1 = 32
this$ = 64
_Right$ = 72
??0locale@std@@QEAA@AEBV01@@Z PROC			; std::locale::locale, COMDAT

; 325  : 		{	// construct by copying

$LN3:
  00000	40 53		 push	 rbx
  00002	48 83 ec 30	 sub	 rsp, 48			; 00000030H
  00006	48 c7 44 24 20
	fe ff ff ff	 mov	 QWORD PTR $T1[rsp], -2
  0000f	48 8b d9	 mov	 rbx, rcx

; 324  : 		: _Ptr(_Right._Ptr)

  00012	48 8b 4a 08	 mov	 rcx, QWORD PTR [rdx+8]
  00016	48 89 4b 08	 mov	 QWORD PTR [rbx+8], rcx

; 326  : 		_Ptr->_Incref();

  0001a	48 8b 01	 mov	 rax, QWORD PTR [rcx]
  0001d	ff 50 08	 call	 QWORD PTR [rax+8]
  00020	90		 npad	 1

; 327  : 		}

  00021	48 8b c3	 mov	 rax, rbx
  00024	48 83 c4 30	 add	 rsp, 48			; 00000030H
  00028	5b		 pop	 rbx
  00029	c3		 ret	 0
??0locale@std@@QEAA@AEBV01@@Z ENDP			; std::locale::locale
_TEXT	ENDS
; Function compile flags: /Ogtpy
; File c:\users\alist_000\cppmisc\packages\visualcpptools.14.0.24224-pre\lib\native\include\xlocale
;	COMDAT ??1locale@std@@QEAA@XZ
_TEXT	SEGMENT
$T1 = 32
this$ = 64
??1locale@std@@QEAA@XZ PROC				; std::locale::~locale, COMDAT

; 430  : 		{	// destroy the object

$LN6:
  00000	48 83 ec 38	 sub	 rsp, 56			; 00000038H
  00004	48 c7 44 24 20
	fe ff ff ff	 mov	 QWORD PTR $T1[rsp], -2

; 431  : 		if (_Ptr != 0)

  0000d	48 8b 49 08	 mov	 rcx, QWORD PTR [rcx+8]
  00011	48 85 c9	 test	 rcx, rcx
  00014	74 1e		 je	 SHORT $LN4@locale

; 432  : 			delete _Ptr->_Decref();

  00016	48 8b 01	 mov	 rax, QWORD PTR [rcx]
  00019	ff 50 10	 call	 QWORD PTR [rax+16]
  0001c	90		 npad	 1
  0001d	48 85 c0	 test	 rax, rax
  00020	74 12		 je	 SHORT $LN4@locale
  00022	4c 8b 00	 mov	 r8, QWORD PTR [rax]
  00025	ba 01 00 00 00	 mov	 edx, 1
  0002a	48 8b c8	 mov	 rcx, rax

; 433  : 		}

  0002d	48 83 c4 38	 add	 rsp, 56			; 00000038H

; 432  : 			delete _Ptr->_Decref();

  00031	49 ff 20	 rex_jmp QWORD PTR [r8]
$LN4@locale:

; 433  : 		}

  00034	48 83 c4 38	 add	 rsp, 56			; 00000038H
  00038	c3		 ret	 0
??1locale@std@@QEAA@XZ ENDP				; std::locale::~locale
_TEXT	ENDS
; Function compile flags: /Ogtpy
; File c:\users\alist_000\cppmisc\packages\visualcpptools.14.0.24224-pre\lib\native\include\xlocale
; File c:\users\alist_000\cppmisc\packages\visualcpptools.14.0.24224-pre\lib\native\include\xutility
; File c:\users\alist_000\cppmisc\packages\visualcpptools.14.0.24224-pre\lib\native\include\xlocale
; File c:\users\alist_000\cppmisc\packages\visualcpptools.14.0.24224-pre\lib\native\include\xutility
; File c:\users\alist_000\cppmisc\packages\visualcpptools.14.0.24224-pre\lib\native\include\xlocale
;	COMDAT ?c_str@locale@std@@QEBAPEBDXZ
_TEXT	SEGMENT
this$ = 8
?c_str@locale@std@@QEBAPEBDXZ PROC			; std::locale::c_str, COMDAT

; 454  : 		return (_Ptr == 0 ? "" : _Ptr->_Name.c_str());

  00000	48 8b 41 08	 mov	 rax, QWORD PTR [rcx+8]
  00004	48 85 c0	 test	 rax, rax
  00007	75 08		 jne	 SHORT $LN3@c_str
  00009	48 8d 05 00 00
	00 00		 lea	 rax, OFFSET FLAT:??_C@_00CNPNBAHC@?$AA@

; 455  : 		}

  00010	c3		 ret	 0
$LN3@c_str:
; File c:\users\alist_000\cppmisc\packages\visualcpptools.14.0.24224-pre\lib\native\include\xutility

; 3795 : 		return (_Myptr != 0 ? _Myptr : &_Nul);

  00011	48 8b 48 28	 mov	 rcx, QWORD PTR [rax+40]
  00015	48 85 c9	 test	 rcx, rcx
  00018	74 04		 je	 SHORT $LN7@c_str
; File c:\users\alist_000\cppmisc\packages\visualcpptools.14.0.24224-pre\lib\native\include\xlocale

; 454  : 		return (_Ptr == 0 ? "" : _Ptr->_Name.c_str());

  0001a	48 8b c1	 mov	 rax, rcx

; 455  : 		}

  0001d	c3		 ret	 0
$LN7@c_str:
; File c:\users\alist_000\cppmisc\packages\visualcpptools.14.0.24224-pre\lib\native\include\xutility

; 3795 : 		return (_Myptr != 0 ? _Myptr : &_Nul);

  0001e	48 83 c0 30	 add	 rax, 48			; 00000030H
; File c:\users\alist_000\cppmisc\packages\visualcpptools.14.0.24224-pre\lib\native\include\xlocale

; 455  : 		}

  00022	c3		 ret	 0
?c_str@locale@std@@QEBAPEBDXZ ENDP			; std::locale::c_str
_TEXT	ENDS
; Function compile flags: /Ogtpy
; File c:\users\alist_000\cppmisc\packages\visualcpptools.14.0.24224-pre\lib\native\include\xlocale
;	COMDAT ?_Getfacet@locale@std@@QEBAPEBVfacet@12@_K@Z
_TEXT	SEGMENT
this$ = 48
_Id$ = 56
?_Getfacet@locale@std@@QEBAPEBVfacet@12@_K@Z PROC	; std::locale::_Getfacet, COMDAT

; 458  : 		{	// look up a facet in locale object

$LN12:
  00000	48 89 5c 24 08	 mov	 QWORD PTR [rsp+8], rbx
  00005	57		 push	 rdi
  00006	48 83 ec 20	 sub	 rsp, 32			; 00000020H
  0000a	48 8b da	 mov	 rbx, rdx

; 459  : 		const facet *_Facptr = _Id < _Ptr->_Facetcount

  0000d	33 ff		 xor	 edi, edi
  0000f	48 8b 51 08	 mov	 rdx, QWORD PTR [rcx+8]
  00013	48 3b 5a 18	 cmp	 rbx, QWORD PTR [rdx+24]
  00017	73 0f		 jae	 SHORT $LN6@Getfacet
  00019	48 8b 42 10	 mov	 rax, QWORD PTR [rdx+16]
  0001d	48 8b 04 d8	 mov	 rax, QWORD PTR [rax+rbx*8]

; 460  : 			? _Ptr->_Facetvec[_Id] : 0;	// null if id off end
; 461  : 		if (_Facptr != 0 || !_Ptr->_Xparent)

  00021	48 85 c0	 test	 rax, rax
  00024	75 21		 jne	 SHORT $LN4@Getfacet
  00026	eb 03		 jmp	 SHORT $LN10@Getfacet
$LN6@Getfacet:

; 459  : 		const facet *_Facptr = _Id < _Ptr->_Facetcount

  00028	48 8b c7	 mov	 rax, rdi
$LN10@Getfacet:

; 460  : 			? _Ptr->_Facetvec[_Id] : 0;	// null if id off end
; 461  : 		if (_Facptr != 0 || !_Ptr->_Xparent)

  0002b	40 38 7a 24	 cmp	 BYTE PTR [rdx+36], dil
  0002f	74 16		 je	 SHORT $LN4@Getfacet

; 462  : 			return (_Facptr);	// found facet or not transparent
; 463  : 		else
; 464  : 			{	// look in current locale
; 465  : 			locale::_Locimp *_Ptr0 = _Getgloballocale();

  00031	e8 00 00 00 00	 call	 ?_Getgloballocale@locale@std@@CAPEAV_Locimp@12@XZ ; std::locale::_Getgloballocale

; 466  : 			return (_Id < _Ptr0->_Facetcount

  00036	48 3b 58 18	 cmp	 rbx, QWORD PTR [rax+24]
  0003a	73 08		 jae	 SHORT $LN8@Getfacet
  0003c	48 8b 40 10	 mov	 rax, QWORD PTR [rax+16]
  00040	48 8b 3c d8	 mov	 rdi, QWORD PTR [rax+rbx*8]
$LN8@Getfacet:
  00044	48 8b c7	 mov	 rax, rdi
$LN4@Getfacet:

; 467  : 				? _Ptr0->_Facetvec[_Id]	// get from current locale
; 468  : 				: 0);	// no entry in current locale
; 469  : 			}
; 470  : 		}

  00047	48 8b 5c 24 30	 mov	 rbx, QWORD PTR [rsp+48]
  0004c	48 83 c4 20	 add	 rsp, 32			; 00000020H
  00050	5f		 pop	 rdi
  00051	c3		 ret	 0
?_Getfacet@locale@std@@QEBAPEBVfacet@12@_K@Z ENDP	; std::locale::_Getfacet
_TEXT	ENDS
; Function compile flags: /Ogtpy
; File c:\users\alist_000\cppmisc\packages\visualcpptools.14.0.24224-pre\lib\native\include\xfacet
;	COMDAT ??_Gfacet@locale@std@@MEAAPEAXI@Z
_TEXT	SEGMENT
this$ = 48
__flags$ = 56
??_Gfacet@locale@std@@MEAAPEAXI@Z PROC			; std::locale::facet::`scalar deleting destructor', COMDAT
$LN12:
  00000	40 53		 push	 rbx
  00002	48 83 ec 20	 sub	 rsp, 32			; 00000020H

; 24   : 		{	// ensure that derived classes can be destroyed properly

  00006	48 8d 05 00 00
	00 00		 lea	 rax, OFFSET FLAT:??_7_Facet_base@std@@6B@
  0000d	48 8b d9	 mov	 rbx, rcx
  00010	48 89 01	 mov	 QWORD PTR [rcx], rax
  00013	f6 c2 01	 test	 dl, 1
  00016	74 0a		 je	 SHORT $LN10@scalar
  00018	ba 10 00 00 00	 mov	 edx, 16
  0001d	e8 00 00 00 00	 call	 ??3@YAXPEAX_K@Z		; operator delete
$LN10@scalar:
  00022	48 8b c3	 mov	 rax, rbx
  00025	48 83 c4 20	 add	 rsp, 32			; 00000020H
  00029	5b		 pop	 rbx
  0002a	c3		 ret	 0
??_Gfacet@locale@std@@MEAAPEAXI@Z ENDP			; std::locale::facet::`scalar deleting destructor'
_TEXT	ENDS
; Function compile flags: /Ogtpy
;	COMDAT ??0_Facet_base@std@@QEAA@XZ
_TEXT	SEGMENT
this$ = 8
??0_Facet_base@std@@QEAA@XZ PROC			; std::_Facet_base::_Facet_base, COMDAT
  00000	48 8d 05 00 00
	00 00		 lea	 rax, OFFSET FLAT:??_7_Facet_base@std@@6B@
  00007	48 89 01	 mov	 QWORD PTR [rcx], rax
  0000a	48 8b c1	 mov	 rax, rcx
  0000d	c3		 ret	 0
??0_Facet_base@std@@QEAA@XZ ENDP			; std::_Facet_base::_Facet_base
_TEXT	ENDS
; Function compile flags: /Ogtpy
; File c:\users\alist_000\cppmisc\packages\visualcpptools.14.0.24224-pre\lib\native\include\xlocale
; File c:\users\alist_000\cppmisc\packages\visualcpptools.14.0.24224-pre\lib\native\include\xatomic0.h
; File c:\users\alist_000\cppmisc\packages\visualcpptools.14.0.24224-pre\lib\native\include\xlocale
;	COMDAT ??0ctype_base@std@@QEAA@_K@Z
_TEXT	SEGMENT
this$ = 8
_Refs$ = 16
??0ctype_base@std@@QEAA@_K@Z PROC			; std::ctype_base::ctype_base, COMDAT

; 2103 : 		{	// default constructor

  00000	48 8d 05 00 00
	00 00		 lea	 rax, OFFSET FLAT:??_7ctype_base@std@@6B@
; File c:\users\alist_000\cppmisc\packages\visualcpptools.14.0.24224-pre\lib\native\include\xatomic0.h

; 63   : 	_Counter = _Value;

  00007	89 51 08	 mov	 DWORD PTR [rcx+8], edx
; File c:\users\alist_000\cppmisc\packages\visualcpptools.14.0.24224-pre\lib\native\include\xlocale

; 2103 : 		{	// default constructor

  0000a	48 89 01	 mov	 QWORD PTR [rcx], rax

; 2104 : 		}

  0000d	48 8b c1	 mov	 rax, rcx
  00010	c3		 ret	 0
??0ctype_base@std@@QEAA@_K@Z ENDP			; std::ctype_base::ctype_base
_TEXT	ENDS
; Function compile flags: /Ogtpy
; File c:\users\alist_000\cppmisc\packages\visualcpptools.14.0.24224-pre\lib\native\include\xlocale
; File c:\users\alist_000\cppmisc\packages\visualcpptools.14.0.24224-pre\lib\native\include\xfacet
; File c:\users\alist_000\cppmisc\packages\visualcpptools.14.0.24224-pre\lib\native\include\xlocale
;	COMDAT ??1ctype_base@std@@UEAA@XZ
_TEXT	SEGMENT
this$ = 8
??1ctype_base@std@@UEAA@XZ PROC				; std::ctype_base::~ctype_base, COMDAT
; File c:\users\alist_000\cppmisc\packages\visualcpptools.14.0.24224-pre\lib\native\include\xfacet

; 24   : 		{	// ensure that derived classes can be destroyed properly

  00000	48 8d 05 00 00
	00 00		 lea	 rax, OFFSET FLAT:??_7_Facet_base@std@@6B@
  00007	48 89 01	 mov	 QWORD PTR [rcx], rax
; File c:\users\alist_000\cppmisc\packages\visualcpptools.14.0.24224-pre\lib\native\include\xlocale

; 2108 : 		}

  0000a	c3		 ret	 0
??1ctype_base@std@@UEAA@XZ ENDP				; std::ctype_base::~ctype_base
_TEXT	ENDS
; Function compile flags: /Ogtpy
; File c:\users\alist_000\cppmisc\packages\visualcpptools.14.0.24224-pre\lib\native\include\xfacet
;	COMDAT ??_Gctype_base@std@@UEAAPEAXI@Z
_TEXT	SEGMENT
this$ = 48
__flags$ = 56
??_Gctype_base@std@@UEAAPEAXI@Z PROC			; std::ctype_base::`scalar deleting destructor', COMDAT
$LN15:
  00000	40 53		 push	 rbx
  00002	48 83 ec 20	 sub	 rsp, 32			; 00000020H

; 24   : 		{	// ensure that derived classes can be destroyed properly

  00006	48 8d 05 00 00
	00 00		 lea	 rax, OFFSET FLAT:??_7_Facet_base@std@@6B@
  0000d	48 8b d9	 mov	 rbx, rcx
  00010	48 89 01	 mov	 QWORD PTR [rcx], rax
  00013	f6 c2 01	 test	 dl, 1
  00016	74 0a		 je	 SHORT $LN13@scalar
  00018	ba 10 00 00 00	 mov	 edx, 16
  0001d	e8 00 00 00 00	 call	 ??3@YAXPEAX_K@Z		; operator delete
$LN13@scalar:
  00022	48 8b c3	 mov	 rax, rbx
  00025	48 83 c4 20	 add	 rsp, 32			; 00000020H
  00029	5b		 pop	 rbx
  0002a	c3		 ret	 0
??_Gctype_base@std@@UEAAPEAXI@Z ENDP			; std::ctype_base::`scalar deleting destructor'
_TEXT	ENDS
; Function compile flags: /Ogtpy
; File c:\users\alist_000\cppmisc\packages\visualcpptools.14.0.24224-pre\lib\native\include\xlocale
;	COMDAT ?widen@?$ctype@D@std@@QEBADD@Z
_TEXT	SEGMENT
this$ = 48
_Byte$ = 56
?widen@?$ctype@D@std@@QEBADD@Z PROC			; std::ctype<char>::widen, COMDAT

; 2415 : 		{	// widen char

$LN8:
  00000	48 83 ec 28	 sub	 rsp, 40			; 00000028H
  00004	48 8b 01	 mov	 rax, QWORD PTR [rcx]
  00007	4c 8d 05 00 00
	00 00		 lea	 r8, OFFSET FLAT:??_7?$ctype@D@std@@6B@
  0000e	49 3b c0	 cmp	 rax, r8
  00011	75 0d		 jne	 SHORT $LN7@widen

; 2416 : 		return (do_widen(_Byte));

  00013	0f b6 c2	 movzx	 eax, dl

; 2417 : 		}

  00016	48 83 c4 28	 add	 rsp, 40			; 00000028H
  0001a	c3		 ret	 0
$LN3@widen:
  0001b	48 83 c4 28	 add	 rsp, 40			; 00000028H
  0001f	c3		 ret	 0
$LN7@widen:

; 2416 : 		return (do_widen(_Byte));

  00020	ff 50 40	 call	 QWORD PTR [rax+64]
  00023	eb f6		 jmp	 SHORT $LN3@widen
?widen@?$ctype@D@std@@QEBADD@Z ENDP			; std::ctype<char>::widen
_TEXT	ENDS
; Function compile flags: /Ogtpy
; File c:\users\alist_000\cppmisc\packages\visualcpptools.14.0.24224-pre\lib\native\include\xlocale
; File c:\users\alist_000\cppmisc\packages\visualcpptools.14.0.24224-pre\lib\native\include\xatomic0.h
; File c:\users\alist_000\cppmisc\packages\visualcpptools.14.0.24224-pre\lib\native\include\xlocale
; File c:\users\alist_000\cppmisc\packages\visualcpptools.14.0.24224-pre\lib\native\include\xlocinfo
; File c:\users\alist_000\cppmisc\packages\visualcpptools.14.0.24224-pre\lib\native\include\xlocale
;	COMDAT ??0?$ctype@D@std@@QEAA@AEBV_Locinfo@1@_K@Z
_TEXT	SEGMENT
$T1 = 32
this$ = 80
_Lobj$ = 88
_Refs$ = 96
??0?$ctype@D@std@@QEAA@AEBV_Locinfo@1@_K@Z PROC		; std::ctype<char>::ctype<char>, COMDAT

; 2462 : 		{	// construct from current locale

$LN17:
  00000	40 53		 push	 rbx
  00002	48 83 ec 40	 sub	 rsp, 64			; 00000040H
  00006	48 8d 05 00 00
	00 00		 lea	 rax, OFFSET FLAT:??_7?$ctype@D@std@@6B@
; File c:\users\alist_000\cppmisc\packages\visualcpptools.14.0.24224-pre\lib\native\include\xatomic0.h

; 63   : 	_Counter = _Value;

  0000d	44 89 41 08	 mov	 DWORD PTR [rcx+8], r8d
; File c:\users\alist_000\cppmisc\packages\visualcpptools.14.0.24224-pre\lib\native\include\xlocale

; 2462 : 		{	// construct from current locale

  00011	48 89 01	 mov	 QWORD PTR [rcx], rax
  00014	48 8b d9	 mov	 rbx, rcx
; File c:\users\alist_000\cppmisc\packages\visualcpptools.14.0.24224-pre\lib\native\include\xlocinfo

; 117  : 		return (::_Getctype());

  00017	48 8d 4c 24 20	 lea	 rcx, QWORD PTR $T1[rsp]
  0001c	e8 00 00 00 00	 call	 _Getctype
; File c:\users\alist_000\cppmisc\packages\visualcpptools.14.0.24224-pre\lib\native\include\xlocale

; 2497 : 		_Ctype = _Lobj._Getctype();

  00021	0f 10 00	 movups	 xmm0, XMMWORD PTR [rax]
  00024	0f 11 43 10	 movups	 XMMWORD PTR [rbx+16], xmm0
  00028	0f 10 48 10	 movups	 xmm1, XMMWORD PTR [rax+16]

; 2463 : 		_Init(_Lobj);
; 2464 : 		}

  0002c	48 8b c3	 mov	 rax, rbx

; 2497 : 		_Ctype = _Lobj._Getctype();

  0002f	0f 11 4b 20	 movups	 XMMWORD PTR [rbx+32], xmm1

; 2463 : 		_Init(_Lobj);
; 2464 : 		}

  00033	48 83 c4 40	 add	 rsp, 64			; 00000040H
  00037	5b		 pop	 rbx
  00038	c3		 ret	 0
??0?$ctype@D@std@@QEAA@AEBV_Locinfo@1@_K@Z ENDP		; std::ctype<char>::ctype<char>
_TEXT	ENDS
; Function compile flags: /Ogtpy
; File c:\users\alist_000\cppmisc\packages\visualcpptools.14.0.24224-pre\lib\native\include\xlocale
; File c:\users\alist_000\cppmisc\packages\visualcpptools.14.0.24224-pre\lib\native\include\xutility
; File c:\users\alist_000\cppmisc\packages\visualcpptools.14.0.24224-pre\lib\native\include\xlocale
; File c:\users\alist_000\cppmisc\packages\visualcpptools.14.0.24224-pre\lib\native\include\xatomic0.h
; File c:\users\alist_000\cppmisc\packages\visualcpptools.14.0.24224-pre\lib\native\include\xlocale
; File c:\users\alist_000\cppmisc\packages\visualcpptools.14.0.24224-pre\lib\native\include\xlocinfo
; File c:\users\alist_000\cppmisc\packages\visualcpptools.14.0.24224-pre\lib\native\include\xlocale
;	COMDAT ?_Getcat@?$ctype@D@std@@SA_KPEAPEBVfacet@locale@2@PEBV42@@Z
_TEXT	SEGMENT
$T1 = 32
$T2 = 40
$T3 = 72
$T4 = 192
$T5 = 192
_Ppf$ = 192
_Ploc$ = 200
?_Getcat@?$ctype@D@std@@SA_KPEAPEBVfacet@locale@2@PEBV42@@Z PROC ; std::ctype<char>::_Getcat, COMDAT

; 2468 : 		{	// return locale category mask and construct standard facet

$LN35:
  00000	48 8b c4	 mov	 rax, rsp
  00003	57		 push	 rdi
  00004	48 81 ec b0 00
	00 00		 sub	 rsp, 176		; 000000b0H
  0000b	48 c7 44 24 20
	fe ff ff ff	 mov	 QWORD PTR $T1[rsp], -2
  00014	48 89 58 10	 mov	 QWORD PTR [rax+16], rbx
  00018	48 89 70 18	 mov	 QWORD PTR [rax+24], rsi
  0001c	48 8b f2	 mov	 rsi, rdx
  0001f	48 8b d9	 mov	 rbx, rcx
  00022	c7 84 24 c0 00
	00 00 00 00 00
	00		 mov	 DWORD PTR $T4[rsp], 0

; 2469 : 		if (_Ppf != 0 && *_Ppf == 0)

  0002d	48 85 c9	 test	 rcx, rcx
  00030	74 7b		 je	 SHORT $LN33@Getcat
  00032	48 83 39 00	 cmp	 QWORD PTR [rcx], 0
  00036	75 75		 jne	 SHORT $LN33@Getcat

; 2470 : 			*_Ppf = new ctype<_Elem>(

  00038	b9 30 00 00 00	 mov	 ecx, 48			; 00000030H
  0003d	e8 00 00 00 00	 call	 ??2@YAPEAX_K@Z		; operator new
  00042	48 8b f8	 mov	 rdi, rax
  00045	48 89 84 24 c0
	00 00 00	 mov	 QWORD PTR $T5[rsp], rax

; 454  : 		return (_Ptr == 0 ? "" : _Ptr->_Name.c_str());

  0004d	48 8b 4e 08	 mov	 rcx, QWORD PTR [rsi+8]
  00051	48 85 c9	 test	 rcx, rcx
  00054	75 09		 jne	 SHORT $LN12@Getcat
  00056	48 8d 15 00 00
	00 00		 lea	 rdx, OFFSET FLAT:??_C@_00CNPNBAHC@?$AA@
  0005d	eb 0d		 jmp	 SHORT $LN17@Getcat
$LN12@Getcat:
; File c:\users\alist_000\cppmisc\packages\visualcpptools.14.0.24224-pre\lib\native\include\xutility

; 3795 : 		return (_Myptr != 0 ? _Myptr : &_Nul);

  0005f	48 8b 51 28	 mov	 rdx, QWORD PTR [rcx+40]
  00063	48 85 d2	 test	 rdx, rdx
  00066	75 04		 jne	 SHORT $LN17@Getcat
  00068	48 8d 51 30	 lea	 rdx, QWORD PTR [rcx+48]
$LN17@Getcat:
; File c:\users\alist_000\cppmisc\packages\visualcpptools.14.0.24224-pre\lib\native\include\xlocale

; 2470 : 			*_Ppf = new ctype<_Elem>(

  0006c	48 8d 4c 24 48	 lea	 rcx, QWORD PTR $T3[rsp]
  00071	e8 00 00 00 00	 call	 ??0_Locinfo@std@@QEAA@PEBD@Z ; std::_Locinfo::_Locinfo
; File c:\users\alist_000\cppmisc\packages\visualcpptools.14.0.24224-pre\lib\native\include\xatomic0.h

; 63   : 	_Counter = _Value;

  00076	c7 47 08 00 00
	00 00		 mov	 DWORD PTR [rdi+8], 0
; File c:\users\alist_000\cppmisc\packages\visualcpptools.14.0.24224-pre\lib\native\include\xlocale

; 2462 : 		{	// construct from current locale

  0007d	48 8d 05 00 00
	00 00		 lea	 rax, OFFSET FLAT:??_7?$ctype@D@std@@6B@
  00084	48 89 07	 mov	 QWORD PTR [rdi], rax
; File c:\users\alist_000\cppmisc\packages\visualcpptools.14.0.24224-pre\lib\native\include\xlocinfo

; 117  : 		return (::_Getctype());

  00087	48 8d 4c 24 28	 lea	 rcx, QWORD PTR $T2[rsp]
  0008c	e8 00 00 00 00	 call	 _Getctype
; File c:\users\alist_000\cppmisc\packages\visualcpptools.14.0.24224-pre\lib\native\include\xlocale

; 2497 : 		_Ctype = _Lobj._Getctype();

  00091	0f 10 00	 movups	 xmm0, XMMWORD PTR [rax]
  00094	0f 11 47 10	 movups	 XMMWORD PTR [rdi+16], xmm0
  00098	0f 10 48 10	 movups	 xmm1, XMMWORD PTR [rax+16]
  0009c	0f 11 4f 20	 movups	 XMMWORD PTR [rdi+32], xmm1

; 2470 : 			*_Ppf = new ctype<_Elem>(

  000a0	48 89 3b	 mov	 QWORD PTR [rbx], rdi
  000a3	48 8d 4c 24 48	 lea	 rcx, QWORD PTR $T3[rsp]
  000a8	e8 00 00 00 00	 call	 ??1_Locinfo@std@@QEAA@XZ ; std::_Locinfo::~_Locinfo
$LN33@Getcat:

; 2471 : 				_Locinfo(_Ploc->c_str()));
; 2472 : 		return (_X_CTYPE);

  000ad	b8 02 00 00 00	 mov	 eax, 2

; 2473 : 		}

  000b2	4c 8d 9c 24 b0
	00 00 00	 lea	 r11, QWORD PTR [rsp+176]
  000ba	49 8b 5b 18	 mov	 rbx, QWORD PTR [r11+24]
  000be	49 8b 73 20	 mov	 rsi, QWORD PTR [r11+32]
  000c2	49 8b e3	 mov	 rsp, r11
  000c5	5f		 pop	 rdi
  000c6	c3		 ret	 0
?_Getcat@?$ctype@D@std@@SA_KPEAPEBVfacet@locale@2@PEBV42@@Z ENDP ; std::ctype<char>::_Getcat
_TEXT	ENDS
;	COMDAT text$x
text$x	SEGMENT
$T1 = 32
$T2 = 40
$T3 = 72
$T4 = 192
$T5 = 192
_Ppf$ = 192
_Ploc$ = 200
?dtor$0@?0??_Getcat@?$ctype@D@std@@SA_KPEAPEBVfacet@locale@2@PEBV42@@Z@4HA PROC ; `std::ctype<char>::_Getcat'::`1'::dtor$0
  00000	40 55		 push	 rbp
  00002	48 83 ec 20	 sub	 rsp, 32			; 00000020H
  00006	48 8b ea	 mov	 rbp, rdx
  00009	ba 30 00 00 00	 mov	 edx, 48			; 00000030H
  0000e	48 8b 8d c0 00
	00 00		 mov	 rcx, QWORD PTR $T5[rbp]
  00015	e8 00 00 00 00	 call	 ??3@YAXPEAX_K@Z		; operator delete
  0001a	48 83 c4 20	 add	 rsp, 32			; 00000020H
  0001e	5d		 pop	 rbp
  0001f	c3		 ret	 0
?dtor$0@?0??_Getcat@?$ctype@D@std@@SA_KPEAPEBVfacet@locale@2@PEBV42@@Z@4HA ENDP ; `std::ctype<char>::_Getcat'::`1'::dtor$0
text$x	ENDS
; Function compile flags: /Ogtpy
;	COMDAT text$x
text$x	SEGMENT
$T1 = 32
$T2 = 40
$T3 = 72
$T4 = 192
$T5 = 192
_Ppf$ = 192
_Ploc$ = 200
?dtor$0@?0??_Getcat@?$ctype@D@std@@SA_KPEAPEBVfacet@locale@2@PEBV42@@Z@4HA PROC ; `std::ctype<char>::_Getcat'::`1'::dtor$0
  00000	40 55		 push	 rbp
  00002	48 83 ec 20	 sub	 rsp, 32			; 00000020H
  00006	48 8b ea	 mov	 rbp, rdx
  00009	ba 30 00 00 00	 mov	 edx, 48			; 00000030H
  0000e	48 8b 8d c0 00
	00 00		 mov	 rcx, QWORD PTR $T5[rbp]
  00015	e8 00 00 00 00	 call	 ??3@YAXPEAX_K@Z		; operator delete
  0001a	48 83 c4 20	 add	 rsp, 32			; 00000020H
  0001e	5d		 pop	 rbp
  0001f	c3		 ret	 0
?dtor$0@?0??_Getcat@?$ctype@D@std@@SA_KPEAPEBVfacet@locale@2@PEBV42@@Z@4HA ENDP ; `std::ctype<char>::_Getcat'::`1'::dtor$0
text$x	ENDS
; Function compile flags: /Ogtpy
; File c:\users\alist_000\cppmisc\packages\visualcpptools.14.0.24224-pre\lib\native\include\xlocale
; File c:\users\alist_000\cppmisc\packages\visualcpptools.14.0.24224-pre\lib\native\include\xfacet
; File c:\users\alist_000\cppmisc\packages\visualcpptools.14.0.24224-pre\lib\native\include\xlocale
;	COMDAT ??1?$ctype@D@std@@MEAA@XZ
_TEXT	SEGMENT
this$ = 48
??1?$ctype@D@std@@MEAA@XZ PROC				; std::ctype<char>::~ctype<char>, COMDAT

; 2491 : 		{	// destroy the object

$LN19:
  00000	40 53		 push	 rbx
  00002	48 83 ec 20	 sub	 rsp, 32			; 00000020H
  00006	48 8d 05 00 00
	00 00		 lea	 rax, OFFSET FLAT:??_7?$ctype@D@std@@6B@
  0000d	48 8b d9	 mov	 rbx, rcx
  00010	48 89 01	 mov	 QWORD PTR [rcx], rax

; 2502 : 		if (0 < _Ctype._Delfl)

  00013	8b 41 20	 mov	 eax, DWORD PTR [rcx+32]
  00016	85 c0		 test	 eax, eax
  00018	7e 0b		 jle	 SHORT $LN17@ctype

; 2503 : 			_CSTD free((void *)_Ctype._Table);

  0001a	48 8b 49 18	 mov	 rcx, QWORD PTR [rcx+24]
  0001e	e8 00 00 00 00	 call	 free
  00023	eb 0b		 jmp	 SHORT $LN6@ctype
$LN17@ctype:

; 2504 : 		else if (_Ctype._Delfl < 0)

  00025	79 09		 jns	 SHORT $LN6@ctype

; 2505 : 			delete[] _Ctype._Table;

  00027	48 8b 49 18	 mov	 rcx, QWORD PTR [rcx+24]
  0002b	e8 00 00 00 00	 call	 ??_V@YAXPEAX@Z		; operator delete[]
$LN6@ctype:

; 2506 : 
; 2507 : 		_CSTD free(_Ctype._LocaleName);

  00030	48 8b 4b 28	 mov	 rcx, QWORD PTR [rbx+40]
  00034	e8 00 00 00 00	 call	 free
; File c:\users\alist_000\cppmisc\packages\visualcpptools.14.0.24224-pre\lib\native\include\xfacet

; 24   : 		{	// ensure that derived classes can be destroyed properly

  00039	48 8d 05 00 00
	00 00		 lea	 rax, OFFSET FLAT:??_7_Facet_base@std@@6B@
  00040	48 89 03	 mov	 QWORD PTR [rbx], rax
; File c:\users\alist_000\cppmisc\packages\visualcpptools.14.0.24224-pre\lib\native\include\xlocale

; 2493 : 		}

  00043	48 83 c4 20	 add	 rsp, 32			; 00000020H
  00047	5b		 pop	 rbx
  00048	c3		 ret	 0
??1?$ctype@D@std@@MEAA@XZ ENDP				; std::ctype<char>::~ctype<char>
_TEXT	ENDS
; Function compile flags: /Ogtpy
; File c:\users\alist_000\cppmisc\packages\visualcpptools.14.0.24224-pre\lib\native\include\xlocale
; File c:\users\alist_000\cppmisc\packages\visualcpptools.14.0.24224-pre\lib\native\include\xlocinfo
; File c:\users\alist_000\cppmisc\packages\visualcpptools.14.0.24224-pre\lib\native\include\xlocale
;	COMDAT ?_Init@?$ctype@D@std@@IEAAXAEBV_Locinfo@2@@Z
_TEXT	SEGMENT
$T1 = 32
this$ = 80
_Lobj$ = 88
?_Init@?$ctype@D@std@@IEAAXAEBV_Locinfo@2@@Z PROC	; std::ctype<char>::_Init, COMDAT

; 2496 : 		{	// initialize from _Lobj

$LN6:
  00000	40 53		 push	 rbx
  00002	48 83 ec 40	 sub	 rsp, 64			; 00000040H
  00006	48 8b d9	 mov	 rbx, rcx
; File c:\users\alist_000\cppmisc\packages\visualcpptools.14.0.24224-pre\lib\native\include\xlocinfo

; 117  : 		return (::_Getctype());

  00009	48 8d 4c 24 20	 lea	 rcx, QWORD PTR $T1[rsp]
  0000e	e8 00 00 00 00	 call	 _Getctype
; File c:\users\alist_000\cppmisc\packages\visualcpptools.14.0.24224-pre\lib\native\include\xlocale

; 2497 : 		_Ctype = _Lobj._Getctype();

  00013	0f 10 00	 movups	 xmm0, XMMWORD PTR [rax]
  00016	0f 11 43 10	 movups	 XMMWORD PTR [rbx+16], xmm0
  0001a	0f 10 48 10	 movups	 xmm1, XMMWORD PTR [rax+16]
  0001e	0f 11 4b 20	 movups	 XMMWORD PTR [rbx+32], xmm1

; 2498 : 		}

  00022	48 83 c4 40	 add	 rsp, 64			; 00000040H
  00026	5b		 pop	 rbx
  00027	c3		 ret	 0
?_Init@?$ctype@D@std@@IEAAXAEBV_Locinfo@2@@Z ENDP	; std::ctype<char>::_Init
_TEXT	ENDS
; Function compile flags: /Ogtpy
; File c:\users\alist_000\cppmisc\packages\visualcpptools.14.0.24224-pre\lib\native\include\xlocale
;	COMDAT ?_Tidy@?$ctype@D@std@@IEAAXXZ
_TEXT	SEGMENT
this$ = 48
?_Tidy@?$ctype@D@std@@IEAAXXZ PROC			; std::ctype<char>::_Tidy, COMDAT

; 2501 : 		{	// free any allocated storage

$LN8:
  00000	40 53		 push	 rbx
  00002	48 83 ec 20	 sub	 rsp, 32			; 00000020H

; 2502 : 		if (0 < _Ctype._Delfl)

  00006	8b 41 20	 mov	 eax, DWORD PTR [rcx+32]
  00009	48 8b d9	 mov	 rbx, rcx
  0000c	85 c0		 test	 eax, eax
  0000e	7e 17		 jle	 SHORT $LN6@Tidy

; 2503 : 			_CSTD free((void *)_Ctype._Table);

  00010	48 8b 49 18	 mov	 rcx, QWORD PTR [rcx+24]
  00014	e8 00 00 00 00	 call	 free

; 2506 : 
; 2507 : 		_CSTD free(_Ctype._LocaleName);

  00019	48 8b 4b 28	 mov	 rcx, QWORD PTR [rbx+40]

; 2508 : 		}

  0001d	48 83 c4 20	 add	 rsp, 32			; 00000020H
  00021	5b		 pop	 rbx

; 2506 : 
; 2507 : 		_CSTD free(_Ctype._LocaleName);

  00022	e9 00 00 00 00	 jmp	 free
$LN6@Tidy:

; 2504 : 		else if (_Ctype._Delfl < 0)

  00027	79 09		 jns	 SHORT $LN4@Tidy

; 2505 : 			delete[] _Ctype._Table;

  00029	48 8b 49 18	 mov	 rcx, QWORD PTR [rcx+24]
  0002d	e8 00 00 00 00	 call	 ??_V@YAXPEAX@Z		; operator delete[]
$LN4@Tidy:

; 2506 : 
; 2507 : 		_CSTD free(_Ctype._LocaleName);

  00032	48 8b 4b 28	 mov	 rcx, QWORD PTR [rbx+40]

; 2508 : 		}

  00036	48 83 c4 20	 add	 rsp, 32			; 00000020H
  0003a	5b		 pop	 rbx

; 2506 : 
; 2507 : 		_CSTD free(_Ctype._LocaleName);

  0003b	e9 00 00 00 00	 jmp	 free
?_Tidy@?$ctype@D@std@@IEAAXXZ ENDP			; std::ctype<char>::_Tidy
_TEXT	ENDS
; Function compile flags: /Ogtpy
; File c:\users\alist_000\cppmisc\packages\visualcpptools.14.0.24224-pre\lib\native\include\xlocale
;	COMDAT ?do_tolower@?$ctype@D@std@@MEBADD@Z
_TEXT	SEGMENT
this$ = 8
_Ch$ = 16
?do_tolower@?$ctype@D@std@@MEBADD@Z PROC		; std::ctype<char>::do_tolower, COMDAT

; 2511 : 		{	// convert element to lower case

  00000	0f b6 c2	 movzx	 eax, dl

; 2512 : 		return ((_Elem)_Tolower((unsigned char)_Ch, &_Ctype));

  00003	48 8d 51 10	 lea	 rdx, QWORD PTR [rcx+16]
  00007	8b c8		 mov	 ecx, eax
  00009	e9 00 00 00 00	 jmp	 _Tolower
?do_tolower@?$ctype@D@std@@MEBADD@Z ENDP		; std::ctype<char>::do_tolower
_TEXT	ENDS
; Function compile flags: /Ogtpy
; File c:\users\alist_000\cppmisc\packages\visualcpptools.14.0.24224-pre\lib\native\include\xlocale
;	COMDAT ?do_tolower@?$ctype@D@std@@MEBAPEBDPEADPEBD@Z
_TEXT	SEGMENT
this$ = 48
_First$ = 56
_Last$ = 64
?do_tolower@?$ctype@D@std@@MEBAPEBDPEADPEBD@Z PROC	; std::ctype<char>::do_tolower, COMDAT

; 2517 : 		{	// convert [_First, _Last) in place to lower case

$LN12:
  00000	48 89 5c 24 10	 mov	 QWORD PTR [rsp+16], rbx
  00005	48 89 74 24 18	 mov	 QWORD PTR [rsp+24], rsi
  0000a	57		 push	 rdi
  0000b	48 83 ec 20	 sub	 rsp, 32			; 00000020H
  0000f	33 ff		 xor	 edi, edi
  00011	49 8b f0	 mov	 rsi, r8
  00014	48 2b f2	 sub	 rsi, rdx
  00017	48 8b da	 mov	 rbx, rdx
  0001a	49 3b d0	 cmp	 rdx, r8
  0001d	48 0f 47 f7	 cmova	 rsi, rdi

; 2518 : 		_DEBUG_RANGE((const _Elem *)_First, _Last);
; 2519 : 		for (; _First != _Last; ++_First)

  00021	48 85 f6	 test	 rsi, rsi
  00024	74 27		 je	 SHORT $LN10@do_tolower
  00026	48 89 6c 24 30	 mov	 QWORD PTR [rsp+48], rbp
  0002b	48 8d 69 10	 lea	 rbp, QWORD PTR [rcx+16]
  0002f	90		 npad	 1
$LL4@do_tolower:

; 2520 : 			*_First = (_Elem)_Tolower((unsigned char)*_First, &_Ctype);

  00030	0f b6 0b	 movzx	 ecx, BYTE PTR [rbx]
  00033	48 8b d5	 mov	 rdx, rbp
  00036	e8 00 00 00 00	 call	 _Tolower
  0003b	88 03		 mov	 BYTE PTR [rbx], al
  0003d	48 ff c7	 inc	 rdi
  00040	48 ff c3	 inc	 rbx
  00043	48 3b fe	 cmp	 rdi, rsi
  00046	75 e8		 jne	 SHORT $LL4@do_tolower
  00048	48 8b 6c 24 30	 mov	 rbp, QWORD PTR [rsp+48]
$LN10@do_tolower:

; 2521 : 		return ((const _Elem *)_First);
; 2522 : 		}

  0004d	48 8b 74 24 40	 mov	 rsi, QWORD PTR [rsp+64]
  00052	48 8b c3	 mov	 rax, rbx
  00055	48 8b 5c 24 38	 mov	 rbx, QWORD PTR [rsp+56]
  0005a	48 83 c4 20	 add	 rsp, 32			; 00000020H
  0005e	5f		 pop	 rdi
  0005f	c3		 ret	 0
?do_tolower@?$ctype@D@std@@MEBAPEBDPEADPEBD@Z ENDP	; std::ctype<char>::do_tolower
_TEXT	ENDS
; Function compile flags: /Ogtpy
; File c:\users\alist_000\cppmisc\packages\visualcpptools.14.0.24224-pre\lib\native\include\xlocale
;	COMDAT ?do_toupper@?$ctype@D@std@@MEBADD@Z
_TEXT	SEGMENT
this$ = 8
_Ch$ = 16
?do_toupper@?$ctype@D@std@@MEBADD@Z PROC		; std::ctype<char>::do_toupper, COMDAT

; 2525 : 		{	// convert element to upper case

  00000	0f b6 c2	 movzx	 eax, dl

; 2526 : 		return ((_Elem)_Toupper((unsigned char)_Ch, &_Ctype));

  00003	48 8d 51 10	 lea	 rdx, QWORD PTR [rcx+16]
  00007	8b c8		 mov	 ecx, eax
  00009	e9 00 00 00 00	 jmp	 _Toupper
?do_toupper@?$ctype@D@std@@MEBADD@Z ENDP		; std::ctype<char>::do_toupper
_TEXT	ENDS
; Function compile flags: /Ogtpy
; File c:\users\alist_000\cppmisc\packages\visualcpptools.14.0.24224-pre\lib\native\include\xlocale
;	COMDAT ?do_toupper@?$ctype@D@std@@MEBAPEBDPEADPEBD@Z
_TEXT	SEGMENT
this$ = 48
_First$ = 56
_Last$ = 64
?do_toupper@?$ctype@D@std@@MEBAPEBDPEADPEBD@Z PROC	; std::ctype<char>::do_toupper, COMDAT

; 2531 : 		{	// convert [_First, _Last) in place to upper case

$LN12:
  00000	48 89 5c 24 10	 mov	 QWORD PTR [rsp+16], rbx
  00005	48 89 74 24 18	 mov	 QWORD PTR [rsp+24], rsi
  0000a	57		 push	 rdi
  0000b	48 83 ec 20	 sub	 rsp, 32			; 00000020H
  0000f	33 ff		 xor	 edi, edi
  00011	49 8b f0	 mov	 rsi, r8
  00014	48 2b f2	 sub	 rsi, rdx
  00017	48 8b da	 mov	 rbx, rdx
  0001a	49 3b d0	 cmp	 rdx, r8
  0001d	48 0f 47 f7	 cmova	 rsi, rdi

; 2532 : 		_DEBUG_RANGE((const _Elem *)_First, _Last);
; 2533 : 		for (; _First != _Last; ++_First)

  00021	48 85 f6	 test	 rsi, rsi
  00024	74 27		 je	 SHORT $LN10@do_toupper
  00026	48 89 6c 24 30	 mov	 QWORD PTR [rsp+48], rbp
  0002b	48 8d 69 10	 lea	 rbp, QWORD PTR [rcx+16]
  0002f	90		 npad	 1
$LL4@do_toupper:

; 2534 : 			*_First = (_Elem)_Toupper((unsigned char)*_First, &_Ctype);

  00030	0f b6 0b	 movzx	 ecx, BYTE PTR [rbx]
  00033	48 8b d5	 mov	 rdx, rbp
  00036	e8 00 00 00 00	 call	 _Toupper
  0003b	88 03		 mov	 BYTE PTR [rbx], al
  0003d	48 ff c7	 inc	 rdi
  00040	48 ff c3	 inc	 rbx
  00043	48 3b fe	 cmp	 rdi, rsi
  00046	75 e8		 jne	 SHORT $LL4@do_toupper
  00048	48 8b 6c 24 30	 mov	 rbp, QWORD PTR [rsp+48]
$LN10@do_toupper:

; 2535 : 		return ((const _Elem *)_First);
; 2536 : 		}

  0004d	48 8b 74 24 40	 mov	 rsi, QWORD PTR [rsp+64]
  00052	48 8b c3	 mov	 rax, rbx
  00055	48 8b 5c 24 38	 mov	 rbx, QWORD PTR [rsp+56]
  0005a	48 83 c4 20	 add	 rsp, 32			; 00000020H
  0005e	5f		 pop	 rdi
  0005f	c3		 ret	 0
?do_toupper@?$ctype@D@std@@MEBAPEBDPEADPEBD@Z ENDP	; std::ctype<char>::do_toupper
_TEXT	ENDS
; Function compile flags: /Ogtpy
; File c:\users\alist_000\cppmisc\packages\visualcpptools.14.0.24224-pre\lib\native\include\xlocale
;	COMDAT ?do_widen@?$ctype@D@std@@MEBADD@Z
_TEXT	SEGMENT
this$ = 8
_Byte$ = 16
?do_widen@?$ctype@D@std@@MEBADD@Z PROC			; std::ctype<char>::do_widen, COMDAT

; 2540 : 		return (_Byte);

  00000	0f b6 c2	 movzx	 eax, dl

; 2541 : 		}

  00003	c3		 ret	 0
?do_widen@?$ctype@D@std@@MEBADD@Z ENDP			; std::ctype<char>::do_widen
_TEXT	ENDS
; Function compile flags: /Ogtpy
; File c:\users\alist_000\cppmisc\packages\visualcpptools.14.0.24224-pre\lib\native\include\xlocale
;	COMDAT ?do_widen@?$ctype@D@std@@MEBAPEBDPEBD0PEAD@Z
_TEXT	SEGMENT
this$ = 48
_First$ = 56
_Last$ = 64
_Dest$ = 72
?do_widen@?$ctype@D@std@@MEBAPEBDPEBD0PEAD@Z PROC	; std::ctype<char>::do_widen, COMDAT

; 2545 : 		{	// widen chars in [_First, _Last)

$LN4:
  00000	40 53		 push	 rbx
  00002	48 83 ec 20	 sub	 rsp, 32			; 00000020H
  00006	49 8b d8	 mov	 rbx, r8

; 2546 : 		_DEBUG_RANGE_PTR(_First, _Last, _Dest);
; 2547 : 		_CSTD memcpy(_Dest, _First, _Last - _First);

  00009	49 8b c9	 mov	 rcx, r9
  0000c	4c 2b c2	 sub	 r8, rdx
  0000f	e8 00 00 00 00	 call	 memcpy

; 2548 : 		return (_Last);

  00014	48 8b c3	 mov	 rax, rbx

; 2549 : 		}

  00017	48 83 c4 20	 add	 rsp, 32			; 00000020H
  0001b	5b		 pop	 rbx
  0001c	c3		 ret	 0
?do_widen@?$ctype@D@std@@MEBAPEBDPEBD0PEAD@Z ENDP	; std::ctype<char>::do_widen
_TEXT	ENDS
; Function compile flags: /Ogtpy
; File c:\users\alist_000\cppmisc\packages\visualcpptools.14.0.24224-pre\lib\native\include\xlocale
;	COMDAT ?do_narrow@?$ctype@D@std@@MEBADDD@Z
_TEXT	SEGMENT
this$ = 8
_Ch$ = 16
__formal$ = 24
?do_narrow@?$ctype@D@std@@MEBADDD@Z PROC		; std::ctype<char>::do_narrow, COMDAT

; 2553 : 		return (_Ch);

  00000	0f b6 c2	 movzx	 eax, dl

; 2554 : 		}

  00003	c3		 ret	 0
?do_narrow@?$ctype@D@std@@MEBADDD@Z ENDP		; std::ctype<char>::do_narrow
_TEXT	ENDS
; Function compile flags: /Ogtpy
; File c:\users\alist_000\cppmisc\packages\visualcpptools.14.0.24224-pre\lib\native\include\xlocale
;	COMDAT ?do_narrow@?$ctype@D@std@@MEBAPEBDPEBD0DPEAD@Z
_TEXT	SEGMENT
this$ = 48
_First$ = 56
_Last$ = 64
__formal$ = 72
_Dest$ = 80
?do_narrow@?$ctype@D@std@@MEBAPEBDPEBD0DPEAD@Z PROC	; std::ctype<char>::do_narrow, COMDAT

; 2558 : 		{	// narrow elements in [_First, _Last) to chars

$LN4:
  00000	40 53		 push	 rbx
  00002	48 83 ec 20	 sub	 rsp, 32			; 00000020H

; 2559 : 		_DEBUG_RANGE_PTR(_First, _Last, _Dest);
; 2560 : 		_CSTD memcpy(_Dest, _First, _Last - _First);

  00006	48 8b 4c 24 50	 mov	 rcx, QWORD PTR _Dest$[rsp]
  0000b	49 8b d8	 mov	 rbx, r8
  0000e	4c 2b c2	 sub	 r8, rdx
  00011	e8 00 00 00 00	 call	 memcpy

; 2561 : 		return (_Last);

  00016	48 8b c3	 mov	 rax, rbx

; 2562 : 		}

  00019	48 83 c4 20	 add	 rsp, 32			; 00000020H
  0001d	5b		 pop	 rbx
  0001e	c3		 ret	 0
?do_narrow@?$ctype@D@std@@MEBAPEBDPEBD0DPEAD@Z ENDP	; std::ctype<char>::do_narrow
_TEXT	ENDS
; Function compile flags: /Ogtpy
; File c:\users\alist_000\cppmisc\packages\visualcpptools.14.0.24224-pre\lib\native\include\xlocale
; File c:\users\alist_000\cppmisc\packages\visualcpptools.14.0.24224-pre\lib\native\include\xfacet
;	COMDAT ??_G?$ctype@D@std@@MEAAPEAXI@Z
_TEXT	SEGMENT
this$ = 48
__flags$ = 56
??_G?$ctype@D@std@@MEAAPEAXI@Z PROC			; std::ctype<char>::`scalar deleting destructor', COMDAT
$LN24:
  00000	48 89 5c 24 08	 mov	 QWORD PTR [rsp+8], rbx
  00005	57		 push	 rdi
  00006	48 83 ec 20	 sub	 rsp, 32			; 00000020H
; File c:\users\alist_000\cppmisc\packages\visualcpptools.14.0.24224-pre\lib\native\include\xlocale

; 2491 : 		{	// destroy the object

  0000a	48 8d 05 00 00
	00 00		 lea	 rax, OFFSET FLAT:??_7?$ctype@D@std@@6B@
  00011	8b fa		 mov	 edi, edx
  00013	48 89 01	 mov	 QWORD PTR [rcx], rax
  00016	48 8b d9	 mov	 rbx, rcx

; 2502 : 		if (0 < _Ctype._Delfl)

  00019	8b 41 20	 mov	 eax, DWORD PTR [rcx+32]
  0001c	85 c0		 test	 eax, eax
  0001e	7e 0b		 jle	 SHORT $LN22@scalar

; 2503 : 			_CSTD free((void *)_Ctype._Table);

  00020	48 8b 49 18	 mov	 rcx, QWORD PTR [rcx+24]
  00024	e8 00 00 00 00	 call	 free
  00029	eb 0b		 jmp	 SHORT $LN10@scalar
$LN22@scalar:

; 2504 : 		else if (_Ctype._Delfl < 0)

  0002b	79 09		 jns	 SHORT $LN10@scalar

; 2505 : 			delete[] _Ctype._Table;

  0002d	48 8b 49 18	 mov	 rcx, QWORD PTR [rcx+24]
  00031	e8 00 00 00 00	 call	 ??_V@YAXPEAX@Z		; operator delete[]
$LN10@scalar:

; 2506 : 
; 2507 : 		_CSTD free(_Ctype._LocaleName);

  00036	48 8b 4b 28	 mov	 rcx, QWORD PTR [rbx+40]
  0003a	e8 00 00 00 00	 call	 free
; File c:\users\alist_000\cppmisc\packages\visualcpptools.14.0.24224-pre\lib\native\include\xfacet

; 24   : 		{	// ensure that derived classes can be destroyed properly

  0003f	48 8d 05 00 00
	00 00		 lea	 rax, OFFSET FLAT:??_7_Facet_base@std@@6B@
  00046	48 89 03	 mov	 QWORD PTR [rbx], rax
  00049	40 f6 c7 01	 test	 dil, 1
  0004d	74 0d		 je	 SHORT $LN21@scalar
  0004f	ba 30 00 00 00	 mov	 edx, 48			; 00000030H
  00054	48 8b cb	 mov	 rcx, rbx
  00057	e8 00 00 00 00	 call	 ??3@YAXPEAX_K@Z		; operator delete
$LN21@scalar:
  0005c	48 8b c3	 mov	 rax, rbx
  0005f	48 8b 5c 24 30	 mov	 rbx, QWORD PTR [rsp+48]
  00064	48 83 c4 20	 add	 rsp, 32			; 00000020H
  00068	5f		 pop	 rdi
  00069	c3		 ret	 0
??_G?$ctype@D@std@@MEAAPEAXI@Z ENDP			; std::ctype<char>::`scalar deleting destructor'
_TEXT	ENDS
; Function compile flags: /Ogtpy
; File c:\users\alist_000\cppmisc\packages\visualcpptools.14.0.24224-pre\lib\native\include\system_error
;	COMDAT ??0error_category@std@@QEAA@XZ
_TEXT	SEGMENT
this$ = 8
??0error_category@std@@QEAA@XZ PROC			; std::error_category::error_category, COMDAT

; 169  : 		{	// default constructor

  00000	48 8d 05 00 00
	00 00		 lea	 rax, OFFSET FLAT:??_7error_category@std@@6B@

; 170  : 		_Addr = reinterpret_cast<uintptr_t>(this);

  00007	48 89 49 08	 mov	 QWORD PTR [rcx+8], rcx
  0000b	48 89 01	 mov	 QWORD PTR [rcx], rax

; 171  : 		}

  0000e	48 8b c1	 mov	 rax, rcx
  00011	c3		 ret	 0
??0error_category@std@@QEAA@XZ ENDP			; std::error_category::error_category
_TEXT	ENDS
; Function compile flags: /Ogtpy
; File c:\users\alist_000\cppmisc\packages\visualcpptools.14.0.24224-pre\lib\native\include\system_error
;	COMDAT ??1error_category@std@@UEAA@XZ
_TEXT	SEGMENT
this$ = 8
??1error_category@std@@UEAA@XZ PROC			; std::error_category::~error_category, COMDAT

; 174  : 		{	// destroy the object

  00000	48 8d 05 00 00
	00 00		 lea	 rax, OFFSET FLAT:??_7error_category@std@@6B@
  00007	48 89 01	 mov	 QWORD PTR [rcx], rax

; 175  : 		}

  0000a	c3		 ret	 0
??1error_category@std@@UEAA@XZ ENDP			; std::error_category::~error_category
_TEXT	ENDS
; Function compile flags: /Ogtpy
; File c:\users\alist_000\cppmisc\packages\visualcpptools.14.0.24224-pre\lib\native\include\system_error
;	COMDAT ??8error_category@std@@QEBA_NAEBV01@@Z
_TEXT	SEGMENT
this$ = 8
_Right$ = 16
??8error_category@std@@QEBA_NAEBV01@@Z PROC		; std::error_category::operator==, COMDAT

; 191  : 		{	// compare categories for equality

  00000	48 8b 42 08	 mov	 rax, QWORD PTR [rdx+8]
  00004	48 39 41 08	 cmp	 QWORD PTR [rcx+8], rax
  00008	0f 94 c0	 sete	 al

; 192  : 		return (_Addr == _Right._Addr);
; 193  : 		}

  0000b	c3		 ret	 0
??8error_category@std@@QEBA_NAEBV01@@Z ENDP		; std::error_category::operator==
_TEXT	ENDS
; Function compile flags: /Ogtpy
; File c:\users\alist_000\cppmisc\packages\visualcpptools.14.0.24224-pre\lib\native\include\system_error
;	COMDAT ??_Gerror_category@std@@UEAAPEAXI@Z
_TEXT	SEGMENT
this$ = 48
__flags$ = 56
??_Gerror_category@std@@UEAAPEAXI@Z PROC		; std::error_category::`scalar deleting destructor', COMDAT
$LN9:
  00000	40 53		 push	 rbx
  00002	48 83 ec 20	 sub	 rsp, 32			; 00000020H

; 174  : 		{	// destroy the object

  00006	48 8d 05 00 00
	00 00		 lea	 rax, OFFSET FLAT:??_7error_category@std@@6B@
  0000d	48 8b d9	 mov	 rbx, rcx
  00010	48 89 01	 mov	 QWORD PTR [rcx], rax
  00013	f6 c2 01	 test	 dl, 1
  00016	74 0a		 je	 SHORT $LN7@scalar
  00018	ba 10 00 00 00	 mov	 edx, 16
  0001d	e8 00 00 00 00	 call	 ??3@YAXPEAX_K@Z		; operator delete
$LN7@scalar:
  00022	48 8b c3	 mov	 rax, rbx
  00025	48 83 c4 20	 add	 rsp, 32			; 00000020H
  00029	5b		 pop	 rbx
  0002a	c3		 ret	 0
??_Gerror_category@std@@UEAAPEAXI@Z ENDP		; std::error_category::`scalar deleting destructor'
_TEXT	ENDS
; Function compile flags: /Ogtpy
; File c:\users\alist_000\cppmisc\packages\visualcpptools.14.0.24224-pre\lib\native\include\system_error
;	COMDAT ??0error_code@std@@QEAA@HAEBVerror_category@1@@Z
_TEXT	SEGMENT
this$ = 8
_Val$ = 16
_Cat$ = 24
??0error_code@std@@QEAA@HAEBVerror_category@1@@Z PROC	; std::error_code::error_code, COMDAT

; 233  : 		: _Myval(_Val), _Mycat(&_Cat)

  00000	89 11		 mov	 DWORD PTR [rcx], edx

; 235  : 		}

  00002	48 8b c1	 mov	 rax, rcx
  00005	4c 89 41 08	 mov	 QWORD PTR [rcx+8], r8
  00009	c3		 ret	 0
??0error_code@std@@QEAA@HAEBVerror_category@1@@Z ENDP	; std::error_code::error_code
_TEXT	ENDS
; Function compile flags: /Ogtpy
; File c:\users\alist_000\cppmisc\packages\visualcpptools.14.0.24224-pre\lib\native\include\system_error
;	COMDAT ?value@error_code@std@@QEBAHXZ
_TEXT	SEGMENT
this$ = 8
?value@error_code@std@@QEBAHXZ PROC			; std::error_code::value, COMDAT

; 268  : 		return (_Myval);

  00000	8b 01		 mov	 eax, DWORD PTR [rcx]

; 269  : 		}

  00002	c3		 ret	 0
?value@error_code@std@@QEBAHXZ ENDP			; std::error_code::value
_TEXT	ENDS
; Function compile flags: /Ogtpy
; File c:\users\alist_000\cppmisc\packages\visualcpptools.14.0.24224-pre\lib\native\include\system_error
;	COMDAT ?category@error_code@std@@QEBAAEBVerror_category@2@XZ
_TEXT	SEGMENT
this$ = 8
?category@error_code@std@@QEBAAEBVerror_category@2@XZ PROC ; std::error_code::category, COMDAT

; 273  : 		return (*_Mycat);

  00000	48 8b 41 08	 mov	 rax, QWORD PTR [rcx+8]

; 274  : 		}

  00004	c3		 ret	 0
?category@error_code@std@@QEBAAEBVerror_category@2@XZ ENDP ; std::error_code::category
_TEXT	ENDS
; Function compile flags: /Ogtpy
; File c:\users\alist_000\cppmisc\packages\visualcpptools.14.0.24224-pre\lib\native\include\system_error
;	COMDAT ?message@error_code@std@@QEBA?AV?$basic_string@DU?$char_traits@D@std@@V?$allocator@D@2@@2@XZ
_TEXT	SEGMENT
$T1 = 32
this$ = 64
__$ReturnUdt$ = 72
?message@error_code@std@@QEBA?AV?$basic_string@DU?$char_traits@D@std@@V?$allocator@D@2@@2@XZ PROC ; std::error_code::message, COMDAT

; 279  : 		{	// get name of error code

$LN12:
  00000	40 53		 push	 rbx
  00002	48 83 ec 30	 sub	 rsp, 48			; 00000030H

; 280  : 		return (category().message(value()));

  00006	44 8b 01	 mov	 r8d, DWORD PTR [rcx]
  00009	48 8b da	 mov	 rbx, rdx

; 273  : 		return (*_Mycat);

  0000c	48 8b 49 08	 mov	 rcx, QWORD PTR [rcx+8]
  00010	c7 44 24 20 00
	00 00 00	 mov	 DWORD PTR $T1[rsp], 0

; 280  : 		return (category().message(value()));

  00018	48 8b 01	 mov	 rax, QWORD PTR [rcx]
  0001b	ff 50 10	 call	 QWORD PTR [rax+16]
  0001e	48 8b c3	 mov	 rax, rbx

; 281  : 		}

  00021	48 83 c4 30	 add	 rsp, 48			; 00000030H
  00025	5b		 pop	 rbx
  00026	c3		 ret	 0
?message@error_code@std@@QEBA?AV?$basic_string@DU?$char_traits@D@std@@V?$allocator@D@2@@2@XZ ENDP ; std::error_code::message
_TEXT	ENDS
; Function compile flags: /Ogtpy
; File c:\users\alist_000\cppmisc\packages\visualcpptools.14.0.24224-pre\lib\native\include\system_error
;	COMDAT ??0error_condition@std@@QEAA@HAEBVerror_category@1@@Z
_TEXT	SEGMENT
this$ = 8
_Val$ = 16
_Cat$ = 24
??0error_condition@std@@QEAA@HAEBVerror_category@1@@Z PROC ; std::error_condition::error_condition, COMDAT

; 306  : 		: _Myval(_Val), _Mycat(&_Cat)

  00000	89 11		 mov	 DWORD PTR [rcx], edx

; 308  : 		}

  00002	48 8b c1	 mov	 rax, rcx
  00005	4c 89 41 08	 mov	 QWORD PTR [rcx+8], r8
  00009	c3		 ret	 0
??0error_condition@std@@QEAA@HAEBVerror_category@1@@Z ENDP ; std::error_condition::error_condition
_TEXT	ENDS
; Function compile flags: /Ogtpy
; File c:\users\alist_000\cppmisc\packages\visualcpptools.14.0.24224-pre\lib\native\include\system_error
;	COMDAT ?value@error_condition@std@@QEBAHXZ
_TEXT	SEGMENT
this$ = 8
?value@error_condition@std@@QEBAHXZ PROC		; std::error_condition::value, COMDAT

; 341  : 		return (_Myval);

  00000	8b 01		 mov	 eax, DWORD PTR [rcx]

; 342  : 		}

  00002	c3		 ret	 0
?value@error_condition@std@@QEBAHXZ ENDP		; std::error_condition::value
_TEXT	ENDS
; Function compile flags: /Ogtpy
; File c:\users\alist_000\cppmisc\packages\visualcpptools.14.0.24224-pre\lib\native\include\system_error
;	COMDAT ?category@error_condition@std@@QEBAAEBVerror_category@2@XZ
_TEXT	SEGMENT
this$ = 8
?category@error_condition@std@@QEBAAEBVerror_category@2@XZ PROC ; std::error_condition::category, COMDAT

; 346  : 		return (*_Mycat);

  00000	48 8b 41 08	 mov	 rax, QWORD PTR [rcx+8]

; 347  : 		}

  00004	c3		 ret	 0
?category@error_condition@std@@QEBAAEBVerror_category@2@XZ ENDP ; std::error_condition::category
_TEXT	ENDS
; Function compile flags: /Ogtpy
; File c:\users\alist_000\cppmisc\packages\visualcpptools.14.0.24224-pre\lib\native\include\system_error
;	COMDAT ??8std@@YA_NAEBVerror_condition@0@0@Z
_TEXT	SEGMENT
_Left$ = 8
_Right$ = 16
??8std@@YA_NAEBVerror_condition@0@0@Z PROC		; std::operator==, COMDAT

; 192  : 		return (_Addr == _Right._Addr);

  00000	48 8b 42 08	 mov	 rax, QWORD PTR [rdx+8]
  00004	4c 8b 49 08	 mov	 r9, QWORD PTR [rcx+8]
  00008	4c 8b 40 08	 mov	 r8, QWORD PTR [rax+8]
  0000c	4d 39 41 08	 cmp	 QWORD PTR [r9+8], r8

; 393  : 	return (_Left.category() == _Right.category()

  00010	75 09		 jne	 SHORT $LN3@operator
  00012	8b 02		 mov	 eax, DWORD PTR [rdx]
  00014	39 01		 cmp	 DWORD PTR [rcx], eax
  00016	75 03		 jne	 SHORT $LN3@operator
  00018	b0 01		 mov	 al, 1

; 394  : 		&& _Left.value() == _Right.value());
; 395  : 	}

  0001a	c3		 ret	 0
$LN3@operator:

; 393  : 	return (_Left.category() == _Right.category()

  0001b	32 c0		 xor	 al, al

; 394  : 		&& _Left.value() == _Right.value());
; 395  : 	}

  0001d	c3		 ret	 0
??8std@@YA_NAEBVerror_condition@0@0@Z ENDP		; std::operator==
_TEXT	ENDS
; Function compile flags: /Ogtpy
; File c:\users\alist_000\cppmisc\packages\visualcpptools.14.0.24224-pre\lib\native\include\system_error
;	COMDAT ?default_error_condition@error_category@std@@UEBA?AVerror_condition@2@H@Z
_TEXT	SEGMENT
this$ = 8
__$ReturnUdt$ = 16
_Errval$ = 24
?default_error_condition@error_category@std@@UEBA?AVerror_condition@2@H@Z PROC ; std::error_category::default_error_condition, COMDAT

; 306  : 		: _Myval(_Val), _Mycat(&_Cat)

  00000	44 89 02	 mov	 DWORD PTR [rdx], r8d

; 449  : 	return (error_condition(_Errval, *this));

  00003	48 8b c2	 mov	 rax, rdx

; 306  : 		: _Myval(_Val), _Mycat(&_Cat)

  00006	48 89 4a 08	 mov	 QWORD PTR [rdx+8], rcx

; 450  : 	}

  0000a	c3		 ret	 0
?default_error_condition@error_category@std@@UEBA?AVerror_condition@2@H@Z ENDP ; std::error_category::default_error_condition
_TEXT	ENDS
; Function compile flags: /Ogtpy
; File c:\users\alist_000\cppmisc\packages\visualcpptools.14.0.24224-pre\lib\native\include\system_error
;	COMDAT ?equivalent@error_category@std@@UEBA_NHAEBVerror_condition@2@@Z
_TEXT	SEGMENT
$T1 = 32
this$ = 64
_Errval$ = 72
_Cond$ = 80
?equivalent@error_category@std@@UEBA_NHAEBVerror_condition@2@@Z PROC ; std::error_category::equivalent, COMDAT

; 455  : 	{	// test if error code same condition

$LN32:
  00000	40 53		 push	 rbx
  00002	48 83 ec 30	 sub	 rsp, 48			; 00000030H
  00006	48 8b 01	 mov	 rax, QWORD PTR [rcx]
  00009	49 8b d8	 mov	 rbx, r8
  0000c	4c 8b 48 18	 mov	 r9, QWORD PTR [rax+24]
  00010	48 8d 05 00 00
	00 00		 lea	 rax, OFFSET FLAT:?default_error_condition@error_category@std@@UEBA?AVerror_condition@2@H@Z ; std::error_category::default_error_condition
  00017	4c 3b c8	 cmp	 r9, rax
  0001a	75 36		 jne	 SHORT $LN31@equivalent

; 306  : 		: _Myval(_Val), _Mycat(&_Cat)

  0001c	89 54 24 20	 mov	 DWORD PTR $T1[rsp], edx

; 449  : 	return (error_condition(_Errval, *this));

  00020	48 8d 44 24 20	 lea	 rax, QWORD PTR $T1[rsp]

; 306  : 		: _Myval(_Val), _Mycat(&_Cat)

  00025	48 89 4c 24 28	 mov	 QWORD PTR $T1[rsp+8], rcx
$LN3@equivalent:

; 192  : 		return (_Addr == _Right._Addr);

  0002a	48 8b 4b 08	 mov	 rcx, QWORD PTR [rbx+8]
  0002e	4c 8b 40 08	 mov	 r8, QWORD PTR [rax+8]
  00032	48 8b 51 08	 mov	 rdx, QWORD PTR [rcx+8]
  00036	49 39 50 08	 cmp	 QWORD PTR [r8+8], rdx

; 393  : 	return (_Left.category() == _Right.category()

  0003a	75 0e		 jne	 SHORT $LN13@equivalent
  0003c	8b 0b		 mov	 ecx, DWORD PTR [rbx]
  0003e	39 08		 cmp	 DWORD PTR [rax], ecx
  00040	75 08		 jne	 SHORT $LN13@equivalent

; 456  : 	return (default_error_condition(_Errval) == _Cond);

  00042	b0 01		 mov	 al, 1

; 457  : 	}

  00044	48 83 c4 30	 add	 rsp, 48			; 00000030H
  00048	5b		 pop	 rbx
  00049	c3		 ret	 0
$LN13@equivalent:

; 456  : 	return (default_error_condition(_Errval) == _Cond);

  0004a	32 c0		 xor	 al, al

; 457  : 	}

  0004c	48 83 c4 30	 add	 rsp, 48			; 00000030H
  00050	5b		 pop	 rbx
  00051	c3		 ret	 0
$LN31@equivalent:
  00052	44 8b c2	 mov	 r8d, edx
  00055	48 8d 54 24 20	 lea	 rdx, QWORD PTR $T1[rsp]

; 456  : 	return (default_error_condition(_Errval) == _Cond);

  0005a	41 ff d1	 call	 r9
  0005d	eb cb		 jmp	 SHORT $LN3@equivalent
?equivalent@error_category@std@@UEBA_NHAEBVerror_condition@2@@Z ENDP ; std::error_category::equivalent
_TEXT	ENDS
; Function compile flags: /Ogtpy
; File c:\users\alist_000\cppmisc\packages\visualcpptools.14.0.24224-pre\lib\native\include\system_error
;	COMDAT ?equivalent@error_category@std@@UEBA_NAEBVerror_code@2@H@Z
_TEXT	SEGMENT
this$ = 8
_Code$ = 16
_Errval$ = 24
?equivalent@error_category@std@@UEBA_NAEBVerror_code@2@H@Z PROC ; std::error_category::equivalent, COMDAT

; 192  : 		return (_Addr == _Right._Addr);

  00000	48 8b 42 08	 mov	 rax, QWORD PTR [rdx+8]
  00004	4c 8b 48 08	 mov	 r9, QWORD PTR [rax+8]
  00008	4c 39 49 08	 cmp	 QWORD PTR [rcx+8], r9

; 463  : 	return (*this == _Code.category() && _Code.value() == _Errval);

  0000c	75 08		 jne	 SHORT $LN3@equivalent
  0000e	44 39 02	 cmp	 DWORD PTR [rdx], r8d
  00011	75 03		 jne	 SHORT $LN3@equivalent
  00013	b0 01		 mov	 al, 1

; 464  : 	}

  00015	c3		 ret	 0
$LN3@equivalent:

; 463  : 	return (*this == _Code.category() && _Code.value() == _Errval);

  00016	32 c0		 xor	 al, al

; 464  : 	}

  00018	c3		 ret	 0
?equivalent@error_category@std@@UEBA_NAEBVerror_code@2@H@Z ENDP ; std::error_category::equivalent
_TEXT	ENDS
; Function compile flags: /Ogtpy
; File c:\users\alist_000\cppmisc\packages\visualcpptools.14.0.24224-pre\lib\native\include\system_error
;	COMDAT ?make_error_code@std@@YA?AVerror_code@1@W4io_errc@1@@Z
_TEXT	SEGMENT
__$ReturnUdt$ = 48
_Errno$ = 56
?make_error_code@std@@YA?AVerror_code@1@W4io_errc@1@@Z PROC ; std::make_error_code, COMDAT

; 479  : 	{	// make an error_code

$LN29:
  00000	48 89 5c 24 08	 mov	 QWORD PTR [rsp+8], rbx
  00005	57		 push	 rdi
  00006	48 83 ec 20	 sub	 rsp, 32			; 00000020H

; 698  : 	/* MAGIC */ static _Immortalizer<_Ty> _Static;

  0000a	65 48 8b 04 25
	58 00 00 00	 mov	 rax, QWORD PTR gs:88

; 479  : 	{	// make an error_code

  00013	48 8b d9	 mov	 rbx, rcx

; 698  : 	/* MAGIC */ static _Immortalizer<_Ty> _Static;

  00016	b9 00 00 00 00	 mov	 ecx, OFFSET FLAT:_Init_thread_epoch

; 479  : 	{	// make an error_code

  0001b	8b fa		 mov	 edi, edx

; 698  : 	/* MAGIC */ static _Immortalizer<_Ty> _Static;

  0001d	4c 8b 00	 mov	 r8, QWORD PTR [rax]
  00020	42 8b 04 01	 mov	 eax, DWORD PTR [rcx+r8]
  00024	39 05 00 00 00
	00		 cmp	 DWORD PTR ?$TSS0@?1???$_Immortalize@V_Iostream_error_category@std@@@std@@YAAEAV_Iostream_error_category@1@XZ@4HA, eax ; TSS0<`template-parameter-2',unsigned int,std::V_Iostream_error_category::mortalize>
  0002a	7f 1b		 jg	 SHORT $LN27@make_error
$LN7@make_error:

; 233  : 		: _Myval(_Val), _Mycat(&_Cat)

  0002c	48 8d 05 00 00
	00 00		 lea	 rax, OFFSET FLAT:?_Static@?1???$_Immortalize@V_Iostream_error_category@std@@@std@@YAAEAV_Iostream_error_category@1@XZ@4U?$_Immortalizer@V_Iostream_error_category@std@@@1@A ; `std::_Immortalize<std::_Iostream_error_category>'::`2'::_Static
  00033	89 3b		 mov	 DWORD PTR [rbx], edi
  00035	48 89 43 08	 mov	 QWORD PTR [rbx+8], rax

; 480  : 	return (error_code((int)_Errno, iostream_category()));

  00039	48 8b c3	 mov	 rax, rbx

; 481  : 	}

  0003c	48 8b 5c 24 30	 mov	 rbx, QWORD PTR [rsp+48]
  00041	48 83 c4 20	 add	 rsp, 32			; 00000020H
  00045	5f		 pop	 rdi
  00046	c3		 ret	 0
$LN27@make_error:

; 698  : 	/* MAGIC */ static _Immortalizer<_Ty> _Static;

  00047	48 8d 0d 00 00
	00 00		 lea	 rcx, OFFSET FLAT:?$TSS0@?1???$_Immortalize@V_Iostream_error_category@std@@@std@@YAAEAV_Iostream_error_category@1@XZ@4HA ; TSS0<`template-parameter-2',unsigned int,std::V_Iostream_error_category::mortalize>
  0004e	e8 00 00 00 00	 call	 _Init_thread_header
  00053	83 3d 00 00 00
	00 ff		 cmp	 DWORD PTR ?$TSS0@?1???$_Immortalize@V_Iostream_error_category@std@@@std@@YAAEAV_Iostream_error_category@1@XZ@4HA, -1 ; TSS0<`template-parameter-2',unsigned int,std::V_Iostream_error_category::mortalize>
  0005a	75 d0		 jne	 SHORT $LN7@make_error

; 616  : 		{	// default constructor

  0005c	48 8d 05 00 00
	00 00		 lea	 rax, OFFSET FLAT:??_7_Iostream_error_category@std@@6B@

; 617  : 		_Addr = _Iostream_addr;

  00063	48 c7 05 08 00
	00 00 05 00 00
	00		 mov	 QWORD PTR ?_Static@?1???$_Immortalize@V_Iostream_error_category@std@@@std@@YAAEAV_Iostream_error_category@1@XZ@4U?$_Immortalizer@V_Iostream_error_category@std@@@1@A+8, 5

; 698  : 	/* MAGIC */ static _Immortalizer<_Ty> _Static;

  0006e	48 8d 0d 00 00
	00 00		 lea	 rcx, OFFSET FLAT:??__F_Static@?1???$_Immortalize@V_Iostream_error_category@std@@@std@@YAAEAV_Iostream_error_category@0@XZ@YAXXZ ; `std::_Immortalize<std::_Iostream_error_category>'::`2'::`dynamic atexit destructor for '_Static''

; 616  : 		{	// default constructor

  00075	48 89 05 00 00
	00 00		 mov	 QWORD PTR ?_Static@?1???$_Immortalize@V_Iostream_error_category@std@@@std@@YAAEAV_Iostream_error_category@1@XZ@4U?$_Immortalizer@V_Iostream_error_category@std@@@1@A, rax

; 698  : 	/* MAGIC */ static _Immortalizer<_Ty> _Static;

  0007c	e8 00 00 00 00	 call	 atexit
  00081	48 8d 0d 00 00
	00 00		 lea	 rcx, OFFSET FLAT:?$TSS0@?1???$_Immortalize@V_Iostream_error_category@std@@@std@@YAAEAV_Iostream_error_category@1@XZ@4HA ; TSS0<`template-parameter-2',unsigned int,std::V_Iostream_error_category::mortalize>
  00088	e8 00 00 00 00	 call	 _Init_thread_footer
  0008d	eb 9d		 jmp	 SHORT $LN7@make_error
?make_error_code@std@@YA?AVerror_code@1@W4io_errc@1@@Z ENDP ; std::make_error_code
_TEXT	ENDS
; Function compile flags: /Ogtpy
; File c:\users\alist_000\cppmisc\packages\visualcpptools.14.0.24224-pre\lib\native\include\system_error
; File c:\users\alist_000\cppmisc\packages\visualcpptools.14.0.24224-pre\lib\native\include\xstring
; File c:\users\alist_000\cppmisc\packages\visualcpptools.14.0.24224-pre\lib\native\include\system_error
; File c:\users\alist_000\cppmisc\packages\visualcpptools.14.0.24224-pre\lib\native\include\xstring
; File c:\users\alist_000\cppmisc\packages\visualcpptools.14.0.24224-pre\lib\native\include\xmemory0
; File c:\users\alist_000\cppmisc\packages\visualcpptools.14.0.24224-pre\lib\native\include\system_error
;	COMDAT ?_Makestr@_System_error@std@@CA?AV?$basic_string@DU?$char_traits@D@std@@V?$allocator@D@2@@2@Verror_code@2@V32@@Z
_TEXT	SEGMENT
$T1 = 32
$T2 = 40
_Message$GSCopy$ = 48
$T3 = 56
__$ArrayPad$ = 88
__$ReturnUdt$ = 128
_Errcode$ = 136
_Message$ = 144
?_Makestr@_System_error@std@@CA?AV?$basic_string@DU?$char_traits@D@std@@V?$allocator@D@2@@2@Verror_code@2@V32@@Z PROC ; std::_System_error::_Makestr, COMDAT

; 513  : 		{	// compose error message

$LN147:
  00000	40 53		 push	 rbx
  00002	56		 push	 rsi
  00003	57		 push	 rdi
  00004	48 83 ec 60	 sub	 rsp, 96			; 00000060H
  00008	48 c7 44 24 28
	fe ff ff ff	 mov	 QWORD PTR $T2[rsp], -2
  00011	48 8b 05 00 00
	00 00		 mov	 rax, QWORD PTR __security_cookie
  00018	48 33 c4	 xor	 rax, rsp
  0001b	48 89 44 24 58	 mov	 QWORD PTR __$ArrayPad$[rsp], rax
  00020	49 8b d8	 mov	 rbx, r8
  00023	48 8b f2	 mov	 rsi, rdx
  00026	48 8b f9	 mov	 rdi, rcx
  00029	48 89 5c 24 30	 mov	 QWORD PTR _Message$GSCopy$[rsp], rbx
  0002e	c7 44 24 20 00
	00 00 00	 mov	 DWORD PTR $T1[rsp], 0
  00036	49 83 78 10 00	 cmp	 QWORD PTR [r8+16], 0

; 514  : 		if (!_Message.empty())

  0003b	74 15		 je	 SHORT $LN2@Makestr
; File c:\users\alist_000\cppmisc\packages\visualcpptools.14.0.24224-pre\lib\native\include\xstring

; 1102 : 		return (append(_Ptr, _Traits::length(_Ptr)));

  0003d	41 b8 02 00 00
	00		 mov	 r8d, 2
  00043	48 8d 15 00 00
	00 00		 lea	 rdx, OFFSET FLAT:??_C@_02LMMGGCAJ@?3?5?$AA@
  0004a	48 8b cb	 mov	 rcx, rbx
  0004d	e8 00 00 00 00	 call	 ?append@?$basic_string@DU?$char_traits@D@std@@V?$allocator@D@2@@std@@QEAAAEAV12@PEBD_K@Z ; std::basic_string<char,std::char_traits<char>,std::allocator<char> >::append
$LN2@Makestr:
; File c:\users\alist_000\cppmisc\packages\visualcpptools.14.0.24224-pre\lib\native\include\system_error

; 516  : 		_Message.append(_Errcode.message());

  00052	48 8d 54 24 38	 lea	 rdx, QWORD PTR $T3[rsp]
  00057	48 8b ce	 mov	 rcx, rsi
  0005a	e8 00 00 00 00	 call	 ?message@error_code@std@@QEBA?AV?$basic_string@DU?$char_traits@D@std@@V?$allocator@D@2@@2@XZ ; std::error_code::message
  0005f	90		 npad	 1
; File c:\users\alist_000\cppmisc\packages\visualcpptools.14.0.24224-pre\lib\native\include\xstring

; 1060 : 		return (append(_Right, 0, npos));

  00060	49 83 c9 ff	 or	 r9, -1
  00064	45 33 c0	 xor	 r8d, r8d
  00067	48 8b d0	 mov	 rdx, rax
  0006a	48 8b cb	 mov	 rcx, rbx
  0006d	e8 00 00 00 00	 call	 ?append@?$basic_string@DU?$char_traits@D@std@@V?$allocator@D@2@@std@@QEAAAEAV12@AEBV12@_K1@Z ; std::basic_string<char,std::char_traits<char>,std::allocator<char> >::append
  00072	90		 npad	 1

; 2248 : 		else if (this->_BUF_SIZE <= this->_Myres())

  00073	48 8b 44 24 50	 mov	 rax, QWORD PTR $T3[rsp+24]
  00078	48 83 f8 10	 cmp	 rax, 16
  0007c	72 4d		 jb	 SHORT $LN114@Makestr

; 2249 : 			{	// copy any leftovers to small buffer and deallocate
; 2250 : 			pointer _Ptr = this->_Bx()._Ptr;
; 2251 : 			this->_Getal().destroy(_STD addressof(this->_Bx()._Ptr));
; 2252 : 			if (0 < _Newsize)
; 2253 : 				_Traits::copy(this->_Bx()._Buf,
; 2254 : 					_Unfancy(_Ptr), _Newsize);
; 2255 : 			this->_Getal().deallocate(_Ptr, this->_Myres() + 1);

  0007e	48 ff c0	 inc	 rax
; File c:\users\alist_000\cppmisc\packages\visualcpptools.14.0.24224-pre\lib\native\include\xmemory0

; 720  : 		_Deallocate(_Ptr, _Count, sizeof (_Ty));

  00081	48 8b 4c 24 38	 mov	 rcx, QWORD PTR $T3[rsp]

; 96   : 	if (_BIG_ALLOCATION_THRESHOLD <= _User_size)

  00086	48 3d 00 10 00
	00		 cmp	 rax, 4096		; 00001000H
  0008c	72 38		 jb	 SHORT $LN109@Makestr

; 97   : 		{	// deallocate large block
; 98   : 		const uintptr_t _Ptr_user = reinterpret_cast<uintptr_t>(_Ptr);
; 99   : 		_SCL_SECURE_ALWAYS_VALIDATE(

  0008e	f6 c1 1f	 test	 cl, 31
  00091	74 06		 je	 SHORT $LN110@Makestr
  00093	e8 00 00 00 00	 call	 _invalid_parameter_noinfo_noreturn
  00098	cc		 int	 3
$LN110@Makestr:

; 100  : 			(_Ptr_user & (_BIG_ALLOCATION_ALIGNMENT - 1)) == 0);
; 101  : 		const uintptr_t _Ptr_ptr = _Ptr_user - sizeof(void *);
; 102  : 		const uintptr_t _Ptr_container =
; 103  : 			*reinterpret_cast<uintptr_t *>(_Ptr_ptr);

  00099	48 8b 41 f8	 mov	 rax, QWORD PTR [rcx-8]

; 104  : 
; 105  :  #ifdef _DEBUG
; 106  : 		// If the following asserts, it likely means that we are performing
; 107  : 		// an aligned delete on memory coming from an unaligned allocation.
; 108  : 		_SCL_SECURE_ALWAYS_VALIDATE(
; 109  : 			reinterpret_cast<uintptr_t *>(_Ptr_ptr)[-1] ==
; 110  : 				_BIG_ALLOCATION_SENTINEL);
; 111  :  #endif /* _DEBUG */
; 112  : 
; 113  : 		// Extra paranoia on aligned allocation/deallocation
; 114  : 		_SCL_SECURE_ALWAYS_VALIDATE(_Ptr_container < _Ptr_user);

  0009d	48 3b c1	 cmp	 rax, rcx
  000a0	72 06		 jb	 SHORT $LN111@Makestr
  000a2	e8 00 00 00 00	 call	 _invalid_parameter_noinfo_noreturn
  000a7	cc		 int	 3
$LN111@Makestr:

; 115  : 
; 116  :  #ifdef _DEBUG
; 117  : 		_SCL_SECURE_ALWAYS_VALIDATE(2 * sizeof(void *)
; 118  : 			<= _Ptr_user - _Ptr_container);
; 119  : 
; 120  :  #else /* _DEBUG */
; 121  : 		_SCL_SECURE_ALWAYS_VALIDATE(sizeof(void *)

  000a8	48 2b c8	 sub	 rcx, rax
  000ab	48 83 f9 08	 cmp	 rcx, 8
  000af	73 06		 jae	 SHORT $LN112@Makestr
  000b1	e8 00 00 00 00	 call	 _invalid_parameter_noinfo_noreturn
  000b6	cc		 int	 3
$LN112@Makestr:

; 122  : 			<= _Ptr_user - _Ptr_container);
; 123  :  #endif /* _DEBUG */
; 124  : 
; 125  : 		_SCL_SECURE_ALWAYS_VALIDATE(_Ptr_user - _Ptr_container

  000b7	48 83 f9 27	 cmp	 rcx, 39			; 00000027H
  000bb	76 06		 jbe	 SHORT $LN113@Makestr
  000bd	e8 00 00 00 00	 call	 _invalid_parameter_noinfo_noreturn
  000c2	cc		 int	 3
$LN113@Makestr:

; 126  : 			<= _NON_USER_SIZE);
; 127  : 
; 128  : 		_Ptr = reinterpret_cast<void *>(_Ptr_container);

  000c3	48 8b c8	 mov	 rcx, rax
$LN109@Makestr:

; 129  : 		}
; 130  :  #endif /* defined(_M_IX86) || defined(_M_X64) */
; 131  : 
; 132  : 	::operator delete(_Ptr);

  000c6	e8 00 00 00 00	 call	 ??3@YAXPEAX@Z		; operator delete
$LN114@Makestr:
; File c:\users\alist_000\cppmisc\packages\visualcpptools.14.0.24224-pre\lib\native\include\system_error

; 517  : 		return (_Message);

  000cb	48 8b d3	 mov	 rdx, rbx
  000ce	48 8b cf	 mov	 rcx, rdi
  000d1	e8 00 00 00 00	 call	 ??0?$basic_string@DU?$char_traits@D@std@@V?$allocator@D@2@@std@@QEAA@$$QEAV01@@Z ; std::basic_string<char,std::char_traits<char>,std::allocator<char> >::basic_string<char,std::char_traits<char>,std::allocator<char> >
  000d6	90		 npad	 1
  000d7	48 8b cb	 mov	 rcx, rbx
  000da	e8 00 00 00 00	 call	 ??1?$basic_string@DU?$char_traits@D@std@@V?$allocator@D@2@@std@@QEAA@XZ ; std::basic_string<char,std::char_traits<char>,std::allocator<char> >::~basic_string<char,std::char_traits<char>,std::allocator<char> >
  000df	48 8b c7	 mov	 rax, rdi

; 518  : 		}

  000e2	48 8b 4c 24 58	 mov	 rcx, QWORD PTR __$ArrayPad$[rsp]
  000e7	48 33 cc	 xor	 rcx, rsp
  000ea	e8 00 00 00 00	 call	 __security_check_cookie
  000ef	48 83 c4 60	 add	 rsp, 96			; 00000060H
  000f3	5f		 pop	 rdi
  000f4	5e		 pop	 rsi
  000f5	5b		 pop	 rbx
  000f6	c3		 ret	 0
$LN146@Makestr:
?_Makestr@_System_error@std@@CA?AV?$basic_string@DU?$char_traits@D@std@@V?$allocator@D@2@@2@Verror_code@2@V32@@Z ENDP ; std::_System_error::_Makestr
_TEXT	ENDS
;	COMDAT text$x
text$x	SEGMENT
$T1 = 32
$T2 = 40
_Message$GSCopy$ = 48
$T3 = 56
__$ArrayPad$ = 88
__$ReturnUdt$ = 128
_Errcode$ = 136
_Message$ = 144
?dtor$0@?0??_Makestr@_System_error@std@@CA?AV?$basic_string@DU?$char_traits@D@std@@V?$allocator@D@2@@2@Verror_code@2@V32@@Z@4HA PROC ; `std::_System_error::_Makestr'::`1'::dtor$0
  00000	48 8b 8a 30 00
	00 00		 mov	 rcx, QWORD PTR _Message$GSCopy$[rdx]
  00007	e9 00 00 00 00	 jmp	 ??1?$basic_string@DU?$char_traits@D@std@@V?$allocator@D@2@@std@@QEAA@XZ ; std::basic_string<char,std::char_traits<char>,std::allocator<char> >::~basic_string<char,std::char_traits<char>,std::allocator<char> >
?dtor$0@?0??_Makestr@_System_error@std@@CA?AV?$basic_string@DU?$char_traits@D@std@@V?$allocator@D@2@@2@Verror_code@2@V32@@Z@4HA ENDP ; `std::_System_error::_Makestr'::`1'::dtor$0
$T1 = 32
$T2 = 40
_Message$GSCopy$ = 48
$T3 = 56
__$ArrayPad$ = 88
__$ReturnUdt$ = 128
_Errcode$ = 136
_Message$ = 144
?dtor$1@?0??_Makestr@_System_error@std@@CA?AV?$basic_string@DU?$char_traits@D@std@@V?$allocator@D@2@@2@Verror_code@2@V32@@Z@4HA PROC ; `std::_System_error::_Makestr'::`1'::dtor$1
  0000c	48 8d 8a 38 00
	00 00		 lea	 rcx, QWORD PTR $T3[rdx]
  00013	e9 00 00 00 00	 jmp	 ??1?$basic_string@DU?$char_traits@D@std@@V?$allocator@D@2@@std@@QEAA@XZ ; std::basic_string<char,std::char_traits<char>,std::allocator<char> >::~basic_string<char,std::char_traits<char>,std::allocator<char> >
?dtor$1@?0??_Makestr@_System_error@std@@CA?AV?$basic_string@DU?$char_traits@D@std@@V?$allocator@D@2@@2@Verror_code@2@V32@@Z@4HA ENDP ; `std::_System_error::_Makestr'::`1'::dtor$1
text$x	ENDS
; Function compile flags: /Ogtpy
;	COMDAT text$x
text$x	SEGMENT
$T1 = 32
$T2 = 40
_Message$GSCopy$ = 48
$T3 = 56
__$ArrayPad$ = 88
__$ReturnUdt$ = 128
_Errcode$ = 136
_Message$ = 144
?dtor$0@?0??_Makestr@_System_error@std@@CA?AV?$basic_string@DU?$char_traits@D@std@@V?$allocator@D@2@@2@Verror_code@2@V32@@Z@4HA PROC ; `std::_System_error::_Makestr'::`1'::dtor$0
  00000	48 8b 8a 30 00
	00 00		 mov	 rcx, QWORD PTR _Message$GSCopy$[rdx]
  00007	e9 00 00 00 00	 jmp	 ??1?$basic_string@DU?$char_traits@D@std@@V?$allocator@D@2@@std@@QEAA@XZ ; std::basic_string<char,std::char_traits<char>,std::allocator<char> >::~basic_string<char,std::char_traits<char>,std::allocator<char> >
?dtor$0@?0??_Makestr@_System_error@std@@CA?AV?$basic_string@DU?$char_traits@D@std@@V?$allocator@D@2@@2@Verror_code@2@V32@@Z@4HA ENDP ; `std::_System_error::_Makestr'::`1'::dtor$0
text$x	ENDS
; Function compile flags: /Ogtpy
;	COMDAT text$x
text$x	SEGMENT
$T1 = 32
$T2 = 40
_Message$GSCopy$ = 48
$T3 = 56
__$ArrayPad$ = 88
__$ReturnUdt$ = 128
_Errcode$ = 136
_Message$ = 144
?dtor$1@?0??_Makestr@_System_error@std@@CA?AV?$basic_string@DU?$char_traits@D@std@@V?$allocator@D@2@@2@Verror_code@2@V32@@Z@4HA PROC ; `std::_System_error::_Makestr'::`1'::dtor$1
  0000c	48 8d 8a 38 00
	00 00		 lea	 rcx, QWORD PTR $T3[rdx]
  00013	e9 00 00 00 00	 jmp	 ??1?$basic_string@DU?$char_traits@D@std@@V?$allocator@D@2@@std@@QEAA@XZ ; std::basic_string<char,std::char_traits<char>,std::allocator<char> >::~basic_string<char,std::char_traits<char>,std::allocator<char> >
?dtor$1@?0??_Makestr@_System_error@std@@CA?AV?$basic_string@DU?$char_traits@D@std@@V?$allocator@D@2@@2@Verror_code@2@V32@@Z@4HA ENDP ; `std::_System_error::_Makestr'::`1'::dtor$1
text$x	ENDS
; Function compile flags: /Ogtpy
; File c:\users\alist_000\cppmisc\packages\visualcpptools.14.0.24224-pre\lib\native\include\system_error
; File c:\users\alist_000\cppmisc\packages\visualcpptools.14.0.24224-pre\lib\native\include\xstring
; File c:\users\alist_000\cppmisc\packages\visualcpptools.14.0.24224-pre\lib\native\include\system_error
; File c:\users\alist_000\cppmisc\packages\visualcpptools.14.0.24224-pre\lib\native\include\xstring
; File c:\users\alist_000\cppmisc\packages\visualcpptools.14.0.24224-pre\lib\native\include\system_error
; File c:\users\alist_000\cppmisc\packages\visualcpptools.14.0.24224-pre\lib\native\include\iosfwd
; File c:\users\alist_000\cppmisc\packages\visualcpptools.14.0.24224-pre\lib\native\include\xstring
; File c:\users\alist_000\cppmisc\packages\visualcpptools.14.0.24224-pre\lib\native\include\system_error
; File c:\users\alist_000\cppmisc\packages\visualcpptools.14.0.24224-pre\lib\native\include\xstring
; File c:\users\alist_000\cppmisc\packages\visualcpptools.14.0.24224-pre\lib\native\include\xstddef
; File c:\users\alist_000\cppmisc\packages\visualcpptools.14.0.24224-pre\lib\native\include\vcruntime_exception.h
; File c:\users\alist_000\cppmisc\packages\visualcpptools.14.0.24224-pre\lib\native\include\stdexcept
; File c:\users\alist_000\cppmisc\packages\visualcpptools.14.0.24224-pre\lib\native\include\xstring
; File c:\users\alist_000\cppmisc\packages\visualcpptools.14.0.24224-pre\lib\native\include\xmemory0
; File c:\users\alist_000\cppmisc\packages\visualcpptools.14.0.24224-pre\lib\native\include\xstring
; File c:\users\alist_000\cppmisc\packages\visualcpptools.14.0.24224-pre\lib\native\include\xmemory0
; File c:\users\alist_000\cppmisc\packages\visualcpptools.14.0.24224-pre\lib\native\include\system_error
; File c:\users\alist_000\cppmisc\packages\visualcpptools.14.0.24224-pre\lib\native\include\xmemory0
; File c:\users\alist_000\cppmisc\packages\visualcpptools.14.0.24224-pre\lib\native\include\system_error
;	COMDAT ??0_System_error@std@@IEAA@Verror_code@1@AEBV?$basic_string@DU?$char_traits@D@std@@V?$allocator@D@2@@1@@Z
_TEXT	SEGMENT
_InitData$1 = 32
$T2 = 32
$T3 = 48
$T4 = 80
__$ArrayPad$ = 112
this$ = 144
_Errcode$ = 152
_Message$ = 160
??0_System_error@std@@IEAA@Verror_code@1@AEBV?$basic_string@DU?$char_traits@D@std@@V?$allocator@D@2@@1@@Z PROC ; std::_System_error::_System_error, COMDAT

; 523  : 		{	// construct from error code and message string

$LN292:
  00000	48 89 5c 24 20	 mov	 QWORD PTR [rsp+32], rbx
  00005	57		 push	 rdi
  00006	48 81 ec 80 00
	00 00		 sub	 rsp, 128		; 00000080H
  0000d	48 8b 05 00 00
	00 00		 mov	 rax, QWORD PTR __security_cookie
  00014	48 33 c4	 xor	 rax, rsp
  00017	48 89 44 24 70	 mov	 QWORD PTR __$ArrayPad$[rsp], rax
  0001c	49 8b c0	 mov	 rax, r8
; File c:\users\alist_000\cppmisc\packages\visualcpptools.14.0.24224-pre\lib\native\include\xstring

; 2257 : 		this->_Myres() = this->_BUF_SIZE - 1;

  0001f	48 c7 44 24 48
	0f 00 00 00	 mov	 QWORD PTR $T3[rsp+24], 15
; File c:\users\alist_000\cppmisc\packages\visualcpptools.14.0.24224-pre\lib\native\include\system_error

; 523  : 		{	// construct from error code and message string

  00028	48 8b fa	 mov	 rdi, rdx
; File c:\users\alist_000\cppmisc\packages\visualcpptools.14.0.24224-pre\lib\native\include\xstring

; 2216 : 		_Traits::assign(_Dx._Myptr()[_Dx._Mysize = _Newsize], _Elem());

  0002b	48 c7 44 24 40
	00 00 00 00	 mov	 QWORD PTR $T3[rsp+16], 0
; File c:\users\alist_000\cppmisc\packages\visualcpptools.14.0.24224-pre\lib\native\include\system_error

; 523  : 		{	// construct from error code and message string

  00034	48 8b d9	 mov	 rbx, rcx
; File c:\users\alist_000\cppmisc\packages\visualcpptools.14.0.24224-pre\lib\native\include\iosfwd

; 565  : 		_Left = _Right;

  00037	c6 44 24 30 00	 mov	 BYTE PTR $T3[rsp], 0
; File c:\users\alist_000\cppmisc\packages\visualcpptools.14.0.24224-pre\lib\native\include\xstring

; 777  : 		assign(_Right, 0, npos);

  0003c	48 8b d0	 mov	 rdx, rax
  0003f	48 8d 4c 24 30	 lea	 rcx, QWORD PTR $T3[rsp]
  00044	49 83 c9 ff	 or	 r9, -1
  00048	45 33 c0	 xor	 r8d, r8d
  0004b	e8 00 00 00 00	 call	 ?assign@?$basic_string@DU?$char_traits@D@std@@V?$allocator@D@2@@std@@QEAAAEAV12@AEBV12@_K1@Z ; std::basic_string<char,std::char_traits<char>,std::allocator<char> >::assign
; File c:\users\alist_000\cppmisc\packages\visualcpptools.14.0.24224-pre\lib\native\include\system_error

; 522  : 		: runtime_error(_Makestr(_Errcode, _Message)), _Mycode(_Errcode)

  00050	0f 10 07	 movups	 xmm0, XMMWORD PTR [rdi]
  00053	4c 8d 44 24 30	 lea	 r8, QWORD PTR $T3[rsp]
  00058	48 8d 54 24 20	 lea	 rdx, QWORD PTR $T2[rsp]
  0005d	48 8d 4c 24 50	 lea	 rcx, QWORD PTR $T4[rsp]
  00062	0f 29 44 24 20	 movaps	 XMMWORD PTR $T2[rsp], xmm0
  00067	e8 00 00 00 00	 call	 ?_Makestr@_System_error@std@@CA?AV?$basic_string@DU?$char_traits@D@std@@V?$allocator@D@2@@2@Verror_code@2@V32@@Z ; std::_System_error::_Makestr
; File c:\users\alist_000\cppmisc\packages\visualcpptools.14.0.24224-pre\lib\native\include\xstring

; 516  : 		return (this->_BUF_SIZE <= _Myres

  0006c	48 83 78 18 10	 cmp	 QWORD PTR [rax+24], 16
  00071	72 03		 jb	 SHORT $LN163@System_err
; File c:\users\alist_000\cppmisc\packages\visualcpptools.14.0.24224-pre\lib\native\include\xstddef

; 740  : 	return (_Ptr);

  00073	48 8b 00	 mov	 rax, QWORD PTR [rax]
$LN163@System_err:
; File c:\users\alist_000\cppmisc\packages\visualcpptools.14.0.24224-pre\lib\native\include\vcruntime_exception.h

; 52   :         : _Data()

  00076	48 8d 53 08	 lea	 rdx, QWORD PTR [rbx+8]

; 53   :     {
; 54   :         __std_exception_data _InitData = { _Message, true };

  0007a	48 89 44 24 20	 mov	 QWORD PTR _InitData$1[rsp], rax
  0007f	48 8d 0d 00 00
	00 00		 lea	 rcx, OFFSET FLAT:??_7exception@std@@6B@
  00086	c6 44 24 28 01	 mov	 BYTE PTR _InitData$1[rsp+8], 1
  0008b	48 89 0b	 mov	 QWORD PTR [rbx], rcx
  0008e	33 c9		 xor	 ecx, ecx
  00090	48 89 0a	 mov	 QWORD PTR [rdx], rcx
  00093	48 89 4a 08	 mov	 QWORD PTR [rdx+8], rcx

; 55   :         __std_exception_copy(&_InitData, &_Data);

  00097	48 8d 4c 24 20	 lea	 rcx, QWORD PTR _InitData$1[rsp]
  0009c	e8 00 00 00 00	 call	 __std_exception_copy
; File c:\users\alist_000\cppmisc\packages\visualcpptools.14.0.24224-pre\lib\native\include\stdexcept

; 163  : 		{	// construct from message string

  000a1	48 8d 05 00 00
	00 00		 lea	 rax, OFFSET FLAT:??_7runtime_error@std@@6B@
  000a8	48 89 03	 mov	 QWORD PTR [rbx], rax
; File c:\users\alist_000\cppmisc\packages\visualcpptools.14.0.24224-pre\lib\native\include\xstring

; 2248 : 		else if (this->_BUF_SIZE <= this->_Myres())

  000ab	48 8b 44 24 68	 mov	 rax, QWORD PTR $T4[rsp+24]
  000b0	48 83 f8 10	 cmp	 rax, 16
  000b4	72 35		 jb	 SHORT $LN255@System_err
; File c:\users\alist_000\cppmisc\packages\visualcpptools.14.0.24224-pre\lib\native\include\xmemory0

; 720  : 		_Deallocate(_Ptr, _Count, sizeof (_Ty));

  000b6	48 8b 4c 24 50	 mov	 rcx, QWORD PTR $T4[rsp]
; File c:\users\alist_000\cppmisc\packages\visualcpptools.14.0.24224-pre\lib\native\include\xstring

; 2255 : 			this->_Getal().deallocate(_Ptr, this->_Myres() + 1);

  000bb	48 ff c0	 inc	 rax
; File c:\users\alist_000\cppmisc\packages\visualcpptools.14.0.24224-pre\lib\native\include\xmemory0

; 96   : 	if (_BIG_ALLOCATION_THRESHOLD <= _User_size)

  000be	48 3d 00 10 00
	00		 cmp	 rax, 4096		; 00001000H
  000c4	72 20		 jb	 SHORT $LN250@System_err

; 99   : 		_SCL_SECURE_ALWAYS_VALIDATE(

  000c6	f6 c1 1f	 test	 cl, 31
  000c9	75 52		 jne	 SHORT $LN287@System_err

; 100  : 			(_Ptr_user & (_BIG_ALLOCATION_ALIGNMENT - 1)) == 0);
; 101  : 		const uintptr_t _Ptr_ptr = _Ptr_user - sizeof(void *);
; 102  : 		const uintptr_t _Ptr_container =
; 103  : 			*reinterpret_cast<uintptr_t *>(_Ptr_ptr);

  000cb	48 8b 41 f8	 mov	 rax, QWORD PTR [rcx-8]

; 104  : 
; 105  :  #ifdef _DEBUG
; 106  : 		// If the following asserts, it likely means that we are performing
; 107  : 		// an aligned delete on memory coming from an unaligned allocation.
; 108  : 		_SCL_SECURE_ALWAYS_VALIDATE(
; 109  : 			reinterpret_cast<uintptr_t *>(_Ptr_ptr)[-1] ==
; 110  : 				_BIG_ALLOCATION_SENTINEL);
; 111  :  #endif /* _DEBUG */
; 112  : 
; 113  : 		// Extra paranoia on aligned allocation/deallocation
; 114  : 		_SCL_SECURE_ALWAYS_VALIDATE(_Ptr_container < _Ptr_user);

  000cf	48 3b c1	 cmp	 rax, rcx
  000d2	73 4f		 jae	 SHORT $LN289@System_err

; 115  : 
; 116  :  #ifdef _DEBUG
; 117  : 		_SCL_SECURE_ALWAYS_VALIDATE(2 * sizeof(void *)
; 118  : 			<= _Ptr_user - _Ptr_container);
; 119  : 
; 120  :  #else /* _DEBUG */
; 121  : 		_SCL_SECURE_ALWAYS_VALIDATE(sizeof(void *)

  000d4	48 2b c8	 sub	 rcx, rax
  000d7	48 83 f9 08	 cmp	 rcx, 8
  000db	72 4c		 jb	 SHORT $LN290@System_err

; 122  : 			<= _Ptr_user - _Ptr_container);
; 123  :  #endif /* _DEBUG */
; 124  : 
; 125  : 		_SCL_SECURE_ALWAYS_VALIDATE(_Ptr_user - _Ptr_container

  000dd	48 83 f9 27	 cmp	 rcx, 39			; 00000027H
  000e1	77 4c		 ja	 SHORT $LN291@System_err

; 126  : 			<= _NON_USER_SIZE);
; 127  : 
; 128  : 		_Ptr = reinterpret_cast<void *>(_Ptr_container);

  000e3	48 8b c8	 mov	 rcx, rax
$LN250@System_err:

; 129  : 		}
; 130  :  #endif /* defined(_M_IX86) || defined(_M_X64) */
; 131  : 
; 132  : 	::operator delete(_Ptr);

  000e6	e8 00 00 00 00	 call	 ??3@YAXPEAX@Z		; operator delete
$LN255@System_err:
; File c:\users\alist_000\cppmisc\packages\visualcpptools.14.0.24224-pre\lib\native\include\system_error

; 523  : 		{	// construct from error code and message string

  000eb	48 8d 05 00 00
	00 00		 lea	 rax, OFFSET FLAT:??_7_System_error@std@@6B@
  000f2	48 89 03	 mov	 QWORD PTR [rbx], rax

; 524  : 		}

  000f5	48 8b c3	 mov	 rax, rbx
  000f8	0f 10 07	 movups	 xmm0, XMMWORD PTR [rdi]
  000fb	0f 11 43 18	 movups	 XMMWORD PTR [rbx+24], xmm0
  000ff	48 8b 4c 24 70	 mov	 rcx, QWORD PTR __$ArrayPad$[rsp]
  00104	48 33 cc	 xor	 rcx, rsp
  00107	e8 00 00 00 00	 call	 __security_check_cookie
  0010c	48 8b 9c 24 a8
	00 00 00	 mov	 rbx, QWORD PTR [rsp+168]
  00114	48 81 c4 80 00
	00 00		 add	 rsp, 128		; 00000080H
  0011b	5f		 pop	 rdi
  0011c	c3		 ret	 0
$LN287@System_err:
; File c:\users\alist_000\cppmisc\packages\visualcpptools.14.0.24224-pre\lib\native\include\xmemory0

; 99   : 		_SCL_SECURE_ALWAYS_VALIDATE(

  0011d	e8 00 00 00 00	 call	 _invalid_parameter_noinfo_noreturn
  00122	cc		 int	 3
$LN289@System_err:

; 104  : 
; 105  :  #ifdef _DEBUG
; 106  : 		// If the following asserts, it likely means that we are performing
; 107  : 		// an aligned delete on memory coming from an unaligned allocation.
; 108  : 		_SCL_SECURE_ALWAYS_VALIDATE(
; 109  : 			reinterpret_cast<uintptr_t *>(_Ptr_ptr)[-1] ==
; 110  : 				_BIG_ALLOCATION_SENTINEL);
; 111  :  #endif /* _DEBUG */
; 112  : 
; 113  : 		// Extra paranoia on aligned allocation/deallocation
; 114  : 		_SCL_SECURE_ALWAYS_VALIDATE(_Ptr_container < _Ptr_user);

  00123	e8 00 00 00 00	 call	 _invalid_parameter_noinfo_noreturn
  00128	cc		 int	 3
$LN290@System_err:

; 115  : 
; 116  :  #ifdef _DEBUG
; 117  : 		_SCL_SECURE_ALWAYS_VALIDATE(2 * sizeof(void *)
; 118  : 			<= _Ptr_user - _Ptr_container);
; 119  : 
; 120  :  #else /* _DEBUG */
; 121  : 		_SCL_SECURE_ALWAYS_VALIDATE(sizeof(void *)

  00129	e8 00 00 00 00	 call	 _invalid_parameter_noinfo_noreturn
  0012e	cc		 int	 3
$LN291@System_err:

; 122  : 			<= _Ptr_user - _Ptr_container);
; 123  :  #endif /* _DEBUG */
; 124  : 
; 125  : 		_SCL_SECURE_ALWAYS_VALIDATE(_Ptr_user - _Ptr_container

  0012f	e8 00 00 00 00	 call	 _invalid_parameter_noinfo_noreturn
  00134	cc		 int	 3
$LN286@System_err:
??0_System_error@std@@IEAA@Verror_code@1@AEBV?$basic_string@DU?$char_traits@D@std@@V?$allocator@D@2@@1@@Z ENDP ; std::_System_error::_System_error
_TEXT	ENDS
; Function compile flags: /Ogtpy
; File c:\users\alist_000\cppmisc\packages\visualcpptools.14.0.24224-pre\lib\native\include\vcruntime_exception.h
;	COMDAT ??_G_System_error@std@@UEAAPEAXI@Z
_TEXT	SEGMENT
this$ = 48
__flags$ = 56
??_G_System_error@std@@UEAAPEAXI@Z PROC			; std::_System_error::`scalar deleting destructor', COMDAT
$LN14:
  00000	48 89 5c 24 08	 mov	 QWORD PTR [rsp+8], rbx
  00005	57		 push	 rdi
  00006	48 83 ec 20	 sub	 rsp, 32			; 00000020H

; 83   :     {

  0000a	48 8d 05 00 00
	00 00		 lea	 rax, OFFSET FLAT:??_7exception@std@@6B@
  00011	48 8b f9	 mov	 rdi, rcx
  00014	48 89 01	 mov	 QWORD PTR [rcx], rax
  00017	8b da		 mov	 ebx, edx

; 84   :         __std_exception_destroy(&_Data);

  00019	48 83 c1 08	 add	 rcx, 8
  0001d	e8 00 00 00 00	 call	 __std_exception_destroy
  00022	f6 c3 01	 test	 bl, 1
  00025	74 0d		 je	 SHORT $LN12@scalar
  00027	ba 28 00 00 00	 mov	 edx, 40			; 00000028H
  0002c	48 8b cf	 mov	 rcx, rdi
  0002f	e8 00 00 00 00	 call	 ??3@YAXPEAX_K@Z		; operator delete
$LN12@scalar:
  00034	48 8b c7	 mov	 rax, rdi
  00037	48 8b 5c 24 30	 mov	 rbx, QWORD PTR [rsp+48]
  0003c	48 83 c4 20	 add	 rsp, 32			; 00000020H
  00040	5f		 pop	 rdi
  00041	c3		 ret	 0
??_G_System_error@std@@UEAAPEAXI@Z ENDP			; std::_System_error::`scalar deleting destructor'
_TEXT	ENDS
; Function compile flags: /Ogtpy
; File c:\users\alist_000\cppmisc\packages\visualcpptools.14.0.24224-pre\lib\native\include\vcruntime_exception.h
;	COMDAT ??1_System_error@std@@UEAA@XZ
_TEXT	SEGMENT
this$ = 8
??1_System_error@std@@UEAA@XZ PROC			; std::_System_error::~_System_error, COMDAT

; 83   :     {

  00000	48 8d 05 00 00
	00 00		 lea	 rax, OFFSET FLAT:??_7exception@std@@6B@
  00007	48 89 01	 mov	 QWORD PTR [rcx], rax

; 84   :         __std_exception_destroy(&_Data);

  0000a	48 83 c1 08	 add	 rcx, 8
  0000e	e9 00 00 00 00	 jmp	 __std_exception_destroy
??1_System_error@std@@UEAA@XZ ENDP			; std::_System_error::~_System_error
_TEXT	ENDS
; Function compile flags: /Ogtpy
; File c:\users\alist_000\cppmisc\packages\visualcpptools.14.0.24224-pre\lib\native\include\system_error
; File c:\users\alist_000\cppmisc\packages\visualcpptools.14.0.24224-pre\lib\native\include\xstring
; File c:\users\alist_000\cppmisc\packages\visualcpptools.14.0.24224-pre\lib\native\include\iosfwd
; File c:\users\alist_000\cppmisc\packages\visualcpptools.14.0.24224-pre\lib\native\include\xstring
; File c:\users\alist_000\cppmisc\packages\visualcpptools.14.0.24224-pre\lib\native\include\system_error
; File c:\users\alist_000\cppmisc\packages\visualcpptools.14.0.24224-pre\lib\native\include\xstring
; File c:\users\alist_000\cppmisc\packages\visualcpptools.14.0.24224-pre\lib\native\include\xmemory0
; File c:\users\alist_000\cppmisc\packages\visualcpptools.14.0.24224-pre\lib\native\include\system_error
;	COMDAT ??0system_error@std@@QEAA@Verror_code@1@PEBD@Z
_TEXT	SEGMENT
$T1 = 48
$T2 = 64
__$ArrayPad$ = 96
this$ = 128
_Errcode$ = 136
_Message$ = 144
??0system_error@std@@QEAA@Verror_code@1@PEBD@Z PROC	; std::system_error::system_error, COMDAT

; 548  : 		{	// construct from error code and message string

$LN253:
  00000	4c 8b dc	 mov	 r11, rsp
  00003	57		 push	 rdi
  00004	48 83 ec 70	 sub	 rsp, 112		; 00000070H
  00008	49 c7 43 a8 fe
	ff ff ff	 mov	 QWORD PTR [r11-88], -2
  00010	49 89 5b 20	 mov	 QWORD PTR [r11+32], rbx
  00014	48 8b 05 00 00
	00 00		 mov	 rax, QWORD PTR __security_cookie
  0001b	48 33 c4	 xor	 rax, rsp
  0001e	48 89 44 24 60	 mov	 QWORD PTR __$ArrayPad$[rsp], rax
  00023	49 8b c0	 mov	 rax, r8
  00026	48 8b fa	 mov	 rdi, rdx
  00029	48 8b d9	 mov	 rbx, rcx
; File c:\users\alist_000\cppmisc\packages\visualcpptools.14.0.24224-pre\lib\native\include\xstring

; 2257 : 		this->_Myres() = this->_BUF_SIZE - 1;

  0002c	49 c7 43 e0 0f
	00 00 00	 mov	 QWORD PTR [r11-32], 15

; 2216 : 		_Traits::assign(_Dx._Myptr()[_Dx._Mysize = _Newsize], _Elem());

  00034	45 33 c0	 xor	 r8d, r8d
  00037	4d 89 43 d8	 mov	 QWORD PTR [r11-40], r8
; File c:\users\alist_000\cppmisc\packages\visualcpptools.14.0.24224-pre\lib\native\include\iosfwd

; 565  : 		_Left = _Right;

  0003b	45 88 43 c8	 mov	 BYTE PTR [r11-56], r8b

; 523  : 		return (*_First == 0 ? 0

  0003f	44 38 00	 cmp	 BYTE PTR [rax], r8b
  00042	74 16		 je	 SHORT $LN132@system_err
  00044	49 83 c8 ff	 or	 r8, -1
  00048	0f 1f 84 00 00
	00 00 00	 npad	 8
$LL251@system_err:
  00050	49 ff c0	 inc	 r8
  00053	42 80 3c 00 00	 cmp	 BYTE PTR [rax+r8], 0
  00058	75 f6		 jne	 SHORT $LL251@system_err
$LN132@system_err:
; File c:\users\alist_000\cppmisc\packages\visualcpptools.14.0.24224-pre\lib\native\include\xstring

; 1177 : 		return (assign(_Ptr, _Traits::length(_Ptr)));

  0005a	48 8b d0	 mov	 rdx, rax
  0005d	48 8d 4c 24 40	 lea	 rcx, QWORD PTR $T2[rsp]
  00062	e8 00 00 00 00	 call	 ?assign@?$basic_string@DU?$char_traits@D@std@@V?$allocator@D@2@@std@@QEAAAEAV12@PEBD_K@Z ; std::basic_string<char,std::char_traits<char>,std::allocator<char> >::assign
  00067	90		 npad	 1
; File c:\users\alist_000\cppmisc\packages\visualcpptools.14.0.24224-pre\lib\native\include\system_error

; 547  : 		: _Mybase(_Errcode, _Message)

  00068	0f 10 07	 movups	 xmm0, XMMWORD PTR [rdi]
  0006b	0f 29 44 24 30	 movaps	 XMMWORD PTR $T1[rsp], xmm0
  00070	4c 8d 44 24 40	 lea	 r8, QWORD PTR $T2[rsp]
  00075	48 8d 54 24 30	 lea	 rdx, QWORD PTR $T1[rsp]
  0007a	48 8b cb	 mov	 rcx, rbx
  0007d	e8 00 00 00 00	 call	 ??0_System_error@std@@IEAA@Verror_code@1@AEBV?$basic_string@DU?$char_traits@D@std@@V?$allocator@D@2@@1@@Z ; std::_System_error::_System_error
  00082	90		 npad	 1
; File c:\users\alist_000\cppmisc\packages\visualcpptools.14.0.24224-pre\lib\native\include\xstring

; 2248 : 		else if (this->_BUF_SIZE <= this->_Myres())

  00083	48 8b 44 24 58	 mov	 rax, QWORD PTR $T2[rsp+24]
  00088	48 83 f8 10	 cmp	 rax, 16
  0008c	72 4d		 jb	 SHORT $LN220@system_err

; 2249 : 			{	// copy any leftovers to small buffer and deallocate
; 2250 : 			pointer _Ptr = this->_Bx()._Ptr;
; 2251 : 			this->_Getal().destroy(_STD addressof(this->_Bx()._Ptr));
; 2252 : 			if (0 < _Newsize)
; 2253 : 				_Traits::copy(this->_Bx()._Buf,
; 2254 : 					_Unfancy(_Ptr), _Newsize);
; 2255 : 			this->_Getal().deallocate(_Ptr, this->_Myres() + 1);

  0008e	48 ff c0	 inc	 rax
; File c:\users\alist_000\cppmisc\packages\visualcpptools.14.0.24224-pre\lib\native\include\xmemory0

; 720  : 		_Deallocate(_Ptr, _Count, sizeof (_Ty));

  00091	48 8b 4c 24 40	 mov	 rcx, QWORD PTR $T2[rsp]

; 96   : 	if (_BIG_ALLOCATION_THRESHOLD <= _User_size)

  00096	48 3d 00 10 00
	00		 cmp	 rax, 4096		; 00001000H
  0009c	72 38		 jb	 SHORT $LN215@system_err

; 97   : 		{	// deallocate large block
; 98   : 		const uintptr_t _Ptr_user = reinterpret_cast<uintptr_t>(_Ptr);
; 99   : 		_SCL_SECURE_ALWAYS_VALIDATE(

  0009e	f6 c1 1f	 test	 cl, 31
  000a1	74 06		 je	 SHORT $LN216@system_err
  000a3	e8 00 00 00 00	 call	 _invalid_parameter_noinfo_noreturn
  000a8	cc		 int	 3
$LN216@system_err:

; 100  : 			(_Ptr_user & (_BIG_ALLOCATION_ALIGNMENT - 1)) == 0);
; 101  : 		const uintptr_t _Ptr_ptr = _Ptr_user - sizeof(void *);
; 102  : 		const uintptr_t _Ptr_container =
; 103  : 			*reinterpret_cast<uintptr_t *>(_Ptr_ptr);

  000a9	48 8b 41 f8	 mov	 rax, QWORD PTR [rcx-8]

; 104  : 
; 105  :  #ifdef _DEBUG
; 106  : 		// If the following asserts, it likely means that we are performing
; 107  : 		// an aligned delete on memory coming from an unaligned allocation.
; 108  : 		_SCL_SECURE_ALWAYS_VALIDATE(
; 109  : 			reinterpret_cast<uintptr_t *>(_Ptr_ptr)[-1] ==
; 110  : 				_BIG_ALLOCATION_SENTINEL);
; 111  :  #endif /* _DEBUG */
; 112  : 
; 113  : 		// Extra paranoia on aligned allocation/deallocation
; 114  : 		_SCL_SECURE_ALWAYS_VALIDATE(_Ptr_container < _Ptr_user);

  000ad	48 3b c1	 cmp	 rax, rcx
  000b0	72 06		 jb	 SHORT $LN217@system_err
  000b2	e8 00 00 00 00	 call	 _invalid_parameter_noinfo_noreturn
  000b7	cc		 int	 3
$LN217@system_err:

; 115  : 
; 116  :  #ifdef _DEBUG
; 117  : 		_SCL_SECURE_ALWAYS_VALIDATE(2 * sizeof(void *)
; 118  : 			<= _Ptr_user - _Ptr_container);
; 119  : 
; 120  :  #else /* _DEBUG */
; 121  : 		_SCL_SECURE_ALWAYS_VALIDATE(sizeof(void *)

  000b8	48 2b c8	 sub	 rcx, rax
  000bb	48 83 f9 08	 cmp	 rcx, 8
  000bf	73 06		 jae	 SHORT $LN218@system_err
  000c1	e8 00 00 00 00	 call	 _invalid_parameter_noinfo_noreturn
  000c6	cc		 int	 3
$LN218@system_err:

; 122  : 			<= _Ptr_user - _Ptr_container);
; 123  :  #endif /* _DEBUG */
; 124  : 
; 125  : 		_SCL_SECURE_ALWAYS_VALIDATE(_Ptr_user - _Ptr_container

  000c7	48 83 f9 27	 cmp	 rcx, 39			; 00000027H
  000cb	76 06		 jbe	 SHORT $LN219@system_err
  000cd	e8 00 00 00 00	 call	 _invalid_parameter_noinfo_noreturn
  000d2	cc		 int	 3
$LN219@system_err:

; 126  : 			<= _NON_USER_SIZE);
; 127  : 
; 128  : 		_Ptr = reinterpret_cast<void *>(_Ptr_container);

  000d3	48 8b c8	 mov	 rcx, rax
$LN215@system_err:

; 129  : 		}
; 130  :  #endif /* defined(_M_IX86) || defined(_M_X64) */
; 131  : 
; 132  : 	::operator delete(_Ptr);

  000d6	e8 00 00 00 00	 call	 ??3@YAXPEAX@Z		; operator delete
$LN220@system_err:
; File c:\users\alist_000\cppmisc\packages\visualcpptools.14.0.24224-pre\lib\native\include\system_error

; 548  : 		{	// construct from error code and message string

  000db	48 8d 05 00 00
	00 00		 lea	 rax, OFFSET FLAT:??_7system_error@std@@6B@
  000e2	48 89 03	 mov	 QWORD PTR [rbx], rax

; 549  : 		}

  000e5	48 8b c3	 mov	 rax, rbx
  000e8	48 8b 4c 24 60	 mov	 rcx, QWORD PTR __$ArrayPad$[rsp]
  000ed	48 33 cc	 xor	 rcx, rsp
  000f0	e8 00 00 00 00	 call	 __security_check_cookie
  000f5	48 8b 9c 24 98
	00 00 00	 mov	 rbx, QWORD PTR [rsp+152]
  000fd	48 83 c4 70	 add	 rsp, 112		; 00000070H
  00101	5f		 pop	 rdi
  00102	c3		 ret	 0
$LN252@system_err:
??0system_error@std@@QEAA@Verror_code@1@PEBD@Z ENDP	; std::system_error::system_error
_TEXT	ENDS
;	COMDAT text$x
text$x	SEGMENT
$T1 = 48
$T2 = 64
__$ArrayPad$ = 96
this$ = 128
_Errcode$ = 136
_Message$ = 144
?dtor$0@?0???0system_error@std@@QEAA@Verror_code@1@PEBD@Z@4HA PROC ; `std::system_error::system_error'::`1'::dtor$0
  00000	48 8d 8a 40 00
	00 00		 lea	 rcx, QWORD PTR $T2[rdx]
  00007	e9 00 00 00 00	 jmp	 ??1?$basic_string@DU?$char_traits@D@std@@V?$allocator@D@2@@std@@QEAA@XZ ; std::basic_string<char,std::char_traits<char>,std::allocator<char> >::~basic_string<char,std::char_traits<char>,std::allocator<char> >
?dtor$0@?0???0system_error@std@@QEAA@Verror_code@1@PEBD@Z@4HA ENDP ; `std::system_error::system_error'::`1'::dtor$0
text$x	ENDS
; Function compile flags: /Ogtpy
;	COMDAT text$x
text$x	SEGMENT
$T1 = 48
$T2 = 64
__$ArrayPad$ = 96
this$ = 128
_Errcode$ = 136
_Message$ = 144
?dtor$0@?0???0system_error@std@@QEAA@Verror_code@1@PEBD@Z@4HA PROC ; `std::system_error::system_error'::`1'::dtor$0
  00000	48 8d 8a 40 00
	00 00		 lea	 rcx, QWORD PTR $T2[rdx]
  00007	e9 00 00 00 00	 jmp	 ??1?$basic_string@DU?$char_traits@D@std@@V?$allocator@D@2@@std@@QEAA@XZ ; std::basic_string<char,std::char_traits<char>,std::allocator<char> >::~basic_string<char,std::char_traits<char>,std::allocator<char> >
?dtor$0@?0???0system_error@std@@QEAA@Verror_code@1@PEBD@Z@4HA ENDP ; `std::system_error::system_error'::`1'::dtor$0
text$x	ENDS
; Function compile flags: /Ogtpy
; File c:\users\alist_000\cppmisc\packages\visualcpptools.14.0.24224-pre\lib\native\include\vcruntime_exception.h
;	COMDAT ??_Gsystem_error@std@@UEAAPEAXI@Z
_TEXT	SEGMENT
this$ = 48
__flags$ = 56
??_Gsystem_error@std@@UEAAPEAXI@Z PROC			; std::system_error::`scalar deleting destructor', COMDAT
$LN17:
  00000	48 89 5c 24 08	 mov	 QWORD PTR [rsp+8], rbx
  00005	57		 push	 rdi
  00006	48 83 ec 20	 sub	 rsp, 32			; 00000020H

; 83   :     {

  0000a	48 8d 05 00 00
	00 00		 lea	 rax, OFFSET FLAT:??_7exception@std@@6B@
  00011	48 8b f9	 mov	 rdi, rcx
  00014	48 89 01	 mov	 QWORD PTR [rcx], rax
  00017	8b da		 mov	 ebx, edx

; 84   :         __std_exception_destroy(&_Data);

  00019	48 83 c1 08	 add	 rcx, 8
  0001d	e8 00 00 00 00	 call	 __std_exception_destroy
  00022	f6 c3 01	 test	 bl, 1
  00025	74 0d		 je	 SHORT $LN15@scalar
  00027	ba 28 00 00 00	 mov	 edx, 40			; 00000028H
  0002c	48 8b cf	 mov	 rcx, rdi
  0002f	e8 00 00 00 00	 call	 ??3@YAXPEAX_K@Z		; operator delete
$LN15@scalar:
  00034	48 8b c7	 mov	 rax, rdi
  00037	48 8b 5c 24 30	 mov	 rbx, QWORD PTR [rsp+48]
  0003c	48 83 c4 20	 add	 rsp, 32			; 00000020H
  00040	5f		 pop	 rdi
  00041	c3		 ret	 0
??_Gsystem_error@std@@UEAAPEAXI@Z ENDP			; std::system_error::`scalar deleting destructor'
_TEXT	ENDS
; Function compile flags: /Ogtpy
; File c:\users\alist_000\cppmisc\packages\visualcpptools.14.0.24224-pre\lib\native\include\vcruntime_exception.h
;	COMDAT ??1system_error@std@@UEAA@XZ
_TEXT	SEGMENT
this$ = 8
??1system_error@std@@UEAA@XZ PROC			; std::system_error::~system_error, COMDAT

; 83   :     {

  00000	48 8d 05 00 00
	00 00		 lea	 rax, OFFSET FLAT:??_7exception@std@@6B@
  00007	48 89 01	 mov	 QWORD PTR [rcx], rax

; 84   :         __std_exception_destroy(&_Data);

  0000a	48 83 c1 08	 add	 rcx, 8
  0000e	e9 00 00 00 00	 jmp	 __std_exception_destroy
??1system_error@std@@UEAA@XZ ENDP			; std::system_error::~system_error
_TEXT	ENDS
; Function compile flags: /Ogtpy
; File c:\users\alist_000\cppmisc\packages\visualcpptools.14.0.24224-pre\lib\native\include\system_error
;	COMDAT ??0_Generic_error_category@std@@QEAA@XZ
_TEXT	SEGMENT
this$ = 8
??0_Generic_error_category@std@@QEAA@XZ PROC		; std::_Generic_error_category::_Generic_error_category, COMDAT

; 595  : 		{	// default constructor

  00000	48 8d 05 00 00
	00 00		 lea	 rax, OFFSET FLAT:??_7_Generic_error_category@std@@6B@

; 596  : 		_Addr = _Generic_addr;

  00007	48 c7 41 08 03
	00 00 00	 mov	 QWORD PTR [rcx+8], 3
  0000f	48 89 01	 mov	 QWORD PTR [rcx], rax

; 597  : 		}

  00012	48 8b c1	 mov	 rax, rcx
  00015	c3		 ret	 0
??0_Generic_error_category@std@@QEAA@XZ ENDP		; std::_Generic_error_category::_Generic_error_category
_TEXT	ENDS
; Function compile flags: /Ogtpy
; File c:\users\alist_000\cppmisc\packages\visualcpptools.14.0.24224-pre\lib\native\include\system_error
;	COMDAT ?name@_Generic_error_category@std@@UEBAPEBDXZ
_TEXT	SEGMENT
this$ = 8
?name@_Generic_error_category@std@@UEBAPEBDXZ PROC	; std::_Generic_error_category::name, COMDAT

; 601  : 		return ("generic");

  00000	48 8d 05 00 00
	00 00		 lea	 rax, OFFSET FLAT:??_C@_07DCLBNMLN@generic?$AA@

; 602  : 		}

  00007	c3		 ret	 0
?name@_Generic_error_category@std@@UEBAPEBDXZ ENDP	; std::_Generic_error_category::name
_TEXT	ENDS
; Function compile flags: /Ogtpy
; File c:\users\alist_000\cppmisc\packages\visualcpptools.14.0.24224-pre\lib\native\include\system_error
; File c:\users\alist_000\cppmisc\packages\visualcpptools.14.0.24224-pre\lib\native\include\xstring
; File c:\users\alist_000\cppmisc\packages\visualcpptools.14.0.24224-pre\lib\native\include\iosfwd
; File c:\users\alist_000\cppmisc\packages\visualcpptools.14.0.24224-pre\lib\native\include\xstring
; File c:\users\alist_000\cppmisc\packages\visualcpptools.14.0.24224-pre\lib\native\include\system_error
;	COMDAT ?message@_Generic_error_category@std@@UEBA?AV?$basic_string@DU?$char_traits@D@std@@V?$allocator@D@2@@2@H@Z
_TEXT	SEGMENT
$T1 = 32
this$ = 64
__$ReturnUdt$ = 72
_Errcode$ = 80
?message@_Generic_error_category@std@@UEBA?AV?$basic_string@DU?$char_traits@D@std@@V?$allocator@D@2@@2@H@Z PROC ; std::_Generic_error_category::message, COMDAT

; 605  : 		{	// convert to name of error

$LN136:
  00000	48 89 5c 24 08	 mov	 QWORD PTR [rsp+8], rbx
  00005	57		 push	 rdi
  00006	48 83 ec 30	 sub	 rsp, 48			; 00000030H
  0000a	33 db		 xor	 ebx, ebx

; 606  : 		return (_Syserror_map(_Errcode));

  0000c	41 8b c8	 mov	 ecx, r8d
  0000f	89 5c 24 20	 mov	 DWORD PTR $T1[rsp], ebx
  00013	48 8b fa	 mov	 rdi, rdx
  00016	e8 00 00 00 00	 call	 ?_Syserror_map@std@@YAPEBDH@Z ; std::_Syserror_map
; File c:\users\alist_000\cppmisc\packages\visualcpptools.14.0.24224-pre\lib\native\include\xstring

; 2257 : 		this->_Myres() = this->_BUF_SIZE - 1;

  0001b	48 c7 47 18 0f
	00 00 00	 mov	 QWORD PTR [rdi+24], 15

; 2216 : 		_Traits::assign(_Dx._Myptr()[_Dx._Mysize = _Newsize], _Elem());

  00023	48 89 5f 10	 mov	 QWORD PTR [rdi+16], rbx
; File c:\users\alist_000\cppmisc\packages\visualcpptools.14.0.24224-pre\lib\native\include\iosfwd

; 565  : 		_Left = _Right;

  00027	88 1f		 mov	 BYTE PTR [rdi], bl

; 523  : 		return (*_First == 0 ? 0

  00029	38 18		 cmp	 BYTE PTR [rax], bl
  0002b	74 0d		 je	 SHORT $LN132@message
  0002d	48 83 cb ff	 or	 rbx, -1
$LL134@message:
  00031	48 ff c3	 inc	 rbx
  00034	80 3c 18 00	 cmp	 BYTE PTR [rax+rbx], 0
  00038	75 f7		 jne	 SHORT $LL134@message
$LN132@message:
; File c:\users\alist_000\cppmisc\packages\visualcpptools.14.0.24224-pre\lib\native\include\xstring

; 1177 : 		return (assign(_Ptr, _Traits::length(_Ptr)));

  0003a	4c 8b c3	 mov	 r8, rbx
  0003d	48 8b d0	 mov	 rdx, rax
  00040	48 8b cf	 mov	 rcx, rdi
  00043	e8 00 00 00 00	 call	 ?assign@?$basic_string@DU?$char_traits@D@std@@V?$allocator@D@2@@std@@QEAAAEAV12@PEBD_K@Z ; std::basic_string<char,std::char_traits<char>,std::allocator<char> >::assign
; File c:\users\alist_000\cppmisc\packages\visualcpptools.14.0.24224-pre\lib\native\include\system_error

; 607  : 		}

  00048	48 8b 5c 24 40	 mov	 rbx, QWORD PTR [rsp+64]
  0004d	48 8b c7	 mov	 rax, rdi
  00050	48 83 c4 30	 add	 rsp, 48			; 00000030H
  00054	5f		 pop	 rdi
  00055	c3		 ret	 0
?message@_Generic_error_category@std@@UEBA?AV?$basic_string@DU?$char_traits@D@std@@V?$allocator@D@2@@2@H@Z ENDP ; std::_Generic_error_category::message
_TEXT	ENDS
; Function compile flags: /Ogtpy
; File c:\users\alist_000\cppmisc\packages\visualcpptools.14.0.24224-pre\lib\native\include\system_error
;	COMDAT ??_G_Generic_error_category@std@@UEAAPEAXI@Z
_TEXT	SEGMENT
this$ = 48
__flags$ = 56
??_G_Generic_error_category@std@@UEAAPEAXI@Z PROC	; std::_Generic_error_category::`scalar deleting destructor', COMDAT
$LN12:
  00000	40 53		 push	 rbx
  00002	48 83 ec 20	 sub	 rsp, 32			; 00000020H

; 174  : 		{	// destroy the object

  00006	48 8d 05 00 00
	00 00		 lea	 rax, OFFSET FLAT:??_7error_category@std@@6B@
  0000d	48 8b d9	 mov	 rbx, rcx
  00010	48 89 01	 mov	 QWORD PTR [rcx], rax
  00013	f6 c2 01	 test	 dl, 1
  00016	74 0a		 je	 SHORT $LN10@scalar
  00018	ba 10 00 00 00	 mov	 edx, 16
  0001d	e8 00 00 00 00	 call	 ??3@YAXPEAX_K@Z		; operator delete
$LN10@scalar:
  00022	48 8b c3	 mov	 rax, rbx
  00025	48 83 c4 20	 add	 rsp, 32			; 00000020H
  00029	5b		 pop	 rbx
  0002a	c3		 ret	 0
??_G_Generic_error_category@std@@UEAAPEAXI@Z ENDP	; std::_Generic_error_category::`scalar deleting destructor'
_TEXT	ENDS
; Function compile flags: /Ogtpy
; File c:\users\alist_000\cppmisc\packages\visualcpptools.14.0.24224-pre\lib\native\include\system_error
;	COMDAT ??1_Generic_error_category@std@@UEAA@XZ
_TEXT	SEGMENT
this$ = 8
??1_Generic_error_category@std@@UEAA@XZ PROC		; std::_Generic_error_category::~_Generic_error_category, COMDAT

; 174  : 		{	// destroy the object

  00000	48 8d 05 00 00
	00 00		 lea	 rax, OFFSET FLAT:??_7error_category@std@@6B@
  00007	48 89 01	 mov	 QWORD PTR [rcx], rax
  0000a	c3		 ret	 0
??1_Generic_error_category@std@@UEAA@XZ ENDP		; std::_Generic_error_category::~_Generic_error_category
_TEXT	ENDS
; Function compile flags: /Ogtpy
; File c:\users\alist_000\cppmisc\packages\visualcpptools.14.0.24224-pre\lib\native\include\system_error
;	COMDAT ??0_Iostream_error_category@std@@QEAA@XZ
_TEXT	SEGMENT
this$ = 8
??0_Iostream_error_category@std@@QEAA@XZ PROC		; std::_Iostream_error_category::_Iostream_error_category, COMDAT

; 616  : 		{	// default constructor

  00000	48 8d 05 00 00
	00 00		 lea	 rax, OFFSET FLAT:??_7_Iostream_error_category@std@@6B@

; 617  : 		_Addr = _Iostream_addr;

  00007	48 c7 41 08 05
	00 00 00	 mov	 QWORD PTR [rcx+8], 5
  0000f	48 89 01	 mov	 QWORD PTR [rcx], rax

; 618  : 		}

  00012	48 8b c1	 mov	 rax, rcx
  00015	c3		 ret	 0
??0_Iostream_error_category@std@@QEAA@XZ ENDP		; std::_Iostream_error_category::_Iostream_error_category
_TEXT	ENDS
; Function compile flags: /Ogtpy
; File c:\users\alist_000\cppmisc\packages\visualcpptools.14.0.24224-pre\lib\native\include\system_error
;	COMDAT ?name@_Iostream_error_category@std@@UEBAPEBDXZ
_TEXT	SEGMENT
this$ = 8
?name@_Iostream_error_category@std@@UEBAPEBDXZ PROC	; std::_Iostream_error_category::name, COMDAT

; 622  : 		return ("iostream");

  00000	48 8d 05 00 00
	00 00		 lea	 rax, OFFSET FLAT:??_C@_08LLGCOLLL@iostream?$AA@

; 623  : 		}

  00007	c3		 ret	 0
?name@_Iostream_error_category@std@@UEBAPEBDXZ ENDP	; std::_Iostream_error_category::name
_TEXT	ENDS
; Function compile flags: /Ogtpy
; File c:\users\alist_000\cppmisc\packages\visualcpptools.14.0.24224-pre\lib\native\include\system_error
; File c:\users\alist_000\cppmisc\packages\visualcpptools.14.0.24224-pre\lib\native\include\xstring
; File c:\users\alist_000\cppmisc\packages\visualcpptools.14.0.24224-pre\lib\native\include\iosfwd
; File c:\users\alist_000\cppmisc\packages\visualcpptools.14.0.24224-pre\lib\native\include\xstring
; File c:\users\alist_000\cppmisc\packages\visualcpptools.14.0.24224-pre\lib\native\include\system_error
;	COMDAT ?message@_Iostream_error_category@std@@UEBA?AV?$basic_string@DU?$char_traits@D@std@@V?$allocator@D@2@@2@H@Z
_TEXT	SEGMENT
$T1 = 32
this$ = 64
__$ReturnUdt$ = 72
_Errcode$ = 80
?message@_Iostream_error_category@std@@UEBA?AV?$basic_string@DU?$char_traits@D@std@@V?$allocator@D@2@@2@H@Z PROC ; std::_Iostream_error_category::message, COMDAT

; 626  : 		{	// convert to name of error

$LN138:
  00000	40 53		 push	 rbx
  00002	48 83 ec 30	 sub	 rsp, 48			; 00000030H
  00006	33 c0		 xor	 eax, eax
  00008	48 8b da	 mov	 rbx, rdx
  0000b	89 44 24 20	 mov	 DWORD PTR $T1[rsp], eax

; 627  : 		if (_Errcode == (int)io_errc::stream)

  0000f	41 83 f8 01	 cmp	 r8d, 1
  00013	75 2a		 jne	 SHORT $LN2@message
; File c:\users\alist_000\cppmisc\packages\visualcpptools.14.0.24224-pre\lib\native\include\xstring

; 2257 : 		this->_Myres() = this->_BUF_SIZE - 1;

  00015	48 c7 42 18 0f
	00 00 00	 mov	 QWORD PTR [rdx+24], 15

; 1177 : 		return (assign(_Ptr, _Traits::length(_Ptr)));

  0001d	44 8d 40 15	 lea	 r8d, QWORD PTR [rax+21]

; 2216 : 		_Traits::assign(_Dx._Myptr()[_Dx._Mysize = _Newsize], _Elem());

  00021	48 89 42 10	 mov	 QWORD PTR [rdx+16], rax

; 1177 : 		return (assign(_Ptr, _Traits::length(_Ptr)));

  00025	48 8b cb	 mov	 rcx, rbx
; File c:\users\alist_000\cppmisc\packages\visualcpptools.14.0.24224-pre\lib\native\include\iosfwd

; 565  : 		_Left = _Right;

  00028	88 02		 mov	 BYTE PTR [rdx], al
; File c:\users\alist_000\cppmisc\packages\visualcpptools.14.0.24224-pre\lib\native\include\xstring

; 1177 : 		return (assign(_Ptr, _Traits::length(_Ptr)));

  0002a	48 8d 15 00 00
	00 00		 lea	 rdx, OFFSET FLAT:??_C@_0BG@PADBLCHM@iostream?5stream?5error?$AA@
  00031	e8 00 00 00 00	 call	 ?assign@?$basic_string@DU?$char_traits@D@std@@V?$allocator@D@2@@std@@QEAAAEAV12@PEBD_K@Z ; std::basic_string<char,std::char_traits<char>,std::allocator<char> >::assign
; File c:\users\alist_000\cppmisc\packages\visualcpptools.14.0.24224-pre\lib\native\include\system_error

; 630  : 			return (_Generic_error_category::message(_Errcode));

  00036	48 8b c3	 mov	 rax, rbx

; 631  : 		}

  00039	48 83 c4 30	 add	 rsp, 48			; 00000030H
  0003d	5b		 pop	 rbx
  0003e	c3		 ret	 0
$LN2@message:

; 630  : 			return (_Generic_error_category::message(_Errcode));

  0003f	e8 00 00 00 00	 call	 ?message@_Generic_error_category@std@@UEBA?AV?$basic_string@DU?$char_traits@D@std@@V?$allocator@D@2@@2@H@Z ; std::_Generic_error_category::message
  00044	48 8b c3	 mov	 rax, rbx

; 631  : 		}

  00047	48 83 c4 30	 add	 rsp, 48			; 00000030H
  0004b	5b		 pop	 rbx
  0004c	c3		 ret	 0
?message@_Iostream_error_category@std@@UEBA?AV?$basic_string@DU?$char_traits@D@std@@V?$allocator@D@2@@2@H@Z ENDP ; std::_Iostream_error_category::message
_TEXT	ENDS
; Function compile flags: /Ogtpy
; File c:\users\alist_000\cppmisc\packages\visualcpptools.14.0.24224-pre\lib\native\include\system_error
;	COMDAT ??_G_Iostream_error_category@std@@UEAAPEAXI@Z
_TEXT	SEGMENT
this$ = 48
__flags$ = 56
??_G_Iostream_error_category@std@@UEAAPEAXI@Z PROC	; std::_Iostream_error_category::`scalar deleting destructor', COMDAT
$LN15:
  00000	40 53		 push	 rbx
  00002	48 83 ec 20	 sub	 rsp, 32			; 00000020H

; 174  : 		{	// destroy the object

  00006	48 8d 05 00 00
	00 00		 lea	 rax, OFFSET FLAT:??_7error_category@std@@6B@
  0000d	48 8b d9	 mov	 rbx, rcx
  00010	48 89 01	 mov	 QWORD PTR [rcx], rax
  00013	f6 c2 01	 test	 dl, 1
  00016	74 0a		 je	 SHORT $LN13@scalar
  00018	ba 10 00 00 00	 mov	 edx, 16
  0001d	e8 00 00 00 00	 call	 ??3@YAXPEAX_K@Z		; operator delete
$LN13@scalar:
  00022	48 8b c3	 mov	 rax, rbx
  00025	48 83 c4 20	 add	 rsp, 32			; 00000020H
  00029	5b		 pop	 rbx
  0002a	c3		 ret	 0
??_G_Iostream_error_category@std@@UEAAPEAXI@Z ENDP	; std::_Iostream_error_category::`scalar deleting destructor'
_TEXT	ENDS
; Function compile flags: /Ogtpy
; File c:\users\alist_000\cppmisc\packages\visualcpptools.14.0.24224-pre\lib\native\include\system_error
;	COMDAT ??1_Iostream_error_category@std@@UEAA@XZ
_TEXT	SEGMENT
this$ = 8
??1_Iostream_error_category@std@@UEAA@XZ PROC		; std::_Iostream_error_category::~_Iostream_error_category, COMDAT

; 174  : 		{	// destroy the object

  00000	48 8d 05 00 00
	00 00		 lea	 rax, OFFSET FLAT:??_7error_category@std@@6B@
  00007	48 89 01	 mov	 QWORD PTR [rcx], rax
  0000a	c3		 ret	 0
??1_Iostream_error_category@std@@UEAA@XZ ENDP		; std::_Iostream_error_category::~_Iostream_error_category
_TEXT	ENDS
; Function compile flags: /Ogtpy
; File c:\users\alist_000\cppmisc\packages\visualcpptools.14.0.24224-pre\lib\native\include\system_error
;	COMDAT ?iostream_category@std@@YAAEBVerror_category@1@XZ
_TEXT	SEGMENT
?iostream_category@std@@YAAEBVerror_category@1@XZ PROC	; std::iostream_category, COMDAT

; 708  : 	{	// get iostream_category

$LN25:
  00000	48 83 ec 28	 sub	 rsp, 40			; 00000028H

; 698  : 	/* MAGIC */ static _Immortalizer<_Ty> _Static;

  00004	65 48 8b 04 25
	58 00 00 00	 mov	 rax, QWORD PTR gs:88
  0000d	ba 00 00 00 00	 mov	 edx, OFFSET FLAT:_Init_thread_epoch
  00012	48 8b 08	 mov	 rcx, QWORD PTR [rax]
  00015	8b 04 0a	 mov	 eax, DWORD PTR [rdx+rcx]
  00018	39 05 00 00 00
	00		 cmp	 DWORD PTR ?$TSS0@?1???$_Immortalize@V_Iostream_error_category@std@@@std@@YAAEAV_Iostream_error_category@1@XZ@4HA, eax ; TSS0<`template-parameter-2',unsigned int,std::V_Iostream_error_category::mortalize>
  0001e	7f 0c		 jg	 SHORT $LN23@iostream_c
$LN21@iostream_c:

; 709  : 	return (_Immortalize<_Iostream_error_category>());

  00020	48 8d 05 00 00
	00 00		 lea	 rax, OFFSET FLAT:?_Static@?1???$_Immortalize@V_Iostream_error_category@std@@@std@@YAAEAV_Iostream_error_category@1@XZ@4U?$_Immortalizer@V_Iostream_error_category@std@@@1@A ; `std::_Immortalize<std::_Iostream_error_category>'::`2'::_Static

; 710  : 	}

  00027	48 83 c4 28	 add	 rsp, 40			; 00000028H
  0002b	c3		 ret	 0
$LN23@iostream_c:

; 698  : 	/* MAGIC */ static _Immortalizer<_Ty> _Static;

  0002c	48 8d 0d 00 00
	00 00		 lea	 rcx, OFFSET FLAT:?$TSS0@?1???$_Immortalize@V_Iostream_error_category@std@@@std@@YAAEAV_Iostream_error_category@1@XZ@4HA ; TSS0<`template-parameter-2',unsigned int,std::V_Iostream_error_category::mortalize>
  00033	e8 00 00 00 00	 call	 _Init_thread_header
  00038	83 3d 00 00 00
	00 ff		 cmp	 DWORD PTR ?$TSS0@?1???$_Immortalize@V_Iostream_error_category@std@@@std@@YAAEAV_Iostream_error_category@1@XZ@4HA, -1 ; TSS0<`template-parameter-2',unsigned int,std::V_Iostream_error_category::mortalize>
  0003f	75 df		 jne	 SHORT $LN21@iostream_c

; 616  : 		{	// default constructor

  00041	48 8d 05 00 00
	00 00		 lea	 rax, OFFSET FLAT:??_7_Iostream_error_category@std@@6B@

; 617  : 		_Addr = _Iostream_addr;

  00048	48 c7 05 08 00
	00 00 05 00 00
	00		 mov	 QWORD PTR ?_Static@?1???$_Immortalize@V_Iostream_error_category@std@@@std@@YAAEAV_Iostream_error_category@1@XZ@4U?$_Immortalizer@V_Iostream_error_category@std@@@1@A+8, 5

; 698  : 	/* MAGIC */ static _Immortalizer<_Ty> _Static;

  00053	48 8d 0d 00 00
	00 00		 lea	 rcx, OFFSET FLAT:??__F_Static@?1???$_Immortalize@V_Iostream_error_category@std@@@std@@YAAEAV_Iostream_error_category@0@XZ@YAXXZ ; `std::_Immortalize<std::_Iostream_error_category>'::`2'::`dynamic atexit destructor for '_Static''

; 616  : 		{	// default constructor

  0005a	48 89 05 00 00
	00 00		 mov	 QWORD PTR ?_Static@?1???$_Immortalize@V_Iostream_error_category@std@@@std@@YAAEAV_Iostream_error_category@1@XZ@4U?$_Immortalizer@V_Iostream_error_category@std@@@1@A, rax

; 698  : 	/* MAGIC */ static _Immortalizer<_Ty> _Static;

  00061	e8 00 00 00 00	 call	 atexit
  00066	48 8d 0d 00 00
	00 00		 lea	 rcx, OFFSET FLAT:?$TSS0@?1???$_Immortalize@V_Iostream_error_category@std@@@std@@YAAEAV_Iostream_error_category@1@XZ@4HA ; TSS0<`template-parameter-2',unsigned int,std::V_Iostream_error_category::mortalize>
  0006d	e8 00 00 00 00	 call	 _Init_thread_footer
  00072	eb ac		 jmp	 SHORT $LN21@iostream_c
?iostream_category@std@@YAAEBVerror_category@1@XZ ENDP	; std::iostream_category
_TEXT	ENDS
; Function compile flags: /Ogtpy
; File c:\users\alist_000\cppmisc\packages\visualcpptools.14.0.24224-pre\lib\native\include\xiosbase
;	COMDAT ??0failure@ios_base@std@@QEAA@PEBDAEBVerror_code@2@@Z
_TEXT	SEGMENT
$T1 = 32
this$ = 64
_Message$ = 72
_Errcode$ = 80
??0failure@ios_base@std@@QEAA@PEBDAEBVerror_code@2@@Z PROC ; std::ios_base::failure::failure, COMDAT

; 238  : 			{	// construct with message

$LN5:
  00000	40 53		 push	 rbx
  00002	48 83 ec 30	 sub	 rsp, 48			; 00000030H

; 237  : 			: system_error(_Errcode, _Message)

  00006	41 0f 10 00	 movups	 xmm0, XMMWORD PTR [r8]
  0000a	4c 8b c2	 mov	 r8, rdx

; 238  : 			{	// construct with message

  0000d	48 8b d9	 mov	 rbx, rcx
  00010	48 8d 54 24 20	 lea	 rdx, QWORD PTR $T1[rsp]
  00015	0f 29 44 24 20	 movaps	 XMMWORD PTR $T1[rsp], xmm0
  0001a	e8 00 00 00 00	 call	 ??0system_error@std@@QEAA@Verror_code@1@PEBD@Z ; std::system_error::system_error
  0001f	48 8d 05 00 00
	00 00		 lea	 rax, OFFSET FLAT:??_7failure@ios_base@std@@6B@
  00026	48 89 03	 mov	 QWORD PTR [rbx], rax

; 239  : 			}

  00029	48 8b c3	 mov	 rax, rbx
  0002c	48 83 c4 30	 add	 rsp, 48			; 00000030H
  00030	5b		 pop	 rbx
  00031	c3		 ret	 0
??0failure@ios_base@std@@QEAA@PEBDAEBVerror_code@2@@Z ENDP ; std::ios_base::failure::failure
_TEXT	ENDS
; Function compile flags: /Ogtpy
; File c:\users\alist_000\cppmisc\packages\visualcpptools.14.0.24224-pre\lib\native\include\xiosbase
; File c:\users\alist_000\cppmisc\packages\visualcpptools.14.0.24224-pre\lib\native\include\system_error
; File c:\users\alist_000\cppmisc\packages\visualcpptools.14.0.24224-pre\lib\native\include\xstring
; File c:\users\alist_000\cppmisc\packages\visualcpptools.14.0.24224-pre\lib\native\include\iosfwd
; File c:\users\alist_000\cppmisc\packages\visualcpptools.14.0.24224-pre\lib\native\include\xstring
; File c:\users\alist_000\cppmisc\packages\visualcpptools.14.0.24224-pre\lib\native\include\iosfwd
; File c:\users\alist_000\cppmisc\packages\visualcpptools.14.0.24224-pre\lib\native\include\xstring
; File c:\users\alist_000\cppmisc\packages\visualcpptools.14.0.24224-pre\lib\native\include\system_error
; File c:\users\alist_000\cppmisc\packages\visualcpptools.14.0.24224-pre\lib\native\include\xstring
; File c:\users\alist_000\cppmisc\packages\visualcpptools.14.0.24224-pre\lib\native\include\xstddef
; File c:\users\alist_000\cppmisc\packages\visualcpptools.14.0.24224-pre\lib\native\include\vcruntime_exception.h
; File c:\users\alist_000\cppmisc\packages\visualcpptools.14.0.24224-pre\lib\native\include\stdexcept
; File c:\users\alist_000\cppmisc\packages\visualcpptools.14.0.24224-pre\lib\native\include\xstring
; File c:\users\alist_000\cppmisc\packages\visualcpptools.14.0.24224-pre\lib\native\include\xmemory0
; File c:\users\alist_000\cppmisc\packages\visualcpptools.14.0.24224-pre\lib\native\include\xstring
; File c:\users\alist_000\cppmisc\packages\visualcpptools.14.0.24224-pre\lib\native\include\iosfwd
; File c:\users\alist_000\cppmisc\packages\visualcpptools.14.0.24224-pre\lib\native\include\system_error
; File c:\users\alist_000\cppmisc\packages\visualcpptools.14.0.24224-pre\lib\native\include\xstring
; File c:\users\alist_000\cppmisc\packages\visualcpptools.14.0.24224-pre\lib\native\include\xmemory0
; File c:\users\alist_000\cppmisc\packages\visualcpptools.14.0.24224-pre\lib\native\include\xiosbase
; File c:\users\alist_000\cppmisc\packages\visualcpptools.14.0.24224-pre\lib\native\include\xstring
; File c:\users\alist_000\cppmisc\packages\visualcpptools.14.0.24224-pre\lib\native\include\iosfwd
; File c:\users\alist_000\cppmisc\packages\visualcpptools.14.0.24224-pre\lib\native\include\xstring
; File c:\users\alist_000\cppmisc\packages\visualcpptools.14.0.24224-pre\lib\native\include\iosfwd
; File c:\users\alist_000\cppmisc\packages\visualcpptools.14.0.24224-pre\lib\native\include\xstring
; File c:\users\alist_000\cppmisc\packages\visualcpptools.14.0.24224-pre\lib\native\include\system_error
; File c:\users\alist_000\cppmisc\packages\visualcpptools.14.0.24224-pre\lib\native\include\xstring
; File c:\users\alist_000\cppmisc\packages\visualcpptools.14.0.24224-pre\lib\native\include\xstddef
; File c:\users\alist_000\cppmisc\packages\visualcpptools.14.0.24224-pre\lib\native\include\vcruntime_exception.h
; File c:\users\alist_000\cppmisc\packages\visualcpptools.14.0.24224-pre\lib\native\include\stdexcept
; File c:\users\alist_000\cppmisc\packages\visualcpptools.14.0.24224-pre\lib\native\include\xstring
; File c:\users\alist_000\cppmisc\packages\visualcpptools.14.0.24224-pre\lib\native\include\xmemory0
; File c:\users\alist_000\cppmisc\packages\visualcpptools.14.0.24224-pre\lib\native\include\xstring
; File c:\users\alist_000\cppmisc\packages\visualcpptools.14.0.24224-pre\lib\native\include\iosfwd
; File c:\users\alist_000\cppmisc\packages\visualcpptools.14.0.24224-pre\lib\native\include\system_error
; File c:\users\alist_000\cppmisc\packages\visualcpptools.14.0.24224-pre\lib\native\include\xstring
; File c:\users\alist_000\cppmisc\packages\visualcpptools.14.0.24224-pre\lib\native\include\xiosbase
;	COMDAT ?clear@ios_base@std@@QEAAXH_N@Z
_TEXT	SEGMENT
_InitData$1 = 32
$T2 = 32
_InitData$3 = 32
$T4 = 32
$T5 = 32
$T6 = 32
$T7 = 48
$T8 = 48
$T9 = 88
$T10 = 88
$T11 = 136
$T12 = 144
$T13 = 144
$T14 = 176
$T15 = 176
$T16 = 208
$T17 = 208
__$ArrayPad$ = 240
this$ = 288
_State$ = 296
_Reraise$ = 304
?clear@ios_base@std@@QEAAXH_N@Z PROC			; std::ios_base::clear, COMDAT

; 287  : 		{	// set state, possibly reraise exception

$LN1105:
  00000	48 8b c4	 mov	 rax, rsp
  00003	55		 push	 rbp
  00004	48 8d 68 e8	 lea	 rbp, QWORD PTR [rax-24]
  00008	48 81 ec 10 01
	00 00		 sub	 rsp, 272		; 00000110H
  0000f	48 c7 45 88 fe
	ff ff ff	 mov	 QWORD PTR $T11[rbp-256], -2
  00017	48 89 58 10	 mov	 QWORD PTR [rax+16], rbx
  0001b	0f 29 70 e8	 movaps	 XMMWORD PTR [rax-24], xmm6
  0001f	48 8b 05 00 00
	00 00		 mov	 rax, QWORD PTR __security_cookie
  00026	48 33 c4	 xor	 rax, rsp
  00029	48 89 45 f0	 mov	 QWORD PTR __$ArrayPad$[rbp-256], rax

; 288  : 		_Mystate = (iostate)(_State & _Statmask);

  0002d	83 e2 17	 and	 edx, 23
  00030	89 51 10	 mov	 DWORD PTR [rcx+16], edx

; 289  : 		if ((_Mystate & _Except) == 0)

  00033	8b 41 14	 mov	 eax, DWORD PTR [rcx+20]
  00036	23 c2		 and	 eax, edx
  00038	0f 84 db 03 00
	00		 je	 $LN9@clear

; 290  : 			;
; 291  : 		else if (_Reraise)

  0003e	45 84 c0	 test	 r8b, r8b
  00041	74 0a		 je	 SHORT $LN4@clear

; 292  : 			_RERAISE;

  00043	33 d2		 xor	 edx, edx
  00045	33 c9		 xor	 ecx, ecx
  00047	e8 00 00 00 00	 call	 _CxxThrowException
  0004c	cc		 int	 3
$LN4@clear:

; 293  : 		else if (_Mystate & _Except & badbit)

  0004d	a8 04		 test	 al, 4
  0004f	0f 84 0e 02 00
	00		 je	 $LN6@clear
; File c:\users\alist_000\cppmisc\packages\visualcpptools.14.0.24224-pre\lib\native\include\system_error

; 698  : 	/* MAGIC */ static _Immortalizer<_Ty> _Static;

  00055	ba 00 00 00 00	 mov	 edx, OFFSET FLAT:_Init_thread_epoch
  0005a	65 48 8b 04 25
	58 00 00 00	 mov	 rax, QWORD PTR gs:88
  00063	48 8b 08	 mov	 rcx, QWORD PTR [rax]
  00066	8b 04 0a	 mov	 eax, DWORD PTR [rdx+rcx]
  00069	39 05 00 00 00
	00		 cmp	 DWORD PTR ?$TSS0@?1???$_Immortalize@V_Iostream_error_category@std@@@std@@YAAEAV_Iostream_error_category@1@XZ@4HA, eax ; TSS0<`template-parameter-2',unsigned int,std::V_Iostream_error_category::mortalize>
  0006f	7e 46		 jle	 SHORT $LN18@clear
  00071	48 8d 0d 00 00
	00 00		 lea	 rcx, OFFSET FLAT:?$TSS0@?1???$_Immortalize@V_Iostream_error_category@std@@@std@@YAAEAV_Iostream_error_category@1@XZ@4HA ; TSS0<`template-parameter-2',unsigned int,std::V_Iostream_error_category::mortalize>
  00078	e8 00 00 00 00	 call	 _Init_thread_header
  0007d	83 3d 00 00 00
	00 ff		 cmp	 DWORD PTR ?$TSS0@?1???$_Immortalize@V_Iostream_error_category@std@@@std@@YAAEAV_Iostream_error_category@1@XZ@4HA, -1 ; TSS0<`template-parameter-2',unsigned int,std::V_Iostream_error_category::mortalize>
  00084	75 31		 jne	 SHORT $LN18@clear

; 616  : 		{	// default constructor

  00086	48 8d 05 00 00
	00 00		 lea	 rax, OFFSET FLAT:??_7_Iostream_error_category@std@@6B@
  0008d	48 89 05 00 00
	00 00		 mov	 QWORD PTR ?_Static@?1???$_Immortalize@V_Iostream_error_category@std@@@std@@YAAEAV_Iostream_error_category@1@XZ@4U?$_Immortalizer@V_Iostream_error_category@std@@@1@A, rax

; 617  : 		_Addr = _Iostream_addr;

  00094	48 c7 05 08 00
	00 00 05 00 00
	00		 mov	 QWORD PTR ?_Static@?1???$_Immortalize@V_Iostream_error_category@std@@@std@@YAAEAV_Iostream_error_category@1@XZ@4U?$_Immortalizer@V_Iostream_error_category@std@@@1@A+8, 5

; 698  : 	/* MAGIC */ static _Immortalizer<_Ty> _Static;

  0009f	48 8d 0d 00 00
	00 00		 lea	 rcx, OFFSET FLAT:??__F_Static@?1???$_Immortalize@V_Iostream_error_category@std@@@std@@YAAEAV_Iostream_error_category@0@XZ@YAXXZ ; `std::_Immortalize<std::_Iostream_error_category>'::`2'::`dynamic atexit destructor for '_Static''
  000a6	e8 00 00 00 00	 call	 atexit
  000ab	48 8d 0d 00 00
	00 00		 lea	 rcx, OFFSET FLAT:?$TSS0@?1???$_Immortalize@V_Iostream_error_category@std@@@std@@YAAEAV_Iostream_error_category@1@XZ@4HA ; TSS0<`template-parameter-2',unsigned int,std::V_Iostream_error_category::mortalize>
  000b2	e8 00 00 00 00	 call	 _Init_thread_footer
$LN18@clear:

; 233  : 		: _Myval(_Val), _Mycat(&_Cat)

  000b7	c7 44 24 20 01
	00 00 00	 mov	 DWORD PTR $T6[rsp], 1
  000bf	48 8d 05 00 00
	00 00		 lea	 rax, OFFSET FLAT:?_Static@?1???$_Immortalize@V_Iostream_error_category@std@@@std@@YAAEAV_Iostream_error_category@1@XZ@4U?$_Immortalizer@V_Iostream_error_category@std@@@1@A ; `std::_Immortalize<std::_Iostream_error_category>'::`2'::_Static
  000c6	48 89 44 24 28	 mov	 QWORD PTR $T6[rsp+8], rax
; File c:\users\alist_000\cppmisc\packages\visualcpptools.14.0.24224-pre\lib\native\include\xstring

; 2257 : 		this->_Myres() = this->_BUF_SIZE - 1;

  000cb	48 c7 45 e8 0f
	00 00 00	 mov	 QWORD PTR $T16[rbp-232], 15

; 2216 : 		_Traits::assign(_Dx._Myptr()[_Dx._Mysize = _Newsize], _Elem());

  000d3	33 db		 xor	 ebx, ebx
  000d5	48 89 5d e0	 mov	 QWORD PTR $T16[rbp-240], rbx
; File c:\users\alist_000\cppmisc\packages\visualcpptools.14.0.24224-pre\lib\native\include\iosfwd

; 565  : 		_Left = _Right;

  000d9	88 5d d0	 mov	 BYTE PTR $T16[rbp-256], bl
; File c:\users\alist_000\cppmisc\packages\visualcpptools.14.0.24224-pre\lib\native\include\xstring

; 1177 : 		return (assign(_Ptr, _Traits::length(_Ptr)));

  000dc	44 8d 43 14	 lea	 r8d, QWORD PTR [rbx+20]
  000e0	48 8d 15 00 00
	00 00		 lea	 rdx, OFFSET FLAT:??_C@_0BF@PHHKMMFD@ios_base?3?3badbit?5set?$AA@
  000e7	48 8d 4d d0	 lea	 rcx, QWORD PTR $T16[rbp-256]
  000eb	e8 00 00 00 00	 call	 ?assign@?$basic_string@DU?$char_traits@D@std@@V?$allocator@D@2@@std@@QEAAAEAV12@PEBD_K@Z ; std::basic_string<char,std::char_traits<char>,std::allocator<char> >::assign
  000f0	90		 npad	 1

; 2257 : 		this->_Myres() = this->_BUF_SIZE - 1;

  000f1	48 c7 45 c8 0f
	00 00 00	 mov	 QWORD PTR $T15[rbp-232], 15

; 2216 : 		_Traits::assign(_Dx._Myptr()[_Dx._Mysize = _Newsize], _Elem());

  000f9	48 89 5d c0	 mov	 QWORD PTR $T15[rbp-240], rbx
; File c:\users\alist_000\cppmisc\packages\visualcpptools.14.0.24224-pre\lib\native\include\iosfwd

; 565  : 		_Left = _Right;

  000fd	88 5d b0	 mov	 BYTE PTR $T15[rbp-256], bl
; File c:\users\alist_000\cppmisc\packages\visualcpptools.14.0.24224-pre\lib\native\include\xstring

; 777  : 		assign(_Right, 0, npos);

  00100	49 83 c9 ff	 or	 r9, -1
  00104	45 33 c0	 xor	 r8d, r8d
  00107	48 8d 55 d0	 lea	 rdx, QWORD PTR $T16[rbp-256]
  0010b	48 8d 4d b0	 lea	 rcx, QWORD PTR $T15[rbp-256]
  0010f	e8 00 00 00 00	 call	 ?assign@?$basic_string@DU?$char_traits@D@std@@V?$allocator@D@2@@std@@QEAAAEAV12@AEBV12@_K1@Z ; std::basic_string<char,std::char_traits<char>,std::allocator<char> >::assign
; File c:\users\alist_000\cppmisc\packages\visualcpptools.14.0.24224-pre\lib\native\include\system_error

; 522  : 		: runtime_error(_Makestr(_Errcode, _Message)), _Mycode(_Errcode)

  00114	0f 28 74 24 20	 movaps	 xmm6, XMMWORD PTR $T6[rsp]
  00119	66 0f 7f 74 24
	20		 movdqa	 XMMWORD PTR $T5[rsp], xmm6
  0011f	4c 8d 45 b0	 lea	 r8, QWORD PTR $T15[rbp-256]
  00123	48 8d 54 24 20	 lea	 rdx, QWORD PTR $T5[rsp]
  00128	48 8d 4d 90	 lea	 rcx, QWORD PTR $T12[rbp-256]
  0012c	e8 00 00 00 00	 call	 ?_Makestr@_System_error@std@@CA?AV?$basic_string@DU?$char_traits@D@std@@V?$allocator@D@2@@2@Verror_code@2@V32@@Z ; std::_System_error::_Makestr
; File c:\users\alist_000\cppmisc\packages\visualcpptools.14.0.24224-pre\lib\native\include\xstring

; 516  : 		return (this->_BUF_SIZE <= _Myres

  00131	48 83 78 18 10	 cmp	 QWORD PTR [rax+24], 16
  00136	72 03		 jb	 SHORT $LN337@clear
; File c:\users\alist_000\cppmisc\packages\visualcpptools.14.0.24224-pre\lib\native\include\xstddef

; 740  : 	return (_Ptr);

  00138	48 8b 00	 mov	 rax, QWORD PTR [rax]
$LN337@clear:
; File c:\users\alist_000\cppmisc\packages\visualcpptools.14.0.24224-pre\lib\native\include\vcruntime_exception.h

; 53   :     {

  0013b	48 8d 0d 00 00
	00 00		 lea	 rcx, OFFSET FLAT:??_7exception@std@@6B@
  00142	48 89 4c 24 30	 mov	 QWORD PTR $T8[rsp], rcx

; 52   :         : _Data()

  00147	33 c9		 xor	 ecx, ecx
  00149	48 89 4c 24 38	 mov	 QWORD PTR $T8[rsp+8], rcx
  0014e	48 89 4c 24 40	 mov	 QWORD PTR $T8[rsp+16], rcx

; 54   :         __std_exception_data _InitData = { _Message, true };

  00153	48 89 44 24 20	 mov	 QWORD PTR _InitData$3[rsp], rax
  00158	c6 44 24 28 01	 mov	 BYTE PTR _InitData$3[rsp+8], 1

; 55   :         __std_exception_copy(&_InitData, &_Data);

  0015d	48 8d 54 24 38	 lea	 rdx, QWORD PTR $T8[rsp+8]
  00162	48 8d 4c 24 20	 lea	 rcx, QWORD PTR _InitData$3[rsp]
  00167	e8 00 00 00 00	 call	 __std_exception_copy
; File c:\users\alist_000\cppmisc\packages\visualcpptools.14.0.24224-pre\lib\native\include\stdexcept

; 163  : 		{	// construct from message string

  0016c	48 8d 05 00 00
	00 00		 lea	 rax, OFFSET FLAT:??_7runtime_error@std@@6B@
  00173	48 89 44 24 30	 mov	 QWORD PTR $T8[rsp], rax
; File c:\users\alist_000\cppmisc\packages\visualcpptools.14.0.24224-pre\lib\native\include\xstring

; 2248 : 		else if (this->_BUF_SIZE <= this->_Myres())

  00178	48 8b 45 a8	 mov	 rax, QWORD PTR $T12[rbp-232]
  0017c	48 83 f8 10	 cmp	 rax, 16
  00180	72 4c		 jb	 SHORT $LN428@clear

; 2249 : 			{	// copy any leftovers to small buffer and deallocate
; 2250 : 			pointer _Ptr = this->_Bx()._Ptr;
; 2251 : 			this->_Getal().destroy(_STD addressof(this->_Bx()._Ptr));
; 2252 : 			if (0 < _Newsize)
; 2253 : 				_Traits::copy(this->_Bx()._Buf,
; 2254 : 					_Unfancy(_Ptr), _Newsize);
; 2255 : 			this->_Getal().deallocate(_Ptr, this->_Myres() + 1);

  00182	48 ff c0	 inc	 rax
; File c:\users\alist_000\cppmisc\packages\visualcpptools.14.0.24224-pre\lib\native\include\xmemory0

; 720  : 		_Deallocate(_Ptr, _Count, sizeof (_Ty));

  00185	48 8b 4d 90	 mov	 rcx, QWORD PTR $T12[rbp-256]

; 96   : 	if (_BIG_ALLOCATION_THRESHOLD <= _User_size)

  00189	48 3d 00 10 00
	00		 cmp	 rax, 4096		; 00001000H
  0018f	72 38		 jb	 SHORT $LN423@clear

; 97   : 		{	// deallocate large block
; 98   : 		const uintptr_t _Ptr_user = reinterpret_cast<uintptr_t>(_Ptr);
; 99   : 		_SCL_SECURE_ALWAYS_VALIDATE(

  00191	f6 c1 1f	 test	 cl, 31
  00194	74 06		 je	 SHORT $LN424@clear
  00196	e8 00 00 00 00	 call	 _invalid_parameter_noinfo_noreturn
  0019b	cc		 int	 3
$LN424@clear:

; 100  : 			(_Ptr_user & (_BIG_ALLOCATION_ALIGNMENT - 1)) == 0);
; 101  : 		const uintptr_t _Ptr_ptr = _Ptr_user - sizeof(void *);
; 102  : 		const uintptr_t _Ptr_container =
; 103  : 			*reinterpret_cast<uintptr_t *>(_Ptr_ptr);

  0019c	48 8b 41 f8	 mov	 rax, QWORD PTR [rcx-8]

; 104  : 
; 105  :  #ifdef _DEBUG
; 106  : 		// If the following asserts, it likely means that we are performing
; 107  : 		// an aligned delete on memory coming from an unaligned allocation.
; 108  : 		_SCL_SECURE_ALWAYS_VALIDATE(
; 109  : 			reinterpret_cast<uintptr_t *>(_Ptr_ptr)[-1] ==
; 110  : 				_BIG_ALLOCATION_SENTINEL);
; 111  :  #endif /* _DEBUG */
; 112  : 
; 113  : 		// Extra paranoia on aligned allocation/deallocation
; 114  : 		_SCL_SECURE_ALWAYS_VALIDATE(_Ptr_container < _Ptr_user);

  001a0	48 3b c1	 cmp	 rax, rcx
  001a3	72 06		 jb	 SHORT $LN425@clear
  001a5	e8 00 00 00 00	 call	 _invalid_parameter_noinfo_noreturn
  001aa	cc		 int	 3
$LN425@clear:

; 115  : 
; 116  :  #ifdef _DEBUG
; 117  : 		_SCL_SECURE_ALWAYS_VALIDATE(2 * sizeof(void *)
; 118  : 			<= _Ptr_user - _Ptr_container);
; 119  : 
; 120  :  #else /* _DEBUG */
; 121  : 		_SCL_SECURE_ALWAYS_VALIDATE(sizeof(void *)

  001ab	48 2b c8	 sub	 rcx, rax
  001ae	48 83 f9 08	 cmp	 rcx, 8
  001b2	73 06		 jae	 SHORT $LN426@clear
  001b4	e8 00 00 00 00	 call	 _invalid_parameter_noinfo_noreturn
  001b9	cc		 int	 3
$LN426@clear:

; 122  : 			<= _Ptr_user - _Ptr_container);
; 123  :  #endif /* _DEBUG */
; 124  : 
; 125  : 		_SCL_SECURE_ALWAYS_VALIDATE(_Ptr_user - _Ptr_container

  001ba	48 83 f9 27	 cmp	 rcx, 39			; 00000027H
  001be	76 06		 jbe	 SHORT $LN427@clear
  001c0	e8 00 00 00 00	 call	 _invalid_parameter_noinfo_noreturn
  001c5	cc		 int	 3
$LN427@clear:

; 126  : 			<= _NON_USER_SIZE);
; 127  : 
; 128  : 		_Ptr = reinterpret_cast<void *>(_Ptr_container);

  001c6	48 8b c8	 mov	 rcx, rax
$LN423@clear:

; 129  : 		}
; 130  :  #endif /* defined(_M_IX86) || defined(_M_X64) */
; 131  : 
; 132  : 	::operator delete(_Ptr);

  001c9	e8 00 00 00 00	 call	 ??3@YAXPEAX@Z		; operator delete
$LN428@clear:
; File c:\users\alist_000\cppmisc\packages\visualcpptools.14.0.24224-pre\lib\native\include\xstring

; 2257 : 		this->_Myres() = this->_BUF_SIZE - 1;

  001ce	48 c7 45 a8 0f
	00 00 00	 mov	 QWORD PTR $T12[rbp-232], 15

; 2216 : 		_Traits::assign(_Dx._Myptr()[_Dx._Mysize = _Newsize], _Elem());

  001d6	48 89 5d a0	 mov	 QWORD PTR $T12[rbp-240], rbx
; File c:\users\alist_000\cppmisc\packages\visualcpptools.14.0.24224-pre\lib\native\include\iosfwd

; 565  : 		_Left = _Right;

  001da	c6 45 90 00	 mov	 BYTE PTR $T12[rbp-256], 0
; File c:\users\alist_000\cppmisc\packages\visualcpptools.14.0.24224-pre\lib\native\include\system_error

; 523  : 		{	// construct from error code and message string

  001de	48 8d 05 00 00
	00 00		 lea	 rax, OFFSET FLAT:??_7_System_error@std@@6B@
  001e5	48 89 44 24 30	 mov	 QWORD PTR $T8[rsp], rax

; 522  : 		: runtime_error(_Makestr(_Errcode, _Message)), _Mycode(_Errcode)

  001ea	0f 11 74 24 48	 movups	 XMMWORD PTR $T8[rsp+24], xmm6
; File c:\users\alist_000\cppmisc\packages\visualcpptools.14.0.24224-pre\lib\native\include\xstring

; 2248 : 		else if (this->_BUF_SIZE <= this->_Myres())

  001ef	48 8b 45 e8	 mov	 rax, QWORD PTR $T16[rbp-232]
  001f3	48 83 f8 10	 cmp	 rax, 16
  001f7	72 4c		 jb	 SHORT $LN545@clear

; 2249 : 			{	// copy any leftovers to small buffer and deallocate
; 2250 : 			pointer _Ptr = this->_Bx()._Ptr;
; 2251 : 			this->_Getal().destroy(_STD addressof(this->_Bx()._Ptr));
; 2252 : 			if (0 < _Newsize)
; 2253 : 				_Traits::copy(this->_Bx()._Buf,
; 2254 : 					_Unfancy(_Ptr), _Newsize);
; 2255 : 			this->_Getal().deallocate(_Ptr, this->_Myres() + 1);

  001f9	48 ff c0	 inc	 rax
; File c:\users\alist_000\cppmisc\packages\visualcpptools.14.0.24224-pre\lib\native\include\xmemory0

; 720  : 		_Deallocate(_Ptr, _Count, sizeof (_Ty));

  001fc	48 8b 4d d0	 mov	 rcx, QWORD PTR $T16[rbp-256]

; 96   : 	if (_BIG_ALLOCATION_THRESHOLD <= _User_size)

  00200	48 3d 00 10 00
	00		 cmp	 rax, 4096		; 00001000H
  00206	72 38		 jb	 SHORT $LN540@clear

; 97   : 		{	// deallocate large block
; 98   : 		const uintptr_t _Ptr_user = reinterpret_cast<uintptr_t>(_Ptr);
; 99   : 		_SCL_SECURE_ALWAYS_VALIDATE(

  00208	f6 c1 1f	 test	 cl, 31
  0020b	74 06		 je	 SHORT $LN541@clear
  0020d	e8 00 00 00 00	 call	 _invalid_parameter_noinfo_noreturn
  00212	cc		 int	 3
$LN541@clear:

; 100  : 			(_Ptr_user & (_BIG_ALLOCATION_ALIGNMENT - 1)) == 0);
; 101  : 		const uintptr_t _Ptr_ptr = _Ptr_user - sizeof(void *);
; 102  : 		const uintptr_t _Ptr_container =
; 103  : 			*reinterpret_cast<uintptr_t *>(_Ptr_ptr);

  00213	48 8b 41 f8	 mov	 rax, QWORD PTR [rcx-8]

; 104  : 
; 105  :  #ifdef _DEBUG
; 106  : 		// If the following asserts, it likely means that we are performing
; 107  : 		// an aligned delete on memory coming from an unaligned allocation.
; 108  : 		_SCL_SECURE_ALWAYS_VALIDATE(
; 109  : 			reinterpret_cast<uintptr_t *>(_Ptr_ptr)[-1] ==
; 110  : 				_BIG_ALLOCATION_SENTINEL);
; 111  :  #endif /* _DEBUG */
; 112  : 
; 113  : 		// Extra paranoia on aligned allocation/deallocation
; 114  : 		_SCL_SECURE_ALWAYS_VALIDATE(_Ptr_container < _Ptr_user);

  00217	48 3b c1	 cmp	 rax, rcx
  0021a	72 06		 jb	 SHORT $LN542@clear
  0021c	e8 00 00 00 00	 call	 _invalid_parameter_noinfo_noreturn
  00221	cc		 int	 3
$LN542@clear:

; 115  : 
; 116  :  #ifdef _DEBUG
; 117  : 		_SCL_SECURE_ALWAYS_VALIDATE(2 * sizeof(void *)
; 118  : 			<= _Ptr_user - _Ptr_container);
; 119  : 
; 120  :  #else /* _DEBUG */
; 121  : 		_SCL_SECURE_ALWAYS_VALIDATE(sizeof(void *)

  00222	48 2b c8	 sub	 rcx, rax
  00225	48 83 f9 08	 cmp	 rcx, 8
  00229	73 06		 jae	 SHORT $LN543@clear
  0022b	e8 00 00 00 00	 call	 _invalid_parameter_noinfo_noreturn
  00230	cc		 int	 3
$LN543@clear:

; 122  : 			<= _Ptr_user - _Ptr_container);
; 123  :  #endif /* _DEBUG */
; 124  : 
; 125  : 		_SCL_SECURE_ALWAYS_VALIDATE(_Ptr_user - _Ptr_container

  00231	48 83 f9 27	 cmp	 rcx, 39			; 00000027H
  00235	76 06		 jbe	 SHORT $LN544@clear
  00237	e8 00 00 00 00	 call	 _invalid_parameter_noinfo_noreturn
  0023c	cc		 int	 3
$LN544@clear:

; 126  : 			<= _NON_USER_SIZE);
; 127  : 
; 128  : 		_Ptr = reinterpret_cast<void *>(_Ptr_container);

  0023d	48 8b c8	 mov	 rcx, rax
$LN540@clear:

; 129  : 		}
; 130  :  #endif /* defined(_M_IX86) || defined(_M_X64) */
; 131  : 
; 132  : 	::operator delete(_Ptr);

  00240	e8 00 00 00 00	 call	 ??3@YAXPEAX@Z		; operator delete
$LN545@clear:
; File c:\users\alist_000\cppmisc\packages\visualcpptools.14.0.24224-pre\lib\native\include\xiosbase

; 238  : 			{	// construct with message

  00245	48 8d 05 00 00
	00 00		 lea	 rax, OFFSET FLAT:??_7failure@ios_base@std@@6B@
  0024c	48 89 44 24 30	 mov	 QWORD PTR $T8[rsp], rax

; 294  : 			_THROW_NCEE(failure, "ios_base::badbit set");

  00251	48 8d 15 00 00
	00 00		 lea	 rdx, OFFSET FLAT:_TI5?AVfailure@ios_base@std@@
  00258	48 8d 4c 24 30	 lea	 rcx, QWORD PTR $T8[rsp]
  0025d	e8 00 00 00 00	 call	 _CxxThrowException
  00262	cc		 int	 3
$LN6@clear:

; 296  : 			_THROW_NCEE(failure, "ios_base::failbit set");

  00263	ba 01 00 00 00	 mov	 edx, 1
  00268	48 8d 4d d0	 lea	 rcx, QWORD PTR $T17[rbp-256]

; 295  : 		else if (_Mystate & _Except & failbit)

  0026c	a8 02		 test	 al, 2
  0026e	0f 84 64 01 00
	00		 je	 $LN8@clear

; 296  : 			_THROW_NCEE(failure, "ios_base::failbit set");

  00274	e8 00 00 00 00	 call	 ?make_error_code@std@@YA?AVerror_code@1@W4io_errc@1@@Z ; std::make_error_code

; 237  : 			: system_error(_Errcode, _Message)

  00279	0f 10 30	 movups	 xmm6, XMMWORD PTR [rax]
; File c:\users\alist_000\cppmisc\packages\visualcpptools.14.0.24224-pre\lib\native\include\xstring

; 2257 : 		this->_Myres() = this->_BUF_SIZE - 1;

  0027c	48 c7 45 a8 0f
	00 00 00	 mov	 QWORD PTR $T13[rbp-232], 15

; 2216 : 		_Traits::assign(_Dx._Myptr()[_Dx._Mysize = _Newsize], _Elem());

  00284	33 db		 xor	 ebx, ebx
  00286	48 89 5d a0	 mov	 QWORD PTR $T13[rbp-240], rbx
; File c:\users\alist_000\cppmisc\packages\visualcpptools.14.0.24224-pre\lib\native\include\iosfwd

; 565  : 		_Left = _Right;

  0028a	88 5d 90	 mov	 BYTE PTR $T13[rbp-256], bl
; File c:\users\alist_000\cppmisc\packages\visualcpptools.14.0.24224-pre\lib\native\include\xstring

; 1177 : 		return (assign(_Ptr, _Traits::length(_Ptr)));

  0028d	44 8d 43 15	 lea	 r8d, QWORD PTR [rbx+21]
  00291	48 8d 15 00 00
	00 00		 lea	 rdx, OFFSET FLAT:??_C@_0BG@FMKFHCIL@ios_base?3?3failbit?5set?$AA@
  00298	48 8d 4d 90	 lea	 rcx, QWORD PTR $T13[rbp-256]
  0029c	e8 00 00 00 00	 call	 ?assign@?$basic_string@DU?$char_traits@D@std@@V?$allocator@D@2@@std@@QEAAAEAV12@PEBD_K@Z ; std::basic_string<char,std::char_traits<char>,std::allocator<char> >::assign
  002a1	90		 npad	 1

; 2257 : 		this->_Myres() = this->_BUF_SIZE - 1;

  002a2	48 c7 44 24 48
	0f 00 00 00	 mov	 QWORD PTR $T7[rsp+24], 15

; 2216 : 		_Traits::assign(_Dx._Myptr()[_Dx._Mysize = _Newsize], _Elem());

  002ab	48 89 5c 24 40	 mov	 QWORD PTR $T7[rsp+16], rbx
; File c:\users\alist_000\cppmisc\packages\visualcpptools.14.0.24224-pre\lib\native\include\iosfwd

; 565  : 		_Left = _Right;

  002b0	88 5c 24 30	 mov	 BYTE PTR $T7[rsp], bl
; File c:\users\alist_000\cppmisc\packages\visualcpptools.14.0.24224-pre\lib\native\include\xstring

; 777  : 		assign(_Right, 0, npos);

  002b4	49 83 c9 ff	 or	 r9, -1
  002b8	45 33 c0	 xor	 r8d, r8d
  002bb	48 8d 55 90	 lea	 rdx, QWORD PTR $T13[rbp-256]
  002bf	48 8d 4c 24 30	 lea	 rcx, QWORD PTR $T7[rsp]
  002c4	e8 00 00 00 00	 call	 ?assign@?$basic_string@DU?$char_traits@D@std@@V?$allocator@D@2@@std@@QEAAAEAV12@AEBV12@_K1@Z ; std::basic_string<char,std::char_traits<char>,std::allocator<char> >::assign
; File c:\users\alist_000\cppmisc\packages\visualcpptools.14.0.24224-pre\lib\native\include\system_error

; 522  : 		: runtime_error(_Makestr(_Errcode, _Message)), _Mycode(_Errcode)

  002c9	66 0f 7f 74 24
	20		 movdqa	 XMMWORD PTR $T2[rsp], xmm6
  002cf	4c 8d 44 24 30	 lea	 r8, QWORD PTR $T7[rsp]
  002d4	48 8d 54 24 20	 lea	 rdx, QWORD PTR $T2[rsp]
  002d9	48 8d 4d b0	 lea	 rcx, QWORD PTR $T14[rbp-256]
  002dd	e8 00 00 00 00	 call	 ?_Makestr@_System_error@std@@CA?AV?$basic_string@DU?$char_traits@D@std@@V?$allocator@D@2@@2@Verror_code@2@V32@@Z ; std::_System_error::_Makestr
; File c:\users\alist_000\cppmisc\packages\visualcpptools.14.0.24224-pre\lib\native\include\xstring

; 516  : 		return (this->_BUF_SIZE <= _Myres

  002e2	48 83 78 18 10	 cmp	 QWORD PTR [rax+24], 16
  002e7	72 03		 jb	 SHORT $LN877@clear
; File c:\users\alist_000\cppmisc\packages\visualcpptools.14.0.24224-pre\lib\native\include\xstddef

; 740  : 	return (_Ptr);

  002e9	48 8b 00	 mov	 rax, QWORD PTR [rax]
$LN877@clear:
; File c:\users\alist_000\cppmisc\packages\visualcpptools.14.0.24224-pre\lib\native\include\vcruntime_exception.h

; 53   :     {

  002ec	48 8d 0d 00 00
	00 00		 lea	 rcx, OFFSET FLAT:??_7exception@std@@6B@
  002f3	48 89 4c 24 58	 mov	 QWORD PTR $T10[rsp], rcx

; 52   :         : _Data()

  002f8	33 c9		 xor	 ecx, ecx
  002fa	48 89 4c 24 60	 mov	 QWORD PTR $T10[rsp+8], rcx
  002ff	48 89 4c 24 68	 mov	 QWORD PTR $T10[rsp+16], rcx

; 54   :         __std_exception_data _InitData = { _Message, true };

  00304	48 89 44 24 20	 mov	 QWORD PTR _InitData$1[rsp], rax
  00309	c6 44 24 28 01	 mov	 BYTE PTR _InitData$1[rsp+8], 1

; 55   :         __std_exception_copy(&_InitData, &_Data);

  0030e	48 8d 54 24 60	 lea	 rdx, QWORD PTR $T10[rsp+8]
  00313	48 8d 4c 24 20	 lea	 rcx, QWORD PTR _InitData$1[rsp]
  00318	e8 00 00 00 00	 call	 __std_exception_copy
; File c:\users\alist_000\cppmisc\packages\visualcpptools.14.0.24224-pre\lib\native\include\stdexcept

; 163  : 		{	// construct from message string

  0031d	48 8d 05 00 00
	00 00		 lea	 rax, OFFSET FLAT:??_7runtime_error@std@@6B@
  00324	48 89 44 24 58	 mov	 QWORD PTR $T10[rsp], rax
; File c:\users\alist_000\cppmisc\packages\visualcpptools.14.0.24224-pre\lib\native\include\xstring

; 2248 : 		else if (this->_BUF_SIZE <= this->_Myres())

  00329	48 8b 45 c8	 mov	 rax, QWORD PTR $T14[rbp-232]
  0032d	48 83 f8 10	 cmp	 rax, 16
  00331	72 4c		 jb	 SHORT $LN968@clear

; 2249 : 			{	// copy any leftovers to small buffer and deallocate
; 2250 : 			pointer _Ptr = this->_Bx()._Ptr;
; 2251 : 			this->_Getal().destroy(_STD addressof(this->_Bx()._Ptr));
; 2252 : 			if (0 < _Newsize)
; 2253 : 				_Traits::copy(this->_Bx()._Buf,
; 2254 : 					_Unfancy(_Ptr), _Newsize);
; 2255 : 			this->_Getal().deallocate(_Ptr, this->_Myres() + 1);

  00333	48 ff c0	 inc	 rax
; File c:\users\alist_000\cppmisc\packages\visualcpptools.14.0.24224-pre\lib\native\include\xmemory0

; 720  : 		_Deallocate(_Ptr, _Count, sizeof (_Ty));

  00336	48 8b 4d b0	 mov	 rcx, QWORD PTR $T14[rbp-256]

; 96   : 	if (_BIG_ALLOCATION_THRESHOLD <= _User_size)

  0033a	48 3d 00 10 00
	00		 cmp	 rax, 4096		; 00001000H
  00340	72 38		 jb	 SHORT $LN963@clear

; 97   : 		{	// deallocate large block
; 98   : 		const uintptr_t _Ptr_user = reinterpret_cast<uintptr_t>(_Ptr);
; 99   : 		_SCL_SECURE_ALWAYS_VALIDATE(

  00342	f6 c1 1f	 test	 cl, 31
  00345	74 06		 je	 SHORT $LN964@clear
  00347	e8 00 00 00 00	 call	 _invalid_parameter_noinfo_noreturn
  0034c	cc		 int	 3
$LN964@clear:

; 100  : 			(_Ptr_user & (_BIG_ALLOCATION_ALIGNMENT - 1)) == 0);
; 101  : 		const uintptr_t _Ptr_ptr = _Ptr_user - sizeof(void *);
; 102  : 		const uintptr_t _Ptr_container =
; 103  : 			*reinterpret_cast<uintptr_t *>(_Ptr_ptr);

  0034d	48 8b 41 f8	 mov	 rax, QWORD PTR [rcx-8]

; 104  : 
; 105  :  #ifdef _DEBUG
; 106  : 		// If the following asserts, it likely means that we are performing
; 107  : 		// an aligned delete on memory coming from an unaligned allocation.
; 108  : 		_SCL_SECURE_ALWAYS_VALIDATE(
; 109  : 			reinterpret_cast<uintptr_t *>(_Ptr_ptr)[-1] ==
; 110  : 				_BIG_ALLOCATION_SENTINEL);
; 111  :  #endif /* _DEBUG */
; 112  : 
; 113  : 		// Extra paranoia on aligned allocation/deallocation
; 114  : 		_SCL_SECURE_ALWAYS_VALIDATE(_Ptr_container < _Ptr_user);

  00351	48 3b c1	 cmp	 rax, rcx
  00354	72 06		 jb	 SHORT $LN965@clear
  00356	e8 00 00 00 00	 call	 _invalid_parameter_noinfo_noreturn
  0035b	cc		 int	 3
$LN965@clear:

; 115  : 
; 116  :  #ifdef _DEBUG
; 117  : 		_SCL_SECURE_ALWAYS_VALIDATE(2 * sizeof(void *)
; 118  : 			<= _Ptr_user - _Ptr_container);
; 119  : 
; 120  :  #else /* _DEBUG */
; 121  : 		_SCL_SECURE_ALWAYS_VALIDATE(sizeof(void *)

  0035c	48 2b c8	 sub	 rcx, rax
  0035f	48 83 f9 08	 cmp	 rcx, 8
  00363	73 06		 jae	 SHORT $LN966@clear
  00365	e8 00 00 00 00	 call	 _invalid_parameter_noinfo_noreturn
  0036a	cc		 int	 3
$LN966@clear:

; 122  : 			<= _Ptr_user - _Ptr_container);
; 123  :  #endif /* _DEBUG */
; 124  : 
; 125  : 		_SCL_SECURE_ALWAYS_VALIDATE(_Ptr_user - _Ptr_container

  0036b	48 83 f9 27	 cmp	 rcx, 39			; 00000027H
  0036f	76 06		 jbe	 SHORT $LN967@clear
  00371	e8 00 00 00 00	 call	 _invalid_parameter_noinfo_noreturn
  00376	cc		 int	 3
$LN967@clear:

; 126  : 			<= _NON_USER_SIZE);
; 127  : 
; 128  : 		_Ptr = reinterpret_cast<void *>(_Ptr_container);

  00377	48 8b c8	 mov	 rcx, rax
$LN963@clear:

; 129  : 		}
; 130  :  #endif /* defined(_M_IX86) || defined(_M_X64) */
; 131  : 
; 132  : 	::operator delete(_Ptr);

  0037a	e8 00 00 00 00	 call	 ??3@YAXPEAX@Z		; operator delete
$LN968@clear:
; File c:\users\alist_000\cppmisc\packages\visualcpptools.14.0.24224-pre\lib\native\include\xstring

; 2257 : 		this->_Myres() = this->_BUF_SIZE - 1;

  0037f	48 c7 45 c8 0f
	00 00 00	 mov	 QWORD PTR $T14[rbp-232], 15

; 2216 : 		_Traits::assign(_Dx._Myptr()[_Dx._Mysize = _Newsize], _Elem());

  00387	48 89 5d c0	 mov	 QWORD PTR $T14[rbp-240], rbx
; File c:\users\alist_000\cppmisc\packages\visualcpptools.14.0.24224-pre\lib\native\include\iosfwd

; 565  : 		_Left = _Right;

  0038b	c6 45 b0 00	 mov	 BYTE PTR $T14[rbp-256], 0
; File c:\users\alist_000\cppmisc\packages\visualcpptools.14.0.24224-pre\lib\native\include\system_error

; 523  : 		{	// construct from error code and message string

  0038f	48 8d 05 00 00
	00 00		 lea	 rax, OFFSET FLAT:??_7_System_error@std@@6B@
  00396	48 89 44 24 58	 mov	 QWORD PTR $T10[rsp], rax

; 522  : 		: runtime_error(_Makestr(_Errcode, _Message)), _Mycode(_Errcode)

  0039b	0f 11 74 24 70	 movups	 XMMWORD PTR $T10[rsp+24], xmm6
; File c:\users\alist_000\cppmisc\packages\visualcpptools.14.0.24224-pre\lib\native\include\xstring

; 2248 : 		else if (this->_BUF_SIZE <= this->_Myres())

  003a0	4c 8b 45 a8	 mov	 r8, QWORD PTR $T13[rbp-232]
  003a4	49 83 f8 10	 cmp	 r8, 16
  003a8	72 10		 jb	 SHORT $LN1005@clear

; 2249 : 			{	// copy any leftovers to small buffer and deallocate
; 2250 : 			pointer _Ptr = this->_Bx()._Ptr;
; 2251 : 			this->_Getal().destroy(_STD addressof(this->_Bx()._Ptr));
; 2252 : 			if (0 < _Newsize)
; 2253 : 				_Traits::copy(this->_Bx()._Buf,
; 2254 : 					_Unfancy(_Ptr), _Newsize);
; 2255 : 			this->_Getal().deallocate(_Ptr, this->_Myres() + 1);

  003aa	49 ff c0	 inc	 r8
  003ad	48 8b 55 90	 mov	 rdx, QWORD PTR $T13[rbp-256]
  003b1	48 8d 4d 90	 lea	 rcx, QWORD PTR $T13[rbp-256]
  003b5	e8 00 00 00 00	 call	 ?deallocate@?$_Wrap_alloc@V?$allocator@D@std@@@std@@QEAAXPEAD_K@Z ; std::_Wrap_alloc<std::allocator<char> >::deallocate
$LN1005@clear:
; File c:\users\alist_000\cppmisc\packages\visualcpptools.14.0.24224-pre\lib\native\include\xiosbase

; 238  : 			{	// construct with message

  003ba	48 8d 05 00 00
	00 00		 lea	 rax, OFFSET FLAT:??_7failure@ios_base@std@@6B@
  003c1	48 89 44 24 58	 mov	 QWORD PTR $T10[rsp], rax

; 296  : 			_THROW_NCEE(failure, "ios_base::failbit set");

  003c6	48 8d 15 00 00
	00 00		 lea	 rdx, OFFSET FLAT:_TI5?AVfailure@ios_base@std@@
  003cd	48 8d 4c 24 58	 lea	 rcx, QWORD PTR $T10[rsp]
  003d2	e8 00 00 00 00	 call	 _CxxThrowException
  003d7	cc		 int	 3
$LN8@clear:

; 297  : 		else
; 298  : 			_THROW_NCEE(failure, "ios_base::eofbit set");

  003d8	e8 00 00 00 00	 call	 ?make_error_code@std@@YA?AVerror_code@1@W4io_errc@1@@Z ; std::make_error_code

; 237  : 			: system_error(_Errcode, _Message)

  003dd	0f 10 00	 movups	 xmm0, XMMWORD PTR [rax]
  003e0	0f 29 44 24 20	 movaps	 XMMWORD PTR $T4[rsp], xmm0
  003e5	4c 8d 05 00 00
	00 00		 lea	 r8, OFFSET FLAT:??_C@_0BF@OOHOMBOF@ios_base?3?3eofbit?5set?$AA@
  003ec	48 8d 54 24 20	 lea	 rdx, QWORD PTR $T4[rsp]
  003f1	48 8d 4c 24 58	 lea	 rcx, QWORD PTR $T9[rsp]
  003f6	e8 00 00 00 00	 call	 ??0system_error@std@@QEAA@Verror_code@1@PEBD@Z ; std::system_error::system_error

; 238  : 			{	// construct with message

  003fb	48 8d 05 00 00
	00 00		 lea	 rax, OFFSET FLAT:??_7failure@ios_base@std@@6B@
  00402	48 89 44 24 58	 mov	 QWORD PTR $T9[rsp], rax

; 297  : 		else
; 298  : 			_THROW_NCEE(failure, "ios_base::eofbit set");

  00407	48 8d 15 00 00
	00 00		 lea	 rdx, OFFSET FLAT:_TI5?AVfailure@ios_base@std@@
  0040e	48 8d 4c 24 58	 lea	 rcx, QWORD PTR $T9[rsp]
  00413	e8 00 00 00 00	 call	 _CxxThrowException
  00418	cc		 int	 3
$LN9@clear:

; 299  : 		}

  00419	48 8b 4d f0	 mov	 rcx, QWORD PTR __$ArrayPad$[rbp-256]
  0041d	48 33 cc	 xor	 rcx, rsp
  00420	e8 00 00 00 00	 call	 __security_check_cookie
  00425	48 8b 9c 24 28
	01 00 00	 mov	 rbx, QWORD PTR [rsp+296]
  0042d	0f 28 b4 24 00
	01 00 00	 movaps	 xmm6, XMMWORD PTR [rsp+256]
  00435	48 81 c4 10 01
	00 00		 add	 rsp, 272		; 00000110H
  0043c	5d		 pop	 rbp
  0043d	c3		 ret	 0
$LN1104@clear:
?clear@ios_base@std@@QEAAXH_N@Z ENDP			; std::ios_base::clear
_TEXT	ENDS
;	COMDAT text$x
text$x	SEGMENT
_InitData$1 = 32
$T2 = 32
_InitData$3 = 32
$T4 = 32
$T5 = 32
$T6 = 32
$T7 = 48
$T8 = 48
$T9 = 88
$T10 = 88
$T11 = 136
$T12 = 144
$T13 = 144
$T14 = 176
$T15 = 176
$T16 = 208
$T17 = 208
__$ArrayPad$ = 240
this$ = 288
_State$ = 296
_Reraise$ = 304
?dtor$7@?0??clear@ios_base@std@@QEAAXH_N@Z@4HA PROC	; `std::ios_base::clear'::`1'::dtor$7
  00000	48 8d 8a d0 00
	00 00		 lea	 rcx, QWORD PTR $T16[rdx]
  00007	e9 00 00 00 00	 jmp	 ??1?$basic_string@DU?$char_traits@D@std@@V?$allocator@D@2@@std@@QEAA@XZ ; std::basic_string<char,std::char_traits<char>,std::allocator<char> >::~basic_string<char,std::char_traits<char>,std::allocator<char> >
?dtor$7@?0??clear@ios_base@std@@QEAAXH_N@Z@4HA ENDP	; `std::ios_base::clear'::`1'::dtor$7
_InitData$1 = 32
$T2 = 32
_InitData$3 = 32
$T4 = 32
$T5 = 32
$T6 = 32
$T7 = 48
$T8 = 48
$T9 = 88
$T10 = 88
$T11 = 136
$T12 = 144
$T13 = 144
$T14 = 176
$T15 = 176
$T16 = 208
$T17 = 208
__$ArrayPad$ = 240
this$ = 288
_State$ = 296
_Reraise$ = 304
?dtor$127@?0??clear@ios_base@std@@QEAAXH_N@Z@4HA PROC	; `std::ios_base::clear'::`1'::dtor$127
  0000c	48 8d 8a 90 00
	00 00		 lea	 rcx, QWORD PTR $T13[rdx]
  00013	e9 00 00 00 00	 jmp	 ??1?$basic_string@DU?$char_traits@D@std@@V?$allocator@D@2@@std@@QEAA@XZ ; std::basic_string<char,std::char_traits<char>,std::allocator<char> >::~basic_string<char,std::char_traits<char>,std::allocator<char> >
?dtor$127@?0??clear@ios_base@std@@QEAAXH_N@Z@4HA ENDP	; `std::ios_base::clear'::`1'::dtor$127
text$x	ENDS
; Function compile flags: /Ogtpy
;	COMDAT text$x
text$x	SEGMENT
_InitData$1 = 32
$T2 = 32
_InitData$3 = 32
$T4 = 32
$T5 = 32
$T6 = 32
$T7 = 48
$T8 = 48
$T9 = 88
$T10 = 88
$T11 = 136
$T12 = 144
$T13 = 144
$T14 = 176
$T15 = 176
$T16 = 208
$T17 = 208
__$ArrayPad$ = 240
this$ = 288
_State$ = 296
_Reraise$ = 304
?dtor$7@?0??clear@ios_base@std@@QEAAXH_N@Z@4HA PROC	; `std::ios_base::clear'::`1'::dtor$7
  00000	48 8d 8a d0 00
	00 00		 lea	 rcx, QWORD PTR $T16[rdx]
  00007	e9 00 00 00 00	 jmp	 ??1?$basic_string@DU?$char_traits@D@std@@V?$allocator@D@2@@std@@QEAA@XZ ; std::basic_string<char,std::char_traits<char>,std::allocator<char> >::~basic_string<char,std::char_traits<char>,std::allocator<char> >
?dtor$7@?0??clear@ios_base@std@@QEAAXH_N@Z@4HA ENDP	; `std::ios_base::clear'::`1'::dtor$7
text$x	ENDS
; Function compile flags: /Ogtpy
;	COMDAT text$x
text$x	SEGMENT
_InitData$1 = 32
$T2 = 32
_InitData$3 = 32
$T4 = 32
$T5 = 32
$T6 = 32
$T7 = 48
$T8 = 48
$T9 = 88
$T10 = 88
$T11 = 136
$T12 = 144
$T13 = 144
$T14 = 176
$T15 = 176
$T16 = 208
$T17 = 208
__$ArrayPad$ = 240
this$ = 288
_State$ = 296
_Reraise$ = 304
?dtor$127@?0??clear@ios_base@std@@QEAAXH_N@Z@4HA PROC	; `std::ios_base::clear'::`1'::dtor$127
  0000c	48 8d 8a 90 00
	00 00		 lea	 rcx, QWORD PTR $T13[rdx]
  00013	e9 00 00 00 00	 jmp	 ??1?$basic_string@DU?$char_traits@D@std@@V?$allocator@D@2@@std@@QEAA@XZ ; std::basic_string<char,std::char_traits<char>,std::allocator<char> >::~basic_string<char,std::char_traits<char>,std::allocator<char> >
?dtor$127@?0??clear@ios_base@std@@QEAAXH_N@Z@4HA ENDP	; `std::ios_base::clear'::`1'::dtor$127
text$x	ENDS
; Function compile flags: /Ogtpy
; File c:\users\alist_000\cppmisc\packages\visualcpptools.14.0.24224-pre\lib\native\include\xiosbase
;	COMDAT ?rdstate@ios_base@std@@QEBAHXZ
_TEXT	SEGMENT
this$ = 8
?rdstate@ios_base@std@@QEBAHXZ PROC			; std::ios_base::rdstate, COMDAT

; 315  : 		return (_Mystate);

  00000	8b 41 10	 mov	 eax, DWORD PTR [rcx+16]

; 316  : 		}

  00003	c3		 ret	 0
?rdstate@ios_base@std@@QEBAHXZ ENDP			; std::ios_base::rdstate
_TEXT	ENDS
; Function compile flags: /Ogtpy
; File c:\users\alist_000\cppmisc\packages\visualcpptools.14.0.24224-pre\lib\native\include\xiosbase
;	COMDAT ?good@ios_base@std@@QEBA_NXZ
_TEXT	SEGMENT
this$ = 8
?good@ios_base@std@@QEBA_NXZ PROC			; std::ios_base::good, COMDAT

; 338  : 		{	// test if no state bits are set

  00000	83 79 10 00	 cmp	 DWORD PTR [rcx+16], 0
  00004	0f 94 c0	 sete	 al

; 339  : 		return (rdstate() == goodbit);
; 340  : 		}

  00007	c3		 ret	 0
?good@ios_base@std@@QEBA_NXZ ENDP			; std::ios_base::good
_TEXT	ENDS
; Function compile flags: /Ogtpy
; File c:\users\alist_000\cppmisc\packages\visualcpptools.14.0.24224-pre\lib\native\include\xiosbase
;	COMDAT ?flags@ios_base@std@@QEBAHXZ
_TEXT	SEGMENT
this$ = 8
?flags@ios_base@std@@QEBAHXZ PROC			; std::ios_base::flags, COMDAT

; 378  : 		return (_Fmtfl);

  00000	8b 41 18	 mov	 eax, DWORD PTR [rcx+24]

; 379  : 		}

  00003	c3		 ret	 0
?flags@ios_base@std@@QEBAHXZ ENDP			; std::ios_base::flags
_TEXT	ENDS
; Function compile flags: /Ogtpy
; File c:\users\alist_000\cppmisc\packages\visualcpptools.14.0.24224-pre\lib\native\include\xiosbase
;	COMDAT ?width@ios_base@std@@QEBA_JXZ
_TEXT	SEGMENT
this$ = 8
?width@ios_base@std@@QEBA_JXZ PROC			; std::ios_base::width, COMDAT

; 423  : 		return (_Wide);

  00000	48 8b 41 28	 mov	 rax, QWORD PTR [rcx+40]

; 424  : 		}

  00004	c3		 ret	 0
?width@ios_base@std@@QEBA_JXZ ENDP			; std::ios_base::width
_TEXT	ENDS
; Function compile flags: /Ogtpy
; File c:\users\alist_000\cppmisc\packages\visualcpptools.14.0.24224-pre\lib\native\include\xiosbase
;	COMDAT ?width@ios_base@std@@QEAA_J_J@Z
_TEXT	SEGMENT
this$ = 8
_Newwidth$ = 16
?width@ios_base@std@@QEAA_J_J@Z PROC			; std::ios_base::width, COMDAT

; 428  : 		streamsize _Oldwidth = _Wide;

  00000	48 8b 41 28	 mov	 rax, QWORD PTR [rcx+40]

; 429  : 		_Wide = _Newwidth;

  00004	48 89 51 28	 mov	 QWORD PTR [rcx+40], rdx

; 430  : 		return (_Oldwidth);
; 431  : 		}

  00008	c3		 ret	 0
?width@ios_base@std@@QEAA_J_J@Z ENDP			; std::ios_base::width
_TEXT	ENDS
; Function compile flags: /Ogtpy
; File c:\users\alist_000\cppmisc\packages\visualcpptools.14.0.24224-pre\lib\native\include\xiosbase
; File c:\users\alist_000\cppmisc\packages\visualcpptools.14.0.24224-pre\lib\native\include\xlocale
; File c:\users\alist_000\cppmisc\packages\visualcpptools.14.0.24224-pre\lib\native\include\xiosbase
;	COMDAT ?getloc@ios_base@std@@QEBA?AVlocale@2@XZ
_TEXT	SEGMENT
$T1 = 32
this$ = 64
__$ReturnUdt$ = 72
?getloc@ios_base@std@@QEBA?AVlocale@2@XZ PROC		; std::ios_base::getloc, COMDAT

; 434  : 		{	// get locale

$LN6:
  00000	40 53		 push	 rbx
  00002	48 83 ec 30	 sub	 rsp, 48			; 00000030H
  00006	48 c7 44 24 20
	fe ff ff ff	 mov	 QWORD PTR $T1[rsp], -2
  0000f	48 8b da	 mov	 rbx, rdx

; 435  : 		return (*_Ploc);

  00012	48 8b 41 40	 mov	 rax, QWORD PTR [rcx+64]
; File c:\users\alist_000\cppmisc\packages\visualcpptools.14.0.24224-pre\lib\native\include\xlocale

; 324  : 		: _Ptr(_Right._Ptr)

  00016	48 8b 48 08	 mov	 rcx, QWORD PTR [rax+8]
  0001a	48 89 4a 08	 mov	 QWORD PTR [rdx+8], rcx

; 325  : 		{	// construct by copying
; 326  : 		_Ptr->_Incref();

  0001e	48 8b 01	 mov	 rax, QWORD PTR [rcx]
  00021	ff 50 08	 call	 QWORD PTR [rax+8]
  00024	90		 npad	 1
; File c:\users\alist_000\cppmisc\packages\visualcpptools.14.0.24224-pre\lib\native\include\xiosbase

; 435  : 		return (*_Ploc);

  00025	48 8b c3	 mov	 rax, rbx

; 436  : 		}

  00028	48 83 c4 30	 add	 rsp, 48			; 00000030H
  0002c	5b		 pop	 rbx
  0002d	c3		 ret	 0
?getloc@ios_base@std@@QEBA?AVlocale@2@XZ ENDP		; std::ios_base::getloc
_TEXT	ENDS
; Function compile flags: /Ogtpy
; File c:\users\alist_000\cppmisc\packages\visualcpptools.14.0.24224-pre\lib\native\include\vcruntime_exception.h
;	COMDAT ??_Gfailure@ios_base@std@@UEAAPEAXI@Z
_TEXT	SEGMENT
this$ = 48
__flags$ = 56
??_Gfailure@ios_base@std@@UEAAPEAXI@Z PROC		; std::ios_base::failure::`scalar deleting destructor', COMDAT
$LN20:
  00000	48 89 5c 24 08	 mov	 QWORD PTR [rsp+8], rbx
  00005	57		 push	 rdi
  00006	48 83 ec 20	 sub	 rsp, 32			; 00000020H

; 83   :     {

  0000a	48 8d 05 00 00
	00 00		 lea	 rax, OFFSET FLAT:??_7exception@std@@6B@
  00011	48 8b f9	 mov	 rdi, rcx
  00014	48 89 01	 mov	 QWORD PTR [rcx], rax
  00017	8b da		 mov	 ebx, edx

; 84   :         __std_exception_destroy(&_Data);

  00019	48 83 c1 08	 add	 rcx, 8
  0001d	e8 00 00 00 00	 call	 __std_exception_destroy
  00022	f6 c3 01	 test	 bl, 1
  00025	74 0d		 je	 SHORT $LN18@scalar
  00027	ba 28 00 00 00	 mov	 edx, 40			; 00000028H
  0002c	48 8b cf	 mov	 rcx, rdi
  0002f	e8 00 00 00 00	 call	 ??3@YAXPEAX_K@Z		; operator delete
$LN18@scalar:
  00034	48 8b c7	 mov	 rax, rdi
  00037	48 8b 5c 24 30	 mov	 rbx, QWORD PTR [rsp+48]
  0003c	48 83 c4 20	 add	 rsp, 32			; 00000020H
  00040	5f		 pop	 rdi
  00041	c3		 ret	 0
??_Gfailure@ios_base@std@@UEAAPEAXI@Z ENDP		; std::ios_base::failure::`scalar deleting destructor'
_TEXT	ENDS
; Function compile flags: /Ogtpy
; File c:\users\alist_000\cppmisc\packages\visualcpptools.14.0.24224-pre\lib\native\include\vcruntime_exception.h
;	COMDAT ??1failure@ios_base@std@@UEAA@XZ
_TEXT	SEGMENT
this$ = 8
??1failure@ios_base@std@@UEAA@XZ PROC			; std::ios_base::failure::~failure, COMDAT

; 83   :     {

  00000	48 8d 05 00 00
	00 00		 lea	 rax, OFFSET FLAT:??_7exception@std@@6B@
  00007	48 89 01	 mov	 QWORD PTR [rcx], rax

; 84   :         __std_exception_destroy(&_Data);

  0000a	48 83 c1 08	 add	 rcx, 8
  0000e	e9 00 00 00 00	 jmp	 __std_exception_destroy
??1failure@ios_base@std@@UEAA@XZ ENDP			; std::ios_base::failure::~failure
_TEXT	ENDS
; Function compile flags: /Ogtpy
; File c:\users\alist_000\cppmisc\packages\visualcpptools.14.0.24224-pre\lib\native\include\vcruntime_exception.h
;	COMDAT ??0failure@ios_base@std@@QEAA@AEBV012@@Z
_TEXT	SEGMENT
this$ = 48
__that$ = 56
??0failure@ios_base@std@@QEAA@AEBV012@@Z PROC		; std::ios_base::failure::failure, COMDAT
$LN15:
  00000	48 89 5c 24 08	 mov	 QWORD PTR [rsp+8], rbx
  00005	57		 push	 rdi
  00006	48 83 ec 20	 sub	 rsp, 32			; 00000020H
  0000a	48 8b da	 mov	 rbx, rdx

; 66   :     {

  0000d	48 8d 05 00 00
	00 00		 lea	 rax, OFFSET FLAT:??_7exception@std@@6B@
  00014	48 89 01	 mov	 QWORD PTR [rcx], rax
  00017	48 8d 51 08	 lea	 rdx, QWORD PTR [rcx+8]
  0001b	33 c0		 xor	 eax, eax
  0001d	48 8b f9	 mov	 rdi, rcx

; 65   :         : _Data()

  00020	48 89 02	 mov	 QWORD PTR [rdx], rax

; 67   :         __std_exception_copy(&_Other._Data, &_Data);

  00023	48 8d 4b 08	 lea	 rcx, QWORD PTR [rbx+8]
  00027	48 89 42 08	 mov	 QWORD PTR [rdx+8], rax
  0002b	e8 00 00 00 00	 call	 __std_exception_copy
  00030	48 8d 05 00 00
	00 00		 lea	 rax, OFFSET FLAT:??_7_System_error@std@@6B@
  00037	48 89 07	 mov	 QWORD PTR [rdi], rax
  0003a	48 8d 05 00 00
	00 00		 lea	 rax, OFFSET FLAT:??_7failure@ios_base@std@@6B@
  00041	0f 10 43 18	 movups	 xmm0, XMMWORD PTR [rbx+24]
  00045	48 8b 5c 24 30	 mov	 rbx, QWORD PTR [rsp+48]
  0004a	48 89 07	 mov	 QWORD PTR [rdi], rax
  0004d	48 8b c7	 mov	 rax, rdi
  00050	0f 11 47 18	 movups	 XMMWORD PTR [rdi+24], xmm0
  00054	48 83 c4 20	 add	 rsp, 32			; 00000020H
  00058	5f		 pop	 rdi
  00059	c3		 ret	 0
??0failure@ios_base@std@@QEAA@AEBV012@@Z ENDP		; std::ios_base::failure::failure
_TEXT	ENDS
; Function compile flags: /Ogtpy
; File c:\users\alist_000\cppmisc\packages\visualcpptools.14.0.24224-pre\lib\native\include\vcruntime_exception.h
;	COMDAT ??0system_error@std@@QEAA@AEBV01@@Z
_TEXT	SEGMENT
this$ = 48
__that$ = 56
??0system_error@std@@QEAA@AEBV01@@Z PROC		; std::system_error::system_error, COMDAT
$LN12:
  00000	48 89 5c 24 08	 mov	 QWORD PTR [rsp+8], rbx
  00005	57		 push	 rdi
  00006	48 83 ec 20	 sub	 rsp, 32			; 00000020H
  0000a	48 8b da	 mov	 rbx, rdx

; 66   :     {

  0000d	48 8d 05 00 00
	00 00		 lea	 rax, OFFSET FLAT:??_7exception@std@@6B@
  00014	48 89 01	 mov	 QWORD PTR [rcx], rax
  00017	48 8d 51 08	 lea	 rdx, QWORD PTR [rcx+8]
  0001b	33 c0		 xor	 eax, eax
  0001d	48 8b f9	 mov	 rdi, rcx

; 65   :         : _Data()

  00020	48 89 02	 mov	 QWORD PTR [rdx], rax

; 67   :         __std_exception_copy(&_Other._Data, &_Data);

  00023	48 8d 4b 08	 lea	 rcx, QWORD PTR [rbx+8]
  00027	48 89 42 08	 mov	 QWORD PTR [rdx+8], rax
  0002b	e8 00 00 00 00	 call	 __std_exception_copy
  00030	48 8d 05 00 00
	00 00		 lea	 rax, OFFSET FLAT:??_7_System_error@std@@6B@
  00037	48 89 07	 mov	 QWORD PTR [rdi], rax
  0003a	48 8d 05 00 00
	00 00		 lea	 rax, OFFSET FLAT:??_7system_error@std@@6B@
  00041	0f 10 43 18	 movups	 xmm0, XMMWORD PTR [rbx+24]
  00045	48 8b 5c 24 30	 mov	 rbx, QWORD PTR [rsp+48]
  0004a	48 89 07	 mov	 QWORD PTR [rdi], rax
  0004d	48 8b c7	 mov	 rax, rdi
  00050	0f 11 47 18	 movups	 XMMWORD PTR [rdi+24], xmm0
  00054	48 83 c4 20	 add	 rsp, 32			; 00000020H
  00058	5f		 pop	 rdi
  00059	c3		 ret	 0
??0system_error@std@@QEAA@AEBV01@@Z ENDP		; std::system_error::system_error
_TEXT	ENDS
; Function compile flags: /Ogtpy
; File c:\users\alist_000\cppmisc\packages\visualcpptools.14.0.24224-pre\lib\native\include\vcruntime_exception.h
;	COMDAT ??0_System_error@std@@QEAA@AEBV01@@Z
_TEXT	SEGMENT
this$ = 48
__that$ = 56
??0_System_error@std@@QEAA@AEBV01@@Z PROC		; std::_System_error::_System_error, COMDAT
$LN9:
  00000	48 89 5c 24 08	 mov	 QWORD PTR [rsp+8], rbx
  00005	57		 push	 rdi
  00006	48 83 ec 20	 sub	 rsp, 32			; 00000020H
  0000a	48 8b da	 mov	 rbx, rdx

; 66   :     {

  0000d	48 8d 05 00 00
	00 00		 lea	 rax, OFFSET FLAT:??_7exception@std@@6B@
  00014	48 89 01	 mov	 QWORD PTR [rcx], rax
  00017	48 8d 51 08	 lea	 rdx, QWORD PTR [rcx+8]
  0001b	33 c0		 xor	 eax, eax
  0001d	48 8b f9	 mov	 rdi, rcx

; 65   :         : _Data()

  00020	48 89 02	 mov	 QWORD PTR [rdx], rax

; 67   :         __std_exception_copy(&_Other._Data, &_Data);

  00023	48 8d 4b 08	 lea	 rcx, QWORD PTR [rbx+8]
  00027	48 89 42 08	 mov	 QWORD PTR [rdx+8], rax
  0002b	e8 00 00 00 00	 call	 __std_exception_copy
  00030	48 8d 05 00 00
	00 00		 lea	 rax, OFFSET FLAT:??_7_System_error@std@@6B@
  00037	48 89 07	 mov	 QWORD PTR [rdi], rax
  0003a	48 8b c7	 mov	 rax, rdi
  0003d	0f 10 43 18	 movups	 xmm0, XMMWORD PTR [rbx+24]
  00041	48 8b 5c 24 30	 mov	 rbx, QWORD PTR [rsp+48]
  00046	0f 11 47 18	 movups	 XMMWORD PTR [rdi+24], xmm0
  0004a	48 83 c4 20	 add	 rsp, 32			; 00000020H
  0004e	5f		 pop	 rdi
  0004f	c3		 ret	 0
??0_System_error@std@@QEAA@AEBV01@@Z ENDP		; std::_System_error::_System_error
_TEXT	ENDS
; Function compile flags: /Ogtpy
; File c:\users\alist_000\cppmisc\fileformat.cc
; File c:\users\alist_000\cppmisc\packages\visualcpptools.14.0.24224-pre\lib\native\include\ostream
; File c:\users\alist_000\cppmisc\fileformat.cc
_TEXT	SEGMENT
main	PROC

; 34   : int main() {

$LN6:
  00000	48 83 ec 28	 sub	 rsp, 40			; 00000028H

; 35   :   cout << "fileformat" << endl;

  00004	e8 00 00 00 00	 call	 ??$?6U?$char_traits@D@std@@@std@@YAAEAV?$basic_ostream@DU?$char_traits@D@std@@@0@AEAV10@PEBD@Z ; std::operator<<<std::char_traits<char> >
; File c:\users\alist_000\cppmisc\packages\visualcpptools.14.0.24224-pre\lib\native\include\ostream

; 199  : 		return ((*_Pfn)(*this));

  00009	48 8b c8	 mov	 rcx, rax
  0000c	e8 00 00 00 00	 call	 ??$endl@DU?$char_traits@D@std@@@std@@YAAEAV?$basic_ostream@DU?$char_traits@D@std@@@0@AEAV10@@Z ; std::endl<char,std::char_traits<char> >
; File c:\users\alist_000\cppmisc\fileformat.cc

; 36   :   return 0;

  00011	33 c0		 xor	 eax, eax

; 37   : }

  00013	48 83 c4 28	 add	 rsp, 40			; 00000028H
  00017	c3		 ret	 0
main	ENDP
_TEXT	ENDS
; Function compile flags: /Ogtpy
; File c:\users\alist_000\cppmisc\packages\visualcpptools.14.0.24224-pre\lib\native\include\xutility
;	COMDAT ??1?$_Yarn@_W@std@@QEAA@XZ
_TEXT	SEGMENT
this$ = 48
??1?$_Yarn@_W@std@@QEAA@XZ PROC				; std::_Yarn<wchar_t>::~_Yarn<wchar_t>, COMDAT

; 3784 : 		{	// destroy the object

$LN8:
  00000	40 53		 push	 rbx
  00002	48 83 ec 20	 sub	 rsp, 32			; 00000020H
  00006	48 8b d9	 mov	 rbx, rcx

; 3811 : 		if (_Myptr != 0)

  00009	48 8b 09	 mov	 rcx, QWORD PTR [rcx]
  0000c	48 85 c9	 test	 rcx, rcx
  0000f	74 05		 je	 SHORT $LN6@Yarn

; 3812 : 
; 3813 :  #ifdef _DEBUG
; 3814 : 			_free_dbg(_Myptr, _CRT_BLOCK);
; 3815 : 
; 3816 :  #else /* _DEBUG */
; 3817 : 			_CSTD free(_Myptr);

  00011	e8 00 00 00 00	 call	 free
$LN6@Yarn:

; 3818 :  #endif /* _DEBUG */
; 3819 : 
; 3820 : 		_Myptr = 0;

  00016	48 c7 03 00 00
	00 00		 mov	 QWORD PTR [rbx], 0

; 3785 : 		_Tidy();
; 3786 : 		}

  0001d	48 83 c4 20	 add	 rsp, 32			; 00000020H
  00021	5b		 pop	 rbx
  00022	c3		 ret	 0
??1?$_Yarn@_W@std@@QEAA@XZ ENDP				; std::_Yarn<wchar_t>::~_Yarn<wchar_t>
_TEXT	ENDS
; Function compile flags: /Ogtpy
; File c:\users\alist_000\cppmisc\packages\visualcpptools.14.0.24224-pre\lib\native\include\xutility
;	COMDAT ??0?$_Yarn@_W@std@@QEAA@XZ
_TEXT	SEGMENT
this$ = 8
??0?$_Yarn@_W@std@@QEAA@XZ PROC				; std::_Yarn<wchar_t>::_Yarn<wchar_t>, COMDAT

; 3733 : 		: _Myptr(0), _Nul(0)

  00000	33 c0		 xor	 eax, eax
  00002	48 89 01	 mov	 QWORD PTR [rcx], rax
  00005	66 89 41 08	 mov	 WORD PTR [rcx+8], ax

; 3735 : 		}

  00009	48 8b c1	 mov	 rax, rcx
  0000c	c3		 ret	 0
??0?$_Yarn@_W@std@@QEAA@XZ ENDP				; std::_Yarn<wchar_t>::_Yarn<wchar_t>
_TEXT	ENDS
; Function compile flags: /Ogtpy
; File c:\users\alist_000\cppmisc\packages\visualcpptools.14.0.24224-pre\lib\native\include\xutility
;	COMDAT ?c_str@?$_Yarn@D@std@@QEBAPEBDXZ
_TEXT	SEGMENT
this$ = 8
?c_str@?$_Yarn@D@std@@QEBAPEBDXZ PROC			; std::_Yarn<char>::c_str, COMDAT

; 3795 : 		return (_Myptr != 0 ? _Myptr : &_Nul);

  00000	48 8b 01	 mov	 rax, QWORD PTR [rcx]
  00003	48 85 c0	 test	 rax, rax
  00006	75 04		 jne	 SHORT $LN4@c_str
  00008	48 8d 41 08	 lea	 rax, QWORD PTR [rcx+8]
$LN4@c_str:

; 3796 : 		}

  0000c	c3		 ret	 0
?c_str@?$_Yarn@D@std@@QEBAPEBDXZ ENDP			; std::_Yarn<char>::c_str
_TEXT	ENDS
; Function compile flags: /Ogtpy
; File c:\users\alist_000\cppmisc\packages\visualcpptools.14.0.24224-pre\lib\native\include\xutility
;	COMDAT ??1?$_Yarn@D@std@@QEAA@XZ
_TEXT	SEGMENT
this$ = 48
??1?$_Yarn@D@std@@QEAA@XZ PROC				; std::_Yarn<char>::~_Yarn<char>, COMDAT

; 3784 : 		{	// destroy the object

$LN8:
  00000	40 53		 push	 rbx
  00002	48 83 ec 20	 sub	 rsp, 32			; 00000020H
  00006	48 8b d9	 mov	 rbx, rcx

; 3811 : 		if (_Myptr != 0)

  00009	48 8b 09	 mov	 rcx, QWORD PTR [rcx]
  0000c	48 85 c9	 test	 rcx, rcx
  0000f	74 05		 je	 SHORT $LN6@Yarn

; 3812 : 
; 3813 :  #ifdef _DEBUG
; 3814 : 			_free_dbg(_Myptr, _CRT_BLOCK);
; 3815 : 
; 3816 :  #else /* _DEBUG */
; 3817 : 			_CSTD free(_Myptr);

  00011	e8 00 00 00 00	 call	 free
$LN6@Yarn:

; 3818 :  #endif /* _DEBUG */
; 3819 : 
; 3820 : 		_Myptr = 0;

  00016	48 c7 03 00 00
	00 00		 mov	 QWORD PTR [rbx], 0

; 3785 : 		_Tidy();
; 3786 : 		}

  0001d	48 83 c4 20	 add	 rsp, 32			; 00000020H
  00021	5b		 pop	 rbx
  00022	c3		 ret	 0
??1?$_Yarn@D@std@@QEAA@XZ ENDP				; std::_Yarn<char>::~_Yarn<char>
_TEXT	ENDS
; Function compile flags: /Ogtpy
; File c:\users\alist_000\cppmisc\packages\visualcpptools.14.0.24224-pre\lib\native\include\xutility
;	COMDAT ??0?$_Yarn@D@std@@QEAA@XZ
_TEXT	SEGMENT
this$ = 8
??0?$_Yarn@D@std@@QEAA@XZ PROC				; std::_Yarn<char>::_Yarn<char>, COMDAT

; 3733 : 		: _Myptr(0), _Nul(0)

  00000	48 c7 01 00 00
	00 00		 mov	 QWORD PTR [rcx], 0

; 3735 : 		}

  00007	48 8b c1	 mov	 rax, rcx
  0000a	c6 41 08 00	 mov	 BYTE PTR [rcx+8], 0
  0000e	c3		 ret	 0
??0?$_Yarn@D@std@@QEAA@XZ ENDP				; std::_Yarn<char>::_Yarn<char>
_TEXT	ENDS
; Function compile flags: /Ogtpy
; File c:\users\alist_000\cppmisc\packages\visualcpptools.14.0.24224-pre\lib\native\include\xstring
;	COMDAT ?empty@?$basic_string@DU?$char_traits@D@std@@V?$allocator@D@2@@std@@QEBA_NXZ
_TEXT	SEGMENT
this$ = 8
?empty@?$basic_string@DU?$char_traits@D@std@@V?$allocator@D@2@@std@@QEBA_NXZ PROC ; std::basic_string<char,std::char_traits<char>,std::allocator<char> >::empty, COMDAT

; 1800 : 		{	// test if sequence is empty

  00000	48 83 79 10 00	 cmp	 QWORD PTR [rcx+16], 0
  00005	0f 94 c0	 sete	 al

; 1801 : 		return (this->_Mysize() == 0);
; 1802 : 		}

  00008	c3		 ret	 0
?empty@?$basic_string@DU?$char_traits@D@std@@V?$allocator@D@2@@std@@QEBA_NXZ ENDP ; std::basic_string<char,std::char_traits<char>,std::allocator<char> >::empty
_TEXT	ENDS
; Function compile flags: /Ogtpy
; File c:\users\alist_000\cppmisc\packages\visualcpptools.14.0.24224-pre\lib\native\include\xstring
;	COMDAT ?c_str@?$basic_string@DU?$char_traits@D@std@@V?$allocator@D@2@@std@@QEBAPEBDXZ
_TEXT	SEGMENT
this$ = 8
?c_str@?$basic_string@DU?$char_traits@D@std@@V?$allocator@D@2@@std@@QEBAPEBDXZ PROC ; std::basic_string<char,std::char_traits<char>,std::allocator<char> >::c_str, COMDAT

; 516  : 		return (this->_BUF_SIZE <= _Myres

  00000	48 83 79 18 10	 cmp	 QWORD PTR [rcx+24], 16
  00005	72 04		 jb	 SHORT $LN13@c_str

; 1740 : 		return (this->_Myptr());

  00007	48 8b 01	 mov	 rax, QWORD PTR [rcx]

; 1741 : 		}

  0000a	c3		 ret	 0
$LN13@c_str:

; 1740 : 		return (this->_Myptr());

  0000b	48 8b c1	 mov	 rax, rcx

; 1741 : 		}

  0000e	c3		 ret	 0
?c_str@?$basic_string@DU?$char_traits@D@std@@V?$allocator@D@2@@std@@QEBAPEBDXZ ENDP ; std::basic_string<char,std::char_traits<char>,std::allocator<char> >::c_str
_TEXT	ENDS
; Function compile flags: /Ogtpy
; File c:\users\alist_000\cppmisc\packages\visualcpptools.14.0.24224-pre\lib\native\include\xstring
; File c:\users\alist_000\cppmisc\packages\visualcpptools.14.0.24224-pre\lib\native\include\iosfwd
; File c:\users\alist_000\cppmisc\packages\visualcpptools.14.0.24224-pre\lib\native\include\xstring
; File c:\users\alist_000\cppmisc\packages\visualcpptools.14.0.24224-pre\lib\native\include\iosfwd
; File c:\users\alist_000\cppmisc\packages\visualcpptools.14.0.24224-pre\lib\native\include\xstring
;	COMDAT ?append@?$basic_string@DU?$char_traits@D@std@@V?$allocator@D@2@@std@@QEAAAEAV12@PEBD@Z
_TEXT	SEGMENT
this$ = 8
_Ptr$ = 16
?append@?$basic_string@DU?$char_traits@D@std@@V?$allocator@D@2@@std@@QEAAAEAV12@PEBD@Z PROC ; std::basic_string<char,std::char_traits<char>,std::allocator<char> >::append, COMDAT
; File c:\users\alist_000\cppmisc\packages\visualcpptools.14.0.24224-pre\lib\native\include\iosfwd

; 523  : 		return (*_First == 0 ? 0

  00000	80 3a 00	 cmp	 BYTE PTR [rdx], 0
  00003	75 08		 jne	 SHORT $LN5@append
  00005	45 33 c0	 xor	 r8d, r8d
; File c:\users\alist_000\cppmisc\packages\visualcpptools.14.0.24224-pre\lib\native\include\xstring

; 1102 : 		return (append(_Ptr, _Traits::length(_Ptr)));

  00008	e9 00 00 00 00	 jmp	 ?append@?$basic_string@DU?$char_traits@D@std@@V?$allocator@D@2@@std@@QEAAAEAV12@PEBD_K@Z ; std::basic_string<char,std::char_traits<char>,std::allocator<char> >::append
$LN5@append:
; File c:\users\alist_000\cppmisc\packages\visualcpptools.14.0.24224-pre\lib\native\include\iosfwd

; 523  : 		return (*_First == 0 ? 0

  0000d	49 83 c8 ff	 or	 r8, -1
$LL7@append:
  00011	49 ff c0	 inc	 r8
  00014	42 80 3c 02 00	 cmp	 BYTE PTR [rdx+r8], 0
  00019	75 f6		 jne	 SHORT $LL7@append
; File c:\users\alist_000\cppmisc\packages\visualcpptools.14.0.24224-pre\lib\native\include\xstring

; 1102 : 		return (append(_Ptr, _Traits::length(_Ptr)));

  0001b	e9 00 00 00 00	 jmp	 ?append@?$basic_string@DU?$char_traits@D@std@@V?$allocator@D@2@@std@@QEAAAEAV12@PEBD_K@Z ; std::basic_string<char,std::char_traits<char>,std::allocator<char> >::append
?append@?$basic_string@DU?$char_traits@D@std@@V?$allocator@D@2@@std@@QEAAAEAV12@PEBD@Z ENDP ; std::basic_string<char,std::char_traits<char>,std::allocator<char> >::append
_TEXT	ENDS
; Function compile flags: /Ogtpy
; File c:\users\alist_000\cppmisc\packages\visualcpptools.14.0.24224-pre\lib\native\include\xstring
;	COMDAT ?append@?$basic_string@DU?$char_traits@D@std@@V?$allocator@D@2@@std@@QEAAAEAV12@AEBV12@@Z
_TEXT	SEGMENT
this$ = 8
_Right$ = 16
?append@?$basic_string@DU?$char_traits@D@std@@V?$allocator@D@2@@std@@QEAAAEAV12@AEBV12@@Z PROC ; std::basic_string<char,std::char_traits<char>,std::allocator<char> >::append, COMDAT

; 1060 : 		return (append(_Right, 0, npos));

  00000	49 83 c9 ff	 or	 r9, -1
  00004	45 33 c0	 xor	 r8d, r8d
  00007	e9 00 00 00 00	 jmp	 ?append@?$basic_string@DU?$char_traits@D@std@@V?$allocator@D@2@@std@@QEAAAEAV12@AEBV12@_K1@Z ; std::basic_string<char,std::char_traits<char>,std::allocator<char> >::append
?append@?$basic_string@DU?$char_traits@D@std@@V?$allocator@D@2@@std@@QEAAAEAV12@AEBV12@@Z ENDP ; std::basic_string<char,std::char_traits<char>,std::allocator<char> >::append
_TEXT	ENDS
; Function compile flags: /Ogtpy
; File c:\users\alist_000\cppmisc\packages\visualcpptools.14.0.24224-pre\lib\native\include\xstring
; File c:\users\alist_000\cppmisc\packages\visualcpptools.14.0.24224-pre\lib\native\include\xmemory0
; File c:\users\alist_000\cppmisc\packages\visualcpptools.14.0.24224-pre\lib\native\include\xstring
; File c:\users\alist_000\cppmisc\packages\visualcpptools.14.0.24224-pre\lib\native\include\xmemory0
; File c:\users\alist_000\cppmisc\packages\visualcpptools.14.0.24224-pre\lib\native\include\xstring
; File c:\users\alist_000\cppmisc\packages\visualcpptools.14.0.24224-pre\lib\native\include\xstddef
; File c:\users\alist_000\cppmisc\packages\visualcpptools.14.0.24224-pre\lib\native\include\iosfwd
; File c:\users\alist_000\cppmisc\packages\visualcpptools.14.0.24224-pre\lib\native\include\xstring
; File c:\users\alist_000\cppmisc\packages\visualcpptools.14.0.24224-pre\lib\native\include\xmemory0
; File c:\users\alist_000\cppmisc\packages\visualcpptools.14.0.24224-pre\lib\native\include\xstring
;	COMDAT ??1?$basic_string@DU?$char_traits@D@std@@V?$allocator@D@2@@std@@QEAA@XZ
_TEXT	SEGMENT
this$ = 48
??1?$basic_string@DU?$char_traits@D@std@@V?$allocator@D@2@@std@@QEAA@XZ PROC ; std::basic_string<char,std::char_traits<char>,std::allocator<char> >::~basic_string<char,std::char_traits<char>,std::allocator<char> >, COMDAT

; 1011 : 		{	// destroy the string

$LN123:
  00000	40 53		 push	 rbx
  00002	48 83 ec 20	 sub	 rsp, 32			; 00000020H

; 2248 : 		else if (this->_BUF_SIZE <= this->_Myres())

  00006	48 8b 41 18	 mov	 rax, QWORD PTR [rcx+24]

; 1011 : 		{	// destroy the string

  0000a	48 8b d9	 mov	 rbx, rcx

; 2248 : 		else if (this->_BUF_SIZE <= this->_Myres())

  0000d	48 83 f8 10	 cmp	 rax, 16
  00011	72 33		 jb	 SHORT $LN86@basic_stri
; File c:\users\alist_000\cppmisc\packages\visualcpptools.14.0.24224-pre\lib\native\include\xmemory0

; 720  : 		_Deallocate(_Ptr, _Count, sizeof (_Ty));

  00013	48 8b 09	 mov	 rcx, QWORD PTR [rcx]
; File c:\users\alist_000\cppmisc\packages\visualcpptools.14.0.24224-pre\lib\native\include\xstring

; 2255 : 			this->_Getal().deallocate(_Ptr, this->_Myres() + 1);

  00016	48 ff c0	 inc	 rax
; File c:\users\alist_000\cppmisc\packages\visualcpptools.14.0.24224-pre\lib\native\include\xmemory0

; 96   : 	if (_BIG_ALLOCATION_THRESHOLD <= _User_size)

  00019	48 3d 00 10 00
	00		 cmp	 rax, 4096		; 00001000H
  0001f	72 20		 jb	 SHORT $LN81@basic_stri

; 99   : 		_SCL_SECURE_ALWAYS_VALIDATE(

  00021	f6 c1 1f	 test	 cl, 31
  00024	75 43		 jne	 SHORT $LN118@basic_stri

; 100  : 			(_Ptr_user & (_BIG_ALLOCATION_ALIGNMENT - 1)) == 0);
; 101  : 		const uintptr_t _Ptr_ptr = _Ptr_user - sizeof(void *);
; 102  : 		const uintptr_t _Ptr_container =
; 103  : 			*reinterpret_cast<uintptr_t *>(_Ptr_ptr);

  00026	48 8b 41 f8	 mov	 rax, QWORD PTR [rcx-8]

; 104  : 
; 105  :  #ifdef _DEBUG
; 106  : 		// If the following asserts, it likely means that we are performing
; 107  : 		// an aligned delete on memory coming from an unaligned allocation.
; 108  : 		_SCL_SECURE_ALWAYS_VALIDATE(
; 109  : 			reinterpret_cast<uintptr_t *>(_Ptr_ptr)[-1] ==
; 110  : 				_BIG_ALLOCATION_SENTINEL);
; 111  :  #endif /* _DEBUG */
; 112  : 
; 113  : 		// Extra paranoia on aligned allocation/deallocation
; 114  : 		_SCL_SECURE_ALWAYS_VALIDATE(_Ptr_container < _Ptr_user);

  0002a	48 3b c1	 cmp	 rax, rcx
  0002d	73 40		 jae	 SHORT $LN120@basic_stri

; 115  : 
; 116  :  #ifdef _DEBUG
; 117  : 		_SCL_SECURE_ALWAYS_VALIDATE(2 * sizeof(void *)
; 118  : 			<= _Ptr_user - _Ptr_container);
; 119  : 
; 120  :  #else /* _DEBUG */
; 121  : 		_SCL_SECURE_ALWAYS_VALIDATE(sizeof(void *)

  0002f	48 2b c8	 sub	 rcx, rax
  00032	48 83 f9 08	 cmp	 rcx, 8
  00036	72 3d		 jb	 SHORT $LN121@basic_stri

; 122  : 			<= _Ptr_user - _Ptr_container);
; 123  :  #endif /* _DEBUG */
; 124  : 
; 125  : 		_SCL_SECURE_ALWAYS_VALIDATE(_Ptr_user - _Ptr_container

  00038	48 83 f9 27	 cmp	 rcx, 39			; 00000027H
  0003c	77 3d		 ja	 SHORT $LN122@basic_stri

; 126  : 			<= _NON_USER_SIZE);
; 127  : 
; 128  : 		_Ptr = reinterpret_cast<void *>(_Ptr_container);

  0003e	48 8b c8	 mov	 rcx, rax
$LN81@basic_stri:

; 129  : 		}
; 130  :  #endif /* defined(_M_IX86) || defined(_M_X64) */
; 131  : 
; 132  : 	::operator delete(_Ptr);

  00041	e8 00 00 00 00	 call	 ??3@YAXPEAX@Z		; operator delete
$LN86@basic_stri:
; File c:\users\alist_000\cppmisc\packages\visualcpptools.14.0.24224-pre\lib\native\include\xstring

; 2257 : 		this->_Myres() = this->_BUF_SIZE - 1;

  00046	48 c7 43 18 0f
	00 00 00	 mov	 QWORD PTR [rbx+24], 15

; 509  : 		return (this->_BUF_SIZE <= _Myres

  0004e	48 83 7b 18 10	 cmp	 QWORD PTR [rbx+24], 16

; 2216 : 		_Traits::assign(_Dx._Myptr()[_Dx._Mysize = _Newsize], _Elem());

  00053	48 c7 43 10 00
	00 00 00	 mov	 QWORD PTR [rbx+16], 0

; 509  : 		return (this->_BUF_SIZE <= _Myres

  0005b	72 03		 jb	 SHORT $LN109@basic_stri
; File c:\users\alist_000\cppmisc\packages\visualcpptools.14.0.24224-pre\lib\native\include\xstddef

; 740  : 	return (_Ptr);

  0005d	48 8b 1b	 mov	 rbx, QWORD PTR [rbx]
$LN109@basic_stri:
; File c:\users\alist_000\cppmisc\packages\visualcpptools.14.0.24224-pre\lib\native\include\iosfwd

; 565  : 		_Left = _Right;

  00060	c6 03 00	 mov	 BYTE PTR [rbx], 0
; File c:\users\alist_000\cppmisc\packages\visualcpptools.14.0.24224-pre\lib\native\include\xstring

; 1013 : 		}

  00063	48 83 c4 20	 add	 rsp, 32			; 00000020H
  00067	5b		 pop	 rbx
  00068	c3		 ret	 0
$LN118@basic_stri:
; File c:\users\alist_000\cppmisc\packages\visualcpptools.14.0.24224-pre\lib\native\include\xmemory0

; 99   : 		_SCL_SECURE_ALWAYS_VALIDATE(

  00069	e8 00 00 00 00	 call	 _invalid_parameter_noinfo_noreturn
  0006e	cc		 int	 3
$LN120@basic_stri:

; 104  : 
; 105  :  #ifdef _DEBUG
; 106  : 		// If the following asserts, it likely means that we are performing
; 107  : 		// an aligned delete on memory coming from an unaligned allocation.
; 108  : 		_SCL_SECURE_ALWAYS_VALIDATE(
; 109  : 			reinterpret_cast<uintptr_t *>(_Ptr_ptr)[-1] ==
; 110  : 				_BIG_ALLOCATION_SENTINEL);
; 111  :  #endif /* _DEBUG */
; 112  : 
; 113  : 		// Extra paranoia on aligned allocation/deallocation
; 114  : 		_SCL_SECURE_ALWAYS_VALIDATE(_Ptr_container < _Ptr_user);

  0006f	e8 00 00 00 00	 call	 _invalid_parameter_noinfo_noreturn
  00074	cc		 int	 3
$LN121@basic_stri:

; 115  : 
; 116  :  #ifdef _DEBUG
; 117  : 		_SCL_SECURE_ALWAYS_VALIDATE(2 * sizeof(void *)
; 118  : 			<= _Ptr_user - _Ptr_container);
; 119  : 
; 120  :  #else /* _DEBUG */
; 121  : 		_SCL_SECURE_ALWAYS_VALIDATE(sizeof(void *)

  00075	e8 00 00 00 00	 call	 _invalid_parameter_noinfo_noreturn
  0007a	cc		 int	 3
$LN122@basic_stri:

; 122  : 			<= _Ptr_user - _Ptr_container);
; 123  :  #endif /* _DEBUG */
; 124  : 
; 125  : 		_SCL_SECURE_ALWAYS_VALIDATE(_Ptr_user - _Ptr_container

  0007b	e8 00 00 00 00	 call	 _invalid_parameter_noinfo_noreturn
  00080	cc		 int	 3
$LN117@basic_stri:
??1?$basic_string@DU?$char_traits@D@std@@V?$allocator@D@2@@std@@QEAA@XZ ENDP ; std::basic_string<char,std::char_traits<char>,std::allocator<char> >::~basic_string<char,std::char_traits<char>,std::allocator<char> >
_TEXT	ENDS
; Function compile flags: /Ogtpy
; File c:\users\alist_000\cppmisc\packages\visualcpptools.14.0.24224-pre\lib\native\include\xstring
; File c:\users\alist_000\cppmisc\packages\visualcpptools.14.0.24224-pre\lib\native\include\iosfwd
; File c:\users\alist_000\cppmisc\packages\visualcpptools.14.0.24224-pre\lib\native\include\xstring
; File c:\users\alist_000\cppmisc\packages\visualcpptools.14.0.24224-pre\lib\native\include\iosfwd
; File c:\users\alist_000\cppmisc\packages\visualcpptools.14.0.24224-pre\lib\native\include\xstring
; File c:\users\alist_000\cppmisc\packages\visualcpptools.14.0.24224-pre\lib\native\include\xmemory0
; File c:\users\alist_000\cppmisc\packages\visualcpptools.14.0.24224-pre\lib\native\include\xstring
; File c:\users\alist_000\cppmisc\packages\visualcpptools.14.0.24224-pre\lib\native\include\xstddef
; File c:\users\alist_000\cppmisc\packages\visualcpptools.14.0.24224-pre\lib\native\include\iosfwd
; File c:\users\alist_000\cppmisc\packages\visualcpptools.14.0.24224-pre\lib\native\include\xstring
; File c:\users\alist_000\cppmisc\packages\visualcpptools.14.0.24224-pre\lib\native\include\iosfwd
; File c:\users\alist_000\cppmisc\packages\visualcpptools.14.0.24224-pre\lib\native\include\xstring
;	COMDAT ??0?$basic_string@DU?$char_traits@D@std@@V?$allocator@D@2@@std@@QEAA@$$QEAV01@@Z
_TEXT	SEGMENT
this$ = 48
_Right$ = 56
??0?$basic_string@DU?$char_traits@D@std@@V?$allocator@D@2@@std@@QEAA@$$QEAV01@@Z PROC ; std::basic_string<char,std::char_traits<char>,std::allocator<char> >::basic_string<char,std::char_traits<char>,std::allocator<char> >, COMDAT

; 906  : 		{	// construct by moving _Right

$LN392:
  00000	48 89 5c 24 08	 mov	 QWORD PTR [rsp+8], rbx
  00005	57		 push	 rdi
  00006	48 83 ec 20	 sub	 rsp, 32			; 00000020H

; 2257 : 		this->_Myres() = this->_BUF_SIZE - 1;

  0000a	48 c7 41 18 0f
	00 00 00	 mov	 QWORD PTR [rcx+24], 15

; 906  : 		{	// construct by moving _Right

  00012	48 8b da	 mov	 rbx, rdx

; 2216 : 		_Traits::assign(_Dx._Myptr()[_Dx._Mysize = _Newsize], _Elem());

  00015	48 c7 41 10 00
	00 00 00	 mov	 QWORD PTR [rcx+16], 0

; 906  : 		{	// construct by moving _Right

  0001d	48 8b f9	 mov	 rdi, rcx
; File c:\users\alist_000\cppmisc\packages\visualcpptools.14.0.24224-pre\lib\native\include\iosfwd

; 565  : 		_Left = _Right;

  00020	c6 01 00	 mov	 BYTE PTR [rcx], 0
; File c:\users\alist_000\cppmisc\packages\visualcpptools.14.0.24224-pre\lib\native\include\xstring

; 957  : 		if (_Right._Myres() < this->_BUF_SIZE)

  00023	48 83 7a 18 10	 cmp	 QWORD PTR [rdx+24], 16
  00028	73 11		 jae	 SHORT $LN142@basic_stri

; 958  : 			_Traits::move(this->_Bx()._Buf, _Right._Bx()._Buf,

  0002a	4c 8b 42 10	 mov	 r8, QWORD PTR [rdx+16]
  0002e	49 83 c0 01	 add	 r8, 1
; File c:\users\alist_000\cppmisc\packages\visualcpptools.14.0.24224-pre\lib\native\include\iosfwd

; 553  : 		return (_Count == 0 ? _First1

  00032	74 14		 je	 SHORT $LN143@basic_stri
  00034	e8 00 00 00 00	 call	 memmove
; File c:\users\alist_000\cppmisc\packages\visualcpptools.14.0.24224-pre\lib\native\include\xstring

; 960  : 		else

  00039	eb 0d		 jmp	 SHORT $LN143@basic_stri
$LN142@basic_stri:
; File c:\users\alist_000\cppmisc\packages\visualcpptools.14.0.24224-pre\lib\native\include\xmemory0

; 737  : 		::new ((void *)_Ptr) _Objty(_STD forward<_Types>(_Args)...);

  0003b	48 8b 02	 mov	 rax, QWORD PTR [rdx]
  0003e	48 89 01	 mov	 QWORD PTR [rcx], rax
; File c:\users\alist_000\cppmisc\packages\visualcpptools.14.0.24224-pre\lib\native\include\xstring

; 963  : 			_Right._Bx()._Ptr = pointer();

  00041	48 c7 02 00 00
	00 00		 mov	 QWORD PTR [rdx], 0
$LN143@basic_stri:

; 964  : 			}
; 965  : 		this->_Mysize() = _Right._Mysize();

  00048	48 8b 43 10	 mov	 rax, QWORD PTR [rbx+16]
  0004c	48 89 47 10	 mov	 QWORD PTR [rdi+16], rax

; 966  : 		this->_Myres() = _Right._Myres();

  00050	48 8b 43 18	 mov	 rax, QWORD PTR [rbx+24]
  00054	48 89 47 18	 mov	 QWORD PTR [rdi+24], rax

; 2257 : 		this->_Myres() = this->_BUF_SIZE - 1;

  00058	48 c7 43 18 0f
	00 00 00	 mov	 QWORD PTR [rbx+24], 15

; 509  : 		return (this->_BUF_SIZE <= _Myres

  00060	48 83 7b 18 10	 cmp	 QWORD PTR [rbx+24], 16

; 2216 : 		_Traits::assign(_Dx._Myptr()[_Dx._Mysize = _Newsize], _Elem());

  00065	48 c7 43 10 00
	00 00 00	 mov	 QWORD PTR [rbx+16], 0

; 509  : 		return (this->_BUF_SIZE <= _Myres

  0006d	72 14		 jb	 SHORT $LN382@basic_stri
; File c:\users\alist_000\cppmisc\packages\visualcpptools.14.0.24224-pre\lib\native\include\xstddef

; 740  : 	return (_Ptr);

  0006f	48 8b 03	 mov	 rax, QWORD PTR [rbx]
; File c:\users\alist_000\cppmisc\packages\visualcpptools.14.0.24224-pre\lib\native\include\iosfwd

; 565  : 		_Left = _Right;

  00072	c6 00 00	 mov	 BYTE PTR [rax], 0
; File c:\users\alist_000\cppmisc\packages\visualcpptools.14.0.24224-pre\lib\native\include\xstring

; 909  : 		}

  00075	48 8b c7	 mov	 rax, rdi
  00078	48 8b 5c 24 30	 mov	 rbx, QWORD PTR [rsp+48]
  0007d	48 83 c4 20	 add	 rsp, 32			; 00000020H
  00081	5f		 pop	 rdi
  00082	c3		 ret	 0
$LN382@basic_stri:
; File c:\users\alist_000\cppmisc\packages\visualcpptools.14.0.24224-pre\lib\native\include\iosfwd

; 565  : 		_Left = _Right;

  00083	c6 03 00	 mov	 BYTE PTR [rbx], 0
; File c:\users\alist_000\cppmisc\packages\visualcpptools.14.0.24224-pre\lib\native\include\xstring

; 909  : 		}

  00086	48 8b c7	 mov	 rax, rdi
  00089	48 8b 5c 24 30	 mov	 rbx, QWORD PTR [rsp+48]
  0008e	48 83 c4 20	 add	 rsp, 32			; 00000020H
  00092	5f		 pop	 rdi
  00093	c3		 ret	 0
??0?$basic_string@DU?$char_traits@D@std@@V?$allocator@D@2@@std@@QEAA@$$QEAV01@@Z ENDP ; std::basic_string<char,std::char_traits<char>,std::allocator<char> >::basic_string<char,std::char_traits<char>,std::allocator<char> >
_TEXT	ENDS
; Function compile flags: /Ogtpy
; File c:\users\alist_000\cppmisc\packages\visualcpptools.14.0.24224-pre\lib\native\include\xstring
; File c:\users\alist_000\cppmisc\packages\visualcpptools.14.0.24224-pre\lib\native\include\iosfwd
; File c:\users\alist_000\cppmisc\packages\visualcpptools.14.0.24224-pre\lib\native\include\xstring
;	COMDAT ??0?$basic_string@DU?$char_traits@D@std@@V?$allocator@D@2@@std@@QEAA@PEBD@Z
_TEXT	SEGMENT
this$ = 48
_Ptr$ = 56
??0?$basic_string@DU?$char_traits@D@std@@V?$allocator@D@2@@std@@QEAA@PEBD@Z PROC ; std::basic_string<char,std::char_traits<char>,std::allocator<char> >::basic_string<char,std::char_traits<char>,std::allocator<char> >, COMDAT

; 831  : 		{	// construct from [_Ptr, <null>)

$LN131:
  00000	40 53		 push	 rbx
  00002	48 83 ec 20	 sub	 rsp, 32			; 00000020H

; 2216 : 		_Traits::assign(_Dx._Myptr()[_Dx._Mysize = _Newsize], _Elem());

  00006	45 33 c0	 xor	 r8d, r8d

; 2257 : 		this->_Myres() = this->_BUF_SIZE - 1;

  00009	48 c7 41 18 0f
	00 00 00	 mov	 QWORD PTR [rcx+24], 15

; 2216 : 		_Traits::assign(_Dx._Myptr()[_Dx._Mysize = _Newsize], _Elem());

  00011	4c 89 41 10	 mov	 QWORD PTR [rcx+16], r8

; 831  : 		{	// construct from [_Ptr, <null>)

  00015	48 8b d9	 mov	 rbx, rcx
; File c:\users\alist_000\cppmisc\packages\visualcpptools.14.0.24224-pre\lib\native\include\iosfwd

; 565  : 		_Left = _Right;

  00018	44 88 01	 mov	 BYTE PTR [rcx], r8b

; 523  : 		return (*_First == 0 ? 0

  0001b	44 38 02	 cmp	 BYTE PTR [rdx], r8b
  0001e	74 0e		 je	 SHORT $LN128@basic_stri
  00020	49 83 c8 ff	 or	 r8, -1
$LL129@basic_stri:
  00024	49 ff c0	 inc	 r8
  00027	42 80 3c 02 00	 cmp	 BYTE PTR [rdx+r8], 0
  0002c	75 f6		 jne	 SHORT $LL129@basic_stri
$LN128@basic_stri:
; File c:\users\alist_000\cppmisc\packages\visualcpptools.14.0.24224-pre\lib\native\include\xstring

; 1177 : 		return (assign(_Ptr, _Traits::length(_Ptr)));

  0002e	e8 00 00 00 00	 call	 ?assign@?$basic_string@DU?$char_traits@D@std@@V?$allocator@D@2@@std@@QEAAAEAV12@PEBD_K@Z ; std::basic_string<char,std::char_traits<char>,std::allocator<char> >::assign

; 832  : 		_Tidy();
; 833  : 		assign(_Ptr);
; 834  : 		}

  00033	48 8b c3	 mov	 rax, rbx
  00036	48 83 c4 20	 add	 rsp, 32			; 00000020H
  0003a	5b		 pop	 rbx
  0003b	c3		 ret	 0
??0?$basic_string@DU?$char_traits@D@std@@V?$allocator@D@2@@std@@QEAA@PEBD@Z ENDP ; std::basic_string<char,std::char_traits<char>,std::allocator<char> >::basic_string<char,std::char_traits<char>,std::allocator<char> >
_TEXT	ENDS
; Function compile flags: /Ogtpy
; File c:\users\alist_000\cppmisc\packages\visualcpptools.14.0.24224-pre\lib\native\include\xstring
; File c:\users\alist_000\cppmisc\packages\visualcpptools.14.0.24224-pre\lib\native\include\iosfwd
; File c:\users\alist_000\cppmisc\packages\visualcpptools.14.0.24224-pre\lib\native\include\xstring
;	COMDAT ??0?$basic_string@DU?$char_traits@D@std@@V?$allocator@D@2@@std@@QEAA@AEBV01@@Z
_TEXT	SEGMENT
this$ = 48
_Right$ = 56
??0?$basic_string@DU?$char_traits@D@std@@V?$allocator@D@2@@std@@QEAA@AEBV01@@Z PROC ; std::basic_string<char,std::char_traits<char>,std::allocator<char> >::basic_string<char,std::char_traits<char>,std::allocator<char> >, COMDAT

; 775  : 		{	// construct by copying _Right

$LN143:
  00000	40 53		 push	 rbx
  00002	48 83 ec 20	 sub	 rsp, 32			; 00000020H

; 2257 : 		this->_Myres() = this->_BUF_SIZE - 1;

  00006	48 c7 41 18 0f
	00 00 00	 mov	 QWORD PTR [rcx+24], 15

; 776  : 		_Tidy();
; 777  : 		assign(_Right, 0, npos);

  0000e	49 83 c9 ff	 or	 r9, -1

; 2216 : 		_Traits::assign(_Dx._Myptr()[_Dx._Mysize = _Newsize], _Elem());

  00012	48 c7 41 10 00
	00 00 00	 mov	 QWORD PTR [rcx+16], 0

; 776  : 		_Tidy();
; 777  : 		assign(_Right, 0, npos);

  0001a	45 33 c0	 xor	 r8d, r8d
; File c:\users\alist_000\cppmisc\packages\visualcpptools.14.0.24224-pre\lib\native\include\iosfwd

; 565  : 		_Left = _Right;

  0001d	c6 01 00	 mov	 BYTE PTR [rcx], 0
; File c:\users\alist_000\cppmisc\packages\visualcpptools.14.0.24224-pre\lib\native\include\xstring

; 775  : 		{	// construct by copying _Right

  00020	48 8b d9	 mov	 rbx, rcx

; 776  : 		_Tidy();
; 777  : 		assign(_Right, 0, npos);

  00023	e8 00 00 00 00	 call	 ?assign@?$basic_string@DU?$char_traits@D@std@@V?$allocator@D@2@@std@@QEAAAEAV12@AEBV12@_K1@Z ; std::basic_string<char,std::char_traits<char>,std::allocator<char> >::assign

; 778  : 		}

  00028	48 8b c3	 mov	 rax, rbx
  0002b	48 83 c4 20	 add	 rsp, 32			; 00000020H
  0002f	5b		 pop	 rbx
  00030	c3		 ret	 0
??0?$basic_string@DU?$char_traits@D@std@@V?$allocator@D@2@@std@@QEAA@AEBV01@@Z ENDP ; std::basic_string<char,std::char_traits<char>,std::allocator<char> >::basic_string<char,std::char_traits<char>,std::allocator<char> >
_TEXT	ENDS
; Function compile flags: /Ogtpy
; File c:\users\alist_000\cppmisc\packages\visualcpptools.14.0.24224-pre\lib\native\include\ostream
;	COMDAT ??6?$basic_ostream@DU?$char_traits@D@std@@@std@@QEAAAEAV01@P6AAEAV01@AEAV01@@Z@Z
_TEXT	SEGMENT
this$ = 8
_Pfn$dead$ = 16
??6?$basic_ostream@DU?$char_traits@D@std@@@std@@QEAAAEAV01@P6AAEAV01@AEAV01@@Z@Z PROC ; std::basic_ostream<char,std::char_traits<char> >::operator<<, COMDAT

; 198  : 		_DEBUG_POINTER(_Pfn);
; 199  : 		return ((*_Pfn)(*this));

  00000	e9 00 00 00 00	 jmp	 ??$endl@DU?$char_traits@D@std@@@std@@YAAEAV?$basic_ostream@DU?$char_traits@D@std@@@0@AEAV10@@Z ; std::endl<char,std::char_traits<char> >
??6?$basic_ostream@DU?$char_traits@D@std@@@std@@QEAAAEAV01@P6AAEAV01@AEAV01@@Z@Z ENDP ; std::basic_ostream<char,std::char_traits<char> >::operator<<
_TEXT	ENDS
; Function compile flags: /Ogtpy
;	COMDAT ??1?$_String_alloc@U?$_String_base_types@DV?$allocator@D@std@@@std@@@std@@QEAA@XZ
_TEXT	SEGMENT
this$ = 8
??1?$_String_alloc@U?$_String_base_types@DV?$allocator@D@std@@@std@@@std@@QEAA@XZ PROC ; std::_String_alloc<std::_String_base_types<char,std::allocator<char> > >::~_String_alloc<std::_String_base_types<char,std::allocator<char> > >, COMDAT
  00000	c2 00 00	 ret	 0
??1?$_String_alloc@U?$_String_base_types@DV?$allocator@D@std@@@std@@@std@@QEAA@XZ ENDP ; std::_String_alloc<std::_String_base_types<char,std::allocator<char> > >::~_String_alloc<std::_String_base_types<char,std::allocator<char> > >
_TEXT	ENDS
; Function compile flags: /Ogtpy
;	COMDAT ??1?$_Compressed_pair@U?$_Wrap_alloc@V?$allocator@D@std@@@std@@V?$_String_val@U?$_Simple_types@D@std@@@2@$00@std@@QEAA@XZ
_TEXT	SEGMENT
this$ = 8
??1?$_Compressed_pair@U?$_Wrap_alloc@V?$allocator@D@std@@@std@@V?$_String_val@U?$_Simple_types@D@std@@@2@$00@std@@QEAA@XZ PROC ; std::_Compressed_pair<std::_Wrap_alloc<std::allocator<char> >,std::_String_val<std::_Simple_types<char> >,1>::~_Compressed_pair<std::_Wrap_alloc<std::allocator<char> >,std::_String_val<std::_Simple_types<char> >,1>, COMDAT
  00000	c2 00 00	 ret	 0
??1?$_Compressed_pair@U?$_Wrap_alloc@V?$allocator@D@std@@@std@@V?$_String_val@U?$_Simple_types@D@std@@@2@$00@std@@QEAA@XZ ENDP ; std::_Compressed_pair<std::_Wrap_alloc<std::allocator<char> >,std::_String_val<std::_Simple_types<char> >,1>::~_Compressed_pair<std::_Wrap_alloc<std::allocator<char> >,std::_String_val<std::_Simple_types<char> >,1>
_TEXT	ENDS
; Function compile flags: /Ogtpy
;	COMDAT ??1?$_String_val@U?$_Simple_types@D@std@@@std@@QEAA@XZ
_TEXT	SEGMENT
this$ = 8
??1?$_String_val@U?$_Simple_types@D@std@@@std@@QEAA@XZ PROC ; std::_String_val<std::_Simple_types<char> >::~_String_val<std::_Simple_types<char> >, COMDAT
  00000	c2 00 00	 ret	 0
??1?$_String_val@U?$_Simple_types@D@std@@@std@@QEAA@XZ ENDP ; std::_String_val<std::_Simple_types<char> >::~_String_val<std::_Simple_types<char> >
_TEXT	ENDS
; Function compile flags: /Ogtpy
; File c:\users\alist_000\cppmisc\packages\visualcpptools.14.0.24224-pre\lib\native\include\xutility
;	COMDAT ?_Tidy@?$_Yarn@_W@std@@AEAAXXZ
_TEXT	SEGMENT
this$ = 48
?_Tidy@?$_Yarn@_W@std@@AEAAXXZ PROC			; std::_Yarn<wchar_t>::_Tidy, COMDAT

; 3810 : 		{	// discard any string

$LN6:
  00000	40 53		 push	 rbx
  00002	48 83 ec 20	 sub	 rsp, 32			; 00000020H
  00006	48 8b d9	 mov	 rbx, rcx

; 3811 : 		if (_Myptr != 0)

  00009	48 8b 09	 mov	 rcx, QWORD PTR [rcx]
  0000c	48 85 c9	 test	 rcx, rcx
  0000f	74 05		 je	 SHORT $LN4@Tidy

; 3812 : 
; 3813 :  #ifdef _DEBUG
; 3814 : 			_free_dbg(_Myptr, _CRT_BLOCK);
; 3815 : 
; 3816 :  #else /* _DEBUG */
; 3817 : 			_CSTD free(_Myptr);

  00011	e8 00 00 00 00	 call	 free
$LN4@Tidy:

; 3818 :  #endif /* _DEBUG */
; 3819 : 
; 3820 : 		_Myptr = 0;

  00016	48 c7 03 00 00
	00 00		 mov	 QWORD PTR [rbx], 0

; 3821 : 		}

  0001d	48 83 c4 20	 add	 rsp, 32			; 00000020H
  00021	5b		 pop	 rbx
  00022	c3		 ret	 0
?_Tidy@?$_Yarn@_W@std@@AEAAXXZ ENDP			; std::_Yarn<wchar_t>::_Tidy
_TEXT	ENDS
; Function compile flags: /Ogtpy
; File c:\users\alist_000\cppmisc\packages\visualcpptools.14.0.24224-pre\lib\native\include\xutility
;	COMDAT ?_Tidy@?$_Yarn@D@std@@AEAAXXZ
_TEXT	SEGMENT
this$ = 48
?_Tidy@?$_Yarn@D@std@@AEAAXXZ PROC			; std::_Yarn<char>::_Tidy, COMDAT

; 3810 : 		{	// discard any string

$LN6:
  00000	40 53		 push	 rbx
  00002	48 83 ec 20	 sub	 rsp, 32			; 00000020H
  00006	48 8b d9	 mov	 rbx, rcx

; 3811 : 		if (_Myptr != 0)

  00009	48 8b 09	 mov	 rcx, QWORD PTR [rcx]
  0000c	48 85 c9	 test	 rcx, rcx
  0000f	74 05		 je	 SHORT $LN4@Tidy

; 3812 : 
; 3813 :  #ifdef _DEBUG
; 3814 : 			_free_dbg(_Myptr, _CRT_BLOCK);
; 3815 : 
; 3816 :  #else /* _DEBUG */
; 3817 : 			_CSTD free(_Myptr);

  00011	e8 00 00 00 00	 call	 free
$LN4@Tidy:

; 3818 :  #endif /* _DEBUG */
; 3819 : 
; 3820 : 		_Myptr = 0;

  00016	48 c7 03 00 00
	00 00		 mov	 QWORD PTR [rbx], 0

; 3821 : 		}

  0001d	48 83 c4 20	 add	 rsp, 32			; 00000020H
  00021	5b		 pop	 rbx
  00022	c3		 ret	 0
?_Tidy@?$_Yarn@D@std@@AEAAXXZ ENDP			; std::_Yarn<char>::_Tidy
_TEXT	ENDS
; Function compile flags: /Ogtpy
; File c:\users\alist_000\cppmisc\packages\visualcpptools.14.0.24224-pre\lib\native\include\xstring
;	COMDAT ??1_Bxty@?$_String_val@U?$_Simple_types@D@std@@@std@@QEAA@XZ
_TEXT	SEGMENT
this$ = 8
??1_Bxty@?$_String_val@U?$_Simple_types@D@std@@@std@@QEAA@XZ PROC ; std::_String_val<std::_Simple_types<char> >::_Bxty::~_Bxty, COMDAT

; 529  : 			}

  00000	c2 00 00	 ret	 0
??1_Bxty@?$_String_val@U?$_Simple_types@D@std@@@std@@QEAA@XZ ENDP ; std::_String_val<std::_Simple_types<char> >::_Bxty::~_Bxty
_TEXT	ENDS
; Function compile flags: /Ogtpy
; File c:\users\alist_000\cppmisc\packages\visualcpptools.14.0.24224-pre\lib\native\include\xmemory0
;	COMDAT ?select_on_container_copy_construction@?$_Wrap_alloc@V?$allocator@D@std@@@std@@QEBA?AU12@U_Nil@2@@Z
_TEXT	SEGMENT
this$ = 8
__$ReturnUdt$ = 16
__formal$ = 24
?select_on_container_copy_construction@?$_Wrap_alloc@V?$allocator@D@std@@@std@@QEBA?AU12@U_Nil@2@@Z PROC ; std::_Wrap_alloc<std::allocator<char> >::select_on_container_copy_construction, COMDAT

; 913  : 		return (_Mytraits::select_on_container_copy_construction(*this));

  00000	48 8b c2	 mov	 rax, rdx

; 914  : 		}

  00003	c3		 ret	 0
?select_on_container_copy_construction@?$_Wrap_alloc@V?$allocator@D@std@@@std@@QEBA?AU12@U_Nil@2@@Z ENDP ; std::_Wrap_alloc<std::allocator<char> >::select_on_container_copy_construction
_TEXT	ENDS
; Function compile flags: /Ogtpy
; File c:\users\alist_000\cppmisc\packages\visualcpptools.14.0.24224-pre\lib\native\include\xstring
;	COMDAT ?_Mysize@?$_String_alloc@U?$_String_base_types@DV?$allocator@D@std@@@std@@@std@@QEBAAEB_KXZ
_TEXT	SEGMENT
this$ = 8
?_Mysize@?$_String_alloc@U?$_String_base_types@DV?$allocator@D@std@@@std@@@std@@QEBAAEB_KXZ PROC ; std::_String_alloc<std::_String_base_types<char,std::allocator<char> > >::_Mysize, COMDAT

; 724  : 		return (_Get_data()._Mysize);

  00000	48 8d 41 10	 lea	 rax, QWORD PTR [rcx+16]

; 725  : 		}

  00004	c3		 ret	 0
?_Mysize@?$_String_alloc@U?$_String_base_types@DV?$allocator@D@std@@@std@@@std@@QEBAAEB_KXZ ENDP ; std::_String_alloc<std::_String_base_types<char,std::allocator<char> > >::_Mysize
_TEXT	ENDS
; Function compile flags: /Ogtpy
; File c:\users\alist_000\cppmisc\packages\visualcpptools.14.0.24224-pre\lib\native\include\xstring
;	COMDAT ?_Getal@?$_String_alloc@U?$_String_base_types@DV?$allocator@D@std@@@std@@@std@@QEBAAEBU?$_Wrap_alloc@V?$allocator@D@std@@@2@XZ
_TEXT	SEGMENT
this$ = 8
?_Getal@?$_String_alloc@U?$_String_base_types@DV?$allocator@D@std@@@std@@@std@@QEBAAEBU?$_Wrap_alloc@V?$allocator@D@std@@@2@XZ PROC ; std::_String_alloc<std::_String_base_types<char,std::allocator<char> > >::_Getal, COMDAT

; 692  : 		return (_Mypair._Get_first());

  00000	48 8b c1	 mov	 rax, rcx

; 693  : 		}

  00003	c3		 ret	 0
?_Getal@?$_String_alloc@U?$_String_base_types@DV?$allocator@D@std@@@std@@@std@@QEBAAEBU?$_Wrap_alloc@V?$allocator@D@std@@@2@XZ ENDP ; std::_String_alloc<std::_String_base_types<char,std::allocator<char> > >::_Getal
_TEXT	ENDS
; Function compile flags: /Ogtpy
; File c:\users\alist_000\cppmisc\packages\visualcpptools.14.0.24224-pre\lib\native\include\xstring
;	COMDAT ?_Getal@?$_String_alloc@U?$_String_base_types@DV?$allocator@D@std@@@std@@@std@@QEAAAEAU?$_Wrap_alloc@V?$allocator@D@std@@@2@XZ
_TEXT	SEGMENT
this$ = 8
?_Getal@?$_String_alloc@U?$_String_base_types@DV?$allocator@D@std@@@std@@@std@@QEAAAEAU?$_Wrap_alloc@V?$allocator@D@std@@@2@XZ PROC ; std::_String_alloc<std::_String_base_types<char,std::allocator<char> > >::_Getal, COMDAT

; 687  : 		return (_Mypair._Get_first());

  00000	48 8b c1	 mov	 rax, rcx

; 688  : 		}

  00003	c3		 ret	 0
?_Getal@?$_String_alloc@U?$_String_base_types@DV?$allocator@D@std@@@std@@@std@@QEAAAEAU?$_Wrap_alloc@V?$allocator@D@std@@@2@XZ ENDP ; std::_String_alloc<std::_String_base_types<char,std::allocator<char> > >::_Getal
_TEXT	ENDS
; Function compile flags: /Ogtpy
; File c:\users\alist_000\cppmisc\packages\visualcpptools.14.0.24224-pre\lib\native\include\xstring
;	COMDAT ??0?$_String_alloc@U?$_String_base_types@DV?$allocator@D@std@@@std@@@std@@QEAA@XZ
_TEXT	SEGMENT
this$ = 8
??0?$_String_alloc@U?$_String_base_types@DV?$allocator@D@std@@@std@@@std@@QEAA@XZ PROC ; std::_String_alloc<std::_String_base_types<char,std::allocator<char> > >::_String_alloc<std::_String_base_types<char,std::allocator<char> > >, COMDAT

; 491  : 		_Mysize(0),

  00000	33 c0		 xor	 eax, eax
  00002	48 89 41 10	 mov	 QWORD PTR [rcx+16], rax

; 492  : 		_Myres(0)

  00006	48 89 41 18	 mov	 QWORD PTR [rcx+24], rax

; 585  : 		}

  0000a	48 8b c1	 mov	 rax, rcx
  0000d	c3		 ret	 0
??0?$_String_alloc@U?$_String_base_types@DV?$allocator@D@std@@@std@@@std@@QEAA@XZ ENDP ; std::_String_alloc<std::_String_base_types<char,std::allocator<char> > >::_String_alloc<std::_String_base_types<char,std::allocator<char> > >
_TEXT	ENDS
; Function compile flags: /Ogtpy
; File c:\users\alist_000\cppmisc\packages\visualcpptools.14.0.24224-pre\lib\native\include\xstring
;	COMDAT ?_Myptr@?$_String_alloc@U?$_String_base_types@DV?$allocator@D@std@@@std@@@std@@QEBAPEBDXZ
_TEXT	SEGMENT
this$ = 8
?_Myptr@?$_String_alloc@U?$_String_base_types@DV?$allocator@D@std@@@std@@@std@@QEBAPEBDXZ PROC ; std::_String_alloc<std::_String_base_types<char,std::allocator<char> > >::_Myptr, COMDAT

; 516  : 		return (this->_BUF_SIZE <= _Myres

  00000	48 83 79 18 10	 cmp	 QWORD PTR [rcx+24], 16
  00005	72 04		 jb	 SHORT $LN11@Myptr

; 578  : 		return (_Get_data()._Myptr());

  00007	48 8b 01	 mov	 rax, QWORD PTR [rcx]

; 579  : 		}

  0000a	c3		 ret	 0
$LN11@Myptr:

; 578  : 		return (_Get_data()._Myptr());

  0000b	48 8b c1	 mov	 rax, rcx

; 579  : 		}

  0000e	c3		 ret	 0
?_Myptr@?$_String_alloc@U?$_String_base_types@DV?$allocator@D@std@@@std@@@std@@QEBAPEBDXZ ENDP ; std::_String_alloc<std::_String_base_types<char,std::allocator<char> > >::_Myptr
_TEXT	ENDS
; Function compile flags: /Ogtpy
; File c:\users\alist_000\cppmisc\packages\visualcpptools.14.0.24224-pre\lib\native\include\xstring
;	COMDAT ?_Myptr@?$_String_alloc@U?$_String_base_types@DV?$allocator@D@std@@@std@@@std@@QEAAPEADXZ
_TEXT	SEGMENT
this$ = 8
?_Myptr@?$_String_alloc@U?$_String_base_types@DV?$allocator@D@std@@@std@@@std@@QEAAPEADXZ PROC ; std::_String_alloc<std::_String_base_types<char,std::allocator<char> > >::_Myptr, COMDAT

; 509  : 		return (this->_BUF_SIZE <= _Myres

  00000	48 83 79 18 10	 cmp	 QWORD PTR [rcx+24], 16
  00005	72 04		 jb	 SHORT $LN11@Myptr

; 573  : 		return (_Get_data()._Myptr());

  00007	48 8b 01	 mov	 rax, QWORD PTR [rcx]

; 574  : 		}

  0000a	c3		 ret	 0
$LN11@Myptr:

; 573  : 		return (_Get_data()._Myptr());

  0000b	48 8b c1	 mov	 rax, rcx

; 574  : 		}

  0000e	c3		 ret	 0
?_Myptr@?$_String_alloc@U?$_String_base_types@DV?$allocator@D@std@@@std@@@std@@QEAAPEADXZ ENDP ; std::_String_alloc<std::_String_base_types<char,std::allocator<char> > >::_Myptr
_TEXT	ENDS
; Function compile flags: /Ogtpy
; File c:\users\alist_000\cppmisc\packages\visualcpptools.14.0.24224-pre\lib\native\include\xstring
; File c:\users\alist_000\cppmisc\packages\visualcpptools.14.0.24224-pre\lib\native\include\iosfwd
; File c:\users\alist_000\cppmisc\packages\visualcpptools.14.0.24224-pre\lib\native\include\xstring
; File c:\users\alist_000\cppmisc\packages\visualcpptools.14.0.24224-pre\lib\native\include\xmemory0
; File c:\users\alist_000\cppmisc\packages\visualcpptools.14.0.24224-pre\lib\native\include\xstring
; File c:\users\alist_000\cppmisc\packages\visualcpptools.14.0.24224-pre\lib\native\include\xstddef
; File c:\users\alist_000\cppmisc\packages\visualcpptools.14.0.24224-pre\lib\native\include\iosfwd
; File c:\users\alist_000\cppmisc\packages\visualcpptools.14.0.24224-pre\lib\native\include\xstring
; File c:\users\alist_000\cppmisc\packages\visualcpptools.14.0.24224-pre\lib\native\include\xmemory0
; File c:\users\alist_000\cppmisc\packages\visualcpptools.14.0.24224-pre\lib\native\include\xstring
;	COMDAT ?_Tidy@?$basic_string@DU?$char_traits@D@std@@V?$allocator@D@2@@std@@QEAAX_N_K@Z
_TEXT	SEGMENT
this$ = 48
_Built$ = 56
_Newsize$ = 64
?_Tidy@?$basic_string@DU?$char_traits@D@std@@V?$allocator@D@2@@std@@QEAAX_N_K@Z PROC ; std::basic_string<char,std::char_traits<char>,std::allocator<char> >::_Tidy, COMDAT

; 2245 : 		{	// initialize buffer, deallocating any storage

$LN120:
  00000	48 89 5c 24 08	 mov	 QWORD PTR [rsp+8], rbx
  00005	48 89 74 24 10	 mov	 QWORD PTR [rsp+16], rsi
  0000a	57		 push	 rdi
  0000b	48 83 ec 20	 sub	 rsp, 32			; 00000020H
  0000f	49 8b f0	 mov	 rsi, r8
  00012	48 8b d9	 mov	 rbx, rcx

; 2246 : 		if (!_Built)

  00015	84 d2		 test	 dl, dl
  00017	74 4f		 je	 SHORT $LN84@Tidy

; 2247 : 			;
; 2248 : 		else if (this->_BUF_SIZE <= this->_Myres())

  00019	48 83 79 18 10	 cmp	 QWORD PTR [rcx+24], 16
  0001e	72 48		 jb	 SHORT $LN84@Tidy

; 2249 : 			{	// copy any leftovers to small buffer and deallocate
; 2250 : 			pointer _Ptr = this->_Bx()._Ptr;

  00020	48 8b 39	 mov	 rdi, QWORD PTR [rcx]

; 2251 : 			this->_Getal().destroy(_STD addressof(this->_Bx()._Ptr));
; 2252 : 			if (0 < _Newsize)

  00023	4d 85 c0	 test	 r8, r8
  00026	74 08		 je	 SHORT $LN57@Tidy
; File c:\users\alist_000\cppmisc\packages\visualcpptools.14.0.24224-pre\lib\native\include\iosfwd

; 530  : 		return (_Count == 0 ? _First1

  00028	48 8b d7	 mov	 rdx, rdi
  0002b	e8 00 00 00 00	 call	 memcpy
$LN57@Tidy:
; File c:\users\alist_000\cppmisc\packages\visualcpptools.14.0.24224-pre\lib\native\include\xstring

; 2255 : 			this->_Getal().deallocate(_Ptr, this->_Myres() + 1);

  00030	48 8b 43 18	 mov	 rax, QWORD PTR [rbx+24]
  00034	48 ff c0	 inc	 rax
; File c:\users\alist_000\cppmisc\packages\visualcpptools.14.0.24224-pre\lib\native\include\xmemory0

; 96   : 	if (_BIG_ALLOCATION_THRESHOLD <= _User_size)

  00037	48 3d 00 10 00
	00		 cmp	 rax, 4096		; 00001000H
  0003d	72 21		 jb	 SHORT $LN79@Tidy

; 99   : 		_SCL_SECURE_ALWAYS_VALIDATE(

  0003f	40 f6 c7 1f	 test	 dil, 31
  00043	75 4d		 jne	 SHORT $LN115@Tidy

; 100  : 			(_Ptr_user & (_BIG_ALLOCATION_ALIGNMENT - 1)) == 0);
; 101  : 		const uintptr_t _Ptr_ptr = _Ptr_user - sizeof(void *);
; 102  : 		const uintptr_t _Ptr_container =
; 103  : 			*reinterpret_cast<uintptr_t *>(_Ptr_ptr);

  00045	48 8b 47 f8	 mov	 rax, QWORD PTR [rdi-8]

; 104  : 
; 105  :  #ifdef _DEBUG
; 106  : 		// If the following asserts, it likely means that we are performing
; 107  : 		// an aligned delete on memory coming from an unaligned allocation.
; 108  : 		_SCL_SECURE_ALWAYS_VALIDATE(
; 109  : 			reinterpret_cast<uintptr_t *>(_Ptr_ptr)[-1] ==
; 110  : 				_BIG_ALLOCATION_SENTINEL);
; 111  :  #endif /* _DEBUG */
; 112  : 
; 113  : 		// Extra paranoia on aligned allocation/deallocation
; 114  : 		_SCL_SECURE_ALWAYS_VALIDATE(_Ptr_container < _Ptr_user);

  00049	48 3b c7	 cmp	 rax, rdi
  0004c	73 4a		 jae	 SHORT $LN117@Tidy

; 115  : 
; 116  :  #ifdef _DEBUG
; 117  : 		_SCL_SECURE_ALWAYS_VALIDATE(2 * sizeof(void *)
; 118  : 			<= _Ptr_user - _Ptr_container);
; 119  : 
; 120  :  #else /* _DEBUG */
; 121  : 		_SCL_SECURE_ALWAYS_VALIDATE(sizeof(void *)

  0004e	48 2b f8	 sub	 rdi, rax
  00051	48 83 ff 08	 cmp	 rdi, 8
  00055	72 47		 jb	 SHORT $LN118@Tidy

; 122  : 			<= _Ptr_user - _Ptr_container);
; 123  :  #endif /* _DEBUG */
; 124  : 
; 125  : 		_SCL_SECURE_ALWAYS_VALIDATE(_Ptr_user - _Ptr_container

  00057	48 83 ff 27	 cmp	 rdi, 39			; 00000027H
  0005b	77 47		 ja	 SHORT $LN119@Tidy

; 126  : 			<= _NON_USER_SIZE);
; 127  : 
; 128  : 		_Ptr = reinterpret_cast<void *>(_Ptr_container);

  0005d	48 8b f8	 mov	 rdi, rax
$LN79@Tidy:

; 129  : 		}
; 130  :  #endif /* defined(_M_IX86) || defined(_M_X64) */
; 131  : 
; 132  : 	::operator delete(_Ptr);

  00060	48 8b cf	 mov	 rcx, rdi
  00063	e8 00 00 00 00	 call	 ??3@YAXPEAX@Z		; operator delete
$LN84@Tidy:
; File c:\users\alist_000\cppmisc\packages\visualcpptools.14.0.24224-pre\lib\native\include\xstring

; 2257 : 		this->_Myres() = this->_BUF_SIZE - 1;

  00068	48 c7 43 18 0f
	00 00 00	 mov	 QWORD PTR [rbx+24], 15

; 509  : 		return (this->_BUF_SIZE <= _Myres

  00070	48 83 7b 18 10	 cmp	 QWORD PTR [rbx+24], 16

; 2216 : 		_Traits::assign(_Dx._Myptr()[_Dx._Mysize = _Newsize], _Elem());

  00075	48 89 73 10	 mov	 QWORD PTR [rbx+16], rsi

; 509  : 		return (this->_BUF_SIZE <= _Myres

  00079	72 03		 jb	 SHORT $LN107@Tidy
; File c:\users\alist_000\cppmisc\packages\visualcpptools.14.0.24224-pre\lib\native\include\xstddef

; 740  : 	return (_Ptr);

  0007b	48 8b 1b	 mov	 rbx, QWORD PTR [rbx]
$LN107@Tidy:
; File c:\users\alist_000\cppmisc\packages\visualcpptools.14.0.24224-pre\lib\native\include\iosfwd

; 565  : 		_Left = _Right;

  0007e	c6 04 33 00	 mov	 BYTE PTR [rbx+rsi], 0
; File c:\users\alist_000\cppmisc\packages\visualcpptools.14.0.24224-pre\lib\native\include\xstring

; 2259 : 		}

  00082	48 8b 5c 24 30	 mov	 rbx, QWORD PTR [rsp+48]
  00087	48 8b 74 24 38	 mov	 rsi, QWORD PTR [rsp+56]
  0008c	48 83 c4 20	 add	 rsp, 32			; 00000020H
  00090	5f		 pop	 rdi
  00091	c3		 ret	 0
$LN115@Tidy:
; File c:\users\alist_000\cppmisc\packages\visualcpptools.14.0.24224-pre\lib\native\include\xmemory0

; 99   : 		_SCL_SECURE_ALWAYS_VALIDATE(

  00092	e8 00 00 00 00	 call	 _invalid_parameter_noinfo_noreturn
  00097	cc		 int	 3
$LN117@Tidy:

; 104  : 
; 105  :  #ifdef _DEBUG
; 106  : 		// If the following asserts, it likely means that we are performing
; 107  : 		// an aligned delete on memory coming from an unaligned allocation.
; 108  : 		_SCL_SECURE_ALWAYS_VALIDATE(
; 109  : 			reinterpret_cast<uintptr_t *>(_Ptr_ptr)[-1] ==
; 110  : 				_BIG_ALLOCATION_SENTINEL);
; 111  :  #endif /* _DEBUG */
; 112  : 
; 113  : 		// Extra paranoia on aligned allocation/deallocation
; 114  : 		_SCL_SECURE_ALWAYS_VALIDATE(_Ptr_container < _Ptr_user);

  00098	e8 00 00 00 00	 call	 _invalid_parameter_noinfo_noreturn
  0009d	cc		 int	 3
$LN118@Tidy:

; 115  : 
; 116  :  #ifdef _DEBUG
; 117  : 		_SCL_SECURE_ALWAYS_VALIDATE(2 * sizeof(void *)
; 118  : 			<= _Ptr_user - _Ptr_container);
; 119  : 
; 120  :  #else /* _DEBUG */
; 121  : 		_SCL_SECURE_ALWAYS_VALIDATE(sizeof(void *)

  0009e	e8 00 00 00 00	 call	 _invalid_parameter_noinfo_noreturn
  000a3	cc		 int	 3
$LN119@Tidy:

; 122  : 			<= _Ptr_user - _Ptr_container);
; 123  :  #endif /* _DEBUG */
; 124  : 
; 125  : 		_SCL_SECURE_ALWAYS_VALIDATE(_Ptr_user - _Ptr_container

  000a4	e8 00 00 00 00	 call	 _invalid_parameter_noinfo_noreturn
  000a9	cc		 int	 3
$LN114@Tidy:
?_Tidy@?$basic_string@DU?$char_traits@D@std@@V?$allocator@D@2@@std@@QEAAX_N_K@Z ENDP ; std::basic_string<char,std::char_traits<char>,std::allocator<char> >::_Tidy
_TEXT	ENDS
; Function compile flags: /Ogtpy
; File c:\users\alist_000\cppmisc\packages\visualcpptools.14.0.24224-pre\lib\native\include\xstring
; File c:\users\alist_000\cppmisc\packages\visualcpptools.14.0.24224-pre\lib\native\include\iosfwd
; File c:\users\alist_000\cppmisc\packages\visualcpptools.14.0.24224-pre\lib\native\include\xstring
; File c:\users\alist_000\cppmisc\packages\visualcpptools.14.0.24224-pre\lib\native\include\iosfwd
; File c:\users\alist_000\cppmisc\packages\visualcpptools.14.0.24224-pre\lib\native\include\xstring
;	COMDAT ?assign@?$basic_string@DU?$char_traits@D@std@@V?$allocator@D@2@@std@@QEAAAEAV12@PEBD@Z
_TEXT	SEGMENT
this$ = 8
_Ptr$ = 16
?assign@?$basic_string@DU?$char_traits@D@std@@V?$allocator@D@2@@std@@QEAAAEAV12@PEBD@Z PROC ; std::basic_string<char,std::char_traits<char>,std::allocator<char> >::assign, COMDAT
; File c:\users\alist_000\cppmisc\packages\visualcpptools.14.0.24224-pre\lib\native\include\iosfwd

; 523  : 		return (*_First == 0 ? 0

  00000	80 3a 00	 cmp	 BYTE PTR [rdx], 0
  00003	75 08		 jne	 SHORT $LN5@assign
  00005	45 33 c0	 xor	 r8d, r8d
; File c:\users\alist_000\cppmisc\packages\visualcpptools.14.0.24224-pre\lib\native\include\xstring

; 1177 : 		return (assign(_Ptr, _Traits::length(_Ptr)));

  00008	e9 00 00 00 00	 jmp	 ?assign@?$basic_string@DU?$char_traits@D@std@@V?$allocator@D@2@@std@@QEAAAEAV12@PEBD_K@Z ; std::basic_string<char,std::char_traits<char>,std::allocator<char> >::assign
$LN5@assign:
; File c:\users\alist_000\cppmisc\packages\visualcpptools.14.0.24224-pre\lib\native\include\iosfwd

; 523  : 		return (*_First == 0 ? 0

  0000d	49 83 c8 ff	 or	 r8, -1
$LL7@assign:
  00011	49 ff c0	 inc	 r8
  00014	42 80 3c 02 00	 cmp	 BYTE PTR [rdx+r8], 0
  00019	75 f6		 jne	 SHORT $LL7@assign
; File c:\users\alist_000\cppmisc\packages\visualcpptools.14.0.24224-pre\lib\native\include\xstring

; 1177 : 		return (assign(_Ptr, _Traits::length(_Ptr)));

  0001b	e9 00 00 00 00	 jmp	 ?assign@?$basic_string@DU?$char_traits@D@std@@V?$allocator@D@2@@std@@QEAAAEAV12@PEBD_K@Z ; std::basic_string<char,std::char_traits<char>,std::allocator<char> >::assign
?assign@?$basic_string@DU?$char_traits@D@std@@V?$allocator@D@2@@std@@QEAAAEAV12@PEBD@Z ENDP ; std::basic_string<char,std::char_traits<char>,std::allocator<char> >::assign
_TEXT	ENDS
; Function compile flags: /Ogtpy
; File c:\users\alist_000\cppmisc\packages\visualcpptools.14.0.24224-pre\lib\native\include\xstring
; File c:\users\alist_000\cppmisc\packages\visualcpptools.14.0.24224-pre\lib\native\include\xstddef
; File c:\users\alist_000\cppmisc\packages\visualcpptools.14.0.24224-pre\lib\native\include\iosfwd
; File c:\users\alist_000\cppmisc\packages\visualcpptools.14.0.24224-pre\lib\native\include\xstring
; File c:\users\alist_000\cppmisc\packages\visualcpptools.14.0.24224-pre\lib\native\include\xstddef
; File c:\users\alist_000\cppmisc\packages\visualcpptools.14.0.24224-pre\lib\native\include\xstring
; File c:\users\alist_000\cppmisc\packages\visualcpptools.14.0.24224-pre\lib\native\include\xstddef
; File c:\users\alist_000\cppmisc\packages\visualcpptools.14.0.24224-pre\lib\native\include\xstring
; File c:\users\alist_000\cppmisc\packages\visualcpptools.14.0.24224-pre\lib\native\include\xstddef
; File c:\users\alist_000\cppmisc\packages\visualcpptools.14.0.24224-pre\lib\native\include\iosfwd
; File c:\users\alist_000\cppmisc\packages\visualcpptools.14.0.24224-pre\lib\native\include\xstring
; File c:\users\alist_000\cppmisc\packages\visualcpptools.14.0.24224-pre\lib\native\include\iosfwd
; File c:\users\alist_000\cppmisc\packages\visualcpptools.14.0.24224-pre\lib\native\include\xstring
; File c:\users\alist_000\cppmisc\packages\visualcpptools.14.0.24224-pre\lib\native\include\iosfwd
; File c:\users\alist_000\cppmisc\packages\visualcpptools.14.0.24224-pre\lib\native\include\xstring
; File c:\users\alist_000\cppmisc\packages\visualcpptools.14.0.24224-pre\lib\native\include\iosfwd
; File c:\users\alist_000\cppmisc\packages\visualcpptools.14.0.24224-pre\lib\native\include\xstring
; File c:\users\alist_000\cppmisc\packages\visualcpptools.14.0.24224-pre\lib\native\include\xstddef
; File c:\users\alist_000\cppmisc\packages\visualcpptools.14.0.24224-pre\lib\native\include\xstring
; File c:\users\alist_000\cppmisc\packages\visualcpptools.14.0.24224-pre\lib\native\include\iosfwd
; File c:\users\alist_000\cppmisc\packages\visualcpptools.14.0.24224-pre\lib\native\include\xstring
;	COMDAT ?assign@?$basic_string@DU?$char_traits@D@std@@V?$allocator@D@2@@std@@QEAAAEAV12@AEBV12@_K1@Z
_TEXT	SEGMENT
this$ = 48
_Right$ = 56
_Roff$ = 64
_Count$ = 72
?assign@?$basic_string@DU?$char_traits@D@std@@V?$allocator@D@2@@std@@QEAAAEAV12@AEBV12@_K1@Z PROC ; std::basic_string<char,std::char_traits<char>,std::allocator<char> >::assign, COMDAT

; 1144 : 		{	// assign _Right [_Roff, _Roff + _Count)

$LN212:
  00000	48 89 5c 24 08	 mov	 QWORD PTR [rsp+8], rbx
  00005	48 89 74 24 10	 mov	 QWORD PTR [rsp+16], rsi
  0000a	48 89 7c 24 18	 mov	 QWORD PTR [rsp+24], rdi
  0000f	41 56		 push	 r14
  00011	48 83 ec 20	 sub	 rsp, 32			; 00000020H

; 2268 : 		if (this->_Mysize() < _Off)

  00015	48 8b 42 10	 mov	 rax, QWORD PTR [rdx+16]

; 1144 : 		{	// assign _Right [_Roff, _Roff + _Count)

  00019	49 8b f9	 mov	 rdi, r9
  0001c	4d 8b f0	 mov	 r14, r8
  0001f	48 8b f2	 mov	 rsi, rdx
  00022	48 8b d9	 mov	 rbx, rcx

; 2268 : 		if (this->_Mysize() < _Off)

  00025	49 3b c0	 cmp	 rax, r8
  00028	0f 82 d9 00 00
	00		 jb	 $LN208@assign

; 2109 : 		const size_type _Max_effective_size = this->_Mysize() - _Off;

  0002e	49 2b c0	 sub	 rax, r8

; 2110 : 		if (_Size <= _Max_effective_size)

  00031	4c 3b c8	 cmp	 r9, rax
  00034	48 0f 47 f8	 cmova	 rdi, rax

; 1145 : 		_Right._Check_offset(_Roff);
; 1146 : 		_Count = _Right._Clamp_suffix_size(_Roff, _Count);
; 1147 : 
; 1148 : 		if (this == &_Right)

  00038	48 3b ca	 cmp	 rcx, rdx
  0003b	75 2f		 jne	 SHORT $LN2@assign

; 1149 : 			erase((size_type)(_Roff + _Count)), erase(0, _Roff);	// substring

  0003d	49 8d 04 38	 lea	 rax, QWORD PTR [r8+rdi]

; 2268 : 		if (this->_Mysize() < _Off)

  00041	48 39 41 10	 cmp	 QWORD PTR [rcx+16], rax
  00045	0f 82 c9 00 00
	00		 jb	 $LN210@assign

; 2216 : 		_Traits::assign(_Dx._Myptr()[_Dx._Mysize = _Newsize], _Elem());

  0004b	48 89 41 10	 mov	 QWORD PTR [rcx+16], rax

; 509  : 		return (this->_BUF_SIZE <= _Myres

  0004f	48 83 79 18 10	 cmp	 QWORD PTR [rcx+24], 16
  00054	72 03		 jb	 SHORT $LN64@assign
; File c:\users\alist_000\cppmisc\packages\visualcpptools.14.0.24224-pre\lib\native\include\xstddef

; 740  : 	return (_Ptr);

  00056	48 8b 09	 mov	 rcx, QWORD PTR [rcx]
$LN64@assign:
; File c:\users\alist_000\cppmisc\packages\visualcpptools.14.0.24224-pre\lib\native\include\iosfwd

; 565  : 		_Left = _Right;

  00059	c6 04 01 00	 mov	 BYTE PTR [rcx+rax], 0
; File c:\users\alist_000\cppmisc\packages\visualcpptools.14.0.24224-pre\lib\native\include\xstring

; 1149 : 			erase((size_type)(_Roff + _Count)), erase(0, _Roff);	// substring

  0005d	33 d2		 xor	 edx, edx
  0005f	48 8b cb	 mov	 rcx, rbx
  00062	e8 00 00 00 00	 call	 ?erase@?$basic_string@DU?$char_traits@D@std@@V?$allocator@D@2@@std@@QEAAAEAV12@_K0@Z ; std::basic_string<char,std::char_traits<char>,std::allocator<char> >::erase

; 1150 : 		else if (_Grow(_Count))

  00067	e9 82 00 00 00	 jmp	 $LN203@assign
$LN2@assign:

; 2222 : 		if (max_size() < _Newsize)

  0006c	48 83 ff fe	 cmp	 rdi, -2
  00070	0f 87 ab 00 00
	00		 ja	 $LN211@assign

; 2223 : 			_Xlen();	// result too long
; 2224 : 		if (this->_Myres() < _Newsize)

  00076	48 39 79 18	 cmp	 QWORD PTR [rcx+24], rdi
  0007a	73 27		 jae	 SHORT $LN72@assign

; 2225 : 			_Copy(_Newsize, this->_Mysize());	// reallocate to grow

  0007c	4c 8b 41 10	 mov	 r8, QWORD PTR [rcx+16]
  00080	48 8b d7	 mov	 rdx, rdi
  00083	e8 00 00 00 00	 call	 ?_Copy@?$basic_string@DU?$char_traits@D@std@@V?$allocator@D@2@@std@@QEAAX_K0@Z ; std::basic_string<char,std::char_traits<char>,std::allocator<char> >::_Copy

; 2231 : 		return (0 < _Newsize);	// return true only if more work to do

  00088	48 85 ff	 test	 rdi, rdi

; 1150 : 		else if (_Grow(_Count))

  0008b	74 61		 je	 SHORT $LN203@assign
$LN207@assign:

; 516  : 		return (this->_BUF_SIZE <= _Myres

  0008d	48 83 7e 18 10	 cmp	 QWORD PTR [rsi+24], 16
  00092	72 03		 jb	 SHORT $LN166@assign
; File c:\users\alist_000\cppmisc\packages\visualcpptools.14.0.24224-pre\lib\native\include\xstddef

; 740  : 	return (_Ptr);

  00094	48 8b 36	 mov	 rsi, QWORD PTR [rsi]
$LN166@assign:
; File c:\users\alist_000\cppmisc\packages\visualcpptools.14.0.24224-pre\lib\native\include\xstring

; 509  : 		return (this->_BUF_SIZE <= _Myres

  00097	48 83 7b 18 10	 cmp	 QWORD PTR [rbx+24], 16
  0009c	72 25		 jb	 SHORT $LN180@assign
; File c:\users\alist_000\cppmisc\packages\visualcpptools.14.0.24224-pre\lib\native\include\xstddef

; 740  : 	return (_Ptr);

  0009e	48 8b 0b	 mov	 rcx, QWORD PTR [rbx]
; File c:\users\alist_000\cppmisc\packages\visualcpptools.14.0.24224-pre\lib\native\include\xstring

; 509  : 		return (this->_BUF_SIZE <= _Myres

  000a1	eb 23		 jmp	 SHORT $LN181@assign
$LN72@assign:

; 2229 : 		else if (_Newsize == 0)

  000a3	48 85 ff	 test	 rdi, rdi
  000a6	75 e5		 jne	 SHORT $LN207@assign

; 509  : 		return (this->_BUF_SIZE <= _Myres

  000a8	48 83 79 18 10	 cmp	 QWORD PTR [rcx+24], 16

; 2216 : 		_Traits::assign(_Dx._Myptr()[_Dx._Mysize = _Newsize], _Elem());

  000ad	48 89 79 10	 mov	 QWORD PTR [rcx+16], rdi

; 509  : 		return (this->_BUF_SIZE <= _Myres

  000b1	72 08		 jb	 SHORT $LN149@assign
; File c:\users\alist_000\cppmisc\packages\visualcpptools.14.0.24224-pre\lib\native\include\xstddef

; 740  : 	return (_Ptr);

  000b3	48 8b 01	 mov	 rax, QWORD PTR [rcx]
; File c:\users\alist_000\cppmisc\packages\visualcpptools.14.0.24224-pre\lib\native\include\iosfwd

; 565  : 		_Left = _Right;

  000b6	40 88 38	 mov	 BYTE PTR [rax], dil
; File c:\users\alist_000\cppmisc\packages\visualcpptools.14.0.24224-pre\lib\native\include\xstring

; 2231 : 		return (0 < _Newsize);	// return true only if more work to do

  000b9	eb 33		 jmp	 SHORT $LN203@assign
$LN149@assign:

; 509  : 		return (this->_BUF_SIZE <= _Myres

  000bb	48 8b c3	 mov	 rax, rbx
; File c:\users\alist_000\cppmisc\packages\visualcpptools.14.0.24224-pre\lib\native\include\iosfwd

; 565  : 		_Left = _Right;

  000be	c6 03 00	 mov	 BYTE PTR [rbx], 0
; File c:\users\alist_000\cppmisc\packages\visualcpptools.14.0.24224-pre\lib\native\include\xstring

; 2231 : 		return (0 < _Newsize);	// return true only if more work to do

  000c1	eb 2b		 jmp	 SHORT $LN203@assign
$LN180@assign:

; 509  : 		return (this->_BUF_SIZE <= _Myres

  000c3	48 8b cb	 mov	 rcx, rbx
$LN181@assign:
; File c:\users\alist_000\cppmisc\packages\visualcpptools.14.0.24224-pre\lib\native\include\iosfwd

; 530  : 		return (_Count == 0 ? _First1

  000c6	48 85 ff	 test	 rdi, rdi
  000c9	74 0c		 je	 SHORT $LN187@assign
; File c:\users\alist_000\cppmisc\packages\visualcpptools.14.0.24224-pre\lib\native\include\xstring

; 1152 : 			_Traits::copy(this->_Myptr(),

  000cb	4a 8d 14 36	 lea	 rdx, QWORD PTR [rsi+r14]
; File c:\users\alist_000\cppmisc\packages\visualcpptools.14.0.24224-pre\lib\native\include\iosfwd

; 530  : 		return (_Count == 0 ? _First1

  000cf	4c 8b c7	 mov	 r8, rdi
  000d2	e8 00 00 00 00	 call	 memcpy
$LN187@assign:
; File c:\users\alist_000\cppmisc\packages\visualcpptools.14.0.24224-pre\lib\native\include\xstring

; 509  : 		return (this->_BUF_SIZE <= _Myres

  000d7	48 83 7b 18 10	 cmp	 QWORD PTR [rbx+24], 16

; 2216 : 		_Traits::assign(_Dx._Myptr()[_Dx._Mysize = _Newsize], _Elem());

  000dc	48 89 7b 10	 mov	 QWORD PTR [rbx+16], rdi

; 509  : 		return (this->_BUF_SIZE <= _Myres

  000e0	72 05		 jb	 SHORT $LN198@assign
; File c:\users\alist_000\cppmisc\packages\visualcpptools.14.0.24224-pre\lib\native\include\xstddef

; 740  : 	return (_Ptr);

  000e2	48 8b 03	 mov	 rax, QWORD PTR [rbx]
; File c:\users\alist_000\cppmisc\packages\visualcpptools.14.0.24224-pre\lib\native\include\xstring

; 509  : 		return (this->_BUF_SIZE <= _Myres

  000e5	eb 03		 jmp	 SHORT $LN199@assign
$LN198@assign:
  000e7	48 8b c3	 mov	 rax, rbx
$LN199@assign:
; File c:\users\alist_000\cppmisc\packages\visualcpptools.14.0.24224-pre\lib\native\include\iosfwd

; 565  : 		_Left = _Right;

  000ea	c6 04 38 00	 mov	 BYTE PTR [rax+rdi], 0
$LN203@assign:
; File c:\users\alist_000\cppmisc\packages\visualcpptools.14.0.24224-pre\lib\native\include\xstring

; 1157 : 		}

  000ee	48 8b 74 24 38	 mov	 rsi, QWORD PTR [rsp+56]
  000f3	48 8b c3	 mov	 rax, rbx
  000f6	48 8b 5c 24 30	 mov	 rbx, QWORD PTR [rsp+48]
  000fb	48 8b 7c 24 40	 mov	 rdi, QWORD PTR [rsp+64]
  00100	48 83 c4 20	 add	 rsp, 32			; 00000020H
  00104	41 5e		 pop	 r14
  00106	c3		 ret	 0
$LN208@assign:

; 2280 : 		_Xout_of_range("invalid string position");

  00107	48 8d 0d 00 00
	00 00		 lea	 rcx, OFFSET FLAT:??_C@_0BI@CFPLBAOH@invalid?5string?5position?$AA@
  0010e	e8 00 00 00 00	 call	 ?_Xout_of_range@std@@YAXPEBD@Z ; std::_Xout_of_range
  00113	cc		 int	 3
$LN210@assign:
  00114	48 8d 0d 00 00
	00 00		 lea	 rcx, OFFSET FLAT:??_C@_0BI@CFPLBAOH@invalid?5string?5position?$AA@
  0011b	e8 00 00 00 00	 call	 ?_Xout_of_range@std@@YAXPEBD@Z ; std::_Xout_of_range
  00120	cc		 int	 3
$LN211@assign:

; 2263 : 		_Xlength_error("string too long");

  00121	48 8d 0d 00 00
	00 00		 lea	 rcx, OFFSET FLAT:??_C@_0BA@JFNIOLAK@string?5too?5long?$AA@
  00128	e8 00 00 00 00	 call	 ?_Xlength_error@std@@YAXPEBD@Z ; std::_Xlength_error
  0012d	cc		 int	 3
$LN205@assign:
?assign@?$basic_string@DU?$char_traits@D@std@@V?$allocator@D@2@@std@@QEAAAEAV12@AEBV12@_K1@Z ENDP ; std::basic_string<char,std::char_traits<char>,std::allocator<char> >::assign
_TEXT	ENDS
; Function compile flags: /Ogtpy
; File c:\users\alist_000\cppmisc\packages\visualcpptools.14.0.24224-pre\lib\native\include\xstring
; File c:\users\alist_000\cppmisc\packages\visualcpptools.14.0.24224-pre\lib\native\include\xstddef
; File c:\users\alist_000\cppmisc\packages\visualcpptools.14.0.24224-pre\lib\native\include\xstring
; File c:\users\alist_000\cppmisc\packages\visualcpptools.14.0.24224-pre\lib\native\include\xstddef
; File c:\users\alist_000\cppmisc\packages\visualcpptools.14.0.24224-pre\lib\native\include\xstring
; File c:\users\alist_000\cppmisc\packages\visualcpptools.14.0.24224-pre\lib\native\include\xstddef
; File c:\users\alist_000\cppmisc\packages\visualcpptools.14.0.24224-pre\lib\native\include\xstring
; File c:\users\alist_000\cppmisc\packages\visualcpptools.14.0.24224-pre\lib\native\include\xstddef
; File c:\users\alist_000\cppmisc\packages\visualcpptools.14.0.24224-pre\lib\native\include\xstring
; File c:\users\alist_000\cppmisc\packages\visualcpptools.14.0.24224-pre\lib\native\include\xstddef
; File c:\users\alist_000\cppmisc\packages\visualcpptools.14.0.24224-pre\lib\native\include\iosfwd
; File c:\users\alist_000\cppmisc\packages\visualcpptools.14.0.24224-pre\lib\native\include\xstring
; File c:\users\alist_000\cppmisc\packages\visualcpptools.14.0.24224-pre\lib\native\include\iosfwd
; File c:\users\alist_000\cppmisc\packages\visualcpptools.14.0.24224-pre\lib\native\include\xstring
; File c:\users\alist_000\cppmisc\packages\visualcpptools.14.0.24224-pre\lib\native\include\iosfwd
; File c:\users\alist_000\cppmisc\packages\visualcpptools.14.0.24224-pre\lib\native\include\xstring
; File c:\users\alist_000\cppmisc\packages\visualcpptools.14.0.24224-pre\lib\native\include\iosfwd
; File c:\users\alist_000\cppmisc\packages\visualcpptools.14.0.24224-pre\lib\native\include\xstring
; File c:\users\alist_000\cppmisc\packages\visualcpptools.14.0.24224-pre\lib\native\include\xstddef
; File c:\users\alist_000\cppmisc\packages\visualcpptools.14.0.24224-pre\lib\native\include\xstring
; File c:\users\alist_000\cppmisc\packages\visualcpptools.14.0.24224-pre\lib\native\include\iosfwd
; File c:\users\alist_000\cppmisc\packages\visualcpptools.14.0.24224-pre\lib\native\include\xstring
;	COMDAT ?append@?$basic_string@DU?$char_traits@D@std@@V?$allocator@D@2@@std@@QEAAAEAV12@PEBD_K@Z
_TEXT	SEGMENT
this$ = 48
_Ptr$ = 56
_Count$ = 64
?append@?$basic_string@DU?$char_traits@D@std@@V?$allocator@D@2@@std@@QEAAAEAV12@PEBD_K@Z PROC ; std::basic_string<char,std::char_traits<char>,std::allocator<char> >::append, COMDAT

; 1082 : 		{	// append [_Ptr, _Ptr + _Count)

$LN221:
  00000	48 89 5c 24 10	 mov	 QWORD PTR [rsp+16], rbx
  00005	48 89 6c 24 18	 mov	 QWORD PTR [rsp+24], rbp
  0000a	56		 push	 rsi
  0000b	48 83 ec 20	 sub	 rsp, 32			; 00000020H
  0000f	49 8b f0	 mov	 rsi, r8
  00012	48 8b ea	 mov	 rbp, rdx
  00015	48 8b d9	 mov	 rbx, rcx

; 2237 : 			|| this->_Myptr() + this->_Mysize() <= _Ptr)

  00018	48 85 d2	 test	 rdx, rdx
  0001b	74 5a		 je	 SHORT $LN2@append

; 509  : 		return (this->_BUF_SIZE <= _Myres

  0001d	4c 8b 49 18	 mov	 r9, QWORD PTR [rcx+24]
  00021	49 83 f9 10	 cmp	 r9, 16
  00025	72 05		 jb	 SHORT $LN21@append
; File c:\users\alist_000\cppmisc\packages\visualcpptools.14.0.24224-pre\lib\native\include\xstddef

; 740  : 	return (_Ptr);

  00027	48 8b 01	 mov	 rax, QWORD PTR [rcx]
; File c:\users\alist_000\cppmisc\packages\visualcpptools.14.0.24224-pre\lib\native\include\xstring

; 509  : 		return (this->_BUF_SIZE <= _Myres

  0002a	eb 03		 jmp	 SHORT $LN22@append
$LN21@append:
  0002c	48 8b c3	 mov	 rax, rbx
$LN22@append:

; 2237 : 			|| this->_Myptr() + this->_Mysize() <= _Ptr)

  0002f	48 3b e8	 cmp	 rbp, rax
  00032	72 43		 jb	 SHORT $LN2@append

; 509  : 		return (this->_BUF_SIZE <= _Myres

  00034	49 83 f9 10	 cmp	 r9, 16
  00038	72 03		 jb	 SHORT $LN36@append
; File c:\users\alist_000\cppmisc\packages\visualcpptools.14.0.24224-pre\lib\native\include\xstddef

; 740  : 	return (_Ptr);

  0003a	48 8b 09	 mov	 rcx, QWORD PTR [rcx]
$LN36@append:
; File c:\users\alist_000\cppmisc\packages\visualcpptools.14.0.24224-pre\lib\native\include\xstring

; 2237 : 			|| this->_Myptr() + this->_Mysize() <= _Ptr)

  0003d	48 03 4b 10	 add	 rcx, QWORD PTR [rbx+16]
  00041	48 3b cd	 cmp	 rcx, rbp
  00044	76 31		 jbe	 SHORT $LN2@append

; 509  : 		return (this->_BUF_SIZE <= _Myres

  00046	49 83 f9 10	 cmp	 r9, 16
  0004a	72 05		 jb	 SHORT $LN58@append
; File c:\users\alist_000\cppmisc\packages\visualcpptools.14.0.24224-pre\lib\native\include\xstddef

; 740  : 	return (_Ptr);

  0004c	48 8b 03	 mov	 rax, QWORD PTR [rbx]
; File c:\users\alist_000\cppmisc\packages\visualcpptools.14.0.24224-pre\lib\native\include\xstring

; 509  : 		return (this->_BUF_SIZE <= _Myres

  0004f	eb 03		 jmp	 SHORT $LN59@append
$LN58@append:
  00051	48 8b c3	 mov	 rax, rbx
$LN59@append:

; 1083 : 		_DEBUG_POINTER_IF(_Count != 0, _Ptr);
; 1084 : 		if (_Inside(_Ptr))
; 1085 : 			return (append(*this,

  00054	48 2b e8	 sub	 rbp, rax
  00057	4c 8b ce	 mov	 r9, rsi
  0005a	4c 8b c5	 mov	 r8, rbp
  0005d	48 8b d3	 mov	 rdx, rbx
  00060	48 8b cb	 mov	 rcx, rbx

; 1097 : 		}

  00063	48 8b 5c 24 38	 mov	 rbx, QWORD PTR [rsp+56]
  00068	48 8b 6c 24 40	 mov	 rbp, QWORD PTR [rsp+64]
  0006d	48 83 c4 20	 add	 rsp, 32			; 00000020H
  00071	5e		 pop	 rsi

; 1083 : 		_DEBUG_POINTER_IF(_Count != 0, _Ptr);
; 1084 : 		if (_Inside(_Ptr))
; 1085 : 			return (append(*this,

  00072	e9 00 00 00 00	 jmp	 ?append@?$basic_string@DU?$char_traits@D@std@@V?$allocator@D@2@@std@@QEAAAEAV12@AEBV12@_K1@Z ; std::basic_string<char,std::char_traits<char>,std::allocator<char> >::append
$LN2@append:

; 1086 : 				_Ptr - this->_Myptr(), _Count));	// substring
; 1087 : 		if (npos - this->_Mysize() <= _Count)

  00077	4c 8b 43 10	 mov	 r8, QWORD PTR [rbx+16]
  0007b	49 8b c0	 mov	 rax, r8
  0007e	48 f7 d0	 not	 rax
  00081	48 3b c6	 cmp	 rax, rsi
  00084	0f 86 a0 00 00
	00		 jbe	 $LN218@append

; 1088 : 			_Xlen();	// result too long
; 1089 : 
; 1090 : 		const size_type _Num = this->_Mysize() + _Count;

  0008a	48 89 7c 24 30	 mov	 QWORD PTR [rsp+48], rdi
  0008f	49 8d 3c 30	 lea	 rdi, QWORD PTR [r8+rsi]

; 1091 : 		if (0 < _Count && _Grow(_Num))

  00093	48 85 f6	 test	 rsi, rsi
  00096	74 7a		 je	 SHORT $LN211@append

; 2222 : 		if (max_size() < _Newsize)

  00098	48 83 ff fe	 cmp	 rdi, -2
  0009c	0f 87 95 00 00
	00		 ja	 $LN220@append

; 2223 : 			_Xlen();	// result too long
; 2224 : 		if (this->_Myres() < _Newsize)

  000a2	48 39 7b 18	 cmp	 QWORD PTR [rbx+24], rdi
  000a6	73 1c		 jae	 SHORT $LN85@append

; 2225 : 			_Copy(_Newsize, this->_Mysize());	// reallocate to grow

  000a8	48 8b d7	 mov	 rdx, rdi
  000ab	48 8b cb	 mov	 rcx, rbx
  000ae	e8 00 00 00 00	 call	 ?_Copy@?$basic_string@DU?$char_traits@D@std@@V?$allocator@D@2@@std@@QEAAX_K0@Z ; std::basic_string<char,std::char_traits<char>,std::allocator<char> >::_Copy

; 2231 : 		return (0 < _Newsize);	// return true only if more work to do

  000b3	48 85 ff	 test	 rdi, rdi

; 1091 : 		if (0 < _Count && _Grow(_Num))

  000b6	74 5a		 je	 SHORT $LN211@append
$LN217@append:

; 509  : 		return (this->_BUF_SIZE <= _Myres

  000b8	48 83 7b 18 10	 cmp	 QWORD PTR [rbx+24], 16
  000bd	72 25		 jb	 SHORT $LN179@append
; File c:\users\alist_000\cppmisc\packages\visualcpptools.14.0.24224-pre\lib\native\include\xstddef

; 740  : 	return (_Ptr);

  000bf	48 8b 0b	 mov	 rcx, QWORD PTR [rbx]
; File c:\users\alist_000\cppmisc\packages\visualcpptools.14.0.24224-pre\lib\native\include\xstring

; 509  : 		return (this->_BUF_SIZE <= _Myres

  000c2	eb 23		 jmp	 SHORT $LN180@append
$LN85@append:

; 2229 : 		else if (_Newsize == 0)

  000c4	48 85 ff	 test	 rdi, rdi
  000c7	75 ef		 jne	 SHORT $LN217@append

; 2216 : 		_Traits::assign(_Dx._Myptr()[_Dx._Mysize = _Newsize], _Elem());

  000c9	48 89 7b 10	 mov	 QWORD PTR [rbx+16], rdi

; 509  : 		return (this->_BUF_SIZE <= _Myres

  000cd	48 83 7b 18 10	 cmp	 QWORD PTR [rbx+24], 16
  000d2	72 08		 jb	 SHORT $LN162@append
; File c:\users\alist_000\cppmisc\packages\visualcpptools.14.0.24224-pre\lib\native\include\xstddef

; 740  : 	return (_Ptr);

  000d4	48 8b 03	 mov	 rax, QWORD PTR [rbx]
; File c:\users\alist_000\cppmisc\packages\visualcpptools.14.0.24224-pre\lib\native\include\iosfwd

; 565  : 		_Left = _Right;

  000d7	40 88 38	 mov	 BYTE PTR [rax], dil
; File c:\users\alist_000\cppmisc\packages\visualcpptools.14.0.24224-pre\lib\native\include\xstring

; 2231 : 		return (0 < _Newsize);	// return true only if more work to do

  000da	eb 36		 jmp	 SHORT $LN211@append
$LN162@append:

; 509  : 		return (this->_BUF_SIZE <= _Myres

  000dc	48 8b c3	 mov	 rax, rbx
; File c:\users\alist_000\cppmisc\packages\visualcpptools.14.0.24224-pre\lib\native\include\iosfwd

; 565  : 		_Left = _Right;

  000df	c6 03 00	 mov	 BYTE PTR [rbx], 0
; File c:\users\alist_000\cppmisc\packages\visualcpptools.14.0.24224-pre\lib\native\include\xstring

; 2231 : 		return (0 < _Newsize);	// return true only if more work to do

  000e2	eb 2e		 jmp	 SHORT $LN211@append
$LN179@append:

; 509  : 		return (this->_BUF_SIZE <= _Myres

  000e4	48 8b cb	 mov	 rcx, rbx
$LN180@append:
; File c:\users\alist_000\cppmisc\packages\visualcpptools.14.0.24224-pre\lib\native\include\iosfwd

; 530  : 		return (_Count == 0 ? _First1

  000e7	48 85 f6	 test	 rsi, rsi
  000ea	74 0f		 je	 SHORT $LN195@append
; File c:\users\alist_000\cppmisc\packages\visualcpptools.14.0.24224-pre\lib\native\include\xstring

; 1093 : 			_Traits::copy(this->_Myptr() + this->_Mysize(), _Ptr, _Count);

  000ec	48 03 4b 10	 add	 rcx, QWORD PTR [rbx+16]
; File c:\users\alist_000\cppmisc\packages\visualcpptools.14.0.24224-pre\lib\native\include\iosfwd

; 530  : 		return (_Count == 0 ? _First1

  000f0	4c 8b c6	 mov	 r8, rsi
  000f3	48 8b d5	 mov	 rdx, rbp
  000f6	e8 00 00 00 00	 call	 memcpy
$LN195@append:
; File c:\users\alist_000\cppmisc\packages\visualcpptools.14.0.24224-pre\lib\native\include\xstring

; 509  : 		return (this->_BUF_SIZE <= _Myres

  000fb	48 83 7b 18 10	 cmp	 QWORD PTR [rbx+24], 16

; 2216 : 		_Traits::assign(_Dx._Myptr()[_Dx._Mysize = _Newsize], _Elem());

  00100	48 89 7b 10	 mov	 QWORD PTR [rbx+16], rdi

; 509  : 		return (this->_BUF_SIZE <= _Myres

  00104	72 05		 jb	 SHORT $LN206@append
; File c:\users\alist_000\cppmisc\packages\visualcpptools.14.0.24224-pre\lib\native\include\xstddef

; 740  : 	return (_Ptr);

  00106	48 8b 03	 mov	 rax, QWORD PTR [rbx]
; File c:\users\alist_000\cppmisc\packages\visualcpptools.14.0.24224-pre\lib\native\include\xstring

; 509  : 		return (this->_BUF_SIZE <= _Myres

  00109	eb 03		 jmp	 SHORT $LN207@append
$LN206@append:
  0010b	48 8b c3	 mov	 rax, rbx
$LN207@append:
; File c:\users\alist_000\cppmisc\packages\visualcpptools.14.0.24224-pre\lib\native\include\iosfwd

; 565  : 		_Left = _Right;

  0010e	c6 04 38 00	 mov	 BYTE PTR [rax+rdi], 0
$LN211@append:
  00112	48 8b 7c 24 30	 mov	 rdi, QWORD PTR [rsp+48]
; File c:\users\alist_000\cppmisc\packages\visualcpptools.14.0.24224-pre\lib\native\include\xstring

; 1096 : 		return (*this);

  00117	48 8b c3	 mov	 rax, rbx

; 1097 : 		}

  0011a	48 8b 5c 24 38	 mov	 rbx, QWORD PTR [rsp+56]
  0011f	48 8b 6c 24 40	 mov	 rbp, QWORD PTR [rsp+64]
  00124	48 83 c4 20	 add	 rsp, 32			; 00000020H
  00128	5e		 pop	 rsi
  00129	c3		 ret	 0
$LN218@append:

; 2263 : 		_Xlength_error("string too long");

  0012a	48 8d 0d 00 00
	00 00		 lea	 rcx, OFFSET FLAT:??_C@_0BA@JFNIOLAK@string?5too?5long?$AA@
  00131	e8 00 00 00 00	 call	 ?_Xlength_error@std@@YAXPEBD@Z ; std::_Xlength_error
  00136	cc		 int	 3
$LN220@append:
  00137	48 8d 0d 00 00
	00 00		 lea	 rcx, OFFSET FLAT:??_C@_0BA@JFNIOLAK@string?5too?5long?$AA@
  0013e	e8 00 00 00 00	 call	 ?_Xlength_error@std@@YAXPEBD@Z ; std::_Xlength_error
  00143	cc		 int	 3
$LN215@append:
?append@?$basic_string@DU?$char_traits@D@std@@V?$allocator@D@2@@std@@QEAAAEAV12@PEBD_K@Z ENDP ; std::basic_string<char,std::char_traits<char>,std::allocator<char> >::append
_TEXT	ENDS
; Function compile flags: /Ogtpy
; File c:\users\alist_000\cppmisc\packages\visualcpptools.14.0.24224-pre\lib\native\include\xstring
; File c:\users\alist_000\cppmisc\packages\visualcpptools.14.0.24224-pre\lib\native\include\xstddef
; File c:\users\alist_000\cppmisc\packages\visualcpptools.14.0.24224-pre\lib\native\include\xstring
; File c:\users\alist_000\cppmisc\packages\visualcpptools.14.0.24224-pre\lib\native\include\xstddef
; File c:\users\alist_000\cppmisc\packages\visualcpptools.14.0.24224-pre\lib\native\include\xstring
; File c:\users\alist_000\cppmisc\packages\visualcpptools.14.0.24224-pre\lib\native\include\xstddef
; File c:\users\alist_000\cppmisc\packages\visualcpptools.14.0.24224-pre\lib\native\include\iosfwd
; File c:\users\alist_000\cppmisc\packages\visualcpptools.14.0.24224-pre\lib\native\include\xstring
; File c:\users\alist_000\cppmisc\packages\visualcpptools.14.0.24224-pre\lib\native\include\iosfwd
; File c:\users\alist_000\cppmisc\packages\visualcpptools.14.0.24224-pre\lib\native\include\xstring
; File c:\users\alist_000\cppmisc\packages\visualcpptools.14.0.24224-pre\lib\native\include\iosfwd
; File c:\users\alist_000\cppmisc\packages\visualcpptools.14.0.24224-pre\lib\native\include\xstring
; File c:\users\alist_000\cppmisc\packages\visualcpptools.14.0.24224-pre\lib\native\include\iosfwd
; File c:\users\alist_000\cppmisc\packages\visualcpptools.14.0.24224-pre\lib\native\include\xstring
; File c:\users\alist_000\cppmisc\packages\visualcpptools.14.0.24224-pre\lib\native\include\xstddef
; File c:\users\alist_000\cppmisc\packages\visualcpptools.14.0.24224-pre\lib\native\include\xstring
; File c:\users\alist_000\cppmisc\packages\visualcpptools.14.0.24224-pre\lib\native\include\iosfwd
; File c:\users\alist_000\cppmisc\packages\visualcpptools.14.0.24224-pre\lib\native\include\xstring
;	COMDAT ?append@?$basic_string@DU?$char_traits@D@std@@V?$allocator@D@2@@std@@QEAAAEAV12@AEBV12@_K1@Z
_TEXT	SEGMENT
this$ = 48
_Right$ = 56
_Roff$ = 64
_Count$ = 72
?append@?$basic_string@DU?$char_traits@D@std@@V?$allocator@D@2@@std@@QEAAAEAV12@AEBV12@_K1@Z PROC ; std::basic_string<char,std::char_traits<char>,std::allocator<char> >::append, COMDAT

; 1065 : 		{	// append _Right [_Roff, _Roff + _Count)

$LN206:
  00000	48 89 5c 24 10	 mov	 QWORD PTR [rsp+16], rbx
  00005	48 89 6c 24 18	 mov	 QWORD PTR [rsp+24], rbp
  0000a	48 89 74 24 20	 mov	 QWORD PTR [rsp+32], rsi
  0000f	41 56		 push	 r14
  00011	48 83 ec 20	 sub	 rsp, 32			; 00000020H

; 2268 : 		if (this->_Mysize() < _Off)

  00015	48 8b 42 10	 mov	 rax, QWORD PTR [rdx+16]

; 1065 : 		{	// append _Right [_Roff, _Roff + _Count)

  00019	49 8b f1	 mov	 rsi, r9
  0001c	49 8b e8	 mov	 rbp, r8
  0001f	4c 8b f2	 mov	 r14, rdx
  00022	48 8b d9	 mov	 rbx, rcx

; 2268 : 		if (this->_Mysize() < _Off)

  00025	49 3b c0	 cmp	 rax, r8
  00028	0f 82 cf 00 00
	00		 jb	 $LN202@append

; 2109 : 		const size_type _Max_effective_size = this->_Mysize() - _Off;

  0002e	49 2b c0	 sub	 rax, r8

; 1066 : 		_Right._Check_offset(_Roff);
; 1067 : 		_Count = _Right._Clamp_suffix_size(_Roff, _Count);
; 1068 : 		if (npos - this->_Mysize() <= _Count)

  00031	4c 8b 41 10	 mov	 r8, QWORD PTR [rcx+16]

; 2110 : 		if (_Size <= _Max_effective_size)

  00035	4c 3b c8	 cmp	 r9, rax
  00038	48 0f 47 f0	 cmova	 rsi, rax

; 1066 : 		_Right._Check_offset(_Roff);
; 1067 : 		_Count = _Right._Clamp_suffix_size(_Roff, _Count);
; 1068 : 		if (npos - this->_Mysize() <= _Count)

  0003c	49 8b c0	 mov	 rax, r8
  0003f	48 f7 d0	 not	 rax
  00042	48 3b c6	 cmp	 rax, rsi
  00045	0f 86 bf 00 00
	00		 jbe	 $LN204@append

; 1069 : 			_Xlen();	// result too long
; 1070 : 
; 1071 : 		const size_type _Num = this->_Mysize() + _Count;

  0004b	48 89 7c 24 30	 mov	 QWORD PTR [rsp+48], rdi
  00050	49 8d 3c 30	 lea	 rdi, QWORD PTR [r8+rsi]

; 1072 : 		if (0 < _Count && _Grow(_Num))

  00054	48 85 f6	 test	 rsi, rsi
  00057	0f 84 82 00 00
	00		 je	 $LN196@append

; 2222 : 		if (max_size() < _Newsize)

  0005d	48 83 ff fe	 cmp	 rdi, -2
  00061	0f 87 b0 00 00
	00		 ja	 $LN205@append

; 2223 : 			_Xlen();	// result too long
; 2224 : 		if (this->_Myres() < _Newsize)

  00067	48 39 79 18	 cmp	 QWORD PTR [rcx+24], rdi
  0006b	73 23		 jae	 SHORT $LN56@append

; 2225 : 			_Copy(_Newsize, this->_Mysize());	// reallocate to grow

  0006d	48 8b d7	 mov	 rdx, rdi
  00070	e8 00 00 00 00	 call	 ?_Copy@?$basic_string@DU?$char_traits@D@std@@V?$allocator@D@2@@std@@QEAAX_K0@Z ; std::basic_string<char,std::char_traits<char>,std::allocator<char> >::_Copy

; 2231 : 		return (0 < _Newsize);	// return true only if more work to do

  00075	48 85 ff	 test	 rdi, rdi

; 1072 : 		if (0 < _Count && _Grow(_Num))

  00078	74 65		 je	 SHORT $LN196@append
$LN201@append:

; 516  : 		return (this->_BUF_SIZE <= _Myres

  0007a	49 83 7e 18 10	 cmp	 QWORD PTR [r14+24], 16
  0007f	72 03		 jb	 SHORT $LN150@append
; File c:\users\alist_000\cppmisc\packages\visualcpptools.14.0.24224-pre\lib\native\include\xstddef

; 740  : 	return (_Ptr);

  00081	4d 8b 36	 mov	 r14, QWORD PTR [r14]
$LN150@append:
; File c:\users\alist_000\cppmisc\packages\visualcpptools.14.0.24224-pre\lib\native\include\xstring

; 509  : 		return (this->_BUF_SIZE <= _Myres

  00084	48 83 7b 18 10	 cmp	 QWORD PTR [rbx+24], 16
  00089	72 25		 jb	 SHORT $LN164@append
; File c:\users\alist_000\cppmisc\packages\visualcpptools.14.0.24224-pre\lib\native\include\xstddef

; 740  : 	return (_Ptr);

  0008b	48 8b 0b	 mov	 rcx, QWORD PTR [rbx]
; File c:\users\alist_000\cppmisc\packages\visualcpptools.14.0.24224-pre\lib\native\include\xstring

; 509  : 		return (this->_BUF_SIZE <= _Myres

  0008e	eb 23		 jmp	 SHORT $LN165@append
$LN56@append:

; 2229 : 		else if (_Newsize == 0)

  00090	48 85 ff	 test	 rdi, rdi
  00093	75 e5		 jne	 SHORT $LN201@append

; 2216 : 		_Traits::assign(_Dx._Myptr()[_Dx._Mysize = _Newsize], _Elem());

  00095	48 89 79 10	 mov	 QWORD PTR [rcx+16], rdi

; 509  : 		return (this->_BUF_SIZE <= _Myres

  00099	48 83 79 18 10	 cmp	 QWORD PTR [rcx+24], 16
  0009e	72 08		 jb	 SHORT $LN133@append
; File c:\users\alist_000\cppmisc\packages\visualcpptools.14.0.24224-pre\lib\native\include\xstddef

; 740  : 	return (_Ptr);

  000a0	48 8b 01	 mov	 rax, QWORD PTR [rcx]
; File c:\users\alist_000\cppmisc\packages\visualcpptools.14.0.24224-pre\lib\native\include\iosfwd

; 565  : 		_Left = _Right;

  000a3	40 88 38	 mov	 BYTE PTR [rax], dil
; File c:\users\alist_000\cppmisc\packages\visualcpptools.14.0.24224-pre\lib\native\include\xstring

; 2231 : 		return (0 < _Newsize);	// return true only if more work to do

  000a6	eb 37		 jmp	 SHORT $LN196@append
$LN133@append:

; 509  : 		return (this->_BUF_SIZE <= _Myres

  000a8	48 8b c3	 mov	 rax, rbx
; File c:\users\alist_000\cppmisc\packages\visualcpptools.14.0.24224-pre\lib\native\include\iosfwd

; 565  : 		_Left = _Right;

  000ab	c6 03 00	 mov	 BYTE PTR [rbx], 0
; File c:\users\alist_000\cppmisc\packages\visualcpptools.14.0.24224-pre\lib\native\include\xstring

; 2231 : 		return (0 < _Newsize);	// return true only if more work to do

  000ae	eb 2f		 jmp	 SHORT $LN196@append
$LN164@append:

; 509  : 		return (this->_BUF_SIZE <= _Myres

  000b0	48 8b cb	 mov	 rcx, rbx
$LN165@append:
; File c:\users\alist_000\cppmisc\packages\visualcpptools.14.0.24224-pre\lib\native\include\iosfwd

; 530  : 		return (_Count == 0 ? _First1

  000b3	48 85 f6	 test	 rsi, rsi
  000b6	74 10		 je	 SHORT $LN180@append
; File c:\users\alist_000\cppmisc\packages\visualcpptools.14.0.24224-pre\lib\native\include\xstring

; 1074 : 			_Traits::copy(this->_Myptr() + this->_Mysize(),

  000b8	48 03 4b 10	 add	 rcx, QWORD PTR [rbx+16]
  000bc	49 8d 14 2e	 lea	 rdx, QWORD PTR [r14+rbp]
; File c:\users\alist_000\cppmisc\packages\visualcpptools.14.0.24224-pre\lib\native\include\iosfwd

; 530  : 		return (_Count == 0 ? _First1

  000c0	4c 8b c6	 mov	 r8, rsi
  000c3	e8 00 00 00 00	 call	 memcpy
$LN180@append:
; File c:\users\alist_000\cppmisc\packages\visualcpptools.14.0.24224-pre\lib\native\include\xstring

; 509  : 		return (this->_BUF_SIZE <= _Myres

  000c8	48 83 7b 18 10	 cmp	 QWORD PTR [rbx+24], 16

; 2216 : 		_Traits::assign(_Dx._Myptr()[_Dx._Mysize = _Newsize], _Elem());

  000cd	48 89 7b 10	 mov	 QWORD PTR [rbx+16], rdi

; 509  : 		return (this->_BUF_SIZE <= _Myres

  000d1	72 05		 jb	 SHORT $LN191@append
; File c:\users\alist_000\cppmisc\packages\visualcpptools.14.0.24224-pre\lib\native\include\xstddef

; 740  : 	return (_Ptr);

  000d3	48 8b 03	 mov	 rax, QWORD PTR [rbx]
; File c:\users\alist_000\cppmisc\packages\visualcpptools.14.0.24224-pre\lib\native\include\xstring

; 509  : 		return (this->_BUF_SIZE <= _Myres

  000d6	eb 03		 jmp	 SHORT $LN192@append
$LN191@append:
  000d8	48 8b c3	 mov	 rax, rbx
$LN192@append:
; File c:\users\alist_000\cppmisc\packages\visualcpptools.14.0.24224-pre\lib\native\include\iosfwd

; 565  : 		_Left = _Right;

  000db	c6 04 38 00	 mov	 BYTE PTR [rax+rdi], 0
$LN196@append:
  000df	48 8b 7c 24 30	 mov	 rdi, QWORD PTR [rsp+48]
; File c:\users\alist_000\cppmisc\packages\visualcpptools.14.0.24224-pre\lib\native\include\xstring

; 1078 : 		return (*this);

  000e4	48 8b c3	 mov	 rax, rbx

; 1079 : 		}

  000e7	48 8b 5c 24 38	 mov	 rbx, QWORD PTR [rsp+56]
  000ec	48 8b 6c 24 40	 mov	 rbp, QWORD PTR [rsp+64]
  000f1	48 8b 74 24 48	 mov	 rsi, QWORD PTR [rsp+72]
  000f6	48 83 c4 20	 add	 rsp, 32			; 00000020H
  000fa	41 5e		 pop	 r14
  000fc	c3		 ret	 0
$LN202@append:

; 2280 : 		_Xout_of_range("invalid string position");

  000fd	48 8d 0d 00 00
	00 00		 lea	 rcx, OFFSET FLAT:??_C@_0BI@CFPLBAOH@invalid?5string?5position?$AA@
  00104	e8 00 00 00 00	 call	 ?_Xout_of_range@std@@YAXPEBD@Z ; std::_Xout_of_range
  00109	cc		 int	 3
$LN204@append:

; 2263 : 		_Xlength_error("string too long");

  0010a	48 8d 0d 00 00
	00 00		 lea	 rcx, OFFSET FLAT:??_C@_0BA@JFNIOLAK@string?5too?5long?$AA@
  00111	e8 00 00 00 00	 call	 ?_Xlength_error@std@@YAXPEBD@Z ; std::_Xlength_error
  00116	cc		 int	 3
$LN205@append:
  00117	48 8d 0d 00 00
	00 00		 lea	 rcx, OFFSET FLAT:??_C@_0BA@JFNIOLAK@string?5too?5long?$AA@
  0011e	e8 00 00 00 00	 call	 ?_Xlength_error@std@@YAXPEBD@Z ; std::_Xlength_error
  00123	cc		 int	 3
$LN199@append:
?append@?$basic_string@DU?$char_traits@D@std@@V?$allocator@D@2@@std@@QEAAAEAV12@AEBV12@_K1@Z ENDP ; std::basic_string<char,std::char_traits<char>,std::allocator<char> >::append
_TEXT	ENDS
; Function compile flags: /Ogtpy
; File c:\users\alist_000\cppmisc\packages\visualcpptools.14.0.24224-pre\lib\native\include\xstring
; File c:\users\alist_000\cppmisc\packages\visualcpptools.14.0.24224-pre\lib\native\include\iosfwd
; File c:\users\alist_000\cppmisc\packages\visualcpptools.14.0.24224-pre\lib\native\include\xstring
; File c:\users\alist_000\cppmisc\packages\visualcpptools.14.0.24224-pre\lib\native\include\xmemory0
; File c:\users\alist_000\cppmisc\packages\visualcpptools.14.0.24224-pre\lib\native\include\xstring
; File c:\users\alist_000\cppmisc\packages\visualcpptools.14.0.24224-pre\lib\native\include\xstddef
; File c:\users\alist_000\cppmisc\packages\visualcpptools.14.0.24224-pre\lib\native\include\iosfwd
; File c:\users\alist_000\cppmisc\packages\visualcpptools.14.0.24224-pre\lib\native\include\xstring
; File c:\users\alist_000\cppmisc\packages\visualcpptools.14.0.24224-pre\lib\native\include\iosfwd
; File c:\users\alist_000\cppmisc\packages\visualcpptools.14.0.24224-pre\lib\native\include\xstring
;	COMDAT ?_Assign_rv@?$basic_string@DU?$char_traits@D@std@@V?$allocator@D@2@@std@@QEAAX$$QEAV12@@Z
_TEXT	SEGMENT
this$ = 48
_Right$ = 56
?_Assign_rv@?$basic_string@DU?$char_traits@D@std@@V?$allocator@D@2@@std@@QEAAX$$QEAV12@@Z PROC ; std::basic_string<char,std::char_traits<char>,std::allocator<char> >::_Assign_rv, COMDAT

; 956  : 		{	// assign by moving _Right

$LN251:
  00000	48 89 5c 24 08	 mov	 QWORD PTR [rsp+8], rbx
  00005	57		 push	 rdi
  00006	48 83 ec 20	 sub	 rsp, 32			; 00000020H

; 957  : 		if (_Right._Myres() < this->_BUF_SIZE)

  0000a	48 83 7a 18 10	 cmp	 QWORD PTR [rdx+24], 16
  0000f	48 8b da	 mov	 rbx, rdx
  00012	48 8b f9	 mov	 rdi, rcx
  00015	73 11		 jae	 SHORT $LN2@Assign_rv

; 958  : 			_Traits::move(this->_Bx()._Buf, _Right._Bx()._Buf,

  00017	4c 8b 42 10	 mov	 r8, QWORD PTR [rdx+16]
  0001b	49 83 c0 01	 add	 r8, 1
; File c:\users\alist_000\cppmisc\packages\visualcpptools.14.0.24224-pre\lib\native\include\iosfwd

; 553  : 		return (_Count == 0 ? _First1

  0001f	74 19		 je	 SHORT $LN3@Assign_rv
  00021	e8 00 00 00 00	 call	 memmove
; File c:\users\alist_000\cppmisc\packages\visualcpptools.14.0.24224-pre\lib\native\include\xstring

; 960  : 		else

  00026	eb 12		 jmp	 SHORT $LN3@Assign_rv
$LN2@Assign_rv:
; File c:\users\alist_000\cppmisc\packages\visualcpptools.14.0.24224-pre\lib\native\include\xmemory0

; 737  : 		::new ((void *)_Ptr) _Objty(_STD forward<_Types>(_Args)...);

  00028	48 85 ff	 test	 rdi, rdi
  0002b	74 06		 je	 SHORT $LN84@Assign_rv
  0002d	48 8b 02	 mov	 rax, QWORD PTR [rdx]
  00030	48 89 01	 mov	 QWORD PTR [rcx], rax
$LN84@Assign_rv:
; File c:\users\alist_000\cppmisc\packages\visualcpptools.14.0.24224-pre\lib\native\include\xstring

; 963  : 			_Right._Bx()._Ptr = pointer();

  00033	48 c7 02 00 00
	00 00		 mov	 QWORD PTR [rdx], 0
$LN3@Assign_rv:

; 964  : 			}
; 965  : 		this->_Mysize() = _Right._Mysize();

  0003a	48 8b 43 10	 mov	 rax, QWORD PTR [rbx+16]
  0003e	48 89 47 10	 mov	 QWORD PTR [rdi+16], rax

; 966  : 		this->_Myres() = _Right._Myres();

  00042	48 8b 43 18	 mov	 rax, QWORD PTR [rbx+24]
  00046	48 89 47 18	 mov	 QWORD PTR [rdi+24], rax

; 2257 : 		this->_Myres() = this->_BUF_SIZE - 1;

  0004a	48 c7 43 18 0f
	00 00 00	 mov	 QWORD PTR [rbx+24], 15

; 509  : 		return (this->_BUF_SIZE <= _Myres

  00052	48 83 7b 18 10	 cmp	 QWORD PTR [rbx+24], 16

; 2216 : 		_Traits::assign(_Dx._Myptr()[_Dx._Mysize = _Newsize], _Elem());

  00057	48 c7 43 10 00
	00 00 00	 mov	 QWORD PTR [rbx+16], 0

; 509  : 		return (this->_BUF_SIZE <= _Myres

  0005f	72 11		 jb	 SHORT $LN242@Assign_rv
; File c:\users\alist_000\cppmisc\packages\visualcpptools.14.0.24224-pre\lib\native\include\xstddef

; 740  : 	return (_Ptr);

  00061	48 8b 03	 mov	 rax, QWORD PTR [rbx]
; File c:\users\alist_000\cppmisc\packages\visualcpptools.14.0.24224-pre\lib\native\include\iosfwd

; 565  : 		_Left = _Right;

  00064	c6 00 00	 mov	 BYTE PTR [rax], 0
; File c:\users\alist_000\cppmisc\packages\visualcpptools.14.0.24224-pre\lib\native\include\xstring

; 968  : 		}

  00067	48 8b 5c 24 30	 mov	 rbx, QWORD PTR [rsp+48]
  0006c	48 83 c4 20	 add	 rsp, 32			; 00000020H
  00070	5f		 pop	 rdi
  00071	c3		 ret	 0
$LN242@Assign_rv:
; File c:\users\alist_000\cppmisc\packages\visualcpptools.14.0.24224-pre\lib\native\include\iosfwd

; 565  : 		_Left = _Right;

  00072	c6 03 00	 mov	 BYTE PTR [rbx], 0
; File c:\users\alist_000\cppmisc\packages\visualcpptools.14.0.24224-pre\lib\native\include\xstring

; 968  : 		}

  00075	48 8b 5c 24 30	 mov	 rbx, QWORD PTR [rsp+48]
  0007a	48 83 c4 20	 add	 rsp, 32			; 00000020H
  0007e	5f		 pop	 rdi
  0007f	c3		 ret	 0
?_Assign_rv@?$basic_string@DU?$char_traits@D@std@@V?$allocator@D@2@@std@@QEAAX$$QEAV12@@Z ENDP ; std::basic_string<char,std::char_traits<char>,std::allocator<char> >::_Assign_rv
_TEXT	ENDS
; Function compile flags: /Ogtpy
; File c:\users\alist_000\cppmisc\packages\visualcpptools.14.0.24224-pre\lib\native\include\xutility
;	COMDAT ?_Get_first@?$_Compressed_pair@U?$_Wrap_alloc@V?$allocator@D@std@@@std@@V?$_String_val@U?$_Simple_types@D@std@@@2@$00@std@@QEBAAEBU?$_Wrap_alloc@V?$allocator@D@std@@@2@XZ
_TEXT	SEGMENT
this$ = 8
?_Get_first@?$_Compressed_pair@U?$_Wrap_alloc@V?$allocator@D@std@@@std@@V?$_String_val@U?$_Simple_types@D@std@@@2@$00@std@@QEBAAEBU?$_Wrap_alloc@V?$allocator@D@std@@@2@XZ PROC ; std::_Compressed_pair<std::_Wrap_alloc<std::allocator<char> >,std::_String_val<std::_Simple_types<char> >,1>::_Get_first, COMDAT

; 305  : 		return (*this);

  00000	48 8b c1	 mov	 rax, rcx

; 306  : 		}

  00003	c3		 ret	 0
?_Get_first@?$_Compressed_pair@U?$_Wrap_alloc@V?$allocator@D@std@@@std@@V?$_String_val@U?$_Simple_types@D@std@@@2@$00@std@@QEBAAEBU?$_Wrap_alloc@V?$allocator@D@std@@@2@XZ ENDP ; std::_Compressed_pair<std::_Wrap_alloc<std::allocator<char> >,std::_String_val<std::_Simple_types<char> >,1>::_Get_first
_TEXT	ENDS
; Function compile flags: /Ogtpy
; File c:\users\alist_000\cppmisc\packages\visualcpptools.14.0.24224-pre\lib\native\include\xutility
;	COMDAT ?_Get_first@?$_Compressed_pair@U?$_Wrap_alloc@V?$allocator@D@std@@@std@@V?$_String_val@U?$_Simple_types@D@std@@@2@$00@std@@QEAAAEAU?$_Wrap_alloc@V?$allocator@D@std@@@2@XZ
_TEXT	SEGMENT
this$ = 8
?_Get_first@?$_Compressed_pair@U?$_Wrap_alloc@V?$allocator@D@std@@@std@@V?$_String_val@U?$_Simple_types@D@std@@@2@$00@std@@QEAAAEAU?$_Wrap_alloc@V?$allocator@D@std@@@2@XZ PROC ; std::_Compressed_pair<std::_Wrap_alloc<std::allocator<char> >,std::_String_val<std::_Simple_types<char> >,1>::_Get_first, COMDAT

; 300  : 		return (*this);

  00000	48 8b c1	 mov	 rax, rcx

; 301  : 		}

  00003	c3		 ret	 0
?_Get_first@?$_Compressed_pair@U?$_Wrap_alloc@V?$allocator@D@std@@@std@@V?$_String_val@U?$_Simple_types@D@std@@@2@$00@std@@QEAAAEAU?$_Wrap_alloc@V?$allocator@D@std@@@2@XZ ENDP ; std::_Compressed_pair<std::_Wrap_alloc<std::allocator<char> >,std::_String_val<std::_Simple_types<char> >,1>::_Get_first
_TEXT	ENDS
; Function compile flags: /Ogtpy
; File c:\users\alist_000\cppmisc\packages\visualcpptools.14.0.24224-pre\lib\native\include\xstring
;	COMDAT ?_Myptr@?$_String_val@U?$_Simple_types@D@std@@@std@@QEBAPEBDXZ
_TEXT	SEGMENT
this$ = 8
?_Myptr@?$_String_val@U?$_Simple_types@D@std@@@std@@QEBAPEBDXZ PROC ; std::_String_val<std::_Simple_types<char> >::_Myptr, COMDAT

; 516  : 		return (this->_BUF_SIZE <= _Myres

  00000	48 83 79 18 10	 cmp	 QWORD PTR [rcx+24], 16
  00005	72 04		 jb	 SHORT $LN3@Myptr
  00007	48 8b 01	 mov	 rax, QWORD PTR [rcx]

; 517  : 			? _Unfancy(_Bx._Ptr)
; 518  : 			: _Bx._Buf);
; 519  : 		}

  0000a	c3		 ret	 0
$LN3@Myptr:

; 516  : 		return (this->_BUF_SIZE <= _Myres

  0000b	48 8b c1	 mov	 rax, rcx

; 517  : 			? _Unfancy(_Bx._Ptr)
; 518  : 			: _Bx._Buf);
; 519  : 		}

  0000e	c3		 ret	 0
?_Myptr@?$_String_val@U?$_Simple_types@D@std@@@std@@QEBAPEBDXZ ENDP ; std::_String_val<std::_Simple_types<char> >::_Myptr
_TEXT	ENDS
; Function compile flags: /Ogtpy
; File c:\users\alist_000\cppmisc\packages\visualcpptools.14.0.24224-pre\lib\native\include\xstring
;	COMDAT ?_Myptr@?$_String_val@U?$_Simple_types@D@std@@@std@@QEAAPEADXZ
_TEXT	SEGMENT
this$ = 8
?_Myptr@?$_String_val@U?$_Simple_types@D@std@@@std@@QEAAPEADXZ PROC ; std::_String_val<std::_Simple_types<char> >::_Myptr, COMDAT

; 509  : 		return (this->_BUF_SIZE <= _Myres

  00000	48 83 79 18 10	 cmp	 QWORD PTR [rcx+24], 16
  00005	72 04		 jb	 SHORT $LN3@Myptr
  00007	48 8b 01	 mov	 rax, QWORD PTR [rcx]

; 510  : 			? _Unfancy(_Bx._Ptr)
; 511  : 			: _Bx._Buf);
; 512  : 		}

  0000a	c3		 ret	 0
$LN3@Myptr:

; 509  : 		return (this->_BUF_SIZE <= _Myres

  0000b	48 8b c1	 mov	 rax, rcx

; 510  : 			? _Unfancy(_Bx._Ptr)
; 511  : 			: _Bx._Buf);
; 512  : 		}

  0000e	c3		 ret	 0
?_Myptr@?$_String_val@U?$_Simple_types@D@std@@@std@@QEAAPEADXZ ENDP ; std::_String_val<std::_Simple_types<char> >::_Myptr
_TEXT	ENDS
; Function compile flags: /Ogtpy
; File c:\users\alist_000\cppmisc\packages\visualcpptools.14.0.24224-pre\lib\native\include\xmemory0
;	COMDAT ?select_on_container_copy_construction@?$allocator_traits@V?$allocator@D@std@@@std@@SA?AV?$allocator@D@2@AEBV32@@Z
_TEXT	SEGMENT
__$ReturnUdt$ = 8
_Al$ = 16
?select_on_container_copy_construction@?$allocator_traits@V?$allocator@D@std@@@std@@SA?AV?$allocator@D@2@AEBV32@@Z PROC ; std::allocator_traits<std::allocator<char> >::select_on_container_copy_construction, COMDAT

; 875  : 		return (_Al);

  00000	48 8b c1	 mov	 rax, rcx

; 876  : 		}

  00003	c3		 ret	 0
?select_on_container_copy_construction@?$allocator_traits@V?$allocator@D@std@@@std@@SA?AV?$allocator@D@2@AEBV32@@Z ENDP ; std::allocator_traits<std::allocator<char> >::select_on_container_copy_construction
_TEXT	ENDS
; Function compile flags: /Ogtpy
; File c:\users\alist_000\cppmisc\packages\visualcpptools.14.0.24224-pre\lib\native\include\xmemory0
;	COMDAT ?deallocate@?$_Wrap_alloc@V?$allocator@D@std@@@std@@QEAAXPEAD_K@Z
_TEXT	SEGMENT
this$ = 48
_Ptr$ = 56
_Count$ = 64
?deallocate@?$_Wrap_alloc@V?$allocator@D@std@@@std@@QEAAXPEAD_K@Z PROC ; std::_Wrap_alloc<std::allocator<char> >::deallocate, COMDAT

; 986  : 		{	// deallocate object at _Ptr, ignore size

$LN21:
  00000	48 83 ec 28	 sub	 rsp, 40			; 00000028H

; 96   : 	if (_BIG_ALLOCATION_THRESHOLD <= _User_size)

  00004	49 81 f8 00 10
	00 00		 cmp	 r8, 4096		; 00001000H
  0000b	72 20		 jb	 SHORT $LN7@deallocate

; 97   : 		{	// deallocate large block
; 98   : 		const uintptr_t _Ptr_user = reinterpret_cast<uintptr_t>(_Ptr);
; 99   : 		_SCL_SECURE_ALWAYS_VALIDATE(

  0000d	f6 c2 1f	 test	 dl, 31
  00010	75 27		 jne	 SHORT $LN16@deallocate

; 100  : 			(_Ptr_user & (_BIG_ALLOCATION_ALIGNMENT - 1)) == 0);
; 101  : 		const uintptr_t _Ptr_ptr = _Ptr_user - sizeof(void *);
; 102  : 		const uintptr_t _Ptr_container =
; 103  : 			*reinterpret_cast<uintptr_t *>(_Ptr_ptr);

  00012	48 8b 42 f8	 mov	 rax, QWORD PTR [rdx-8]

; 104  : 
; 105  :  #ifdef _DEBUG
; 106  : 		// If the following asserts, it likely means that we are performing
; 107  : 		// an aligned delete on memory coming from an unaligned allocation.
; 108  : 		_SCL_SECURE_ALWAYS_VALIDATE(
; 109  : 			reinterpret_cast<uintptr_t *>(_Ptr_ptr)[-1] ==
; 110  : 				_BIG_ALLOCATION_SENTINEL);
; 111  :  #endif /* _DEBUG */
; 112  : 
; 113  : 		// Extra paranoia on aligned allocation/deallocation
; 114  : 		_SCL_SECURE_ALWAYS_VALIDATE(_Ptr_container < _Ptr_user);

  00016	48 3b c2	 cmp	 rax, rdx
  00019	73 24		 jae	 SHORT $LN18@deallocate

; 115  : 
; 116  :  #ifdef _DEBUG
; 117  : 		_SCL_SECURE_ALWAYS_VALIDATE(2 * sizeof(void *)
; 118  : 			<= _Ptr_user - _Ptr_container);
; 119  : 
; 120  :  #else /* _DEBUG */
; 121  : 		_SCL_SECURE_ALWAYS_VALIDATE(sizeof(void *)

  0001b	48 2b d0	 sub	 rdx, rax
  0001e	48 83 fa 08	 cmp	 rdx, 8
  00022	72 21		 jb	 SHORT $LN19@deallocate

; 122  : 			<= _Ptr_user - _Ptr_container);
; 123  :  #endif /* _DEBUG */
; 124  : 
; 125  : 		_SCL_SECURE_ALWAYS_VALIDATE(_Ptr_user - _Ptr_container

  00024	48 83 fa 27	 cmp	 rdx, 39			; 00000027H
  00028	77 21		 ja	 SHORT $LN20@deallocate

; 126  : 			<= _NON_USER_SIZE);
; 127  : 
; 128  : 		_Ptr = reinterpret_cast<void *>(_Ptr_container);

  0002a	48 8b d0	 mov	 rdx, rax
$LN7@deallocate:

; 129  : 		}
; 130  :  #endif /* defined(_M_IX86) || defined(_M_X64) */
; 131  : 
; 132  : 	::operator delete(_Ptr);

  0002d	48 8b ca	 mov	 rcx, rdx

; 987  : 		_Mybase::deallocate(_Ptr, _Count);
; 988  : 		}

  00030	48 83 c4 28	 add	 rsp, 40			; 00000028H

; 132  : 	::operator delete(_Ptr);

  00034	e9 00 00 00 00	 jmp	 ??3@YAXPEAX@Z		; operator delete
$LN16@deallocate:

; 97   : 		{	// deallocate large block
; 98   : 		const uintptr_t _Ptr_user = reinterpret_cast<uintptr_t>(_Ptr);
; 99   : 		_SCL_SECURE_ALWAYS_VALIDATE(

  00039	e8 00 00 00 00	 call	 _invalid_parameter_noinfo_noreturn
  0003e	cc		 int	 3
$LN18@deallocate:

; 104  : 
; 105  :  #ifdef _DEBUG
; 106  : 		// If the following asserts, it likely means that we are performing
; 107  : 		// an aligned delete on memory coming from an unaligned allocation.
; 108  : 		_SCL_SECURE_ALWAYS_VALIDATE(
; 109  : 			reinterpret_cast<uintptr_t *>(_Ptr_ptr)[-1] ==
; 110  : 				_BIG_ALLOCATION_SENTINEL);
; 111  :  #endif /* _DEBUG */
; 112  : 
; 113  : 		// Extra paranoia on aligned allocation/deallocation
; 114  : 		_SCL_SECURE_ALWAYS_VALIDATE(_Ptr_container < _Ptr_user);

  0003f	e8 00 00 00 00	 call	 _invalid_parameter_noinfo_noreturn
  00044	cc		 int	 3
$LN19@deallocate:

; 115  : 
; 116  :  #ifdef _DEBUG
; 117  : 		_SCL_SECURE_ALWAYS_VALIDATE(2 * sizeof(void *)
; 118  : 			<= _Ptr_user - _Ptr_container);
; 119  : 
; 120  :  #else /* _DEBUG */
; 121  : 		_SCL_SECURE_ALWAYS_VALIDATE(sizeof(void *)

  00045	e8 00 00 00 00	 call	 _invalid_parameter_noinfo_noreturn
  0004a	cc		 int	 3
$LN20@deallocate:

; 122  : 			<= _Ptr_user - _Ptr_container);
; 123  :  #endif /* _DEBUG */
; 124  : 
; 125  : 		_SCL_SECURE_ALWAYS_VALIDATE(_Ptr_user - _Ptr_container

  0004b	e8 00 00 00 00	 call	 _invalid_parameter_noinfo_noreturn
  00050	cc		 int	 3
$LN15@deallocate:
?deallocate@?$_Wrap_alloc@V?$allocator@D@std@@@std@@QEAAXPEAD_K@Z ENDP ; std::_Wrap_alloc<std::allocator<char> >::deallocate
_TEXT	ENDS
; Function compile flags: /Ogtpy
; File c:\users\alist_000\cppmisc\packages\visualcpptools.14.0.24224-pre\lib\native\include\xstring
;	COMDAT ?_Myres@?$_String_alloc@U?$_String_base_types@DV?$allocator@D@std@@@std@@@std@@QEAAAEA_KXZ
_TEXT	SEGMENT
this$ = 8
?_Myres@?$_String_alloc@U?$_String_base_types@DV?$allocator@D@std@@@std@@@std@@QEAAAEA_KXZ PROC ; std::_String_alloc<std::_String_base_types<char,std::allocator<char> > >::_Myres, COMDAT

; 729  : 		return (_Get_data()._Myres);

  00000	48 8d 41 18	 lea	 rax, QWORD PTR [rcx+24]

; 730  : 		}

  00004	c3		 ret	 0
?_Myres@?$_String_alloc@U?$_String_base_types@DV?$allocator@D@std@@@std@@@std@@QEAAAEA_KXZ ENDP ; std::_String_alloc<std::_String_base_types<char,std::allocator<char> > >::_Myres
_TEXT	ENDS
; Function compile flags: /Ogtpy
; File c:\users\alist_000\cppmisc\packages\visualcpptools.14.0.24224-pre\lib\native\include\xstring
;	COMDAT ?_Mysize@?$_String_alloc@U?$_String_base_types@DV?$allocator@D@std@@@std@@@std@@QEAAAEA_KXZ
_TEXT	SEGMENT
this$ = 8
?_Mysize@?$_String_alloc@U?$_String_base_types@DV?$allocator@D@std@@@std@@@std@@QEAAAEA_KXZ PROC ; std::_String_alloc<std::_String_base_types<char,std::allocator<char> > >::_Mysize, COMDAT

; 719  : 		return (_Get_data()._Mysize);

  00000	48 8d 41 10	 lea	 rax, QWORD PTR [rcx+16]

; 720  : 		}

  00004	c3		 ret	 0
?_Mysize@?$_String_alloc@U?$_String_base_types@DV?$allocator@D@std@@@std@@@std@@QEAAAEA_KXZ ENDP ; std::_String_alloc<std::_String_base_types<char,std::allocator<char> > >::_Mysize
_TEXT	ENDS
; Function compile flags: /Ogtpy
; File c:\users\alist_000\cppmisc\packages\visualcpptools.14.0.24224-pre\lib\native\include\xstring
;	COMDAT ?_Bx@?$_String_alloc@U?$_String_base_types@DV?$allocator@D@std@@@std@@@std@@QEAAAEAT_Bxty@?$_String_val@U?$_Simple_types@D@std@@@2@XZ
_TEXT	SEGMENT
this$ = 8
?_Bx@?$_String_alloc@U?$_String_base_types@DV?$allocator@D@std@@@std@@@std@@QEAAAEAT_Bxty@?$_String_val@U?$_Simple_types@D@std@@@2@XZ PROC ; std::_String_alloc<std::_String_base_types<char,std::allocator<char> > >::_Bx, COMDAT

; 709  : 		return (_Get_data()._Bx);

  00000	48 8b c1	 mov	 rax, rcx

; 710  : 		}

  00003	c3		 ret	 0
?_Bx@?$_String_alloc@U?$_String_base_types@DV?$allocator@D@std@@@std@@@std@@QEAAAEAT_Bxty@?$_String_val@U?$_Simple_types@D@std@@@2@XZ ENDP ; std::_String_alloc<std::_String_base_types<char,std::allocator<char> > >::_Bx
_TEXT	ENDS
; Function compile flags: /Ogtpy
; File c:\users\alist_000\cppmisc\packages\visualcpptools.14.0.24224-pre\lib\native\include\xstring
;	COMDAT ?_Get_data@?$_String_alloc@U?$_String_base_types@DV?$allocator@D@std@@@std@@@std@@QEBAAEBV?$_String_val@U?$_Simple_types@D@std@@@2@XZ
_TEXT	SEGMENT
this$ = 8
?_Get_data@?$_String_alloc@U?$_String_base_types@DV?$allocator@D@std@@@std@@@std@@QEBAAEBV?$_String_val@U?$_Simple_types@D@std@@@2@XZ PROC ; std::_String_alloc<std::_String_base_types<char,std::allocator<char> > >::_Get_data, COMDAT

; 702  : 		return (_Mypair._Get_second());

  00000	48 8b c1	 mov	 rax, rcx

; 703  : 		}

  00003	c3		 ret	 0
?_Get_data@?$_String_alloc@U?$_String_base_types@DV?$allocator@D@std@@@std@@@std@@QEBAAEBV?$_String_val@U?$_Simple_types@D@std@@@2@XZ ENDP ; std::_String_alloc<std::_String_base_types<char,std::allocator<char> > >::_Get_data
_TEXT	ENDS
; Function compile flags: /Ogtpy
; File c:\users\alist_000\cppmisc\packages\visualcpptools.14.0.24224-pre\lib\native\include\xstring
;	COMDAT ?_Get_data@?$_String_alloc@U?$_String_base_types@DV?$allocator@D@std@@@std@@@std@@QEAAAEAV?$_String_val@U?$_Simple_types@D@std@@@2@XZ
_TEXT	SEGMENT
this$ = 8
?_Get_data@?$_String_alloc@U?$_String_base_types@DV?$allocator@D@std@@@std@@@std@@QEAAAEAV?$_String_val@U?$_Simple_types@D@std@@@2@XZ PROC ; std::_String_alloc<std::_String_base_types<char,std::allocator<char> > >::_Get_data, COMDAT

; 697  : 		return (_Mypair._Get_second());

  00000	48 8b c1	 mov	 rax, rcx

; 698  : 		}

  00003	c3		 ret	 0
?_Get_data@?$_String_alloc@U?$_String_base_types@DV?$allocator@D@std@@@std@@@std@@QEAAAEAV?$_String_val@U?$_Simple_types@D@std@@@2@XZ ENDP ; std::_String_alloc<std::_String_base_types<char,std::allocator<char> > >::_Get_data
_TEXT	ENDS
; Function compile flags: /Ogtpy
; File c:\users\alist_000\cppmisc\packages\visualcpptools.14.0.24224-pre\lib\native\include\xstring
;	COMDAT ?_Check_offset@?$basic_string@DU?$char_traits@D@std@@V?$allocator@D@2@@std@@QEBAX_K@Z
_TEXT	SEGMENT
this$ = 48
_Off$ = 56
?_Check_offset@?$basic_string@DU?$char_traits@D@std@@V?$allocator@D@2@@std@@QEBAX_K@Z PROC ; std::basic_string<char,std::char_traits<char>,std::allocator<char> >::_Check_offset, COMDAT

; 2267 : 		{	// checks whether _Off is in the bounds of [0, this->size()]

$LN19:
  00000	48 83 ec 28	 sub	 rsp, 40			; 00000028H

; 2268 : 		if (this->_Mysize() < _Off)

  00004	48 39 51 10	 cmp	 QWORD PTR [rcx+16], rdx
  00008	72 05		 jb	 SHORT $LN17@Check_offs

; 2269 : 			_Xran();
; 2270 : 		}

  0000a	48 83 c4 28	 add	 rsp, 40			; 00000028H
  0000e	c3		 ret	 0
$LN17@Check_offs:

; 2280 : 		_Xout_of_range("invalid string position");

  0000f	48 8d 0d 00 00
	00 00		 lea	 rcx, OFFSET FLAT:??_C@_0BI@CFPLBAOH@invalid?5string?5position?$AA@
  00016	e8 00 00 00 00	 call	 ?_Xout_of_range@std@@YAXPEBD@Z ; std::_Xout_of_range
  0001b	cc		 int	 3
$LN16@Check_offs:
?_Check_offset@?$basic_string@DU?$char_traits@D@std@@V?$allocator@D@2@@std@@QEBAX_K@Z ENDP ; std::basic_string<char,std::char_traits<char>,std::allocator<char> >::_Check_offset
_TEXT	ENDS
; Function compile flags: /Ogtpy
; File c:\users\alist_000\cppmisc\packages\visualcpptools.14.0.24224-pre\lib\native\include\xstring
;	COMDAT ?_Xlen@?$basic_string@DU?$char_traits@D@std@@V?$allocator@D@2@@std@@QEBAXXZ
_TEXT	SEGMENT
this$ = 48
?_Xlen@?$basic_string@DU?$char_traits@D@std@@V?$allocator@D@2@@std@@QEBAXXZ PROC ; std::basic_string<char,std::char_traits<char>,std::allocator<char> >::_Xlen, COMDAT

; 2262 : 		{	// report a length_error

$LN4:
  00000	48 83 ec 28	 sub	 rsp, 40			; 00000028H

; 2263 : 		_Xlength_error("string too long");

  00004	48 8d 0d 00 00
	00 00		 lea	 rcx, OFFSET FLAT:??_C@_0BA@JFNIOLAK@string?5too?5long?$AA@
  0000b	e8 00 00 00 00	 call	 ?_Xlength_error@std@@YAXPEBD@Z ; std::_Xlength_error
  00010	cc		 int	 3
$LN3@Xlen:
?_Xlen@?$basic_string@DU?$char_traits@D@std@@V?$allocator@D@2@@std@@QEBAXXZ ENDP ; std::basic_string<char,std::char_traits<char>,std::allocator<char> >::_Xlen
_TEXT	ENDS
; Function compile flags: /Ogtpy
; File c:\users\alist_000\cppmisc\packages\visualcpptools.14.0.24224-pre\lib\native\include\xstring
; File c:\users\alist_000\cppmisc\packages\visualcpptools.14.0.24224-pre\lib\native\include\xstddef
; File c:\users\alist_000\cppmisc\packages\visualcpptools.14.0.24224-pre\lib\native\include\xstring
; File c:\users\alist_000\cppmisc\packages\visualcpptools.14.0.24224-pre\lib\native\include\xstddef
; File c:\users\alist_000\cppmisc\packages\visualcpptools.14.0.24224-pre\lib\native\include\xstring
;	COMDAT ?_Inside@?$basic_string@DU?$char_traits@D@std@@V?$allocator@D@2@@std@@QEAA_NPEBD@Z
_TEXT	SEGMENT
this$ = 8
_Ptr$ = 16
?_Inside@?$basic_string@DU?$char_traits@D@std@@V?$allocator@D@2@@std@@QEAA_NPEBD@Z PROC ; std::basic_string<char,std::char_traits<char>,std::allocator<char> >::_Inside, COMDAT

; 2236 : 		if (_Ptr == nullptr_t{} || _Ptr < this->_Myptr()
; 2237 : 			|| this->_Myptr() + this->_Mysize() <= _Ptr)

  00000	48 85 d2	 test	 rdx, rdx
  00003	74 35		 je	 SHORT $LN4@Inside

; 509  : 		return (this->_BUF_SIZE <= _Myres

  00005	48 8b 41 18	 mov	 rax, QWORD PTR [rcx+24]
  00009	48 83 f8 10	 cmp	 rax, 16
  0000d	72 05		 jb	 SHORT $LN16@Inside
; File c:\users\alist_000\cppmisc\packages\visualcpptools.14.0.24224-pre\lib\native\include\xstddef

; 740  : 	return (_Ptr);

  0000f	4c 8b 01	 mov	 r8, QWORD PTR [rcx]
; File c:\users\alist_000\cppmisc\packages\visualcpptools.14.0.24224-pre\lib\native\include\xstring

; 509  : 		return (this->_BUF_SIZE <= _Myres

  00012	eb 03		 jmp	 SHORT $LN17@Inside
$LN16@Inside:
  00014	4c 8b c1	 mov	 r8, rcx
$LN17@Inside:

; 2236 : 		if (_Ptr == nullptr_t{} || _Ptr < this->_Myptr()
; 2237 : 			|| this->_Myptr() + this->_Mysize() <= _Ptr)

  00017	49 3b d0	 cmp	 rdx, r8
  0001a	72 1e		 jb	 SHORT $LN4@Inside

; 509  : 		return (this->_BUF_SIZE <= _Myres

  0001c	48 83 f8 10	 cmp	 rax, 16
  00020	72 05		 jb	 SHORT $LN30@Inside
; File c:\users\alist_000\cppmisc\packages\visualcpptools.14.0.24224-pre\lib\native\include\xstddef

; 740  : 	return (_Ptr);

  00022	4c 8b 01	 mov	 r8, QWORD PTR [rcx]
; File c:\users\alist_000\cppmisc\packages\visualcpptools.14.0.24224-pre\lib\native\include\xstring

; 509  : 		return (this->_BUF_SIZE <= _Myres

  00025	eb 03		 jmp	 SHORT $LN31@Inside
$LN30@Inside:
  00027	4c 8b c1	 mov	 r8, rcx
$LN31@Inside:

; 2236 : 		if (_Ptr == nullptr_t{} || _Ptr < this->_Myptr()
; 2237 : 			|| this->_Myptr() + this->_Mysize() <= _Ptr)

  0002a	48 8b 41 10	 mov	 rax, QWORD PTR [rcx+16]
  0002e	49 8d 0c 00	 lea	 rcx, QWORD PTR [r8+rax]
  00032	48 3b ca	 cmp	 rcx, rdx
  00035	76 03		 jbe	 SHORT $LN4@Inside

; 2239 : 		else
; 2240 : 			return (true);

  00037	b0 01		 mov	 al, 1

; 2241 : 		}

  00039	c3		 ret	 0
$LN4@Inside:

; 2238 : 			return (false);	// don't ask

  0003a	32 c0		 xor	 al, al

; 2241 : 		}

  0003c	c3		 ret	 0
?_Inside@?$basic_string@DU?$char_traits@D@std@@V?$allocator@D@2@@std@@QEAA_NPEBD@Z ENDP ; std::basic_string<char,std::char_traits<char>,std::allocator<char> >::_Inside
_TEXT	ENDS
; Function compile flags: /Ogtpy
; File c:\users\alist_000\cppmisc\packages\visualcpptools.14.0.24224-pre\lib\native\include\xstring
; File c:\users\alist_000\cppmisc\packages\visualcpptools.14.0.24224-pre\lib\native\include\xstddef
; File c:\users\alist_000\cppmisc\packages\visualcpptools.14.0.24224-pre\lib\native\include\iosfwd
; File c:\users\alist_000\cppmisc\packages\visualcpptools.14.0.24224-pre\lib\native\include\xstring
;	COMDAT ?_Grow@?$basic_string@DU?$char_traits@D@std@@V?$allocator@D@2@@std@@QEAA_N_K_N@Z
_TEXT	SEGMENT
this$ = 48
_Newsize$ = 56
_Trim$ = 64
?_Grow@?$basic_string@DU?$char_traits@D@std@@V?$allocator@D@2@@std@@QEAA_N_K_N@Z PROC ; std::basic_string<char,std::char_traits<char>,std::allocator<char> >::_Grow, COMDAT

; 2221 : 		{	// ensure buffer is big enough, trim to size if _Trim is true

$LN91:
  00000	40 53		 push	 rbx
  00002	48 83 ec 20	 sub	 rsp, 32			; 00000020H
  00006	48 8b da	 mov	 rbx, rdx

; 2222 : 		if (max_size() < _Newsize)

  00009	48 83 fa fe	 cmp	 rdx, -2
  0000d	77 66		 ja	 SHORT $LN89@Grow

; 2223 : 			_Xlen();	// result too long
; 2224 : 		if (this->_Myres() < _Newsize)

  0000f	48 39 51 18	 cmp	 QWORD PTR [rcx+24], rdx
  00013	73 15		 jae	 SHORT $LN3@Grow

; 2225 : 			_Copy(_Newsize, this->_Mysize());	// reallocate to grow

  00015	4c 8b 41 10	 mov	 r8, QWORD PTR [rcx+16]
  00019	e8 00 00 00 00	 call	 ?_Copy@?$basic_string@DU?$char_traits@D@std@@V?$allocator@D@2@@std@@QEAAX_K0@Z ; std::basic_string<char,std::char_traits<char>,std::allocator<char> >::_Copy
  0001e	48 85 db	 test	 rbx, rbx
  00021	0f 95 c0	 setne	 al

; 2232 : 		}

  00024	48 83 c4 20	 add	 rsp, 32			; 00000020H
  00028	5b		 pop	 rbx
  00029	c3		 ret	 0
$LN3@Grow:

; 2226 : 		else if (_Trim && _Newsize < this->_BUF_SIZE)

  0002a	45 84 c0	 test	 r8b, r8b
  0002d	74 24		 je	 SHORT $LN5@Grow
  0002f	48 83 fb 10	 cmp	 rbx, 16
  00033	73 1e		 jae	 SHORT $LN5@Grow

; 2227 : 			_Tidy(true,	// copy and deallocate if trimming to small string

  00035	4c 8b 41 10	 mov	 r8, QWORD PTR [rcx+16]
  00039	b2 01		 mov	 dl, 1
  0003b	49 3b d8	 cmp	 rbx, r8
  0003e	4c 0f 42 c3	 cmovb	 r8, rbx
  00042	e8 00 00 00 00	 call	 ?_Tidy@?$basic_string@DU?$char_traits@D@std@@V?$allocator@D@2@@std@@QEAAX_N_K@Z ; std::basic_string<char,std::char_traits<char>,std::allocator<char> >::_Tidy
  00047	48 85 db	 test	 rbx, rbx
  0004a	0f 95 c0	 setne	 al

; 2232 : 		}

  0004d	48 83 c4 20	 add	 rsp, 32			; 00000020H
  00051	5b		 pop	 rbx
  00052	c3		 ret	 0
$LN5@Grow:

; 2228 : 				_Newsize < this->_Mysize() ? _Newsize : this->_Mysize());
; 2229 : 		else if (_Newsize == 0)

  00053	48 85 db	 test	 rbx, rbx
  00056	75 14		 jne	 SHORT $LN88@Grow

; 509  : 		return (this->_BUF_SIZE <= _Myres

  00058	48 83 79 18 10	 cmp	 QWORD PTR [rcx+24], 16

; 2216 : 		_Traits::assign(_Dx._Myptr()[_Dx._Mysize = _Newsize], _Elem());

  0005d	48 89 59 10	 mov	 QWORD PTR [rcx+16], rbx

; 509  : 		return (this->_BUF_SIZE <= _Myres

  00061	72 03		 jb	 SHORT $LN80@Grow
; File c:\users\alist_000\cppmisc\packages\visualcpptools.14.0.24224-pre\lib\native\include\xstddef

; 740  : 	return (_Ptr);

  00063	48 8b 09	 mov	 rcx, QWORD PTR [rcx]
$LN80@Grow:
; File c:\users\alist_000\cppmisc\packages\visualcpptools.14.0.24224-pre\lib\native\include\iosfwd

; 565  : 		_Left = _Right;

  00066	c6 01 00	 mov	 BYTE PTR [rcx], 0
  00069	48 85 db	 test	 rbx, rbx
$LN88@Grow:
  0006c	0f 95 c0	 setne	 al
; File c:\users\alist_000\cppmisc\packages\visualcpptools.14.0.24224-pre\lib\native\include\xstring

; 2232 : 		}

  0006f	48 83 c4 20	 add	 rsp, 32			; 00000020H
  00073	5b		 pop	 rbx
  00074	c3		 ret	 0
$LN89@Grow:

; 2263 : 		_Xlength_error("string too long");

  00075	48 8d 0d 00 00
	00 00		 lea	 rcx, OFFSET FLAT:??_C@_0BA@JFNIOLAK@string?5too?5long?$AA@
  0007c	e8 00 00 00 00	 call	 ?_Xlength_error@std@@YAXPEBD@Z ; std::_Xlength_error
  00081	cc		 int	 3
$LN87@Grow:
?_Grow@?$basic_string@DU?$char_traits@D@std@@V?$allocator@D@2@@std@@QEAA_N_K_N@Z ENDP ; std::basic_string<char,std::char_traits<char>,std::allocator<char> >::_Grow
_TEXT	ENDS
; Function compile flags: /Ogtpy
; File c:\users\alist_000\cppmisc\packages\visualcpptools.14.0.24224-pre\lib\native\include\xstring
; File c:\users\alist_000\cppmisc\packages\visualcpptools.14.0.24224-pre\lib\native\include\xstddef
; File c:\users\alist_000\cppmisc\packages\visualcpptools.14.0.24224-pre\lib\native\include\iosfwd
; File c:\users\alist_000\cppmisc\packages\visualcpptools.14.0.24224-pre\lib\native\include\xstring
; File c:\users\alist_000\cppmisc\packages\visualcpptools.14.0.24224-pre\lib\native\include\iosfwd
; File c:\users\alist_000\cppmisc\packages\visualcpptools.14.0.24224-pre\lib\native\include\xstring
;	COMDAT ?_Eos@?$basic_string@DU?$char_traits@D@std@@V?$allocator@D@2@@std@@QEAAX_K@Z
_TEXT	SEGMENT
this$ = 8
_Newsize$ = 16
?_Eos@?$basic_string@DU?$char_traits@D@std@@V?$allocator@D@2@@std@@QEAAX_K@Z PROC ; std::basic_string<char,std::char_traits<char>,std::allocator<char> >::_Eos, COMDAT

; 509  : 		return (this->_BUF_SIZE <= _Myres

  00000	48 83 79 18 10	 cmp	 QWORD PTR [rcx+24], 16

; 2215 : 		auto& _Dx = this->_Get_data();
; 2216 : 		_Traits::assign(_Dx._Myptr()[_Dx._Mysize = _Newsize], _Elem());

  00005	48 89 51 10	 mov	 QWORD PTR [rcx+16], rdx

; 509  : 		return (this->_BUF_SIZE <= _Myres

  00009	72 08		 jb	 SHORT $LN11@Eos
; File c:\users\alist_000\cppmisc\packages\visualcpptools.14.0.24224-pre\lib\native\include\xstddef

; 740  : 	return (_Ptr);

  0000b	48 8b 01	 mov	 rax, QWORD PTR [rcx]
; File c:\users\alist_000\cppmisc\packages\visualcpptools.14.0.24224-pre\lib\native\include\iosfwd

; 565  : 		_Left = _Right;

  0000e	c6 04 10 00	 mov	 BYTE PTR [rax+rdx], 0
; File c:\users\alist_000\cppmisc\packages\visualcpptools.14.0.24224-pre\lib\native\include\xstring

; 2217 : 		}

  00012	c3		 ret	 0
$LN11@Eos:
; File c:\users\alist_000\cppmisc\packages\visualcpptools.14.0.24224-pre\lib\native\include\iosfwd

; 565  : 		_Left = _Right;

  00013	c6 04 11 00	 mov	 BYTE PTR [rcx+rdx], 0
; File c:\users\alist_000\cppmisc\packages\visualcpptools.14.0.24224-pre\lib\native\include\xstring

; 2217 : 		}

  00017	c3		 ret	 0
?_Eos@?$basic_string@DU?$char_traits@D@std@@V?$allocator@D@2@@std@@QEAAX_K@Z ENDP ; std::basic_string<char,std::char_traits<char>,std::allocator<char> >::_Eos
_TEXT	ENDS
; Function compile flags: /Ogtpy
; File c:\users\alist_000\cppmisc\packages\visualcpptools.14.0.24224-pre\lib\native\include\xstring
;	COMDAT ?_Clamp_suffix_size@?$basic_string@DU?$char_traits@D@std@@V?$allocator@D@2@@std@@QEBA_K_K0@Z
_TEXT	SEGMENT
this$ = 8
_Off$ = 16
_Size$ = 24
?_Clamp_suffix_size@?$basic_string@DU?$char_traits@D@std@@V?$allocator@D@2@@std@@QEBA_K_K0@Z PROC ; std::basic_string<char,std::char_traits<char>,std::allocator<char> >::_Clamp_suffix_size, COMDAT

; 2109 : 		const size_type _Max_effective_size = this->_Mysize() - _Off;

  00000	48 8b 41 10	 mov	 rax, QWORD PTR [rcx+16]
  00004	48 2b c2	 sub	 rax, rdx

; 2110 : 		if (_Size <= _Max_effective_size)

  00007	4c 3b c0	 cmp	 r8, rax
  0000a	49 0f 46 c0	 cmovbe	 rax, r8

; 2111 : 			return (_Size);
; 2112 : 		else
; 2113 : 			return (_Max_effective_size);
; 2114 : 		}

  0000e	c3		 ret	 0
?_Clamp_suffix_size@?$basic_string@DU?$char_traits@D@std@@V?$allocator@D@2@@std@@QEBA_K_K0@Z ENDP ; std::basic_string<char,std::char_traits<char>,std::allocator<char> >::_Clamp_suffix_size
_TEXT	ENDS
; Function compile flags: /Ogtpy
; File c:\users\alist_000\cppmisc\packages\visualcpptools.14.0.24224-pre\lib\native\include\xstring
; File c:\users\alist_000\cppmisc\packages\visualcpptools.14.0.24224-pre\lib\native\include\xstddef
; File c:\users\alist_000\cppmisc\packages\visualcpptools.14.0.24224-pre\lib\native\include\iosfwd
; File c:\users\alist_000\cppmisc\packages\visualcpptools.14.0.24224-pre\lib\native\include\xstring
; File c:\users\alist_000\cppmisc\packages\visualcpptools.14.0.24224-pre\lib\native\include\iosfwd
; File c:\users\alist_000\cppmisc\packages\visualcpptools.14.0.24224-pre\lib\native\include\xstring
; File c:\users\alist_000\cppmisc\packages\visualcpptools.14.0.24224-pre\lib\native\include\xstddef
; File c:\users\alist_000\cppmisc\packages\visualcpptools.14.0.24224-pre\lib\native\include\xstring
; File c:\users\alist_000\cppmisc\packages\visualcpptools.14.0.24224-pre\lib\native\include\iosfwd
; File c:\users\alist_000\cppmisc\packages\visualcpptools.14.0.24224-pre\lib\native\include\xstring
; File c:\users\alist_000\cppmisc\packages\visualcpptools.14.0.24224-pre\lib\native\include\iosfwd
; File c:\users\alist_000\cppmisc\packages\visualcpptools.14.0.24224-pre\lib\native\include\xstring
; File c:\users\alist_000\cppmisc\packages\visualcpptools.14.0.24224-pre\lib\native\include\xstddef
; File c:\users\alist_000\cppmisc\packages\visualcpptools.14.0.24224-pre\lib\native\include\iosfwd
; File c:\users\alist_000\cppmisc\packages\visualcpptools.14.0.24224-pre\lib\native\include\xstring
; File c:\users\alist_000\cppmisc\packages\visualcpptools.14.0.24224-pre\lib\native\include\iosfwd
; File c:\users\alist_000\cppmisc\packages\visualcpptools.14.0.24224-pre\lib\native\include\xstring
;	COMDAT ?erase@?$basic_string@DU?$char_traits@D@std@@V?$allocator@D@2@@std@@QEAAAEAV12@_K0@Z
_TEXT	SEGMENT
this$ = 48
_Off$ = 56
_Count$ = 64
?erase@?$basic_string@DU?$char_traits@D@std@@V?$allocator@D@2@@std@@QEAAAEAV12@_K0@Z PROC ; std::basic_string<char,std::char_traits<char>,std::allocator<char> >::erase, COMDAT

; 1342 : 		{	// erase elements [_Off, _Off + _Count)

$LN95:
  00000	48 89 5c 24 08	 mov	 QWORD PTR [rsp+8], rbx
  00005	57		 push	 rdi
  00006	48 83 ec 20	 sub	 rsp, 32			; 00000020H

; 2268 : 		if (this->_Mysize() < _Off)

  0000a	48 8b 79 10	 mov	 rdi, QWORD PTR [rcx+16]

; 1342 : 		{	// erase elements [_Off, _Off + _Count)

  0000e	48 8b d9	 mov	 rbx, rcx

; 2268 : 		if (this->_Mysize() < _Off)

  00011	48 3b fa	 cmp	 rdi, rdx
  00014	0f 82 a1 00 00
	00		 jb	 $LN93@erase

; 1343 : 		_Check_offset(_Off);
; 1344 : 		if (this->_Mysize() - _Off <= _Count)

  0001a	48 8b c7	 mov	 rax, rdi
  0001d	48 2b c2	 sub	 rax, rdx
  00020	49 3b c0	 cmp	 rax, r8
  00023	77 32		 ja	 SHORT $LN2@erase

; 2216 : 		_Traits::assign(_Dx._Myptr()[_Dx._Mysize = _Newsize], _Elem());

  00025	48 89 51 10	 mov	 QWORD PTR [rcx+16], rdx

; 509  : 		return (this->_BUF_SIZE <= _Myres

  00029	48 83 79 18 10	 cmp	 QWORD PTR [rcx+24], 16
  0002e	72 15		 jb	 SHORT $LN41@erase
; File c:\users\alist_000\cppmisc\packages\visualcpptools.14.0.24224-pre\lib\native\include\xstddef

; 740  : 	return (_Ptr);

  00030	48 8b 01	 mov	 rax, QWORD PTR [rcx]
; File c:\users\alist_000\cppmisc\packages\visualcpptools.14.0.24224-pre\lib\native\include\iosfwd

; 565  : 		_Left = _Right;

  00033	c6 04 10 00	 mov	 BYTE PTR [rax+rdx], 0
; File c:\users\alist_000\cppmisc\packages\visualcpptools.14.0.24224-pre\lib\native\include\xstring

; 1353 : 		return (*this);

  00037	48 8b c1	 mov	 rax, rcx

; 1354 : 		}

  0003a	48 8b 5c 24 30	 mov	 rbx, QWORD PTR [rsp+48]
  0003f	48 83 c4 20	 add	 rsp, 32			; 00000020H
  00043	5f		 pop	 rdi
  00044	c3		 ret	 0
$LN41@erase:

; 509  : 		return (this->_BUF_SIZE <= _Myres

  00045	48 8b c3	 mov	 rax, rbx
; File c:\users\alist_000\cppmisc\packages\visualcpptools.14.0.24224-pre\lib\native\include\iosfwd

; 565  : 		_Left = _Right;

  00048	c6 04 13 00	 mov	 BYTE PTR [rbx+rdx], 0
; File c:\users\alist_000\cppmisc\packages\visualcpptools.14.0.24224-pre\lib\native\include\xstring

; 1354 : 		}

  0004c	48 8b 5c 24 30	 mov	 rbx, QWORD PTR [rsp+48]
  00051	48 83 c4 20	 add	 rsp, 32			; 00000020H
  00055	5f		 pop	 rdi
  00056	c3		 ret	 0
$LN2@erase:

; 1345 : 			_Eos(_Off);	// erase elements [_Off, ...)
; 1346 : 		else if (0 < _Count)

  00057	4d 85 c0	 test	 r8, r8
  0005a	74 51		 je	 SHORT $LN90@erase

; 509  : 		return (this->_BUF_SIZE <= _Myres

  0005c	48 83 79 18 10	 cmp	 QWORD PTR [rcx+24], 16
  00061	72 05		 jb	 SHORT $LN58@erase
; File c:\users\alist_000\cppmisc\packages\visualcpptools.14.0.24224-pre\lib\native\include\xstddef

; 740  : 	return (_Ptr);

  00063	48 8b 01	 mov	 rax, QWORD PTR [rcx]
; File c:\users\alist_000\cppmisc\packages\visualcpptools.14.0.24224-pre\lib\native\include\xstring

; 509  : 		return (this->_BUF_SIZE <= _Myres

  00066	eb 03		 jmp	 SHORT $LN59@erase
$LN58@erase:
  00068	48 8b c3	 mov	 rax, rbx
$LN59@erase:

; 1347 : 			{	// move elements down
; 1348 : 			value_type *_Ptr = this->_Myptr() + _Off;
; 1349 : 			size_type _Newsize = this->_Mysize() - _Count;

  0006b	49 2b f8	 sub	 rdi, r8
  0006e	48 8d 0c 10	 lea	 rcx, QWORD PTR [rax+rdx]

; 1350 : 			_Traits::move(_Ptr, _Ptr + _Count, _Newsize - _Off);

  00072	48 8b c7	 mov	 rax, rdi
  00075	48 2b c2	 sub	 rax, rdx
; File c:\users\alist_000\cppmisc\packages\visualcpptools.14.0.24224-pre\lib\native\include\iosfwd

; 553  : 		return (_Count == 0 ? _First1

  00078	74 0c		 je	 SHORT $LN74@erase
; File c:\users\alist_000\cppmisc\packages\visualcpptools.14.0.24224-pre\lib\native\include\xstring

; 1350 : 			_Traits::move(_Ptr, _Ptr + _Count, _Newsize - _Off);

  0007a	4a 8d 14 01	 lea	 rdx, QWORD PTR [rcx+r8]
; File c:\users\alist_000\cppmisc\packages\visualcpptools.14.0.24224-pre\lib\native\include\iosfwd

; 553  : 		return (_Count == 0 ? _First1

  0007e	4c 8b c0	 mov	 r8, rax
  00081	e8 00 00 00 00	 call	 memmove
$LN74@erase:
; File c:\users\alist_000\cppmisc\packages\visualcpptools.14.0.24224-pre\lib\native\include\xstring

; 509  : 		return (this->_BUF_SIZE <= _Myres

  00086	48 83 7b 18 10	 cmp	 QWORD PTR [rbx+24], 16

; 2216 : 		_Traits::assign(_Dx._Myptr()[_Dx._Mysize = _Newsize], _Elem());

  0008b	48 89 7b 10	 mov	 QWORD PTR [rbx+16], rdi

; 509  : 		return (this->_BUF_SIZE <= _Myres

  0008f	72 15		 jb	 SHORT $LN85@erase
; File c:\users\alist_000\cppmisc\packages\visualcpptools.14.0.24224-pre\lib\native\include\xstddef

; 740  : 	return (_Ptr);

  00091	48 8b 03	 mov	 rax, QWORD PTR [rbx]
; File c:\users\alist_000\cppmisc\packages\visualcpptools.14.0.24224-pre\lib\native\include\iosfwd

; 565  : 		_Left = _Right;

  00094	c6 04 38 00	 mov	 BYTE PTR [rax+rdi], 0
; File c:\users\alist_000\cppmisc\packages\visualcpptools.14.0.24224-pre\lib\native\include\xstring

; 1353 : 		return (*this);

  00098	48 8b c3	 mov	 rax, rbx

; 1354 : 		}

  0009b	48 8b 5c 24 30	 mov	 rbx, QWORD PTR [rsp+48]
  000a0	48 83 c4 20	 add	 rsp, 32			; 00000020H
  000a4	5f		 pop	 rdi
  000a5	c3		 ret	 0
$LN85@erase:

; 509  : 		return (this->_BUF_SIZE <= _Myres

  000a6	48 8b c3	 mov	 rax, rbx
; File c:\users\alist_000\cppmisc\packages\visualcpptools.14.0.24224-pre\lib\native\include\iosfwd

; 565  : 		_Left = _Right;

  000a9	c6 04 3b 00	 mov	 BYTE PTR [rbx+rdi], 0
$LN90@erase:
; File c:\users\alist_000\cppmisc\packages\visualcpptools.14.0.24224-pre\lib\native\include\xstring

; 1353 : 		return (*this);

  000ad	48 8b c3	 mov	 rax, rbx

; 1354 : 		}

  000b0	48 8b 5c 24 30	 mov	 rbx, QWORD PTR [rsp+48]
  000b5	48 83 c4 20	 add	 rsp, 32			; 00000020H
  000b9	5f		 pop	 rdi
  000ba	c3		 ret	 0
$LN93@erase:

; 2280 : 		_Xout_of_range("invalid string position");

  000bb	48 8d 0d 00 00
	00 00		 lea	 rcx, OFFSET FLAT:??_C@_0BI@CFPLBAOH@invalid?5string?5position?$AA@
  000c2	e8 00 00 00 00	 call	 ?_Xout_of_range@std@@YAXPEBD@Z ; std::_Xout_of_range
  000c7	cc		 int	 3
$LN92@erase:
?erase@?$basic_string@DU?$char_traits@D@std@@V?$allocator@D@2@@std@@QEAAAEAV12@_K0@Z ENDP ; std::basic_string<char,std::char_traits<char>,std::allocator<char> >::erase
_TEXT	ENDS
; Function compile flags: /Ogtpy
; File c:\users\alist_000\cppmisc\packages\visualcpptools.14.0.24224-pre\lib\native\include\xstring
; File c:\users\alist_000\cppmisc\packages\visualcpptools.14.0.24224-pre\lib\native\include\xstddef
; File c:\users\alist_000\cppmisc\packages\visualcpptools.14.0.24224-pre\lib\native\include\iosfwd
; File c:\users\alist_000\cppmisc\packages\visualcpptools.14.0.24224-pre\lib\native\include\xstring
; File c:\users\alist_000\cppmisc\packages\visualcpptools.14.0.24224-pre\lib\native\include\iosfwd
; File c:\users\alist_000\cppmisc\packages\visualcpptools.14.0.24224-pre\lib\native\include\xstring
;	COMDAT ?erase@?$basic_string@DU?$char_traits@D@std@@V?$allocator@D@2@@std@@QEAAAEAV12@_K@Z
_TEXT	SEGMENT
this$ = 48
_Off$ = 56
?erase@?$basic_string@DU?$char_traits@D@std@@V?$allocator@D@2@@std@@QEAAAEAV12@_K@Z PROC ; std::basic_string<char,std::char_traits<char>,std::allocator<char> >::erase, COMDAT

; 1335 : 		{	// erase elements [_Off, ...)

$LN39:
  00000	48 83 ec 28	 sub	 rsp, 40			; 00000028H

; 2268 : 		if (this->_Mysize() < _Off)

  00004	48 39 51 10	 cmp	 QWORD PTR [rcx+16], rdx
  00008	72 26		 jb	 SHORT $LN37@erase

; 2216 : 		_Traits::assign(_Dx._Myptr()[_Dx._Mysize = _Newsize], _Elem());

  0000a	48 89 51 10	 mov	 QWORD PTR [rcx+16], rdx

; 509  : 		return (this->_BUF_SIZE <= _Myres

  0000e	48 83 79 18 10	 cmp	 QWORD PTR [rcx+24], 16
  00013	72 0f		 jb	 SHORT $LN29@erase
; File c:\users\alist_000\cppmisc\packages\visualcpptools.14.0.24224-pre\lib\native\include\xstddef

; 740  : 	return (_Ptr);

  00015	48 8b 01	 mov	 rax, QWORD PTR [rcx]
; File c:\users\alist_000\cppmisc\packages\visualcpptools.14.0.24224-pre\lib\native\include\iosfwd

; 565  : 		_Left = _Right;

  00018	c6 04 10 00	 mov	 BYTE PTR [rax+rdx], 0
; File c:\users\alist_000\cppmisc\packages\visualcpptools.14.0.24224-pre\lib\native\include\xstring

; 1338 : 		return (*this);

  0001c	48 8b c1	 mov	 rax, rcx

; 1339 : 		}

  0001f	48 83 c4 28	 add	 rsp, 40			; 00000028H
  00023	c3		 ret	 0
$LN29@erase:

; 509  : 		return (this->_BUF_SIZE <= _Myres

  00024	48 8b c1	 mov	 rax, rcx
; File c:\users\alist_000\cppmisc\packages\visualcpptools.14.0.24224-pre\lib\native\include\iosfwd

; 565  : 		_Left = _Right;

  00027	c6 04 11 00	 mov	 BYTE PTR [rcx+rdx], 0
; File c:\users\alist_000\cppmisc\packages\visualcpptools.14.0.24224-pre\lib\native\include\xstring

; 1339 : 		}

  0002b	48 83 c4 28	 add	 rsp, 40			; 00000028H
  0002f	c3		 ret	 0
$LN37@erase:

; 2280 : 		_Xout_of_range("invalid string position");

  00030	48 8d 0d 00 00
	00 00		 lea	 rcx, OFFSET FLAT:??_C@_0BI@CFPLBAOH@invalid?5string?5position?$AA@
  00037	e8 00 00 00 00	 call	 ?_Xout_of_range@std@@YAXPEBD@Z ; std::_Xout_of_range
  0003c	cc		 int	 3
$LN36@erase:
?erase@?$basic_string@DU?$char_traits@D@std@@V?$allocator@D@2@@std@@QEAAAEAV12@_K@Z ENDP ; std::basic_string<char,std::char_traits<char>,std::allocator<char> >::erase
_TEXT	ENDS
; Function compile flags: /Ogtpy
; File c:\users\alist_000\cppmisc\packages\visualcpptools.14.0.24224-pre\lib\native\include\xstring
; File c:\users\alist_000\cppmisc\packages\visualcpptools.14.0.24224-pre\lib\native\include\xstddef
; File c:\users\alist_000\cppmisc\packages\visualcpptools.14.0.24224-pre\lib\native\include\xstring
; File c:\users\alist_000\cppmisc\packages\visualcpptools.14.0.24224-pre\lib\native\include\xstddef
; File c:\users\alist_000\cppmisc\packages\visualcpptools.14.0.24224-pre\lib\native\include\xstring
; File c:\users\alist_000\cppmisc\packages\visualcpptools.14.0.24224-pre\lib\native\include\xstddef
; File c:\users\alist_000\cppmisc\packages\visualcpptools.14.0.24224-pre\lib\native\include\xstring
; File c:\users\alist_000\cppmisc\packages\visualcpptools.14.0.24224-pre\lib\native\include\xstddef
; File c:\users\alist_000\cppmisc\packages\visualcpptools.14.0.24224-pre\lib\native\include\xstring
; File c:\users\alist_000\cppmisc\packages\visualcpptools.14.0.24224-pre\lib\native\include\xstddef
; File c:\users\alist_000\cppmisc\packages\visualcpptools.14.0.24224-pre\lib\native\include\iosfwd
; File c:\users\alist_000\cppmisc\packages\visualcpptools.14.0.24224-pre\lib\native\include\xstring
; File c:\users\alist_000\cppmisc\packages\visualcpptools.14.0.24224-pre\lib\native\include\iosfwd
; File c:\users\alist_000\cppmisc\packages\visualcpptools.14.0.24224-pre\lib\native\include\xstring
; File c:\users\alist_000\cppmisc\packages\visualcpptools.14.0.24224-pre\lib\native\include\iosfwd
; File c:\users\alist_000\cppmisc\packages\visualcpptools.14.0.24224-pre\lib\native\include\xstring
; File c:\users\alist_000\cppmisc\packages\visualcpptools.14.0.24224-pre\lib\native\include\xstddef
; File c:\users\alist_000\cppmisc\packages\visualcpptools.14.0.24224-pre\lib\native\include\xstring
; File c:\users\alist_000\cppmisc\packages\visualcpptools.14.0.24224-pre\lib\native\include\iosfwd
; File c:\users\alist_000\cppmisc\packages\visualcpptools.14.0.24224-pre\lib\native\include\xstring
;	COMDAT ?assign@?$basic_string@DU?$char_traits@D@std@@V?$allocator@D@2@@std@@QEAAAEAV12@PEBD_K@Z
_TEXT	SEGMENT
this$ = 48
_Ptr$ = 56
_Count$ = 64
?assign@?$basic_string@DU?$char_traits@D@std@@V?$allocator@D@2@@std@@QEAAAEAV12@PEBD_K@Z PROC ; std::basic_string<char,std::char_traits<char>,std::allocator<char> >::assign, COMDAT

; 1160 : 		{	// assign [_Ptr, _Ptr + _Count)

$LN189:
  00000	48 89 5c 24 08	 mov	 QWORD PTR [rsp+8], rbx
  00005	48 89 74 24 10	 mov	 QWORD PTR [rsp+16], rsi
  0000a	57		 push	 rdi
  0000b	48 83 ec 20	 sub	 rsp, 32			; 00000020H
  0000f	49 8b f8	 mov	 rdi, r8
  00012	48 8b f2	 mov	 rsi, rdx
  00015	48 8b d9	 mov	 rbx, rcx

; 2237 : 			|| this->_Myptr() + this->_Mysize() <= _Ptr)

  00018	48 85 d2	 test	 rdx, rdx
  0001b	74 5a		 je	 SHORT $LN2@assign

; 509  : 		return (this->_BUF_SIZE <= _Myres

  0001d	48 8b 51 18	 mov	 rdx, QWORD PTR [rcx+24]
  00021	48 83 fa 10	 cmp	 rdx, 16
  00025	72 05		 jb	 SHORT $LN20@assign
; File c:\users\alist_000\cppmisc\packages\visualcpptools.14.0.24224-pre\lib\native\include\xstddef

; 740  : 	return (_Ptr);

  00027	48 8b 01	 mov	 rax, QWORD PTR [rcx]
; File c:\users\alist_000\cppmisc\packages\visualcpptools.14.0.24224-pre\lib\native\include\xstring

; 509  : 		return (this->_BUF_SIZE <= _Myres

  0002a	eb 03		 jmp	 SHORT $LN21@assign
$LN20@assign:
  0002c	48 8b c3	 mov	 rax, rbx
$LN21@assign:

; 2237 : 			|| this->_Myptr() + this->_Mysize() <= _Ptr)

  0002f	48 3b f0	 cmp	 rsi, rax
  00032	72 43		 jb	 SHORT $LN2@assign

; 509  : 		return (this->_BUF_SIZE <= _Myres

  00034	48 83 fa 10	 cmp	 rdx, 16
  00038	72 03		 jb	 SHORT $LN35@assign
; File c:\users\alist_000\cppmisc\packages\visualcpptools.14.0.24224-pre\lib\native\include\xstddef

; 740  : 	return (_Ptr);

  0003a	48 8b 09	 mov	 rcx, QWORD PTR [rcx]
$LN35@assign:
; File c:\users\alist_000\cppmisc\packages\visualcpptools.14.0.24224-pre\lib\native\include\xstring

; 2237 : 			|| this->_Myptr() + this->_Mysize() <= _Ptr)

  0003d	48 03 4b 10	 add	 rcx, QWORD PTR [rbx+16]
  00041	48 3b ce	 cmp	 rcx, rsi
  00044	76 31		 jbe	 SHORT $LN2@assign

; 509  : 		return (this->_BUF_SIZE <= _Myres

  00046	48 83 fa 10	 cmp	 rdx, 16
  0004a	72 05		 jb	 SHORT $LN57@assign
; File c:\users\alist_000\cppmisc\packages\visualcpptools.14.0.24224-pre\lib\native\include\xstddef

; 740  : 	return (_Ptr);

  0004c	48 8b 03	 mov	 rax, QWORD PTR [rbx]
; File c:\users\alist_000\cppmisc\packages\visualcpptools.14.0.24224-pre\lib\native\include\xstring

; 509  : 		return (this->_BUF_SIZE <= _Myres

  0004f	eb 03		 jmp	 SHORT $LN58@assign
$LN57@assign:
  00051	48 8b c3	 mov	 rax, rbx
$LN58@assign:

; 1161 : 		_DEBUG_POINTER_IF(_Count != 0, _Ptr);
; 1162 : 		if (_Inside(_Ptr))
; 1163 : 			return (assign(*this,

  00054	48 2b f0	 sub	 rsi, rax
  00057	4c 8b cf	 mov	 r9, rdi
  0005a	4c 8b c6	 mov	 r8, rsi
  0005d	48 8b d3	 mov	 rdx, rbx
  00060	48 8b cb	 mov	 rcx, rbx

; 1172 : 		}

  00063	48 8b 5c 24 30	 mov	 rbx, QWORD PTR [rsp+48]
  00068	48 8b 74 24 38	 mov	 rsi, QWORD PTR [rsp+56]
  0006d	48 83 c4 20	 add	 rsp, 32			; 00000020H
  00071	5f		 pop	 rdi

; 1161 : 		_DEBUG_POINTER_IF(_Count != 0, _Ptr);
; 1162 : 		if (_Inside(_Ptr))
; 1163 : 			return (assign(*this,

  00072	e9 00 00 00 00	 jmp	 ?assign@?$basic_string@DU?$char_traits@D@std@@V?$allocator@D@2@@std@@QEAAAEAV12@AEBV12@_K1@Z ; std::basic_string<char,std::char_traits<char>,std::allocator<char> >::assign
$LN2@assign:

; 2222 : 		if (max_size() < _Newsize)

  00077	48 83 ff fe	 cmp	 rdi, -2
  0007b	0f 87 a2 00 00
	00		 ja	 $LN187@assign

; 2223 : 			_Xlen();	// result too long
; 2224 : 		if (this->_Myres() < _Newsize)

  00081	48 39 7b 18	 cmp	 QWORD PTR [rbx+24], rdi
  00085	73 20		 jae	 SHORT $LN63@assign

; 2225 : 			_Copy(_Newsize, this->_Mysize());	// reallocate to grow

  00087	4c 8b 43 10	 mov	 r8, QWORD PTR [rbx+16]
  0008b	48 8b d7	 mov	 rdx, rdi
  0008e	48 8b cb	 mov	 rcx, rbx
  00091	e8 00 00 00 00	 call	 ?_Copy@?$basic_string@DU?$char_traits@D@std@@V?$allocator@D@2@@std@@QEAAX_K0@Z ; std::basic_string<char,std::char_traits<char>,std::allocator<char> >::_Copy

; 2230 : 			_Eos(0);	// new size is zero, just null terminate
; 2231 : 		return (0 < _Newsize);	// return true only if more work to do

  00096	48 85 ff	 test	 rdi, rdi

; 1164 : 				_Ptr - this->_Myptr(), _Count));	// substring
; 1165 : 
; 1166 : 		if (_Grow(_Count))

  00099	74 75		 je	 SHORT $LN181@assign
$LN186@assign:

; 509  : 		return (this->_BUF_SIZE <= _Myres

  0009b	48 83 7b 18 10	 cmp	 QWORD PTR [rbx+24], 16
  000a0	72 44		 jb	 SHORT $LN158@assign
; File c:\users\alist_000\cppmisc\packages\visualcpptools.14.0.24224-pre\lib\native\include\xstddef

; 740  : 	return (_Ptr);

  000a2	48 8b 0b	 mov	 rcx, QWORD PTR [rbx]
; File c:\users\alist_000\cppmisc\packages\visualcpptools.14.0.24224-pre\lib\native\include\xstring

; 509  : 		return (this->_BUF_SIZE <= _Myres

  000a5	eb 42		 jmp	 SHORT $LN159@assign
$LN63@assign:

; 2229 : 		else if (_Newsize == 0)

  000a7	48 85 ff	 test	 rdi, rdi
  000aa	75 ef		 jne	 SHORT $LN186@assign

; 509  : 		return (this->_BUF_SIZE <= _Myres

  000ac	48 83 7b 18 10	 cmp	 QWORD PTR [rbx+24], 16

; 2216 : 		_Traits::assign(_Dx._Myptr()[_Dx._Mysize = _Newsize], _Elem());

  000b1	48 89 7b 10	 mov	 QWORD PTR [rbx+16], rdi

; 509  : 		return (this->_BUF_SIZE <= _Myres

  000b5	72 19		 jb	 SHORT $LN140@assign
; File c:\users\alist_000\cppmisc\packages\visualcpptools.14.0.24224-pre\lib\native\include\xstddef

; 740  : 	return (_Ptr);

  000b7	48 8b 03	 mov	 rax, QWORD PTR [rbx]
; File c:\users\alist_000\cppmisc\packages\visualcpptools.14.0.24224-pre\lib\native\include\iosfwd

; 565  : 		_Left = _Right;

  000ba	40 88 38	 mov	 BYTE PTR [rax], dil
; File c:\users\alist_000\cppmisc\packages\visualcpptools.14.0.24224-pre\lib\native\include\xstring

; 1171 : 		return (*this);

  000bd	48 8b c3	 mov	 rax, rbx

; 1172 : 		}

  000c0	48 8b 5c 24 30	 mov	 rbx, QWORD PTR [rsp+48]
  000c5	48 8b 74 24 38	 mov	 rsi, QWORD PTR [rsp+56]
  000ca	48 83 c4 20	 add	 rsp, 32			; 00000020H
  000ce	5f		 pop	 rdi
  000cf	c3		 ret	 0
$LN140@assign:

; 509  : 		return (this->_BUF_SIZE <= _Myres

  000d0	48 8b c3	 mov	 rax, rbx
; File c:\users\alist_000\cppmisc\packages\visualcpptools.14.0.24224-pre\lib\native\include\iosfwd

; 565  : 		_Left = _Right;

  000d3	c6 03 00	 mov	 BYTE PTR [rbx], 0
; File c:\users\alist_000\cppmisc\packages\visualcpptools.14.0.24224-pre\lib\native\include\xstring

; 1172 : 		}

  000d6	48 8b 5c 24 30	 mov	 rbx, QWORD PTR [rsp+48]
  000db	48 8b 74 24 38	 mov	 rsi, QWORD PTR [rsp+56]
  000e0	48 83 c4 20	 add	 rsp, 32			; 00000020H
  000e4	5f		 pop	 rdi
  000e5	c3		 ret	 0
$LN158@assign:

; 509  : 		return (this->_BUF_SIZE <= _Myres

  000e6	48 8b cb	 mov	 rcx, rbx
$LN159@assign:
; File c:\users\alist_000\cppmisc\packages\visualcpptools.14.0.24224-pre\lib\native\include\iosfwd

; 530  : 		return (_Count == 0 ? _First1

  000e9	48 85 ff	 test	 rdi, rdi
  000ec	74 0b		 je	 SHORT $LN165@assign
  000ee	4c 8b c7	 mov	 r8, rdi
  000f1	48 8b d6	 mov	 rdx, rsi
  000f4	e8 00 00 00 00	 call	 memcpy
$LN165@assign:
; File c:\users\alist_000\cppmisc\packages\visualcpptools.14.0.24224-pre\lib\native\include\xstring

; 509  : 		return (this->_BUF_SIZE <= _Myres

  000f9	48 83 7b 18 10	 cmp	 QWORD PTR [rbx+24], 16

; 2216 : 		_Traits::assign(_Dx._Myptr()[_Dx._Mysize = _Newsize], _Elem());

  000fe	48 89 7b 10	 mov	 QWORD PTR [rbx+16], rdi

; 509  : 		return (this->_BUF_SIZE <= _Myres

  00102	72 05		 jb	 SHORT $LN176@assign
; File c:\users\alist_000\cppmisc\packages\visualcpptools.14.0.24224-pre\lib\native\include\xstddef

; 740  : 	return (_Ptr);

  00104	48 8b 03	 mov	 rax, QWORD PTR [rbx]
; File c:\users\alist_000\cppmisc\packages\visualcpptools.14.0.24224-pre\lib\native\include\xstring

; 509  : 		return (this->_BUF_SIZE <= _Myres

  00107	eb 03		 jmp	 SHORT $LN177@assign
$LN176@assign:
  00109	48 8b c3	 mov	 rax, rbx
$LN177@assign:
; File c:\users\alist_000\cppmisc\packages\visualcpptools.14.0.24224-pre\lib\native\include\iosfwd

; 565  : 		_Left = _Right;

  0010c	c6 04 38 00	 mov	 BYTE PTR [rax+rdi], 0
$LN181@assign:
; File c:\users\alist_000\cppmisc\packages\visualcpptools.14.0.24224-pre\lib\native\include\xstring

; 1172 : 		}

  00110	48 8b 74 24 38	 mov	 rsi, QWORD PTR [rsp+56]
  00115	48 8b c3	 mov	 rax, rbx
  00118	48 8b 5c 24 30	 mov	 rbx, QWORD PTR [rsp+48]
  0011d	48 83 c4 20	 add	 rsp, 32			; 00000020H
  00121	5f		 pop	 rdi
  00122	c3		 ret	 0
$LN187@assign:

; 2263 : 		_Xlength_error("string too long");

  00123	48 8d 0d 00 00
	00 00		 lea	 rcx, OFFSET FLAT:??_C@_0BA@JFNIOLAK@string?5too?5long?$AA@
  0012a	e8 00 00 00 00	 call	 ?_Xlength_error@std@@YAXPEBD@Z ; std::_Xlength_error
  0012f	cc		 int	 3
$LN184@assign:
?assign@?$basic_string@DU?$char_traits@D@std@@V?$allocator@D@2@@std@@QEAAAEAV12@PEBD_K@Z ENDP ; std::basic_string<char,std::char_traits<char>,std::allocator<char> >::assign
_TEXT	ENDS
; Function compile flags: /Ogtpy
; File c:\users\alist_000\cppmisc\packages\visualcpptools.14.0.24224-pre\lib\native\include\xutility
;	COMDAT ?_Get_second@?$_Compressed_pair@U?$_Wrap_alloc@V?$allocator@D@std@@@std@@V?$_String_val@U?$_Simple_types@D@std@@@2@$00@std@@QEBAAEBV?$_String_val@U?$_Simple_types@D@std@@@2@XZ
_TEXT	SEGMENT
this$ = 8
?_Get_second@?$_Compressed_pair@U?$_Wrap_alloc@V?$allocator@D@std@@@std@@V?$_String_val@U?$_Simple_types@D@std@@@2@$00@std@@QEBAAEBV?$_String_val@U?$_Simple_types@D@std@@@2@XZ PROC ; std::_Compressed_pair<std::_Wrap_alloc<std::allocator<char> >,std::_String_val<std::_Simple_types<char> >,1>::_Get_second, COMDAT

; 325  : 		return (_Myval2);

  00000	48 8b c1	 mov	 rax, rcx

; 326  : 		}

  00003	c3		 ret	 0
?_Get_second@?$_Compressed_pair@U?$_Wrap_alloc@V?$allocator@D@std@@@std@@V?$_String_val@U?$_Simple_types@D@std@@@2@$00@std@@QEBAAEBV?$_String_val@U?$_Simple_types@D@std@@@2@XZ ENDP ; std::_Compressed_pair<std::_Wrap_alloc<std::allocator<char> >,std::_String_val<std::_Simple_types<char> >,1>::_Get_second
_TEXT	ENDS
; Function compile flags: /Ogtpy
; File c:\users\alist_000\cppmisc\packages\visualcpptools.14.0.24224-pre\lib\native\include\xutility
;	COMDAT ?_Get_second@?$_Compressed_pair@U?$_Wrap_alloc@V?$allocator@D@std@@@std@@V?$_String_val@U?$_Simple_types@D@std@@@2@$00@std@@QEAAAEAV?$_String_val@U?$_Simple_types@D@std@@@2@XZ
_TEXT	SEGMENT
this$ = 8
?_Get_second@?$_Compressed_pair@U?$_Wrap_alloc@V?$allocator@D@std@@@std@@V?$_String_val@U?$_Simple_types@D@std@@@2@$00@std@@QEAAAEAV?$_String_val@U?$_Simple_types@D@std@@@2@XZ PROC ; std::_Compressed_pair<std::_Wrap_alloc<std::allocator<char> >,std::_String_val<std::_Simple_types<char> >,1>::_Get_second, COMDAT

; 320  : 		return (_Myval2);

  00000	48 8b c1	 mov	 rax, rcx

; 321  : 		}

  00003	c3		 ret	 0
?_Get_second@?$_Compressed_pair@U?$_Wrap_alloc@V?$allocator@D@std@@@std@@V?$_String_val@U?$_Simple_types@D@std@@@2@$00@std@@QEAAAEAV?$_String_val@U?$_Simple_types@D@std@@@2@XZ ENDP ; std::_Compressed_pair<std::_Wrap_alloc<std::allocator<char> >,std::_String_val<std::_Simple_types<char> >,1>::_Get_second
_TEXT	ENDS
; Function compile flags: /Ogtpy
; File c:\users\alist_000\cppmisc\packages\visualcpptools.14.0.24224-pre\lib\native\include\xstring
;	COMDAT ?_Xran@?$basic_string@DU?$char_traits@D@std@@V?$allocator@D@2@@std@@QEBAXXZ
_TEXT	SEGMENT
this$ = 48
?_Xran@?$basic_string@DU?$char_traits@D@std@@V?$allocator@D@2@@std@@QEBAXXZ PROC ; std::basic_string<char,std::char_traits<char>,std::allocator<char> >::_Xran, COMDAT

; 2279 : 		{	// report an out_of_range error

$LN4:
  00000	48 83 ec 28	 sub	 rsp, 40			; 00000028H

; 2280 : 		_Xout_of_range("invalid string position");

  00004	48 8d 0d 00 00
	00 00		 lea	 rcx, OFFSET FLAT:??_C@_0BI@CFPLBAOH@invalid?5string?5position?$AA@
  0000b	e8 00 00 00 00	 call	 ?_Xout_of_range@std@@YAXPEBD@Z ; std::_Xout_of_range
  00010	cc		 int	 3
$LN3@Xran:
?_Xran@?$basic_string@DU?$char_traits@D@std@@V?$allocator@D@2@@std@@QEBAXXZ ENDP ; std::basic_string<char,std::char_traits<char>,std::allocator<char> >::_Xran
_TEXT	ENDS
; Function compile flags: /Ogtpy
; File c:\users\alist_000\cppmisc\packages\visualcpptools.14.0.24224-pre\lib\native\include\xstring
; File c:\users\alist_000\cppmisc\packages\visualcpptools.14.0.24224-pre\lib\native\include\xmemory0
; File c:\users\alist_000\cppmisc\packages\visualcpptools.14.0.24224-pre\lib\native\include\xstring
; File c:\users\alist_000\cppmisc\packages\visualcpptools.14.0.24224-pre\lib\native\include\xstddef
; File c:\users\alist_000\cppmisc\packages\visualcpptools.14.0.24224-pre\lib\native\include\xstring
; File c:\users\alist_000\cppmisc\packages\visualcpptools.14.0.24224-pre\lib\native\include\iosfwd
; File c:\users\alist_000\cppmisc\packages\visualcpptools.14.0.24224-pre\lib\native\include\xstring
; File c:\users\alist_000\cppmisc\packages\visualcpptools.14.0.24224-pre\lib\native\include\xmemory0
; File c:\users\alist_000\cppmisc\packages\visualcpptools.14.0.24224-pre\lib\native\include\xstring
; File c:\users\alist_000\cppmisc\packages\visualcpptools.14.0.24224-pre\lib\native\include\xstddef
; File c:\users\alist_000\cppmisc\packages\visualcpptools.14.0.24224-pre\lib\native\include\xstring
; File c:\users\alist_000\cppmisc\packages\visualcpptools.14.0.24224-pre\lib\native\include\iosfwd
; File c:\users\alist_000\cppmisc\packages\visualcpptools.14.0.24224-pre\lib\native\include\xmemory0
; File c:\users\alist_000\cppmisc\packages\visualcpptools.14.0.24224-pre\lib\native\include\xstring
; File c:\users\alist_000\cppmisc\packages\visualcpptools.14.0.24224-pre\lib\native\include\xstddef
; File c:\users\alist_000\cppmisc\packages\visualcpptools.14.0.24224-pre\lib\native\include\iosfwd
; File c:\users\alist_000\cppmisc\packages\visualcpptools.14.0.24224-pre\lib\native\include\xstring
;	COMDAT ?_Copy@?$basic_string@DU?$char_traits@D@std@@V?$allocator@D@2@@std@@QEAAX_K0@Z
_TEXT	SEGMENT
$T1 = 32
this$ = 96
_Newres$ = 104
_Newsize$ = 104
_Oldlen$ = 112
_Ptr$ = 120
?_Copy@?$basic_string@DU?$char_traits@D@std@@V?$allocator@D@2@@std@@QEAAX_K0@Z PROC ; std::basic_string<char,std::char_traits<char>,std::allocator<char> >::_Copy, COMDAT

; 2179 : 		{	// copy _Oldlen elements to newly allocated buffer

$LN464:
  00000	4c 89 44 24 18	 mov	 QWORD PTR [rsp+24], r8
  00005	48 89 54 24 10	 mov	 QWORD PTR [rsp+16], rdx
  0000a	48 89 4c 24 08	 mov	 QWORD PTR [rsp+8], rcx
  0000f	53		 push	 rbx
  00010	56		 push	 rsi
  00011	57		 push	 rdi
  00012	41 56		 push	 r14
  00014	48 83 ec 38	 sub	 rsp, 56			; 00000038H
  00018	48 c7 44 24 20
	fe ff ff ff	 mov	 QWORD PTR $T1[rsp], -2
  00021	4d 8b f0	 mov	 r14, r8
  00024	48 8b d9	 mov	 rbx, rcx

; 2180 : 		size_type _Newres = _Newsize | this->_ALLOC_MASK;

  00027	48 8b fa	 mov	 rdi, rdx
  0002a	48 83 cf 0f	 or	 rdi, 15

; 2181 : 		if (max_size() < _Newres)

  0002e	48 83 ff fe	 cmp	 rdi, -2
  00032	76 05		 jbe	 SHORT $LN2@Copy

; 2182 : 			_Newres = _Newsize;	// undo roundup if too big

  00034	48 8b fa	 mov	 rdi, rdx

; 2183 : 		else if (this->_Myres() / 2 <= _Newres / 3)

  00037	eb 35		 jmp	 SHORT $LN108@Copy
$LN2@Copy:
  00039	4c 8b 41 18	 mov	 r8, QWORD PTR [rcx+24]
  0003d	49 8b c8	 mov	 rcx, r8
  00040	48 d1 e9	 shr	 rcx, 1
  00043	48 b8 ab aa aa
	aa aa aa aa aa	 mov	 rax, -6148914691236517205 ; aaaaaaaaaaaaaaabH
  0004d	48 f7 e7	 mul	 rdi
  00050	48 d1 ea	 shr	 rdx, 1
  00053	48 3b ca	 cmp	 rcx, rdx
  00056	76 16		 jbe	 SHORT $LN108@Copy

; 2184 : 			;
; 2185 : 		else if (this->_Myres() <= max_size() - this->_Myres() / 2)

  00058	48 c7 c7 fe ff
	ff ff		 mov	 rdi, -2
  0005f	48 8b c7	 mov	 rax, rdi
  00062	48 2b c1	 sub	 rax, rcx
  00065	4c 3b c0	 cmp	 r8, rax
  00068	77 04		 ja	 SHORT $LN108@Copy

; 2186 : 			_Newres = this->_Myres()

  0006a	4a 8d 3c 01	 lea	 rdi, QWORD PTR [rcx+r8]
$LN108@Copy:

; 2187 : 				+ this->_Myres() / 2;	// grow exponentially if possible
; 2188 : 		else
; 2189 : 			_Newres = max_size();	// settle for max_size()
; 2190 : 
; 2191 : 		pointer _Ptr;
; 2192 : 		_TRY_BEGIN
; 2193 : 			_Ptr = this->_Getal().allocate(_Newres + 1);

  0006e	48 8d 4f 01	 lea	 rcx, QWORD PTR [rdi+1]
; File c:\users\alist_000\cppmisc\packages\visualcpptools.14.0.24224-pre\lib\native\include\xmemory0

; 51   : 	if (_Count == 0)

  00072	48 85 c9	 test	 rcx, rcx
  00075	75 04		 jne	 SHORT $LN136@Copy

; 52   : 		return (_Ptr);

  00077	33 f6		 xor	 esi, esi
  00079	eb 35		 jmp	 SHORT $LN135@Copy
$LN136@Copy:

; 53   : 
; 54   : 	// check overflow of multiply
; 55   : 	if ((size_t)(-1) / _Sz < _Count)
; 56   : 		_Xbad_alloc();	// report no memory
; 57   : 	const size_t _User_size = _Count * _Sz;
; 58   : 
; 59   :  #if defined(_M_IX86) || defined(_M_X64)
; 60   : 	if (_Try_aligned_allocation
; 61   : 		&& _BIG_ALLOCATION_THRESHOLD <= _User_size)

  0007b	48 81 f9 00 10
	00 00		 cmp	 rcx, 4096		; 00001000H
  00082	72 24		 jb	 SHORT $LN138@Copy

; 62   : 		{	// allocate large block
; 63   : 		static_assert(sizeof (void *) < _BIG_ALLOCATION_ALIGNMENT,
; 64   : 			"Big allocations should at least match vector register size");
; 65   : 		const size_t _Block_size = _NON_USER_SIZE + _User_size;

  00084	48 8d 41 27	 lea	 rax, QWORD PTR [rcx+39]

; 66   : 		if (_Block_size <= _User_size)

  00088	48 3b c1	 cmp	 rax, rcx
  0008b	77 05		 ja	 SHORT $LN140@Copy

; 67   : 			_Xbad_alloc();	// report no memory

  0008d	e8 00 00 00 00	 call	 ?_Xbad_alloc@std@@YAXXZ	; std::_Xbad_alloc
$LN140@Copy:

; 68   : 		const uintptr_t _Ptr_container =
; 69   : 			reinterpret_cast<uintptr_t>(::operator new(_Block_size));

  00092	48 8b c8	 mov	 rcx, rax
  00095	e8 00 00 00 00	 call	 ??2@YAPEAX_K@Z		; operator new

; 70   : 		_SCL_SECURE_ALWAYS_VALIDATE(_Ptr_container != 0);
; 71   : 		_Ptr = reinterpret_cast<void *>((_Ptr_container + _NON_USER_SIZE)

  0009a	48 8d 70 27	 lea	 rsi, QWORD PTR [rax+39]
  0009e	48 83 e6 e0	 and	 rsi, -32		; ffffffffffffffe0H

; 72   : 			& ~(_BIG_ALLOCATION_ALIGNMENT - 1));
; 73   : 		static_cast<uintptr_t *>(_Ptr)[-1] = _Ptr_container;

  000a2	48 89 46 f8	 mov	 QWORD PTR [rsi-8], rax

; 74   : 
; 75   :  #ifdef _DEBUG
; 76   : 		static_cast<uintptr_t *>(_Ptr)[-2] = _BIG_ALLOCATION_SENTINEL;
; 77   :  #endif /* _DEBUG */
; 78   : 		}
; 79   : 	else

  000a6	eb 08		 jmp	 SHORT $LN135@Copy
$LN138@Copy:

; 80   :  #endif /* defined(_M_IX86) || defined(_M_X64) */
; 81   : 
; 82   : 		{	// allocate normal block
; 83   : 		_Ptr = ::operator new(_User_size);

  000a8	e8 00 00 00 00	 call	 ??2@YAPEAX_K@Z		; operator new
  000ad	48 8b f0	 mov	 rsi, rax
$LN135@Copy:
; File c:\users\alist_000\cppmisc\packages\visualcpptools.14.0.24224-pre\lib\native\include\xstring
  000b0	eb 14		 jmp	 SHORT $LN18@Copy
$LN19@Copy:
; File c:\users\alist_000\cppmisc\packages\visualcpptools.14.0.24224-pre\lib\native\include\iosfwd
  000b2	48 8b 5c 24 60	 mov	 rbx, QWORD PTR this$[rsp]
  000b7	4c 8b 74 24 70	 mov	 r14, QWORD PTR _Oldlen$[rsp]
  000bc	48 8b 7c 24 68	 mov	 rdi, QWORD PTR _Newres$[rsp]
  000c1	48 8b 74 24 78	 mov	 rsi, QWORD PTR _Ptr$[rsp]
$LN18@Copy:
; File c:\users\alist_000\cppmisc\packages\visualcpptools.14.0.24224-pre\lib\native\include\xstring

; 2204 : 		if (0 < _Oldlen)

  000c6	4d 85 f6	 test	 r14, r14
  000c9	74 1f		 je	 SHORT $LN285@Copy

; 509  : 		return (this->_BUF_SIZE <= _Myres

  000cb	48 83 7b 18 10	 cmp	 QWORD PTR [rbx+24], 16
  000d0	72 05		 jb	 SHORT $LN276@Copy
; File c:\users\alist_000\cppmisc\packages\visualcpptools.14.0.24224-pre\lib\native\include\xstddef

; 740  : 	return (_Ptr);

  000d2	48 8b 13	 mov	 rdx, QWORD PTR [rbx]
; File c:\users\alist_000\cppmisc\packages\visualcpptools.14.0.24224-pre\lib\native\include\xstring

; 509  : 		return (this->_BUF_SIZE <= _Myres

  000d5	eb 03		 jmp	 SHORT $LN277@Copy
$LN276@Copy:
  000d7	48 8b d3	 mov	 rdx, rbx
$LN277@Copy:
; File c:\users\alist_000\cppmisc\packages\visualcpptools.14.0.24224-pre\lib\native\include\iosfwd

; 530  : 		return (_Count == 0 ? _First1

  000da	4d 85 f6	 test	 r14, r14
  000dd	74 0b		 je	 SHORT $LN285@Copy
  000df	4d 8b c6	 mov	 r8, r14
  000e2	48 8b ce	 mov	 rcx, rsi
  000e5	e8 00 00 00 00	 call	 memcpy
$LN285@Copy:
; File c:\users\alist_000\cppmisc\packages\visualcpptools.14.0.24224-pre\lib\native\include\xstring

; 2248 : 		else if (this->_BUF_SIZE <= this->_Myres())

  000ea	48 8b 43 18	 mov	 rax, QWORD PTR [rbx+24]
  000ee	48 83 f8 10	 cmp	 rax, 16
  000f2	72 4b		 jb	 SHORT $LN369@Copy

; 2249 : 			{	// copy any leftovers to small buffer and deallocate
; 2250 : 			pointer _Ptr = this->_Bx()._Ptr;
; 2251 : 			this->_Getal().destroy(_STD addressof(this->_Bx()._Ptr));
; 2252 : 			if (0 < _Newsize)
; 2253 : 				_Traits::copy(this->_Bx()._Buf,
; 2254 : 					_Unfancy(_Ptr), _Newsize);
; 2255 : 			this->_Getal().deallocate(_Ptr, this->_Myres() + 1);

  000f4	48 ff c0	 inc	 rax
; File c:\users\alist_000\cppmisc\packages\visualcpptools.14.0.24224-pre\lib\native\include\xmemory0

; 720  : 		_Deallocate(_Ptr, _Count, sizeof (_Ty));

  000f7	48 8b 0b	 mov	 rcx, QWORD PTR [rbx]

; 96   : 	if (_BIG_ALLOCATION_THRESHOLD <= _User_size)

  000fa	48 3d 00 10 00
	00		 cmp	 rax, 4096		; 00001000H
  00100	72 38		 jb	 SHORT $LN364@Copy

; 97   : 		{	// deallocate large block
; 98   : 		const uintptr_t _Ptr_user = reinterpret_cast<uintptr_t>(_Ptr);
; 99   : 		_SCL_SECURE_ALWAYS_VALIDATE(

  00102	f6 c1 1f	 test	 cl, 31
  00105	74 06		 je	 SHORT $LN365@Copy
  00107	e8 00 00 00 00	 call	 _invalid_parameter_noinfo_noreturn
  0010c	cc		 int	 3
$LN365@Copy:

; 100  : 			(_Ptr_user & (_BIG_ALLOCATION_ALIGNMENT - 1)) == 0);
; 101  : 		const uintptr_t _Ptr_ptr = _Ptr_user - sizeof(void *);
; 102  : 		const uintptr_t _Ptr_container =
; 103  : 			*reinterpret_cast<uintptr_t *>(_Ptr_ptr);

  0010d	48 8b 41 f8	 mov	 rax, QWORD PTR [rcx-8]

; 104  : 
; 105  :  #ifdef _DEBUG
; 106  : 		// If the following asserts, it likely means that we are performing
; 107  : 		// an aligned delete on memory coming from an unaligned allocation.
; 108  : 		_SCL_SECURE_ALWAYS_VALIDATE(
; 109  : 			reinterpret_cast<uintptr_t *>(_Ptr_ptr)[-1] ==
; 110  : 				_BIG_ALLOCATION_SENTINEL);
; 111  :  #endif /* _DEBUG */
; 112  : 
; 113  : 		// Extra paranoia on aligned allocation/deallocation
; 114  : 		_SCL_SECURE_ALWAYS_VALIDATE(_Ptr_container < _Ptr_user);

  00111	48 3b c1	 cmp	 rax, rcx
  00114	72 06		 jb	 SHORT $LN366@Copy
  00116	e8 00 00 00 00	 call	 _invalid_parameter_noinfo_noreturn
  0011b	cc		 int	 3
$LN366@Copy:

; 115  : 
; 116  :  #ifdef _DEBUG
; 117  : 		_SCL_SECURE_ALWAYS_VALIDATE(2 * sizeof(void *)
; 118  : 			<= _Ptr_user - _Ptr_container);
; 119  : 
; 120  :  #else /* _DEBUG */
; 121  : 		_SCL_SECURE_ALWAYS_VALIDATE(sizeof(void *)

  0011c	48 2b c8	 sub	 rcx, rax
  0011f	48 83 f9 08	 cmp	 rcx, 8
  00123	73 06		 jae	 SHORT $LN367@Copy
  00125	e8 00 00 00 00	 call	 _invalid_parameter_noinfo_noreturn
  0012a	cc		 int	 3
$LN367@Copy:

; 122  : 			<= _Ptr_user - _Ptr_container);
; 123  :  #endif /* _DEBUG */
; 124  : 
; 125  : 		_SCL_SECURE_ALWAYS_VALIDATE(_Ptr_user - _Ptr_container

  0012b	48 83 f9 27	 cmp	 rcx, 39			; 00000027H
  0012f	76 06		 jbe	 SHORT $LN368@Copy
  00131	e8 00 00 00 00	 call	 _invalid_parameter_noinfo_noreturn
  00136	cc		 int	 3
$LN368@Copy:

; 126  : 			<= _NON_USER_SIZE);
; 127  : 
; 128  : 		_Ptr = reinterpret_cast<void *>(_Ptr_container);

  00137	48 8b c8	 mov	 rcx, rax
$LN364@Copy:

; 129  : 		}
; 130  :  #endif /* defined(_M_IX86) || defined(_M_X64) */
; 131  : 
; 132  : 	::operator delete(_Ptr);

  0013a	e8 00 00 00 00	 call	 ??3@YAXPEAX@Z		; operator delete
$LN369@Copy:
; File c:\users\alist_000\cppmisc\packages\visualcpptools.14.0.24224-pre\lib\native\include\xstring

; 2257 : 		this->_Myres() = this->_BUF_SIZE - 1;

  0013f	48 c7 43 18 0f
	00 00 00	 mov	 QWORD PTR [rbx+24], 15

; 2216 : 		_Traits::assign(_Dx._Myptr()[_Dx._Mysize = _Newsize], _Elem());

  00147	48 c7 43 10 00
	00 00 00	 mov	 QWORD PTR [rbx+16], 0

; 509  : 		return (this->_BUF_SIZE <= _Myres

  0014f	48 83 7b 18 10	 cmp	 QWORD PTR [rbx+24], 16
  00154	72 05		 jb	 SHORT $LN392@Copy
; File c:\users\alist_000\cppmisc\packages\visualcpptools.14.0.24224-pre\lib\native\include\xstddef

; 740  : 	return (_Ptr);

  00156	48 8b 03	 mov	 rax, QWORD PTR [rbx]
; File c:\users\alist_000\cppmisc\packages\visualcpptools.14.0.24224-pre\lib\native\include\xstring

; 509  : 		return (this->_BUF_SIZE <= _Myres

  00159	eb 03		 jmp	 SHORT $LN393@Copy
$LN392@Copy:
  0015b	48 8b c3	 mov	 rax, rbx
$LN393@Copy:
; File c:\users\alist_000\cppmisc\packages\visualcpptools.14.0.24224-pre\lib\native\include\iosfwd

; 565  : 		_Left = _Right;

  0015e	c6 00 00	 mov	 BYTE PTR [rax], 0
; File c:\users\alist_000\cppmisc\packages\visualcpptools.14.0.24224-pre\lib\native\include\xmemory0

; 737  : 		::new ((void *)_Ptr) _Objty(_STD forward<_Types>(_Args)...);

  00161	48 89 33	 mov	 QWORD PTR [rbx], rsi
; File c:\users\alist_000\cppmisc\packages\visualcpptools.14.0.24224-pre\lib\native\include\xstring

; 2209 : 		this->_Myres() = _Newres;

  00164	48 89 7b 18	 mov	 QWORD PTR [rbx+24], rdi

; 2216 : 		_Traits::assign(_Dx._Myptr()[_Dx._Mysize = _Newsize], _Elem());

  00168	4c 89 73 10	 mov	 QWORD PTR [rbx+16], r14

; 509  : 		return (this->_BUF_SIZE <= _Myres

  0016c	48 83 7b 18 10	 cmp	 QWORD PTR [rbx+24], 16
  00171	72 03		 jb	 SHORT $LN456@Copy
; File c:\users\alist_000\cppmisc\packages\visualcpptools.14.0.24224-pre\lib\native\include\xstddef

; 740  : 	return (_Ptr);

  00173	48 8b de	 mov	 rbx, rsi
$LN456@Copy:
; File c:\users\alist_000\cppmisc\packages\visualcpptools.14.0.24224-pre\lib\native\include\iosfwd

; 565  : 		_Left = _Right;

  00176	42 c6 04 33 00	 mov	 BYTE PTR [rbx+r14], 0
; File c:\users\alist_000\cppmisc\packages\visualcpptools.14.0.24224-pre\lib\native\include\xstring

; 2211 : 		}

  0017b	48 83 c4 38	 add	 rsp, 56			; 00000038H
  0017f	41 5e		 pop	 r14
  00181	5f		 pop	 rdi
  00182	5e		 pop	 rsi
  00183	5b		 pop	 rbx
  00184	c3		 ret	 0
$LN462@Copy:
?_Copy@?$basic_string@DU?$char_traits@D@std@@V?$allocator@D@2@@std@@QEAAX_K0@Z ENDP ; std::basic_string<char,std::char_traits<char>,std::allocator<char> >::_Copy
_TEXT	ENDS
;	COMDAT text$x
text$x	SEGMENT
$T1 = 32
this$ = 96
_Newres$ = 104
_Newsize$ = 104
_Oldlen$ = 112
_Ptr$ = 120
?catch$107@?0??_Copy@?$basic_string@DU?$char_traits@D@std@@V?$allocator@D@2@@std@@QEAAX_K0@Z@4HA PROC ; `std::basic_string<char,std::char_traits<char>,std::allocator<char> >::_Copy'::`1'::catch$107

; 2194 : 		_CATCH_ALL

  00000	48 89 54 24 10	 mov	 QWORD PTR [rsp+16], rdx
  00005	55		 push	 rbp
  00006	48 83 ec 20	 sub	 rsp, 32			; 00000020H
  0000a	48 8b ea	 mov	 rbp, rdx
__catch$?_Copy@?$basic_string@DU?$char_traits@D@std@@V?$allocator@D@2@@std@@QEAAX_K0@Z$0:

; 2194 : 		_CATCH_ALL
; 2195 : 			_Newres = _Newsize;	// allocation failed, undo roundup and retry

  0000d	48 8b 55 68	 mov	 rdx, QWORD PTR _Newsize$[rbp]
  00011	48 89 55 68	 mov	 QWORD PTR _Newres$[rbp], rdx

; 2194 : 		_CATCH_ALL
; 2195 : 			_Newres = _Newsize;	// allocation failed, undo roundup and retry
; 2196 : 			_TRY_BEGIN
; 2197 : 				_Ptr = this->_Getal().allocate(_Newres + 1);

  00015	48 ff c2	 inc	 rdx
  00018	48 8b 4d 60	 mov	 rcx, QWORD PTR this$[rbp]
  0001c	e8 00 00 00 00	 call	 ?allocate@?$_Wrap_alloc@V?$allocator@D@std@@@std@@QEAAPEAD_K@Z ; std::_Wrap_alloc<std::allocator<char> >::allocate
  00021	48 89 45 78	 mov	 QWORD PTR _Ptr$[rbp], rax

; 2194 : 		_CATCH_ALL
; 2195 : 			_Newres = _Newsize;	// allocation failed, undo roundup and retry
; 2196 : 			_TRY_BEGIN
; 2197 : 				_Ptr = this->_Getal().allocate(_Newres + 1);
; 2198 : 			_CATCH_ALL
; 2199 : 			_Tidy(true);	// failed again, discard storage and reraise
; 2200 : 			_RERAISE;
; 2201 : 			_CATCH_END
; 2202 : 		_CATCH_END

  00025	48 8d 05 00 00
	00 00		 lea	 rax, $LN19@catch$107
  0002c	48 83 c4 20	 add	 rsp, 32			; 00000020H
  00030	5d		 pop	 rbp
  00031	c3		 ret	 0
  00032	cc		 int	 3
?catch$107@?0??_Copy@?$basic_string@DU?$char_traits@D@std@@V?$allocator@D@2@@std@@QEAAX_K0@Z@4HA ENDP ; `std::basic_string<char,std::char_traits<char>,std::allocator<char> >::_Copy'::`1'::catch$107
$T1 = 32
this$ = 96
_Newres$ = 104
_Newsize$ = 104
_Oldlen$ = 112
_Ptr$ = 120
?catch$106@?0??_Copy@?$basic_string@DU?$char_traits@D@std@@V?$allocator@D@2@@std@@QEAAX_K0@Z@4HA PROC ; `std::basic_string<char,std::char_traits<char>,std::allocator<char> >::_Copy'::`1'::catch$106

; 2194 : 		_CATCH_ALL
; 2195 : 			_Newres = _Newsize;	// allocation failed, undo roundup and retry
; 2196 : 			_TRY_BEGIN
; 2197 : 				_Ptr = this->_Getal().allocate(_Newres + 1);
; 2198 : 			_CATCH_ALL

  00033	48 89 54 24 10	 mov	 QWORD PTR [rsp+16], rdx
  00038	53		 push	 rbx
  00039	55		 push	 rbp
  0003a	48 83 ec 28	 sub	 rsp, 40			; 00000028H
  0003e	48 8b ea	 mov	 rbp, rdx
__catch$?_Copy@?$basic_string@DU?$char_traits@D@std@@V?$allocator@D@2@@std@@QEAAX_K0@Z$1:

; 729  : 		return (_Get_data()._Myres);

  00041	48 8b 5d 60	 mov	 rbx, QWORD PTR this$[rbp]

; 2248 : 		else if (this->_BUF_SIZE <= this->_Myres())

  00045	48 8b 43 18	 mov	 rax, QWORD PTR [rbx+24]
  00049	48 83 f8 10	 cmp	 rax, 16
  0004d	72 57		 jb	 SHORT $LN236@catch$106

; 2249 : 			{	// copy any leftovers to small buffer and deallocate
; 2250 : 			pointer _Ptr = this->_Bx()._Ptr;
; 2251 : 			this->_Getal().destroy(_STD addressof(this->_Bx()._Ptr));
; 2252 : 			if (0 < _Newsize)
; 2253 : 				_Traits::copy(this->_Bx()._Buf,
; 2254 : 					_Unfancy(_Ptr), _Newsize);
; 2255 : 			this->_Getal().deallocate(_Ptr, this->_Myres() + 1);

  0004f	48 ff c0	 inc	 rax
; File c:\users\alist_000\cppmisc\packages\visualcpptools.14.0.24224-pre\lib\native\include\xmemory0

; 720  : 		_Deallocate(_Ptr, _Count, sizeof (_Ty));

  00052	48 8b 0b	 mov	 rcx, QWORD PTR [rbx]

; 94   : 	_SCL_SECURE_ALWAYS_VALIDATE(_Count <= (size_t)(-1) / _Sz);

  00055	48 83 f8 ff	 cmp	 rax, -1
  00059	76 06		 jbe	 SHORT $LN230@catch$106
  0005b	e8 00 00 00 00	 call	 _invalid_parameter_noinfo_noreturn
  00060	cc		 int	 3
$LN230@catch$106:

; 84   : 		_SCL_SECURE_ALWAYS_VALIDATE(_Ptr != 0);
; 85   : 		}
; 86   : 	return (_Ptr);
; 87   : 	}
; 88   : 
; 89   : 		// FUNCTION _Deallocate
; 90   : inline
; 91   : 	void _Deallocate(void * _Ptr, size_t _Count, size_t _Sz)
; 92   : 	{	// deallocate storage for _Count elements of size _Sz
; 93   :  #if defined(_M_IX86) || defined(_M_X64)
; 94   : 	_SCL_SECURE_ALWAYS_VALIDATE(_Count <= (size_t)(-1) / _Sz);
; 95   : 	const size_t _User_size = _Count * _Sz;
; 96   : 	if (_BIG_ALLOCATION_THRESHOLD <= _User_size)

  00061	48 3d 00 10 00
	00		 cmp	 rax, 4096		; 00001000H
  00067	72 38		 jb	 SHORT $LN231@catch$106

; 97   : 		{	// deallocate large block
; 98   : 		const uintptr_t _Ptr_user = reinterpret_cast<uintptr_t>(_Ptr);
; 99   : 		_SCL_SECURE_ALWAYS_VALIDATE(

  00069	f6 c1 1f	 test	 cl, 31
  0006c	74 06		 je	 SHORT $LN232@catch$106
  0006e	e8 00 00 00 00	 call	 _invalid_parameter_noinfo_noreturn
  00073	cc		 int	 3
$LN232@catch$106:

; 100  : 			(_Ptr_user & (_BIG_ALLOCATION_ALIGNMENT - 1)) == 0);
; 101  : 		const uintptr_t _Ptr_ptr = _Ptr_user - sizeof(void *);
; 102  : 		const uintptr_t _Ptr_container =
; 103  : 			*reinterpret_cast<uintptr_t *>(_Ptr_ptr);

  00074	48 8b 41 f8	 mov	 rax, QWORD PTR [rcx-8]

; 104  : 
; 105  :  #ifdef _DEBUG
; 106  : 		// If the following asserts, it likely means that we are performing
; 107  : 		// an aligned delete on memory coming from an unaligned allocation.
; 108  : 		_SCL_SECURE_ALWAYS_VALIDATE(
; 109  : 			reinterpret_cast<uintptr_t *>(_Ptr_ptr)[-1] ==
; 110  : 				_BIG_ALLOCATION_SENTINEL);
; 111  :  #endif /* _DEBUG */
; 112  : 
; 113  : 		// Extra paranoia on aligned allocation/deallocation
; 114  : 		_SCL_SECURE_ALWAYS_VALIDATE(_Ptr_container < _Ptr_user);

  00078	48 3b c1	 cmp	 rax, rcx
  0007b	72 06		 jb	 SHORT $LN233@catch$106
  0007d	e8 00 00 00 00	 call	 _invalid_parameter_noinfo_noreturn
  00082	cc		 int	 3
$LN233@catch$106:

; 115  : 
; 116  :  #ifdef _DEBUG
; 117  : 		_SCL_SECURE_ALWAYS_VALIDATE(2 * sizeof(void *)
; 118  : 			<= _Ptr_user - _Ptr_container);
; 119  : 
; 120  :  #else /* _DEBUG */
; 121  : 		_SCL_SECURE_ALWAYS_VALIDATE(sizeof(void *)

  00083	48 2b c8	 sub	 rcx, rax
  00086	48 83 f9 08	 cmp	 rcx, 8
  0008a	73 06		 jae	 SHORT $LN234@catch$106
  0008c	e8 00 00 00 00	 call	 _invalid_parameter_noinfo_noreturn
  00091	cc		 int	 3
$LN234@catch$106:

; 122  : 			<= _Ptr_user - _Ptr_container);
; 123  :  #endif /* _DEBUG */
; 124  : 
; 125  : 		_SCL_SECURE_ALWAYS_VALIDATE(_Ptr_user - _Ptr_container

  00092	48 83 f9 27	 cmp	 rcx, 39			; 00000027H
  00096	76 06		 jbe	 SHORT $LN235@catch$106
  00098	e8 00 00 00 00	 call	 _invalid_parameter_noinfo_noreturn
  0009d	cc		 int	 3
$LN235@catch$106:

; 126  : 			<= _NON_USER_SIZE);
; 127  : 
; 128  : 		_Ptr = reinterpret_cast<void *>(_Ptr_container);

  0009e	48 8b c8	 mov	 rcx, rax
$LN231@catch$106:

; 129  : 		}
; 130  :  #endif /* defined(_M_IX86) || defined(_M_X64) */
; 131  : 
; 132  : 	::operator delete(_Ptr);

  000a1	e8 00 00 00 00	 call	 ??3@YAXPEAX@Z		; operator delete
$LN236@catch$106:
; File c:\users\alist_000\cppmisc\packages\visualcpptools.14.0.24224-pre\lib\native\include\xstring

; 2257 : 		this->_Myres() = this->_BUF_SIZE - 1;

  000a6	48 c7 43 18 0f
	00 00 00	 mov	 QWORD PTR [rbx+24], 15

; 2216 : 		_Traits::assign(_Dx._Myptr()[_Dx._Mysize = _Newsize], _Elem());

  000ae	48 c7 43 10 00
	00 00 00	 mov	 QWORD PTR [rbx+16], 0

; 509  : 		return (this->_BUF_SIZE <= _Myres

  000b6	48 83 7b 18 10	 cmp	 QWORD PTR [rbx+24], 16
  000bb	72 03		 jb	 SHORT $LN260@catch$106
; File c:\users\alist_000\cppmisc\packages\visualcpptools.14.0.24224-pre\lib\native\include\xstddef

; 740  : 	return (_Ptr);

  000bd	48 8b 1b	 mov	 rbx, QWORD PTR [rbx]
$LN260@catch$106:
; File c:\users\alist_000\cppmisc\packages\visualcpptools.14.0.24224-pre\lib\native\include\iosfwd

; 565  : 		_Left = _Right;

  000c0	c6 03 00	 mov	 BYTE PTR [rbx], 0
; File c:\users\alist_000\cppmisc\packages\visualcpptools.14.0.24224-pre\lib\native\include\xstring

; 2194 : 		_CATCH_ALL
; 2195 : 			_Newres = _Newsize;	// allocation failed, undo roundup and retry
; 2196 : 			_TRY_BEGIN
; 2197 : 				_Ptr = this->_Getal().allocate(_Newres + 1);
; 2198 : 			_CATCH_ALL
; 2199 : 			_Tidy(true);	// failed again, discard storage and reraise
; 2200 : 			_RERAISE;

  000c3	33 d2		 xor	 edx, edx
  000c5	33 c9		 xor	 ecx, ecx
  000c7	e8 00 00 00 00	 call	 _CxxThrowException
  000cc	90		 npad	 1
?catch$106@?0??_Copy@?$basic_string@DU?$char_traits@D@std@@V?$allocator@D@2@@std@@QEAAX_K0@Z@4HA ENDP ; `std::basic_string<char,std::char_traits<char>,std::allocator<char> >::_Copy'::`1'::catch$106
text$x	ENDS
; Function compile flags: /Ogtpy
;	COMDAT text$x
text$x	SEGMENT
$T1 = 32
this$ = 96
_Newres$ = 104
_Newsize$ = 104
_Oldlen$ = 112
_Ptr$ = 120
?catch$107@?0??_Copy@?$basic_string@DU?$char_traits@D@std@@V?$allocator@D@2@@std@@QEAAX_K0@Z@4HA PROC ; `std::basic_string<char,std::char_traits<char>,std::allocator<char> >::_Copy'::`1'::catch$107

; 2194 : 		_CATCH_ALL

  00000	48 89 54 24 10	 mov	 QWORD PTR [rsp+16], rdx
  00005	55		 push	 rbp
  00006	48 83 ec 20	 sub	 rsp, 32			; 00000020H
  0000a	48 8b ea	 mov	 rbp, rdx
__catch$?_Copy@?$basic_string@DU?$char_traits@D@std@@V?$allocator@D@2@@std@@QEAAX_K0@Z$0:

; 2195 : 			_Newres = _Newsize;	// allocation failed, undo roundup and retry

  0000d	48 8b 55 68	 mov	 rdx, QWORD PTR _Newsize$[rbp]
  00011	48 89 55 68	 mov	 QWORD PTR _Newres$[rbp], rdx

; 2196 : 			_TRY_BEGIN
; 2197 : 				_Ptr = this->_Getal().allocate(_Newres + 1);

  00015	48 ff c2	 inc	 rdx
  00018	48 8b 4d 60	 mov	 rcx, QWORD PTR this$[rbp]
  0001c	e8 00 00 00 00	 call	 ?allocate@?$_Wrap_alloc@V?$allocator@D@std@@@std@@QEAAPEAD_K@Z ; std::_Wrap_alloc<std::allocator<char> >::allocate
  00021	48 89 45 78	 mov	 QWORD PTR _Ptr$[rbp], rax

; 2198 : 			_CATCH_ALL
; 2199 : 			_Tidy(true);	// failed again, discard storage and reraise
; 2200 : 			_RERAISE;
; 2201 : 			_CATCH_END
; 2202 : 		_CATCH_END

  00025	48 8d 05 00 00
	00 00		 lea	 rax, $LN19@catch$107
  0002c	48 83 c4 20	 add	 rsp, 32			; 00000020H
  00030	5d		 pop	 rbp
  00031	c3		 ret	 0
  00032	cc		 int	 3
?catch$107@?0??_Copy@?$basic_string@DU?$char_traits@D@std@@V?$allocator@D@2@@std@@QEAAX_K0@Z@4HA ENDP ; `std::basic_string<char,std::char_traits<char>,std::allocator<char> >::_Copy'::`1'::catch$107
text$x	ENDS
; Function compile flags: /Ogtpy
; File c:\users\alist_000\cppmisc\packages\visualcpptools.14.0.24224-pre\lib\native\include\xmemory0
; File c:\users\alist_000\cppmisc\packages\visualcpptools.14.0.24224-pre\lib\native\include\xstring
; File c:\users\alist_000\cppmisc\packages\visualcpptools.14.0.24224-pre\lib\native\include\xstddef
; File c:\users\alist_000\cppmisc\packages\visualcpptools.14.0.24224-pre\lib\native\include\iosfwd
; File c:\users\alist_000\cppmisc\packages\visualcpptools.14.0.24224-pre\lib\native\include\xstring
;	COMDAT text$x
text$x	SEGMENT
$T1 = 32
this$ = 96
_Newres$ = 104
_Newsize$ = 104
_Oldlen$ = 112
_Ptr$ = 120
?catch$106@?0??_Copy@?$basic_string@DU?$char_traits@D@std@@V?$allocator@D@2@@std@@QEAAX_K0@Z@4HA PROC ; `std::basic_string<char,std::char_traits<char>,std::allocator<char> >::_Copy'::`1'::catch$106

; 730  : 		}
; 731  : 
; 732  : 	const size_type& _Myres() const _NOEXCEPT
; 733  : 		{	// return const reference to _Myres
; 734  : 		return (_Get_data()._Myres);
; 735  : 		}
; 736  : 
; 737  : private:
; 738  : 	_Compressed_pair<_Alty, _String_val<_Val_types> > _Mypair;
; 739  : 	};
; 740  : 
; 741  : 		// TEMPLATE CLASS basic_string
; 742  : template<class _Elem,
; 743  : 	class _Traits,
; 744  : 	class _Alloc>
; 745  : 	class basic_string
; 746  : 		: public _String_alloc<_String_base_types<_Elem, _Alloc> >
; 747  : 	{	// null-terminated transparent array of elements
; 748  : public:
; 749  : 	typedef basic_string<_Elem, _Traits, _Alloc> _Myt;
; 750  : 	typedef _String_alloc<_String_base_types<_Elem, _Alloc> > _Mybase;
; 751  : 	typedef _Traits traits_type;
; 752  : 	typedef _Alloc allocator_type;
; 753  : 
; 754  : 	typedef typename _Mybase::_Alty _Alty;
; 755  : 
; 756  : 	typedef typename _Mybase::value_type value_type;
; 757  : 	typedef typename _Mybase::size_type size_type;
; 758  : 	typedef typename _Mybase::difference_type difference_type;
; 759  : 	typedef typename _Mybase::pointer pointer;
; 760  : 	typedef typename _Mybase::const_pointer const_pointer;
; 761  : 	typedef typename _Mybase::reference reference;
; 762  : 	typedef typename _Mybase::const_reference const_reference;
; 763  : 
; 764  : 	typedef typename _Mybase::iterator iterator;
; 765  : 	typedef typename _Mybase::const_iterator const_iterator;
; 766  : 
; 767  : 	typedef _STD reverse_iterator<iterator> reverse_iterator;
; 768  : 	typedef _STD reverse_iterator<const_iterator> const_reverse_iterator;
; 769  : 
; 770  : 	basic_string(const _Myt& _Right)
; 771  : 
; 772  : 		: _Mybase(_Right._Getal().select_on_container_copy_construction())
; 773  : 
; 774  : 
; 775  : 		{	// construct by copying _Right
; 776  : 		_Tidy();
; 777  : 		assign(_Right, 0, npos);
; 778  : 		}
; 779  : 
; 780  : 	basic_string(const _Myt& _Right, const _Alloc& _Al)
; 781  : 		: _Mybase(_Al)
; 782  : 		{	// construct by copying with allocator
; 783  : 		_Tidy();
; 784  : 		assign(_Right, 0, npos);
; 785  : 		}
; 786  : 
; 787  : 	basic_string() _NOEXCEPT_OP(is_nothrow_default_constructible<_Alloc>::value)
; 788  : 		: _Mybase()
; 789  : 		{	// construct empty string
; 790  : 		_Tidy();
; 791  : 		}
; 792  : 
; 793  : 	explicit basic_string(const _Alloc& _Al) _NOEXCEPT
; 794  : 		: _Mybase(_Al)
; 795  : 		{	// construct empty string with allocator
; 796  : 		_Tidy();
; 797  : 		}
; 798  : 
; 799  : 	basic_string(const _Myt& _Right, size_type _Roff,
; 800  : 		size_type _Count = npos)
; 801  : 		: _Mybase(_Right._Getal())
; 802  : 		{	// construct from _Right [_Roff, _Roff + _Count)
; 803  : 		_Tidy();
; 804  : 		assign(_Right, _Roff, _Count);
; 805  : 		}
; 806  : 
; 807  : 	basic_string(const _Myt& _Right, size_type _Roff, size_type _Count,
; 808  : 		const _Alloc& _Al)
; 809  : 		: _Mybase(_Al)
; 810  : 		{	// construct from _Right [_Roff, _Roff + _Count) with allocator
; 811  : 		_Tidy();
; 812  : 		assign(_Right, _Roff, _Count);
; 813  : 		}
; 814  : 
; 815  : 	basic_string(const _Elem *_Ptr, size_type _Count)
; 816  : 		: _Mybase()
; 817  : 		{	// construct from [_Ptr, _Ptr + _Count)
; 818  : 		_Tidy();
; 819  : 		assign(_Ptr, _Count);
; 820  : 		}
; 821  : 
; 822  : 	basic_string(const _Elem *_Ptr, size_type _Count, const _Alloc& _Al)
; 823  : 		: _Mybase(_Al)
; 824  : 		{	// construct from [_Ptr, _Ptr + _Count) with allocator
; 825  : 		_Tidy();
; 826  : 		assign(_Ptr, _Count);
; 827  : 		}
; 828  : 
; 829  : 	basic_string(const _Elem *_Ptr)
; 830  : 		: _Mybase()
; 831  : 		{	// construct from [_Ptr, <null>)
; 832  : 		_Tidy();
; 833  : 		assign(_Ptr);
; 834  : 		}
; 835  : 
; 836  : 	basic_string(const _Elem *_Ptr, const _Alloc& _Al)
; 837  : 		: _Mybase(_Al)
; 838  : 		{	// construct from [_Ptr, <null>) with allocator
; 839  : 		_Tidy();
; 840  : 		assign(_Ptr);
; 841  : 		}
; 842  : 
; 843  : 	basic_string(size_type _Count, _Elem _Ch)
; 844  : 		: _Mybase()
; 845  : 		{	// construct from _Count * _Ch
; 846  : 		_Tidy();
; 847  : 		assign(_Count, _Ch);
; 848  : 		}
; 849  : 
; 850  : 	basic_string(size_type _Count, _Elem _Ch, const _Alloc& _Al)
; 851  : 		: _Mybase(_Al)
; 852  : 		{	// construct from _Count * _Ch with allocator
; 853  : 		_Tidy();
; 854  : 		assign(_Count, _Ch);
; 855  : 		}
; 856  : 
; 857  : 	template<class _Iter,
; 858  : 		class = typename enable_if<_Is_iterator<_Iter>::value,
; 859  : 			void>::type>
; 860  : 		basic_string(_Iter _First, _Iter _Last, const _Alloc& _Al = _Alloc())
; 861  : 		: _Mybase(_Al)
; 862  : 		{	// construct from [_First, _Last) with optional allocator
; 863  : 		_DEBUG_RANGE(_First, _Last);
; 864  : 		_Tidy();
; 865  : 		_Construct(_Unchecked(_First), _Unchecked(_Last), _Iter_cat_t<_Iter>());
; 866  : 		}
; 867  : 
; 868  : 	template<class _Iter>
; 869  : 		void _Construct(_Iter _First,
; 870  : 			_Iter _Last, input_iterator_tag)
; 871  : 		{	// initialize from [_First, _Last), input iterators
; 872  : 		_TRY_BEGIN
; 873  : 		for (; _First != _Last; ++_First)
; 874  : 			append((size_type)1, (_Elem)*_First);
; 875  : 		_CATCH_ALL
; 876  : 		_Tidy(true);
; 877  : 		_RERAISE;
; 878  : 		_CATCH_END
; 879  : 		}
; 880  : 
; 881  : 	template<class _Iter>
; 882  : 		void _Construct(_Iter _First,
; 883  : 			_Iter _Last, forward_iterator_tag)
; 884  : 		{	// initialize from [_First, _Last), forward iterators
; 885  : 		size_type _Count = _STD distance(_First, _Last);
; 886  : 		reserve(_Count);
; 887  : 		_Construct(_First, _Last, input_iterator_tag());
; 888  : 		}
; 889  : 
; 890  : 	void _Construct(_Elem *_First,
; 891  : 		_Elem *_Last, random_access_iterator_tag)
; 892  : 		{	// initialize from [_First, _Last), pointers
; 893  : 		if (_First != _Last)
; 894  : 			assign(_First, _Last - _First);
; 895  : 		}
; 896  : 
; 897  : 	void _Construct(const _Elem *_First,
; 898  : 		const _Elem *_Last, random_access_iterator_tag)
; 899  : 		{	// initialize from [_First, _Last), const pointers
; 900  : 		if (_First != _Last)
; 901  : 			assign(_First, _Last - _First);
; 902  : 		}
; 903  : 
; 904  : 	basic_string(_Myt&& _Right) _NOEXCEPT
; 905  : 		: _Mybase(_STD move(_Right._Getal()))
; 906  : 		{	// construct by moving _Right
; 907  : 		_Tidy();
; 908  : 		_Assign_rv(_STD forward<_Myt>(_Right));
; 909  : 		}
; 910  : 
; 911  : 	basic_string(_Myt&& _Right, const _Alloc& _Al)
; 912  : 		: _Mybase(_Al)
; 913  : 		{	// construct by moving _Right, allocator
; 914  : 		if (this->_Getal() != _Right._Getal())
; 915  : 			assign(_Right.begin(), _Right.end());
; 916  : 		else
; 917  : 			_Assign_rv(_STD forward<_Myt>(_Right));
; 918  : 		}
; 919  : 
; 920  : 	_Myt& operator=(_Myt&& _Right)
; 921  : 		_NOEXCEPT_OP(_Alty::propagate_on_container_move_assignment::value
; 922  : 			|| _Alty::is_always_equal::value)
; 923  : 		{	// assign by moving _Right
; 924  : 		if (this != &_Right)
; 925  : 			{	// different, assign it
; 926  : 			_Tidy(true);
; 927  : 
; 928  : 			if (_Alty::propagate_on_container_move_assignment::value
; 929  : 				&& this->_Getal() != _Right._Getal())
; 930  : 				this->_Move_alloc(_Right._Getal());
; 931  : 
; 932  : 			if (this->_Getal() != _Right._Getal())
; 933  : 				assign(_Right.begin(), _Right.end());
; 934  : 			else
; 935  : 				_Assign_rv(_STD forward<_Myt>(_Right));
; 936  : 			}
; 937  : 		return (*this);
; 938  : 		}
; 939  : 
; 940  : 	_Myt& assign(_Myt&& _Right) _NOEXCEPT
; 941  : 		{	// assign by moving _Right
; 942  : 		if (this == &_Right)
; 943  : 			;
; 944  : 		else if (get_allocator() != _Right.get_allocator()
; 945  : 			&& this->_BUF_SIZE <= _Right._Myres())
; 946  : 			*this = _Right;
; 947  : 		else
; 948  : 			{	// not same, clear this and steal from _Right
; 949  : 			_Tidy(true);
; 950  : 			_Assign_rv(_STD forward<_Myt>(_Right));
; 951  : 			}
; 952  : 		return (*this);
; 953  : 		}
; 954  : 
; 955  : 	void _Assign_rv(_Myt&& _Right)
; 956  : 		{	// assign by moving _Right
; 957  : 		if (_Right._Myres() < this->_BUF_SIZE)
; 958  : 			_Traits::move(this->_Bx()._Buf, _Right._Bx()._Buf,
; 959  : 				_Right._Mysize() + 1);
; 960  : 		else
; 961  : 			{	// copy pointer
; 962  : 			this->_Getal().construct(_STD addressof(this->_Bx()._Ptr), _Right._Bx()._Ptr);
; 963  : 			_Right._Bx()._Ptr = pointer();
; 964  : 			}
; 965  : 		this->_Mysize() = _Right._Mysize();
; 966  : 		this->_Myres() = _Right._Myres();
; 967  : 		_Right._Tidy();
; 968  : 		}
; 969  : 
; 970  : 	basic_string(_XSTD initializer_list<_Elem> _Ilist,
; 971  : 		const _Alloc& _Al = allocator_type())
; 972  : 		: _Mybase(_Al)
; 973  : 		{	// construct from initializer_list
; 974  : 		_Tidy();
; 975  : 		assign(_Ilist.begin(), _Ilist.end());
; 976  : 		}
; 977  : 
; 978  : 	_Myt& operator=(_XSTD initializer_list<_Elem> _Ilist)
; 979  : 		{	// assign initializer_list
; 980  : 		return (assign(_Ilist.begin(), _Ilist.end()));
; 981  : 		}
; 982  : 
; 983  : 	_Myt& operator+=(_XSTD initializer_list<_Elem> _Ilist)
; 984  : 		{	// append initializer_list
; 985  : 		return (append(_Ilist.begin(), _Ilist.end()));
; 986  : 		}
; 987  : 
; 988  : 	_Myt& assign(_XSTD initializer_list<_Elem> _Ilist)
; 989  : 		{	// assign initializer_list
; 990  : 		return (assign(_Ilist.begin(), _Ilist.end()));
; 991  : 		}
; 992  : 
; 993  : 	_Myt& append(_XSTD initializer_list<_Elem> _Ilist)
; 994  : 		{	// append initializer_list
; 995  : 		return (append(_Ilist.begin(), _Ilist.end()));
; 996  : 		}
; 997  : 
; 998  : 	iterator insert(const_iterator _Where,
; 999  : 		_XSTD initializer_list<_Elem> _Ilist)
; 1000 : 		{	// insert initializer_list
; 1001 : 		return (insert(_Where, _Ilist.begin(), _Ilist.end()));
; 1002 : 		}
; 1003 : 
; 1004 : 	_Myt& replace(const_iterator _First, const_iterator _Last,
; 1005 : 		_XSTD initializer_list<_Elem> _Ilist)
; 1006 : 		{	// replace with initializer_list
; 1007 : 		return (replace(_First, _Last, _Ilist.begin(), _Ilist.end()));
; 1008 : 		}
; 1009 : 
; 1010 : 	~basic_string() _NOEXCEPT
; 1011 : 		{	// destroy the string
; 1012 : 		_Tidy(true);
; 1013 : 		}
; 1014 : 
; 1015 : 	_PGLOBAL static const size_type npos;	// bad/missing length/position
; 1016 : 
; 1017 : 	_Myt& operator=(const _Myt& _Right)
; 1018 : 		{	// assign _Right
; 1019 : 		if (this != &_Right)
; 1020 : 			{	// different, assign it
; 1021 : 			if (this->_Getal() != _Right._Getal()
; 1022 : 				&& _Alty::propagate_on_container_copy_assignment::value)
; 1023 : 				{	// change allocator before copying
; 1024 : 				_Tidy(true);
; 1025 : 				this->_Copy_alloc(_Right._Getal());
; 1026 : 				}
; 1027 : 
; 1028 : 			assign(_Right);
; 1029 : 			}
; 1030 : 		return (*this);
; 1031 : 		}
; 1032 : 
; 1033 : 	_Myt& operator=(const _Elem *_Ptr)
; 1034 : 		{	// assign [_Ptr, <null>)
; 1035 : 		return (assign(_Ptr));
; 1036 : 		}
; 1037 : 
; 1038 : 	_Myt& operator=(_Elem _Ch)
; 1039 : 		{	// assign 1 * _Ch
; 1040 : 		return (assign(1, _Ch));
; 1041 : 		}
; 1042 : 
; 1043 : 	_Myt& operator+=(const _Myt& _Right)
; 1044 : 		{	// append _Right
; 1045 : 		return (append(_Right));
; 1046 : 		}
; 1047 : 
; 1048 : 	_Myt& operator+=(const _Elem *_Ptr)
; 1049 : 		{	// append [_Ptr, <null>)
; 1050 : 		return (append(_Ptr));
; 1051 : 		}
; 1052 : 
; 1053 : 	_Myt& operator+=(_Elem _Ch)
; 1054 : 		{	// append 1 * _Ch
; 1055 : 		return (append((size_type)1, _Ch));
; 1056 : 		}
; 1057 : 
; 1058 : 	_Myt& append(const _Myt& _Right)
; 1059 : 		{	// append _Right
; 1060 : 		return (append(_Right, 0, npos));
; 1061 : 		}
; 1062 : 
; 1063 : 	_Myt& append(const _Myt& _Right,
; 1064 : 		size_type _Roff, size_type _Count = npos)
; 1065 : 		{	// append _Right [_Roff, _Roff + _Count)
; 1066 : 		_Right._Check_offset(_Roff);
; 1067 : 		_Count = _Right._Clamp_suffix_size(_Roff, _Count);
; 1068 : 		if (npos - this->_Mysize() <= _Count)
; 1069 : 			_Xlen();	// result too long
; 1070 : 
; 1071 : 		const size_type _Num = this->_Mysize() + _Count;
; 1072 : 		if (0 < _Count && _Grow(_Num))
; 1073 : 			{	// make room and append new stuff
; 1074 : 			_Traits::copy(this->_Myptr() + this->_Mysize(),
; 1075 : 				_Right._Myptr() + _Roff, _Count);
; 1076 : 			_Eos(_Num);
; 1077 : 			}
; 1078 : 		return (*this);
; 1079 : 		}
; 1080 : 
; 1081 : 	_Myt& append(const _Elem *_Ptr, size_type _Count)
; 1082 : 		{	// append [_Ptr, _Ptr + _Count)
; 1083 : 		_DEBUG_POINTER_IF(_Count != 0, _Ptr);
; 1084 : 		if (_Inside(_Ptr))
; 1085 : 			return (append(*this,
; 1086 : 				_Ptr - this->_Myptr(), _Count));	// substring
; 1087 : 		if (npos - this->_Mysize() <= _Count)
; 1088 : 			_Xlen();	// result too long
; 1089 : 
; 1090 : 		const size_type _Num = this->_Mysize() + _Count;
; 1091 : 		if (0 < _Count && _Grow(_Num))
; 1092 : 			{	// make room and append new stuff
; 1093 : 			_Traits::copy(this->_Myptr() + this->_Mysize(), _Ptr, _Count);
; 1094 : 			_Eos(_Num);
; 1095 : 			}
; 1096 : 		return (*this);
; 1097 : 		}
; 1098 : 
; 1099 : 	_Myt& append(const _Elem *_Ptr)
; 1100 : 		{	// append [_Ptr, <null>)
; 1101 : 		_DEBUG_POINTER(_Ptr);
; 1102 : 		return (append(_Ptr, _Traits::length(_Ptr)));
; 1103 : 		}
; 1104 : 
; 1105 : 	_Myt& append(size_type _Count, _Elem _Ch)
; 1106 : 		{	// append _Count * _Ch
; 1107 : 		if (npos - this->_Mysize() <= _Count)
; 1108 : 			_Xlen();	// result too long
; 1109 : 
; 1110 : 		const size_type _Num = this->_Mysize() + _Count;
; 1111 : 		if (0 < _Count && _Grow(_Num))
; 1112 : 			{	// make room and append new stuff using assign
; 1113 : 			_Chassign(this->_Mysize(), _Count, _Ch);
; 1114 : 			_Eos(_Num);
; 1115 : 			}
; 1116 : 		return (*this);
; 1117 : 		}
; 1118 : 
; 1119 : 	template<class _Iter>
; 1120 : 		typename enable_if<_Is_iterator<_Iter>::value,
; 1121 : 			_Myt&>::type
; 1122 : 		append(_Iter _First, _Iter _Last)
; 1123 : 		{	// append [_First, _Last), input iterators
; 1124 : 		return (replace(end(), end(), _First, _Last));
; 1125 : 		}
; 1126 : 
; 1127 : 	_Myt& append(const_pointer _First, const_pointer _Last)
; 1128 : 		{	// append [_First, _Last), const pointers
; 1129 : 		return (replace(end(), end(), _First, _Last));
; 1130 : 		}
; 1131 : 
; 1132 : 	_Myt& append(const_iterator _First, const_iterator _Last)
; 1133 : 		{	// append [_First, _Last), const_iterators
; 1134 : 		return (replace(end(), end(), _First, _Last));
; 1135 : 		}
; 1136 : 
; 1137 : 	_Myt& assign(const _Myt& _Right)
; 1138 : 		{	// assign _Right
; 1139 : 		return (assign(_Right, 0, npos));
; 1140 : 		}
; 1141 : 
; 1142 : 	_Myt& assign(const _Myt& _Right,
; 1143 : 		size_type _Roff, size_type _Count = npos)
; 1144 : 		{	// assign _Right [_Roff, _Roff + _Count)
; 1145 : 		_Right._Check_offset(_Roff);
; 1146 : 		_Count = _Right._Clamp_suffix_size(_Roff, _Count);
; 1147 : 
; 1148 : 		if (this == &_Right)
; 1149 : 			erase((size_type)(_Roff + _Count)), erase(0, _Roff);	// substring
; 1150 : 		else if (_Grow(_Count))
; 1151 : 			{	// make room and assign new stuff
; 1152 : 			_Traits::copy(this->_Myptr(),
; 1153 : 				_Right._Myptr() + _Roff, _Count);
; 1154 : 			_Eos(_Count);
; 1155 : 			}
; 1156 : 		return (*this);
; 1157 : 		}
; 1158 : 
; 1159 : 	_Myt& assign(const _Elem *_Ptr, size_type _Count)
; 1160 : 		{	// assign [_Ptr, _Ptr + _Count)
; 1161 : 		_DEBUG_POINTER_IF(_Count != 0, _Ptr);
; 1162 : 		if (_Inside(_Ptr))
; 1163 : 			return (assign(*this,
; 1164 : 				_Ptr - this->_Myptr(), _Count));	// substring
; 1165 : 
; 1166 : 		if (_Grow(_Count))
; 1167 : 			{	// make room and assign new stuff
; 1168 : 			_Traits::copy(this->_Myptr(), _Ptr, _Count);
; 1169 : 			_Eos(_Count);
; 1170 : 			}
; 1171 : 		return (*this);
; 1172 : 		}
; 1173 : 
; 1174 : 	_Myt& assign(const _Elem *_Ptr)
; 1175 : 		{	// assign [_Ptr, <null>)
; 1176 : 		_DEBUG_POINTER(_Ptr);
; 1177 : 		return (assign(_Ptr, _Traits::length(_Ptr)));
; 1178 : 		}
; 1179 : 
; 1180 : 	_Myt& assign(size_type _Count, _Elem _Ch)
; 1181 : 		{	// assign _Count * _Ch
; 1182 : 		if (_Count == npos)
; 1183 : 			_Xlen();	// result too long
; 1184 : 
; 1185 : 		if (_Grow(_Count))
; 1186 : 			{	// make room and assign new stuff
; 1187 : 			_Chassign(0, _Count, _Ch);
; 1188 : 			_Eos(_Count);
; 1189 : 			}
; 1190 : 		return (*this);
; 1191 : 		}
; 1192 : 
; 1193 : 	template<class _Iter>
; 1194 : 		typename enable_if<_Is_iterator<_Iter>::value,
; 1195 : 			_Myt&>::type
; 1196 : 		assign(_Iter _First, _Iter _Last)
; 1197 : 		{	// assign [_First, _Last), input iterators
; 1198 : 		return (replace(begin(), end(), _First, _Last));
; 1199 : 		}
; 1200 : 
; 1201 : 	_Myt& assign(const_pointer _First, const_pointer _Last)
; 1202 : 		{	// assign [_First, _Last), const pointers
; 1203 : 		return (replace(begin(), end(), _First, _Last));
; 1204 : 		}
; 1205 : 
; 1206 : 	_Myt& assign(const_iterator _First, const_iterator _Last)
; 1207 : 		{	// assign [_First, _Last), const_iterators
; 1208 : 		return (replace(begin(), end(), _First, _Last));
; 1209 : 		}
; 1210 : 
; 1211 : 	_Myt& insert(size_type _Off, const _Myt& _Right)
; 1212 : 		{	// insert _Right at _Off
; 1213 : 		return (insert(_Off, _Right, 0, npos));
; 1214 : 		}
; 1215 : 
; 1216 : 	_Myt& insert(size_type _Off,
; 1217 : 		const _Myt& _Right, size_type _Roff, size_type _Count = npos)
; 1218 : 		{	// insert _Right [_Roff, _Roff + _Count) at _Off
; 1219 : 		_Check_offset(_Off);
; 1220 : 		_Right._Check_offset(_Roff);
; 1221 : 		_Count = _Right._Clamp_suffix_size(_Roff, _Count);
; 1222 : 		if (npos - this->_Mysize() <= _Count)
; 1223 : 			_Xlen();	// result too long
; 1224 : 
; 1225 : 		const size_type _Num = this->_Mysize() + _Count;
; 1226 : 		if (0 < _Count && _Grow(_Num))
; 1227 : 			{	// make room and insert new stuff
; 1228 : 			_Traits::move(this->_Myptr() + _Off + _Count,
; 1229 : 				this->_Myptr() + _Off,
; 1230 : 				this->_Mysize() - _Off);	// empty out hole
; 1231 : 			if (this == &_Right)
; 1232 : 				_Traits::move(this->_Myptr() + _Off,
; 1233 : 					this->_Myptr() + (_Off < _Roff ? _Roff + _Count : _Roff),
; 1234 : 						_Count);	// substring
; 1235 : 			else
; 1236 : 				_Traits::copy(this->_Myptr() + _Off,
; 1237 : 					_Right._Myptr() + _Roff, _Count);	// fill hole
; 1238 : 			_Eos(_Num);
; 1239 : 			}
; 1240 : 		return (*this);
; 1241 : 		}
; 1242 : 
; 1243 : 	_Myt& insert(size_type _Off,
; 1244 : 		const _Elem *_Ptr, size_type _Count)
; 1245 : 		{	// insert [_Ptr, _Ptr + _Count) at _Off
; 1246 : 		_DEBUG_POINTER_IF(_Count != 0, _Ptr);
; 1247 : 		if (_Inside(_Ptr))
; 1248 : 			return (insert(_Off, *this,
; 1249 : 				_Ptr - this->_Myptr(), _Count));	// substring
; 1250 : 		_Check_offset(_Off);
; 1251 : 		if (npos - this->_Mysize() <= _Count)
; 1252 : 			_Xlen();	// result too long
; 1253 : 		const size_type _Num = this->_Mysize() + _Count;
; 1254 : 		if (0 < _Count && _Grow(_Num))
; 1255 : 			{	// make room and insert new stuff
; 1256 : 			_Traits::move(this->_Myptr() + _Off + _Count,
; 1257 : 				this->_Myptr() + _Off,
; 1258 : 				this->_Mysize() - _Off);	// empty out hole
; 1259 : 			_Traits::copy(this->_Myptr() + _Off, _Ptr, _Count);	// fill hole
; 1260 : 			_Eos(_Num);
; 1261 : 			}
; 1262 : 		return (*this);
; 1263 : 		}
; 1264 : 
; 1265 : 	_Myt& insert(size_type _Off, const _Elem *_Ptr)
; 1266 : 		{	// insert [_Ptr, <null>) at _Off
; 1267 : 		_DEBUG_POINTER(_Ptr);
; 1268 : 		return (insert(_Off, _Ptr, _Traits::length(_Ptr)));
; 1269 : 		}
; 1270 : 
; 1271 : 	_Myt& insert(size_type _Off,
; 1272 : 		size_type _Count, _Elem _Ch)
; 1273 : 		{	// insert _Count * _Ch at _Off
; 1274 : 		_Check_offset(_Off);
; 1275 : 		if (npos - this->_Mysize() <= _Count)
; 1276 : 			_Xlen();	// result too long
; 1277 : 		const size_type _Num = this->_Mysize() + _Count;
; 1278 : 		if (0 < _Count && _Grow(_Num))
; 1279 : 			{	// make room and insert new stuff
; 1280 : 			_Traits::move(this->_Myptr() + _Off + _Count,
; 1281 : 				this->_Myptr() + _Off,
; 1282 : 				this->_Mysize() - _Off);	// empty out hole
; 1283 : 			_Chassign(_Off, _Count, _Ch);	// fill hole
; 1284 : 			_Eos(_Num);
; 1285 : 			}
; 1286 : 		return (*this);
; 1287 : 		}
; 1288 : 
; 1289 : 	iterator insert(const_iterator _Where)
; 1290 : 		{	// insert <null> at _Where
; 1291 : 		return (insert(_Where, _Elem()));
; 1292 : 		}
; 1293 : 
; 1294 : 	iterator insert(const_iterator _Where, _Elem _Ch)
; 1295 : 		{	// insert _Ch at _Where
; 1296 : 		size_type _Off = _Where - begin();
; 1297 : 		insert(_Off, 1, _Ch);
; 1298 : 		return (begin() + _Off);
; 1299 : 		}
; 1300 : 
; 1301 : 	iterator insert(const_iterator _Where, size_type _Count, _Elem _Ch)
; 1302 : 		{	// insert _Count * _Elem at _Where
; 1303 : 		size_type _Off = _Where - begin();
; 1304 : 		insert(_Off, _Count, _Ch);
; 1305 : 		return (begin() + _Off);
; 1306 : 		}
; 1307 : 
; 1308 : 	template<class _Iter>
; 1309 : 		typename enable_if<_Is_iterator<_Iter>::value,
; 1310 : 			iterator>::type
; 1311 : 		insert(const_iterator _Where, _Iter _First, _Iter _Last)
; 1312 : 		{	// insert [_First, _Last) at _Where, input iterators
; 1313 : 		size_type _Off = _Where - begin();
; 1314 : 		replace(_Where, _Where, _First, _Last);
; 1315 : 		return (begin() + _Off);
; 1316 : 		}
; 1317 : 
; 1318 : 	iterator insert(const_iterator _Where,
; 1319 : 		const_pointer _First, const_pointer _Last)
; 1320 : 		{	// insert [_First, _Last) at _Where, const pointers
; 1321 : 		size_type _Off = _Where - begin();
; 1322 : 		replace(_Where, _Where, _First, _Last);
; 1323 : 		return (begin() + _Off);
; 1324 : 		}
; 1325 : 
; 1326 : 	iterator insert(const_iterator _Where,
; 1327 : 		const_iterator _First, const_iterator _Last)
; 1328 : 		{	// insert [_First, _Last) at _Where, const_iterators
; 1329 : 		size_type _Off = _Where - begin();
; 1330 : 		replace(_Where, _Where, _First, _Last);
; 1331 : 		return (begin() + _Off);
; 1332 : 		}
; 1333 : 
; 1334 : 	_Myt& erase(size_type _Off = 0)
; 1335 : 		{	// erase elements [_Off, ...)
; 1336 : 		_Check_offset(_Off);
; 1337 : 		_Eos(_Off);
; 1338 : 		return (*this);
; 1339 : 		}
; 1340 : 
; 1341 : 	_Myt& erase(size_type _Off, size_type _Count)
; 1342 : 		{	// erase elements [_Off, _Off + _Count)
; 1343 : 		_Check_offset(_Off);
; 1344 : 		if (this->_Mysize() - _Off <= _Count)
; 1345 : 			_Eos(_Off);	// erase elements [_Off, ...)
; 1346 : 		else if (0 < _Count)
; 1347 : 			{	// move elements down
; 1348 : 			value_type *_Ptr = this->_Myptr() + _Off;
; 1349 : 			size_type _Newsize = this->_Mysize() - _Count;
; 1350 : 			_Traits::move(_Ptr, _Ptr + _Count, _Newsize - _Off);
; 1351 : 			_Eos(_Newsize);
; 1352 : 			}
; 1353 : 		return (*this);
; 1354 : 		}
; 1355 : 
; 1356 : 	iterator erase(const_iterator _Where)
; 1357 : 		{	// erase element at _Where
; 1358 : 		size_type _Count = _Where - begin();
; 1359 : 		erase(_Count, 1);
; 1360 : 		return (begin() + _Count);
; 1361 : 		}
; 1362 : 
; 1363 : 	iterator erase(const_iterator _First, const_iterator _Last)
; 1364 : 		{	// erase substring [_First, _Last)
; 1365 : 		_DEBUG_RANGE(_First, _Last);
; 1366 : 		size_type _Count = _First - begin();
; 1367 : 		erase(_Count, _Last - _First);
; 1368 : 		return (begin() + _Count);
; 1369 : 		}
; 1370 : 
; 1371 : 	void clear() _NOEXCEPT
; 1372 : 		{	// erase all
; 1373 : 		_Eos(0);
; 1374 : 		}
; 1375 : 
; 1376 : 	_Myt& replace(size_type _Off, size_type _N0, const _Myt& _Right)
; 1377 : 		{	// replace [_Off, _Off + _N0) with _Right
; 1378 : 		return (replace(_Off, _N0, _Right, 0, npos));
; 1379 : 		}
; 1380 : 
; 1381 : 	_Myt& replace(size_type _Off,
; 1382 : 		size_type _N0, const _Myt& _Right, size_type _Roff,
; 1383 : 			size_type _Count = npos)
; 1384 : 		{	// replace [_Off, _Off + _N0) with _Right [_Roff, _Roff + _Count)
; 1385 : 		_Check_offset(_Off);
; 1386 : 		_Right._Check_offset(_Roff);
; 1387 : 		_N0 = _Clamp_suffix_size(_Off, _N0);
; 1388 : 		_Count = _Right._Clamp_suffix_size(_Roff, _Count);
; 1389 : 		if (npos - _Count <= this->_Mysize() - _N0)
; 1390 : 			_Xlen();	// result too long
; 1391 : 
; 1392 : 		const size_type _Nm = this->_Mysize() - _N0 - _Off;	// length of kept tail
; 1393 : 		const size_type _Newsize = this->_Mysize() + _Count - _N0;
; 1394 : 		if (this->_Mysize() < _Newsize)
; 1395 : 			_Grow(_Newsize);
; 1396 : 
; 1397 : 		if (_Count == _N0)
; 1398 : 			{	// only one movement required, so _Traits::move handles any overlap
; 1399 : 			_Traits::move(this->_Myptr() + _Off,
; 1400 : 				_Right._Myptr() + _Roff, _Count);	// fill hole
; 1401 : 			}
; 1402 : 		else if (this != &_Right)
; 1403 : 			{	// no overlap, just move down and copy in new stuff
; 1404 : 			_Traits::move(this->_Myptr() + _Off + _Count,
; 1405 : 				this->_Myptr() + _Off + _N0, _Nm);	// empty hole
; 1406 : 			_Traits::copy(this->_Myptr() + _Off,
; 1407 : 				_Right._Myptr() + _Roff, _Count);	// fill hole
; 1408 : 			}
; 1409 : 		else if (_Count < _N0)
; 1410 : 			{	// hole doesn't get larger, just copy in substring
; 1411 : 			_Traits::move(this->_Myptr() + _Off,
; 1412 : 				this->_Myptr() + _Roff, _Count);	// fill hole
; 1413 : 			_Traits::move(this->_Myptr() + _Off + _Count,
; 1414 : 				this->_Myptr() + _Off + _N0, _Nm);	// move tail down
; 1415 : 			}
; 1416 : 		else if (_Roff <= _Off)
; 1417 : 			{	// hole gets larger, substring begins before hole
; 1418 : 			_Traits::move(this->_Myptr() + _Off + _Count,
; 1419 : 				this->_Myptr() + _Off + _N0, _Nm);	// move tail down
; 1420 : 			_Traits::move(this->_Myptr() + _Off,
; 1421 : 				this->_Myptr() + _Roff, _Count);	// fill hole
; 1422 : 			}
; 1423 : 		else if (_Off + _N0 <= _Roff)
; 1424 : 			{	// hole gets larger, substring begins after hole
; 1425 : 			_Traits::move(this->_Myptr() + _Off + _Count,
; 1426 : 				this->_Myptr() + _Off + _N0, _Nm);	// move tail down
; 1427 : 			_Traits::move(this->_Myptr() + _Off,
; 1428 : 				this->_Myptr() + (_Roff + _Count - _N0),
; 1429 : 				_Count);	// fill hole
; 1430 : 			}
; 1431 : 		else
; 1432 : 			{	// hole gets larger, substring begins in hole
; 1433 : 			_Traits::move(this->_Myptr() + _Off,
; 1434 : 				this->_Myptr() + _Roff, _N0);	// fill old hole
; 1435 : 			_Traits::move(this->_Myptr() + _Off + _Count,
; 1436 : 				this->_Myptr() + _Off + _N0, _Nm);	// move tail down
; 1437 : 			_Traits::move(this->_Myptr() + _Off + _N0,
; 1438 : 				this->_Myptr() + _Roff + _Count,
; 1439 : 				_Count - _N0);	// fill rest of new hole
; 1440 : 			}
; 1441 : 
; 1442 : 		_Eos(_Newsize);
; 1443 : 		return (*this);
; 1444 : 		}
; 1445 : 
; 1446 : 	_Myt& replace(size_type _Off,
; 1447 : 		size_type _N0, const _Elem *_Ptr, size_type _Count)
; 1448 : 		{	// replace [_Off, _Off + _N0) with [_Ptr, _Ptr + _Count)
; 1449 : 		_DEBUG_POINTER_IF(_Count != 0, _Ptr);
; 1450 : 		if (_Inside(_Ptr))
; 1451 : 			return (replace(_Off, _N0, *this,
; 1452 : 				_Ptr - this->_Myptr(),
; 1453 : 				_Count));	// substring, replace carefully
; 1454 : 		_Check_offset(_Off);
; 1455 : 		_N0 = _Clamp_suffix_size(_Off, _N0);
; 1456 : 		if (npos - _Count <= this->_Mysize() - _N0)
; 1457 : 			_Xlen();	// result too long
; 1458 : 		size_type _Nm = this->_Mysize() - _N0 - _Off;
; 1459 : 
; 1460 : 		if (_Count < _N0)
; 1461 : 			_Traits::move(this->_Myptr() + _Off + _Count,
; 1462 : 				this->_Myptr() + _Off + _N0,
; 1463 : 				_Nm);	// smaller hole, move tail up
; 1464 : 		const size_type _Num = this->_Mysize() + _Count - _N0;
; 1465 : 		if ((0 < _Count || 0 < _N0)
; 1466 : 			&& _Grow(_Num))
; 1467 : 			{	// make room and rearrange
; 1468 : 			if (_N0 < _Count)
; 1469 : 				_Traits::move(this->_Myptr() + _Off + _Count,
; 1470 : 					this->_Myptr() + _Off + _N0, _Nm);	// move tail down
; 1471 : 			_Traits::copy(this->_Myptr() + _Off, _Ptr, _Count);	// fill hole
; 1472 : 			_Eos(_Num);
; 1473 : 			}
; 1474 : 		return (*this);
; 1475 : 		}
; 1476 : 
; 1477 : 	_Myt& replace(size_type _Off, size_type _N0, const _Elem *_Ptr)
; 1478 : 		{	// replace [_Off, _Off + _N0) with [_Ptr, <null>)
; 1479 : 		_DEBUG_POINTER(_Ptr);
; 1480 : 		return (replace(_Off, _N0, _Ptr, _Traits::length(_Ptr)));
; 1481 : 		}
; 1482 : 
; 1483 : 	_Myt& replace(size_type _Off,
; 1484 : 		size_type _N0, size_type _Count, _Elem _Ch)
; 1485 : 		{	// replace [_Off, _Off + _N0) with _Count * _Ch
; 1486 : 		_Check_offset(_Off);
; 1487 : 		_N0 = _Clamp_suffix_size(_Off, _N0);
; 1488 : 		if (npos - _Count <= this->_Mysize() - _N0)
; 1489 : 			_Xlen();	// result too long
; 1490 : 		size_type _Nm = this->_Mysize() - _N0 - _Off;
; 1491 : 
; 1492 : 		if (_Count < _N0)
; 1493 : 			_Traits::move(this->_Myptr() + _Off + _Count,
; 1494 : 				this->_Myptr() + _Off + _N0,
; 1495 : 				_Nm);	// smaller hole, move tail up
; 1496 : 		const size_type _Num = this->_Mysize() + _Count - _N0;
; 1497 : 		if ((0 < _Count || 0 < _N0)
; 1498 : 			&& _Grow(_Num))
; 1499 : 			{	// make room and rearrange
; 1500 : 			if (_N0 < _Count)
; 1501 : 				_Traits::move(this->_Myptr() + _Off + _Count,
; 1502 : 					this->_Myptr() + _Off + _N0, _Nm);	// move tail down
; 1503 : 			_Chassign(_Off, _Count, _Ch);	// fill hole
; 1504 : 			_Eos(_Num);
; 1505 : 			}
; 1506 : 		return (*this);
; 1507 : 		}
; 1508 : 
; 1509 : 	_Myt& replace(const_iterator _First, const_iterator _Last,
; 1510 : 		const _Myt& _Right)
; 1511 : 		{	// replace [_First, _Last) with _Right
; 1512 : 		return (replace(_First - begin(), _Last - _First, _Right));
; 1513 : 		}
; 1514 : 
; 1515 : 	_Myt& replace(const_iterator _First, const_iterator _Last,
; 1516 : 		const _Elem *_Ptr, size_type _Count)
; 1517 : 		{	// replace [_First, _Last) with [_Ptr, _Ptr + _Count)
; 1518 : 		return (replace(_First - begin(), _Last - _First, _Ptr, _Count));
; 1519 : 		}
; 1520 : 
; 1521 : 	_Myt& replace(const_iterator _First, const_iterator _Last,
; 1522 : 		const _Elem *_Ptr)
; 1523 : 		{	// replace [_First, _Last) with [_Ptr, <null>)
; 1524 : 		return (replace(_First - begin(), _Last - _First, _Ptr));
; 1525 : 		}
; 1526 : 
; 1527 : 	_Myt& replace(const_iterator _First, const_iterator _Last,
; 1528 : 		size_type _Count, _Elem _Ch)
; 1529 : 		{	// replace [_First, _Last) with _Count * _Ch
; 1530 : 		return (replace(_First - begin(), _Last - _First, _Count, _Ch));
; 1531 : 		}
; 1532 : 
; 1533 : 	template<class _Iter>
; 1534 : 		typename enable_if<_Is_iterator<_Iter>::value,
; 1535 : 			_Myt&>::type
; 1536 : 		replace(const_iterator _First, const_iterator _Last,
; 1537 : 			_Iter _First2, _Iter _Last2)
; 1538 : 		{	// replace [_First, _Last) with [_First2, _Last2), input iterators
; 1539 : 		_Myt _Right(_First2, _Last2);
; 1540 : 		replace(_First, _Last, _Right);
; 1541 : 		return (*this);
; 1542 : 		}
; 1543 : 
; 1544 : 	_Myt& replace(const_iterator _First, const_iterator _Last,
; 1545 : 		const_pointer _First2, const_pointer _Last2)
; 1546 : 		{	// replace [_First, _Last) with [_First2, _Last2), const pointers
; 1547 : 		if (_First2 == _Last2)
; 1548 : 			erase(_First - begin(), _Last - _First);
; 1549 : 		else
; 1550 : 			replace(_First - begin(), _Last - _First,
; 1551 : 				&*_First2, _Last2 - _First2);
; 1552 : 		return (*this);
; 1553 : 		}
; 1554 : 
; 1555 : 	_Myt& replace(const_iterator _First, const_iterator _Last,
; 1556 : 		pointer _First2, pointer _Last2)
; 1557 : 		{	// replace [_First, _Last) with [_First2, _Last2), const pointers
; 1558 : 		if (_First2 == _Last2)
; 1559 : 			erase(_First - begin(), _Last - _First);
; 1560 : 		else
; 1561 : 			replace(_First - begin(), _Last - _First,
; 1562 : 				&*_First2, _Last2 - _First2);
; 1563 : 		return (*this);
; 1564 : 		}
; 1565 : 
; 1566 : 	_Myt& replace(const_iterator _First, const_iterator _Last,
; 1567 : 		const_iterator _First2, const_iterator _Last2)
; 1568 : 		{	// replace [_First, _Last) with [_First2, _Last2), const_iterators
; 1569 : 		if (_First2 == _Last2)
; 1570 : 			erase(_First - begin(), _Last - _First);
; 1571 : 		else
; 1572 : 			replace(_First - begin(), _Last - _First,
; 1573 : 				&*_First2, _Last2 - _First2);
; 1574 : 		return (*this);
; 1575 : 		}
; 1576 : 
; 1577 : 	_Myt& replace(const_iterator _First, const_iterator _Last,
; 1578 : 		iterator _First2, iterator _Last2)
; 1579 : 		{	// replace [_First, _Last) with [_First2, _Last2), const_iterators
; 1580 : 		if (_First2 == _Last2)
; 1581 : 			erase(_First - begin(), _Last - _First);
; 1582 : 		else
; 1583 : 			replace(_First - begin(), _Last - _First,
; 1584 : 				&*_First2, _Last2 - _First2);
; 1585 : 		return (*this);
; 1586 : 		}
; 1587 : 
; 1588 : 	iterator begin() _NOEXCEPT
; 1589 : 		{	// return iterator for beginning of mutable sequence
; 1590 : 		auto _Mydata = &this->_Get_data();
; 1591 : 		return (iterator(this->_Getal().address(*_Mydata->_Myptr()), _Mydata));
; 1592 : 		}
; 1593 : 
; 1594 : 	const_iterator begin() const _NOEXCEPT
; 1595 : 		{	// return iterator for beginning of nonmutable sequence
; 1596 : 		auto _Mydata = &this->_Get_data();
; 1597 : 		return (const_iterator(this->_Getal().address(*_Mydata->_Myptr()), _Mydata));
; 1598 : 		}
; 1599 : 
; 1600 : 	iterator end() _NOEXCEPT
; 1601 : 		{	// return iterator for end of mutable sequence
; 1602 : 		auto _Mydata = &this->_Get_data();
; 1603 : 		return (iterator(this->_Getal().address(*_Mydata->_Myptr()) + _Mydata->_Mysize, _Mydata));
; 1604 : 		}
; 1605 : 
; 1606 : 	const_iterator end() const _NOEXCEPT
; 1607 : 		{	// return iterator for end of nonmutable sequence
; 1608 : 		auto _Mydata = &this->_Get_data();
; 1609 : 		return (const_iterator(this->_Getal().address(*_Mydata->_Myptr()) + _Mydata->_Mysize, _Mydata));
; 1610 : 		}
; 1611 : 
; 1612 : 	reverse_iterator rbegin() _NOEXCEPT
; 1613 : 		{	// return iterator for beginning of reversed mutable sequence
; 1614 : 		return (reverse_iterator(end()));
; 1615 : 		}
; 1616 : 
; 1617 : 	const_reverse_iterator rbegin() const _NOEXCEPT
; 1618 : 		{	// return iterator for beginning of reversed nonmutable sequence
; 1619 : 		return (const_reverse_iterator(end()));
; 1620 : 		}
; 1621 : 
; 1622 : 	reverse_iterator rend() _NOEXCEPT
; 1623 : 		{	// return iterator for end of reversed mutable sequence
; 1624 : 		return (reverse_iterator(begin()));
; 1625 : 		}
; 1626 : 
; 1627 : 	const_reverse_iterator rend() const _NOEXCEPT
; 1628 : 		{	// return iterator for end of reversed nonmutable sequence
; 1629 : 		return (const_reverse_iterator(begin()));
; 1630 : 		}
; 1631 : 
; 1632 : 	const_iterator cbegin() const _NOEXCEPT
; 1633 : 		{	// return iterator for beginning of nonmutable sequence
; 1634 : 		return (begin());
; 1635 : 		}
; 1636 : 
; 1637 : 	const_iterator cend() const _NOEXCEPT
; 1638 : 		{	// return iterator for end of nonmutable sequence
; 1639 : 		return (end());
; 1640 : 		}
; 1641 : 
; 1642 : 	const_reverse_iterator crbegin() const _NOEXCEPT
; 1643 : 		{	// return iterator for beginning of reversed nonmutable sequence
; 1644 : 		return (rbegin());
; 1645 : 		}
; 1646 : 
; 1647 : 	const_reverse_iterator crend() const _NOEXCEPT
; 1648 : 		{	// return iterator for end of reversed nonmutable sequence
; 1649 : 		return (rend());
; 1650 : 		}
; 1651 : 
; 1652 : 	void shrink_to_fit()
; 1653 : 		{	// reduce capacity
; 1654 : 		if ((size() | this->_ALLOC_MASK) < capacity())
; 1655 : 			{	// worth shrinking, do it
; 1656 : 			_Myt _Tmp(*this);
; 1657 : 			swap(_Tmp);
; 1658 : 			}
; 1659 : 		}
; 1660 : 
; 1661 : 	reference at(size_type _Off)
; 1662 : 		{	// subscript mutable sequence with checking
; 1663 : 		_Check_offset_exclusive(_Off);
; 1664 : 		return (this->_Myptr()[_Off]);
; 1665 : 		}
; 1666 : 
; 1667 : 	const_reference at(size_type _Off) const
; 1668 : 		{	// subscript nonmutable sequence with checking
; 1669 : 		_Check_offset_exclusive(_Off);
; 1670 : 		return (this->_Myptr()[_Off]);
; 1671 : 		}
; 1672 : 
; 1673 : 	reference operator[](size_type _Off)
; 1674 : 		{	// subscript mutable sequence
; 1675 :  #if _ITERATOR_DEBUG_LEVEL == 2
; 1676 : 		if (this->_Mysize() < _Off)	// sic
; 1677 : 			{
; 1678 : 			_DEBUG_ERROR("string subscript out of range");
; 1679 : 			}
; 1680 :  #elif _ITERATOR_DEBUG_LEVEL == 1
; 1681 : 		_SCL_SECURE_VALIDATE_RANGE(_Off <= this->_Mysize());	// sic
; 1682 :  #endif /* _ITERATOR_DEBUG_LEVEL == 2 */
; 1683 : 
; 1684 : 		return (this->_Myptr()[_Off]);
; 1685 : 		}
; 1686 : 
; 1687 : 	const_reference operator[](size_type _Off) const
; 1688 : 		{	// subscript nonmutable sequence
; 1689 :  #if _ITERATOR_DEBUG_LEVEL == 2
; 1690 : 		if (this->_Mysize() < _Off)	// sic
; 1691 : 			{
; 1692 : 			_DEBUG_ERROR("string subscript out of range");
; 1693 : 			}
; 1694 :  #elif _ITERATOR_DEBUG_LEVEL == 1
; 1695 : 		_SCL_SECURE_VALIDATE_RANGE(_Off <= this->_Mysize());	// sic
; 1696 :  #endif /* _ITERATOR_DEBUG_LEVEL == 2 */
; 1697 : 
; 1698 : 		return (this->_Myptr()[_Off]);
; 1699 : 		}
; 1700 : 
; 1701 : 	void push_back(_Elem _Ch)
; 1702 : 		{	// insert element at end
; 1703 : 		auto& _Dx = this->_Get_data();
; 1704 : 		auto& _Sz = _Dx._Mysize;
; 1705 : 		if (_Sz == _Dx._Myres)
; 1706 : 			_Grow(_Sz + 1); // _Grow checks for overflow
; 1707 : 		auto _Ptr = _Dx._Myptr();
; 1708 : 		_Traits::assign(_Ptr[_Sz], _Ch);
; 1709 : 		++_Sz;
; 1710 : 		_Traits::assign(_Ptr[_Sz], _Elem());
; 1711 : 		}
; 1712 : 
; 1713 : 	void pop_back()
; 1714 : 		{	// erase element at end
; 1715 : 		erase(this->_Mysize() - 1);	// throws if _Mysize() == 0
; 1716 : 		}
; 1717 : 
; 1718 : 	reference front()
; 1719 : 		{	// return first element of mutable sequence
; 1720 : 		return (*begin());
; 1721 : 		}
; 1722 : 
; 1723 : 	const_reference front() const
; 1724 : 		{	// return first element of nonmutable sequence
; 1725 : 		return (*begin());
; 1726 : 		}
; 1727 : 
; 1728 : 	reference back()
; 1729 : 		{	// return last element of mutable sequence
; 1730 : 		return (*(end() - 1));
; 1731 : 		}
; 1732 : 
; 1733 : 	const_reference back() const
; 1734 : 		{	// return last element of nonmutable sequence
; 1735 : 		return (*(end() - 1));
; 1736 : 		}
; 1737 : 
; 1738 : 	const _Elem *c_str() const _NOEXCEPT
; 1739 : 		{	// return pointer to null-terminated nonmutable array
; 1740 : 		return (this->_Myptr());
; 1741 : 		}
; 1742 : 
; 1743 : 	const _Elem *data() const _NOEXCEPT
; 1744 : 		{	// return pointer to nonmutable array
; 1745 : 		return (this->_Myptr());
; 1746 : 		}
; 1747 : 
; 1748 : #if _HAS_CXX17
; 1749 : 	_Elem *data() _NOEXCEPT
; 1750 : 		{	// return pointer to mutable array
; 1751 : 		return (this->_Myptr());
; 1752 : 		}
; 1753 : #endif /* _HAS_CXX17 */
; 1754 : 
; 1755 : 	size_type length() const _NOEXCEPT
; 1756 : 		{	// return length of sequence
; 1757 : 		return (this->_Mysize());
; 1758 : 		}
; 1759 : 
; 1760 : 	size_type size() const _NOEXCEPT
; 1761 : 		{	// return length of sequence
; 1762 : 		return (this->_Mysize());
; 1763 : 		}
; 1764 : 
; 1765 : 	size_type max_size() const _NOEXCEPT
; 1766 : 		{	// return maximum possible length of sequence
; 1767 : 		const size_type _Num = this->_Getal().max_size();
; 1768 : 		return (_Num <= 1 ? 1 : _Num - 1);
; 1769 : 		}
; 1770 : 
; 1771 : 	void resize(size_type _Newsize)
; 1772 : 		{	// determine new length, padding with null elements as needed
; 1773 : 		resize(_Newsize, _Elem());
; 1774 : 		}
; 1775 : 
; 1776 : 	void resize(size_type _Newsize, _Elem _Ch)
; 1777 : 		{	// determine new length, padding with _Ch elements as needed
; 1778 : 		if (_Newsize <= this->_Mysize())
; 1779 : 			_Eos(_Newsize);
; 1780 : 		else
; 1781 : 			append(_Newsize - this->_Mysize(), _Ch);
; 1782 : 		}
; 1783 : 
; 1784 : 	size_type capacity() const _NOEXCEPT
; 1785 : 		{	// return current length of allocated storage
; 1786 : 		return (this->_Myres());
; 1787 : 		}
; 1788 : 
; 1789 : 	void reserve(size_type _Newcap = 0)
; 1790 : 		{	// determine new minimum length of allocated storage
; 1791 : 		if (this->_Mysize() <= _Newcap && this->_Myres() != _Newcap)
; 1792 : 			{	// change reservation
; 1793 : 			size_type _Size = this->_Mysize();
; 1794 : 			if (_Grow(_Newcap, true))
; 1795 : 				_Eos(_Size);
; 1796 : 			}
; 1797 : 		}
; 1798 : 
; 1799 : 	bool empty() const _NOEXCEPT
; 1800 : 		{	// test if sequence is empty
; 1801 : 		return (this->_Mysize() == 0);
; 1802 : 		}
; 1803 : 
; 1804 : 	_SCL_INSECURE_DEPRECATE_FN(basic_string::copy)
; 1805 : 	size_type copy(_Elem *_Ptr,
; 1806 : 		size_type _Count, size_type _Off = 0) const
; 1807 : 		{	// copy [_Off, _Off + _Count) to [_Ptr, _Ptr + _Count)
; 1808 : 		_DEBUG_POINTER_IF(_Count != 0, _Ptr);
; 1809 : 		_Check_offset(_Off);
; 1810 : 		_Count = _Clamp_suffix_size(_Off, _Count);
; 1811 : 		_Traits::copy(_Ptr, this->_Myptr() + _Off, _Count);
; 1812 : 		return (_Count);
; 1813 : 		}
; 1814 : 
; 1815 : 	size_type _Copy_s(_Elem *_Dest, size_type _Dest_size,
; 1816 : 		size_type _Count, size_type _Off = 0) const
; 1817 : 		{	// copy [_Off, _Off + _Count) to [_Dest, _Dest + _Count)
; 1818 : 		_DEBUG_POINTER_IF(_Count != 0, _Dest);
; 1819 : 		_Check_offset(_Off);
; 1820 : 		_Count = _Clamp_suffix_size(_Off, _Count);
; 1821 : 		_Traits::_Copy_s(_Dest, _Dest_size, this->_Myptr() + _Off, _Count);
; 1822 : 		return (_Count);
; 1823 : 		}
; 1824 : 
; 1825 : 	void _Swap_bx(_Myt& _Right)
; 1826 : 		{	// exchange _Bx() with _Right._Bx()
; 1827 : 		if (this->_BUF_SIZE <= this->_Myres())
; 1828 : 			if (this->_BUF_SIZE <= _Right._Myres())
; 1829 : 				_Swap_adl(this->_Bx()._Ptr, _Right._Bx()._Ptr);
; 1830 : 			else
; 1831 : 				{	// swap large with small
; 1832 : 				pointer _Ptr = this->_Bx()._Ptr;
; 1833 : 				this->_Getal().destroy(_STD addressof(this->_Bx()._Ptr));
; 1834 : 				_Traits::copy(this->_Bx()._Buf,
; 1835 : 					_Right._Bx()._Buf, _Right._Mysize() + 1);
; 1836 : 				this->_Getal().construct(_STD addressof(_Right._Bx()._Ptr), _Ptr);
; 1837 : 				}
; 1838 : 		else
; 1839 : 			if (_Right._Myres() < this->_BUF_SIZE)
; 1840 : 				_STD swap(this->_Bx()._Buf, _Right._Bx()._Buf);
; 1841 : 			else
; 1842 : 				{	// swap small with large
; 1843 : 				pointer _Ptr = _Right._Bx()._Ptr;
; 1844 : 				this->_Getal().destroy(_STD addressof(_Right._Bx()._Ptr));
; 1845 : 				_Traits::copy(_Right._Bx()._Buf,
; 1846 : 					this->_Bx()._Buf, this->_Mysize() + 1);
; 1847 : 				this->_Getal().construct(_STD addressof(this->_Bx()._Ptr), _Ptr);
; 1848 : 				}
; 1849 : 		}
; 1850 : 
; 1851 : 	void swap(_Myt& _Right)
; 1852 : 		_NOEXCEPT_OP(_Alty::propagate_on_container_swap::value
; 1853 : 			|| _Alty::is_always_equal::value)
; 1854 : 		{	// exchange contents with _Right
; 1855 : 		if (this != &_Right)
; 1856 : 			{	// (maybe) swap allocators, swap control information
; 1857 : 			_Pocs(this->_Getal(), _Right._Getal());
; 1858 : 			this->_Swap_all(_Right);
; 1859 : 			_Swap_bx(_Right);
; 1860 : 			_STD swap(this->_Mysize(), _Right._Mysize());
; 1861 : 			_STD swap(this->_Myres(), _Right._Myres());
; 1862 : 			}
; 1863 : 		}
; 1864 : 
; 1865 : 	size_type find(const _Myt& _Right, size_type _Off = 0) const _NOEXCEPT
; 1866 : 		{	// look for _Right beginning at or after _Off
; 1867 : 		return (find(_Right._Myptr(), _Off, _Right.size()));
; 1868 : 		}
; 1869 : 
; 1870 : 	size_type find(const _Elem *_Ptr,
; 1871 : 		size_type _Off, size_type _Count) const
; 1872 : 		{	// look for [_Ptr, _Ptr + _Count) beginning at or after _Off
; 1873 : 		_DEBUG_POINTER_IF(_Count != 0, _Ptr);
; 1874 : 		if (_Count == 0 && _Off <= this->_Mysize())
; 1875 : 			return (_Off);	// null string always matches (if inside string)
; 1876 : 
; 1877 : 		size_type _Nm;
; 1878 : 		if (_Off < this->_Mysize() && _Count <= (_Nm = this->_Mysize() - _Off))
; 1879 : 			{	// room for match, look for it
; 1880 : 			const _Elem *_Uptr, *_Vptr;
; 1881 : 			for (_Nm -= _Count - 1, _Vptr = this->_Myptr() + _Off;
; 1882 : 				(_Uptr = _Traits::find(_Vptr, _Nm, *_Ptr)) != 0;
; 1883 : 				_Nm -= _Uptr - _Vptr + 1, _Vptr = _Uptr + 1)
; 1884 : 				if (_Traits::compare(_Uptr, _Ptr, _Count) == 0)
; 1885 : 					return (_Uptr - this->_Myptr());	// found a match
; 1886 : 			}
; 1887 : 
; 1888 : 		return (npos);	// no match
; 1889 : 		}
; 1890 : 
; 1891 : 	size_type find(const _Elem *_Ptr, size_type _Off = 0) const
; 1892 : 		{	// look for [_Ptr, <null>) beginning at or after _Off
; 1893 : 		_DEBUG_POINTER(_Ptr);
; 1894 : 		return (find(_Ptr, _Off, _Traits::length(_Ptr)));
; 1895 : 		}
; 1896 : 
; 1897 : 	size_type find(_Elem _Ch, size_type _Off = 0) const
; 1898 : 		{	// look for _Ch at or after _Off
; 1899 : 		return (find((const _Elem *)&_Ch, _Off, 1));
; 1900 : 		}
; 1901 : 
; 1902 : 	size_type rfind(const _Myt& _Right, size_type _Off = npos) const _NOEXCEPT
; 1903 : 		{	// look for _Right beginning before _Off
; 1904 : 		return (rfind(_Right._Myptr(), _Off, _Right.size()));
; 1905 : 		}
; 1906 : 
; 1907 : 	size_type rfind(const _Elem *_Ptr,
; 1908 : 		size_type _Off, size_type _Count) const
; 1909 : 		{	// look for [_Ptr, _Ptr + _Count) beginning before _Off
; 1910 : 		_DEBUG_POINTER_IF(_Count != 0, _Ptr);
; 1911 : 		if (_Count == 0)
; 1912 : 			return (_Off < this->_Mysize() ? _Off
; 1913 : 				: this->_Mysize());	// null always matches
; 1914 : 		if (_Count <= this->_Mysize())
; 1915 : 			{	// room for match, look for it
; 1916 : 			const _Elem *_Uptr = this->_Myptr() +
; 1917 : 				(_Off < this->_Mysize() - _Count ? _Off
; 1918 : 					: this->_Mysize() - _Count);
; 1919 : 			for (; ; --_Uptr)
; 1920 : 				if (_Traits::eq(*_Uptr, *_Ptr)
; 1921 : 					&& _Traits::compare(_Uptr, _Ptr, _Count) == 0)
; 1922 : 					return (_Uptr - this->_Myptr());	// found a match
; 1923 : 				else if (_Uptr == this->_Myptr())
; 1924 : 					break;	// at beginning, no more chance for match
; 1925 : 			}
; 1926 : 
; 1927 : 		return (npos);	// no match
; 1928 : 		}
; 1929 : 
; 1930 : 	size_type rfind(const _Elem *_Ptr, size_type _Off = npos) const
; 1931 : 		{	// look for [_Ptr, <null>) beginning before _Off
; 1932 : 		_DEBUG_POINTER(_Ptr);
; 1933 : 		return (rfind(_Ptr, _Off, _Traits::length(_Ptr)));
; 1934 : 		}
; 1935 : 
; 1936 : 	size_type rfind(_Elem _Ch, size_type _Off = npos) const
; 1937 : 		{	// look for _Ch before _Off
; 1938 : 		return (rfind((const _Elem *)&_Ch, _Off, 1));
; 1939 : 		}
; 1940 : 
; 1941 : 	size_type find_first_of(const _Myt& _Right,
; 1942 : 		size_type _Off = 0) const _NOEXCEPT
; 1943 : 		{	// look for one of _Right at or after _Off
; 1944 : 		return (find_first_of(_Right._Myptr(), _Off, _Right.size()));
; 1945 : 		}
; 1946 : 
; 1947 : 	size_type find_first_of(const _Elem *_Ptr,
; 1948 : 		size_type _Off, size_type _Count) const
; 1949 : 		{	// look for one of [_Ptr, _Ptr + _Count) at or after _Off
; 1950 : 		_DEBUG_POINTER_IF(_Count != 0, _Ptr);
; 1951 : 		if (0 < _Count && _Off < this->_Mysize())
; 1952 : 			{	// room for match, look for it
; 1953 : 			const _Elem *const _Vptr = this->_Myptr() + this->_Mysize();
; 1954 : 			for (const _Elem *_Uptr = this->_Myptr() + _Off;
; 1955 : 				_Uptr < _Vptr; ++_Uptr)
; 1956 : 				if (_Traits::find(_Ptr, _Count, *_Uptr) != 0)
; 1957 : 					return (_Uptr - this->_Myptr());	// found a match
; 1958 : 			}
; 1959 : 
; 1960 : 		return (npos);	// no match
; 1961 : 		}
; 1962 : 
; 1963 : 	size_type find_first_of(const _Elem *_Ptr,
; 1964 : 		size_type _Off = 0) const
; 1965 : 		{	// look for one of [_Ptr, <null>) at or after _Off
; 1966 : 		_DEBUG_POINTER(_Ptr);
; 1967 : 		return (find_first_of(_Ptr, _Off, _Traits::length(_Ptr)));
; 1968 : 		}
; 1969 : 
; 1970 : 	size_type find_first_of(_Elem _Ch,
; 1971 : 		size_type _Off = 0) const
; 1972 : 		{	// look for _Ch at or after _Off
; 1973 : 		return (find((const _Elem *)&_Ch, _Off, 1));
; 1974 : 		}
; 1975 : 
; 1976 : 	size_type find_last_of(const _Myt& _Right,
; 1977 : 		size_type _Off = npos) const _NOEXCEPT
; 1978 : 		{	// look for one of _Right before _Off
; 1979 : 		return (find_last_of(_Right._Myptr(), _Off, _Right.size()));
; 1980 : 		}
; 1981 : 
; 1982 : 	size_type find_last_of(const _Elem *_Ptr,
; 1983 : 		size_type _Off, size_type _Count) const
; 1984 : 		{	// look for one of [_Ptr, _Ptr + _Count) before _Off
; 1985 : 		_DEBUG_POINTER_IF(_Count != 0, _Ptr);
; 1986 : 		if (0 < _Count && 0 < this->_Mysize())
; 1987 : 			{	// worth searching, do it
; 1988 : 			const _Elem *_Uptr = this->_Myptr()
; 1989 : 				+ (_Off < this->_Mysize() ? _Off : this->_Mysize() - 1);
; 1990 : 			for (; ; --_Uptr)
; 1991 : 				if (_Traits::find(_Ptr, _Count, *_Uptr) != 0)
; 1992 : 					return (_Uptr - this->_Myptr());	// found a match
; 1993 : 				else if (_Uptr == this->_Myptr())
; 1994 : 					break;	// at beginning, no more chance for match
; 1995 : 			}
; 1996 : 
; 1997 : 		return (npos);	// no match
; 1998 : 		}
; 1999 : 
; 2000 : 	size_type find_last_of(const _Elem *_Ptr,
; 2001 : 		size_type _Off = npos) const
; 2002 : 		{	// look for one of [_Ptr, <null>) before _Off
; 2003 : 		_DEBUG_POINTER(_Ptr);
; 2004 : 		return (find_last_of(_Ptr, _Off, _Traits::length(_Ptr)));
; 2005 : 		}
; 2006 : 
; 2007 : 	size_type find_last_of(_Elem _Ch,
; 2008 : 		size_type _Off = npos) const
; 2009 : 		{	// look for _Ch before _Off
; 2010 : 		return (rfind((const _Elem *)&_Ch, _Off, 1));
; 2011 : 		}
; 2012 : 
; 2013 : 	size_type find_first_not_of(const _Myt& _Right,
; 2014 : 		size_type _Off = 0) const _NOEXCEPT
; 2015 : 		{	// look for none of _Right at or after _Off
; 2016 : 		return (find_first_not_of(_Right._Myptr(), _Off,
; 2017 : 			_Right.size()));
; 2018 : 		}
; 2019 : 
; 2020 : 	size_type find_first_not_of(const _Elem *_Ptr,
; 2021 : 		size_type _Off, size_type _Count) const
; 2022 : 		{	// look for none of [_Ptr, _Ptr + _Count) at or after _Off
; 2023 : 		_DEBUG_POINTER_IF(_Count != 0, _Ptr);
; 2024 : 		if (_Off < this->_Mysize())
; 2025 : 			{	// room for match, look for it
; 2026 : 			const _Elem *const _Vptr = this->_Myptr() + this->_Mysize();
; 2027 : 			for (const _Elem *_Uptr = this->_Myptr() + _Off;
; 2028 : 				_Uptr < _Vptr; ++_Uptr)
; 2029 : 				if (_Traits::find(_Ptr, _Count, *_Uptr) == 0)
; 2030 : 					return (_Uptr - this->_Myptr());
; 2031 : 			}
; 2032 : 		return (npos);
; 2033 : 		}
; 2034 : 
; 2035 : 	size_type find_first_not_of(const _Elem *_Ptr,
; 2036 : 		size_type _Off = 0) const
; 2037 : 		{	// look for one of [_Ptr, <null>) at or after _Off
; 2038 : 		_DEBUG_POINTER(_Ptr);
; 2039 : 		return (find_first_not_of(_Ptr, _Off, _Traits::length(_Ptr)));
; 2040 : 		}
; 2041 : 
; 2042 : 	size_type find_first_not_of(_Elem _Ch,
; 2043 : 		size_type _Off = 0) const
; 2044 : 		{	// look for non _Ch at or after _Off
; 2045 : 		return (find_first_not_of((const _Elem *)&_Ch, _Off, 1));
; 2046 : 		}
; 2047 : 
; 2048 : 	size_type find_last_not_of(const _Myt& _Right,
; 2049 : 		size_type _Off = npos) const _NOEXCEPT
; 2050 : 		{	// look for none of _Right before _Off
; 2051 : 		return (find_last_not_of(_Right._Myptr(), _Off, _Right.size()));
; 2052 : 		}
; 2053 : 
; 2054 : 	size_type find_last_not_of(const _Elem *_Ptr,
; 2055 : 		size_type _Off, size_type _Count) const
; 2056 : 		{	// look for none of [_Ptr, _Ptr + _Count) before _Off
; 2057 : 		_DEBUG_POINTER_IF(_Count != 0, _Ptr);
; 2058 : 		if (0 < this->_Mysize())
; 2059 : 			{	// worth searching, do it
; 2060 : 			const _Elem *_Uptr = this->_Myptr()
; 2061 : 				+ (_Off < this->_Mysize() ? _Off : this->_Mysize() - 1);
; 2062 : 			for (; ; --_Uptr)
; 2063 : 				if (_Traits::find(_Ptr, _Count, *_Uptr) == 0)
; 2064 : 					return (_Uptr - this->_Myptr());
; 2065 : 				else if (_Uptr == this->_Myptr())
; 2066 : 					break;
; 2067 : 			}
; 2068 : 		return (npos);
; 2069 : 		}
; 2070 : 
; 2071 : 	size_type find_last_not_of(const _Elem *_Ptr,
; 2072 : 		size_type _Off = npos) const
; 2073 : 		{	// look for none of [_Ptr, <null>) before _Off
; 2074 : 		_DEBUG_POINTER(_Ptr);
; 2075 : 		return (find_last_not_of(_Ptr, _Off, _Traits::length(_Ptr)));
; 2076 : 		}
; 2077 : 
; 2078 : 	size_type find_last_not_of(_Elem _Ch,
; 2079 : 		size_type _Off = npos) const
; 2080 : 		{	// look for non _Ch before _Off
; 2081 : 		return (find_last_not_of((const _Elem *)&_Ch, _Off, 1));
; 2082 : 		}
; 2083 : 
; 2084 : 	_Myt substr(size_type _Off = 0, size_type _Count = npos) const
; 2085 : 		{	// return [_Off, _Off + _Count) as new string
; 2086 : 		return (_Myt(*this, _Off, _Count, get_allocator()));
; 2087 : 		}
; 2088 : 
; 2089 : 	static int _Traits_compare(const _Elem * const _Left, const size_type _Left_size,
; 2090 : 		const _Elem * const _Right, const size_type _Right_size)
; 2091 : 		{	// compare [_Left, _Left + _Left_size) to [_Right, _Right + _Right_size) using _Traits
; 2092 : 		const size_type _Min_size = _Left_size < _Right_size ? _Left_size : _Right_size;
; 2093 : 		const int _Ans = _Traits::compare(_Left, _Right, _Min_size);
; 2094 : 
; 2095 : 		if (_Ans != 0)
; 2096 : 			return (_Ans);
; 2097 : 
; 2098 : 		if (_Left_size < _Right_size)
; 2099 : 			return (-1);
; 2100 : 
; 2101 : 		if (_Left_size > _Right_size)
; 2102 : 			return (1);
; 2103 : 
; 2104 : 		return (0);
; 2105 : 		}
; 2106 : 
; 2107 : 	size_type _Clamp_suffix_size(const size_type _Off, const size_type _Size) const
; 2108 : 		{	// trims _Size to the longest it can be assuming a string starting at _Off
; 2109 : 		const size_type _Max_effective_size = this->_Mysize() - _Off;
; 2110 : 		if (_Size <= _Max_effective_size)
; 2111 : 			return (_Size);
; 2112 : 		else
; 2113 : 			return (_Max_effective_size);
; 2114 : 		}
; 2115 : 
; 2116 : 	int compare(const _Myt& _Right) const _NOEXCEPT
; 2117 : 		{	// compare [0, _Mysize()) with _Right
; 2118 : 		return (_Traits_compare(this->_Myptr(), this->_Mysize(),
; 2119 : 			_Right._Myptr(), _Right._Mysize()));
; 2120 : 		}
; 2121 : 
; 2122 : 	int compare(size_type _Off,
; 2123 : 		size_type _N0, const _Myt& _Right) const
; 2124 : 		{	// compare [_Off, _Off + _N0) with _Right
; 2125 : 		_Check_offset(_Off);
; 2126 : 		return (_Traits_compare(this->_Myptr() + _Off, _Clamp_suffix_size(_Off, _N0),
; 2127 : 			_Right._Myptr(), _Right._Mysize()));
; 2128 : 		}
; 2129 : 
; 2130 : 	int compare(size_type _Off,
; 2131 : 		size_type _N0, const _Myt& _Right,
; 2132 : 		size_type _Roff, size_type _Count = npos) const
; 2133 : 		{	// compare [_Off, _Off + _N0) with _Right [_Roff, _Roff + _Count)
; 2134 : 		_Check_offset(_Off);
; 2135 : 		_Right._Check_offset(_Roff);
; 2136 : 		return (_Traits_compare(this->_Myptr() + _Off, _Clamp_suffix_size(_Off, _N0),
; 2137 : 			_Right._Myptr() + _Roff, _Right._Clamp_suffix_size(_Roff, _Count)));
; 2138 : 		}
; 2139 : 
; 2140 : 	int compare(const _Elem *_Ptr) const
; 2141 : 		{	// compare [0, _Mysize()) with [_Ptr, <null>)
; 2142 : 		_DEBUG_POINTER(_Ptr);
; 2143 : 		return (_Traits_compare(this->_Myptr(), this->_Mysize(),
; 2144 : 			_Ptr, _Traits::length(_Ptr)));
; 2145 : 		}
; 2146 : 
; 2147 : 	int compare(size_type _Off, size_type _N0, const _Elem *_Ptr) const
; 2148 : 		{	// compare [_Off, _Off + _N0) with [_Ptr, <null>)
; 2149 : 		_DEBUG_POINTER(_Ptr);
; 2150 : 		_Check_offset(_Off);
; 2151 : 		return (_Traits_compare(this->_Myptr() + _Off, _Clamp_suffix_size(_Off, _N0),
; 2152 : 			_Ptr, _Traits::length(_Ptr)));
; 2153 : 		}
; 2154 : 
; 2155 : 	int compare(size_type _Off,
; 2156 : 		size_type _N0, const _Elem *_Ptr, size_type _Count) const
; 2157 : 		{	// compare [_Off, _Off + _N0) with [_Ptr, _Ptr + _Count)
; 2158 : 		_DEBUG_POINTER_IF(_Count != 0, _Ptr);
; 2159 : 		_Check_offset(_Off);
; 2160 : 		return (_Traits_compare(this->_Myptr() + _Off, _Clamp_suffix_size(_Off, _N0),
; 2161 : 			_Ptr, _Count));
; 2162 : 		}
; 2163 : 
; 2164 : 	allocator_type get_allocator() const _NOEXCEPT
; 2165 : 		{	// return allocator object for values
; 2166 : 		allocator_type _Ret(this->_Getal());
; 2167 : 		return (_Ret);
; 2168 : 		}
; 2169 : 
; 2170 : 	void _Chassign(size_type _Off, size_type _Count, _Elem _Ch)
; 2171 : 		{	// assign _Count copies of _Ch beginning at _Off
; 2172 : 		if (_Count == 1)
; 2173 : 			_Traits::assign(*(this->_Myptr() + _Off), _Ch);
; 2174 : 		else
; 2175 : 			_Traits::assign(this->_Myptr() + _Off, _Count, _Ch);
; 2176 : 		}
; 2177 : 
; 2178 : 	void _Copy(size_type _Newsize, size_type _Oldlen)
; 2179 : 		{	// copy _Oldlen elements to newly allocated buffer
; 2180 : 		size_type _Newres = _Newsize | this->_ALLOC_MASK;
; 2181 : 		if (max_size() < _Newres)
; 2182 : 			_Newres = _Newsize;	// undo roundup if too big
; 2183 : 		else if (this->_Myres() / 2 <= _Newres / 3)
; 2184 : 			;
; 2185 : 		else if (this->_Myres() <= max_size() - this->_Myres() / 2)
; 2186 : 			_Newres = this->_Myres()
; 2187 : 				+ this->_Myres() / 2;	// grow exponentially if possible
; 2188 : 		else
; 2189 : 			_Newres = max_size();	// settle for max_size()
; 2190 : 
; 2191 : 		pointer _Ptr;
; 2192 : 		_TRY_BEGIN
; 2193 : 			_Ptr = this->_Getal().allocate(_Newres + 1);
; 2194 : 		_CATCH_ALL
; 2195 : 			_Newres = _Newsize;	// allocation failed, undo roundup and retry
; 2196 : 			_TRY_BEGIN
; 2197 : 				_Ptr = this->_Getal().allocate(_Newres + 1);
; 2198 : 			_CATCH_ALL

  00033	48 89 54 24 10	 mov	 QWORD PTR [rsp+16], rdx
  00038	53		 push	 rbx
  00039	55		 push	 rbp
  0003a	48 83 ec 28	 sub	 rsp, 40			; 00000028H
  0003e	48 8b ea	 mov	 rbp, rdx
__catch$?_Copy@?$basic_string@DU?$char_traits@D@std@@V?$allocator@D@2@@std@@QEAAX_K0@Z$1:

; 729  : 		return (_Get_data()._Myres);

  00041	48 8b 5d 60	 mov	 rbx, QWORD PTR this$[rbp]

; 2248 : 		else if (this->_BUF_SIZE <= this->_Myres())

  00045	48 8b 43 18	 mov	 rax, QWORD PTR [rbx+24]
  00049	48 83 f8 10	 cmp	 rax, 16
  0004d	72 57		 jb	 SHORT $LN236@catch$106

; 2249 : 			{	// copy any leftovers to small buffer and deallocate
; 2250 : 			pointer _Ptr = this->_Bx()._Ptr;
; 2251 : 			this->_Getal().destroy(_STD addressof(this->_Bx()._Ptr));
; 2252 : 			if (0 < _Newsize)
; 2253 : 				_Traits::copy(this->_Bx()._Buf,
; 2254 : 					_Unfancy(_Ptr), _Newsize);
; 2255 : 			this->_Getal().deallocate(_Ptr, this->_Myres() + 1);

  0004f	48 ff c0	 inc	 rax
; File c:\users\alist_000\cppmisc\packages\visualcpptools.14.0.24224-pre\lib\native\include\xmemory0

; 720  : 		_Deallocate(_Ptr, _Count, sizeof (_Ty));

  00052	48 8b 0b	 mov	 rcx, QWORD PTR [rbx]

; 94   : 	_SCL_SECURE_ALWAYS_VALIDATE(_Count <= (size_t)(-1) / _Sz);

  00055	48 83 f8 ff	 cmp	 rax, -1
  00059	76 06		 jbe	 SHORT $LN230@catch$106
  0005b	e8 00 00 00 00	 call	 _invalid_parameter_noinfo_noreturn
  00060	cc		 int	 3
$LN230@catch$106:

; 95   : 	const size_t _User_size = _Count * _Sz;
; 96   : 	if (_BIG_ALLOCATION_THRESHOLD <= _User_size)

  00061	48 3d 00 10 00
	00		 cmp	 rax, 4096		; 00001000H
  00067	72 38		 jb	 SHORT $LN231@catch$106

; 97   : 		{	// deallocate large block
; 98   : 		const uintptr_t _Ptr_user = reinterpret_cast<uintptr_t>(_Ptr);
; 99   : 		_SCL_SECURE_ALWAYS_VALIDATE(

  00069	f6 c1 1f	 test	 cl, 31
  0006c	74 06		 je	 SHORT $LN232@catch$106
  0006e	e8 00 00 00 00	 call	 _invalid_parameter_noinfo_noreturn
  00073	cc		 int	 3
$LN232@catch$106:

; 100  : 			(_Ptr_user & (_BIG_ALLOCATION_ALIGNMENT - 1)) == 0);
; 101  : 		const uintptr_t _Ptr_ptr = _Ptr_user - sizeof(void *);
; 102  : 		const uintptr_t _Ptr_container =
; 103  : 			*reinterpret_cast<uintptr_t *>(_Ptr_ptr);

  00074	48 8b 41 f8	 mov	 rax, QWORD PTR [rcx-8]

; 104  : 
; 105  :  #ifdef _DEBUG
; 106  : 		// If the following asserts, it likely means that we are performing
; 107  : 		// an aligned delete on memory coming from an unaligned allocation.
; 108  : 		_SCL_SECURE_ALWAYS_VALIDATE(
; 109  : 			reinterpret_cast<uintptr_t *>(_Ptr_ptr)[-1] ==
; 110  : 				_BIG_ALLOCATION_SENTINEL);
; 111  :  #endif /* _DEBUG */
; 112  : 
; 113  : 		// Extra paranoia on aligned allocation/deallocation
; 114  : 		_SCL_SECURE_ALWAYS_VALIDATE(_Ptr_container < _Ptr_user);

  00078	48 3b c1	 cmp	 rax, rcx
  0007b	72 06		 jb	 SHORT $LN233@catch$106
  0007d	e8 00 00 00 00	 call	 _invalid_parameter_noinfo_noreturn
  00082	cc		 int	 3
$LN233@catch$106:

; 115  : 
; 116  :  #ifdef _DEBUG
; 117  : 		_SCL_SECURE_ALWAYS_VALIDATE(2 * sizeof(void *)
; 118  : 			<= _Ptr_user - _Ptr_container);
; 119  : 
; 120  :  #else /* _DEBUG */
; 121  : 		_SCL_SECURE_ALWAYS_VALIDATE(sizeof(void *)

  00083	48 2b c8	 sub	 rcx, rax
  00086	48 83 f9 08	 cmp	 rcx, 8
  0008a	73 06		 jae	 SHORT $LN234@catch$106
  0008c	e8 00 00 00 00	 call	 _invalid_parameter_noinfo_noreturn
  00091	cc		 int	 3
$LN234@catch$106:

; 122  : 			<= _Ptr_user - _Ptr_container);
; 123  :  #endif /* _DEBUG */
; 124  : 
; 125  : 		_SCL_SECURE_ALWAYS_VALIDATE(_Ptr_user - _Ptr_container

  00092	48 83 f9 27	 cmp	 rcx, 39			; 00000027H
  00096	76 06		 jbe	 SHORT $LN235@catch$106
  00098	e8 00 00 00 00	 call	 _invalid_parameter_noinfo_noreturn
  0009d	cc		 int	 3
$LN235@catch$106:

; 126  : 			<= _NON_USER_SIZE);
; 127  : 
; 128  : 		_Ptr = reinterpret_cast<void *>(_Ptr_container);

  0009e	48 8b c8	 mov	 rcx, rax
$LN231@catch$106:

; 129  : 		}
; 130  :  #endif /* defined(_M_IX86) || defined(_M_X64) */
; 131  : 
; 132  : 	::operator delete(_Ptr);

  000a1	e8 00 00 00 00	 call	 ??3@YAXPEAX@Z		; operator delete
$LN236@catch$106:
; File c:\users\alist_000\cppmisc\packages\visualcpptools.14.0.24224-pre\lib\native\include\xstring

; 2257 : 		this->_Myres() = this->_BUF_SIZE - 1;

  000a6	48 c7 43 18 0f
	00 00 00	 mov	 QWORD PTR [rbx+24], 15

; 2216 : 		_Traits::assign(_Dx._Myptr()[_Dx._Mysize = _Newsize], _Elem());

  000ae	48 c7 43 10 00
	00 00 00	 mov	 QWORD PTR [rbx+16], 0

; 509  : 		return (this->_BUF_SIZE <= _Myres

  000b6	48 83 7b 18 10	 cmp	 QWORD PTR [rbx+24], 16
  000bb	72 03		 jb	 SHORT $LN260@catch$106
; File c:\users\alist_000\cppmisc\packages\visualcpptools.14.0.24224-pre\lib\native\include\xstddef

; 740  : 	return (_Ptr);

  000bd	48 8b 1b	 mov	 rbx, QWORD PTR [rbx]
$LN260@catch$106:
; File c:\users\alist_000\cppmisc\packages\visualcpptools.14.0.24224-pre\lib\native\include\iosfwd

; 565  : 		_Left = _Right;

  000c0	c6 03 00	 mov	 BYTE PTR [rbx], 0
; File c:\users\alist_000\cppmisc\packages\visualcpptools.14.0.24224-pre\lib\native\include\xstring

; 2200 : 			_RERAISE;

  000c3	33 d2		 xor	 edx, edx
  000c5	33 c9		 xor	 ecx, ecx
  000c7	e8 00 00 00 00	 call	 _CxxThrowException
  000cc	90		 npad	 1
?catch$106@?0??_Copy@?$basic_string@DU?$char_traits@D@std@@V?$allocator@D@2@@std@@QEAAX_K0@Z@4HA ENDP ; `std::basic_string<char,std::char_traits<char>,std::allocator<char> >::_Copy'::`1'::catch$106
text$x	ENDS
; Function compile flags: /Ogtpy
; File c:\users\alist_000\cppmisc\packages\visualcpptools.14.0.24224-pre\lib\native\include\xstring
;	COMDAT ?max_size@?$basic_string@DU?$char_traits@D@std@@V?$allocator@D@2@@std@@QEBA_KXZ
_TEXT	SEGMENT
this$ = 8
?max_size@?$basic_string@DU?$char_traits@D@std@@V?$allocator@D@2@@std@@QEBA_KXZ PROC ; std::basic_string<char,std::char_traits<char>,std::allocator<char> >::max_size, COMDAT

; 1767 : 		const size_type _Num = this->_Getal().max_size();
; 1768 : 		return (_Num <= 1 ? 1 : _Num - 1);

  00000	48 c7 c0 fe ff
	ff ff		 mov	 rax, -2

; 1769 : 		}

  00007	c3		 ret	 0
?max_size@?$basic_string@DU?$char_traits@D@std@@V?$allocator@D@2@@std@@QEBA_KXZ ENDP ; std::basic_string<char,std::char_traits<char>,std::allocator<char> >::max_size
_TEXT	ENDS
; Function compile flags: /Ogtpy
; File c:\users\alist_000\cppmisc\packages\visualcpptools.14.0.24224-pre\lib\native\include\xmemory0
;	COMDAT ?deallocate@?$allocator@D@std@@QEAAXPEAD_K@Z
_TEXT	SEGMENT
this$ = 48
_Ptr$ = 56
_Count$ = 64
?deallocate@?$allocator@D@std@@QEAAXPEAD_K@Z PROC	; std::allocator<char>::deallocate, COMDAT

; 719  : 		{	// deallocate object at _Ptr

$LN18:
  00000	48 83 ec 28	 sub	 rsp, 40			; 00000028H

; 96   : 	if (_BIG_ALLOCATION_THRESHOLD <= _User_size)

  00004	49 81 f8 00 10
	00 00		 cmp	 r8, 4096		; 00001000H
  0000b	72 20		 jb	 SHORT $LN5@deallocate

; 97   : 		{	// deallocate large block
; 98   : 		const uintptr_t _Ptr_user = reinterpret_cast<uintptr_t>(_Ptr);
; 99   : 		_SCL_SECURE_ALWAYS_VALIDATE(

  0000d	f6 c2 1f	 test	 dl, 31
  00010	75 27		 jne	 SHORT $LN13@deallocate

; 100  : 			(_Ptr_user & (_BIG_ALLOCATION_ALIGNMENT - 1)) == 0);
; 101  : 		const uintptr_t _Ptr_ptr = _Ptr_user - sizeof(void *);
; 102  : 		const uintptr_t _Ptr_container =
; 103  : 			*reinterpret_cast<uintptr_t *>(_Ptr_ptr);

  00012	48 8b 42 f8	 mov	 rax, QWORD PTR [rdx-8]

; 104  : 
; 105  :  #ifdef _DEBUG
; 106  : 		// If the following asserts, it likely means that we are performing
; 107  : 		// an aligned delete on memory coming from an unaligned allocation.
; 108  : 		_SCL_SECURE_ALWAYS_VALIDATE(
; 109  : 			reinterpret_cast<uintptr_t *>(_Ptr_ptr)[-1] ==
; 110  : 				_BIG_ALLOCATION_SENTINEL);
; 111  :  #endif /* _DEBUG */
; 112  : 
; 113  : 		// Extra paranoia on aligned allocation/deallocation
; 114  : 		_SCL_SECURE_ALWAYS_VALIDATE(_Ptr_container < _Ptr_user);

  00016	48 3b c2	 cmp	 rax, rdx
  00019	73 24		 jae	 SHORT $LN15@deallocate

; 115  : 
; 116  :  #ifdef _DEBUG
; 117  : 		_SCL_SECURE_ALWAYS_VALIDATE(2 * sizeof(void *)
; 118  : 			<= _Ptr_user - _Ptr_container);
; 119  : 
; 120  :  #else /* _DEBUG */
; 121  : 		_SCL_SECURE_ALWAYS_VALIDATE(sizeof(void *)

  0001b	48 2b d0	 sub	 rdx, rax
  0001e	48 83 fa 08	 cmp	 rdx, 8
  00022	72 21		 jb	 SHORT $LN16@deallocate

; 122  : 			<= _Ptr_user - _Ptr_container);
; 123  :  #endif /* _DEBUG */
; 124  : 
; 125  : 		_SCL_SECURE_ALWAYS_VALIDATE(_Ptr_user - _Ptr_container

  00024	48 83 fa 27	 cmp	 rdx, 39			; 00000027H
  00028	77 21		 ja	 SHORT $LN17@deallocate

; 126  : 			<= _NON_USER_SIZE);
; 127  : 
; 128  : 		_Ptr = reinterpret_cast<void *>(_Ptr_container);

  0002a	48 8b d0	 mov	 rdx, rax
$LN5@deallocate:

; 129  : 		}
; 130  :  #endif /* defined(_M_IX86) || defined(_M_X64) */
; 131  : 
; 132  : 	::operator delete(_Ptr);

  0002d	48 8b ca	 mov	 rcx, rdx

; 720  : 		_Deallocate(_Ptr, _Count, sizeof (_Ty));
; 721  : 		}

  00030	48 83 c4 28	 add	 rsp, 40			; 00000028H

; 132  : 	::operator delete(_Ptr);

  00034	e9 00 00 00 00	 jmp	 ??3@YAXPEAX@Z		; operator delete
$LN13@deallocate:

; 97   : 		{	// deallocate large block
; 98   : 		const uintptr_t _Ptr_user = reinterpret_cast<uintptr_t>(_Ptr);
; 99   : 		_SCL_SECURE_ALWAYS_VALIDATE(

  00039	e8 00 00 00 00	 call	 _invalid_parameter_noinfo_noreturn
  0003e	cc		 int	 3
$LN15@deallocate:

; 104  : 
; 105  :  #ifdef _DEBUG
; 106  : 		// If the following asserts, it likely means that we are performing
; 107  : 		// an aligned delete on memory coming from an unaligned allocation.
; 108  : 		_SCL_SECURE_ALWAYS_VALIDATE(
; 109  : 			reinterpret_cast<uintptr_t *>(_Ptr_ptr)[-1] ==
; 110  : 				_BIG_ALLOCATION_SENTINEL);
; 111  :  #endif /* _DEBUG */
; 112  : 
; 113  : 		// Extra paranoia on aligned allocation/deallocation
; 114  : 		_SCL_SECURE_ALWAYS_VALIDATE(_Ptr_container < _Ptr_user);

  0003f	e8 00 00 00 00	 call	 _invalid_parameter_noinfo_noreturn
  00044	cc		 int	 3
$LN16@deallocate:

; 115  : 
; 116  :  #ifdef _DEBUG
; 117  : 		_SCL_SECURE_ALWAYS_VALIDATE(2 * sizeof(void *)
; 118  : 			<= _Ptr_user - _Ptr_container);
; 119  : 
; 120  :  #else /* _DEBUG */
; 121  : 		_SCL_SECURE_ALWAYS_VALIDATE(sizeof(void *)

  00045	e8 00 00 00 00	 call	 _invalid_parameter_noinfo_noreturn
  0004a	cc		 int	 3
$LN17@deallocate:

; 122  : 			<= _Ptr_user - _Ptr_container);
; 123  :  #endif /* _DEBUG */
; 124  : 
; 125  : 		_SCL_SECURE_ALWAYS_VALIDATE(_Ptr_user - _Ptr_container

  0004b	e8 00 00 00 00	 call	 _invalid_parameter_noinfo_noreturn
  00050	cc		 int	 3
$LN12@deallocate:
?deallocate@?$allocator@D@std@@QEAAXPEAD_K@Z ENDP	; std::allocator<char>::deallocate
_TEXT	ENDS
; Function compile flags: /Ogtpy
; File c:\users\alist_000\cppmisc\packages\visualcpptools.14.0.24224-pre\lib\native\include\xmemory0
;	COMDAT ??0?$allocator@D@std@@QEAA@AEBV01@@Z
_TEXT	SEGMENT
this$ = 8
__formal$ = 16
??0?$allocator@D@std@@QEAA@AEBV01@@Z PROC		; std::allocator<char>::allocator<char>, COMDAT

; 704  : 		{	// construct by copying (do nothing)
; 705  : 		}

  00000	48 8b c1	 mov	 rax, rcx
  00003	c3		 ret	 0
??0?$allocator@D@std@@QEAA@AEBV01@@Z ENDP		; std::allocator<char>::allocator<char>
_TEXT	ENDS
; Function compile flags: /Ogtpy
; File c:\users\alist_000\cppmisc\packages\visualcpptools.14.0.24224-pre\lib\native\include\xmemory0
;	COMDAT ?max_size@?$_Wrap_alloc@V?$allocator@D@std@@@std@@QEBA_KU_Nil@2@@Z
_TEXT	SEGMENT
this$ = 8
__formal$ = 16
?max_size@?$_Wrap_alloc@V?$allocator@D@std@@@std@@QEBA_KU_Nil@2@@Z PROC ; std::_Wrap_alloc<std::allocator<char> >::max_size, COMDAT

; 1008 : 		return (_Mytraits::max_size(*this));

  00000	48 83 c8 ff	 or	 rax, -1

; 1009 : 		}

  00004	c3		 ret	 0
?max_size@?$_Wrap_alloc@V?$allocator@D@std@@@std@@QEBA_KU_Nil@2@@Z ENDP ; std::_Wrap_alloc<std::allocator<char> >::max_size
_TEXT	ENDS
; Function compile flags: /Ogtpy
; File c:\users\alist_000\cppmisc\packages\visualcpptools.14.0.24224-pre\lib\native\include\xmemory0
;	COMDAT ?allocate@?$_Wrap_alloc@V?$allocator@D@std@@@std@@QEAAPEAD_K@Z
_TEXT	SEGMENT
this$ = 48
_Count$ = 56
?allocate@?$_Wrap_alloc@V?$allocator@D@std@@@std@@QEAAPEAD_K@Z PROC ; std::_Wrap_alloc<std::allocator<char> >::allocate, COMDAT

; 975  : 		{	// allocate array of _Count elements

$LN19:
  00000	48 83 ec 28	 sub	 rsp, 40			; 00000028H

; 51   : 	if (_Count == 0)

  00004	48 85 d2	 test	 rdx, rdx
  00007	75 09		 jne	 SHORT $LN6@allocate

; 52   : 		return (_Ptr);

  00009	33 c9		 xor	 ecx, ecx

; 976  : 		return (_Mybase::allocate(_Count));

  0000b	8b c1		 mov	 eax, ecx

; 977  : 		}

  0000d	48 83 c4 28	 add	 rsp, 40			; 00000028H
  00011	c3		 ret	 0
$LN6@allocate:

; 61   : 		&& _BIG_ALLOCATION_THRESHOLD <= _User_size)

  00012	48 81 fa 00 10
	00 00		 cmp	 rdx, 4096		; 00001000H
  00019	72 22		 jb	 SHORT $LN8@allocate

; 62   : 		{	// allocate large block
; 63   : 		static_assert(sizeof (void *) < _BIG_ALLOCATION_ALIGNMENT,
; 64   : 			"Big allocations should at least match vector register size");
; 65   : 		const size_t _Block_size = _NON_USER_SIZE + _User_size;

  0001b	48 8d 4a 27	 lea	 rcx, QWORD PTR [rdx+39]

; 66   : 		if (_Block_size <= _User_size)

  0001f	48 3b ca	 cmp	 rcx, rdx
  00022	76 29		 jbe	 SHORT $LN17@allocate

; 68   : 		const uintptr_t _Ptr_container =
; 69   : 			reinterpret_cast<uintptr_t>(::operator new(_Block_size));

  00024	e8 00 00 00 00	 call	 ??2@YAPEAX_K@Z		; operator new

; 70   : 		_SCL_SECURE_ALWAYS_VALIDATE(_Ptr_container != 0);
; 71   : 		_Ptr = reinterpret_cast<void *>((_Ptr_container + _NON_USER_SIZE)

  00029	48 8d 48 27	 lea	 rcx, QWORD PTR [rax+39]
  0002d	48 83 e1 e0	 and	 rcx, -32		; ffffffffffffffe0H

; 72   : 			& ~(_BIG_ALLOCATION_ALIGNMENT - 1));
; 73   : 		static_cast<uintptr_t *>(_Ptr)[-1] = _Ptr_container;

  00031	48 89 41 f8	 mov	 QWORD PTR [rcx-8], rax

; 976  : 		return (_Mybase::allocate(_Count));

  00035	48 8b c1	 mov	 rax, rcx

; 977  : 		}

  00038	48 83 c4 28	 add	 rsp, 40			; 00000028H
  0003c	c3		 ret	 0
$LN8@allocate:

; 83   : 		_Ptr = ::operator new(_User_size);

  0003d	48 8b ca	 mov	 rcx, rdx
  00040	e8 00 00 00 00	 call	 ??2@YAPEAX_K@Z		; operator new
  00045	48 8b c8	 mov	 rcx, rax

; 977  : 		}

  00048	48 83 c4 28	 add	 rsp, 40			; 00000028H
  0004c	c3		 ret	 0
$LN17@allocate:

; 67   : 			_Xbad_alloc();	// report no memory

  0004d	e8 00 00 00 00	 call	 ?_Xbad_alloc@std@@YAXXZ	; std::_Xbad_alloc
  00052	cc		 int	 3
$LN16@allocate:
?allocate@?$_Wrap_alloc@V?$allocator@D@std@@@std@@QEAAPEAD_K@Z ENDP ; std::_Wrap_alloc<std::allocator<char> >::allocate
_TEXT	ENDS
; Function compile flags: /Ogtpy
; File c:\users\alist_000\cppmisc\packages\visualcpptools.14.0.24224-pre\lib\native\include\xmemory0
;	COMDAT ?max_size@?$allocator_traits@V?$allocator@D@std@@@std@@SA_KAEBV?$allocator@D@2@@Z
_TEXT	SEGMENT
_Al$ = 8
?max_size@?$allocator_traits@V?$allocator@D@std@@@std@@SA_KAEBV?$allocator@D@2@@Z PROC ; std::allocator_traits<std::allocator<char> >::max_size, COMDAT

; 869  : 		return (_Al.max_size());

  00000	48 83 c8 ff	 or	 rax, -1

; 870  : 		}

  00004	c3		 ret	 0
?max_size@?$allocator_traits@V?$allocator@D@std@@@std@@SA_KAEBV?$allocator@D@2@@Z ENDP ; std::allocator_traits<std::allocator<char> >::max_size
_TEXT	ENDS
; Function compile flags: /Ogtpy
; File c:\users\alist_000\cppmisc\packages\visualcpptools.14.0.24224-pre\lib\native\include\xmemory0
;	COMDAT ?allocate@?$allocator@D@std@@QEAAPEAD_K@Z
_TEXT	SEGMENT
this$ = 48
_Count$ = 56
?allocate@?$allocator@D@std@@QEAAPEAD_K@Z PROC		; std::allocator<char>::allocate, COMDAT

; 724  : 		{	// allocate array of _Count elements

$LN16:
  00000	48 83 ec 28	 sub	 rsp, 40			; 00000028H

; 51   : 	if (_Count == 0)

  00004	48 85 d2	 test	 rdx, rdx
  00007	75 09		 jne	 SHORT $LN4@allocate

; 52   : 		return (_Ptr);

  00009	33 c9		 xor	 ecx, ecx

; 725  : 		return (static_cast<pointer>(_Allocate(_Count, sizeof (_Ty))));

  0000b	8b c1		 mov	 eax, ecx

; 726  : 		}

  0000d	48 83 c4 28	 add	 rsp, 40			; 00000028H
  00011	c3		 ret	 0
$LN4@allocate:

; 61   : 		&& _BIG_ALLOCATION_THRESHOLD <= _User_size)

  00012	48 81 fa 00 10
	00 00		 cmp	 rdx, 4096		; 00001000H
  00019	72 22		 jb	 SHORT $LN6@allocate

; 62   : 		{	// allocate large block
; 63   : 		static_assert(sizeof (void *) < _BIG_ALLOCATION_ALIGNMENT,
; 64   : 			"Big allocations should at least match vector register size");
; 65   : 		const size_t _Block_size = _NON_USER_SIZE + _User_size;

  0001b	48 8d 4a 27	 lea	 rcx, QWORD PTR [rdx+39]

; 66   : 		if (_Block_size <= _User_size)

  0001f	48 3b ca	 cmp	 rcx, rdx
  00022	76 29		 jbe	 SHORT $LN14@allocate

; 68   : 		const uintptr_t _Ptr_container =
; 69   : 			reinterpret_cast<uintptr_t>(::operator new(_Block_size));

  00024	e8 00 00 00 00	 call	 ??2@YAPEAX_K@Z		; operator new

; 70   : 		_SCL_SECURE_ALWAYS_VALIDATE(_Ptr_container != 0);
; 71   : 		_Ptr = reinterpret_cast<void *>((_Ptr_container + _NON_USER_SIZE)

  00029	48 8d 48 27	 lea	 rcx, QWORD PTR [rax+39]
  0002d	48 83 e1 e0	 and	 rcx, -32		; ffffffffffffffe0H

; 72   : 			& ~(_BIG_ALLOCATION_ALIGNMENT - 1));
; 73   : 		static_cast<uintptr_t *>(_Ptr)[-1] = _Ptr_container;

  00031	48 89 41 f8	 mov	 QWORD PTR [rcx-8], rax

; 725  : 		return (static_cast<pointer>(_Allocate(_Count, sizeof (_Ty))));

  00035	48 8b c1	 mov	 rax, rcx

; 726  : 		}

  00038	48 83 c4 28	 add	 rsp, 40			; 00000028H
  0003c	c3		 ret	 0
$LN6@allocate:

; 83   : 		_Ptr = ::operator new(_User_size);

  0003d	48 8b ca	 mov	 rcx, rdx
  00040	e8 00 00 00 00	 call	 ??2@YAPEAX_K@Z		; operator new
  00045	48 8b c8	 mov	 rcx, rax

; 726  : 		}

  00048	48 83 c4 28	 add	 rsp, 40			; 00000028H
  0004c	c3		 ret	 0
$LN14@allocate:

; 67   : 			_Xbad_alloc();	// report no memory

  0004d	e8 00 00 00 00	 call	 ?_Xbad_alloc@std@@YAXXZ	; std::_Xbad_alloc
  00052	cc		 int	 3
$LN13@allocate:
?allocate@?$allocator@D@std@@QEAAPEAD_K@Z ENDP		; std::allocator<char>::allocate
_TEXT	ENDS
; Function compile flags: /Ogtpy
; File c:\users\alist_000\cppmisc\packages\visualcpptools.14.0.24224-pre\lib\native\include\xmemory0
;	COMDAT ?max_size@?$allocator@D@std@@QEBA_KXZ
_TEXT	SEGMENT
this$ = 8
?max_size@?$allocator@D@std@@QEBA_KXZ PROC		; std::allocator<char>::max_size, COMDAT

; 749  : 		return ((size_t)(-1) / sizeof (_Ty));

  00000	48 83 c8 ff	 or	 rax, -1

; 750  : 		}

  00004	c3		 ret	 0
?max_size@?$allocator@D@std@@QEBA_KXZ ENDP		; std::allocator<char>::max_size
_TEXT	ENDS
; Function compile flags: /Ogtpy
; File c:\users\alist_000\cppmisc\packages\visualcpptools.14.0.24224-pre\lib\native\include\xlocale
; File c:\users\alist_000\cppmisc\packages\visualcpptools.14.0.24224-pre\lib\native\include\vcruntime_exception.h
; File c:\users\alist_000\cppmisc\packages\visualcpptools.14.0.24224-pre\lib\native\include\vcruntime_typeinfo.h
; File c:\users\alist_000\cppmisc\packages\visualcpptools.14.0.24224-pre\lib\native\include\xlocale
;	COMDAT ??$use_facet@V?$ctype@D@std@@@std@@YAAEBV?$ctype@D@0@AEBVlocale@0@@Z
_TEXT	SEGMENT
$T1 = 32
$T2 = 40
_Lock$3 = 96
_Loc$ = 96
_Lock$4 = 104
_Psave$5 = 112
??$use_facet@V?$ctype@D@std@@@std@@YAAEBV?$ctype@D@0@AEBVlocale@0@@Z PROC ; std::use_facet<std::ctype<char> >, COMDAT

; 553  : 	{	// get facet reference from locale

$LN36:
  00000	40 55		 push	 rbp
  00002	56		 push	 rsi
  00003	57		 push	 rdi
  00004	48 83 ec 40	 sub	 rsp, 64			; 00000040H
  00008	48 c7 44 24 20
	fe ff ff ff	 mov	 QWORD PTR $T1[rsp], -2
  00011	48 89 5c 24 78	 mov	 QWORD PTR [rsp+120], rbx
  00016	48 8b e9	 mov	 rbp, rcx

; 554  :  #if _NO_LOCALES
; 555  : 	static _Wrap_facet<_Facet> _Wfac;
; 556  : 	return (*(_Facet *)&_Wfac);
; 557  : 
; 558  :  #else /* _NO_LOCALES */
; 559  : 	_BEGIN_LOCK(_LOCK_LOCALE)	// the thread lock, make get atomic

  00019	33 d2		 xor	 edx, edx
  0001b	48 8d 4c 24 68	 lea	 rcx, QWORD PTR _Lock$4[rsp]
  00020	e8 00 00 00 00	 call	 ??0_Lockit@std@@QEAA@H@Z ; std::_Lockit::_Lockit
  00025	90		 npad	 1

; 560  : 		const locale::facet *_Psave =
; 561  : 			_Facetptr<_Facet>::_Psave;	// static pointer to lazy facet

  00026	48 8b 35 00 00
	00 00		 mov	 rsi, QWORD PTR ?_Psave@?$_Facetptr@V?$ctype@D@std@@@std@@2PEBVfacet@locale@2@EB ; std::_Facetptr<std::ctype<char> >::_Psave
  0002d	48 89 74 24 70	 mov	 QWORD PTR _Psave$5[rsp], rsi

; 115  : 			if (_Id == 0)

  00032	48 8b 1d 00 00
	00 00		 mov	 rbx, QWORD PTR ?id@?$ctype@D@std@@2V0locale@2@A ; std::ctype<char>::id
  00039	48 85 db	 test	 rbx, rbx
  0003c	75 3d		 jne	 SHORT $LN13@use_facet

; 116  : 				{	// still zero, allocate stamp
; 117  : 				_BEGIN_LOCK(_LOCK_LOCALE)

  0003e	33 d2		 xor	 edx, edx
  00040	48 8d 4c 24 60	 lea	 rcx, QWORD PTR _Lock$3[rsp]
  00045	e8 00 00 00 00	 call	 ??0_Lockit@std@@QEAA@H@Z ; std::_Lockit::_Lockit

; 118  : 					if (_Id == 0)

  0004a	48 39 1d 00 00
	00 00		 cmp	 QWORD PTR ?id@?$ctype@D@std@@2V0locale@2@A, rbx ; std::ctype<char>::id
  00051	75 17		 jne	 SHORT $LN14@use_facet

; 119  : 						_Id = ++_Id_cnt;

  00053	8b 05 00 00 00
	00		 mov	 eax, DWORD PTR ?_Id_cnt@id@locale@std@@0HA ; std::locale::id::_Id_cnt
  00059	ff c0		 inc	 eax
  0005b	89 05 00 00 00
	00		 mov	 DWORD PTR ?_Id_cnt@id@locale@std@@0HA, eax ; std::locale::id::_Id_cnt
  00061	48 98		 cdqe
  00063	48 89 05 00 00
	00 00		 mov	 QWORD PTR ?id@?$ctype@D@std@@2V0locale@2@A, rax ; std::ctype<char>::id
$LN14@use_facet:

; 120  : 				_END_LOCK()

  0006a	48 8d 4c 24 60	 lea	 rcx, QWORD PTR _Lock$3[rsp]
  0006f	e8 00 00 00 00	 call	 ??1_Lockit@std@@QEAA@XZ	; std::_Lockit::~_Lockit
  00074	48 8b 1d 00 00
	00 00		 mov	 rbx, QWORD PTR ?id@?$ctype@D@std@@2V0locale@2@A ; std::ctype<char>::id
$LN13@use_facet:

; 459  : 		const facet *_Facptr = _Id < _Ptr->_Facetcount

  0007b	48 8b 4d 08	 mov	 rcx, QWORD PTR [rbp+8]
  0007f	48 3b 59 18	 cmp	 rbx, QWORD PTR [rcx+24]
  00083	73 13		 jae	 SHORT $LN22@use_facet
  00085	48 8b 41 10	 mov	 rax, QWORD PTR [rcx+16]
  00089	48 8b 3c d8	 mov	 rdi, QWORD PTR [rax+rbx*8]

; 460  : 			? _Ptr->_Facetvec[_Id] : 0;	// null if id off end
; 461  : 		if (_Facptr != 0 || !_Ptr->_Xparent)

  0008d	48 85 ff	 test	 rdi, rdi
  00090	0f 85 af 00 00
	00		 jne	 $LN7@use_facet
  00096	eb 02		 jmp	 SHORT $LN32@use_facet
$LN22@use_facet:

; 151  : 			}
; 152  : 
; 153  : 		virtual _Facet_base *__CLR_OR_THIS_CALL _Decref()
; 154  : 			{	// decrement use count
; 155  : 			if (_MT_DECR(_Myrefs) == 0)
; 156  : 				return (this);
; 157  : 			else
; 158  : 				return (0);
; 159  : 			}
; 160  : 
; 161  : 	private:
; 162  : 		_Atomic_counter_t _Myrefs;	// the reference count
; 163  : 
; 164  : 	protected:
; 165  : 		explicit __CLR_OR_THIS_CALL facet(size_t _Initrefs = 0)
; 166  : 			{	// construct with initial reference count
; 167  : 			_Init_atomic_counter(_Myrefs, (_Atomic_integral_t)_Initrefs);
; 168  : 			}
; 169  : 
; 170  : 		virtual __CLR_OR_THIS_CALL ~facet() _NOEXCEPT
; 171  : 			{	// ensure that derived classes can be destroyed properly
; 172  : 			}
; 173  : 
; 174  : 	public:
; 175  : 		__CLR_OR_THIS_CALL facet(const facet&) = delete;
; 176  : 		facet& __CLR_OR_THIS_CALL operator=(const facet&) = delete;
; 177  : 		};
; 178  : 
; 179  : 			// CLASS _Locimp
; 180  :  #pragma warning(push)
; 181  :  #pragma warning(disable: 4275)
; 182  : 
; 183  : 	class _CRTIMP2_PURE _Locimp
; 184  : 		: public facet
; 185  : 		{	// reference-counted actual implementation of a locale
; 186  : 	protected:
; 187  : 		__CLR_OR_THIS_CALL ~_Locimp() _NOEXCEPT
; 188  : 		{	// destroy the object
; 189  : 		_Locimp_dtor(this);
; 190  : 		}
; 191  : 
; 192  : 	private:
; 193  : 		static _MRTIMP2_PURE_NPURE _Locimp *__CLRCALL_PURE_OR_CDECL
; 194  : 			_New_Locimp(bool _Transparent = false);
; 195  : 		static _MRTIMP2_PURE_NPURE _Locimp *__CLRCALL_PURE_OR_CDECL
; 196  : 			_New_Locimp(const _Locimp& _Right);
; 197  : 
; 198  : 		static _MRTIMP2_PURE_NPURE void __CLRCALL_PURE_OR_CDECL
; 199  : 			_Locimp_dtor(_Locimp *);
; 200  : 		static _MRTIMP2_PURE_NPURE void __CLRCALL_PURE_OR_CDECL
; 201  : 			_Locimp_Addfac(_Locimp *, facet *, size_t);	// add a facet
; 202  : 		static void __CLRCALL_PURE_OR_CDECL
; 203  : 			_Locimp_ctor(_Locimp *, const _Locimp&);
; 204  : 
; 205  : 		friend class locale;
; 206  : 
; 207  : 		__CLR_OR_THIS_CALL _Locimp(bool _Transparent)
; 208  : 			: locale::facet(1), _Facetvec(0), _Facetcount(0),
; 209  : 				_Catmask(none), _Xparent(_Transparent),
; 210  : 					_Name("*")
; 211  : 			{	// construct an empty _Locimp
; 212  : 			}
; 213  : 
; 214  : 		__CLR_OR_THIS_CALL _Locimp(const _Locimp& _Right)
; 215  : 			: locale::facet(1), _Facetvec(0), _Facetcount(_Right._Facetcount),
; 216  : 				_Catmask(_Right._Catmask), _Xparent(_Right._Xparent),
; 217  : 					_Name(_Right._Name.c_str())
; 218  : 			{	// construct by copying
; 219  : 			_Locimp_ctor(this, _Right);
; 220  : 			}
; 221  : 
; 222  : 		void __CLR_OR_THIS_CALL _Addfac(facet *_Pfacet, size_t _Id)
; 223  : 			{	// add a facet
; 224  : 			_Locimp_Addfac(this, _Pfacet, _Id);
; 225  : 			}
; 226  : 
; 227  : 		static _Locimp *__CLRCALL_OR_CDECL _Makeloc(const _Locinfo&,
; 228  : 			category, _Locimp *, const locale *);	// make essential facets
; 229  : 
; 230  : 		static void __CLRCALL_OR_CDECL _Makewloc(const _Locinfo&,
; 231  : 			category, _Locimp *, const locale *);	// make wchar_t facets
; 232  : 
; 233  :  #ifdef _NATIVE_WCHAR_T_DEFINED
; 234  : 		static void __CLRCALL_OR_CDECL _Makeushloc(const _Locinfo&,
; 235  : 			category, _Locimp *, const locale *);	// make ushort facets
; 236  :  #endif /* _NATIVE_WCHAR_T_DEFINED */
; 237  : 
; 238  : 		static void __CLRCALL_OR_CDECL _Makexloc(const _Locinfo&,
; 239  : 			category, _Locimp *, const locale *);	// make remaining facets
; 240  : 
; 241  : 		facet **_Facetvec;	// pointer to vector of facets
; 242  : 		size_t _Facetcount;	// size of vector of facets
; 243  : 		category _Catmask;	// mask describing implemented categories
; 244  : 		bool _Xparent;	// true if locale is transparent
; 245  : 		_Yarn<char> _Name;	// locale name, or "*" if not known
; 246  : 
; 247  : 		__PURE_APPDOMAIN_GLOBAL static _Locimp *_Clocptr;
; 248  : 
; 249  : public:
; 250  : 		_Locimp& __CLR_OR_THIS_CALL operator=(const _Locimp&) = delete;
; 251  : 		};
; 252  : 
; 253  :  #pragma warning(pop)
; 254  : 
; 255  : 	template<class _Elem,
; 256  : 		class _Traits,
; 257  : 		class _Alloc>
; 258  : 		bool operator()(const basic_string<_Elem, _Traits, _Alloc>& _Left,
; 259  : 			const basic_string<_Elem, _Traits, _Alloc>& _Right) const
; 260  : 		{	// compare _Left and _Right strings using collate facet in locale
; 261  : 		const _STD collate<_Elem>& _Coll_fac =
; 262  : 			use_facet< _STD collate<_Elem> >(*this);
; 263  : 
; 264  : 		return (_Coll_fac.compare(_Left.c_str(), _Left.c_str() + _Left.size(),
; 265  : 			_Right.c_str(), _Right.c_str() + _Right.size()) < 0);
; 266  : 		}
; 267  : 
; 268  : 	template<class _Facet>
; 269  : 		locale combine(const locale& _Loc) const
; 270  : 		{	// combine two locales
; 271  : 		_Facet *_Facptr;
; 272  : 
; 273  : 		_TRY_BEGIN
; 274  : 			_Facptr = (_Facet *)&use_facet<_Facet>(_Loc);
; 275  : 		_CATCH_ALL
; 276  : 			_Xruntime_error("locale::combine facet missing");
; 277  : 		_CATCH_END
; 278  : 
; 279  : 		_Locimp *_Newimp = _Locimp::_New_Locimp(*_Ptr);
; 280  : 		_Newimp->_Addfac(_Facptr, _Facet::id);
; 281  : 		_Newimp->_Catmask = none;
; 282  : 		_Newimp->_Name = "*";
; 283  : 		return (locale(_Newimp));
; 284  : 		}
; 285  : 
; 286  : 	template<class _Facet>
; 287  : 		locale(const locale& _Loc, const _Facet *_Facptr)
; 288  : 			: _Ptr(_Locimp::_New_Locimp(*_Loc._Ptr))
; 289  : 		{	// construct from _Loc, replacing facet with *_Facptr
; 290  : 		if (_Facptr != 0)
; 291  : 			{	// replace facet
; 292  : 			_Ptr->_Addfac((_Facet *)_Facptr, _Facet::id);
; 293  : 			_Ptr->_Catmask = none;
; 294  : 			_Ptr->_Name = "*";
; 295  : 			}
; 296  : 		}
; 297  : 
; 298  : 	locale(_Uninitialized)
; 299  : 		{	// defer construction
; 300  : 		}
; 301  : 
; 302  :  #if _NO_LOCALES
; 303  : 	locale(const locale& _Right) _THROW0()
; 304  : 		: _Ptr(0)
; 305  : 		{	// construct by copying
; 306  : 		}
; 307  : 
; 308  : 	locale() _THROW0()
; 309  : 		: _Ptr(0)
; 310  : 		{	// construct from current locale
; 311  : 		}
; 312  : 
; 313  : 	~locale() _NOEXCEPT
; 314  : 		{	// destroy the object
; 315  : 		}
; 316  : 
; 317  : 	locale& operator=(const locale& _Right) _THROW0()
; 318  : 		{	// assign a locale
; 319  : 		return (*this);
; 320  : 		}
; 321  : 
; 322  :  #else /* _NO_LOCALES */
; 323  : 	locale(const locale& _Right) _THROW0()
; 324  : 		: _Ptr(_Right._Ptr)
; 325  : 		{	// construct by copying
; 326  : 		_Ptr->_Incref();
; 327  : 		}
; 328  : 
; 329  : 	locale() _THROW0()
; 330  : 		: _Ptr(_Init(true))
; 331  : 		{	// construct from current locale
; 332  : 		}
; 333  : 
; 334  :  #if !defined(MRTDLL) || !defined(_CRTBLD)
; 335  : 	locale(const locale& _Loc, const locale& _Other,
; 336  : 		category _Cat)
; 337  : 		: _Ptr(_Locimp::_New_Locimp(*_Loc._Ptr))
; 338  : 		{	// construct a locale by copying named facets
; 339  : 		if (_Cat != none)
; 340  : 			{	// worth adding, do it
; 341  : 			_TRY_BEGIN
; 342  : 				_BEGIN_LOCINFO(_Lobj)
; 343  : 					_Locimp::_Makeloc(_Lobj, _Cat, _Ptr, &_Other);
; 344  : 					_Lobj._Addcats(_Loc._Ptr->_Catmask,
; 345  : 						_Loc.name().c_str());
; 346  : 					_Lobj._Addcats(_Other._Ptr->_Catmask,
; 347  : 						_Other.name().c_str());
; 348  : 					_Ptr->_Catmask = _Loc._Ptr->_Catmask
; 349  : 						| _Other._Ptr->_Catmask;
; 350  : 					_Ptr->_Name = _Lobj._Getname();
; 351  : 				_END_LOCINFO()
; 352  : 			_CATCH_ALL
; 353  : 			delete _Ptr->_Decref();
; 354  : 			_RERAISE;
; 355  : 			_CATCH_END
; 356  : 			}
; 357  : 		}
; 358  : 
; 359  : private:
; 360  : 	void _Construct(const string &_Str,
; 361  : 		category _Cat)
; 362  : 		{	// construct a locale with named facets
; 363  : 		bool _Bad = false;
; 364  : 		_Init();
; 365  : 		if (_Cat != none)
; 366  : 			{	// worth adding, do it
; 367  : 			_TRY_BEGIN
; 368  : 				_BEGIN_LOCINFO(_Lobj(_Cat, _Str.c_str()))
; 369  : 					if (_Badname(_Lobj))
; 370  : 						_Bad = true;
; 371  : 					else
; 372  : 						{	// name okay, build the locale
; 373  : 						_Locimp::_Makeloc(_Lobj, _Cat, _Ptr, 0);
; 374  : 						_Ptr->_Catmask = _Cat;
; 375  : 						_Ptr->_Name = _Str.c_str();
; 376  : 						}
; 377  : 				_END_LOCINFO()
; 378  : 			_CATCH_ALL
; 379  : 			delete _Ptr->_Decref();
; 380  : 			_RERAISE;
; 381  : 			_CATCH_END
; 382  : 			}
; 383  : 
; 384  : 		if (_Bad)
; 385  : 			{	// Don't throw within _BEGIN_LOCINFO if we can avoid it
; 386  : 			delete _Ptr->_Decref();
; 387  : 			_Xruntime_error("bad locale name");
; 388  : 			}
; 389  : 		}
; 390  : 
; 391  : public:
; 392  : 	explicit locale(const char *_Locname,
; 393  : 		category _Cat = all)
; 394  : 		: _Ptr(_Locimp::_New_Locimp())
; 395  : 		{	// construct a locale with named facets
; 396  : 		// _Locname might have been returned from setlocale().
; 397  : 		// Therefore, _Construct() takes const string&.
; 398  : 		if (_Locname == 0)
; 399  : 			_Xruntime_error("bad locale name");
; 400  : 		_Construct(_Locname, _Cat);
; 401  : 		}
; 402  : 
; 403  : 	locale(const locale& _Loc, const char *_Locname,
; 404  : 		category _Cat)
; 405  : 		: _Ptr(_Locimp::_New_Locimp(*_Loc._Ptr))
; 406  : 		{	// construct a locale by copying, replacing named facets
; 407  : 		// _Locname might have been returned from setlocale().
; 408  : 		// Therefore, _Construct() takes const string&.
; 409  : 		if (_Locname == 0)
; 410  : 			_Xruntime_error("bad locale name");
; 411  : 		_Construct(_Locname, _Cat);
; 412  : 		}
; 413  : 
; 414  : 	explicit locale(const string& _Str,
; 415  : 		category _Cat = all)
; 416  : 		: _Ptr(_Locimp::_New_Locimp())
; 417  : 		{	// construct a locale with named facets
; 418  : 		_Construct(_Str, _Cat);
; 419  : 		}
; 420  : 
; 421  : 	locale(const locale& _Loc, const string& _Str,
; 422  : 		category _Cat)
; 423  : 		: _Ptr(_Locimp::_New_Locimp(*_Loc._Ptr))
; 424  : 		{	// construct a locale by copying, replacing named facets
; 425  : 		_Construct(_Str, _Cat);
; 426  : 		}
; 427  :  #endif /* !MRTDLL || !_CRTBLD */
; 428  : 
; 429  : 	~locale() _NOEXCEPT
; 430  : 		{	// destroy the object
; 431  : 		if (_Ptr != 0)
; 432  : 			delete _Ptr->_Decref();
; 433  : 		}
; 434  : 
; 435  : 	locale& operator=(const locale& _Right) _THROW0()
; 436  : 		{	// assign a locale
; 437  : 		if (_Ptr != _Right._Ptr)
; 438  : 			{	// different implementation, point at new one
; 439  : 			delete _Ptr->_Decref();
; 440  : 			_Ptr = _Right._Ptr;
; 441  : 			_Ptr->_Incref();
; 442  : 			}
; 443  : 		return (*this);
; 444  : 		}
; 445  :  #endif /* _NO_LOCALES */
; 446  : 
; 447  : 	string name() const
; 448  : 		{	// return locale name
; 449  : 		return (_Ptr == 0 ? string() : _Ptr->_Name.c_str());
; 450  : 		}
; 451  : 
; 452  : 	const char *c_str() const
; 453  : 		{	// return locale name as NTBS
; 454  : 		return (_Ptr == 0 ? "" : _Ptr->_Name.c_str());
; 455  : 		}
; 456  : 
; 457  : 	const facet *_Getfacet(size_t _Id) const
; 458  : 		{	// look up a facet in locale object
; 459  : 		const facet *_Facptr = _Id < _Ptr->_Facetcount

  00098	33 ff		 xor	 edi, edi
$LN32@use_facet:

; 460  : 			? _Ptr->_Facetvec[_Id] : 0;	// null if id off end
; 461  : 		if (_Facptr != 0 || !_Ptr->_Xparent)

  0009a	80 79 24 00	 cmp	 BYTE PTR [rcx+36], 0
  0009e	74 13		 je	 SHORT $LN19@use_facet

; 462  : 			return (_Facptr);	// found facet or not transparent
; 463  : 		else
; 464  : 			{	// look in current locale
; 465  : 			locale::_Locimp *_Ptr0 = _Getgloballocale();

  000a0	e8 00 00 00 00	 call	 ?_Getgloballocale@locale@std@@CAPEAV_Locimp@12@XZ ; std::locale::_Getgloballocale

; 466  : 			return (_Id < _Ptr0->_Facetcount

  000a5	48 3b 58 18	 cmp	 rbx, QWORD PTR [rax+24]
  000a9	73 11		 jae	 SHORT $LN33@use_facet
  000ab	48 8b 40 10	 mov	 rax, QWORD PTR [rax+16]
  000af	48 8b 3c d8	 mov	 rdi, QWORD PTR [rax+rbx*8]
$LN19@use_facet:

; 562  : 
; 563  : 		size_t _Id = _Facet::id;
; 564  : 		const locale::facet *_Pf = _Loc._Getfacet(_Id);
; 565  : 
; 566  : 		if (_Pf != 0)

  000b3	48 85 ff	 test	 rdi, rdi
  000b6	0f 85 89 00 00
	00		 jne	 $LN7@use_facet
$LN33@use_facet:

; 567  : 			;	// got facet from locale
; 568  : 		else if (_Psave != 0)

  000bc	48 85 f6	 test	 rsi, rsi
  000bf	74 05		 je	 SHORT $LN4@use_facet

; 569  : 			_Pf = _Psave;	// lazy facet already allocated

  000c1	48 8b fe	 mov	 rdi, rsi
  000c4	eb 7f		 jmp	 SHORT $LN7@use_facet
$LN4@use_facet:

; 570  : 		else if (_Facet::_Getcat(&_Psave, &_Loc) == (size_t)(-1))

  000c6	48 8b d5	 mov	 rdx, rbp
  000c9	48 8d 4c 24 70	 lea	 rcx, QWORD PTR _Psave$5[rsp]
  000ce	e8 00 00 00 00	 call	 ?_Getcat@?$ctype@D@std@@SA_KPEAPEBVfacet@locale@2@PEBV42@@Z ; std::ctype<char>::_Getcat
  000d3	48 83 f8 ff	 cmp	 rax, -1
  000d7	75 31		 jne	 SHORT $LN6@use_facet
; File c:\users\alist_000\cppmisc\packages\visualcpptools.14.0.24224-pre\lib\native\include\vcruntime_exception.h

; 59   :         : _Data()

  000d9	33 c0		 xor	 eax, eax
  000db	48 89 44 24 38	 mov	 QWORD PTR $T2[rsp+16], rax

; 60   :     {
; 61   :         _Data._What = _Message;

  000e0	48 8d 05 00 00
	00 00		 lea	 rax, OFFSET FLAT:??_C@_08EPJLHIJG@bad?5cast?$AA@
  000e7	48 89 44 24 30	 mov	 QWORD PTR $T2[rsp+8], rax
; File c:\users\alist_000\cppmisc\packages\visualcpptools.14.0.24224-pre\lib\native\include\vcruntime_typeinfo.h

; 125  :     {

  000ec	48 8d 05 00 00
	00 00		 lea	 rax, OFFSET FLAT:??_7bad_cast@std@@6B@
  000f3	48 89 44 24 28	 mov	 QWORD PTR $T2[rsp], rax
; File c:\users\alist_000\cppmisc\packages\visualcpptools.14.0.24224-pre\lib\native\include\xlocale

; 574  : 			_THROW_NCEE(_XSTD bad_cast, _EMPTY_ARGUMENT);	// lazy disallowed

  000f8	48 8d 15 00 00
	00 00		 lea	 rdx, OFFSET FLAT:_TI2?AVbad_cast@std@@
  000ff	48 8d 4c 24 28	 lea	 rcx, QWORD PTR $T2[rsp]
  00104	e8 00 00 00 00	 call	 _CxxThrowException
  00109	cc		 int	 3
$LN6@use_facet:

; 575  : 
; 576  :  #else /* _HAS_EXCEPTIONS */
; 577  : 			abort();	// lazy disallowed
; 578  :  #endif /* _HAS_EXCEPTIONS */
; 579  : 
; 580  : 		else
; 581  : 			{	// queue up lazy facet for destruction
; 582  : 			_Pf = _Psave;

  0010a	48 8b 5c 24 70	 mov	 rbx, QWORD PTR _Psave$5[rsp]
  0010f	48 8b fb	 mov	 rdi, rbx

; 583  : 			_Facetptr<_Facet>::_Psave = _Psave;

  00112	48 89 1d 00 00
	00 00		 mov	 QWORD PTR ?_Psave@?$_Facetptr@V?$ctype@D@std@@@std@@2PEBVfacet@locale@2@EB, rbx ; std::_Facetptr<std::ctype<char> >::_Psave
  00119	48 8b 03	 mov	 rax, QWORD PTR [rbx]
  0011c	48 8b 50 08	 mov	 rdx, QWORD PTR [rax+8]
  00120	48 8d 05 00 00
	00 00		 lea	 rax, OFFSET FLAT:?_Incref@facet@locale@std@@UEAAXXZ ; std::locale::facet::_Incref
  00127	48 3b d0	 cmp	 rdx, rax
  0012a	75 0b		 jne	 SHORT $LN10@use_facet

; 150  : 			_MT_INCR(_Myrefs);

  0012c	f0 ff 43 08	 lock inc DWORD PTR [rbx+8]
  00130	48 8b 5c 24 70	 mov	 rbx, QWORD PTR _Psave$5[rsp]
  00135	eb 05		 jmp	 SHORT $LN9@use_facet
$LN10@use_facet:
  00137	48 8b cb	 mov	 rcx, rbx

; 584  : 
; 585  : 			locale::facet *_Pfmod = (_Facet *)_Psave;
; 586  : 			_Pfmod->_Incref();

  0013a	ff d2		 call	 rdx
$LN9@use_facet:

; 587  : 
; 588  :  #if defined(_M_CEE)
; 589  : 			_Facet_Register_m(_Pfmod);
; 590  : 
; 591  :  #else /* defined(_M_CEE) */
; 592  : 			_Facet_Register(_Pfmod);

  0013c	48 8b cb	 mov	 rcx, rbx
  0013f	e8 00 00 00 00	 call	 ?_Facet_Register@std@@YAXPEAV_Facet_base@1@@Z ; std::_Facet_Register
  00144	90		 npad	 1
$LN7@use_facet:

; 593  :  #endif /* defined(_M_CEE) */
; 594  : 			}
; 595  : 
; 596  : 		return ((const _Facet&)(*_Pf));	// should be dynamic_cast

  00145	48 8d 4c 24 68	 lea	 rcx, QWORD PTR _Lock$4[rsp]
  0014a	e8 00 00 00 00	 call	 ??1_Lockit@std@@QEAA@XZ	; std::_Lockit::~_Lockit
  0014f	48 8b c7	 mov	 rax, rdi

; 597  : 	_END_LOCK()
; 598  :  #endif /* _NO_LOCALES */
; 599  : 	}	// end of use_facet body

  00152	48 8b 5c 24 78	 mov	 rbx, QWORD PTR [rsp+120]
  00157	48 83 c4 40	 add	 rsp, 64			; 00000040H
  0015b	5f		 pop	 rdi
  0015c	5e		 pop	 rsi
  0015d	5d		 pop	 rbp
  0015e	c3		 ret	 0
$LN34@use_facet:
??$use_facet@V?$ctype@D@std@@@std@@YAAEBV?$ctype@D@0@AEBVlocale@0@@Z ENDP ; std::use_facet<std::ctype<char> >
_TEXT	ENDS
;	COMDAT text$x
text$x	SEGMENT
$T1 = 32
$T2 = 40
_Lock$3 = 96
_Loc$ = 96
_Lock$4 = 104
_Psave$5 = 112
?dtor$0@?0???$use_facet@V?$ctype@D@std@@@std@@YAAEBV?$ctype@D@0@AEBVlocale@0@@Z@4HA PROC ; `std::use_facet<std::ctype<char> >'::`1'::dtor$0
  00000	48 8d 8a 68 00
	00 00		 lea	 rcx, QWORD PTR _Lock$4[rdx]
  00007	e9 00 00 00 00	 jmp	 ??1_Lockit@std@@QEAA@XZ	; std::_Lockit::~_Lockit
?dtor$0@?0???$use_facet@V?$ctype@D@std@@@std@@YAAEBV?$ctype@D@0@AEBVlocale@0@@Z@4HA ENDP ; `std::use_facet<std::ctype<char> >'::`1'::dtor$0
text$x	ENDS
; Function compile flags: /Ogtpy
;	COMDAT text$x
text$x	SEGMENT
$T1 = 32
$T2 = 40
_Lock$3 = 96
_Loc$ = 96
_Lock$4 = 104
_Psave$5 = 112
?dtor$0@?0???$use_facet@V?$ctype@D@std@@@std@@YAAEBV?$ctype@D@0@AEBVlocale@0@@Z@4HA PROC ; `std::use_facet<std::ctype<char> >'::`1'::dtor$0
  00000	48 8d 8a 68 00
	00 00		 lea	 rcx, QWORD PTR _Lock$4[rdx]
  00007	e9 00 00 00 00	 jmp	 ??1_Lockit@std@@QEAA@XZ	; std::_Lockit::~_Lockit
?dtor$0@?0???$use_facet@V?$ctype@D@std@@@std@@YAAEBV?$ctype@D@0@AEBVlocale@0@@Z@4HA ENDP ; `std::use_facet<std::ctype<char> >'::`1'::dtor$0
text$x	ENDS
; Function compile flags: /Ogtpy
; File c:\users\alist_000\cppmisc\packages\visualcpptools.14.0.24224-pre\lib\native\include\system_error
;	COMDAT ??$_Immortalize@V_Iostream_error_category@std@@@std@@YAAEAV_Iostream_error_category@0@XZ
_TEXT	SEGMENT
??$_Immortalize@V_Iostream_error_category@std@@@std@@YAAEAV_Iostream_error_category@0@XZ PROC ; std::_Immortalize<std::_Iostream_error_category>, COMDAT

; 697  : 	{	// return a reference to an object that will live forever

$LN23:
  00000	48 83 ec 28	 sub	 rsp, 40			; 00000028H

; 698  : 	/* MAGIC */ static _Immortalizer<_Ty> _Static;

  00004	65 48 8b 04 25
	58 00 00 00	 mov	 rax, QWORD PTR gs:88
  0000d	ba 00 00 00 00	 mov	 edx, OFFSET FLAT:_Init_thread_epoch
  00012	48 8b 08	 mov	 rcx, QWORD PTR [rax]
  00015	8b 04 0a	 mov	 eax, DWORD PTR [rdx+rcx]
  00018	39 05 00 00 00
	00		 cmp	 DWORD PTR ?$TSS0@?1???$_Immortalize@V_Iostream_error_category@std@@@std@@YAAEAV_Iostream_error_category@1@XZ@4HA, eax ; TSS0<`template-parameter-2',unsigned int,std::V_Iostream_error_category::mortalize>
  0001e	7f 0c		 jg	 SHORT $LN21@Immortaliz
$LN19@Immortaliz:

; 699  : 	return (*reinterpret_cast<_Ty *>(&_Static._Storage));

  00020	48 8d 05 00 00
	00 00		 lea	 rax, OFFSET FLAT:?_Static@?1???$_Immortalize@V_Iostream_error_category@std@@@std@@YAAEAV_Iostream_error_category@1@XZ@4U?$_Immortalizer@V_Iostream_error_category@std@@@1@A ; `std::_Immortalize<std::_Iostream_error_category>'::`2'::_Static

; 700  : 	}

  00027	48 83 c4 28	 add	 rsp, 40			; 00000028H
  0002b	c3		 ret	 0
$LN21@Immortaliz:

; 698  : 	/* MAGIC */ static _Immortalizer<_Ty> _Static;

  0002c	48 8d 0d 00 00
	00 00		 lea	 rcx, OFFSET FLAT:?$TSS0@?1???$_Immortalize@V_Iostream_error_category@std@@@std@@YAAEAV_Iostream_error_category@1@XZ@4HA ; TSS0<`template-parameter-2',unsigned int,std::V_Iostream_error_category::mortalize>
  00033	e8 00 00 00 00	 call	 _Init_thread_header
  00038	83 3d 00 00 00
	00 ff		 cmp	 DWORD PTR ?$TSS0@?1???$_Immortalize@V_Iostream_error_category@std@@@std@@YAAEAV_Iostream_error_category@1@XZ@4HA, -1 ; TSS0<`template-parameter-2',unsigned int,std::V_Iostream_error_category::mortalize>
  0003f	75 df		 jne	 SHORT $LN19@Immortaliz

; 616  : 		{	// default constructor

  00041	48 8d 05 00 00
	00 00		 lea	 rax, OFFSET FLAT:??_7_Iostream_error_category@std@@6B@

; 617  : 		_Addr = _Iostream_addr;

  00048	48 c7 05 08 00
	00 00 05 00 00
	00		 mov	 QWORD PTR ?_Static@?1???$_Immortalize@V_Iostream_error_category@std@@@std@@YAAEAV_Iostream_error_category@1@XZ@4U?$_Immortalizer@V_Iostream_error_category@std@@@1@A+8, 5

; 698  : 	/* MAGIC */ static _Immortalizer<_Ty> _Static;

  00053	48 8d 0d 00 00
	00 00		 lea	 rcx, OFFSET FLAT:??__F_Static@?1???$_Immortalize@V_Iostream_error_category@std@@@std@@YAAEAV_Iostream_error_category@0@XZ@YAXXZ ; `std::_Immortalize<std::_Iostream_error_category>'::`2'::`dynamic atexit destructor for '_Static''

; 616  : 		{	// default constructor

  0005a	48 89 05 00 00
	00 00		 mov	 QWORD PTR ?_Static@?1???$_Immortalize@V_Iostream_error_category@std@@@std@@YAAEAV_Iostream_error_category@1@XZ@4U?$_Immortalizer@V_Iostream_error_category@std@@@1@A, rax

; 698  : 	/* MAGIC */ static _Immortalizer<_Ty> _Static;

  00061	e8 00 00 00 00	 call	 atexit
  00066	48 8d 0d 00 00
	00 00		 lea	 rcx, OFFSET FLAT:?$TSS0@?1???$_Immortalize@V_Iostream_error_category@std@@@std@@YAAEAV_Iostream_error_category@1@XZ@4HA ; TSS0<`template-parameter-2',unsigned int,std::V_Iostream_error_category::mortalize>
  0006d	e8 00 00 00 00	 call	 _Init_thread_footer
  00072	eb ac		 jmp	 SHORT $LN19@Immortaliz
??$_Immortalize@V_Iostream_error_category@std@@@std@@YAAEAV_Iostream_error_category@0@XZ ENDP ; std::_Immortalize<std::_Iostream_error_category>
_TEXT	ENDS
; Function compile flags: /Ogtpy
; File c:\users\alist_000\cppmisc\packages\visualcpptools.14.0.24224-pre\lib\native\include\ostream
; File c:\users\alist_000\cppmisc\packages\visualcpptools.14.0.24224-pre\lib\native\include\xiosbase
; File c:\users\alist_000\cppmisc\packages\visualcpptools.14.0.24224-pre\lib\native\include\ostream
; File c:\users\alist_000\cppmisc\packages\visualcpptools.14.0.24224-pre\lib\native\include\ios
; File c:\users\alist_000\cppmisc\packages\visualcpptools.14.0.24224-pre\lib\native\include\ostream
; File c:\users\alist_000\cppmisc\packages\visualcpptools.14.0.24224-pre\lib\native\include\xiosbase
; File c:\users\alist_000\cppmisc\packages\visualcpptools.14.0.24224-pre\lib\native\include\ostream
; File c:\users\alist_000\cppmisc\packages\visualcpptools.14.0.24224-pre\lib\native\include\ios
; File c:\users\alist_000\cppmisc\packages\visualcpptools.14.0.24224-pre\lib\native\include\ostream
; File c:\users\alist_000\cppmisc\packages\visualcpptools.14.0.24224-pre\lib\native\include\xiosbase
; File c:\users\alist_000\cppmisc\packages\visualcpptools.14.0.24224-pre\lib\native\include\ostream
; File c:\users\alist_000\cppmisc\packages\visualcpptools.14.0.24224-pre\lib\native\include\xiosbase
; File c:\users\alist_000\cppmisc\packages\visualcpptools.14.0.24224-pre\lib\native\include\ostream
; File c:\users\alist_000\cppmisc\packages\visualcpptools.14.0.24224-pre\lib\native\include\ios
; File c:\users\alist_000\cppmisc\packages\visualcpptools.14.0.24224-pre\lib\native\include\streambuf
; File c:\users\alist_000\cppmisc\packages\visualcpptools.14.0.24224-pre\lib\native\include\iosfwd
; File c:\users\alist_000\cppmisc\packages\visualcpptools.14.0.24224-pre\lib\native\include\streambuf
; File c:\users\alist_000\cppmisc\packages\visualcpptools.14.0.24224-pre\lib\native\include\iosfwd
; File c:\users\alist_000\cppmisc\packages\visualcpptools.14.0.24224-pre\lib\native\include\streambuf
; File c:\users\alist_000\cppmisc\packages\visualcpptools.14.0.24224-pre\lib\native\include\ostream
; File c:\users\alist_000\cppmisc\packages\visualcpptools.14.0.24224-pre\lib\native\include\ios
; File c:\users\alist_000\cppmisc\packages\visualcpptools.14.0.24224-pre\lib\native\include\streambuf
; File c:\users\alist_000\cppmisc\packages\visualcpptools.14.0.24224-pre\lib\native\include\ostream
; File c:\users\alist_000\cppmisc\packages\visualcpptools.14.0.24224-pre\lib\native\include\ios
; File c:\users\alist_000\cppmisc\packages\visualcpptools.14.0.24224-pre\lib\native\include\streambuf
; File c:\users\alist_000\cppmisc\packages\visualcpptools.14.0.24224-pre\lib\native\include\iosfwd
; File c:\users\alist_000\cppmisc\packages\visualcpptools.14.0.24224-pre\lib\native\include\streambuf
; File c:\users\alist_000\cppmisc\packages\visualcpptools.14.0.24224-pre\lib\native\include\iosfwd
; File c:\users\alist_000\cppmisc\packages\visualcpptools.14.0.24224-pre\lib\native\include\streambuf
; File c:\users\alist_000\cppmisc\packages\visualcpptools.14.0.24224-pre\lib\native\include\ostream
; File c:\users\alist_000\cppmisc\packages\visualcpptools.14.0.24224-pre\lib\native\include\xiosbase
; File c:\users\alist_000\cppmisc\packages\visualcpptools.14.0.24224-pre\lib\native\include\ostream
; File c:\users\alist_000\cppmisc\packages\visualcpptools.14.0.24224-pre\lib\native\include\ios
; File c:\users\alist_000\cppmisc\packages\visualcpptools.14.0.24224-pre\lib\native\include\xiosbase
; File c:\users\alist_000\cppmisc\packages\visualcpptools.14.0.24224-pre\lib\native\include\ios
; File c:\users\alist_000\cppmisc\packages\visualcpptools.14.0.24224-pre\lib\native\include\ostream
; File c:\users\alist_000\cppmisc\packages\visualcpptools.14.0.24224-pre\lib\native\include\ios
; File c:\users\alist_000\cppmisc\packages\visualcpptools.14.0.24224-pre\lib\native\include\ostream
;	COMDAT ??$?6U?$char_traits@D@std@@@std@@YAAEAV?$basic_ostream@DU?$char_traits@D@std@@@0@AEAV10@PEBD@Z
_TEXT	SEGMENT
_State$ = 32
_Ostr$GSCopy$ = 40
_Ok$ = 48
$T1 = 64
_Ostr$dead$ = 96
_Val$dead$ = 104
??$?6U?$char_traits@D@std@@@std@@YAAEAV?$basic_ostream@DU?$char_traits@D@std@@@0@AEAV10@PEBD@Z PROC ; std::operator<<<std::char_traits<char> >, COMDAT

; 780  : 	{	// insert NTBS into char stream

$LN1171:
  00000	41 56		 push	 r14
  00002	48 83 ec 50	 sub	 rsp, 80			; 00000050H
  00006	48 c7 44 24 40
	fe ff ff ff	 mov	 QWORD PTR $T1[rsp], -2
  0000f	48 89 5c 24 60	 mov	 QWORD PTR [rsp+96], rbx
  00014	48 89 74 24 68	 mov	 QWORD PTR [rsp+104], rsi
  00019	48 89 7c 24 70	 mov	 QWORD PTR [rsp+112], rdi
  0001e	48 8d 35 00 00
	00 00		 lea	 rsi, OFFSET FLAT:?cout@std@@3V?$basic_ostream@DU?$char_traits@D@std@@@1@A ; std::cout
  00025	48 89 74 24 28	 mov	 QWORD PTR _Ostr$GSCopy$[rsp], rsi

; 781  : 	typedef char _Elem;
; 782  : 	typedef basic_ostream<_Elem, _Traits> _Myos;
; 783  : 	ios_base::iostate _State = ios_base::goodbit;

  0002a	33 db		 xor	 ebx, ebx
  0002c	89 5c 24 20	 mov	 DWORD PTR _State$[rsp], ebx

; 785  : 	streamsize _Pad = _Ostr.width() <= 0 || _Ostr.width() <= _Count

  00030	48 8b 05 00 00
	00 00		 mov	 rax, QWORD PTR ?cout@std@@3V?$basic_ostream@DU?$char_traits@D@std@@@1@A
  00037	48 63 48 04	 movsxd	 rcx, DWORD PTR [rax+4]
; File c:\users\alist_000\cppmisc\packages\visualcpptools.14.0.24224-pre\lib\native\include\xiosbase

; 423  : 		return (_Wide);

  0003b	48 8b 7c 31 28	 mov	 rdi, QWORD PTR [rcx+rsi+40]
; File c:\users\alist_000\cppmisc\packages\visualcpptools.14.0.24224-pre\lib\native\include\ostream

; 785  : 	streamsize _Pad = _Ostr.width() <= 0 || _Ostr.width() <= _Count

  00040	48 85 ff	 test	 rdi, rdi
  00043	7e 0c		 jle	 SHORT $LN17@operator
  00045	48 83 ff 0a	 cmp	 rdi, 10
  00049	7e 06		 jle	 SHORT $LN17@operator
  0004b	48 83 c7 f6	 add	 rdi, -10
  0004f	eb 02		 jmp	 SHORT $LN18@operator
$LN17@operator:
  00051	33 ff		 xor	 edi, edi
$LN18@operator:

; 99   : 			: _Myostr(_Ostr)

  00053	4c 8b f6	 mov	 r14, rsi
  00056	48 89 74 24 30	 mov	 QWORD PTR _Ok$[rsp], rsi
; File c:\users\alist_000\cppmisc\packages\visualcpptools.14.0.24224-pre\lib\native\include\ios

; 92   : 		return (_Mystrbuf);

  0005b	48 8b 4c 31 48	 mov	 rcx, QWORD PTR [rcx+rsi+72]
; File c:\users\alist_000\cppmisc\packages\visualcpptools.14.0.24224-pre\lib\native\include\ostream

; 101  : 			if (_Myostr.rdbuf() != 0)

  00060	48 85 c9	 test	 rcx, rcx
  00063	74 0d		 je	 SHORT $LN39@operator

; 102  : 				_Myostr.rdbuf()->_Lock();

  00065	48 8b 01	 mov	 rax, QWORD PTR [rcx]
  00068	ff 50 08	 call	 QWORD PTR [rax+8]
  0006b	48 8b 05 00 00
	00 00		 mov	 rax, QWORD PTR ?cout@std@@3V?$basic_ostream@DU?$char_traits@D@std@@@1@A
$LN39@operator:

; 124  : 			if (_Ostr.good() && _Ostr.tie() != 0 && _Ostr.tie() != &_Ostr)

  00072	48 63 48 04	 movsxd	 rcx, DWORD PTR [rax+4]
; File c:\users\alist_000\cppmisc\packages\visualcpptools.14.0.24224-pre\lib\native\include\xiosbase

; 339  : 		return (rdstate() == goodbit);

  00076	83 7c 31 10 00	 cmp	 DWORD PTR [rcx+rsi+16], 0
; File c:\users\alist_000\cppmisc\packages\visualcpptools.14.0.24224-pre\lib\native\include\ostream

; 124  : 			if (_Ostr.good() && _Ostr.tie() != 0 && _Ostr.tie() != &_Ostr)

  0007b	75 1b		 jne	 SHORT $LN35@operator
; File c:\users\alist_000\cppmisc\packages\visualcpptools.14.0.24224-pre\lib\native\include\ios

; 80   : 		return (_Tiestr);

  0007d	48 8b 4c 31 50	 mov	 rcx, QWORD PTR [rcx+rsi+80]
; File c:\users\alist_000\cppmisc\packages\visualcpptools.14.0.24224-pre\lib\native\include\ostream

; 124  : 			if (_Ostr.good() && _Ostr.tie() != 0 && _Ostr.tie() != &_Ostr)

  00082	48 85 c9	 test	 rcx, rcx
  00085	74 11		 je	 SHORT $LN35@operator
  00087	48 3b ce	 cmp	 rcx, rsi
  0008a	74 0c		 je	 SHORT $LN35@operator

; 125  : 				_Ostr.tie()->flush();

  0008c	e8 00 00 00 00	 call	 ?flush@?$basic_ostream@DU?$char_traits@D@std@@@std@@QEAAAEAV12@XZ ; std::basic_ostream<char,std::char_traits<char> >::flush
  00091	48 8b 05 00 00
	00 00		 mov	 rax, QWORD PTR ?cout@std@@3V?$basic_ostream@DU?$char_traits@D@std@@@1@A
$LN35@operator:

; 126  : 			_Ok = _Ostr.good();	// store test only after flushing tie

  00098	48 63 48 04	 movsxd	 rcx, DWORD PTR [rax+4]
; File c:\users\alist_000\cppmisc\packages\visualcpptools.14.0.24224-pre\lib\native\include\xiosbase

; 339  : 		return (rdstate() == goodbit);

  0009c	83 7c 31 10 00	 cmp	 DWORD PTR [rcx+rsi+16], 0
  000a1	0f 94 c0	 sete	 al
  000a4	88 44 24 38	 mov	 BYTE PTR _Ok$[rsp+8], al
; File c:\users\alist_000\cppmisc\packages\visualcpptools.14.0.24224-pre\lib\native\include\ostream

; 789  : 	if (!_Ok)

  000a8	84 c0		 test	 al, al
  000aa	75 0a		 jne	 SHORT $LN8@operator

; 790  : 		_State |= ios_base::badbit;

  000ac	bb 04 00 00 00	 mov	 ebx, 4

; 791  : 	else

  000b1	e9 22 01 00 00	 jmp	 $LN22@operator
$LN8@operator:
; File c:\users\alist_000\cppmisc\packages\visualcpptools.14.0.24224-pre\lib\native\include\xiosbase

; 378  : 		return (_Fmtfl);

  000b6	8b 44 31 18	 mov	 eax, DWORD PTR [rcx+rsi+24]
; File c:\users\alist_000\cppmisc\packages\visualcpptools.14.0.24224-pre\lib\native\include\ostream

; 794  : 		if ((_Ostr.flags() & ios_base::adjustfield) != ios_base::left)

  000ba	25 c0 01 00 00	 and	 eax, 448		; 000001c0H
  000bf	83 f8 40	 cmp	 eax, 64			; 00000040H
  000c2	74 66		 je	 SHORT $LN1162@operator
$LL4@operator:

; 795  : 			for (; 0 < _Pad; --_Pad)	// pad on left

  000c4	48 85 ff	 test	 rdi, rdi
  000c7	7e 59		 jle	 SHORT $LN3@operator

; 796  : 				if (_Traits::eq_int_type(_Traits::eof(),

  000c9	48 8b 06	 mov	 rax, QWORD PTR [rsi]
  000cc	48 63 48 04	 movsxd	 rcx, DWORD PTR [rax+4]
; File c:\users\alist_000\cppmisc\packages\visualcpptools.14.0.24224-pre\lib\native\include\ios

; 113  : 		return (_Fillch);

  000d0	44 0f b6 44 31
	58		 movzx	 r8d, BYTE PTR [rcx+rsi+88]

; 92   : 		return (_Mystrbuf);

  000d6	48 8b 4c 31 48	 mov	 rcx, QWORD PTR [rcx+rsi+72]
; File c:\users\alist_000\cppmisc\packages\visualcpptools.14.0.24224-pre\lib\native\include\streambuf

; 314  : 		return (*_IPnext != 0 ? *_IPcount : 0);

  000db	48 8b 41 40	 mov	 rax, QWORD PTR [rcx+64]
  000df	48 83 38 00	 cmp	 QWORD PTR [rax], 0
  000e3	74 25		 je	 SHORT $LN69@operator
  000e5	48 8b 51 58	 mov	 rdx, QWORD PTR [rcx+88]
  000e9	8b 02		 mov	 eax, DWORD PTR [rdx]

; 200  : 		return (0 < _Pnavail()

  000eb	85 c0		 test	 eax, eax
  000ed	7e 1b		 jle	 SHORT $LN69@operator

; 308  : 		--*_IPcount;

  000ef	ff c8		 dec	 eax
  000f1	89 02		 mov	 DWORD PTR [rdx], eax

; 309  : 		return ((*_IPnext)++);

  000f3	48 8b 49 40	 mov	 rcx, QWORD PTR [rcx+64]
  000f7	48 8b 11	 mov	 rdx, QWORD PTR [rcx]
  000fa	48 8d 42 01	 lea	 rax, QWORD PTR [rdx+1]
  000fe	48 89 01	 mov	 QWORD PTR [rcx], rax

; 200  : 		return (0 < _Pnavail()

  00101	44 88 02	 mov	 BYTE PTR [rdx], r8b
; File c:\users\alist_000\cppmisc\packages\visualcpptools.14.0.24224-pre\lib\native\include\iosfwd

; 589  : 		return ((unsigned char)_Ch);

  00104	41 0f b6 c0	 movzx	 eax, r8b
; File c:\users\alist_000\cppmisc\packages\visualcpptools.14.0.24224-pre\lib\native\include\streambuf

; 200  : 		return (0 < _Pnavail()

  00108	eb 0a		 jmp	 SHORT $LN70@operator
$LN69@operator:
; File c:\users\alist_000\cppmisc\packages\visualcpptools.14.0.24224-pre\lib\native\include\iosfwd

; 589  : 		return ((unsigned char)_Ch);

  0010a	41 0f b6 d0	 movzx	 edx, r8b
; File c:\users\alist_000\cppmisc\packages\visualcpptools.14.0.24224-pre\lib\native\include\streambuf

; 200  : 		return (0 < _Pnavail()

  0010e	48 8b 01	 mov	 rax, QWORD PTR [rcx]
  00111	ff 50 18	 call	 QWORD PTR [rax+24]
$LN70@operator:
  00114	83 f8 ff	 cmp	 eax, -1
; File c:\users\alist_000\cppmisc\packages\visualcpptools.14.0.24224-pre\lib\native\include\ostream

; 796  : 				if (_Traits::eq_int_type(_Traits::eof(),

  00117	0f 84 92 00 00
	00		 je	 $LN1169@operator

; 795  : 			for (; 0 < _Pad; --_Pad)	// pad on left

  0011d	48 ff cf	 dec	 rdi
  00120	eb a2		 jmp	 SHORT $LL4@operator
$LN3@operator:
  00122	85 db		 test	 ebx, ebx

; 804  : 			&& _Ostr.rdbuf()->sputn(_Val, _Count) != _Count)

  00124	0f 85 8e 00 00
	00		 jne	 $LN6@operator
$LN1162@operator:
  0012a	48 8b 06	 mov	 rax, QWORD PTR [rsi]
  0012d	48 63 48 04	 movsxd	 rcx, DWORD PTR [rax+4]
; File c:\users\alist_000\cppmisc\packages\visualcpptools.14.0.24224-pre\lib\native\include\ios

; 92   : 		return (_Mystrbuf);

  00131	48 8b 4c 31 48	 mov	 rcx, QWORD PTR [rcx+rsi+72]
; File c:\users\alist_000\cppmisc\packages\visualcpptools.14.0.24224-pre\lib\native\include\streambuf

; 208  : 		return (xsputn(_Ptr, _Count));

  00136	48 8b 01	 mov	 rax, QWORD PTR [rcx]
  00139	41 b8 0a 00 00
	00		 mov	 r8d, 10
  0013f	48 8d 15 00 00
	00 00		 lea	 rdx, OFFSET FLAT:$SG4294967239
  00146	ff 50 48	 call	 QWORD PTR [rax+72]
; File c:\users\alist_000\cppmisc\packages\visualcpptools.14.0.24224-pre\lib\native\include\ostream

; 804  : 			&& _Ostr.rdbuf()->sputn(_Val, _Count) != _Count)

  00149	48 83 f8 0a	 cmp	 rax, 10
  0014d	75 60		 jne	 SHORT $LN1169@operator
  0014f	90		 npad	 1
$LL1165@operator:

; 806  : 
; 807  : 		if (_State == ios_base::goodbit)
; 808  : 			for (; 0 < _Pad; --_Pad)	// pad on right

  00150	48 85 ff	 test	 rdi, rdi
  00153	7e 63		 jle	 SHORT $LN6@operator

; 809  : 				if (_Traits::eq_int_type(_Traits::eof(),

  00155	48 8b 06	 mov	 rax, QWORD PTR [rsi]
  00158	48 63 48 04	 movsxd	 rcx, DWORD PTR [rax+4]
; File c:\users\alist_000\cppmisc\packages\visualcpptools.14.0.24224-pre\lib\native\include\ios

; 113  : 		return (_Fillch);

  0015c	44 0f b6 44 31
	58		 movzx	 r8d, BYTE PTR [rcx+rsi+88]

; 92   : 		return (_Mystrbuf);

  00162	48 8b 4c 31 48	 mov	 rcx, QWORD PTR [rcx+rsi+72]
; File c:\users\alist_000\cppmisc\packages\visualcpptools.14.0.24224-pre\lib\native\include\streambuf

; 314  : 		return (*_IPnext != 0 ? *_IPcount : 0);

  00167	48 8b 41 40	 mov	 rax, QWORD PTR [rcx+64]
  0016b	48 83 38 00	 cmp	 QWORD PTR [rax], 0
  0016f	74 25		 je	 SHORT $LN99@operator
  00171	48 8b 51 58	 mov	 rdx, QWORD PTR [rcx+88]
  00175	8b 02		 mov	 eax, DWORD PTR [rdx]

; 200  : 		return (0 < _Pnavail()

  00177	85 c0		 test	 eax, eax
  00179	7e 1b		 jle	 SHORT $LN99@operator

; 308  : 		--*_IPcount;

  0017b	ff c8		 dec	 eax
  0017d	89 02		 mov	 DWORD PTR [rdx], eax

; 309  : 		return ((*_IPnext)++);

  0017f	48 8b 49 40	 mov	 rcx, QWORD PTR [rcx+64]
  00183	48 8b 11	 mov	 rdx, QWORD PTR [rcx]
  00186	48 8d 42 01	 lea	 rax, QWORD PTR [rdx+1]
  0018a	48 89 01	 mov	 QWORD PTR [rcx], rax

; 200  : 		return (0 < _Pnavail()

  0018d	44 88 02	 mov	 BYTE PTR [rdx], r8b
; File c:\users\alist_000\cppmisc\packages\visualcpptools.14.0.24224-pre\lib\native\include\iosfwd

; 589  : 		return ((unsigned char)_Ch);

  00190	41 0f b6 c0	 movzx	 eax, r8b
; File c:\users\alist_000\cppmisc\packages\visualcpptools.14.0.24224-pre\lib\native\include\streambuf

; 200  : 		return (0 < _Pnavail()

  00194	eb 0a		 jmp	 SHORT $LN100@operator
$LN99@operator:
; File c:\users\alist_000\cppmisc\packages\visualcpptools.14.0.24224-pre\lib\native\include\iosfwd

; 589  : 		return ((unsigned char)_Ch);

  00196	41 0f b6 d0	 movzx	 edx, r8b
; File c:\users\alist_000\cppmisc\packages\visualcpptools.14.0.24224-pre\lib\native\include\streambuf

; 200  : 		return (0 < _Pnavail()

  0019a	48 8b 01	 mov	 rax, QWORD PTR [rcx]
  0019d	ff 50 18	 call	 QWORD PTR [rax+24]
$LN100@operator:
  001a0	83 f8 ff	 cmp	 eax, -1
; File c:\users\alist_000\cppmisc\packages\visualcpptools.14.0.24224-pre\lib\native\include\ostream

; 809  : 				if (_Traits::eq_int_type(_Traits::eof(),

  001a3	75 05		 jne	 SHORT $LN5@operator

; 810  : 					_Ostr.rdbuf()->sputc(_Ostr.fill())))
; 811  : 					{	// insertion failed, quit
; 812  : 					_State |= ios_base::badbit;

  001a5	83 cb 04	 or	 ebx, 4

; 813  : 					break;

  001a8	eb 0a		 jmp	 SHORT $LN1168@operator
$LN5@operator:

; 806  : 
; 807  : 		if (_State == ios_base::goodbit)
; 808  : 			for (; 0 < _Pad; --_Pad)	// pad on right

  001aa	48 ff cf	 dec	 rdi
  001ad	eb a1		 jmp	 SHORT $LL1165@operator
$LN1169@operator:

; 805  : 			_State |= ios_base::badbit;

  001af	bb 04 00 00 00	 mov	 ebx, 4
$LN1168@operator:

; 797  : 					_Ostr.rdbuf()->sputc(_Ostr.fill())))
; 798  : 					{	// insertion failed, quit
; 799  : 					_State |= ios_base::badbit;

  001b4	89 5c 24 20	 mov	 DWORD PTR _State$[rsp], ebx
$LN6@operator:

; 814  : 					}
; 815  : 		_Ostr.width(0);

  001b8	48 8b 06	 mov	 rax, QWORD PTR [rsi]
  001bb	48 63 48 04	 movsxd	 rcx, DWORD PTR [rax+4]
; File c:\users\alist_000\cppmisc\packages\visualcpptools.14.0.24224-pre\lib\native\include\xiosbase

; 429  : 		_Wide = _Newwidth;

  001bf	48 c7 44 31 28
	00 00 00 00	 mov	 QWORD PTR [rcx+rsi+40], 0
; File c:\users\alist_000\cppmisc\packages\visualcpptools.14.0.24224-pre\lib\native\include\ostream
  001c8	eb 0e		 jmp	 SHORT $LN22@operator
$LN23@operator:
; File c:\users\alist_000\cppmisc\packages\visualcpptools.14.0.24224-pre\lib\native\include\ios
  001ca	8b 5c 24 20	 mov	 ebx, DWORD PTR _State$[rsp]
  001ce	4c 8b 74 24 30	 mov	 r14, QWORD PTR _Ok$[rsp]
  001d3	48 8b 74 24 28	 mov	 rsi, QWORD PTR _Ostr$GSCopy$[rsp]
$LN22@operator:
; File c:\users\alist_000\cppmisc\packages\visualcpptools.14.0.24224-pre\lib\native\include\ostream

; 819  : 	_Ostr.setstate(_State);

  001d8	48 8b 06	 mov	 rax, QWORD PTR [rsi]
  001db	48 63 48 04	 movsxd	 rcx, DWORD PTR [rax+4]
  001df	48 03 ce	 add	 rcx, rsi
; File c:\users\alist_000\cppmisc\packages\visualcpptools.14.0.24224-pre\lib\native\include\ios

; 59   : 		if (_State != goodbit)

  001e2	85 db		 test	 ebx, ebx
  001e4	74 1b		 je	 SHORT $LN1136@operator
; File c:\users\alist_000\cppmisc\packages\visualcpptools.14.0.24224-pre\lib\native\include\xiosbase

; 315  : 		return (_Mystate);

  001e6	8b 41 10	 mov	 eax, DWORD PTR [rcx+16]
; File c:\users\alist_000\cppmisc\packages\visualcpptools.14.0.24224-pre\lib\native\include\ios

; 60   : 			clear((iostate)((int)rdstate() | (int)_State), _Reraise);

  001e9	0b c3		 or	 eax, ebx
  001eb	8b d0		 mov	 edx, eax
  001ed	83 ca 04	 or	 edx, 4
  001f0	48 83 79 48 00	 cmp	 QWORD PTR [rcx+72], 0
  001f5	0f 45 d0	 cmovne	 edx, eax

; 45   : 		ios_base::clear((iostate)(_Mystrbuf == 0

  001f8	45 33 c0	 xor	 r8d, r8d
  001fb	e8 00 00 00 00	 call	 ?clear@ios_base@std@@QEAAXH_N@Z ; std::ios_base::clear
  00200	90		 npad	 1
$LN1136@operator:
; File c:\users\alist_000\cppmisc\packages\visualcpptools.14.0.24224-pre\lib\native\include\ostream

; 132  : 			if (!_XSTD uncaught_exception())

  00201	e8 00 00 00 00	 call	 ?uncaught_exception@std@@YA_NXZ ; std::uncaught_exception
  00206	84 c0		 test	 al, al
  00208	75 09		 jne	 SHORT $LN1145@operator

; 133  : 				this->_Myostr._Osfx();

  0020a	49 8b ce	 mov	 rcx, r14
  0020d	e8 00 00 00 00	 call	 ?_Osfx@?$basic_ostream@DU?$char_traits@D@std@@@std@@QEAAXXZ ; std::basic_ostream<char,std::char_traits<char> >::_Osfx
  00212	90		 npad	 1
$LN1145@operator:

; 107  : 			if (_Myostr.rdbuf() != 0)

  00213	49 8b 0e	 mov	 rcx, QWORD PTR [r14]
  00216	48 63 51 04	 movsxd	 rdx, DWORD PTR [rcx+4]
; File c:\users\alist_000\cppmisc\packages\visualcpptools.14.0.24224-pre\lib\native\include\ios

; 92   : 		return (_Mystrbuf);

  0021a	4a 8b 4c 32 48	 mov	 rcx, QWORD PTR [rdx+r14+72]
; File c:\users\alist_000\cppmisc\packages\visualcpptools.14.0.24224-pre\lib\native\include\ostream

; 107  : 			if (_Myostr.rdbuf() != 0)

  0021f	48 85 c9	 test	 rcx, rcx
  00222	74 07		 je	 SHORT $LN1149@operator

; 108  : 				_Myostr.rdbuf()->_Unlock();

  00224	48 8b 11	 mov	 rdx, QWORD PTR [rcx]
  00227	ff 52 10	 call	 QWORD PTR [rdx+16]
  0022a	90		 npad	 1
$LN1149@operator:

; 820  : 	return (_Ostr);

  0022b	48 8b c6	 mov	 rax, rsi

; 821  : 	}

  0022e	48 8b 5c 24 60	 mov	 rbx, QWORD PTR [rsp+96]
  00233	48 8b 74 24 68	 mov	 rsi, QWORD PTR [rsp+104]
  00238	48 8b 7c 24 70	 mov	 rdi, QWORD PTR [rsp+112]
  0023d	48 83 c4 50	 add	 rsp, 80			; 00000050H
  00241	41 5e		 pop	 r14
  00243	c3		 ret	 0
$LN1167@operator:
??$?6U?$char_traits@D@std@@@std@@YAAEAV?$basic_ostream@DU?$char_traits@D@std@@@0@AEAV10@PEBD@Z ENDP ; std::operator<<<std::char_traits<char> >
_TEXT	ENDS
;	COMDAT text$x
text$x	SEGMENT
_State$ = 32
_Ostr$GSCopy$ = 40
_Ok$ = 48
$T1 = 64
_Ostr$dead$ = 96
_Val$dead$ = 104
?dtor$1@?0???$?6U?$char_traits@D@std@@@std@@YAAEAV?$basic_ostream@DU?$char_traits@D@std@@@0@AEAV10@PEBD@Z@4HA PROC ; `std::operator<<<std::char_traits<char> >'::`1'::dtor$1
  00000	48 8d 8a 30 00
	00 00		 lea	 rcx, QWORD PTR _Ok$[rdx]
  00007	e9 00 00 00 00	 jmp	 ??1_Sentry_base@?$basic_ostream@DU?$char_traits@D@std@@@std@@QEAA@XZ ; std::basic_ostream<char,std::char_traits<char> >::_Sentry_base::~_Sentry_base
?dtor$1@?0???$?6U?$char_traits@D@std@@@std@@YAAEAV?$basic_ostream@DU?$char_traits@D@std@@@0@AEAV10@PEBD@Z@4HA ENDP ; `std::operator<<<std::char_traits<char> >'::`1'::dtor$1
_State$ = 32
_Ostr$GSCopy$ = 40
_Ok$ = 48
$T1 = 64
_Ostr$dead$ = 96
_Val$dead$ = 104
?dtor$0@?0???$?6U?$char_traits@D@std@@@std@@YAAEAV?$basic_ostream@DU?$char_traits@D@std@@@0@AEAV10@PEBD@Z@4HA PROC ; `std::operator<<<std::char_traits<char> >'::`1'::dtor$0
  0000c	48 8d 8a 30 00
	00 00		 lea	 rcx, QWORD PTR _Ok$[rdx]
  00013	e9 00 00 00 00	 jmp	 ??1sentry@?$basic_ostream@DU?$char_traits@D@std@@@std@@QEAA@XZ ; std::basic_ostream<char,std::char_traits<char> >::sentry::~sentry
?dtor$0@?0???$?6U?$char_traits@D@std@@@std@@YAAEAV?$basic_ostream@DU?$char_traits@D@std@@@0@AEAV10@PEBD@Z@4HA ENDP ; `std::operator<<<std::char_traits<char> >'::`1'::dtor$0
_State$ = 32
_Ostr$GSCopy$ = 40
_Ok$ = 48
$T1 = 64
_Ostr$dead$ = 96
_Val$dead$ = 104
?catch$232@?0???$?6U?$char_traits@D@std@@@std@@YAAEAV?$basic_ostream@DU?$char_traits@D@std@@@0@AEAV10@PEBD@Z@4HA PROC ; `std::operator<<<std::char_traits<char> >'::`1'::catch$232

; 816  : 		_CATCH_IO_(_Ostr)

  00018	48 89 54 24 10	 mov	 QWORD PTR [rsp+16], rdx
  0001d	55		 push	 rbp
  0001e	48 83 ec 20	 sub	 rsp, 32			; 00000020H
  00022	48 8b ea	 mov	 rbp, rdx
__catch$??$?6U?$char_traits@D@std@@@std@@YAAEAV?$basic_ostream@DU?$char_traits@D@std@@@0@AEAV10@PEBD@Z$0:
  00025	48 8b 4d 28	 mov	 rcx, QWORD PTR _Ostr$GSCopy$[rbp]
  00029	48 8b 01	 mov	 rax, QWORD PTR [rcx]
  0002c	48 63 50 04	 movsxd	 rdx, DWORD PTR [rax+4]
  00030	48 03 d1	 add	 rdx, rcx
; File c:\users\alist_000\cppmisc\packages\visualcpptools.14.0.24224-pre\lib\native\include\xiosbase

; 315  : 		return (_Mystate);

  00033	8b 42 10	 mov	 eax, DWORD PTR [rdx+16]
; File c:\users\alist_000\cppmisc\packages\visualcpptools.14.0.24224-pre\lib\native\include\ios

; 60   : 			clear((iostate)((int)rdstate() | (int)_State), _Reraise);

  00036	83 c8 04	 or	 eax, 4

; 45   : 		ios_base::clear((iostate)(_Mystrbuf == 0

  00039	48 83 7a 48 00	 cmp	 QWORD PTR [rdx+72], 0
  0003e	75 03		 jne	 SHORT $LN128@catch$232
  00040	83 c8 04	 or	 eax, 4
$LN128@catch$232:
; File c:\users\alist_000\cppmisc\packages\visualcpptools.14.0.24224-pre\lib\native\include\xiosbase

; 288  : 		_Mystate = (iostate)(_State & _Statmask);

  00043	83 e0 17	 and	 eax, 23
  00046	89 42 10	 mov	 DWORD PTR [rdx+16], eax


  00049	85 42 14	 test	 DWORD PTR [rdx+20], eax
  0004c	75 09		 jne	 SHORT $LN131@catch$232
; File c:\users\alist_000\cppmisc\packages\visualcpptools.14.0.24224-pre\lib\native\include\ostream

; 816  : 		_CATCH_IO_(_Ostr)

  0004e	48 8d 05 00 00
	00 00		 lea	 rax, $LN23@catch$232
  00055	eb 0a		 jmp	 SHORT $LN1170@catch$232
$LN131@catch$232:
; File c:\users\alist_000\cppmisc\packages\visualcpptools.14.0.24224-pre\lib\native\include\xiosbase

; 292  : 			_RERAISE;

  00057	33 d2		 xor	 edx, edx
  00059	33 c9		 xor	 ecx, ecx
  0005b	e8 00 00 00 00	 call	 _CxxThrowException
  00060	90		 npad	 1
$LN1170@catch$232:
  00061	48 83 c4 20	 add	 rsp, 32			; 00000020H
  00065	5d		 pop	 rbp
  00066	c3		 ret	 0
  00067	cc		 int	 3
?catch$232@?0???$?6U?$char_traits@D@std@@@std@@YAAEAV?$basic_ostream@DU?$char_traits@D@std@@@0@AEAV10@PEBD@Z@4HA ENDP ; `std::operator<<<std::char_traits<char> >'::`1'::catch$232
text$x	ENDS
; Function compile flags: /Ogtpy
;	COMDAT text$x
text$x	SEGMENT
_State$ = 32
_Ostr$GSCopy$ = 40
_Ok$ = 48
$T1 = 64
_Ostr$dead$ = 96
_Val$dead$ = 104
?dtor$1@?0???$?6U?$char_traits@D@std@@@std@@YAAEAV?$basic_ostream@DU?$char_traits@D@std@@@0@AEAV10@PEBD@Z@4HA PROC ; `std::operator<<<std::char_traits<char> >'::`1'::dtor$1
  00000	48 8d 8a 30 00
	00 00		 lea	 rcx, QWORD PTR _Ok$[rdx]
  00007	e9 00 00 00 00	 jmp	 ??1_Sentry_base@?$basic_ostream@DU?$char_traits@D@std@@@std@@QEAA@XZ ; std::basic_ostream<char,std::char_traits<char> >::_Sentry_base::~_Sentry_base
?dtor$1@?0???$?6U?$char_traits@D@std@@@std@@YAAEAV?$basic_ostream@DU?$char_traits@D@std@@@0@AEAV10@PEBD@Z@4HA ENDP ; `std::operator<<<std::char_traits<char> >'::`1'::dtor$1
text$x	ENDS
; Function compile flags: /Ogtpy
;	COMDAT text$x
text$x	SEGMENT
_State$ = 32
_Ostr$GSCopy$ = 40
_Ok$ = 48
$T1 = 64
_Ostr$dead$ = 96
_Val$dead$ = 104
?dtor$0@?0???$?6U?$char_traits@D@std@@@std@@YAAEAV?$basic_ostream@DU?$char_traits@D@std@@@0@AEAV10@PEBD@Z@4HA PROC ; `std::operator<<<std::char_traits<char> >'::`1'::dtor$0
  0000c	48 8d 8a 30 00
	00 00		 lea	 rcx, QWORD PTR _Ok$[rdx]
  00013	e9 00 00 00 00	 jmp	 ??1sentry@?$basic_ostream@DU?$char_traits@D@std@@@std@@QEAA@XZ ; std::basic_ostream<char,std::char_traits<char> >::sentry::~sentry
?dtor$0@?0???$?6U?$char_traits@D@std@@@std@@YAAEAV?$basic_ostream@DU?$char_traits@D@std@@@0@AEAV10@PEBD@Z@4HA ENDP ; `std::operator<<<std::char_traits<char> >'::`1'::dtor$0
text$x	ENDS
; Function compile flags: /Ogtpy
; File c:\users\alist_000\cppmisc\packages\visualcpptools.14.0.24224-pre\lib\native\include\ostream
; File c:\users\alist_000\cppmisc\packages\visualcpptools.14.0.24224-pre\lib\native\include\xiosbase
; File c:\users\alist_000\cppmisc\packages\visualcpptools.14.0.24224-pre\lib\native\include\ios
; File c:\users\alist_000\cppmisc\packages\visualcpptools.14.0.24224-pre\lib\native\include\xiosbase
; File c:\users\alist_000\cppmisc\packages\visualcpptools.14.0.24224-pre\lib\native\include\ostream
; File c:\users\alist_000\cppmisc\packages\visualcpptools.14.0.24224-pre\lib\native\include\xiosbase
;	COMDAT text$x
text$x	SEGMENT
_State$ = 32
_Ostr$GSCopy$ = 40
_Ok$ = 48
$T1 = 64
_Ostr$dead$ = 96
_Val$dead$ = 104
?catch$232@?0???$?6U?$char_traits@D@std@@@std@@YAAEAV?$basic_ostream@DU?$char_traits@D@std@@@0@AEAV10@PEBD@Z@4HA PROC ; `std::operator<<<std::char_traits<char> >'::`1'::catch$232
; File c:\users\alist_000\cppmisc\packages\visualcpptools.14.0.24224-pre\lib\native\include\ostream

; 816  : 		_CATCH_IO_(_Ostr)

  00018	48 89 54 24 10	 mov	 QWORD PTR [rsp+16], rdx
  0001d	55		 push	 rbp
  0001e	48 83 ec 20	 sub	 rsp, 32			; 00000020H
  00022	48 8b ea	 mov	 rbp, rdx
__catch$??$?6U?$char_traits@D@std@@@std@@YAAEAV?$basic_ostream@DU?$char_traits@D@std@@@0@AEAV10@PEBD@Z$0:
  00025	48 8b 4d 28	 mov	 rcx, QWORD PTR _Ostr$GSCopy$[rbp]
  00029	48 8b 01	 mov	 rax, QWORD PTR [rcx]
  0002c	48 63 50 04	 movsxd	 rdx, DWORD PTR [rax+4]
  00030	48 03 d1	 add	 rdx, rcx
; File c:\users\alist_000\cppmisc\packages\visualcpptools.14.0.24224-pre\lib\native\include\xiosbase

; 315  : 		return (_Mystate);

  00033	8b 42 10	 mov	 eax, DWORD PTR [rdx+16]
; File c:\users\alist_000\cppmisc\packages\visualcpptools.14.0.24224-pre\lib\native\include\ios

; 60   : 			clear((iostate)((int)rdstate() | (int)_State), _Reraise);

  00036	83 c8 04	 or	 eax, 4

; 45   : 		ios_base::clear((iostate)(_Mystrbuf == 0

  00039	48 83 7a 48 00	 cmp	 QWORD PTR [rdx+72], 0
  0003e	75 03		 jne	 SHORT $LN128@catch$232
  00040	83 c8 04	 or	 eax, 4
$LN128@catch$232:
; File c:\users\alist_000\cppmisc\packages\visualcpptools.14.0.24224-pre\lib\native\include\xiosbase

; 288  : 		_Mystate = (iostate)(_State & _Statmask);

  00043	83 e0 17	 and	 eax, 23
  00046	89 42 10	 mov	 DWORD PTR [rdx+16], eax

; 289  : 		if ((_Mystate & _Except) == 0)

  00049	85 42 14	 test	 DWORD PTR [rdx+20], eax
  0004c	75 09		 jne	 SHORT $LN131@catch$232
; File c:\users\alist_000\cppmisc\packages\visualcpptools.14.0.24224-pre\lib\native\include\ostream

; 816  : 		_CATCH_IO_(_Ostr)

  0004e	48 8d 05 00 00
	00 00		 lea	 rax, $LN23@catch$232
  00055	eb 0a		 jmp	 SHORT $LN1170@catch$232
$LN131@catch$232:
; File c:\users\alist_000\cppmisc\packages\visualcpptools.14.0.24224-pre\lib\native\include\xiosbase

; 292  : 			_RERAISE;

  00057	33 d2		 xor	 edx, edx
  00059	33 c9		 xor	 ecx, ecx
  0005b	e8 00 00 00 00	 call	 _CxxThrowException
  00060	90		 npad	 1
$LN1170@catch$232:
  00061	48 83 c4 20	 add	 rsp, 32			; 00000020H
  00065	5d		 pop	 rbp
  00066	c3		 ret	 0
  00067	cc		 int	 3
?catch$232@?0???$?6U?$char_traits@D@std@@@std@@YAAEAV?$basic_ostream@DU?$char_traits@D@std@@@0@AEAV10@PEBD@Z@4HA ENDP ; `std::operator<<<std::char_traits<char> >'::`1'::catch$232
text$x	ENDS
; Function compile flags: /Ogtpy
; File c:\users\alist_000\cppmisc\packages\visualcpptools.14.0.24224-pre\lib\native\include\ostream
; File c:\users\alist_000\cppmisc\packages\visualcpptools.14.0.24224-pre\lib\native\include\ios
; File c:\users\alist_000\cppmisc\packages\visualcpptools.14.0.24224-pre\lib\native\include\xlocale
; File c:\users\alist_000\cppmisc\packages\visualcpptools.14.0.24224-pre\lib\native\include\ostream
;	COMDAT ??$endl@DU?$char_traits@D@std@@@std@@YAAEAV?$basic_ostream@DU?$char_traits@D@std@@@0@AEAV10@@Z
_TEXT	SEGMENT
$T1 = 32
$T2 = 40
_Ostr$ = 80
??$endl@DU?$char_traits@D@std@@@std@@YAAEAV?$basic_ostream@DU?$char_traits@D@std@@@0@AEAV10@@Z PROC ; std::endl<char,std::char_traits<char> >, COMDAT

; 991  : 	{	// insert newline and flush stream

$LN18:
  00000	40 57		 push	 rdi
  00002	48 83 ec 40	 sub	 rsp, 64			; 00000040H
  00006	48 c7 44 24 20
	fe ff ff ff	 mov	 QWORD PTR $T1[rsp], -2
  0000f	48 89 5c 24 50	 mov	 QWORD PTR [rsp+80], rbx
  00014	48 8b d9	 mov	 rbx, rcx

; 992  : 	_Ostr.put(_Ostr.widen('\n'));

  00017	48 8b 01	 mov	 rax, QWORD PTR [rcx]
  0001a	48 63 48 04	 movsxd	 rcx, DWORD PTR [rax+4]
  0001e	48 03 cb	 add	 rcx, rbx
; File c:\users\alist_000\cppmisc\packages\visualcpptools.14.0.24224-pre\lib\native\include\ios

; 131  : 		const _Ctype& _Ctype_fac = _USE(getloc(), _Ctype);

  00021	48 8d 54 24 28	 lea	 rdx, QWORD PTR $T2[rsp]
  00026	e8 00 00 00 00	 call	 ?getloc@ios_base@std@@QEBA?AVlocale@2@XZ ; std::ios_base::getloc
  0002b	90		 npad	 1
  0002c	48 8b c8	 mov	 rcx, rax
  0002f	e8 00 00 00 00	 call	 ??$use_facet@V?$ctype@D@std@@@std@@YAAEBV?$ctype@D@0@AEBVlocale@0@@Z ; std::use_facet<std::ctype<char> >
  00034	48 8b f8	 mov	 rdi, rax
; File c:\users\alist_000\cppmisc\packages\visualcpptools.14.0.24224-pre\lib\native\include\xlocale

; 431  : 		if (_Ptr != 0)

  00037	48 8b 4c 24 30	 mov	 rcx, QWORD PTR $T2[rsp+8]
  0003c	48 85 c9	 test	 rcx, rcx
  0003f	74 1a		 je	 SHORT $LN9@endl

; 432  : 			delete _Ptr->_Decref();

  00041	48 8b 11	 mov	 rdx, QWORD PTR [rcx]
  00044	ff 52 10	 call	 QWORD PTR [rdx+16]
  00047	48 85 c0	 test	 rax, rax
  0004a	74 0f		 je	 SHORT $LN9@endl
  0004c	4c 8b 00	 mov	 r8, QWORD PTR [rax]
  0004f	ba 01 00 00 00	 mov	 edx, 1
  00054	48 8b c8	 mov	 rcx, rax
  00057	41 ff 10	 call	 QWORD PTR [r8]
  0005a	90		 npad	 1
$LN9@endl:
  0005b	48 8b 07	 mov	 rax, QWORD PTR [rdi]
  0005e	48 8d 0d 00 00
	00 00		 lea	 rcx, OFFSET FLAT:??_7?$ctype@D@std@@6B@
  00065	48 3b c1	 cmp	 rax, rcx
  00068	75 04		 jne	 SHORT $LN15@endl
  0006a	b0 0a		 mov	 al, 10
  0006c	eb 08		 jmp	 SHORT $LN14@endl
$LN15@endl:
  0006e	b2 0a		 mov	 dl, 10
  00070	48 8b cf	 mov	 rcx, rdi

; 2416 : 		return (do_widen(_Byte));

  00073	ff 50 40	 call	 QWORD PTR [rax+64]
$LN14@endl:
; File c:\users\alist_000\cppmisc\packages\visualcpptools.14.0.24224-pre\lib\native\include\ostream

; 992  : 	_Ostr.put(_Ostr.widen('\n'));

  00076	0f b6 d0	 movzx	 edx, al
  00079	48 8b cb	 mov	 rcx, rbx
  0007c	e8 00 00 00 00	 call	 ?put@?$basic_ostream@DU?$char_traits@D@std@@@std@@QEAAAEAV12@D@Z ; std::basic_ostream<char,std::char_traits<char> >::put

; 993  : 	_Ostr.flush();

  00081	48 8b cb	 mov	 rcx, rbx
  00084	e8 00 00 00 00	 call	 ?flush@?$basic_ostream@DU?$char_traits@D@std@@@std@@QEAAAEAV12@XZ ; std::basic_ostream<char,std::char_traits<char> >::flush

; 994  : 	return (_Ostr);

  00089	48 8b c3	 mov	 rax, rbx

; 995  : 	}

  0008c	48 8b 5c 24 50	 mov	 rbx, QWORD PTR [rsp+80]
  00091	48 83 c4 40	 add	 rsp, 64			; 00000040H
  00095	5f		 pop	 rdi
  00096	c3		 ret	 0
??$endl@DU?$char_traits@D@std@@@std@@YAAEAV?$basic_ostream@DU?$char_traits@D@std@@@0@AEAV10@@Z ENDP ; std::endl<char,std::char_traits<char> >
_TEXT	ENDS
;	COMDAT text$x
text$x	SEGMENT
$T1 = 32
$T2 = 40
_Ostr$ = 80
?dtor$0@?0???$endl@DU?$char_traits@D@std@@@std@@YAAEAV?$basic_ostream@DU?$char_traits@D@std@@@0@AEAV10@@Z@4HA PROC ; `std::endl<char,std::char_traits<char> >'::`1'::dtor$0
  00000	48 8d 8a 28 00
	00 00		 lea	 rcx, QWORD PTR $T2[rdx]
  00007	e9 00 00 00 00	 jmp	 ??1locale@std@@QEAA@XZ	; std::locale::~locale
?dtor$0@?0???$endl@DU?$char_traits@D@std@@@std@@YAAEAV?$basic_ostream@DU?$char_traits@D@std@@@0@AEAV10@@Z@4HA ENDP ; `std::endl<char,std::char_traits<char> >'::`1'::dtor$0
text$x	ENDS
; Function compile flags: /Ogtpy
;	COMDAT text$x
text$x	SEGMENT
$T1 = 32
$T2 = 40
_Ostr$ = 80
?dtor$0@?0???$endl@DU?$char_traits@D@std@@@std@@YAAEAV?$basic_ostream@DU?$char_traits@D@std@@@0@AEAV10@@Z@4HA PROC ; `std::endl<char,std::char_traits<char> >'::`1'::dtor$0
  00000	48 8d 8a 28 00
	00 00		 lea	 rcx, QWORD PTR $T2[rdx]
  00007	e9 00 00 00 00	 jmp	 ??1locale@std@@QEAA@XZ	; std::locale::~locale
?dtor$0@?0???$endl@DU?$char_traits@D@std@@@std@@YAAEAV?$basic_ostream@DU?$char_traits@D@std@@@0@AEAV10@@Z@4HA ENDP ; `std::endl<char,std::char_traits<char> >'::`1'::dtor$0
text$x	ENDS
; Function compile flags: /Ogtpy
; File c:\users\alist_000\cppmisc\packages\visualcpptools.14.0.24224-pre\lib\native\include\type_traits
;	COMDAT ??$move@AEAU?$_Wrap_alloc@V?$allocator@D@std@@@std@@@std@@YA$$QEAU?$_Wrap_alloc@V?$allocator@D@std@@@0@AEAU10@@Z
_TEXT	SEGMENT
_Arg$ = 8
??$move@AEAU?$_Wrap_alloc@V?$allocator@D@std@@@std@@@std@@YA$$QEAU?$_Wrap_alloc@V?$allocator@D@std@@@0@AEAU10@@Z PROC ; std::move<std::_Wrap_alloc<std::allocator<char> > & __ptr64>, COMDAT

; 1295 : 	return (static_cast<typename remove_reference<_Ty>::type&&>(_Arg));

  00000	48 8b c1	 mov	 rax, rcx

; 1296 : 	}

  00003	c3		 ret	 0
??$move@AEAU?$_Wrap_alloc@V?$allocator@D@std@@@std@@@std@@YA$$QEAU?$_Wrap_alloc@V?$allocator@D@std@@@0@AEAU10@@Z ENDP ; std::move<std::_Wrap_alloc<std::allocator<char> > & __ptr64>
_TEXT	ENDS
; Function compile flags: /Ogtpy
; File c:\users\alist_000\cppmisc\packages\visualcpptools.14.0.24224-pre\lib\native\include\xstring
;	COMDAT ??$?0U?$_Wrap_alloc@V?$allocator@D@std@@@std@@X@?$_String_alloc@U?$_String_base_types@DV?$allocator@D@std@@@std@@@std@@QEAA@$$QEAU?$_Wrap_alloc@V?$allocator@D@std@@@1@@Z
_TEXT	SEGMENT
this$ = 8
_Al$ = 16
??$?0U?$_Wrap_alloc@V?$allocator@D@std@@@std@@X@?$_String_alloc@U?$_String_base_types@DV?$allocator@D@std@@@std@@@std@@QEAA@$$QEAU?$_Wrap_alloc@V?$allocator@D@std@@@1@@Z PROC ; std::_String_alloc<std::_String_base_types<char,std::allocator<char> > >::_String_alloc<std::_String_base_types<char,std::allocator<char> > ><std::_Wrap_alloc<std::allocator<char> >,void>, COMDAT

; 491  : 		_Mysize(0),

  00000	33 c0		 xor	 eax, eax
  00002	48 89 41 10	 mov	 QWORD PTR [rcx+16], rax

; 492  : 		_Myres(0)

  00006	48 89 41 18	 mov	 QWORD PTR [rcx+24], rax

; 593  : 		}

  0000a	48 8b c1	 mov	 rax, rcx
  0000d	c3		 ret	 0
??$?0U?$_Wrap_alloc@V?$allocator@D@std@@@std@@X@?$_String_alloc@U?$_String_base_types@DV?$allocator@D@std@@@std@@@std@@QEAA@$$QEAU?$_Wrap_alloc@V?$allocator@D@std@@@1@@Z ENDP ; std::_String_alloc<std::_String_base_types<char,std::allocator<char> > >::_String_alloc<std::_String_base_types<char,std::allocator<char> > ><std::_Wrap_alloc<std::allocator<char> >,void>
_TEXT	ENDS
; Function compile flags: /Ogtpy
; File c:\users\alist_000\cppmisc\packages\visualcpptools.14.0.24224-pre\lib\native\include\type_traits
;	COMDAT ??$forward@V?$basic_string@DU?$char_traits@D@std@@V?$allocator@D@2@@std@@@std@@YA$$QEAV?$basic_string@DU?$char_traits@D@std@@V?$allocator@D@2@@0@AEAV10@@Z
_TEXT	SEGMENT
_Arg$ = 8
??$forward@V?$basic_string@DU?$char_traits@D@std@@V?$allocator@D@2@@std@@@std@@YA$$QEAV?$basic_string@DU?$char_traits@D@std@@V?$allocator@D@2@@0@AEAV10@@Z PROC ; std::forward<std::basic_string<char,std::char_traits<char>,std::allocator<char> > >, COMDAT

; 1279 : 	return (static_cast<_Ty&&>(_Arg));

  00000	48 8b c1	 mov	 rax, rcx

; 1280 : 	}

  00003	c3		 ret	 0
??$forward@V?$basic_string@DU?$char_traits@D@std@@V?$allocator@D@2@@std@@@std@@YA$$QEAV?$basic_string@DU?$char_traits@D@std@@V?$allocator@D@2@@0@AEAV10@@Z ENDP ; std::forward<std::basic_string<char,std::char_traits<char>,std::allocator<char> > >
_TEXT	ENDS
; Function compile flags: /Ogtpy
; File c:\users\alist_000\cppmisc\packages\visualcpptools.14.0.24224-pre\lib\native\include\xmemory0
;	COMDAT ??$?0V?$allocator@D@std@@@?$_Wrap_alloc@V?$allocator@D@std@@@std@@QEAA@$$QEAV?$allocator@D@1@@Z
_TEXT	SEGMENT
this$ = 8
_Right$ = 16
??$?0V?$allocator@D@std@@@?$_Wrap_alloc@V?$allocator@D@std@@@std@@QEAA@$$QEAV?$allocator@D@1@@Z PROC ; std::_Wrap_alloc<std::allocator<char> >::_Wrap_alloc<std::allocator<char> ><std::allocator<char> >, COMDAT

; 953  : 		}

  00000	48 8b c1	 mov	 rax, rcx
  00003	c3		 ret	 0
??$?0V?$allocator@D@std@@@?$_Wrap_alloc@V?$allocator@D@std@@@std@@QEAA@$$QEAV?$allocator@D@1@@Z ENDP ; std::_Wrap_alloc<std::allocator<char> >::_Wrap_alloc<std::allocator<char> ><std::allocator<char> >
_TEXT	ENDS
; Function compile flags: /Ogtpy
; File c:\users\alist_000\cppmisc\packages\visualcpptools.14.0.24224-pre\lib\native\include\xutility
; File c:\users\alist_000\cppmisc\packages\visualcpptools.14.0.24224-pre\lib\native\include\xstring
; File c:\users\alist_000\cppmisc\packages\visualcpptools.14.0.24224-pre\lib\native\include\xutility
;	COMDAT ??$?0$$V@?$_Compressed_pair@U?$_Wrap_alloc@V?$allocator@D@std@@@std@@V?$_String_val@U?$_Simple_types@D@std@@@2@$00@std@@QEAA@U_Zero_then_variadic_args_t@1@@Z
_TEXT	SEGMENT
this$ = 8
__formal$ = 16
??$?0$$V@?$_Compressed_pair@U?$_Wrap_alloc@V?$allocator@D@std@@@std@@V?$_String_val@U?$_Simple_types@D@std@@@2@$00@std@@QEAA@U_Zero_then_variadic_args_t@1@@Z PROC ; std::_Compressed_pair<std::_Wrap_alloc<std::allocator<char> >,std::_String_val<std::_Simple_types<char> >,1>::_Compressed_pair<std::_Wrap_alloc<std::allocator<char> >,std::_String_val<std::_Simple_types<char> >,1><>, COMDAT
; File c:\users\alist_000\cppmisc\packages\visualcpptools.14.0.24224-pre\lib\native\include\xstring

; 491  : 		_Mysize(0),

  00000	33 c0		 xor	 eax, eax
  00002	48 89 41 10	 mov	 QWORD PTR [rcx+16], rax

; 492  : 		_Myres(0)

  00006	48 89 41 18	 mov	 QWORD PTR [rcx+24], rax
; File c:\users\alist_000\cppmisc\packages\visualcpptools.14.0.24224-pre\lib\native\include\xutility

; 286  : 		}

  0000a	48 8b c1	 mov	 rax, rcx
  0000d	c3		 ret	 0
??$?0$$V@?$_Compressed_pair@U?$_Wrap_alloc@V?$allocator@D@std@@@std@@V?$_String_val@U?$_Simple_types@D@std@@@2@$00@std@@QEAA@U_Zero_then_variadic_args_t@1@@Z ENDP ; std::_Compressed_pair<std::_Wrap_alloc<std::allocator<char> >,std::_String_val<std::_Simple_types<char> >,1>::_Compressed_pair<std::_Wrap_alloc<std::allocator<char> >,std::_String_val<std::_Simple_types<char> >,1><>
_TEXT	ENDS
; Function compile flags: /Ogtpy
; File c:\users\alist_000\cppmisc\packages\visualcpptools.14.0.24224-pre\lib\native\include\xstddef
;	COMDAT ??$addressof@PEAD@std@@YAPEAPEADAEAPEAD@Z
_TEXT	SEGMENT
_Val$ = 8
??$addressof@PEAD@std@@YAPEAPEADAEAPEAD@Z PROC		; std::addressof<char * __ptr64>, COMDAT

; 725  : 	return (__builtin_addressof(_Val));

  00000	48 8b c1	 mov	 rax, rcx

; 726  : 	}

  00003	c3		 ret	 0
??$addressof@PEAD@std@@YAPEAPEADAEAPEAD@Z ENDP		; std::addressof<char * __ptr64>
_TEXT	ENDS
; Function compile flags: /Ogtpy
; File c:\users\alist_000\cppmisc\packages\visualcpptools.14.0.24224-pre\lib\native\include\xmemory0
;	COMDAT ??$destroy@PEAD@?$_Wrap_alloc@V?$allocator@D@std@@@std@@QEAAXPEAPEAD@Z
_TEXT	SEGMENT
this$ = 8
_Ptr$ = 16
??$destroy@PEAD@?$_Wrap_alloc@V?$allocator@D@std@@@std@@QEAAXPEAPEAD@Z PROC ; std::_Wrap_alloc<std::allocator<char> >::destroy<char * __ptr64>, COMDAT

; 1003 : 		_Mytraits::destroy(*this, _Ptr);
; 1004 : 		}

  00000	c2 00 00	 ret	 0
??$destroy@PEAD@?$_Wrap_alloc@V?$allocator@D@std@@@std@@QEAAXPEAPEAD@Z ENDP ; std::_Wrap_alloc<std::allocator<char> >::destroy<char * __ptr64>
_TEXT	ENDS
; Function compile flags: /Ogtpy
; File c:\users\alist_000\cppmisc\packages\visualcpptools.14.0.24224-pre\lib\native\include\xstddef
;	COMDAT ??$_Unfancy@D@std@@YAPEADPEAD@Z
_TEXT	SEGMENT
_Ptr$ = 8
??$_Unfancy@D@std@@YAPEADPEAD@Z PROC			; std::_Unfancy<char>, COMDAT

; 740  : 	return (_Ptr);

  00000	48 8b c1	 mov	 rax, rcx

; 741  : 	}

  00003	c3		 ret	 0
??$_Unfancy@D@std@@YAPEADPEAD@Z ENDP			; std::_Unfancy<char>
_TEXT	ENDS
; Function compile flags: /Ogtpy
; File c:\users\alist_000\cppmisc\packages\visualcpptools.14.0.24224-pre\lib\native\include\xmemory0
;	COMDAT ??$construct@PEADAEAPEAD@?$_Wrap_alloc@V?$allocator@D@std@@@std@@QEAAXPEAPEADAEAPEAD@Z
_TEXT	SEGMENT
this$ = 8
_Ptr$ = 16
<_Args_0>$ = 24
??$construct@PEADAEAPEAD@?$_Wrap_alloc@V?$allocator@D@std@@@std@@QEAAXPEAPEADAEAPEAD@Z PROC ; std::_Wrap_alloc<std::allocator<char> >::construct<char * __ptr64,char * __ptr64 & __ptr64>, COMDAT

; 737  : 		::new ((void *)_Ptr) _Objty(_STD forward<_Types>(_Args)...);

  00000	48 85 d2	 test	 rdx, rdx
  00003	74 06		 je	 SHORT $LN13@construct
  00005	49 8b 00	 mov	 rax, QWORD PTR [r8]
  00008	48 89 02	 mov	 QWORD PTR [rdx], rax
$LN13@construct:

; 995  : 		_Mytraits::construct(*this, _Ptr,
; 996  : 			_STD forward<_Types>(_Args)...);
; 997  : 		}

  0000b	c3		 ret	 0
??$construct@PEADAEAPEAD@?$_Wrap_alloc@V?$allocator@D@std@@@std@@QEAAXPEAPEADAEAPEAD@Z ENDP ; std::_Wrap_alloc<std::allocator<char> >::construct<char * __ptr64,char * __ptr64 & __ptr64>
_TEXT	ENDS
; Function compile flags: /Ogtpy
;	COMDAT ??__F_Static@?1???$_Immortalize@V_Iostream_error_category@std@@@std@@YAAEAV_Iostream_error_category@0@XZ@YAXXZ
text$yd	SEGMENT
??__F_Static@?1???$_Immortalize@V_Iostream_error_category@std@@@std@@YAAEAV_Iostream_error_category@0@XZ@YAXXZ PROC ; `std::_Immortalize<std::_Iostream_error_category>'::`2'::`dynamic atexit destructor for '_Static'', COMDAT
  00000	c2 00 00	 ret	 0
??__F_Static@?1???$_Immortalize@V_Iostream_error_category@std@@@std@@YAAEAV_Iostream_error_category@0@XZ@YAXXZ ENDP ; `std::_Immortalize<std::_Iostream_error_category>'::`2'::`dynamic atexit destructor for '_Static''
text$yd	ENDS
; Function compile flags: /Ogtpy
; File c:\users\alist_000\cppmisc\packages\visualcpptools.14.0.24224-pre\lib\native\include\vcruntime_exception.h
;	COMDAT ??0bad_cast@std@@QEAA@AEBV01@@Z
_TEXT	SEGMENT
this$ = 48
__that$ = 56
??0bad_cast@std@@QEAA@AEBV01@@Z PROC			; std::bad_cast::bad_cast, COMDAT
$LN6:
  00000	40 53		 push	 rbx
  00002	48 83 ec 20	 sub	 rsp, 32			; 00000020H
  00006	48 8b d9	 mov	 rbx, rcx
  00009	48 8b c2	 mov	 rax, rdx

; 65   :         : _Data()

  0000c	48 8d 53 08	 lea	 rdx, QWORD PTR [rbx+8]

; 66   :     {

  00010	48 8d 0d 00 00
	00 00		 lea	 rcx, OFFSET FLAT:??_7exception@std@@6B@
  00017	48 89 0b	 mov	 QWORD PTR [rbx], rcx
  0001a	33 c9		 xor	 ecx, ecx
  0001c	48 89 0a	 mov	 QWORD PTR [rdx], rcx
  0001f	48 89 4a 08	 mov	 QWORD PTR [rdx+8], rcx

; 67   :         __std_exception_copy(&_Other._Data, &_Data);

  00023	48 8d 48 08	 lea	 rcx, QWORD PTR [rax+8]
  00027	e8 00 00 00 00	 call	 __std_exception_copy
  0002c	48 8d 05 00 00
	00 00		 lea	 rax, OFFSET FLAT:??_7bad_cast@std@@6B@
  00033	48 89 03	 mov	 QWORD PTR [rbx], rax
  00036	48 8b c3	 mov	 rax, rbx
  00039	48 83 c4 20	 add	 rsp, 32			; 00000020H
  0003d	5b		 pop	 rbx
  0003e	c3		 ret	 0
??0bad_cast@std@@QEAA@AEBV01@@Z ENDP			; std::bad_cast::bad_cast
_TEXT	ENDS
; Function compile flags: /Ogtpy
; File c:\users\alist_000\cppmisc\packages\visualcpptools.14.0.24224-pre\lib\native\include\system_error
;	COMDAT ??1?$_Immortalizer@V_Iostream_error_category@std@@@std@@QEAA@XZ
_TEXT	SEGMENT
this$ = 8
??1?$_Immortalizer@V_Iostream_error_category@std@@@std@@QEAA@XZ PROC ; std::_Immortalizer<std::_Iostream_error_category>::~_Immortalizer<std::_Iostream_error_category>, COMDAT

; 687  : 		}

  00000	c2 00 00	 ret	 0
??1?$_Immortalizer@V_Iostream_error_category@std@@@std@@QEAA@XZ ENDP ; std::_Immortalizer<std::_Iostream_error_category>::~_Immortalizer<std::_Iostream_error_category>
_TEXT	ENDS
; Function compile flags: /Ogtpy
; File c:\users\alist_000\cppmisc\packages\visualcpptools.14.0.24224-pre\lib\native\include\system_error
;	COMDAT ??0?$_Immortalizer@V_Iostream_error_category@std@@@std@@QEAA@XZ
_TEXT	SEGMENT
this$ = 8
??0?$_Immortalizer@V_Iostream_error_category@std@@@std@@QEAA@XZ PROC ; std::_Immortalizer<std::_Iostream_error_category>::_Immortalizer<std::_Iostream_error_category>, COMDAT

; 681  : 		{	// construct _Ty inside _Storage
; 682  : 		::new (static_cast<void *>(&_Storage)) _Ty();

  00000	48 85 c9	 test	 rcx, rcx
  00003	74 12		 je	 SHORT $LN16@Immortaliz

; 616  : 		{	// default constructor

  00005	48 8d 05 00 00
	00 00		 lea	 rax, OFFSET FLAT:??_7_Iostream_error_category@std@@6B@

; 617  : 		_Addr = _Iostream_addr;

  0000c	48 c7 41 08 05
	00 00 00	 mov	 QWORD PTR [rcx+8], 5
  00014	48 89 01	 mov	 QWORD PTR [rcx], rax
$LN16@Immortaliz:

; 683  : 		}

  00017	48 8b c1	 mov	 rax, rcx
  0001a	c3		 ret	 0
??0?$_Immortalizer@V_Iostream_error_category@std@@@std@@QEAA@XZ ENDP ; std::_Immortalizer<std::_Iostream_error_category>::_Immortalizer<std::_Iostream_error_category>
_TEXT	ENDS
; Function compile flags: /Ogtpy
; File c:\users\alist_000\cppmisc\packages\visualcpptools.14.0.24224-pre\lib\native\include\ostream
;	COMDAT ??Bsentry@?$basic_ostream@DU?$char_traits@D@std@@@std@@QEBA_NXZ
_TEXT	SEGMENT
this$ = 8
??Bsentry@?$basic_ostream@DU?$char_traits@D@std@@@std@@QEBA_NXZ PROC ; std::basic_ostream<char,std::char_traits<char> >::sentry::operator bool, COMDAT

; 142  : 			return (_Ok);

  00000	0f b6 41 08	 movzx	 eax, BYTE PTR [rcx+8]

; 143  : 			}

  00004	c3		 ret	 0
??Bsentry@?$basic_ostream@DU?$char_traits@D@std@@@std@@QEBA_NXZ ENDP ; std::basic_ostream<char,std::char_traits<char> >::sentry::operator bool
_TEXT	ENDS
; Function compile flags: /Ogtpy
; File c:\users\alist_000\cppmisc\packages\visualcpptools.14.0.24224-pre\lib\native\include\ostream
; File c:\users\alist_000\cppmisc\packages\visualcpptools.14.0.24224-pre\lib\native\include\ios
; File c:\users\alist_000\cppmisc\packages\visualcpptools.14.0.24224-pre\lib\native\include\ostream
;	COMDAT ??1sentry@?$basic_ostream@DU?$char_traits@D@std@@@std@@QEAA@XZ
_TEXT	SEGMENT
$T1 = 32
this$ = 64
??1sentry@?$basic_ostream@DU?$char_traits@D@std@@@std@@QEAA@XZ PROC ; std::basic_ostream<char,std::char_traits<char> >::sentry::~sentry, COMDAT

; 130  : 			{	// destroy the object

$LN13:
  00000	40 53		 push	 rbx
  00002	48 83 ec 30	 sub	 rsp, 48			; 00000030H
  00006	48 c7 44 24 20
	fe ff ff ff	 mov	 QWORD PTR $T1[rsp], -2
  0000f	48 8b d9	 mov	 rbx, rcx

; 131  :  #if _HAS_EXCEPTIONS
; 132  : 			if (!_XSTD uncaught_exception())

  00012	e8 00 00 00 00	 call	 ?uncaught_exception@std@@YA_NXZ ; std::uncaught_exception
  00017	90		 npad	 1
  00018	84 c0		 test	 al, al
  0001a	75 09		 jne	 SHORT $LN2@sentry

; 133  : 				this->_Myostr._Osfx();

  0001c	48 8b 0b	 mov	 rcx, QWORD PTR [rbx]
  0001f	e8 00 00 00 00	 call	 ?_Osfx@?$basic_ostream@DU?$char_traits@D@std@@@std@@QEAAXXZ ; std::basic_ostream<char,std::char_traits<char> >::_Osfx
  00024	90		 npad	 1
$LN2@sentry:

; 107  : 			if (_Myostr.rdbuf() != 0)

  00025	48 8b 13	 mov	 rdx, QWORD PTR [rbx]
  00028	48 8b 02	 mov	 rax, QWORD PTR [rdx]
  0002b	48 63 48 04	 movsxd	 rcx, DWORD PTR [rax+4]
; File c:\users\alist_000\cppmisc\packages\visualcpptools.14.0.24224-pre\lib\native\include\ios

; 92   : 		return (_Mystrbuf);

  0002f	48 8b 4c 11 48	 mov	 rcx, QWORD PTR [rcx+rdx+72]
; File c:\users\alist_000\cppmisc\packages\visualcpptools.14.0.24224-pre\lib\native\include\ostream

; 107  : 			if (_Myostr.rdbuf() != 0)

  00034	48 85 c9	 test	 rcx, rcx
  00037	74 07		 je	 SHORT $LN12@sentry

; 108  : 				_Myostr.rdbuf()->_Unlock();

  00039	48 8b 01	 mov	 rax, QWORD PTR [rcx]
  0003c	ff 50 10	 call	 QWORD PTR [rax+16]
  0003f	90		 npad	 1
$LN12@sentry:

; 134  : 
; 135  :  #else /* _HAS_EXCEPTIONS */
; 136  : 			this->_Myostr._Osfx();
; 137  :  #endif /* _HAS_EXCEPTIONS */
; 138  : 			}

  00040	48 83 c4 30	 add	 rsp, 48			; 00000030H
  00044	5b		 pop	 rbx
  00045	c3		 ret	 0
??1sentry@?$basic_ostream@DU?$char_traits@D@std@@@std@@QEAA@XZ ENDP ; std::basic_ostream<char,std::char_traits<char> >::sentry::~sentry
_TEXT	ENDS
; Function compile flags: /Ogtpy
; File c:\users\alist_000\cppmisc\packages\visualcpptools.14.0.24224-pre\lib\native\include\ostream
; File c:\users\alist_000\cppmisc\packages\visualcpptools.14.0.24224-pre\lib\native\include\ios
; File c:\users\alist_000\cppmisc\packages\visualcpptools.14.0.24224-pre\lib\native\include\ostream
; File c:\users\alist_000\cppmisc\packages\visualcpptools.14.0.24224-pre\lib\native\include\xiosbase
; File c:\users\alist_000\cppmisc\packages\visualcpptools.14.0.24224-pre\lib\native\include\ostream
; File c:\users\alist_000\cppmisc\packages\visualcpptools.14.0.24224-pre\lib\native\include\ios
; File c:\users\alist_000\cppmisc\packages\visualcpptools.14.0.24224-pre\lib\native\include\ostream
; File c:\users\alist_000\cppmisc\packages\visualcpptools.14.0.24224-pre\lib\native\include\xiosbase
; File c:\users\alist_000\cppmisc\packages\visualcpptools.14.0.24224-pre\lib\native\include\ostream
;	COMDAT ??0sentry@?$basic_ostream@DU?$char_traits@D@std@@@std@@QEAA@AEAV12@@Z
_TEXT	SEGMENT
$T1 = 32
this$ = 64
_Ostr$ = 72
??0sentry@?$basic_ostream@DU?$char_traits@D@std@@@std@@QEAA@AEAV12@@Z PROC ; std::basic_ostream<char,std::char_traits<char> >::sentry::sentry, COMDAT

; 123  : 			{	// construct locking and testing stream

$LN26:
  00000	48 89 4c 24 08	 mov	 QWORD PTR [rsp+8], rcx
  00005	57		 push	 rdi
  00006	48 83 ec 30	 sub	 rsp, 48			; 00000030H
  0000a	48 c7 44 24 20
	fe ff ff ff	 mov	 QWORD PTR $T1[rsp], -2
  00013	48 89 5c 24 48	 mov	 QWORD PTR [rsp+72], rbx
  00018	48 8b da	 mov	 rbx, rdx
  0001b	48 8b f9	 mov	 rdi, rcx

; 99   : 			: _Myostr(_Ostr)

  0001e	48 89 11	 mov	 QWORD PTR [rcx], rdx

; 101  : 			if (_Myostr.rdbuf() != 0)

  00021	48 8b 02	 mov	 rax, QWORD PTR [rdx]
  00024	4c 63 40 04	 movsxd	 r8, DWORD PTR [rax+4]
; File c:\users\alist_000\cppmisc\packages\visualcpptools.14.0.24224-pre\lib\native\include\ios

; 92   : 		return (_Mystrbuf);

  00028	49 8b 4c 10 48	 mov	 rcx, QWORD PTR [r8+rdx+72]
; File c:\users\alist_000\cppmisc\packages\visualcpptools.14.0.24224-pre\lib\native\include\ostream

; 101  : 			if (_Myostr.rdbuf() != 0)

  0002d	48 85 c9	 test	 rcx, rcx
  00030	74 07		 je	 SHORT $LN6@sentry

; 102  : 				_Myostr.rdbuf()->_Lock();

  00032	48 8b 01	 mov	 rax, QWORD PTR [rcx]
  00035	ff 50 08	 call	 QWORD PTR [rax+8]
  00038	90		 npad	 1
$LN6@sentry:

; 124  : 			if (_Ostr.good() && _Ostr.tie() != 0 && _Ostr.tie() != &_Ostr)

  00039	48 8b 03	 mov	 rax, QWORD PTR [rbx]
  0003c	48 63 48 04	 movsxd	 rcx, DWORD PTR [rax+4]
; File c:\users\alist_000\cppmisc\packages\visualcpptools.14.0.24224-pre\lib\native\include\xiosbase

; 339  : 		return (rdstate() == goodbit);

  00040	83 7c 19 10 00	 cmp	 DWORD PTR [rcx+rbx+16], 0
; File c:\users\alist_000\cppmisc\packages\visualcpptools.14.0.24224-pre\lib\native\include\ostream

; 124  : 			if (_Ostr.good() && _Ostr.tie() != 0 && _Ostr.tie() != &_Ostr)

  00045	75 14		 jne	 SHORT $LN2@sentry
; File c:\users\alist_000\cppmisc\packages\visualcpptools.14.0.24224-pre\lib\native\include\ios

; 80   : 		return (_Tiestr);

  00047	48 8b 4c 19 50	 mov	 rcx, QWORD PTR [rcx+rbx+80]
; File c:\users\alist_000\cppmisc\packages\visualcpptools.14.0.24224-pre\lib\native\include\ostream

; 124  : 			if (_Ostr.good() && _Ostr.tie() != 0 && _Ostr.tie() != &_Ostr)

  0004c	48 85 c9	 test	 rcx, rcx
  0004f	74 0a		 je	 SHORT $LN2@sentry
  00051	48 3b cb	 cmp	 rcx, rbx
  00054	74 05		 je	 SHORT $LN2@sentry

; 125  : 				_Ostr.tie()->flush();

  00056	e8 00 00 00 00	 call	 ?flush@?$basic_ostream@DU?$char_traits@D@std@@@std@@QEAAAEAV12@XZ ; std::basic_ostream<char,std::char_traits<char> >::flush
$LN2@sentry:

; 126  : 			_Ok = _Ostr.good();	// store test only after flushing tie

  0005b	48 8b 03	 mov	 rax, QWORD PTR [rbx]
  0005e	48 63 48 04	 movsxd	 rcx, DWORD PTR [rax+4]
; File c:\users\alist_000\cppmisc\packages\visualcpptools.14.0.24224-pre\lib\native\include\xiosbase

; 339  : 		return (rdstate() == goodbit);

  00062	83 7c 19 10 00	 cmp	 DWORD PTR [rcx+rbx+16], 0
  00067	0f 94 c0	 sete	 al
; File c:\users\alist_000\cppmisc\packages\visualcpptools.14.0.24224-pre\lib\native\include\ostream

; 126  : 			_Ok = _Ostr.good();	// store test only after flushing tie

  0006a	88 47 08	 mov	 BYTE PTR [rdi+8], al

; 127  : 			}

  0006d	48 8b c7	 mov	 rax, rdi
  00070	48 8b 5c 24 48	 mov	 rbx, QWORD PTR [rsp+72]
  00075	48 83 c4 30	 add	 rsp, 48			; 00000030H
  00079	5f		 pop	 rdi
  0007a	c3		 ret	 0
??0sentry@?$basic_ostream@DU?$char_traits@D@std@@@std@@QEAA@AEAV12@@Z ENDP ; std::basic_ostream<char,std::char_traits<char> >::sentry::sentry
_TEXT	ENDS
;	COMDAT text$x
text$x	SEGMENT
$T1 = 32
this$ = 64
_Ostr$ = 72
?dtor$0@?0???0sentry@?$basic_ostream@DU?$char_traits@D@std@@@std@@QEAA@AEAV12@@Z@4HA PROC ; `std::basic_ostream<char,std::char_traits<char> >::sentry::sentry'::`1'::dtor$0
  00000	48 8b 8a 40 00
	00 00		 mov	 rcx, QWORD PTR this$[rdx]
  00007	e9 00 00 00 00	 jmp	 ??1_Sentry_base@?$basic_ostream@DU?$char_traits@D@std@@@std@@QEAA@XZ ; std::basic_ostream<char,std::char_traits<char> >::_Sentry_base::~_Sentry_base
?dtor$0@?0???0sentry@?$basic_ostream@DU?$char_traits@D@std@@@std@@QEAA@AEAV12@@Z@4HA ENDP ; `std::basic_ostream<char,std::char_traits<char> >::sentry::sentry'::`1'::dtor$0
text$x	ENDS
; Function compile flags: /Ogtpy
;	COMDAT text$x
text$x	SEGMENT
$T1 = 32
this$ = 64
_Ostr$ = 72
?dtor$0@?0???0sentry@?$basic_ostream@DU?$char_traits@D@std@@@std@@QEAA@AEAV12@@Z@4HA PROC ; `std::basic_ostream<char,std::char_traits<char> >::sentry::sentry'::`1'::dtor$0
  00000	48 8b 8a 40 00
	00 00		 mov	 rcx, QWORD PTR this$[rdx]
  00007	e9 00 00 00 00	 jmp	 ??1_Sentry_base@?$basic_ostream@DU?$char_traits@D@std@@@std@@QEAA@XZ ; std::basic_ostream<char,std::char_traits<char> >::_Sentry_base::~_Sentry_base
?dtor$0@?0???0sentry@?$basic_ostream@DU?$char_traits@D@std@@@std@@QEAA@AEAV12@@Z@4HA ENDP ; `std::basic_ostream<char,std::char_traits<char> >::sentry::sentry'::`1'::dtor$0
text$x	ENDS
; Function compile flags: /Ogtpy
; File c:\users\alist_000\cppmisc\packages\visualcpptools.14.0.24224-pre\lib\native\include\xstring
;	COMDAT ??0?$_String_val@U?$_Simple_types@D@std@@@std@@QEAA@XZ
_TEXT	SEGMENT
this$ = 8
??0?$_String_val@U?$_Simple_types@D@std@@@std@@QEAA@XZ PROC ; std::_String_val<std::_Simple_types<char> >::_String_val<std::_Simple_types<char> >, COMDAT

; 491  : 		_Mysize(0),

  00000	33 c0		 xor	 eax, eax
  00002	48 89 41 10	 mov	 QWORD PTR [rcx+16], rax

; 492  : 		_Myres(0)

  00006	48 89 41 18	 mov	 QWORD PTR [rcx+24], rax

; 494  : 		}

  0000a	48 8b c1	 mov	 rax, rcx
  0000d	c3		 ret	 0
??0?$_String_val@U?$_Simple_types@D@std@@@std@@QEAA@XZ ENDP ; std::_String_val<std::_Simple_types<char> >::_String_val<std::_Simple_types<char> >
_TEXT	ENDS
; Function compile flags: /Ogtpy
; File c:\users\alist_000\cppmisc\packages\visualcpptools.14.0.24224-pre\lib\native\include\xmemory0
;	COMDAT ??0?$_Wrap_alloc@V?$allocator@D@std@@@std@@QEAA@XZ
_TEXT	SEGMENT
this$ = 8
??0?$_Wrap_alloc@V?$allocator@D@std@@@std@@QEAA@XZ PROC	; std::_Wrap_alloc<std::allocator<char> >::_Wrap_alloc<std::allocator<char> >, COMDAT

; 937  : 		}

  00000	48 8b c1	 mov	 rax, rcx
  00003	c3		 ret	 0
??0?$_Wrap_alloc@V?$allocator@D@std@@@std@@QEAA@XZ ENDP	; std::_Wrap_alloc<std::allocator<char> >::_Wrap_alloc<std::allocator<char> >
_TEXT	ENDS
; Function compile flags: /Ogtpy
; File c:\users\alist_000\cppmisc\packages\visualcpptools.14.0.24224-pre\lib\native\include\ostream
; File c:\users\alist_000\cppmisc\packages\visualcpptools.14.0.24224-pre\lib\native\include\ios
; File c:\users\alist_000\cppmisc\packages\visualcpptools.14.0.24224-pre\lib\native\include\streambuf
; File c:\users\alist_000\cppmisc\packages\visualcpptools.14.0.24224-pre\lib\native\include\ostream
; File c:\users\alist_000\cppmisc\packages\visualcpptools.14.0.24224-pre\lib\native\include\ios
; File c:\users\alist_000\cppmisc\packages\visualcpptools.14.0.24224-pre\lib\native\include\ostream
; File c:\users\alist_000\cppmisc\packages\visualcpptools.14.0.24224-pre\lib\native\include\ios
; File c:\users\alist_000\cppmisc\packages\visualcpptools.14.0.24224-pre\lib\native\include\ostream
;	COMDAT ?flush@?$basic_ostream@DU?$char_traits@D@std@@@std@@QEAAAEAV12@XZ
_TEXT	SEGMENT
$T1 = 32
_Ok$2 = 40
this$ = 80
?flush@?$basic_ostream@DU?$char_traits@D@std@@@std@@QEAAAEAV12@XZ PROC ; std::basic_ostream<char,std::char_traits<char> >::flush, COMDAT

; 574  : 		{	// flush output stream

$LN61:
  00000	40 53		 push	 rbx
  00002	48 83 ec 40	 sub	 rsp, 64			; 00000040H
  00006	48 c7 44 24 20
	fe ff ff ff	 mov	 QWORD PTR $T1[rsp], -2
  0000f	48 8b d9	 mov	 rbx, rcx

; 575  : 		if (_Myios::rdbuf() != 0)

  00012	48 8b 01	 mov	 rax, QWORD PTR [rcx]
  00015	48 63 50 04	 movsxd	 rdx, DWORD PTR [rax+4]
  00019	48 83 7c 0a 48
	00		 cmp	 QWORD PTR [rdx+rcx+72], 0
  0001f	0f 84 82 00 00
	00		 je	 $LN60@flush

; 576  : 			{	// buffer exists, flush it
; 577  : 			const sentry _Ok(*this);

  00025	48 8b d1	 mov	 rdx, rcx
  00028	48 8d 4c 24 28	 lea	 rcx, QWORD PTR _Ok$2[rsp]
  0002d	e8 00 00 00 00	 call	 ??0sentry@?$basic_ostream@DU?$char_traits@D@std@@@std@@QEAA@AEAV12@@Z ; std::basic_ostream<char,std::char_traits<char> >::sentry::sentry
  00032	90		 npad	 1

; 579  : 			if (_Ok && _Myios::rdbuf()->pubsync() == -1)

  00033	80 7c 24 30 00	 cmp	 BYTE PTR _Ok$2[rsp+8], 0
  00038	74 3c		 je	 SHORT $LN40@flush
  0003a	48 8b 03	 mov	 rax, QWORD PTR [rbx]
  0003d	48 63 48 04	 movsxd	 rcx, DWORD PTR [rax+4]
; File c:\users\alist_000\cppmisc\packages\visualcpptools.14.0.24224-pre\lib\native\include\ios

; 92   : 		return (_Mystrbuf);

  00041	48 8b 4c 19 48	 mov	 rcx, QWORD PTR [rcx+rbx+72]
; File c:\users\alist_000\cppmisc\packages\visualcpptools.14.0.24224-pre\lib\native\include\streambuf

; 145  : 		return (sync());

  00046	48 8b 01	 mov	 rax, QWORD PTR [rcx]
  00049	ff 50 68	 call	 QWORD PTR [rax+104]
; File c:\users\alist_000\cppmisc\packages\visualcpptools.14.0.24224-pre\lib\native\include\ostream

; 579  : 			if (_Ok && _Myios::rdbuf()->pubsync() == -1)

  0004c	83 f8 ff	 cmp	 eax, -1
  0004f	75 25		 jne	 SHORT $LN40@flush

; 580  : 				_Myios::setstate(ios_base::badbit);	// sync failed

  00051	48 8b 03	 mov	 rax, QWORD PTR [rbx]
  00054	48 63 48 04	 movsxd	 rcx, DWORD PTR [rax+4]
  00058	48 03 cb	 add	 rcx, rbx
; File c:\users\alist_000\cppmisc\packages\visualcpptools.14.0.24224-pre\lib\native\include\ios

; 60   : 			clear((iostate)((int)rdstate() | (int)_State), _Reraise);

  0005b	8b 51 10	 mov	 edx, DWORD PTR [rcx+16]
  0005e	83 ca 04	 or	 edx, 4
  00061	48 83 79 48 00	 cmp	 QWORD PTR [rcx+72], 0
  00066	0f 45 51 10	 cmovne	 edx, DWORD PTR [rcx+16]
  0006a	83 ca 04	 or	 edx, 4

; 45   : 		ios_base::clear((iostate)(_Mystrbuf == 0

  0006d	45 33 c0	 xor	 r8d, r8d
  00070	e8 00 00 00 00	 call	 ?clear@ios_base@std@@QEAAXH_N@Z ; std::ios_base::clear
  00075	90		 npad	 1
$LN40@flush:
; File c:\users\alist_000\cppmisc\packages\visualcpptools.14.0.24224-pre\lib\native\include\ostream

; 132  : 			if (!_XSTD uncaught_exception())

  00076	e8 00 00 00 00	 call	 ?uncaught_exception@std@@YA_NXZ ; std::uncaught_exception
  0007b	84 c0		 test	 al, al
  0007d	75 0b		 jne	 SHORT $LN49@flush

; 133  : 				this->_Myostr._Osfx();

  0007f	48 8b 4c 24 28	 mov	 rcx, QWORD PTR _Ok$2[rsp]
  00084	e8 00 00 00 00	 call	 ?_Osfx@?$basic_ostream@DU?$char_traits@D@std@@@std@@QEAAXXZ ; std::basic_ostream<char,std::char_traits<char> >::_Osfx
  00089	90		 npad	 1
$LN49@flush:

; 107  : 			if (_Myostr.rdbuf() != 0)

  0008a	48 8b 54 24 28	 mov	 rdx, QWORD PTR _Ok$2[rsp]
  0008f	48 8b 02	 mov	 rax, QWORD PTR [rdx]
  00092	48 63 48 04	 movsxd	 rcx, DWORD PTR [rax+4]
; File c:\users\alist_000\cppmisc\packages\visualcpptools.14.0.24224-pre\lib\native\include\ios

; 92   : 		return (_Mystrbuf);

  00096	48 8b 4c 11 48	 mov	 rcx, QWORD PTR [rcx+rdx+72]
; File c:\users\alist_000\cppmisc\packages\visualcpptools.14.0.24224-pre\lib\native\include\ostream

; 107  : 			if (_Myostr.rdbuf() != 0)

  0009b	48 85 c9	 test	 rcx, rcx
  0009e	74 07		 je	 SHORT $LN53@flush

; 108  : 				_Myostr.rdbuf()->_Unlock();

  000a0	48 8b 01	 mov	 rax, QWORD PTR [rcx]
  000a3	ff 50 10	 call	 QWORD PTR [rax+16]
  000a6	90		 npad	 1
$LN53@flush:
$LN60@flush:

; 581  : 			}
; 582  : 		return (*this);

  000a7	48 8b c3	 mov	 rax, rbx

; 583  : 		}

  000aa	48 83 c4 40	 add	 rsp, 64			; 00000040H
  000ae	5b		 pop	 rbx
  000af	c3		 ret	 0
?flush@?$basic_ostream@DU?$char_traits@D@std@@@std@@QEAAAEAV12@XZ ENDP ; std::basic_ostream<char,std::char_traits<char> >::flush
_TEXT	ENDS
;	COMDAT text$x
text$x	SEGMENT
$T1 = 32
_Ok$2 = 40
this$ = 80
?dtor$0@?0??flush@?$basic_ostream@DU?$char_traits@D@std@@@std@@QEAAAEAV12@XZ@4HA PROC ; `std::basic_ostream<char,std::char_traits<char> >::flush'::`1'::dtor$0
  00000	48 8d 8a 28 00
	00 00		 lea	 rcx, QWORD PTR _Ok$2[rdx]
  00007	e9 00 00 00 00	 jmp	 ??1sentry@?$basic_ostream@DU?$char_traits@D@std@@@std@@QEAA@XZ ; std::basic_ostream<char,std::char_traits<char> >::sentry::~sentry
?dtor$0@?0??flush@?$basic_ostream@DU?$char_traits@D@std@@@std@@QEAAAEAV12@XZ@4HA ENDP ; `std::basic_ostream<char,std::char_traits<char> >::flush'::`1'::dtor$0
text$x	ENDS
; Function compile flags: /Ogtpy
;	COMDAT text$x
text$x	SEGMENT
$T1 = 32
_Ok$2 = 40
this$ = 80
?dtor$0@?0??flush@?$basic_ostream@DU?$char_traits@D@std@@@std@@QEAAAEAV12@XZ@4HA PROC ; `std::basic_ostream<char,std::char_traits<char> >::flush'::`1'::dtor$0
  00000	48 8d 8a 28 00
	00 00		 lea	 rcx, QWORD PTR _Ok$2[rdx]
  00007	e9 00 00 00 00	 jmp	 ??1sentry@?$basic_ostream@DU?$char_traits@D@std@@@std@@QEAA@XZ ; std::basic_ostream<char,std::char_traits<char> >::sentry::~sentry
?dtor$0@?0??flush@?$basic_ostream@DU?$char_traits@D@std@@@std@@QEAAAEAV12@XZ@4HA ENDP ; `std::basic_ostream<char,std::char_traits<char> >::flush'::`1'::dtor$0
text$x	ENDS
; Function compile flags: /Ogtpy
; File c:\users\alist_000\cppmisc\packages\visualcpptools.14.0.24224-pre\lib\native\include\ostream
; File c:\users\alist_000\cppmisc\packages\visualcpptools.14.0.24224-pre\lib\native\include\ios
; File c:\users\alist_000\cppmisc\packages\visualcpptools.14.0.24224-pre\lib\native\include\ostream
; File c:\users\alist_000\cppmisc\packages\visualcpptools.14.0.24224-pre\lib\native\include\xiosbase
; File c:\users\alist_000\cppmisc\packages\visualcpptools.14.0.24224-pre\lib\native\include\ostream
; File c:\users\alist_000\cppmisc\packages\visualcpptools.14.0.24224-pre\lib\native\include\ios
; File c:\users\alist_000\cppmisc\packages\visualcpptools.14.0.24224-pre\lib\native\include\ostream
; File c:\users\alist_000\cppmisc\packages\visualcpptools.14.0.24224-pre\lib\native\include\xiosbase
; File c:\users\alist_000\cppmisc\packages\visualcpptools.14.0.24224-pre\lib\native\include\ostream
; File c:\users\alist_000\cppmisc\packages\visualcpptools.14.0.24224-pre\lib\native\include\ios
; File c:\users\alist_000\cppmisc\packages\visualcpptools.14.0.24224-pre\lib\native\include\streambuf
; File c:\users\alist_000\cppmisc\packages\visualcpptools.14.0.24224-pre\lib\native\include\iosfwd
; File c:\users\alist_000\cppmisc\packages\visualcpptools.14.0.24224-pre\lib\native\include\streambuf
; File c:\users\alist_000\cppmisc\packages\visualcpptools.14.0.24224-pre\lib\native\include\iosfwd
; File c:\users\alist_000\cppmisc\packages\visualcpptools.14.0.24224-pre\lib\native\include\streambuf
; File c:\users\alist_000\cppmisc\packages\visualcpptools.14.0.24224-pre\lib\native\include\ostream
; File c:\users\alist_000\cppmisc\packages\visualcpptools.14.0.24224-pre\lib\native\include\ios
; File c:\users\alist_000\cppmisc\packages\visualcpptools.14.0.24224-pre\lib\native\include\xiosbase
; File c:\users\alist_000\cppmisc\packages\visualcpptools.14.0.24224-pre\lib\native\include\ios
; File c:\users\alist_000\cppmisc\packages\visualcpptools.14.0.24224-pre\lib\native\include\ostream
; File c:\users\alist_000\cppmisc\packages\visualcpptools.14.0.24224-pre\lib\native\include\ios
; File c:\users\alist_000\cppmisc\packages\visualcpptools.14.0.24224-pre\lib\native\include\ostream
;	COMDAT ?put@?$basic_ostream@DU?$char_traits@D@std@@@std@@QEAAAEAV12@D@Z
_TEXT	SEGMENT
_State$ = 32
this$GSCopy$ = 40
$T1 = 48
_Ok$ = 56
this$ = 96
_Ch$ = 104
?put@?$basic_ostream@DU?$char_traits@D@std@@@std@@QEAAAEAV12@D@Z PROC ; std::basic_ostream<char,std::char_traits<char> >::put, COMDAT

; 533  : 		{	// insert a character

$LN1100:
  00000	40 57		 push	 rdi
  00002	48 83 ec 50	 sub	 rsp, 80			; 00000050H
  00006	48 c7 44 24 30
	fe ff ff ff	 mov	 QWORD PTR $T1[rsp], -2
  0000f	48 89 5c 24 70	 mov	 QWORD PTR [rsp+112], rbx
  00014	48 89 74 24 78	 mov	 QWORD PTR [rsp+120], rsi
  00019	0f b6 f2	 movzx	 esi, dl
  0001c	48 8b d9	 mov	 rbx, rcx
  0001f	48 89 4c 24 28	 mov	 QWORD PTR this$GSCopy$[rsp], rcx

; 534  : 		ios_base::iostate _State = ios_base::goodbit;

  00024	33 ff		 xor	 edi, edi
  00026	89 7c 24 20	 mov	 DWORD PTR _State$[rsp], edi

; 99   : 			: _Myostr(_Ostr)

  0002a	48 89 4c 24 38	 mov	 QWORD PTR _Ok$[rsp], rcx

; 101  : 			if (_Myostr.rdbuf() != 0)

  0002f	48 8b 01	 mov	 rax, QWORD PTR [rcx]
  00032	48 63 48 04	 movsxd	 rcx, DWORD PTR [rax+4]
; File c:\users\alist_000\cppmisc\packages\visualcpptools.14.0.24224-pre\lib\native\include\ios

; 92   : 		return (_Mystrbuf);

  00036	48 8b 4c 19 48	 mov	 rcx, QWORD PTR [rcx+rbx+72]
; File c:\users\alist_000\cppmisc\packages\visualcpptools.14.0.24224-pre\lib\native\include\ostream

; 101  : 			if (_Myostr.rdbuf() != 0)

  0003b	48 85 c9	 test	 rcx, rcx
  0003e	74 07		 je	 SHORT $LN17@put

; 102  : 				_Myostr.rdbuf()->_Lock();

  00040	48 8b 01	 mov	 rax, QWORD PTR [rcx]
  00043	ff 50 08	 call	 QWORD PTR [rax+8]
  00046	90		 npad	 1
$LN17@put:

; 124  : 			if (_Ostr.good() && _Ostr.tie() != 0 && _Ostr.tie() != &_Ostr)

  00047	48 8b 03	 mov	 rax, QWORD PTR [rbx]
  0004a	48 63 48 04	 movsxd	 rcx, DWORD PTR [rax+4]
; File c:\users\alist_000\cppmisc\packages\visualcpptools.14.0.24224-pre\lib\native\include\xiosbase

; 339  : 		return (rdstate() == goodbit);

  0004e	83 7c 19 10 00	 cmp	 DWORD PTR [rcx+rbx+16], 0
; File c:\users\alist_000\cppmisc\packages\visualcpptools.14.0.24224-pre\lib\native\include\ostream

; 124  : 			if (_Ostr.good() && _Ostr.tie() != 0 && _Ostr.tie() != &_Ostr)

  00053	75 14		 jne	 SHORT $LN13@put
; File c:\users\alist_000\cppmisc\packages\visualcpptools.14.0.24224-pre\lib\native\include\ios

; 80   : 		return (_Tiestr);

  00055	48 8b 4c 19 50	 mov	 rcx, QWORD PTR [rcx+rbx+80]
; File c:\users\alist_000\cppmisc\packages\visualcpptools.14.0.24224-pre\lib\native\include\ostream

; 124  : 			if (_Ostr.good() && _Ostr.tie() != 0 && _Ostr.tie() != &_Ostr)

  0005a	48 85 c9	 test	 rcx, rcx
  0005d	74 0a		 je	 SHORT $LN13@put
  0005f	48 3b cb	 cmp	 rcx, rbx
  00062	74 05		 je	 SHORT $LN13@put

; 125  : 				_Ostr.tie()->flush();

  00064	e8 00 00 00 00	 call	 ?flush@?$basic_ostream@DU?$char_traits@D@std@@@std@@QEAAAEAV12@XZ ; std::basic_ostream<char,std::char_traits<char> >::flush
$LN13@put:

; 126  : 			_Ok = _Ostr.good();	// store test only after flushing tie

  00069	48 8b 03	 mov	 rax, QWORD PTR [rbx]
  0006c	48 63 48 04	 movsxd	 rcx, DWORD PTR [rax+4]
; File c:\users\alist_000\cppmisc\packages\visualcpptools.14.0.24224-pre\lib\native\include\xiosbase

; 339  : 		return (rdstate() == goodbit);

  00070	83 7c 19 10 00	 cmp	 DWORD PTR [rcx+rbx+16], 0
  00075	0f 94 c0	 sete	 al
  00078	88 44 24 40	 mov	 BYTE PTR _Ok$[rsp+8], al
; File c:\users\alist_000\cppmisc\packages\visualcpptools.14.0.24224-pre\lib\native\include\ostream

; 537  : 		if (!_Ok)

  0007c	84 c0		 test	 al, al
  0007e	75 07		 jne	 SHORT $LN2@put

; 538  : 			_State |= ios_base::badbit;

  00080	b9 04 00 00 00	 mov	 ecx, 4

; 539  : 		else

  00085	eb 5a		 jmp	 SHORT $LN10@put
$LN2@put:
; File c:\users\alist_000\cppmisc\packages\visualcpptools.14.0.24224-pre\lib\native\include\ios

; 92   : 		return (_Mystrbuf);

  00087	48 8b 4c 19 48	 mov	 rcx, QWORD PTR [rcx+rbx+72]
; File c:\users\alist_000\cppmisc\packages\visualcpptools.14.0.24224-pre\lib\native\include\streambuf

; 314  : 		return (*_IPnext != 0 ? *_IPcount : 0);

  0008c	48 8b 41 40	 mov	 rax, QWORD PTR [rcx+64]
  00090	48 83 38 00	 cmp	 QWORD PTR [rax], 0
  00094	74 25		 je	 SHORT $LN43@put
  00096	48 8b 51 58	 mov	 rdx, QWORD PTR [rcx+88]
  0009a	8b 02		 mov	 eax, DWORD PTR [rdx]

; 200  : 		return (0 < _Pnavail()

  0009c	85 c0		 test	 eax, eax
  0009e	7e 1b		 jle	 SHORT $LN43@put

; 308  : 		--*_IPcount;

  000a0	ff c8		 dec	 eax
  000a2	89 02		 mov	 DWORD PTR [rdx], eax

; 309  : 		return ((*_IPnext)++);

  000a4	48 8b 49 40	 mov	 rcx, QWORD PTR [rcx+64]
  000a8	48 8b 11	 mov	 rdx, QWORD PTR [rcx]
  000ab	48 8d 42 01	 lea	 rax, QWORD PTR [rdx+1]
  000af	48 89 01	 mov	 QWORD PTR [rcx], rax
  000b2	40 88 32	 mov	 BYTE PTR [rdx], sil
; File c:\users\alist_000\cppmisc\packages\visualcpptools.14.0.24224-pre\lib\native\include\iosfwd

; 589  : 		return ((unsigned char)_Ch);

  000b5	40 0f b6 c6	 movzx	 eax, sil
; File c:\users\alist_000\cppmisc\packages\visualcpptools.14.0.24224-pre\lib\native\include\streambuf

; 200  : 		return (0 < _Pnavail()

  000b9	eb 0a		 jmp	 SHORT $LN44@put
$LN43@put:
; File c:\users\alist_000\cppmisc\packages\visualcpptools.14.0.24224-pre\lib\native\include\iosfwd

; 589  : 		return ((unsigned char)_Ch);

  000bb	40 0f b6 d6	 movzx	 edx, sil
; File c:\users\alist_000\cppmisc\packages\visualcpptools.14.0.24224-pre\lib\native\include\streambuf

; 200  : 		return (0 < _Pnavail()

  000bf	48 8b 01	 mov	 rax, QWORD PTR [rcx]
  000c2	ff 50 18	 call	 QWORD PTR [rax+24]
$LN44@put:
; File c:\users\alist_000\cppmisc\packages\visualcpptools.14.0.24224-pre\lib\native\include\ostream

; 542  : 			if (_Traits::eq_int_type(_Traits::eof(),

  000c5	b9 04 00 00 00	 mov	 ecx, 4
  000ca	83 f8 ff	 cmp	 eax, -1
  000cd	0f 44 f9	 cmove	 edi, ecx
  000d0	8b cf		 mov	 ecx, edi
  000d2	89 4c 24 20	 mov	 DWORD PTR _State$[rsp], ecx
  000d6	eb 09		 jmp	 SHORT $LN10@put
$LN11@put:
; File c:\users\alist_000\cppmisc\packages\visualcpptools.14.0.24224-pre\lib\native\include\ios
  000d8	8b 4c 24 20	 mov	 ecx, DWORD PTR _State$[rsp]
  000dc	48 8b 5c 24 28	 mov	 rbx, QWORD PTR this$GSCopy$[rsp]
$LN10@put:
; File c:\users\alist_000\cppmisc\packages\visualcpptools.14.0.24224-pre\lib\native\include\ostream

; 543  : 				_Myios::rdbuf()->sputc(_Ch)))
; 544  : 				_State |= ios_base::badbit;
; 545  : 			_CATCH_IO_END
; 546  : 			}
; 547  : 
; 548  : 		_Myios::setstate(_State);

  000e1	48 8b 03	 mov	 rax, QWORD PTR [rbx]
  000e4	4c 63 48 04	 movsxd	 r9, DWORD PTR [rax+4]
  000e8	4c 03 cb	 add	 r9, rbx
; File c:\users\alist_000\cppmisc\packages\visualcpptools.14.0.24224-pre\lib\native\include\ios

; 59   : 		if (_State != goodbit)

  000eb	85 c9		 test	 ecx, ecx
  000ed	74 1f		 je	 SHORT $LN1078@put
; File c:\users\alist_000\cppmisc\packages\visualcpptools.14.0.24224-pre\lib\native\include\xiosbase

; 315  : 		return (_Mystate);

  000ef	41 8b 41 10	 mov	 eax, DWORD PTR [r9+16]
; File c:\users\alist_000\cppmisc\packages\visualcpptools.14.0.24224-pre\lib\native\include\ios

; 60   : 			clear((iostate)((int)rdstate() | (int)_State), _Reraise);

  000f3	0b c1		 or	 eax, ecx
  000f5	8b d0		 mov	 edx, eax
  000f7	83 ca 04	 or	 edx, 4
  000fa	49 83 79 48 00	 cmp	 QWORD PTR [r9+72], 0
  000ff	0f 45 d0	 cmovne	 edx, eax

; 45   : 		ios_base::clear((iostate)(_Mystrbuf == 0

  00102	45 33 c0	 xor	 r8d, r8d
  00105	49 8b c9	 mov	 rcx, r9
  00108	e8 00 00 00 00	 call	 ?clear@ios_base@std@@QEAAXH_N@Z ; std::ios_base::clear
  0010d	90		 npad	 1
$LN1078@put:
; File c:\users\alist_000\cppmisc\packages\visualcpptools.14.0.24224-pre\lib\native\include\ostream

; 132  : 			if (!_XSTD uncaught_exception())

  0010e	e8 00 00 00 00	 call	 ?uncaught_exception@std@@YA_NXZ ; std::uncaught_exception
  00113	84 c0		 test	 al, al
  00115	75 09		 jne	 SHORT $LN1087@put

; 133  : 				this->_Myostr._Osfx();

  00117	48 8b cb	 mov	 rcx, rbx
  0011a	e8 00 00 00 00	 call	 ?_Osfx@?$basic_ostream@DU?$char_traits@D@std@@@std@@QEAAXXZ ; std::basic_ostream<char,std::char_traits<char> >::_Osfx
  0011f	90		 npad	 1
$LN1087@put:

; 107  : 			if (_Myostr.rdbuf() != 0)

  00120	48 8b 0b	 mov	 rcx, QWORD PTR [rbx]
  00123	48 63 51 04	 movsxd	 rdx, DWORD PTR [rcx+4]
; File c:\users\alist_000\cppmisc\packages\visualcpptools.14.0.24224-pre\lib\native\include\ios

; 92   : 		return (_Mystrbuf);

  00127	48 8b 4c 1a 48	 mov	 rcx, QWORD PTR [rdx+rbx+72]
; File c:\users\alist_000\cppmisc\packages\visualcpptools.14.0.24224-pre\lib\native\include\ostream

; 107  : 			if (_Myostr.rdbuf() != 0)

  0012c	48 85 c9	 test	 rcx, rcx
  0012f	74 07		 je	 SHORT $LN1091@put

; 108  : 				_Myostr.rdbuf()->_Unlock();

  00131	48 8b 11	 mov	 rdx, QWORD PTR [rcx]
  00134	ff 52 10	 call	 QWORD PTR [rdx+16]
  00137	90		 npad	 1
$LN1091@put:

; 549  : 		return (*this);

  00138	48 8b c3	 mov	 rax, rbx

; 550  : 		}

  0013b	48 8b 5c 24 70	 mov	 rbx, QWORD PTR [rsp+112]
  00140	48 8b 74 24 78	 mov	 rsi, QWORD PTR [rsp+120]
  00145	48 83 c4 50	 add	 rsp, 80			; 00000050H
  00149	5f		 pop	 rdi
  0014a	c3		 ret	 0
$LN1098@put:
?put@?$basic_ostream@DU?$char_traits@D@std@@@std@@QEAAAEAV12@D@Z ENDP ; std::basic_ostream<char,std::char_traits<char> >::put
_TEXT	ENDS
;	COMDAT text$x
text$x	SEGMENT
_State$ = 32
this$GSCopy$ = 40
$T1 = 48
_Ok$ = 56
this$ = 96
_Ch$ = 104
?dtor$1@?0??put@?$basic_ostream@DU?$char_traits@D@std@@@std@@QEAAAEAV12@D@Z@4HA PROC ; `std::basic_ostream<char,std::char_traits<char> >::put'::`1'::dtor$1
  00000	48 8d 8a 38 00
	00 00		 lea	 rcx, QWORD PTR _Ok$[rdx]
  00007	e9 00 00 00 00	 jmp	 ??1_Sentry_base@?$basic_ostream@DU?$char_traits@D@std@@@std@@QEAA@XZ ; std::basic_ostream<char,std::char_traits<char> >::_Sentry_base::~_Sentry_base
?dtor$1@?0??put@?$basic_ostream@DU?$char_traits@D@std@@@std@@QEAAAEAV12@D@Z@4HA ENDP ; `std::basic_ostream<char,std::char_traits<char> >::put'::`1'::dtor$1
_State$ = 32
this$GSCopy$ = 40
$T1 = 48
_Ok$ = 56
this$ = 96
_Ch$ = 104
?dtor$0@?0??put@?$basic_ostream@DU?$char_traits@D@std@@@std@@QEAAAEAV12@D@Z@4HA PROC ; `std::basic_ostream<char,std::char_traits<char> >::put'::`1'::dtor$0
  0000c	48 8d 8a 38 00
	00 00		 lea	 rcx, QWORD PTR _Ok$[rdx]
  00013	e9 00 00 00 00	 jmp	 ??1sentry@?$basic_ostream@DU?$char_traits@D@std@@@std@@QEAA@XZ ; std::basic_ostream<char,std::char_traits<char> >::sentry::~sentry
?dtor$0@?0??put@?$basic_ostream@DU?$char_traits@D@std@@@std@@QEAAAEAV12@D@Z@4HA ENDP ; `std::basic_ostream<char,std::char_traits<char> >::put'::`1'::dtor$0
_State$ = 32
this$GSCopy$ = 40
$T1 = 48
_Ok$ = 56
this$ = 96
_Ch$ = 104
?catch$228@?0??put@?$basic_ostream@DU?$char_traits@D@std@@@std@@QEAAAEAV12@D@Z@4HA PROC ; `std::basic_ostream<char,std::char_traits<char> >::put'::`1'::catch$228

; 543  : 				_Myios::rdbuf()->sputc(_Ch)))
; 544  : 				_State |= ios_base::badbit;
; 545  : 			_CATCH_IO_END

  00018	48 89 54 24 10	 mov	 QWORD PTR [rsp+16], rdx
  0001d	55		 push	 rbp
  0001e	48 83 ec 20	 sub	 rsp, 32			; 00000020H
  00022	48 8b ea	 mov	 rbp, rdx
__catch$?put@?$basic_ostream@DU?$char_traits@D@std@@@std@@QEAAAEAV12@D@Z$0:
  00025	48 8b 4d 28	 mov	 rcx, QWORD PTR this$GSCopy$[rbp]
  00029	48 8b 01	 mov	 rax, QWORD PTR [rcx]
  0002c	48 63 50 04	 movsxd	 rdx, DWORD PTR [rax+4]
  00030	48 03 d1	 add	 rdx, rcx
; File c:\users\alist_000\cppmisc\packages\visualcpptools.14.0.24224-pre\lib\native\include\xiosbase

; 315  : 		return (_Mystate);

  00033	8b 42 10	 mov	 eax, DWORD PTR [rdx+16]
; File c:\users\alist_000\cppmisc\packages\visualcpptools.14.0.24224-pre\lib\native\include\ios

; 60   : 			clear((iostate)((int)rdstate() | (int)_State), _Reraise);

  00036	83 c8 04	 or	 eax, 4

; 45   : 		ios_base::clear((iostate)(_Mystrbuf == 0

  00039	48 83 7a 48 00	 cmp	 QWORD PTR [rdx+72], 0
  0003e	75 03		 jne	 SHORT $LN70@catch$228
  00040	83 c8 04	 or	 eax, 4
$LN70@catch$228:
; File c:\users\alist_000\cppmisc\packages\visualcpptools.14.0.24224-pre\lib\native\include\xiosbase

; 288  : 		_Mystate = (iostate)(_State & _Statmask);

  00043	83 e0 17	 and	 eax, 23
  00046	89 42 10	 mov	 DWORD PTR [rdx+16], eax


  00049	85 42 14	 test	 DWORD PTR [rdx+20], eax
  0004c	75 09		 jne	 SHORT $LN73@catch$228
; File c:\users\alist_000\cppmisc\packages\visualcpptools.14.0.24224-pre\lib\native\include\ostream

; 543  : 				_Myios::rdbuf()->sputc(_Ch)))
; 544  : 				_State |= ios_base::badbit;
; 545  : 			_CATCH_IO_END

  0004e	48 8d 05 00 00
	00 00		 lea	 rax, $LN11@catch$228
  00055	eb 0a		 jmp	 SHORT $LN1099@catch$228
$LN73@catch$228:
; File c:\users\alist_000\cppmisc\packages\visualcpptools.14.0.24224-pre\lib\native\include\xiosbase

; 292  : 			_RERAISE;

  00057	33 d2		 xor	 edx, edx
  00059	33 c9		 xor	 ecx, ecx
  0005b	e8 00 00 00 00	 call	 _CxxThrowException
  00060	90		 npad	 1
$LN1099@catch$228:
  00061	48 83 c4 20	 add	 rsp, 32			; 00000020H
  00065	5d		 pop	 rbp
  00066	c3		 ret	 0
  00067	cc		 int	 3
?catch$228@?0??put@?$basic_ostream@DU?$char_traits@D@std@@@std@@QEAAAEAV12@D@Z@4HA ENDP ; `std::basic_ostream<char,std::char_traits<char> >::put'::`1'::catch$228
text$x	ENDS
; Function compile flags: /Ogtpy
;	COMDAT text$x
text$x	SEGMENT
_State$ = 32
this$GSCopy$ = 40
$T1 = 48
_Ok$ = 56
this$ = 96
_Ch$ = 104
?dtor$1@?0??put@?$basic_ostream@DU?$char_traits@D@std@@@std@@QEAAAEAV12@D@Z@4HA PROC ; `std::basic_ostream<char,std::char_traits<char> >::put'::`1'::dtor$1
  00000	48 8d 8a 38 00
	00 00		 lea	 rcx, QWORD PTR _Ok$[rdx]
  00007	e9 00 00 00 00	 jmp	 ??1_Sentry_base@?$basic_ostream@DU?$char_traits@D@std@@@std@@QEAA@XZ ; std::basic_ostream<char,std::char_traits<char> >::_Sentry_base::~_Sentry_base
?dtor$1@?0??put@?$basic_ostream@DU?$char_traits@D@std@@@std@@QEAAAEAV12@D@Z@4HA ENDP ; `std::basic_ostream<char,std::char_traits<char> >::put'::`1'::dtor$1
text$x	ENDS
; Function compile flags: /Ogtpy
;	COMDAT text$x
text$x	SEGMENT
_State$ = 32
this$GSCopy$ = 40
$T1 = 48
_Ok$ = 56
this$ = 96
_Ch$ = 104
?dtor$0@?0??put@?$basic_ostream@DU?$char_traits@D@std@@@std@@QEAAAEAV12@D@Z@4HA PROC ; `std::basic_ostream<char,std::char_traits<char> >::put'::`1'::dtor$0
  0000c	48 8d 8a 38 00
	00 00		 lea	 rcx, QWORD PTR _Ok$[rdx]
  00013	e9 00 00 00 00	 jmp	 ??1sentry@?$basic_ostream@DU?$char_traits@D@std@@@std@@QEAA@XZ ; std::basic_ostream<char,std::char_traits<char> >::sentry::~sentry
?dtor$0@?0??put@?$basic_ostream@DU?$char_traits@D@std@@@std@@QEAAAEAV12@D@Z@4HA ENDP ; `std::basic_ostream<char,std::char_traits<char> >::put'::`1'::dtor$0
text$x	ENDS
; Function compile flags: /Ogtpy
; File c:\users\alist_000\cppmisc\packages\visualcpptools.14.0.24224-pre\lib\native\include\ostream
; File c:\users\alist_000\cppmisc\packages\visualcpptools.14.0.24224-pre\lib\native\include\xiosbase
; File c:\users\alist_000\cppmisc\packages\visualcpptools.14.0.24224-pre\lib\native\include\ios
; File c:\users\alist_000\cppmisc\packages\visualcpptools.14.0.24224-pre\lib\native\include\xiosbase
; File c:\users\alist_000\cppmisc\packages\visualcpptools.14.0.24224-pre\lib\native\include\ostream
; File c:\users\alist_000\cppmisc\packages\visualcpptools.14.0.24224-pre\lib\native\include\xiosbase
;	COMDAT text$x
text$x	SEGMENT
_State$ = 32
this$GSCopy$ = 40
$T1 = 48
_Ok$ = 56
this$ = 96
_Ch$ = 104
?catch$228@?0??put@?$basic_ostream@DU?$char_traits@D@std@@@std@@QEAAAEAV12@D@Z@4HA PROC ; `std::basic_ostream<char,std::char_traits<char> >::put'::`1'::catch$228
; File c:\users\alist_000\cppmisc\packages\visualcpptools.14.0.24224-pre\lib\native\include\ostream

; 545  : 			_CATCH_IO_END

  00018	48 89 54 24 10	 mov	 QWORD PTR [rsp+16], rdx
  0001d	55		 push	 rbp
  0001e	48 83 ec 20	 sub	 rsp, 32			; 00000020H
  00022	48 8b ea	 mov	 rbp, rdx
__catch$?put@?$basic_ostream@DU?$char_traits@D@std@@@std@@QEAAAEAV12@D@Z$0:
  00025	48 8b 4d 28	 mov	 rcx, QWORD PTR this$GSCopy$[rbp]
  00029	48 8b 01	 mov	 rax, QWORD PTR [rcx]
  0002c	48 63 50 04	 movsxd	 rdx, DWORD PTR [rax+4]
  00030	48 03 d1	 add	 rdx, rcx
; File c:\users\alist_000\cppmisc\packages\visualcpptools.14.0.24224-pre\lib\native\include\xiosbase

; 315  : 		return (_Mystate);

  00033	8b 42 10	 mov	 eax, DWORD PTR [rdx+16]
; File c:\users\alist_000\cppmisc\packages\visualcpptools.14.0.24224-pre\lib\native\include\ios

; 60   : 			clear((iostate)((int)rdstate() | (int)_State), _Reraise);

  00036	83 c8 04	 or	 eax, 4

; 45   : 		ios_base::clear((iostate)(_Mystrbuf == 0

  00039	48 83 7a 48 00	 cmp	 QWORD PTR [rdx+72], 0
  0003e	75 03		 jne	 SHORT $LN70@catch$228
  00040	83 c8 04	 or	 eax, 4
$LN70@catch$228:
; File c:\users\alist_000\cppmisc\packages\visualcpptools.14.0.24224-pre\lib\native\include\xiosbase

; 288  : 		_Mystate = (iostate)(_State & _Statmask);

  00043	83 e0 17	 and	 eax, 23
  00046	89 42 10	 mov	 DWORD PTR [rdx+16], eax

; 289  : 		if ((_Mystate & _Except) == 0)

  00049	85 42 14	 test	 DWORD PTR [rdx+20], eax
  0004c	75 09		 jne	 SHORT $LN73@catch$228
; File c:\users\alist_000\cppmisc\packages\visualcpptools.14.0.24224-pre\lib\native\include\ostream

; 545  : 			_CATCH_IO_END

  0004e	48 8d 05 00 00
	00 00		 lea	 rax, $LN11@catch$228
  00055	eb 0a		 jmp	 SHORT $LN1099@catch$228
$LN73@catch$228:
; File c:\users\alist_000\cppmisc\packages\visualcpptools.14.0.24224-pre\lib\native\include\xiosbase

; 292  : 			_RERAISE;

  00057	33 d2		 xor	 edx, edx
  00059	33 c9		 xor	 ecx, ecx
  0005b	e8 00 00 00 00	 call	 _CxxThrowException
  00060	90		 npad	 1
$LN1099@catch$228:
  00061	48 83 c4 20	 add	 rsp, 32			; 00000020H
  00065	5d		 pop	 rbp
  00066	c3		 ret	 0
  00067	cc		 int	 3
?catch$228@?0??put@?$basic_ostream@DU?$char_traits@D@std@@@std@@QEAAAEAV12@D@Z@4HA ENDP ; `std::basic_ostream<char,std::char_traits<char> >::put'::`1'::catch$228
text$x	ENDS
; Function compile flags: /Ogtpy
; File c:\users\alist_000\cppmisc\packages\visualcpptools.14.0.24224-pre\lib\native\include\streambuf
;	COMDAT ?sputn@?$basic_streambuf@DU?$char_traits@D@std@@@std@@QEAA_JPEBD_J@Z
_TEXT	SEGMENT
this$ = 8
_Ptr$dead$ = 16
_Count$ = 24
?sputn@?$basic_streambuf@DU?$char_traits@D@std@@@std@@QEAA_JPEBD_J@Z PROC ; std::basic_streambuf<char,std::char_traits<char> >::sputn, COMDAT

; 208  : 		return (xsputn(_Ptr, _Count));

  00000	48 8b 01	 mov	 rax, QWORD PTR [rcx]
  00003	48 8d 15 00 00
	00 00		 lea	 rdx, OFFSET FLAT:$SG4294967239
  0000a	48 ff 60 48	 rex_jmp QWORD PTR [rax+72]
?sputn@?$basic_streambuf@DU?$char_traits@D@std@@@std@@QEAA_JPEBD_J@Z ENDP ; std::basic_streambuf<char,std::char_traits<char> >::sputn
_TEXT	ENDS
; Function compile flags: /Ogtpy
; File c:\users\alist_000\cppmisc\packages\visualcpptools.14.0.24224-pre\lib\native\include\streambuf
; File c:\users\alist_000\cppmisc\packages\visualcpptools.14.0.24224-pre\lib\native\include\iosfwd
; File c:\users\alist_000\cppmisc\packages\visualcpptools.14.0.24224-pre\lib\native\include\streambuf
; File c:\users\alist_000\cppmisc\packages\visualcpptools.14.0.24224-pre\lib\native\include\iosfwd
; File c:\users\alist_000\cppmisc\packages\visualcpptools.14.0.24224-pre\lib\native\include\streambuf
;	COMDAT ?sputc@?$basic_streambuf@DU?$char_traits@D@std@@@std@@QEAAHD@Z
_TEXT	SEGMENT
this$ = 8
_Ch$ = 16
?sputc@?$basic_streambuf@DU?$char_traits@D@std@@@std@@QEAAHD@Z PROC ; std::basic_streambuf<char,std::char_traits<char> >::sputc, COMDAT

; 314  : 		return (*_IPnext != 0 ? *_IPcount : 0);

  00000	48 8b 41 40	 mov	 rax, QWORD PTR [rcx+64]

; 199  : 		{	// put a character

  00004	44 0f b6 c2	 movzx	 r8d, dl

; 314  : 		return (*_IPnext != 0 ? *_IPcount : 0);

  00008	48 83 38 00	 cmp	 QWORD PTR [rax], 0
  0000c	74 24		 je	 SHORT $LN3@sputc
  0000e	48 8b 51 58	 mov	 rdx, QWORD PTR [rcx+88]
  00012	8b 02		 mov	 eax, DWORD PTR [rdx]

; 200  : 		return (0 < _Pnavail()

  00014	85 c0		 test	 eax, eax
  00016	7e 1a		 jle	 SHORT $LN3@sputc

; 308  : 		--*_IPcount;

  00018	ff c8		 dec	 eax
  0001a	89 02		 mov	 DWORD PTR [rdx], eax

; 309  : 		return ((*_IPnext)++);

  0001c	48 8b 49 40	 mov	 rcx, QWORD PTR [rcx+64]
  00020	48 8b 11	 mov	 rdx, QWORD PTR [rcx]
  00023	48 8d 42 01	 lea	 rax, QWORD PTR [rdx+1]
  00027	48 89 01	 mov	 QWORD PTR [rcx], rax

; 200  : 		return (0 < _Pnavail()

  0002a	44 88 02	 mov	 BYTE PTR [rdx], r8b
; File c:\users\alist_000\cppmisc\packages\visualcpptools.14.0.24224-pre\lib\native\include\iosfwd

; 589  : 		return ((unsigned char)_Ch);

  0002d	41 0f b6 c0	 movzx	 eax, r8b
; File c:\users\alist_000\cppmisc\packages\visualcpptools.14.0.24224-pre\lib\native\include\streambuf

; 203  : 		}

  00031	c3		 ret	 0
$LN3@sputc:

; 200  : 		return (0 < _Pnavail()

  00032	48 8b 01	 mov	 rax, QWORD PTR [rcx]
; File c:\users\alist_000\cppmisc\packages\visualcpptools.14.0.24224-pre\lib\native\include\iosfwd

; 589  : 		return ((unsigned char)_Ch);

  00035	41 0f b6 d0	 movzx	 edx, r8b
; File c:\users\alist_000\cppmisc\packages\visualcpptools.14.0.24224-pre\lib\native\include\streambuf

; 200  : 		return (0 < _Pnavail()

  00039	48 ff 60 18	 rex_jmp QWORD PTR [rax+24]
?sputc@?$basic_streambuf@DU?$char_traits@D@std@@@std@@QEAAHD@Z ENDP ; std::basic_streambuf<char,std::char_traits<char> >::sputc
_TEXT	ENDS
; Function compile flags: /Ogtpy
; File c:\users\alist_000\cppmisc\packages\visualcpptools.14.0.24224-pre\lib\native\include\ios
; File c:\users\alist_000\cppmisc\packages\visualcpptools.14.0.24224-pre\lib\native\include\xlocale
; File c:\users\alist_000\cppmisc\packages\visualcpptools.14.0.24224-pre\lib\native\include\ios
; File c:\users\alist_000\cppmisc\packages\visualcpptools.14.0.24224-pre\lib\native\include\xlocale
; File c:\users\alist_000\cppmisc\packages\visualcpptools.14.0.24224-pre\lib\native\include\ios
;	COMDAT ?widen@?$basic_ios@DU?$char_traits@D@std@@@std@@QEBADD@Z
_TEXT	SEGMENT
$T1 = 32
$T2 = 40
this$ = 80
_Byte$ = 88
?widen@?$basic_ios@DU?$char_traits@D@std@@@std@@QEBADD@Z PROC ; std::basic_ios<char,std::char_traits<char> >::widen, COMDAT

; 130  : 		{	// convert _Byte to character using imbued locale

$LN16:
  00000	40 57		 push	 rdi
  00002	48 83 ec 40	 sub	 rsp, 64			; 00000040H
  00006	48 c7 44 24 20
	fe ff ff ff	 mov	 QWORD PTR $T1[rsp], -2
  0000f	48 89 5c 24 50	 mov	 QWORD PTR [rsp+80], rbx
  00014	0f b6 da	 movzx	 ebx, dl

; 131  : 		const _Ctype& _Ctype_fac = _USE(getloc(), _Ctype);

  00017	48 8d 54 24 28	 lea	 rdx, QWORD PTR $T2[rsp]
  0001c	e8 00 00 00 00	 call	 ?getloc@ios_base@std@@QEBA?AVlocale@2@XZ ; std::ios_base::getloc
  00021	90		 npad	 1
  00022	48 8b c8	 mov	 rcx, rax
  00025	e8 00 00 00 00	 call	 ??$use_facet@V?$ctype@D@std@@@std@@YAAEBV?$ctype@D@0@AEBVlocale@0@@Z ; std::use_facet<std::ctype<char> >
  0002a	48 8b f8	 mov	 rdi, rax
; File c:\users\alist_000\cppmisc\packages\visualcpptools.14.0.24224-pre\lib\native\include\xlocale

; 431  : 		if (_Ptr != 0)

  0002d	48 8b 4c 24 30	 mov	 rcx, QWORD PTR $T2[rsp+8]
  00032	48 85 c9	 test	 rcx, rcx
  00035	74 1a		 je	 SHORT $LN7@widen

; 432  : 			delete _Ptr->_Decref();

  00037	48 8b 11	 mov	 rdx, QWORD PTR [rcx]
  0003a	ff 52 10	 call	 QWORD PTR [rdx+16]
  0003d	48 85 c0	 test	 rax, rax
  00040	74 0f		 je	 SHORT $LN7@widen
  00042	4c 8b 00	 mov	 r8, QWORD PTR [rax]
  00045	ba 01 00 00 00	 mov	 edx, 1
  0004a	48 8b c8	 mov	 rcx, rax
  0004d	41 ff 10	 call	 QWORD PTR [r8]
  00050	90		 npad	 1
$LN7@widen:
  00051	48 8b 07	 mov	 rax, QWORD PTR [rdi]
  00054	48 8d 0d 00 00
	00 00		 lea	 rcx, OFFSET FLAT:??_7?$ctype@D@std@@6B@
  0005b	48 3b c1	 cmp	 rax, rcx
  0005e	75 05		 jne	 SHORT $LN13@widen
; File c:\users\alist_000\cppmisc\packages\visualcpptools.14.0.24224-pre\lib\native\include\ios

; 132  : 		return (_Ctype_fac.widen(_Byte));

  00060	0f b6 c3	 movzx	 eax, bl
  00063	eb 09		 jmp	 SHORT $LN12@widen
$LN13@widen:
  00065	0f b6 d3	 movzx	 edx, bl
  00068	48 8b cf	 mov	 rcx, rdi
; File c:\users\alist_000\cppmisc\packages\visualcpptools.14.0.24224-pre\lib\native\include\xlocale

; 2416 : 		return (do_widen(_Byte));

  0006b	ff 50 40	 call	 QWORD PTR [rax+64]
$LN12@widen:
; File c:\users\alist_000\cppmisc\packages\visualcpptools.14.0.24224-pre\lib\native\include\ios

; 133  : 		}

  0006e	48 8b 5c 24 50	 mov	 rbx, QWORD PTR [rsp+80]
  00073	48 83 c4 40	 add	 rsp, 64			; 00000040H
  00077	5f		 pop	 rdi
  00078	c3		 ret	 0
?widen@?$basic_ios@DU?$char_traits@D@std@@@std@@QEBADD@Z ENDP ; std::basic_ios<char,std::char_traits<char> >::widen
_TEXT	ENDS
;	COMDAT text$x
text$x	SEGMENT
$T1 = 32
$T2 = 40
this$ = 80
_Byte$ = 88
?dtor$0@?0??widen@?$basic_ios@DU?$char_traits@D@std@@@std@@QEBADD@Z@4HA PROC ; `std::basic_ios<char,std::char_traits<char> >::widen'::`1'::dtor$0
  00000	48 8d 8a 28 00
	00 00		 lea	 rcx, QWORD PTR $T2[rdx]
  00007	e9 00 00 00 00	 jmp	 ??1locale@std@@QEAA@XZ	; std::locale::~locale
?dtor$0@?0??widen@?$basic_ios@DU?$char_traits@D@std@@@std@@QEBADD@Z@4HA ENDP ; `std::basic_ios<char,std::char_traits<char> >::widen'::`1'::dtor$0
text$x	ENDS
; Function compile flags: /Ogtpy
;	COMDAT text$x
text$x	SEGMENT
$T1 = 32
$T2 = 40
this$ = 80
_Byte$ = 88
?dtor$0@?0??widen@?$basic_ios@DU?$char_traits@D@std@@@std@@QEBADD@Z@4HA PROC ; `std::basic_ios<char,std::char_traits<char> >::widen'::`1'::dtor$0
  00000	48 8d 8a 28 00
	00 00		 lea	 rcx, QWORD PTR $T2[rdx]
  00007	e9 00 00 00 00	 jmp	 ??1locale@std@@QEAA@XZ	; std::locale::~locale
?dtor$0@?0??widen@?$basic_ios@DU?$char_traits@D@std@@@std@@QEBADD@Z@4HA ENDP ; `std::basic_ios<char,std::char_traits<char> >::widen'::`1'::dtor$0
text$x	ENDS
; Function compile flags: /Ogtpy
; File c:\users\alist_000\cppmisc\packages\visualcpptools.14.0.24224-pre\lib\native\include\ios
;	COMDAT ?fill@?$basic_ios@DU?$char_traits@D@std@@@std@@QEBADXZ
_TEXT	SEGMENT
this$ = 8
?fill@?$basic_ios@DU?$char_traits@D@std@@@std@@QEBADXZ PROC ; std::basic_ios<char,std::char_traits<char> >::fill, COMDAT

; 113  : 		return (_Fillch);

  00000	0f b6 41 58	 movzx	 eax, BYTE PTR [rcx+88]

; 114  : 		}

  00004	c3		 ret	 0
?fill@?$basic_ios@DU?$char_traits@D@std@@@std@@QEBADXZ ENDP ; std::basic_ios<char,std::char_traits<char> >::fill
_TEXT	ENDS
; Function compile flags: /Ogtpy
; File c:\users\alist_000\cppmisc\packages\visualcpptools.14.0.24224-pre\lib\native\include\ios
;	COMDAT ?rdbuf@?$basic_ios@DU?$char_traits@D@std@@@std@@QEBAPEAV?$basic_streambuf@DU?$char_traits@D@std@@@2@XZ
_TEXT	SEGMENT
this$ = 8
?rdbuf@?$basic_ios@DU?$char_traits@D@std@@@std@@QEBAPEAV?$basic_streambuf@DU?$char_traits@D@std@@@2@XZ PROC ; std::basic_ios<char,std::char_traits<char> >::rdbuf, COMDAT

; 92   : 		return (_Mystrbuf);

  00000	48 8b 41 48	 mov	 rax, QWORD PTR [rcx+72]

; 93   : 		}

  00004	c3		 ret	 0
?rdbuf@?$basic_ios@DU?$char_traits@D@std@@@std@@QEBAPEAV?$basic_streambuf@DU?$char_traits@D@std@@@2@XZ ENDP ; std::basic_ios<char,std::char_traits<char> >::rdbuf
_TEXT	ENDS
; Function compile flags: /Ogtpy
; File c:\users\alist_000\cppmisc\packages\visualcpptools.14.0.24224-pre\lib\native\include\ios
;	COMDAT ?setstate@?$basic_ios@DU?$char_traits@D@std@@@std@@QEAAXH_N@Z
_TEXT	SEGMENT
this$ = 8
_State$ = 16
_Reraise$ = 24
?setstate@?$basic_ios@DU?$char_traits@D@std@@@std@@QEAAXH_N@Z PROC ; std::basic_ios<char,std::char_traits<char> >::setstate, COMDAT

; 59   : 		if (_State != goodbit)

  00000	85 d2		 test	 edx, edx
  00002	74 17		 je	 SHORT $LN2@setstate

; 60   : 			clear((iostate)((int)rdstate() | (int)_State), _Reraise);

  00004	8b 41 10	 mov	 eax, DWORD PTR [rcx+16]
  00007	0b c2		 or	 eax, edx
  00009	8b d0		 mov	 edx, eax
  0000b	83 ca 04	 or	 edx, 4
  0000e	48 83 79 48 00	 cmp	 QWORD PTR [rcx+72], 0
  00013	0f 45 d0	 cmovne	 edx, eax

; 45   : 		ios_base::clear((iostate)(_Mystrbuf == 0

  00016	e9 00 00 00 00	 jmp	 ?clear@ios_base@std@@QEAAXH_N@Z ; std::ios_base::clear
$LN2@setstate:

; 61   : 		}

  0001b	c3		 ret	 0
?setstate@?$basic_ios@DU?$char_traits@D@std@@@std@@QEAAXH_N@Z ENDP ; std::basic_ios<char,std::char_traits<char> >::setstate
_TEXT	ENDS
; Function compile flags: /Ogtpy
; File c:\users\alist_000\cppmisc\packages\visualcpptools.14.0.24224-pre\lib\native\include\ostream
;	COMDAT ??1_Sentry_base@?$basic_ostream@DU?$char_traits@D@std@@@std@@QEAA@XZ
_TEXT	SEGMENT
$T1 = 32
this$ = 64
??1_Sentry_base@?$basic_ostream@DU?$char_traits@D@std@@@std@@QEAA@XZ PROC ; std::basic_ostream<char,std::char_traits<char> >::_Sentry_base::~_Sentry_base, COMDAT

; 106  : 			{	// destroy after unlocking

$LN8:
  00000	48 83 ec 38	 sub	 rsp, 56			; 00000038H
  00004	48 c7 44 24 20
	fe ff ff ff	 mov	 QWORD PTR $T1[rsp], -2

; 107  : 			if (_Myostr.rdbuf() != 0)

  0000d	48 8b 11	 mov	 rdx, QWORD PTR [rcx]
  00010	48 8b 02	 mov	 rax, QWORD PTR [rdx]
  00013	48 63 48 04	 movsxd	 rcx, DWORD PTR [rax+4]
  00017	48 8b 4c 11 48	 mov	 rcx, QWORD PTR [rcx+rdx+72]
  0001c	48 85 c9	 test	 rcx, rcx
  0001f	74 07		 je	 SHORT $LN2@Sentry_bas

; 108  : 				_Myostr.rdbuf()->_Unlock();

  00021	48 8b 01	 mov	 rax, QWORD PTR [rcx]
  00024	ff 50 10	 call	 QWORD PTR [rax+16]
  00027	90		 npad	 1
$LN2@Sentry_bas:

; 109  : 			}

  00028	48 83 c4 38	 add	 rsp, 56			; 00000038H
  0002c	c3		 ret	 0
??1_Sentry_base@?$basic_ostream@DU?$char_traits@D@std@@@std@@QEAA@XZ ENDP ; std::basic_ostream<char,std::char_traits<char> >::_Sentry_base::~_Sentry_base
_TEXT	ENDS
; Function compile flags: /Ogtpy
; File c:\users\alist_000\cppmisc\packages\visualcpptools.14.0.24224-pre\lib\native\include\ostream
;	COMDAT ??0_Sentry_base@?$basic_ostream@DU?$char_traits@D@std@@@std@@QEAA@AEAV12@@Z
_TEXT	SEGMENT
this$ = 48
_Ostr$ = 56
??0_Sentry_base@?$basic_ostream@DU?$char_traits@D@std@@@std@@QEAA@AEAV12@@Z PROC ; std::basic_ostream<char,std::char_traits<char> >::_Sentry_base::_Sentry_base, COMDAT

; 100  : 			{	// lock the stream buffer, if there

$LN10:
  00000	40 53		 push	 rbx
  00002	48 83 ec 20	 sub	 rsp, 32			; 00000020H

; 99   : 			: _Myostr(_Ostr)

  00006	48 89 11	 mov	 QWORD PTR [rcx], rdx

; 100  : 			{	// lock the stream buffer, if there

  00009	48 8b d9	 mov	 rbx, rcx

; 101  : 			if (_Myostr.rdbuf() != 0)

  0000c	48 8b 02	 mov	 rax, QWORD PTR [rdx]
  0000f	4c 63 40 04	 movsxd	 r8, DWORD PTR [rax+4]
  00013	49 8b 4c 10 48	 mov	 rcx, QWORD PTR [r8+rdx+72]
  00018	48 85 c9	 test	 rcx, rcx
  0001b	74 06		 je	 SHORT $LN8@Sentry_bas

; 102  : 				_Myostr.rdbuf()->_Lock();

  0001d	48 8b 01	 mov	 rax, QWORD PTR [rcx]
  00020	ff 50 08	 call	 QWORD PTR [rax+8]
$LN8@Sentry_bas:

; 103  : 			}

  00023	48 8b c3	 mov	 rax, rbx
  00026	48 83 c4 20	 add	 rsp, 32			; 00000020H
  0002a	5b		 pop	 rbx
  0002b	c3		 ret	 0
??0_Sentry_base@?$basic_ostream@DU?$char_traits@D@std@@@std@@QEAA@AEAV12@@Z ENDP ; std::basic_ostream<char,std::char_traits<char> >::_Sentry_base::_Sentry_base
_TEXT	ENDS
; Function compile flags: /Ogtpy
; File c:\users\alist_000\cppmisc\packages\visualcpptools.14.0.24224-pre\lib\native\include\xstring
;	COMDAT ??0_Bxty@?$_String_val@U?$_Simple_types@D@std@@@std@@QEAA@XZ
_TEXT	SEGMENT
this$ = 8
??0_Bxty@?$_String_val@U?$_Simple_types@D@std@@@std@@QEAA@XZ PROC ; std::_String_val<std::_Simple_types<char> >::_Bxty::_Bxty, COMDAT

; 524  : 			{	// user-provided, for fancy pointers
; 525  : 			}

  00000	48 8b c1	 mov	 rax, rcx
  00003	c3		 ret	 0
??0_Bxty@?$_String_val@U?$_Simple_types@D@std@@@std@@QEAA@XZ ENDP ; std::_String_val<std::_Simple_types<char> >::_Bxty::_Bxty
_TEXT	ENDS
; Function compile flags: /Ogtpy
; File c:\users\alist_000\cppmisc\packages\visualcpptools.14.0.24224-pre\lib\native\include\xmemory0
;	COMDAT ??0?$allocator@D@std@@QEAA@XZ
_TEXT	SEGMENT
this$ = 8
??0?$allocator@D@std@@QEAA@XZ PROC			; std::allocator<char>::allocator<char>, COMDAT

; 700  : 		{	// construct default allocator (do nothing)
; 701  : 		}

  00000	48 8b c1	 mov	 rax, rcx
  00003	c3		 ret	 0
??0?$allocator@D@std@@QEAA@XZ ENDP			; std::allocator<char>::allocator<char>
_TEXT	ENDS
; Function compile flags: /Ogtpy
; File c:\users\alist_000\cppmisc\packages\visualcpptools.14.0.24224-pre\lib\native\include\ostream
; File c:\users\alist_000\cppmisc\packages\visualcpptools.14.0.24224-pre\lib\native\include\xiosbase
; File c:\users\alist_000\cppmisc\packages\visualcpptools.14.0.24224-pre\lib\native\include\ostream
; File c:\users\alist_000\cppmisc\packages\visualcpptools.14.0.24224-pre\lib\native\include\ios
; File c:\users\alist_000\cppmisc\packages\visualcpptools.14.0.24224-pre\lib\native\include\streambuf
; File c:\users\alist_000\cppmisc\packages\visualcpptools.14.0.24224-pre\lib\native\include\ostream
; File c:\users\alist_000\cppmisc\packages\visualcpptools.14.0.24224-pre\lib\native\include\ios
; File c:\users\alist_000\cppmisc\packages\visualcpptools.14.0.24224-pre\lib\native\include\ostream
;	COMDAT ?_Osfx@?$basic_ostream@DU?$char_traits@D@std@@@std@@QEAAXXZ
_TEXT	SEGMENT
$T1 = 32
this$ = 64
?_Osfx@?$basic_ostream@DU?$char_traits@D@std@@@std@@QEAAXXZ PROC ; std::basic_ostream<char,std::char_traits<char> >::_Osfx, COMDAT

; 165  : 		{	// perform any wrapup

$LN30:
  00000	40 53		 push	 rbx
  00002	48 83 ec 30	 sub	 rsp, 48			; 00000030H
  00006	48 c7 44 24 20
	fe ff ff ff	 mov	 QWORD PTR $T1[rsp], -2
  0000f	48 8b d9	 mov	 rbx, rcx

; 167  : 		if (this->good() && this->flags() & ios_base::unitbuf)

  00012	48 8b 01	 mov	 rax, QWORD PTR [rcx]
  00015	48 63 50 04	 movsxd	 rdx, DWORD PTR [rax+4]
; File c:\users\alist_000\cppmisc\packages\visualcpptools.14.0.24224-pre\lib\native\include\xiosbase

; 339  : 		return (rdstate() == goodbit);

  00019	83 7c 0a 10 00	 cmp	 DWORD PTR [rdx+rcx+16], 0
; File c:\users\alist_000\cppmisc\packages\visualcpptools.14.0.24224-pre\lib\native\include\ostream

; 167  : 		if (this->good() && this->flags() & ios_base::unitbuf)

  0001e	75 3c		 jne	 SHORT $LN21@Osfx
  00020	f6 44 0a 18 02	 test	 BYTE PTR [rdx+rcx+24], 2
  00025	74 35		 je	 SHORT $LN21@Osfx
; File c:\users\alist_000\cppmisc\packages\visualcpptools.14.0.24224-pre\lib\native\include\ios

; 92   : 		return (_Mystrbuf);

  00027	48 8b 4c 0a 48	 mov	 rcx, QWORD PTR [rdx+rcx+72]
; File c:\users\alist_000\cppmisc\packages\visualcpptools.14.0.24224-pre\lib\native\include\streambuf

; 145  : 		return (sync());

  0002c	48 8b 01	 mov	 rax, QWORD PTR [rcx]
  0002f	ff 50 68	 call	 QWORD PTR [rax+104]
; File c:\users\alist_000\cppmisc\packages\visualcpptools.14.0.24224-pre\lib\native\include\ostream

; 168  : 			if (_Myios::rdbuf()->pubsync() == -1)	// flush stream as needed

  00032	83 f8 ff	 cmp	 eax, -1
  00035	75 25		 jne	 SHORT $LN21@Osfx

; 169  : 				_Myios::setstate(ios_base::badbit);

  00037	48 8b 03	 mov	 rax, QWORD PTR [rbx]
  0003a	48 63 48 04	 movsxd	 rcx, DWORD PTR [rax+4]
  0003e	48 03 cb	 add	 rcx, rbx
; File c:\users\alist_000\cppmisc\packages\visualcpptools.14.0.24224-pre\lib\native\include\ios

; 60   : 			clear((iostate)((int)rdstate() | (int)_State), _Reraise);

  00041	8b 51 10	 mov	 edx, DWORD PTR [rcx+16]
  00044	83 ca 04	 or	 edx, 4
  00047	48 83 79 48 00	 cmp	 QWORD PTR [rcx+72], 0
  0004c	0f 45 51 10	 cmovne	 edx, DWORD PTR [rcx+16]
  00050	83 ca 04	 or	 edx, 4

; 45   : 		ios_base::clear((iostate)(_Mystrbuf == 0

  00053	45 33 c0	 xor	 r8d, r8d
  00056	e8 00 00 00 00	 call	 ?clear@ios_base@std@@QEAAXH_N@Z ; std::ios_base::clear
  0005b	90		 npad	 1
$LN21@Osfx:
$LN9@Osfx:
; File c:\users\alist_000\cppmisc\packages\visualcpptools.14.0.24224-pre\lib\native\include\ostream

; 172  : 		}

  0005c	48 83 c4 30	 add	 rsp, 48			; 00000030H
  00060	5b		 pop	 rbx
  00061	c3		 ret	 0
?_Osfx@?$basic_ostream@DU?$char_traits@D@std@@@std@@QEAAXXZ ENDP ; std::basic_ostream<char,std::char_traits<char> >::_Osfx
_TEXT	ENDS
;	COMDAT text$x
text$x	SEGMENT
$T1 = 32
this$ = 64
?catch$0@?0??_Osfx@?$basic_ostream@DU?$char_traits@D@std@@@std@@QEAAXXZ@4HA PROC ; `std::basic_ostream<char,std::char_traits<char> >::_Osfx'::`1'::catch$0

; 170  : 		_CATCH_ALL

  00000	48 89 54 24 10	 mov	 QWORD PTR [rsp+16], rdx
  00005	55		 push	 rbp
  00006	48 83 ec 20	 sub	 rsp, 32			; 00000020H
  0000a	48 8b ea	 mov	 rbp, rdx
__catch$?_Osfx@?$basic_ostream@DU?$char_traits@D@std@@@std@@QEAAXXZ$0:

; 170  : 		_CATCH_ALL
; 171  : 		_CATCH_END

  0000d	48 8d 05 00 00
	00 00		 lea	 rax, $LN9@catch$0
  00014	48 83 c4 20	 add	 rsp, 32			; 00000020H
  00018	5d		 pop	 rbp
  00019	c3		 ret	 0
  0001a	cc		 int	 3
?catch$0@?0??_Osfx@?$basic_ostream@DU?$char_traits@D@std@@@std@@QEAAXXZ@4HA ENDP ; `std::basic_ostream<char,std::char_traits<char> >::_Osfx'::`1'::catch$0
text$x	ENDS
; Function compile flags: /Ogtpy
;	COMDAT text$x
text$x	SEGMENT
$T1 = 32
this$ = 64
?catch$0@?0??_Osfx@?$basic_ostream@DU?$char_traits@D@std@@@std@@QEAAXXZ@4HA PROC ; `std::basic_ostream<char,std::char_traits<char> >::_Osfx'::`1'::catch$0

; 170  : 		_CATCH_ALL

  00000	48 89 54 24 10	 mov	 QWORD PTR [rsp+16], rdx
  00005	55		 push	 rbp
  00006	48 83 ec 20	 sub	 rsp, 32			; 00000020H
  0000a	48 8b ea	 mov	 rbp, rdx
__catch$?_Osfx@?$basic_ostream@DU?$char_traits@D@std@@@std@@QEAAXXZ$0:

; 171  : 		_CATCH_END

  0000d	48 8d 05 00 00
	00 00		 lea	 rax, $LN9@catch$0
  00014	48 83 c4 20	 add	 rsp, 32			; 00000020H
  00018	5d		 pop	 rbp
  00019	c3		 ret	 0
  0001a	cc		 int	 3
?catch$0@?0??_Osfx@?$basic_ostream@DU?$char_traits@D@std@@@std@@QEAAXXZ@4HA ENDP ; `std::basic_ostream<char,std::char_traits<char> >::_Osfx'::`1'::catch$0
text$x	ENDS
; Function compile flags: /Ogtpy
; File c:\users\alist_000\cppmisc\packages\visualcpptools.14.0.24224-pre\lib\native\include\streambuf
;	COMDAT ?_Pnavail@?$basic_streambuf@DU?$char_traits@D@std@@@std@@IEBA_JXZ
_TEXT	SEGMENT
this$ = 8
?_Pnavail@?$basic_streambuf@DU?$char_traits@D@std@@@std@@IEBA_JXZ PROC ; std::basic_streambuf<char,std::char_traits<char> >::_Pnavail, COMDAT

; 314  : 		return (*_IPnext != 0 ? *_IPcount : 0);

  00000	48 8b 41 40	 mov	 rax, QWORD PTR [rcx+64]
  00004	48 83 38 00	 cmp	 QWORD PTR [rax], 0
  00008	74 08		 je	 SHORT $LN3@Pnavail
  0000a	48 8b 41 58	 mov	 rax, QWORD PTR [rcx+88]
  0000e	48 63 00	 movsxd	 rax, DWORD PTR [rax]

; 315  : 		}

  00011	c3		 ret	 0
$LN3@Pnavail:

; 314  : 		return (*_IPnext != 0 ? *_IPcount : 0);

  00012	33 c0		 xor	 eax, eax
  00014	48 98		 cdqe

; 315  : 		}

  00016	c3		 ret	 0
?_Pnavail@?$basic_streambuf@DU?$char_traits@D@std@@@std@@IEBA_JXZ ENDP ; std::basic_streambuf<char,std::char_traits<char> >::_Pnavail
_TEXT	ENDS
; Function compile flags: /Ogtpy
; File c:\users\alist_000\cppmisc\packages\visualcpptools.14.0.24224-pre\lib\native\include\streambuf
;	COMDAT ?_Pninc@?$basic_streambuf@DU?$char_traits@D@std@@@std@@IEAAPEADXZ
_TEXT	SEGMENT
this$ = 8
?_Pninc@?$basic_streambuf@DU?$char_traits@D@std@@@std@@IEAAPEADXZ PROC ; std::basic_streambuf<char,std::char_traits<char> >::_Pninc, COMDAT

; 308  : 		--*_IPcount;

  00000	48 8b 41 58	 mov	 rax, QWORD PTR [rcx+88]
  00004	ff 08		 dec	 DWORD PTR [rax]

; 309  : 		return ((*_IPnext)++);

  00006	48 8b 51 40	 mov	 rdx, QWORD PTR [rcx+64]
  0000a	48 8b 02	 mov	 rax, QWORD PTR [rdx]
  0000d	48 8d 48 01	 lea	 rcx, QWORD PTR [rax+1]
  00011	48 89 0a	 mov	 QWORD PTR [rdx], rcx

; 310  : 		}

  00014	c3		 ret	 0
?_Pninc@?$basic_streambuf@DU?$char_traits@D@std@@@std@@IEAAPEADXZ ENDP ; std::basic_streambuf<char,std::char_traits<char> >::_Pninc
_TEXT	ENDS
; Function compile flags: /Ogtpy
; File c:\users\alist_000\cppmisc\packages\visualcpptools.14.0.24224-pre\lib\native\include\streambuf
;	COMDAT ?pubsync@?$basic_streambuf@DU?$char_traits@D@std@@@std@@QEAAHXZ
_TEXT	SEGMENT
this$ = 8
?pubsync@?$basic_streambuf@DU?$char_traits@D@std@@@std@@QEAAHXZ PROC ; std::basic_streambuf<char,std::char_traits<char> >::pubsync, COMDAT

; 145  : 		return (sync());

  00000	48 8b 01	 mov	 rax, QWORD PTR [rcx]
  00003	48 ff 60 68	 rex_jmp QWORD PTR [rax+104]
?pubsync@?$basic_streambuf@DU?$char_traits@D@std@@@std@@QEAAHXZ ENDP ; std::basic_streambuf<char,std::char_traits<char> >::pubsync
_TEXT	ENDS
; Function compile flags: /Ogtpy
; File c:\users\alist_000\cppmisc\packages\visualcpptools.14.0.24224-pre\lib\native\include\ios
;	COMDAT ?tie@?$basic_ios@DU?$char_traits@D@std@@@std@@QEBAPEAV?$basic_ostream@DU?$char_traits@D@std@@@2@XZ
_TEXT	SEGMENT
this$ = 8
?tie@?$basic_ios@DU?$char_traits@D@std@@@std@@QEBAPEAV?$basic_ostream@DU?$char_traits@D@std@@@2@XZ PROC ; std::basic_ios<char,std::char_traits<char> >::tie, COMDAT

; 80   : 		return (_Tiestr);

  00000	48 8b 41 50	 mov	 rax, QWORD PTR [rcx+80]

; 81   : 		}

  00004	c3		 ret	 0
?tie@?$basic_ios@DU?$char_traits@D@std@@@std@@QEBAPEAV?$basic_ostream@DU?$char_traits@D@std@@@2@XZ ENDP ; std::basic_ios<char,std::char_traits<char> >::tie
_TEXT	ENDS
; Function compile flags: /Ogtpy
; File c:\users\alist_000\cppmisc\packages\visualcpptools.14.0.24224-pre\lib\native\include\ios
;	COMDAT ?clear@?$basic_ios@DU?$char_traits@D@std@@@std@@QEAAXH_N@Z
_TEXT	SEGMENT
this$ = 8
_State$ = 16
_Reraise$ = 24
?clear@?$basic_ios@DU?$char_traits@D@std@@@std@@QEAAXH_N@Z PROC ; std::basic_ios<char,std::char_traits<char> >::clear, COMDAT

; 44   : 		{	// set state, possibly reraise exception

  00000	8b c2		 mov	 eax, edx
  00002	83 ca 04	 or	 edx, 4
  00005	48 83 79 48 00	 cmp	 QWORD PTR [rcx+72], 0
  0000a	0f 45 d0	 cmovne	 edx, eax

; 45   : 		ios_base::clear((iostate)(_Mystrbuf == 0

  0000d	e9 00 00 00 00	 jmp	 ?clear@ios_base@std@@QEAAXH_N@Z ; std::ios_base::clear
?clear@?$basic_ios@DU?$char_traits@D@std@@@std@@QEAAXH_N@Z ENDP ; std::basic_ios<char,std::char_traits<char> >::clear
_TEXT	ENDS
; Function compile flags: /Ogtpy
; File c:\users\alist_000\cppmisc\packages\visualcpptools.14.0.24224-pre\lib\native\include\type_traits
;	COMDAT ??$forward@U?$_Wrap_alloc@V?$allocator@D@std@@@std@@@std@@YA$$QEAU?$_Wrap_alloc@V?$allocator@D@std@@@0@AEAU10@@Z
_TEXT	SEGMENT
_Arg$ = 8
??$forward@U?$_Wrap_alloc@V?$allocator@D@std@@@std@@@std@@YA$$QEAU?$_Wrap_alloc@V?$allocator@D@std@@@0@AEAU10@@Z PROC ; std::forward<std::_Wrap_alloc<std::allocator<char> > >, COMDAT

; 1279 : 	return (static_cast<_Ty&&>(_Arg));

  00000	48 8b c1	 mov	 rax, rcx

; 1280 : 	}

  00003	c3		 ret	 0
??$forward@U?$_Wrap_alloc@V?$allocator@D@std@@@std@@@std@@YA$$QEAU?$_Wrap_alloc@V?$allocator@D@std@@@0@AEAU10@@Z ENDP ; std::forward<std::_Wrap_alloc<std::allocator<char> > >
_TEXT	ENDS
; Function compile flags: /Ogtpy
; File c:\users\alist_000\cppmisc\packages\visualcpptools.14.0.24224-pre\lib\native\include\xutility
; File c:\users\alist_000\cppmisc\packages\visualcpptools.14.0.24224-pre\lib\native\include\xstring
; File c:\users\alist_000\cppmisc\packages\visualcpptools.14.0.24224-pre\lib\native\include\xutility
;	COMDAT ??$?0U?$_Wrap_alloc@V?$allocator@D@std@@@std@@$$V@?$_Compressed_pair@U?$_Wrap_alloc@V?$allocator@D@std@@@std@@V?$_String_val@U?$_Simple_types@D@std@@@2@$00@std@@QEAA@U_One_then_variadic_args_t@1@$$QEAU?$_Wrap_alloc@V?$allocator@D@std@@@1@@Z
_TEXT	SEGMENT
this$ = 8
__formal$ = 16
_Val1$ = 24
??$?0U?$_Wrap_alloc@V?$allocator@D@std@@@std@@$$V@?$_Compressed_pair@U?$_Wrap_alloc@V?$allocator@D@std@@@std@@V?$_String_val@U?$_Simple_types@D@std@@@2@$00@std@@QEAA@U_One_then_variadic_args_t@1@$$QEAU?$_Wrap_alloc@V?$allocator@D@std@@@1@@Z PROC ; std::_Compressed_pair<std::_Wrap_alloc<std::allocator<char> >,std::_String_val<std::_Simple_types<char> >,1>::_Compressed_pair<std::_Wrap_alloc<std::allocator<char> >,std::_String_val<std::_Simple_types<char> >,1><std::_Wrap_alloc<std::allocator<char> > >, COMDAT
; File c:\users\alist_000\cppmisc\packages\visualcpptools.14.0.24224-pre\lib\native\include\xstring

; 491  : 		_Mysize(0),

  00000	33 c0		 xor	 eax, eax
  00002	48 89 41 10	 mov	 QWORD PTR [rcx+16], rax

; 492  : 		_Myres(0)

  00006	48 89 41 18	 mov	 QWORD PTR [rcx+24], rax
; File c:\users\alist_000\cppmisc\packages\visualcpptools.14.0.24224-pre\lib\native\include\xutility

; 295  : 		}

  0000a	48 8b c1	 mov	 rax, rcx
  0000d	c3		 ret	 0
??$?0U?$_Wrap_alloc@V?$allocator@D@std@@@std@@$$V@?$_Compressed_pair@U?$_Wrap_alloc@V?$allocator@D@std@@@std@@V?$_String_val@U?$_Simple_types@D@std@@@2@$00@std@@QEAA@U_One_then_variadic_args_t@1@$$QEAU?$_Wrap_alloc@V?$allocator@D@std@@@1@@Z ENDP ; std::_Compressed_pair<std::_Wrap_alloc<std::allocator<char> >,std::_String_val<std::_Simple_types<char> >,1>::_Compressed_pair<std::_Wrap_alloc<std::allocator<char> >,std::_String_val<std::_Simple_types<char> >,1><std::_Wrap_alloc<std::allocator<char> > >
_TEXT	ENDS
; Function compile flags: /Ogtpy
; File c:\users\alist_000\cppmisc\packages\visualcpptools.14.0.24224-pre\lib\native\include\type_traits
;	COMDAT ??$forward@V?$allocator@D@std@@@std@@YA$$QEAV?$allocator@D@0@AEAV10@@Z
_TEXT	SEGMENT
_Arg$ = 8
??$forward@V?$allocator@D@std@@@std@@YA$$QEAV?$allocator@D@0@AEAV10@@Z PROC ; std::forward<std::allocator<char> >, COMDAT

; 1279 : 	return (static_cast<_Ty&&>(_Arg));

  00000	48 8b c1	 mov	 rax, rcx

; 1280 : 	}

  00003	c3		 ret	 0
??$forward@V?$allocator@D@std@@@std@@YA$$QEAV?$allocator@D@0@AEAV10@@Z ENDP ; std::forward<std::allocator<char> >
_TEXT	ENDS
; Function compile flags: /Ogtpy
; File c:\users\alist_000\cppmisc\packages\visualcpptools.14.0.24224-pre\lib\native\include\xmemory0
;	COMDAT ??$destroy@PEAD@?$allocator_traits@V?$allocator@D@std@@@std@@SAXAEAV?$allocator@D@1@PEAPEAD@Z
_TEXT	SEGMENT
_Al$ = 8
_Ptr$ = 16
??$destroy@PEAD@?$allocator_traits@V?$allocator@D@std@@@std@@SAXAEAV?$allocator@D@1@PEAPEAD@Z PROC ; std::allocator_traits<std::allocator<char> >::destroy<char * __ptr64>, COMDAT

; 864  : 		_Al.destroy(_Ptr);
; 865  : 		}

  00000	c2 00 00	 ret	 0
??$destroy@PEAD@?$allocator_traits@V?$allocator@D@std@@@std@@SAXAEAV?$allocator@D@1@PEAPEAD@Z ENDP ; std::allocator_traits<std::allocator<char> >::destroy<char * __ptr64>
_TEXT	ENDS
; Function compile flags: /Ogtpy
; File c:\users\alist_000\cppmisc\packages\visualcpptools.14.0.24224-pre\lib\native\include\type_traits
;	COMDAT ??$forward@AEAPEAD@std@@YAAEAPEADAEAPEAD@Z
_TEXT	SEGMENT
_Arg$ = 8
??$forward@AEAPEAD@std@@YAAEAPEADAEAPEAD@Z PROC		; std::forward<char * __ptr64 & __ptr64>, COMDAT

; 1279 : 	return (static_cast<_Ty&&>(_Arg));

  00000	48 8b c1	 mov	 rax, rcx

; 1280 : 	}

  00003	c3		 ret	 0
??$forward@AEAPEAD@std@@YAAEAPEADAEAPEAD@Z ENDP		; std::forward<char * __ptr64 & __ptr64>
_TEXT	ENDS
; Function compile flags: /Ogtpy
; File c:\users\alist_000\cppmisc\packages\visualcpptools.14.0.24224-pre\lib\native\include\xmemory0
;	COMDAT ??$construct@PEADAEAPEAD@?$allocator_traits@V?$allocator@D@std@@@std@@SAXAEAV?$allocator@D@1@PEAPEADAEAPEAD@Z
_TEXT	SEGMENT
_Al$ = 8
_Ptr$ = 16
<_Args_0>$ = 24
??$construct@PEADAEAPEAD@?$allocator_traits@V?$allocator@D@std@@@std@@SAXAEAV?$allocator@D@1@PEAPEADAEAPEAD@Z PROC ; std::allocator_traits<std::allocator<char> >::construct<char * __ptr64,char * __ptr64 & __ptr64>, COMDAT

; 737  : 		::new ((void *)_Ptr) _Objty(_STD forward<_Types>(_Args)...);

  00000	48 85 d2	 test	 rdx, rdx
  00003	74 06		 je	 SHORT $LN8@construct
  00005	49 8b 00	 mov	 rax, QWORD PTR [r8]
  00008	48 89 02	 mov	 QWORD PTR [rdx], rax
$LN8@construct:

; 857  : 		_Al.construct(_Ptr, _STD forward<_Types>(_Args)...);
; 858  : 		}

  0000b	c3		 ret	 0
??$construct@PEADAEAPEAD@?$allocator_traits@V?$allocator@D@std@@@std@@SAXAEAV?$allocator@D@1@PEAPEADAEAPEAD@Z ENDP ; std::allocator_traits<std::allocator<char> >::construct<char * __ptr64,char * __ptr64 & __ptr64>
_TEXT	ENDS
; Function compile flags: /Ogtpy
; File c:\users\alist_000\cppmisc\packages\visualcpptools.14.0.24224-pre\lib\native\include\xmemory0
;	COMDAT ??0?$_Wrap_alloc@V?$allocator@D@std@@@std@@QEAA@$$QEAU01@@Z
_TEXT	SEGMENT
this$ = 8
_Right$ = 16
??0?$_Wrap_alloc@V?$allocator@D@std@@@std@@QEAA@$$QEAU01@@Z PROC ; std::_Wrap_alloc<std::allocator<char> >::_Wrap_alloc<std::allocator<char> >, COMDAT

; 947  : 		}

  00000	48 8b c1	 mov	 rax, rcx
  00003	c3		 ret	 0
??0?$_Wrap_alloc@V?$allocator@D@std@@@std@@QEAA@$$QEAU01@@Z ENDP ; std::_Wrap_alloc<std::allocator<char> >::_Wrap_alloc<std::allocator<char> >
_TEXT	ENDS
; Function compile flags: /Ogtpy
; File c:\users\alist_000\cppmisc\packages\visualcpptools.14.0.24224-pre\lib\native\include\xmemory0
;	COMDAT ??$destroy@PEAD@?$allocator@D@std@@QEAAXPEAPEAD@Z
_TEXT	SEGMENT
this$ = 8
_Ptr$ = 16
??$destroy@PEAD@?$allocator@D@std@@QEAAXPEAPEAD@Z PROC	; std::allocator<char>::destroy<char * __ptr64>, COMDAT

; 744  : 		_Ptr->~_Uty();
; 745  : 		}

  00000	c2 00 00	 ret	 0
??$destroy@PEAD@?$allocator@D@std@@QEAAXPEAPEAD@Z ENDP	; std::allocator<char>::destroy<char * __ptr64>
_TEXT	ENDS
; Function compile flags: /Ogtpy
; File c:\users\alist_000\cppmisc\packages\visualcpptools.14.0.24224-pre\lib\native\include\xmemory0
;	COMDAT ??$construct@PEADAEAPEAD@?$allocator@D@std@@QEAAXPEAPEADAEAPEAD@Z
_TEXT	SEGMENT
this$ = 8
_Ptr$ = 16
<_Args_0>$ = 24
??$construct@PEADAEAPEAD@?$allocator@D@std@@QEAAXPEAPEADAEAPEAD@Z PROC ; std::allocator<char>::construct<char * __ptr64,char * __ptr64 & __ptr64>, COMDAT

; 737  : 		::new ((void *)_Ptr) _Objty(_STD forward<_Types>(_Args)...);

  00000	48 85 d2	 test	 rdx, rdx
  00003	74 06		 je	 SHORT $LN3@construct
  00005	49 8b 00	 mov	 rax, QWORD PTR [r8]
  00008	48 89 02	 mov	 QWORD PTR [rdx], rax
$LN3@construct:

; 738  : 		}

  0000b	c3		 ret	 0
??$construct@PEADAEAPEAD@?$allocator@D@std@@QEAAXPEAPEADAEAPEAD@Z ENDP ; std::allocator<char>::construct<char * __ptr64,char * __ptr64 & __ptr64>
_TEXT	ENDS
END
