; Listing generated by Microsoft (R) Optimizing Compiler Version 19.00.23026.0 

include listing.inc

INCLUDELIB LIBCMT
INCLUDELIB OLDNAMES

PUBLIC	?__empty_global_delete@@YAXPEAX@Z		; __empty_global_delete
PUBLIC	?__empty_global_delete@@YAXPEAX_K@Z		; __empty_global_delete
PUBLIC	fabsl
PUBLIC	frexpl
PUBLIC	__local_stdio_printf_options
PUBLIC	??$__vcrt_va_start_verify_argument_type@QEBD@@YAXXZ ; __vcrt_va_start_verify_argument_type<char const * __ptr64 const>
PUBLIC	_vsprintf_s_l
PUBLIC	sprintf_s
PUBLIC	_MarkAllocaS
PUBLIC	_MallocaComputeSize
PUBLIC	_freea
PUBLIC	??0exception@std@@QEAA@QEBD@Z			; std::exception::exception
PUBLIC	??0exception@std@@QEAA@QEBDH@Z			; std::exception::exception
PUBLIC	??0exception@std@@QEAA@AEBV01@@Z		; std::exception::exception
PUBLIC	??1exception@std@@UEAA@XZ			; std::exception::~exception
PUBLIC	?what@exception@std@@UEBAPEBDXZ			; std::exception::what
PUBLIC	??_Gexception@std@@UEAAPEAXI@Z			; std::exception::`scalar deleting destructor'
PUBLIC	??0bad_alloc@std@@QEAA@XZ			; std::bad_alloc::bad_alloc
PUBLIC	??1bad_alloc@std@@UEAA@XZ			; std::bad_alloc::~bad_alloc
PUBLIC	??0bad_alloc@std@@QEAA@AEBV01@@Z		; std::bad_alloc::bad_alloc
PUBLIC	??_Gbad_alloc@std@@UEAAPEAXI@Z			; std::bad_alloc::`scalar deleting destructor'
PUBLIC	??2@YAPEAX_KPEAX@Z				; operator new
PUBLIC	?length@?$char_traits@D@std@@SA_KPEBD@Z		; std::char_traits<char>::length
PUBLIC	?copy@?$char_traits@D@std@@SAPEADPEADPEBD_K@Z	; std::char_traits<char>::copy
PUBLIC	?move@?$char_traits@D@std@@SAPEADPEADPEBD_K@Z	; std::char_traits<char>::move
PUBLIC	?assign@?$char_traits@D@std@@SAPEADPEAD_KD@Z	; std::char_traits<char>::assign
PUBLIC	?assign@?$char_traits@D@std@@SAXAEADAEBD@Z	; std::char_traits<char>::assign
PUBLIC	?to_int_type@?$char_traits@D@std@@SAHAEBD@Z	; std::char_traits<char>::to_int_type
PUBLIC	?eq_int_type@?$char_traits@D@std@@SA_NAEBH0@Z	; std::char_traits<char>::eq_int_type
PUBLIC	?eof@?$char_traits@D@std@@SAHXZ			; std::char_traits<char>::eof
PUBLIC	?_Orphan_all@_Container_base0@std@@QEAAXXZ	; std::_Container_base0::_Orphan_all
PUBLIC	?_Swap_all@_Container_base0@std@@QEAAXAEAU12@@Z	; std::_Container_base0::_Swap_all
PUBLIC	?_Adopt@_Iterator_base0@std@@QEAAXPEBX@Z	; std::_Iterator_base0::_Adopt
PUBLIC	?_Getcont@_Iterator_base0@std@@QEBAPEBU_Container_base0@2@XZ ; std::_Iterator_base0::_Getcont
PUBLIC	?_Init_atomic_counter@std@@YAXAEAKK@Z		; std::_Init_atomic_counter
PUBLIC	??0?$allocator@D@std@@QEAA@XZ			; std::allocator<char>::allocator<char>
PUBLIC	??0?$allocator@D@std@@QEAA@AEBV01@@Z		; std::allocator<char>::allocator<char>
PUBLIC	?deallocate@?$allocator@D@std@@QEAAXPEAD_K@Z	; std::allocator<char>::deallocate
PUBLIC	?allocate@?$allocator@D@std@@QEAAPEAD_K@Z	; std::allocator<char>::allocate
PUBLIC	?max_size@?$allocator@D@std@@QEBA_KXZ		; std::allocator<char>::max_size
PUBLIC	?max_size@?$allocator_traits@V?$allocator@D@std@@@std@@SA_KAEBV?$allocator@D@2@@Z ; std::allocator_traits<std::allocator<char> >::max_size
PUBLIC	?select_on_container_copy_construction@?$allocator_traits@V?$allocator@D@std@@@std@@SA?AV?$allocator@D@2@AEBV32@@Z ; std::allocator_traits<std::allocator<char> >::select_on_container_copy_construction
PUBLIC	?select_on_container_copy_construction@?$_Wrap_alloc@V?$allocator@D@std@@@std@@QEBA?AU12@U_Nil@2@@Z ; std::_Wrap_alloc<std::allocator<char> >::select_on_container_copy_construction
PUBLIC	??0?$_Wrap_alloc@V?$allocator@D@std@@@std@@QEAA@AEBV?$allocator@D@1@@Z ; std::_Wrap_alloc<std::allocator<char> >::_Wrap_alloc<std::allocator<char> >
PUBLIC	?allocate@?$_Wrap_alloc@V?$allocator@D@std@@@std@@QEAAPEAD_K@Z ; std::_Wrap_alloc<std::allocator<char> >::allocate
PUBLIC	?deallocate@?$_Wrap_alloc@V?$allocator@D@std@@@std@@QEAAXPEAD_K@Z ; std::_Wrap_alloc<std::allocator<char> >::deallocate
PUBLIC	?max_size@?$_Wrap_alloc@V?$allocator@D@std@@@std@@QEBA_KU_Nil@2@@Z ; std::_Wrap_alloc<std::allocator<char> >::max_size
PUBLIC	??0?$_String_val@U?$_Simple_types@D@std@@@std@@QEAA@XZ ; std::_String_val<std::_Simple_types<char> >::_String_val<std::_Simple_types<char> >
PUBLIC	?_Myptr@?$_String_val@U?$_Simple_types@D@std@@@std@@QEAAPEADXZ ; std::_String_val<std::_Simple_types<char> >::_Myptr
PUBLIC	?_Myptr@?$_String_val@U?$_Simple_types@D@std@@@std@@QEBAPEBDXZ ; std::_String_val<std::_Simple_types<char> >::_Myptr
PUBLIC	?_Myptr@?$_String_alloc@U?$_String_base_types@DV?$allocator@D@std@@@std@@@std@@QEAAPEADXZ ; std::_String_alloc<std::_String_base_types<char,std::allocator<char> > >::_Myptr
PUBLIC	?_Myptr@?$_String_alloc@U?$_String_base_types@DV?$allocator@D@std@@@std@@@std@@QEBAPEBDXZ ; std::_String_alloc<std::_String_base_types<char,std::allocator<char> > >::_Myptr
PUBLIC	??0?$_String_alloc@U?$_String_base_types@DV?$allocator@D@std@@@std@@@std@@QEAA@AEBV?$allocator@D@1@@Z ; std::_String_alloc<std::_String_base_types<char,std::allocator<char> > >::_String_alloc<std::_String_base_types<char,std::allocator<char> > >
PUBLIC	??0?$_String_alloc@U?$_String_base_types@DV?$allocator@D@std@@@std@@@std@@QEAA@$$QEAV?$allocator@D@1@@Z ; std::_String_alloc<std::_String_base_types<char,std::allocator<char> > >::_String_alloc<std::_String_base_types<char,std::allocator<char> > >
PUBLIC	?_Copy_alloc@?$_String_alloc@U?$_String_base_types@DV?$allocator@D@std@@@std@@@std@@QEAAXAEBU?$_Wrap_alloc@V?$allocator@D@std@@@2@@Z ; std::_String_alloc<std::_String_base_types<char,std::allocator<char> > >::_Copy_alloc
PUBLIC	?_Getal@?$_String_alloc@U?$_String_base_types@DV?$allocator@D@std@@@std@@@std@@QEAAAEAU?$_Wrap_alloc@V?$allocator@D@std@@@2@XZ ; std::_String_alloc<std::_String_base_types<char,std::allocator<char> > >::_Getal
PUBLIC	?_Getal@?$_String_alloc@U?$_String_base_types@DV?$allocator@D@std@@@std@@@std@@QEBAAEBU?$_Wrap_alloc@V?$allocator@D@std@@@2@XZ ; std::_String_alloc<std::_String_base_types<char,std::allocator<char> > >::_Getal
PUBLIC	?_Get_data@?$_String_alloc@U?$_String_base_types@DV?$allocator@D@std@@@std@@@std@@QEAAAEAV?$_String_val@U?$_Simple_types@D@std@@@2@XZ ; std::_String_alloc<std::_String_base_types<char,std::allocator<char> > >::_Get_data
PUBLIC	?_Get_data@?$_String_alloc@U?$_String_base_types@DV?$allocator@D@std@@@std@@@std@@QEBAAEBV?$_String_val@U?$_Simple_types@D@std@@@2@XZ ; std::_String_alloc<std::_String_base_types<char,std::allocator<char> > >::_Get_data
PUBLIC	?_Bx@?$_String_alloc@U?$_String_base_types@DV?$allocator@D@std@@@std@@@std@@QEAAAEAT_Bxty@?$_String_val@U?$_Simple_types@D@std@@@2@XZ ; std::_String_alloc<std::_String_base_types<char,std::allocator<char> > >::_Bx
PUBLIC	?_Mysize@?$_String_alloc@U?$_String_base_types@DV?$allocator@D@std@@@std@@@std@@QEAAAEA_KXZ ; std::_String_alloc<std::_String_base_types<char,std::allocator<char> > >::_Mysize
PUBLIC	?_Mysize@?$_String_alloc@U?$_String_base_types@DV?$allocator@D@std@@@std@@@std@@QEBAAEB_KXZ ; std::_String_alloc<std::_String_base_types<char,std::allocator<char> > >::_Mysize
PUBLIC	?_Myres@?$_String_alloc@U?$_String_base_types@DV?$allocator@D@std@@@std@@@std@@QEAAAEA_KXZ ; std::_String_alloc<std::_String_base_types<char,std::allocator<char> > >::_Myres
PUBLIC	?_Get_first@?$_Compressed_pair@U?$_Wrap_alloc@V?$allocator@D@std@@@std@@V?$_String_val@U?$_Simple_types@D@std@@@2@$00@std@@QEAAAEAU?$_Wrap_alloc@V?$allocator@D@std@@@2@XZ ; std::_Compressed_pair<std::_Wrap_alloc<std::allocator<char> >,std::_String_val<std::_Simple_types<char> >,1>::_Get_first
PUBLIC	?_Get_first@?$_Compressed_pair@U?$_Wrap_alloc@V?$allocator@D@std@@@std@@V?$_String_val@U?$_Simple_types@D@std@@@2@$00@std@@QEBAAEBU?$_Wrap_alloc@V?$allocator@D@std@@@2@XZ ; std::_Compressed_pair<std::_Wrap_alloc<std::allocator<char> >,std::_String_val<std::_Simple_types<char> >,1>::_Get_first
PUBLIC	?_Get_second@?$_Compressed_pair@U?$_Wrap_alloc@V?$allocator@D@std@@@std@@V?$_String_val@U?$_Simple_types@D@std@@@2@$00@std@@QEAAAEAV?$_String_val@U?$_Simple_types@D@std@@@2@XZ ; std::_Compressed_pair<std::_Wrap_alloc<std::allocator<char> >,std::_String_val<std::_Simple_types<char> >,1>::_Get_second
PUBLIC	?_Get_second@?$_Compressed_pair@U?$_Wrap_alloc@V?$allocator@D@std@@@std@@V?$_String_val@U?$_Simple_types@D@std@@@2@$00@std@@QEBAAEBV?$_String_val@U?$_Simple_types@D@std@@@2@XZ ; std::_Compressed_pair<std::_Wrap_alloc<std::allocator<char> >,std::_String_val<std::_Simple_types<char> >,1>::_Get_second
PUBLIC	??0?$basic_string@DU?$char_traits@D@std@@V?$allocator@D@2@@std@@QEAA@AEBV01@@Z ; std::basic_string<char,std::char_traits<char>,std::allocator<char> >::basic_string<char,std::char_traits<char>,std::allocator<char> >
PUBLIC	??0?$basic_string@DU?$char_traits@D@std@@V?$allocator@D@2@@std@@QEAA@XZ ; std::basic_string<char,std::char_traits<char>,std::allocator<char> >::basic_string<char,std::char_traits<char>,std::allocator<char> >
PUBLIC	??0?$basic_string@DU?$char_traits@D@std@@V?$allocator@D@2@@std@@QEAA@PEBD@Z ; std::basic_string<char,std::char_traits<char>,std::allocator<char> >::basic_string<char,std::char_traits<char>,std::allocator<char> >
PUBLIC	??0?$basic_string@DU?$char_traits@D@std@@V?$allocator@D@2@@std@@QEAA@_KD@Z ; std::basic_string<char,std::char_traits<char>,std::allocator<char> >::basic_string<char,std::char_traits<char>,std::allocator<char> >
PUBLIC	??0?$basic_string@DU?$char_traits@D@std@@V?$allocator@D@2@@std@@QEAA@$$QEAV01@@Z ; std::basic_string<char,std::char_traits<char>,std::allocator<char> >::basic_string<char,std::char_traits<char>,std::allocator<char> >
PUBLIC	?assign@?$basic_string@DU?$char_traits@D@std@@V?$allocator@D@2@@std@@QEAAAEAV12@$$QEAV12@@Z ; std::basic_string<char,std::char_traits<char>,std::allocator<char> >::assign
PUBLIC	?_Assign_rv@?$basic_string@DU?$char_traits@D@std@@V?$allocator@D@2@@std@@QEAAX$$QEAV12@@Z ; std::basic_string<char,std::char_traits<char>,std::allocator<char> >::_Assign_rv
PUBLIC	??1?$basic_string@DU?$char_traits@D@std@@V?$allocator@D@2@@std@@QEAA@XZ ; std::basic_string<char,std::char_traits<char>,std::allocator<char> >::~basic_string<char,std::char_traits<char>,std::allocator<char> >
PUBLIC	??4?$basic_string@DU?$char_traits@D@std@@V?$allocator@D@2@@std@@QEAAAEAV01@AEBV01@@Z ; std::basic_string<char,std::char_traits<char>,std::allocator<char> >::operator=
PUBLIC	?append@?$basic_string@DU?$char_traits@D@std@@V?$allocator@D@2@@std@@QEAAAEAV12@AEBV12@@Z ; std::basic_string<char,std::char_traits<char>,std::allocator<char> >::append
PUBLIC	?append@?$basic_string@DU?$char_traits@D@std@@V?$allocator@D@2@@std@@QEAAAEAV12@AEBV12@_K1@Z ; std::basic_string<char,std::char_traits<char>,std::allocator<char> >::append
PUBLIC	?append@?$basic_string@DU?$char_traits@D@std@@V?$allocator@D@2@@std@@QEAAAEAV12@PEBD_K@Z ; std::basic_string<char,std::char_traits<char>,std::allocator<char> >::append
PUBLIC	?append@?$basic_string@DU?$char_traits@D@std@@V?$allocator@D@2@@std@@QEAAAEAV12@PEBD@Z ; std::basic_string<char,std::char_traits<char>,std::allocator<char> >::append
PUBLIC	?append@?$basic_string@DU?$char_traits@D@std@@V?$allocator@D@2@@std@@QEAAAEAV12@_KD@Z ; std::basic_string<char,std::char_traits<char>,std::allocator<char> >::append
PUBLIC	?assign@?$basic_string@DU?$char_traits@D@std@@V?$allocator@D@2@@std@@QEAAAEAV12@AEBV12@@Z ; std::basic_string<char,std::char_traits<char>,std::allocator<char> >::assign
PUBLIC	?assign@?$basic_string@DU?$char_traits@D@std@@V?$allocator@D@2@@std@@QEAAAEAV12@AEBV12@_K1@Z ; std::basic_string<char,std::char_traits<char>,std::allocator<char> >::assign
PUBLIC	?assign@?$basic_string@DU?$char_traits@D@std@@V?$allocator@D@2@@std@@QEAAAEAV12@PEBD_K@Z ; std::basic_string<char,std::char_traits<char>,std::allocator<char> >::assign
PUBLIC	?assign@?$basic_string@DU?$char_traits@D@std@@V?$allocator@D@2@@std@@QEAAAEAV12@PEBD@Z ; std::basic_string<char,std::char_traits<char>,std::allocator<char> >::assign
PUBLIC	?assign@?$basic_string@DU?$char_traits@D@std@@V?$allocator@D@2@@std@@QEAAAEAV12@_KD@Z ; std::basic_string<char,std::char_traits<char>,std::allocator<char> >::assign
PUBLIC	?insert@?$basic_string@DU?$char_traits@D@std@@V?$allocator@D@2@@std@@QEAAAEAV12@_K0D@Z ; std::basic_string<char,std::char_traits<char>,std::allocator<char> >::insert
PUBLIC	?erase@?$basic_string@DU?$char_traits@D@std@@V?$allocator@D@2@@std@@QEAAAEAV12@_K@Z ; std::basic_string<char,std::char_traits<char>,std::allocator<char> >::erase
PUBLIC	?erase@?$basic_string@DU?$char_traits@D@std@@V?$allocator@D@2@@std@@QEAAAEAV12@_K0@Z ; std::basic_string<char,std::char_traits<char>,std::allocator<char> >::erase
PUBLIC	??A?$basic_string@DU?$char_traits@D@std@@V?$allocator@D@2@@std@@QEAAAEAD_K@Z ; std::basic_string<char,std::char_traits<char>,std::allocator<char> >::operator[]
PUBLIC	??A?$basic_string@DU?$char_traits@D@std@@V?$allocator@D@2@@std@@QEBAAEBD_K@Z ; std::basic_string<char,std::char_traits<char>,std::allocator<char> >::operator[]
PUBLIC	?c_str@?$basic_string@DU?$char_traits@D@std@@V?$allocator@D@2@@std@@QEBAPEBDXZ ; std::basic_string<char,std::char_traits<char>,std::allocator<char> >::c_str
PUBLIC	?size@?$basic_string@DU?$char_traits@D@std@@V?$allocator@D@2@@std@@QEBA_KXZ ; std::basic_string<char,std::char_traits<char>,std::allocator<char> >::size
PUBLIC	?max_size@?$basic_string@DU?$char_traits@D@std@@V?$allocator@D@2@@std@@QEBA_KXZ ; std::basic_string<char,std::char_traits<char>,std::allocator<char> >::max_size
PUBLIC	?resize@?$basic_string@DU?$char_traits@D@std@@V?$allocator@D@2@@std@@QEAAX_K@Z ; std::basic_string<char,std::char_traits<char>,std::allocator<char> >::resize
PUBLIC	?resize@?$basic_string@DU?$char_traits@D@std@@V?$allocator@D@2@@std@@QEAAX_KD@Z ; std::basic_string<char,std::char_traits<char>,std::allocator<char> >::resize
PUBLIC	?empty@?$basic_string@DU?$char_traits@D@std@@V?$allocator@D@2@@std@@QEBA_NXZ ; std::basic_string<char,std::char_traits<char>,std::allocator<char> >::empty
PUBLIC	?get_allocator@?$basic_string@DU?$char_traits@D@std@@V?$allocator@D@2@@std@@QEBA?AV?$allocator@D@2@XZ ; std::basic_string<char,std::char_traits<char>,std::allocator<char> >::get_allocator
PUBLIC	?_Chassign@?$basic_string@DU?$char_traits@D@std@@V?$allocator@D@2@@std@@QEAAX_K0D@Z ; std::basic_string<char,std::char_traits<char>,std::allocator<char> >::_Chassign
PUBLIC	?_Copy@?$basic_string@DU?$char_traits@D@std@@V?$allocator@D@2@@std@@QEAAX_K0@Z ; std::basic_string<char,std::char_traits<char>,std::allocator<char> >::_Copy
PUBLIC	?_Eos@?$basic_string@DU?$char_traits@D@std@@V?$allocator@D@2@@std@@QEAAX_K@Z ; std::basic_string<char,std::char_traits<char>,std::allocator<char> >::_Eos
PUBLIC	?_Grow@?$basic_string@DU?$char_traits@D@std@@V?$allocator@D@2@@std@@QEAA_N_K_N@Z ; std::basic_string<char,std::char_traits<char>,std::allocator<char> >::_Grow
PUBLIC	?_Inside@?$basic_string@DU?$char_traits@D@std@@V?$allocator@D@2@@std@@QEAA_NPEBD@Z ; std::basic_string<char,std::char_traits<char>,std::allocator<char> >::_Inside
PUBLIC	?_Tidy@?$basic_string@DU?$char_traits@D@std@@V?$allocator@D@2@@std@@QEAAX_N_K@Z ; std::basic_string<char,std::char_traits<char>,std::allocator<char> >::_Tidy
PUBLIC	?_Xlen@?$basic_string@DU?$char_traits@D@std@@V?$allocator@D@2@@std@@QEBAXXZ ; std::basic_string<char,std::char_traits<char>,std::allocator<char> >::_Xlen
PUBLIC	?_Xran@?$basic_string@DU?$char_traits@D@std@@V?$allocator@D@2@@std@@QEBAXXZ ; std::basic_string<char,std::char_traits<char>,std::allocator<char> >::_Xran
PUBLIC	??0runtime_error@std@@QEAA@AEBV?$basic_string@DU?$char_traits@D@std@@V?$allocator@D@2@@1@@Z ; std::runtime_error::runtime_error
PUBLIC	??0runtime_error@std@@QEAA@PEBD@Z		; std::runtime_error::runtime_error
PUBLIC	??1runtime_error@std@@UEAA@XZ			; std::runtime_error::~runtime_error
PUBLIC	??0runtime_error@std@@QEAA@AEBV01@@Z		; std::runtime_error::runtime_error
PUBLIC	??_Gruntime_error@std@@UEAAPEAXI@Z		; std::runtime_error::`scalar deleting destructor'
PUBLIC	??0bad_cast@std@@QEAA@XZ			; std::bad_cast::bad_cast
PUBLIC	??1bad_cast@std@@UEAA@XZ			; std::bad_cast::~bad_cast
PUBLIC	??0bad_cast@std@@QEAA@AEBV01@@Z			; std::bad_cast::bad_cast
PUBLIC	??_Gbad_cast@std@@UEAAPEAXI@Z			; std::bad_cast::`scalar deleting destructor'
PUBLIC	??0_Locinfo@std@@QEAA@PEBD@Z			; std::_Locinfo::_Locinfo
PUBLIC	??1_Locinfo@std@@QEAA@XZ			; std::_Locinfo::~_Locinfo
PUBLIC	?_Getctype@_Locinfo@std@@QEBA?AU_Ctypevec@@XZ	; std::_Locinfo::_Getctype
PUBLIC	?_Getcvt@_Locinfo@std@@QEBA?AU_Cvtvec@@XZ	; std::_Locinfo::_Getcvt
PUBLIC	?_Getlconv@_Locinfo@std@@QEBAPEBUlconv@@XZ	; std::_Locinfo::_Getlconv
PUBLIC	?_Getfalse@_Locinfo@std@@QEBAPEBDXZ		; std::_Locinfo::_Getfalse
PUBLIC	?_Gettrue@_Locinfo@std@@QEBAPEBDXZ		; std::_Locinfo::_Gettrue
PUBLIC	??0?$_Yarn@D@std@@QEAA@XZ			; std::_Yarn<char>::_Yarn<char>
PUBLIC	??1?$_Yarn@D@std@@QEAA@XZ			; std::_Yarn<char>::~_Yarn<char>
PUBLIC	?c_str@?$_Yarn@D@std@@QEBAPEBDXZ		; std::_Yarn<char>::c_str
PUBLIC	?_Tidy@?$_Yarn@D@std@@AEAAXXZ			; std::_Yarn<char>::_Tidy
PUBLIC	??0?$_Yarn@_W@std@@QEAA@XZ			; std::_Yarn<wchar_t>::_Yarn<wchar_t>
PUBLIC	??1?$_Yarn@_W@std@@QEAA@XZ			; std::_Yarn<wchar_t>::~_Yarn<wchar_t>
PUBLIC	?_Tidy@?$_Yarn@_W@std@@AEAAXXZ			; std::_Yarn<wchar_t>::_Tidy
PUBLIC	??1_Facet_base@std@@UEAA@XZ			; std::_Facet_base::~_Facet_base
PUBLIC	??0_Facet_base@std@@QEAA@XZ			; std::_Facet_base::_Facet_base
PUBLIC	??_G_Facet_base@std@@UEAAPEAXI@Z		; std::_Facet_base::`scalar deleting destructor'
PUBLIC	??0id@locale@std@@QEAA@_K@Z			; std::locale::id::id
PUBLIC	??Bid@locale@std@@QEAA_KXZ			; std::locale::id::operator unsigned __int64
PUBLIC	?_Incref@facet@locale@std@@UEAAXXZ		; std::locale::facet::_Incref
PUBLIC	?_Decref@facet@locale@std@@UEAAPEAV_Facet_base@3@XZ ; std::locale::facet::_Decref
PUBLIC	??0facet@locale@std@@IEAA@_K@Z			; std::locale::facet::facet
PUBLIC	??1facet@locale@std@@MEAA@XZ			; std::locale::facet::~facet
PUBLIC	??_Gfacet@locale@std@@MEAAPEAXI@Z		; std::locale::facet::`scalar deleting destructor'
PUBLIC	??0locale@std@@QEAA@AEBV01@@Z			; std::locale::locale
PUBLIC	??1locale@std@@QEAA@XZ				; std::locale::~locale
PUBLIC	?c_str@locale@std@@QEBAPEBDXZ			; std::locale::c_str
PUBLIC	?_Getfacet@locale@std@@QEBAPEBVfacet@12@_K@Z	; std::locale::_Getfacet
PUBLIC	??0ctype_base@std@@QEAA@_K@Z			; std::ctype_base::ctype_base
PUBLIC	??1ctype_base@std@@UEAA@XZ			; std::ctype_base::~ctype_base
PUBLIC	??_Gctype_base@std@@UEAAPEAXI@Z			; std::ctype_base::`scalar deleting destructor'
PUBLIC	?widen@?$ctype@D@std@@QEBAPEBDPEBD0PEAD@Z	; std::ctype<char>::widen
PUBLIC	??0?$ctype@D@std@@QEAA@AEBV_Locinfo@1@_K@Z	; std::ctype<char>::ctype<char>
PUBLIC	?_Getcat@?$ctype@D@std@@SA_KPEAPEBVfacet@locale@2@PEBV42@@Z ; std::ctype<char>::_Getcat
PUBLIC	??1?$ctype@D@std@@MEAA@XZ			; std::ctype<char>::~ctype<char>
PUBLIC	?_Init@?$ctype@D@std@@IEAAXAEBV_Locinfo@2@@Z	; std::ctype<char>::_Init
PUBLIC	?_Tidy@?$ctype@D@std@@IEAAXXZ			; std::ctype<char>::_Tidy
PUBLIC	?do_tolower@?$ctype@D@std@@MEBADD@Z		; std::ctype<char>::do_tolower
PUBLIC	?do_tolower@?$ctype@D@std@@MEBAPEBDPEADPEBD@Z	; std::ctype<char>::do_tolower
PUBLIC	?do_toupper@?$ctype@D@std@@MEBADD@Z		; std::ctype<char>::do_toupper
PUBLIC	?do_toupper@?$ctype@D@std@@MEBAPEBDPEADPEBD@Z	; std::ctype<char>::do_toupper
PUBLIC	?do_widen@?$ctype@D@std@@MEBADD@Z		; std::ctype<char>::do_widen
PUBLIC	?do_widen@?$ctype@D@std@@MEBAPEBDPEBD0PEAD@Z	; std::ctype<char>::do_widen
PUBLIC	?do_narrow@?$ctype@D@std@@MEBADDD@Z		; std::ctype<char>::do_narrow
PUBLIC	?do_narrow@?$ctype@D@std@@MEBAPEBDPEBD0DPEAD@Z	; std::ctype<char>::do_narrow
PUBLIC	??_G?$ctype@D@std@@MEAAPEAXI@Z			; std::ctype<char>::`scalar deleting destructor'
PUBLIC	??$use_facet@V?$ctype@D@std@@@std@@YAAEBV?$ctype@D@0@AEBVlocale@0@@Z ; std::use_facet<std::ctype<char> >
PUBLIC	?make_error_code@std@@YA?AVerror_code@1@W4io_errc@1@@Z ; std::make_error_code
PUBLIC	?iostream_category@std@@YAAEBVerror_category@1@XZ ; std::iostream_category
PUBLIC	??0error_category@std@@QEAA@XZ			; std::error_category::error_category
PUBLIC	??1error_category@std@@UEAA@XZ			; std::error_category::~error_category
PUBLIC	?default_error_condition@error_category@std@@UEBA?AVerror_condition@2@H@Z ; std::error_category::default_error_condition
PUBLIC	?equivalent@error_category@std@@UEBA_NHAEBVerror_condition@2@@Z ; std::error_category::equivalent
PUBLIC	?equivalent@error_category@std@@UEBA_NAEBVerror_code@2@H@Z ; std::error_category::equivalent
PUBLIC	??8error_category@std@@QEBA_NAEBV01@@Z		; std::error_category::operator==
PUBLIC	??_Gerror_category@std@@UEAAPEAXI@Z		; std::error_category::`scalar deleting destructor'
PUBLIC	??0error_code@std@@QEAA@HAEBVerror_category@1@@Z ; std::error_code::error_code
PUBLIC	?value@error_code@std@@QEBAHXZ			; std::error_code::value
PUBLIC	?category@error_code@std@@QEBAAEBVerror_category@2@XZ ; std::error_code::category
PUBLIC	?message@error_code@std@@QEBA?AV?$basic_string@DU?$char_traits@D@std@@V?$allocator@D@2@@2@XZ ; std::error_code::message
PUBLIC	??0error_condition@std@@QEAA@HAEBVerror_category@1@@Z ; std::error_condition::error_condition
PUBLIC	?value@error_condition@std@@QEBAHXZ		; std::error_condition::value
PUBLIC	?category@error_condition@std@@QEBAAEBVerror_category@2@XZ ; std::error_condition::category
PUBLIC	??8std@@YA_NAEBVerror_condition@0@0@Z		; std::operator==
PUBLIC	?_Makestr@_System_error@std@@CA?AV?$basic_string@DU?$char_traits@D@std@@V?$allocator@D@2@@2@Verror_code@2@V32@@Z ; std::_System_error::_Makestr
PUBLIC	??0_System_error@std@@IEAA@Verror_code@1@AEBV?$basic_string@DU?$char_traits@D@std@@V?$allocator@D@2@@1@@Z ; std::_System_error::_System_error
PUBLIC	??1_System_error@std@@UEAA@XZ			; std::_System_error::~_System_error
PUBLIC	??0_System_error@std@@QEAA@AEBV01@@Z		; std::_System_error::_System_error
PUBLIC	??_G_System_error@std@@UEAAPEAXI@Z		; std::_System_error::`scalar deleting destructor'
PUBLIC	??0system_error@std@@QEAA@Verror_code@1@PEBD@Z	; std::system_error::system_error
PUBLIC	??1system_error@std@@UEAA@XZ			; std::system_error::~system_error
PUBLIC	??0system_error@std@@QEAA@AEBV01@@Z		; std::system_error::system_error
PUBLIC	??_Gsystem_error@std@@UEAAPEAXI@Z		; std::system_error::`scalar deleting destructor'
PUBLIC	??0_Generic_error_category@std@@QEAA@XZ		; std::_Generic_error_category::_Generic_error_category
PUBLIC	?name@_Generic_error_category@std@@UEBAPEBDXZ	; std::_Generic_error_category::name
PUBLIC	?message@_Generic_error_category@std@@UEBA?AV?$basic_string@DU?$char_traits@D@std@@V?$allocator@D@2@@2@H@Z ; std::_Generic_error_category::message
PUBLIC	??1_Generic_error_category@std@@UEAA@XZ		; std::_Generic_error_category::~_Generic_error_category
PUBLIC	??_G_Generic_error_category@std@@UEAAPEAXI@Z	; std::_Generic_error_category::`scalar deleting destructor'
PUBLIC	??0_Iostream_error_category@std@@QEAA@XZ	; std::_Iostream_error_category::_Iostream_error_category
PUBLIC	?name@_Iostream_error_category@std@@UEBAPEBDXZ	; std::_Iostream_error_category::name
PUBLIC	?message@_Iostream_error_category@std@@UEBA?AV?$basic_string@DU?$char_traits@D@std@@V?$allocator@D@2@@2@H@Z ; std::_Iostream_error_category::message
PUBLIC	??1_Iostream_error_category@std@@UEAA@XZ	; std::_Iostream_error_category::~_Iostream_error_category
PUBLIC	??_G_Iostream_error_category@std@@UEAAPEAXI@Z	; std::_Iostream_error_category::`scalar deleting destructor'
PUBLIC	??$_Immortalize@V_Iostream_error_category@std@@@std@@YAAEAV_Iostream_error_category@0@XZ ; std::_Immortalize<std::_Iostream_error_category>
PUBLIC	??0failure@ios_base@std@@QEAA@PEBDAEBVerror_code@2@@Z ; std::ios_base::failure::failure
PUBLIC	??1failure@ios_base@std@@UEAA@XZ		; std::ios_base::failure::~failure
PUBLIC	??0failure@ios_base@std@@QEAA@AEBV012@@Z	; std::ios_base::failure::failure
PUBLIC	??_Gfailure@ios_base@std@@UEAAPEAXI@Z		; std::ios_base::failure::`scalar deleting destructor'
PUBLIC	?clear@ios_base@std@@QEAAXH_N@Z			; std::ios_base::clear
PUBLIC	?rdstate@ios_base@std@@QEBAHXZ			; std::ios_base::rdstate
PUBLIC	?good@ios_base@std@@QEBA_NXZ			; std::ios_base::good
PUBLIC	?flags@ios_base@std@@QEBAHXZ			; std::ios_base::flags
PUBLIC	?precision@ios_base@std@@QEBA_JXZ		; std::ios_base::precision
PUBLIC	?width@ios_base@std@@QEBA_JXZ			; std::ios_base::width
PUBLIC	?width@ios_base@std@@QEAA_J_J@Z			; std::ios_base::width
PUBLIC	?getloc@ios_base@std@@QEBA?AVlocale@2@XZ	; std::ios_base::getloc
PUBLIC	?clear@?$basic_ios@DU?$char_traits@D@std@@@std@@QEAAXH_N@Z ; std::basic_ios<char,std::char_traits<char> >::clear
PUBLIC	?setstate@?$basic_ios@DU?$char_traits@D@std@@@std@@QEAAXH_N@Z ; std::basic_ios<char,std::char_traits<char> >::setstate
PUBLIC	?tie@?$basic_ios@DU?$char_traits@D@std@@@std@@QEBAPEAV?$basic_ostream@DU?$char_traits@D@std@@@2@XZ ; std::basic_ios<char,std::char_traits<char> >::tie
PUBLIC	?rdbuf@?$basic_ios@DU?$char_traits@D@std@@@std@@QEBAPEAV?$basic_streambuf@DU?$char_traits@D@std@@@2@XZ ; std::basic_ios<char,std::char_traits<char> >::rdbuf
PUBLIC	?fill@?$basic_ios@DU?$char_traits@D@std@@@std@@QEBADXZ ; std::basic_ios<char,std::char_traits<char> >::fill
PUBLIC	?_Osfx@?$basic_ostream@DU?$char_traits@D@std@@@std@@QEAAXXZ ; std::basic_ostream<char,std::char_traits<char> >::_Osfx
PUBLIC	??6?$basic_ostream@DU?$char_traits@D@std@@@std@@QEAAAEAV01@H@Z ; std::basic_ostream<char,std::char_traits<char> >::operator<<
PUBLIC	?flush@?$basic_ostream@DU?$char_traits@D@std@@@std@@QEAAAEAV12@XZ ; std::basic_ostream<char,std::char_traits<char> >::flush
PUBLIC	??3_AllocBase@details@Concurrency@@SAXPEAX@Z	; Concurrency::details::_AllocBase::operator delete
PUBLIC	??2_AllocBase@details@Concurrency@@SAPEAX_KPEAX@Z ; Concurrency::details::_AllocBase::operator new
PUBLIC	??3_AllocBase@details@Concurrency@@SAXPEAX0@Z	; Concurrency::details::_AllocBase::operator delete
PUBLIC	??0_Context@details@Concurrency@@QEAA@PEAVContext@2@@Z ; Concurrency::details::_Context::_Context
PUBLIC	??0_Chore@details@Concurrency@@IEAA@XZ		; Concurrency::details::_Chore::_Chore
PUBLIC	??1_Chore@details@Concurrency@@MEAA@XZ		; Concurrency::details::_Chore::~_Chore
PUBLIC	??_G_Chore@details@Concurrency@@MEAAPEAXI@Z	; Concurrency::details::_Chore::`scalar deleting destructor'
PUBLIC	??0_UnrealizedChore@details@Concurrency@@QEAA@XZ ; Concurrency::details::_UnrealizedChore::_UnrealizedChore
PUBLIC	??1_UnrealizedChore@details@Concurrency@@UEAA@XZ ; Concurrency::details::_UnrealizedChore::~_UnrealizedChore
PUBLIC	?_OwningCollection@_UnrealizedChore@details@Concurrency@@QEBAPEAV_TaskCollectionBase@23@XZ ; Concurrency::details::_UnrealizedChore::_OwningCollection
PUBLIC	?_SetRuntimeOwnsLifetime@_UnrealizedChore@details@Concurrency@@QEAAX_N@Z ; Concurrency::details::_UnrealizedChore::_SetRuntimeOwnsLifetime
PUBLIC	?_GetRuntimeOwnsLifetime@_UnrealizedChore@details@Concurrency@@QEBA_NXZ ; Concurrency::details::_UnrealizedChore::_GetRuntimeOwnsLifetime
PUBLIC	??_G_UnrealizedChore@details@Concurrency@@UEAAPEAXI@Z ; Concurrency::details::_UnrealizedChore::`scalar deleting destructor'
PUBLIC	??0_TaskCollectionBase@details@Concurrency@@QEAA@XZ ; Concurrency::details::_TaskCollectionBase::_TaskCollectionBase
PUBLIC	??0_StructuredTaskCollection@details@Concurrency@@QEAA@XZ ; Concurrency::details::_StructuredTaskCollection::_StructuredTaskCollection
PUBLIC	?_Wait@_StructuredTaskCollection@details@Concurrency@@QEAA?AW4_TaskCollectionStatus@23@XZ ; Concurrency::details::_StructuredTaskCollection::_Wait
PUBLIC	?_Construct@_StructuredTaskCollection@details@Concurrency@@AEAAXXZ ; Concurrency::details::_StructuredTaskCollection::_Construct
PUBLIC	?_Is_signaled@_Cancellation_beacon@details@Concurrency@@QEBA_NXZ ; Concurrency::details::_Cancellation_beacon::_Is_signaled
PUBLIC	?_Raise@_Cancellation_beacon@details@Concurrency@@QEAAXXZ ; Concurrency::details::_Cancellation_beacon::_Raise
PUBLIC	??0structured_task_group@Concurrency@@QEAA@XZ	; Concurrency::structured_task_group::structured_task_group
PUBLIC	??1structured_task_group@Concurrency@@QEAA@XZ	; Concurrency::structured_task_group::~structured_task_group
PUBLIC	?wait@structured_task_group@Concurrency@@QEAA?AW4task_group_status@2@XZ ; Concurrency::structured_task_group::wait
PUBLIC	??0auto_partitioner@Concurrency@@QEAA@XZ	; Concurrency::auto_partitioner::auto_partitioner
PUBLIC	??1auto_partitioner@Concurrency@@QEAA@XZ	; Concurrency::auto_partitioner::~auto_partitioner
PUBLIC	?bigV@@YA?AV?$vector@HV?$allocator@H@std@@@std@@H@Z ; bigV
PUBLIC	??0?$allocator@H@std@@QEAA@XZ			; std::allocator<int>::allocator<int>
PUBLIC	??0?$allocator@H@std@@QEAA@AEBV01@@Z		; std::allocator<int>::allocator<int>
PUBLIC	?deallocate@?$allocator@H@std@@QEAAXPEAH_K@Z	; std::allocator<int>::deallocate
PUBLIC	?allocate@?$allocator@H@std@@QEAAPEAH_K@Z	; std::allocator<int>::allocate
PUBLIC	?max_size@?$allocator@H@std@@QEBA_KXZ		; std::allocator<int>::max_size
PUBLIC	?max_size@?$allocator_traits@V?$allocator@H@std@@@std@@SA_KAEBV?$allocator@H@2@@Z ; std::allocator_traits<std::allocator<int> >::max_size
PUBLIC	??0?$_Wrap_alloc@V?$allocator@H@std@@@std@@QEAA@AEBV?$allocator@H@1@@Z ; std::_Wrap_alloc<std::allocator<int> >::_Wrap_alloc<std::allocator<int> >
PUBLIC	?allocate@?$_Wrap_alloc@V?$allocator@H@std@@@std@@QEAAPEAH_K@Z ; std::_Wrap_alloc<std::allocator<int> >::allocate
PUBLIC	?deallocate@?$_Wrap_alloc@V?$allocator@H@std@@@std@@QEAAXPEAH_K@Z ; std::_Wrap_alloc<std::allocator<int> >::deallocate
PUBLIC	?max_size@?$_Wrap_alloc@V?$allocator@H@std@@@std@@QEBA_KU_Nil@2@@Z ; std::_Wrap_alloc<std::allocator<int> >::max_size
PUBLIC	??0?$_Vector_alloc@U?$_Vec_base_types@HV?$allocator@H@std@@@std@@@std@@QEAA@AEBV?$allocator@H@1@@Z ; std::_Vector_alloc<std::_Vec_base_types<int,std::allocator<int> > >::_Vector_alloc<std::_Vec_base_types<int,std::allocator<int> > >
PUBLIC	??0?$_Vector_alloc@U?$_Vec_base_types@HV?$allocator@H@std@@@std@@@std@@QEAA@$$QEAV?$allocator@H@1@@Z ; std::_Vector_alloc<std::_Vec_base_types<int,std::allocator<int> > >::_Vector_alloc<std::_Vec_base_types<int,std::allocator<int> > >
PUBLIC	?_Orphan_all@?$_Vector_alloc@U?$_Vec_base_types@HV?$allocator@H@std@@@std@@@std@@QEAAXXZ ; std::_Vector_alloc<std::_Vec_base_types<int,std::allocator<int> > >::_Orphan_all
PUBLIC	?_Swap_all@?$_Vector_alloc@U?$_Vec_base_types@HV?$allocator@H@std@@@std@@@std@@QEAAXAEAV12@@Z ; std::_Vector_alloc<std::_Vec_base_types<int,std::allocator<int> > >::_Swap_all
PUBLIC	?_Getal@?$_Vector_alloc@U?$_Vec_base_types@HV?$allocator@H@std@@@std@@@std@@QEAAAEAU?$_Wrap_alloc@V?$allocator@H@std@@@2@XZ ; std::_Vector_alloc<std::_Vec_base_types<int,std::allocator<int> > >::_Getal
PUBLIC	?_Getal@?$_Vector_alloc@U?$_Vec_base_types@HV?$allocator@H@std@@@std@@@std@@QEBAAEBU?$_Wrap_alloc@V?$allocator@H@std@@@2@XZ ; std::_Vector_alloc<std::_Vec_base_types<int,std::allocator<int> > >::_Getal
PUBLIC	?_Get_data@?$_Vector_alloc@U?$_Vec_base_types@HV?$allocator@H@std@@@std@@@std@@QEAAAEAV?$_Vector_val@U?$_Simple_types@H@std@@@2@XZ ; std::_Vector_alloc<std::_Vec_base_types<int,std::allocator<int> > >::_Get_data
PUBLIC	?_Get_data@?$_Vector_alloc@U?$_Vec_base_types@HV?$allocator@H@std@@@std@@@std@@QEBAAEBV?$_Vector_val@U?$_Simple_types@H@std@@@2@XZ ; std::_Vector_alloc<std::_Vec_base_types<int,std::allocator<int> > >::_Get_data
PUBLIC	?_Myfirst@?$_Vector_alloc@U?$_Vec_base_types@HV?$allocator@H@std@@@std@@@std@@QEAAAEAPEAHXZ ; std::_Vector_alloc<std::_Vec_base_types<int,std::allocator<int> > >::_Myfirst
PUBLIC	?_Myfirst@?$_Vector_alloc@U?$_Vec_base_types@HV?$allocator@H@std@@@std@@@std@@QEBAAEBQEAHXZ ; std::_Vector_alloc<std::_Vec_base_types<int,std::allocator<int> > >::_Myfirst
PUBLIC	?_Mylast@?$_Vector_alloc@U?$_Vec_base_types@HV?$allocator@H@std@@@std@@@std@@QEAAAEAPEAHXZ ; std::_Vector_alloc<std::_Vec_base_types<int,std::allocator<int> > >::_Mylast
PUBLIC	?_Mylast@?$_Vector_alloc@U?$_Vec_base_types@HV?$allocator@H@std@@@std@@@std@@QEBAAEBQEAHXZ ; std::_Vector_alloc<std::_Vec_base_types<int,std::allocator<int> > >::_Mylast
PUBLIC	?_Myend@?$_Vector_alloc@U?$_Vec_base_types@HV?$allocator@H@std@@@std@@@std@@QEAAAEAPEAHXZ ; std::_Vector_alloc<std::_Vec_base_types<int,std::allocator<int> > >::_Myend
PUBLIC	?_Myend@?$_Vector_alloc@U?$_Vec_base_types@HV?$allocator@H@std@@@std@@@std@@QEBAAEBQEAHXZ ; std::_Vector_alloc<std::_Vec_base_types<int,std::allocator<int> > >::_Myend
PUBLIC	??0?$_Vector_val@U?$_Simple_types@H@std@@@std@@QEAA@XZ ; std::_Vector_val<std::_Simple_types<int> >::_Vector_val<std::_Simple_types<int> >
PUBLIC	?_Get_first@?$_Compressed_pair@U?$_Wrap_alloc@V?$allocator@H@std@@@std@@V?$_Vector_val@U?$_Simple_types@H@std@@@2@$00@std@@QEAAAEAU?$_Wrap_alloc@V?$allocator@H@std@@@2@XZ ; std::_Compressed_pair<std::_Wrap_alloc<std::allocator<int> >,std::_Vector_val<std::_Simple_types<int> >,1>::_Get_first
PUBLIC	?_Get_first@?$_Compressed_pair@U?$_Wrap_alloc@V?$allocator@H@std@@@std@@V?$_Vector_val@U?$_Simple_types@H@std@@@2@$00@std@@QEBAAEBU?$_Wrap_alloc@V?$allocator@H@std@@@2@XZ ; std::_Compressed_pair<std::_Wrap_alloc<std::allocator<int> >,std::_Vector_val<std::_Simple_types<int> >,1>::_Get_first
PUBLIC	?_Get_second@?$_Compressed_pair@U?$_Wrap_alloc@V?$allocator@H@std@@@std@@V?$_Vector_val@U?$_Simple_types@H@std@@@2@$00@std@@QEAAAEAV?$_Vector_val@U?$_Simple_types@H@std@@@2@XZ ; std::_Compressed_pair<std::_Wrap_alloc<std::allocator<int> >,std::_Vector_val<std::_Simple_types<int> >,1>::_Get_second
PUBLIC	?_Get_second@?$_Compressed_pair@U?$_Wrap_alloc@V?$allocator@H@std@@@std@@V?$_Vector_val@U?$_Simple_types@H@std@@@2@$00@std@@QEBAAEBV?$_Vector_val@U?$_Simple_types@H@std@@@2@XZ ; std::_Compressed_pair<std::_Wrap_alloc<std::allocator<int> >,std::_Vector_val<std::_Simple_types<int> >,1>::_Get_second
PUBLIC	??0?$vector@HV?$allocator@H@std@@@std@@QEAA@XZ	; std::vector<int,std::allocator<int> >::vector<int,std::allocator<int> >
PUBLIC	??0?$vector@HV?$allocator@H@std@@@std@@QEAA@$$QEAV01@@Z ; std::vector<int,std::allocator<int> >::vector<int,std::allocator<int> >
PUBLIC	?_Assign_rv@?$vector@HV?$allocator@H@std@@@std@@QEAAX$$QEAV12@U?$integral_constant@_N$00@2@@Z ; std::vector<int,std::allocator<int> >::_Assign_rv
PUBLIC	??1?$vector@HV?$allocator@H@std@@@std@@QEAA@XZ	; std::vector<int,std::allocator<int> >::~vector<int,std::allocator<int> >
PUBLIC	?capacity@?$vector@HV?$allocator@H@std@@@std@@QEBA_KXZ ; std::vector<int,std::allocator<int> >::capacity
PUBLIC	?_Unused_capacity@?$vector@HV?$allocator@H@std@@@std@@QEBA_KXZ ; std::vector<int,std::allocator<int> >::_Unused_capacity
PUBLIC	?begin@?$vector@HV?$allocator@H@std@@@std@@QEAA?AV?$_Vector_iterator@V?$_Vector_val@U?$_Simple_types@H@std@@@std@@@2@XZ ; std::vector<int,std::allocator<int> >::begin
PUBLIC	?begin@?$vector@HV?$allocator@H@std@@@std@@QEBA?AV?$_Vector_const_iterator@V?$_Vector_val@U?$_Simple_types@H@std@@@std@@@2@XZ ; std::vector<int,std::allocator<int> >::begin
PUBLIC	?end@?$vector@HV?$allocator@H@std@@@std@@QEAA?AV?$_Vector_iterator@V?$_Vector_val@U?$_Simple_types@H@std@@@std@@@2@XZ ; std::vector<int,std::allocator<int> >::end
PUBLIC	?end@?$vector@HV?$allocator@H@std@@@std@@QEBA?AV?$_Vector_const_iterator@V?$_Vector_val@U?$_Simple_types@H@std@@@std@@@2@XZ ; std::vector<int,std::allocator<int> >::end
PUBLIC	?resize@?$vector@HV?$allocator@H@std@@@std@@QEAAX_K@Z ; std::vector<int,std::allocator<int> >::resize
PUBLIC	?size@?$vector@HV?$allocator@H@std@@@std@@QEBA_KXZ ; std::vector<int,std::allocator<int> >::size
PUBLIC	?max_size@?$vector@HV?$allocator@H@std@@@std@@QEBA_KXZ ; std::vector<int,std::allocator<int> >::max_size
PUBLIC	?_Pop_back_n@?$vector@HV?$allocator@H@std@@@std@@QEAAX_K@Z ; std::vector<int,std::allocator<int> >::_Pop_back_n
PUBLIC	?_Destroy@?$vector@HV?$allocator@H@std@@@std@@IEAAXPEAH0@Z ; std::vector<int,std::allocator<int> >::_Destroy
PUBLIC	?_Grow_to@?$vector@HV?$allocator@H@std@@@std@@IEBA_K_K@Z ; std::vector<int,std::allocator<int> >::_Grow_to
PUBLIC	?_Reallocate@?$vector@HV?$allocator@H@std@@@std@@IEAAX_K@Z ; std::vector<int,std::allocator<int> >::_Reallocate
PUBLIC	?_Reserve@?$vector@HV?$allocator@H@std@@@std@@IEAAX_K@Z ; std::vector<int,std::allocator<int> >::_Reserve
PUBLIC	?_Tidy@?$vector@HV?$allocator@H@std@@@std@@IEAAXXZ ; std::vector<int,std::allocator<int> >::_Tidy
PUBLIC	?_Xlen@?$vector@HV?$allocator@H@std@@@std@@IEBAXXZ ; std::vector<int,std::allocator<int> >::_Xlen
PUBLIC	??$begin@V?$vector@HV?$allocator@H@std@@@std@@@std@@YA?AV?$_Vector_const_iterator@V?$_Vector_val@U?$_Simple_types@H@std@@@std@@@0@AEBV?$vector@HV?$allocator@H@std@@@0@@Z ; std::begin<std::vector<int,std::allocator<int> > >
PUBLIC	??$begin@V?$vector@HV?$allocator@H@std@@@std@@@std@@YA?AV?$_Vector_iterator@V?$_Vector_val@U?$_Simple_types@H@std@@@std@@@0@AEAV?$vector@HV?$allocator@H@std@@@0@@Z ; std::begin<std::vector<int,std::allocator<int> > >
PUBLIC	??0?$_Vector_const_iterator@V?$_Vector_val@U?$_Simple_types@H@std@@@std@@@std@@QEAA@PEAHPEBU_Container_base0@1@@Z ; std::_Vector_const_iterator<std::_Vector_val<std::_Simple_types<int> > >::_Vector_const_iterator<std::_Vector_val<std::_Simple_types<int> > >
PUBLIC	?_Rechecked@?$_Vector_const_iterator@V?$_Vector_val@U?$_Simple_types@H@std@@@std@@@std@@QEAAAEAV12@PEBH@Z ; std::_Vector_const_iterator<std::_Vector_val<std::_Simple_types<int> > >::_Rechecked
PUBLIC	?_Unchecked@?$_Vector_const_iterator@V?$_Vector_val@U?$_Simple_types@H@std@@@std@@@std@@QEBAPEBHXZ ; std::_Vector_const_iterator<std::_Vector_val<std::_Simple_types<int> > >::_Unchecked
PUBLIC	??D?$_Vector_const_iterator@V?$_Vector_val@U?$_Simple_types@H@std@@@std@@@std@@QEBAAEBHXZ ; std::_Vector_const_iterator<std::_Vector_val<std::_Simple_types<int> > >::operator*
PUBLIC	??Y?$_Vector_const_iterator@V?$_Vector_val@U?$_Simple_types@H@std@@@std@@@std@@QEAAAEAV01@_J@Z ; std::_Vector_const_iterator<std::_Vector_val<std::_Simple_types<int> > >::operator+=
PUBLIC	??H?$_Vector_const_iterator@V?$_Vector_val@U?$_Simple_types@H@std@@@std@@@std@@QEBA?AV01@_J@Z ; std::_Vector_const_iterator<std::_Vector_val<std::_Simple_types<int> > >::operator+
PUBLIC	??G?$_Vector_const_iterator@V?$_Vector_val@U?$_Simple_types@H@std@@@std@@@std@@QEBA_JAEBV01@@Z ; std::_Vector_const_iterator<std::_Vector_val<std::_Simple_types<int> > >::operator-
PUBLIC	??A?$_Vector_const_iterator@V?$_Vector_val@U?$_Simple_types@H@std@@@std@@@std@@QEBAAEBH_J@Z ; std::_Vector_const_iterator<std::_Vector_val<std::_Simple_types<int> > >::operator[]
PUBLIC	??8?$_Vector_const_iterator@V?$_Vector_val@U?$_Simple_types@H@std@@@std@@@std@@QEBA_NAEBV01@@Z ; std::_Vector_const_iterator<std::_Vector_val<std::_Simple_types<int> > >::operator==
PUBLIC	??9?$_Vector_const_iterator@V?$_Vector_val@U?$_Simple_types@H@std@@@std@@@std@@QEBA_NAEBV01@@Z ; std::_Vector_const_iterator<std::_Vector_val<std::_Simple_types<int> > >::operator!=
PUBLIC	??M?$_Vector_const_iterator@V?$_Vector_val@U?$_Simple_types@H@std@@@std@@@std@@QEBA_NAEBV01@@Z ; std::_Vector_const_iterator<std::_Vector_val<std::_Simple_types<int> > >::operator<
PUBLIC	??P?$_Vector_const_iterator@V?$_Vector_val@U?$_Simple_types@H@std@@@std@@@std@@QEBA_NAEBV01@@Z ; std::_Vector_const_iterator<std::_Vector_val<std::_Simple_types<int> > >::operator>=
PUBLIC	?_Compat@?$_Vector_const_iterator@V?$_Vector_val@U?$_Simple_types@H@std@@@std@@@std@@QEBAXAEBV12@@Z ; std::_Vector_const_iterator<std::_Vector_val<std::_Simple_types<int> > >::_Compat
PUBLIC	??0?$_Vector_iterator@V?$_Vector_val@U?$_Simple_types@H@std@@@std@@@std@@QEAA@PEAHPEBU_Container_base0@1@@Z ; std::_Vector_iterator<std::_Vector_val<std::_Simple_types<int> > >::_Vector_iterator<std::_Vector_val<std::_Simple_types<int> > >
PUBLIC	?_Unchecked@?$_Vector_iterator@V?$_Vector_val@U?$_Simple_types@H@std@@@std@@@std@@QEBAPEAHXZ ; std::_Vector_iterator<std::_Vector_val<std::_Simple_types<int> > >::_Unchecked
PUBLIC	??$end@V?$vector@HV?$allocator@H@std@@@std@@@std@@YA?AV?$_Vector_const_iterator@V?$_Vector_val@U?$_Simple_types@H@std@@@std@@@0@AEBV?$vector@HV?$allocator@H@std@@@0@@Z ; std::end<std::vector<int,std::allocator<int> > >
PUBLIC	??$end@V?$vector@HV?$allocator@H@std@@@std@@@std@@YA?AV?$_Vector_iterator@V?$_Vector_val@U?$_Simple_types@H@std@@@std@@@0@AEAV?$vector@HV?$allocator@H@std@@@0@@Z ; std::end<std::vector<int,std::allocator<int> > >
PUBLIC	??$generate@V?$_Vector_iterator@V?$_Vector_val@U?$_Simple_types@H@std@@@std@@@std@@V<lambda_c9f975a637c01fa4efefb9d0c2805640>@@@std@@YAXV?$_Vector_iterator@V?$_Vector_val@U?$_Simple_types@H@std@@@std@@@0@0V<lambda_c9f975a637c01fa4efefb9d0c2805640>@@@Z ; std::generate<std::_Vector_iterator<std::_Vector_val<std::_Simple_types<int> > >,<lambda_c9f975a637c01fa4efefb9d0c2805640> >
PUBLIC	main
PUBLIC	??$cbegin@V?$vector@HV?$allocator@H@std@@@std@@@std@@YA?AV?$_Vector_const_iterator@V?$_Vector_val@U?$_Simple_types@H@std@@@std@@@0@AEBV?$vector@HV?$allocator@H@std@@@0@@Z ; std::cbegin<std::vector<int,std::allocator<int> > >
PUBLIC	??$cend@V?$vector@HV?$allocator@H@std@@@std@@@std@@YA?AV?$_Vector_const_iterator@V?$_Vector_val@U?$_Simple_types@H@std@@@std@@@0@AEBV?$vector@HV?$allocator@H@std@@@0@@Z ; std::cend<std::vector<int,std::allocator<int> > >
PUBLIC	??$?6U?$char_traits@D@std@@@std@@YAAEAV?$basic_ostream@DU?$char_traits@D@std@@@0@AEAV10@PEBD@Z ; std::operator<<<std::char_traits<char> >
PUBLIC	??$?6U?$char_traits@D@std@@@std@@YAAEAV?$basic_ostream@DU?$char_traits@D@std@@@0@AEAV10@D@Z ; std::operator<<<std::char_traits<char> >
PUBLIC	??$parallel_for_each@V?$_Vector_const_iterator@V?$_Vector_val@U?$_Simple_types@H@std@@@std@@@std@@V<lambda_e91d5317cacb03e6a1467b3ede17adf9>@@@Concurrency@@YAXV?$_Vector_const_iterator@V?$_Vector_val@U?$_Simple_types@H@std@@@std@@@std@@0AEBV<lambda_e91d5317cacb03e6a1467b3ede17adf9>@@@Z ; Concurrency::parallel_for_each<std::_Vector_const_iterator<std::_Vector_val<std::_Simple_types<int> > >,<lambda_e91d5317cacb03e6a1467b3ede17adf9> >
PUBLIC	??$_Uninitialized_default_fill_n@PEAH_KU?$_Wrap_alloc@V?$allocator@H@std@@@std@@@std@@YAXPEAH_KAEAU?$_Wrap_alloc@V?$allocator@H@std@@@0@@Z ; std::_Uninitialized_default_fill_n<int * __ptr64,unsigned __int64,std::_Wrap_alloc<std::allocator<int> > >
PUBLIC	??$move@AEAU?$_Wrap_alloc@V?$allocator@H@std@@@std@@@std@@YA$$QEAU?$_Wrap_alloc@V?$allocator@H@std@@@0@AEAU10@@Z ; std::move<std::_Wrap_alloc<std::allocator<int> > & __ptr64>
PUBLIC	??$forward@V?$vector@HV?$allocator@H@std@@@std@@@std@@YA$$QEAV?$vector@HV?$allocator@H@std@@@0@AEAV10@@Z ; std::forward<std::vector<int,std::allocator<int> > >
PUBLIC	??$move@AEAU?$_Wrap_alloc@V?$allocator@D@std@@@std@@@std@@YA$$QEAU?$_Wrap_alloc@V?$allocator@D@std@@@0@AEAU10@@Z ; std::move<std::_Wrap_alloc<std::allocator<char> > & __ptr64>
PUBLIC	??$forward@V?$basic_string@DU?$char_traits@D@std@@V?$allocator@D@2@@std@@@std@@YA$$QEAV?$basic_string@DU?$char_traits@D@std@@V?$allocator@D@2@@0@AEAV10@@Z ; std::forward<std::basic_string<char,std::char_traits<char>,std::allocator<char> > >
PUBLIC	??0_Sentry_base@?$basic_ostream@DU?$char_traits@D@std@@@std@@QEAA@AEAV12@@Z ; std::basic_ostream<char,std::char_traits<char> >::_Sentry_base::_Sentry_base
PUBLIC	??1_Sentry_base@?$basic_ostream@DU?$char_traits@D@std@@@std@@QEAA@XZ ; std::basic_ostream<char,std::char_traits<char> >::_Sentry_base::~_Sentry_base
PUBLIC	??0sentry@?$basic_ostream@DU?$char_traits@D@std@@@std@@QEAA@AEAV12@@Z ; std::basic_ostream<char,std::char_traits<char> >::sentry::sentry
PUBLIC	??1sentry@?$basic_ostream@DU?$char_traits@D@std@@@std@@QEAA@XZ ; std::basic_ostream<char,std::char_traits<char> >::sentry::~sentry
PUBLIC	??Bsentry@?$basic_ostream@DU?$char_traits@D@std@@@std@@QEBA_NXZ ; std::basic_ostream<char,std::char_traits<char> >::sentry::operator bool
PUBLIC	??$use_facet@V?$num_put@DV?$ostreambuf_iterator@DU?$char_traits@D@std@@@std@@@std@@@std@@YAAEBV?$num_put@DV?$ostreambuf_iterator@DU?$char_traits@D@std@@@std@@@0@AEBVlocale@0@@Z ; std::use_facet<std::num_put<char,std::ostreambuf_iterator<char,std::char_traits<char> > > >
PUBLIC	?_Getcat@?$num_put@DV?$ostreambuf_iterator@DU?$char_traits@D@std@@@std@@@std@@SA_KPEAPEBVfacet@locale@2@PEBV42@@Z ; std::num_put<char,std::ostreambuf_iterator<char,std::char_traits<char> > >::_Getcat
PUBLIC	??1?$num_put@DV?$ostreambuf_iterator@DU?$char_traits@D@std@@@std@@@std@@MEAA@XZ ; std::num_put<char,std::ostreambuf_iterator<char,std::char_traits<char> > >::~num_put<char,std::ostreambuf_iterator<char,std::char_traits<char> > >
PUBLIC	?_Init@?$num_put@DV?$ostreambuf_iterator@DU?$char_traits@D@std@@@std@@@std@@IEAAXAEBV_Locinfo@2@@Z ; std::num_put<char,std::ostreambuf_iterator<char,std::char_traits<char> > >::_Init
PUBLIC	??0?$num_put@DV?$ostreambuf_iterator@DU?$char_traits@D@std@@@std@@@std@@QEAA@AEBV_Locinfo@1@_K@Z ; std::num_put<char,std::ostreambuf_iterator<char,std::char_traits<char> > >::num_put<char,std::ostreambuf_iterator<char,std::char_traits<char> > >
PUBLIC	?put@?$num_put@DV?$ostreambuf_iterator@DU?$char_traits@D@std@@@std@@@std@@QEBA?AV?$ostreambuf_iterator@DU?$char_traits@D@std@@@2@V32@AEAVios_base@2@DJ@Z ; std::num_put<char,std::ostreambuf_iterator<char,std::char_traits<char> > >::put
PUBLIC	?do_put@?$num_put@DV?$ostreambuf_iterator@DU?$char_traits@D@std@@@std@@@std@@MEBA?AV?$ostreambuf_iterator@DU?$char_traits@D@std@@@2@V32@AEAVios_base@2@D_N@Z ; std::num_put<char,std::ostreambuf_iterator<char,std::char_traits<char> > >::do_put
PUBLIC	?do_put@?$num_put@DV?$ostreambuf_iterator@DU?$char_traits@D@std@@@std@@@std@@MEBA?AV?$ostreambuf_iterator@DU?$char_traits@D@std@@@2@V32@AEAVios_base@2@DJ@Z ; std::num_put<char,std::ostreambuf_iterator<char,std::char_traits<char> > >::do_put
PUBLIC	?do_put@?$num_put@DV?$ostreambuf_iterator@DU?$char_traits@D@std@@@std@@@std@@MEBA?AV?$ostreambuf_iterator@DU?$char_traits@D@std@@@2@V32@AEAVios_base@2@DK@Z ; std::num_put<char,std::ostreambuf_iterator<char,std::char_traits<char> > >::do_put
PUBLIC	?do_put@?$num_put@DV?$ostreambuf_iterator@DU?$char_traits@D@std@@@std@@@std@@MEBA?AV?$ostreambuf_iterator@DU?$char_traits@D@std@@@2@V32@AEAVios_base@2@D_J@Z ; std::num_put<char,std::ostreambuf_iterator<char,std::char_traits<char> > >::do_put
PUBLIC	?do_put@?$num_put@DV?$ostreambuf_iterator@DU?$char_traits@D@std@@@std@@@std@@MEBA?AV?$ostreambuf_iterator@DU?$char_traits@D@std@@@2@V32@AEAVios_base@2@D_K@Z ; std::num_put<char,std::ostreambuf_iterator<char,std::char_traits<char> > >::do_put
PUBLIC	?do_put@?$num_put@DV?$ostreambuf_iterator@DU?$char_traits@D@std@@@std@@@std@@MEBA?AV?$ostreambuf_iterator@DU?$char_traits@D@std@@@2@V32@AEAVios_base@2@DN@Z ; std::num_put<char,std::ostreambuf_iterator<char,std::char_traits<char> > >::do_put
PUBLIC	?do_put@?$num_put@DV?$ostreambuf_iterator@DU?$char_traits@D@std@@@std@@@std@@MEBA?AV?$ostreambuf_iterator@DU?$char_traits@D@std@@@2@V32@AEAVios_base@2@DO@Z ; std::num_put<char,std::ostreambuf_iterator<char,std::char_traits<char> > >::do_put
PUBLIC	?do_put@?$num_put@DV?$ostreambuf_iterator@DU?$char_traits@D@std@@@std@@@std@@MEBA?AV?$ostreambuf_iterator@DU?$char_traits@D@std@@@2@V32@AEAVios_base@2@DPEBX@Z ; std::num_put<char,std::ostreambuf_iterator<char,std::char_traits<char> > >::do_put
PUBLIC	?_Ffmt@?$num_put@DV?$ostreambuf_iterator@DU?$char_traits@D@std@@@std@@@std@@AEBAPEADPEADDH@Z ; std::num_put<char,std::ostreambuf_iterator<char,std::char_traits<char> > >::_Ffmt
PUBLIC	?_Fput@?$num_put@DV?$ostreambuf_iterator@DU?$char_traits@D@std@@@std@@@std@@AEBA?AV?$ostreambuf_iterator@DU?$char_traits@D@std@@@2@V32@AEAVios_base@2@DPEBD_K@Z ; std::num_put<char,std::ostreambuf_iterator<char,std::char_traits<char> > >::_Fput
PUBLIC	?_Ifmt@?$num_put@DV?$ostreambuf_iterator@DU?$char_traits@D@std@@@std@@@std@@AEBAPEADPEADPEBDH@Z ; std::num_put<char,std::ostreambuf_iterator<char,std::char_traits<char> > >::_Ifmt
PUBLIC	?_Iput@?$num_put@DV?$ostreambuf_iterator@DU?$char_traits@D@std@@@std@@@std@@AEBA?AV?$ostreambuf_iterator@DU?$char_traits@D@std@@@2@V32@AEAVios_base@2@DPEAD_K@Z ; std::num_put<char,std::ostreambuf_iterator<char,std::char_traits<char> > >::_Iput
PUBLIC	?_Put@?$num_put@DV?$ostreambuf_iterator@DU?$char_traits@D@std@@@std@@@std@@AEBA?AV?$ostreambuf_iterator@DU?$char_traits@D@std@@@2@V32@PEBD_K@Z ; std::num_put<char,std::ostreambuf_iterator<char,std::char_traits<char> > >::_Put
PUBLIC	?_Rep@?$num_put@DV?$ostreambuf_iterator@DU?$char_traits@D@std@@@std@@@std@@AEBA?AV?$ostreambuf_iterator@DU?$char_traits@D@std@@@2@V32@D_K@Z ; std::num_put<char,std::ostreambuf_iterator<char,std::char_traits<char> > >::_Rep
PUBLIC	??_G?$num_put@DV?$ostreambuf_iterator@DU?$char_traits@D@std@@@std@@@std@@MEAAPEAXI@Z ; std::num_put<char,std::ostreambuf_iterator<char,std::char_traits<char> > >::`scalar deleting destructor'
PUBLIC	??0?$ostreambuf_iterator@DU?$char_traits@D@std@@@std@@QEAA@PEAV?$basic_streambuf@DU?$char_traits@D@std@@@1@@Z ; std::ostreambuf_iterator<char,std::char_traits<char> >::ostreambuf_iterator<char,std::char_traits<char> >
PUBLIC	??4?$ostreambuf_iterator@DU?$char_traits@D@std@@@std@@QEAAAEAV01@D@Z ; std::ostreambuf_iterator<char,std::char_traits<char> >::operator=
PUBLIC	??D?$ostreambuf_iterator@DU?$char_traits@D@std@@@std@@QEAAAEAV01@XZ ; std::ostreambuf_iterator<char,std::char_traits<char> >::operator*
PUBLIC	??E?$ostreambuf_iterator@DU?$char_traits@D@std@@@std@@QEAAAEAV01@XZ ; std::ostreambuf_iterator<char,std::char_traits<char> >::operator++
PUBLIC	?failed@?$ostreambuf_iterator@DU?$char_traits@D@std@@@std@@QEBA_NXZ ; std::ostreambuf_iterator<char,std::char_traits<char> >::failed
PUBLIC	??$move@AEAV?$allocator@H@std@@@std@@YA$$QEAV?$allocator@H@0@AEAV10@@Z ; std::move<std::allocator<int> & __ptr64>
PUBLIC	??$?0V?$allocator@H@std@@$$V@?$_Compressed_pair@U?$_Wrap_alloc@V?$allocator@H@std@@@std@@V?$_Vector_val@U?$_Simple_types@H@std@@@2@$00@std@@QEAA@U_One_then_variadic_args_t@1@$$QEAV?$allocator@H@1@@Z ; std::_Compressed_pair<std::_Wrap_alloc<std::allocator<int> >,std::_Vector_val<std::_Simple_types<int> >,1>::_Compressed_pair<std::_Wrap_alloc<std::allocator<int> >,std::_Vector_val<std::_Simple_types<int> >,1><std::allocator<int> >
PUBLIC	??$?0AEBV?$allocator@H@std@@$$V@?$_Compressed_pair@U?$_Wrap_alloc@V?$allocator@H@std@@@std@@V?$_Vector_val@U?$_Simple_types@H@std@@@2@$00@std@@QEAA@U_One_then_variadic_args_t@1@AEBV?$allocator@H@1@@Z ; std::_Compressed_pair<std::_Wrap_alloc<std::allocator<int> >,std::_Vector_val<std::_Simple_types<int> >,1>::_Compressed_pair<std::_Wrap_alloc<std::allocator<int> >,std::_Vector_val<std::_Simple_types<int> >,1><std::allocator<int> const & __ptr64>
PUBLIC	??$use_facet@V?$numpunct@D@std@@@std@@YAAEBV?$numpunct@D@0@AEBVlocale@0@@Z ; std::use_facet<std::numpunct<char> >
PUBLIC	?decimal_point@?$numpunct@D@std@@QEBADXZ	; std::numpunct<char>::decimal_point
PUBLIC	?thousands_sep@?$numpunct@D@std@@QEBADXZ	; std::numpunct<char>::thousands_sep
PUBLIC	?grouping@?$numpunct@D@std@@QEBA?AV?$basic_string@DU?$char_traits@D@std@@V?$allocator@D@2@@2@XZ ; std::numpunct<char>::grouping
PUBLIC	?falsename@?$numpunct@D@std@@QEBA?AV?$basic_string@DU?$char_traits@D@std@@V?$allocator@D@2@@2@XZ ; std::numpunct<char>::falsename
PUBLIC	?truename@?$numpunct@D@std@@QEBA?AV?$basic_string@DU?$char_traits@D@std@@V?$allocator@D@2@@2@XZ ; std::numpunct<char>::truename
PUBLIC	??0?$numpunct@D@std@@QEAA@AEBV_Locinfo@1@_K_N@Z	; std::numpunct<char>::numpunct<char>
PUBLIC	?_Getcat@?$numpunct@D@std@@SA_KPEAPEBVfacet@locale@2@PEBV42@@Z ; std::numpunct<char>::_Getcat
PUBLIC	??1?$numpunct@D@std@@MEAA@XZ			; std::numpunct<char>::~numpunct<char>
PUBLIC	?_Init@?$numpunct@D@std@@IEAAXAEBV_Locinfo@2@_N@Z ; std::numpunct<char>::_Init
PUBLIC	?do_decimal_point@?$numpunct@D@std@@MEBADXZ	; std::numpunct<char>::do_decimal_point
PUBLIC	?do_thousands_sep@?$numpunct@D@std@@MEBADXZ	; std::numpunct<char>::do_thousands_sep
PUBLIC	?do_grouping@?$numpunct@D@std@@MEBA?AV?$basic_string@DU?$char_traits@D@std@@V?$allocator@D@2@@2@XZ ; std::numpunct<char>::do_grouping
PUBLIC	?do_falsename@?$numpunct@D@std@@MEBA?AV?$basic_string@DU?$char_traits@D@std@@V?$allocator@D@2@@2@XZ ; std::numpunct<char>::do_falsename
PUBLIC	?do_truename@?$numpunct@D@std@@MEBA?AV?$basic_string@DU?$char_traits@D@std@@V?$allocator@D@2@@2@XZ ; std::numpunct<char>::do_truename
PUBLIC	?_Tidy@?$numpunct@D@std@@AEAAXXZ		; std::numpunct<char>::_Tidy
PUBLIC	??_G?$numpunct@D@std@@MEAAPEAXI@Z		; std::numpunct<char>::`scalar deleting destructor'
PUBLIC	??$move@AEAV?$allocator@D@std@@@std@@YA$$QEAV?$allocator@D@0@AEAV10@@Z ; std::move<std::allocator<char> & __ptr64>
PUBLIC	??$?0V?$allocator@D@std@@$$V@?$_Compressed_pair@U?$_Wrap_alloc@V?$allocator@D@std@@@std@@V?$_String_val@U?$_Simple_types@D@std@@@2@$00@std@@QEAA@U_One_then_variadic_args_t@1@$$QEAV?$allocator@D@1@@Z ; std::_Compressed_pair<std::_Wrap_alloc<std::allocator<char> >,std::_String_val<std::_Simple_types<char> >,1>::_Compressed_pair<std::_Wrap_alloc<std::allocator<char> >,std::_String_val<std::_Simple_types<char> >,1><std::allocator<char> >
PUBLIC	??$?0AEBV?$allocator@D@std@@$$V@?$_Compressed_pair@U?$_Wrap_alloc@V?$allocator@D@std@@@std@@V?$_String_val@U?$_Simple_types@D@std@@@2@$00@std@@QEAA@U_One_then_variadic_args_t@1@AEBV?$allocator@D@1@@Z ; std::_Compressed_pair<std::_Wrap_alloc<std::allocator<char> >,std::_String_val<std::_Simple_types<char> >,1>::_Compressed_pair<std::_Wrap_alloc<std::allocator<char> >,std::_String_val<std::_Simple_types<char> >,1><std::allocator<char> const & __ptr64>
PUBLIC	??$destroy@PEAD@?$_Wrap_alloc@V?$allocator@D@std@@@std@@QEAAXPEAPEAD@Z ; std::_Wrap_alloc<std::allocator<char> >::destroy<char * __ptr64>
PUBLIC	??$addressof@D@std@@YAPEADAEAD@Z		; std::addressof<char>
PUBLIC	??$?8V?$allocator@D@std@@V01@@std@@YA_NAEBU?$_Wrap_alloc@V?$allocator@D@std@@@0@0@Z ; std::operator==<std::allocator<char>,std::allocator<char> >
PUBLIC	??$?8DD@std@@YA_NAEBV?$allocator@D@0@0@Z	; std::operator==<char,char>
PUBLIC	??$construct@PEADAEAPEAD@?$_Wrap_alloc@V?$allocator@D@std@@@std@@QEAAXPEAPEADAEAPEAD@Z ; std::_Wrap_alloc<std::allocator<char> >::construct<char * __ptr64,char * __ptr64 & __ptr64>
PUBLIC	??$_Umove@PEAH@?$vector@HV?$allocator@H@std@@@std@@IEAAPEAHPEAH00@Z ; std::vector<int,std::allocator<int> >::_Umove<int * __ptr64>
PUBLIC	??$_Destroy_range@U?$_Wrap_alloc@V?$allocator@H@std@@@std@@@std@@YAXPEAH0AEAU?$_Wrap_alloc@V?$allocator@H@std@@@0@@Z ; std::_Destroy_range<std::_Wrap_alloc<std::allocator<int> > >
PUBLIC	?pubsync@?$basic_streambuf@DU?$char_traits@D@std@@@std@@QEAAHXZ ; std::basic_streambuf<char,std::char_traits<char> >::pubsync
PUBLIC	?sputc@?$basic_streambuf@DU?$char_traits@D@std@@@std@@QEAAHD@Z ; std::basic_streambuf<char,std::char_traits<char> >::sputc
PUBLIC	?sputn@?$basic_streambuf@DU?$char_traits@D@std@@@std@@QEAA_JPEBD_J@Z ; std::basic_streambuf<char,std::char_traits<char> >::sputn
PUBLIC	?_Pninc@?$basic_streambuf@DU?$char_traits@D@std@@@std@@IEAAPEADXZ ; std::basic_streambuf<char,std::char_traits<char> >::_Pninc
PUBLIC	?_Pnavail@?$basic_streambuf@DU?$char_traits@D@std@@@std@@IEBA_JXZ ; std::basic_streambuf<char,std::char_traits<char> >::_Pnavail
PUBLIC	??$?9V?$allocator@D@std@@V01@@std@@YA_NAEBU?$_Wrap_alloc@V?$allocator@D@std@@@0@0@Z ; std::operator!=<std::allocator<char>,std::allocator<char> >
PUBLIC	??$?9DD@std@@YA_NAEBV?$allocator@D@0@0@Z	; std::operator!=<char,char>
PUBLIC	??$_Deallocate@H@std@@YAXPEAH_K@Z		; std::_Deallocate<int>
PUBLIC	??$_Pocca@U?$_Wrap_alloc@V?$allocator@D@std@@@std@@@std@@YAXAEAU?$_Wrap_alloc@V?$allocator@D@std@@@0@AEBU10@@Z ; std::_Pocca<std::_Wrap_alloc<std::allocator<char> > >
PUBLIC	??$_Deallocate@D@std@@YAXPEAD_K@Z		; std::_Deallocate<char>
PUBLIC	??$_Allocate@H@std@@YAPEAH_KPEAH_N@Z		; std::_Allocate<int>
PUBLIC	??$_Allocate@D@std@@YAPEAD_KPEAD_N@Z		; std::_Allocate<char>
PUBLIC	??0?$_Immortalizer@V_Iostream_error_category@std@@@std@@QEAA@XZ ; std::_Immortalizer<std::_Iostream_error_category>::_Immortalizer<std::_Iostream_error_category>
PUBLIC	??1?$_Immortalizer@V_Iostream_error_category@std@@@std@@QEAA@XZ ; std::_Immortalizer<std::_Iostream_error_category>::~_Immortalizer<std::_Iostream_error_category>
PUBLIC	??__F_Static@?1???$_Immortalize@V_Iostream_error_category@std@@@std@@YAAEAV_Iostream_error_category@0@XZ@YAXXZ ; `std::_Immortalize<std::_Iostream_error_category>'::`2'::`dynamic atexit destructor for '_Static''
PUBLIC	??$_Unchecked@V?$_Vector_val@U?$_Simple_types@H@std@@@std@@@std@@YAPEAHV?$_Vector_iterator@V?$_Vector_val@U?$_Simple_types@H@std@@@std@@@0@@Z ; std::_Unchecked<std::_Vector_val<std::_Simple_types<int> > >
PUBLIC	??$_Unchecked@V?$_Vector_val@U?$_Simple_types@H@std@@@std@@@std@@YAPEBHV?$_Vector_const_iterator@V?$_Vector_val@U?$_Simple_types@H@std@@@std@@@0@@Z ; std::_Unchecked<std::_Vector_val<std::_Simple_types<int> > >
PUBLIC	??$_Generate@PEAHV<lambda_c9f975a637c01fa4efefb9d0c2805640>@@@std@@YAXPEAH0V<lambda_c9f975a637c01fa4efefb9d0c2805640>@@@Z ; std::_Generate<int * __ptr64,<lambda_c9f975a637c01fa4efefb9d0c2805640> >
PUBLIC	??$parallel_for_each@V?$_Vector_const_iterator@V?$_Vector_val@U?$_Simple_types@H@std@@@std@@@std@@V<lambda_e91d5317cacb03e6a1467b3ede17adf9>@@Vauto_partitioner@Concurrency@@@Concurrency@@YAXV?$_Vector_const_iterator@V?$_Vector_val@U?$_Simple_types@H@std@@@std@@@std@@0AEBV<lambda_e91d5317cacb03e6a1467b3ede17adf9>@@$$QEAVauto_partitioner@0@@Z ; Concurrency::parallel_for_each<std::_Vector_const_iterator<std::_Vector_val<std::_Simple_types<int> > >,<lambda_e91d5317cacb03e6a1467b3ede17adf9>,Concurrency::auto_partitioner>
PUBLIC	??$_Val_type@PEAH@std@@YAPEAHPEAH@Z		; std::_Val_type<int * __ptr64>
PUBLIC	??$_Ptr_cat@HH@std@@YA?AU_Scalar_ptr_iterator_tag@0@PEAH0@Z ; std::_Ptr_cat<int,int>
PUBLIC	??$_Uninit_def_fill_n@H_KH@std@@YAXPEAH_KAEAU?$_Wrap_alloc@V?$allocator@H@std@@@0@0U_Scalar_ptr_iterator_tag@0@@Z ; std::_Uninit_def_fill_n<int,unsigned __int64,int>
PUBLIC	??$forward@V?$allocator@H@std@@@std@@YA$$QEAV?$allocator@H@0@AEAV10@@Z ; std::forward<std::allocator<int> >
PUBLIC	??$forward@AEBV?$allocator@H@std@@@std@@YAAEBV?$allocator@H@0@AEBV10@@Z ; std::forward<std::allocator<int> const & __ptr64>
PUBLIC	??$forward@V?$allocator@D@std@@@std@@YA$$QEAV?$allocator@D@0@AEAV10@@Z ; std::forward<std::allocator<char> >
PUBLIC	??$forward@AEBV?$allocator@D@std@@@std@@YAAEBV?$allocator@D@0@AEBV10@@Z ; std::forward<std::allocator<char> const & __ptr64>
PUBLIC	??$destroy@PEAD@?$allocator_traits@V?$allocator@D@std@@@std@@SAXAEAV?$allocator@D@1@PEAPEAD@Z ; std::allocator_traits<std::allocator<char> >::destroy<char * __ptr64>
PUBLIC	??$_Addressof@D@std@@YAPEADAEADU?$integral_constant@_N$0A@@0@@Z ; std::_Addressof<char>
PUBLIC	??$forward@AEAPEAD@std@@YAAEAPEADAEAPEAD@Z	; std::forward<char * __ptr64 & __ptr64>
PUBLIC	??$construct@PEADAEAPEAD@?$allocator_traits@V?$allocator@D@std@@@std@@SAXAEAV?$allocator@D@1@PEAPEADAEAPEAD@Z ; std::allocator_traits<std::allocator<char> >::construct<char * __ptr64,char * __ptr64 & __ptr64>
PUBLIC	??$_Uninitialized_move@PEAHPEAHU?$_Wrap_alloc@V?$allocator@H@std@@@std@@@std@@YAPEAHPEAH00AEAU?$_Wrap_alloc@V?$allocator@H@std@@@0@@Z ; std::_Uninitialized_move<int * __ptr64,int * __ptr64,std::_Wrap_alloc<std::allocator<int> > >
PUBLIC	??$_Destroy_range@U?$_Wrap_alloc@V?$allocator@H@std@@@std@@@std@@YAXPEAH0AEAU?$_Wrap_alloc@V?$allocator@H@std@@@0@U_Scalar_ptr_iterator_tag@0@@Z ; std::_Destroy_range<std::_Wrap_alloc<std::allocator<int> > >
PUBLIC	??$_Pocca@U?$_Wrap_alloc@V?$allocator@D@std@@@std@@@std@@YAXAEAU?$_Wrap_alloc@V?$allocator@D@std@@@0@AEBU10@U?$integral_constant@_N$0A@@0@@Z ; std::_Pocca<std::_Wrap_alloc<std::allocator<char> > >
PUBLIC	??$_Maklocstr@D@std@@YAPEADPEBDPEADAEBU_Cvtvec@@@Z ; std::_Maklocstr<char>
PUBLIC	??$_Maklocchr@D@std@@YADDPEADAEBU_Cvtvec@@@Z	; std::_Maklocchr<char>
PUBLIC	??$_Getvals@D@?$numpunct@D@std@@IEAAXDPEBUlconv@@U_Cvtvec@@@Z ; std::numpunct<char>::_Getvals<char>
PUBLIC	??$forward@Vauto_partitioner@Concurrency@@@std@@YA$$QEAVauto_partitioner@Concurrency@@AEAV12@@Z ; std::forward<Concurrency::auto_partitioner>
PUBLIC	??$_Iter_cat@V?$_Vector_const_iterator@V?$_Vector_val@U?$_Simple_types@H@std@@@std@@@std@@@std@@YA?AUrandom_access_iterator_tag@0@AEBV?$_Vector_const_iterator@V?$_Vector_val@U?$_Simple_types@H@std@@@std@@@0@@Z ; std::_Iter_cat<std::_Vector_const_iterator<std::_Vector_val<std::_Simple_types<int> > > >
PUBLIC	??$_Parallel_for_each_impl@V?$_Vector_const_iterator@V?$_Vector_val@U?$_Simple_types@H@std@@@std@@@std@@V<lambda_e91d5317cacb03e6a1467b3ede17adf9>@@Vauto_partitioner@Concurrency@@@Concurrency@@YAXAEBV?$_Vector_const_iterator@V?$_Vector_val@U?$_Simple_types@H@std@@@std@@@std@@0AEBV<lambda_e91d5317cacb03e6a1467b3ede17adf9>@@$$QEAVauto_partitioner@0@Urandom_access_iterator_tag@2@@Z ; Concurrency::_Parallel_for_each_impl<std::_Vector_const_iterator<std::_Vector_val<std::_Simple_types<int> > >,<lambda_e91d5317cacb03e6a1467b3ede17adf9>,Concurrency::auto_partitioner>
PUBLIC	??$_Fill_n@PEAH_KH@std@@YAPEAHPEAH_KAEBH@Z	; std::_Fill_n<int * __ptr64,unsigned __int64,int>
PUBLIC	??$destroy@PEAD@?$allocator@D@std@@QEAAXPEAPEAD@Z ; std::allocator<char>::destroy<char * __ptr64>
PUBLIC	??$construct@PEADAEAPEAD@?$allocator@D@std@@QEAAXPEAPEADAEAPEAD@Z ; std::allocator<char>::construct<char * __ptr64,char * __ptr64 & __ptr64>
PUBLIC	??$_Unchecked@PEAH@std@@YAPEAHPEAH@Z		; std::_Unchecked<int * __ptr64>
PUBLIC	??$_Uninit_move@PEAHPEAHU?$_Wrap_alloc@V?$allocator@H@std@@@std@@@std@@YAPEAHPEAH00AEAU?$_Wrap_alloc@V?$allocator@H@std@@@0@@Z ; std::_Uninit_move<int * __ptr64,int * __ptr64,std::_Wrap_alloc<std::allocator<int> > >
PUBLIC	??$_Rechecked@PEAHPEAH@std@@YAAEAPEAHAEAPEAHPEAH@Z ; std::_Rechecked<int * __ptr64,int * __ptr64>
PUBLIC	??$binary_search@V?$_Vector_const_iterator@V?$_Vector_val@U?$_Simple_types@H@std@@@std@@@std@@H@std@@YA_NV?$_Vector_const_iterator@V?$_Vector_val@U?$_Simple_types@H@std@@@std@@@0@0AEBH@Z ; std::binary_search<std::_Vector_const_iterator<std::_Vector_val<std::_Simple_types<int> > >,int>
PUBLIC	??$_Parallel_for_each_partitioned_impl@V?$_Vector_const_iterator@V?$_Vector_val@U?$_Simple_types@H@std@@@std@@@std@@_JV<lambda_e91d5317cacb03e6a1467b3ede17adf9>@@@Concurrency@@YAXAEBV?$_Vector_const_iterator@V?$_Vector_val@U?$_Simple_types@H@std@@@std@@@std@@_J1AEBV<lambda_e91d5317cacb03e6a1467b3ede17adf9>@@AEBVauto_partitioner@0@@Z ; Concurrency::_Parallel_for_each_partitioned_impl<std::_Vector_const_iterator<std::_Vector_val<std::_Simple_types<int> > >,__int64,<lambda_e91d5317cacb03e6a1467b3ede17adf9> >
PUBLIC	??$_Uninit_move@HHH@std@@YAPEAHPEAH00AEAU?$_Wrap_alloc@V?$allocator@H@std@@@0@0U_Scalar_ptr_iterator_tag@0@@Z ; std::_Uninit_move<int,int,int>
PUBLIC	??$binary_search@V?$_Vector_const_iterator@V?$_Vector_val@U?$_Simple_types@H@std@@@std@@@std@@HU?$less@X@2@@std@@YA_NV?$_Vector_const_iterator@V?$_Vector_val@U?$_Simple_types@H@std@@@std@@@0@0AEBHU?$less@X@0@@Z ; std::binary_search<std::_Vector_const_iterator<std::_Vector_val<std::_Simple_types<int> > >,int,std::less<void> >
PUBLIC	??$_Parallel_chunk_impl@V?$_Parallel_chunk_helper@V?$_Vector_const_iterator@V?$_Vector_val@U?$_Simple_types@H@std@@@std@@@std@@_JV<lambda_e91d5317cacb03e6a1467b3ede17adf9>@@Vauto_partitioner@Concurrency@@$00@Concurrency@@V?$_Vector_const_iterator@V?$_Vector_val@U?$_Simple_types@H@std@@@std@@@std@@_JV<lambda_e91d5317cacb03e6a1467b3ede17adf9>@@AEBVauto_partitioner@2@@Concurrency@@YAXAEBV?$_Vector_const_iterator@V?$_Vector_val@U?$_Simple_types@H@std@@@std@@@std@@_JAEB_JAEBV<lambda_e91d5317cacb03e6a1467b3ede17adf9>@@AEBVauto_partitioner@0@@Z ; Concurrency::_Parallel_chunk_impl<Concurrency::_Parallel_chunk_helper<std::_Vector_const_iterator<std::_Vector_val<std::_Simple_types<int> > >,__int64,<lambda_e91d5317cacb03e6a1467b3ede17adf9>,Concurrency::auto_partitioner,1>,std::_Vector_const_iterator<std::_Vector_val<std::_Simple_types<int> > >,__int64,<lambda_e91d5317cacb03e6a1467b3ede17adf9>,Concurrency::auto_partitioner const & __ptr64>
PUBLIC	??$lower_bound@V?$_Vector_const_iterator@V?$_Vector_val@U?$_Simple_types@H@std@@@std@@@std@@HU?$less@X@2@@std@@YA?AV?$_Vector_const_iterator@V?$_Vector_val@U?$_Simple_types@H@std@@@std@@@0@V10@0AEBHU?$less@X@0@@Z ; std::lower_bound<std::_Vector_const_iterator<std::_Vector_val<std::_Simple_types<int> > >,int,std::less<void> >
PUBLIC	??$?RAEBHAEBH@?$less@X@std@@QEBA_NAEBH0@Z	; std::less<void>::operator()<int const & __ptr64,int const & __ptr64>
PUBLIC	??$_Get_num_chunks@_J@auto_partitioner@Concurrency@@QEBA_J_J@Z ; Concurrency::auto_partitioner::_Get_num_chunks<__int64>
PUBLIC	??0?$_MallocaArrayHolder@V?$task_handle@V?$_Parallel_chunk_helper@V?$_Vector_const_iterator@V?$_Vector_val@U?$_Simple_types@H@std@@@std@@@std@@_JV<lambda_e91d5317cacb03e6a1467b3ede17adf9>@@Vauto_partitioner@Concurrency@@$00@Concurrency@@@Concurrency@@@details@Concurrency@@QEAA@XZ ; Concurrency::details::_MallocaArrayHolder<Concurrency::task_handle<Concurrency::_Parallel_chunk_helper<std::_Vector_const_iterator<std::_Vector_val<std::_Simple_types<int> > >,__int64,<lambda_e91d5317cacb03e6a1467b3ede17adf9>,Concurrency::auto_partitioner,1> > >::_MallocaArrayHolder<Concurrency::task_handle<Concurrency::_Parallel_chunk_helper<std::_Vector_const_iterator<std::_Vector_val<std::_Simple_types<int> > >,__int64,<lambda_e91d5317cacb03e6a1467b3ede17adf9>,Concurrency::auto_partitioner,1> > >
PUBLIC	?_Initialize@?$_MallocaArrayHolder@V?$task_handle@V?$_Parallel_chunk_helper@V?$_Vector_const_iterator@V?$_Vector_val@U?$_Simple_types@H@std@@@std@@@std@@_JV<lambda_e91d5317cacb03e6a1467b3ede17adf9>@@Vauto_partitioner@Concurrency@@$00@Concurrency@@@Concurrency@@@details@Concurrency@@QEAAXPEAV?$task_handle@V?$_Parallel_chunk_helper@V?$_Vector_const_iterator@V?$_Vector_val@U?$_Simple_types@H@std@@@std@@@std@@_JV<lambda_e91d5317cacb03e6a1467b3ede17adf9>@@Vauto_partitioner@Concurrency@@$00@Concurrency@@@3@@Z ; Concurrency::details::_MallocaArrayHolder<Concurrency::task_handle<Concurrency::_Parallel_chunk_helper<std::_Vector_const_iterator<std::_Vector_val<std::_Simple_types<int> > >,__int64,<lambda_e91d5317cacb03e6a1467b3ede17adf9>,Concurrency::auto_partitioner,1> > >::_Initialize
PUBLIC	?_InitOnRawMalloca@?$_MallocaArrayHolder@V?$task_handle@V?$_Parallel_chunk_helper@V?$_Vector_const_iterator@V?$_Vector_val@U?$_Simple_types@H@std@@@std@@@std@@_JV<lambda_e91d5317cacb03e6a1467b3ede17adf9>@@Vauto_partitioner@Concurrency@@$00@Concurrency@@@Concurrency@@@details@Concurrency@@QEAAPEAV?$task_handle@V?$_Parallel_chunk_helper@V?$_Vector_const_iterator@V?$_Vector_val@U?$_Simple_types@H@std@@@std@@@std@@_JV<lambda_e91d5317cacb03e6a1467b3ede17adf9>@@Vauto_partitioner@Concurrency@@$00@Concurrency@@@3@PEAX@Z ; Concurrency::details::_MallocaArrayHolder<Concurrency::task_handle<Concurrency::_Parallel_chunk_helper<std::_Vector_const_iterator<std::_Vector_val<std::_Simple_types<int> > >,__int64,<lambda_e91d5317cacb03e6a1467b3ede17adf9>,Concurrency::auto_partitioner,1> > >::_InitOnRawMalloca
PUBLIC	?_IncrementConstructedElemsCount@?$_MallocaArrayHolder@V?$task_handle@V?$_Parallel_chunk_helper@V?$_Vector_const_iterator@V?$_Vector_val@U?$_Simple_types@H@std@@@std@@@std@@_JV<lambda_e91d5317cacb03e6a1467b3ede17adf9>@@Vauto_partitioner@Concurrency@@$00@Concurrency@@@Concurrency@@@details@Concurrency@@QEAAXXZ ; Concurrency::details::_MallocaArrayHolder<Concurrency::task_handle<Concurrency::_Parallel_chunk_helper<std::_Vector_const_iterator<std::_Vector_val<std::_Simple_types<int> > >,__int64,<lambda_e91d5317cacb03e6a1467b3ede17adf9>,Concurrency::auto_partitioner,1> > >::_IncrementConstructedElemsCount
PUBLIC	??1?$_MallocaArrayHolder@V?$task_handle@V?$_Parallel_chunk_helper@V?$_Vector_const_iterator@V?$_Vector_val@U?$_Simple_types@H@std@@@std@@@std@@_JV<lambda_e91d5317cacb03e6a1467b3ede17adf9>@@Vauto_partitioner@Concurrency@@$00@Concurrency@@@Concurrency@@@details@Concurrency@@UEAA@XZ ; Concurrency::details::_MallocaArrayHolder<Concurrency::task_handle<Concurrency::_Parallel_chunk_helper<std::_Vector_const_iterator<std::_Vector_val<std::_Simple_types<int> > >,__int64,<lambda_e91d5317cacb03e6a1467b3ede17adf9>,Concurrency::auto_partitioner,1> > >::~_MallocaArrayHolder<Concurrency::task_handle<Concurrency::_Parallel_chunk_helper<std::_Vector_const_iterator<std::_Vector_val<std::_Simple_types<int> > >,__int64,<lambda_e91d5317cacb03e6a1467b3ede17adf9>,Concurrency::auto_partitioner,1> > >
PUBLIC	??_G?$_MallocaArrayHolder@V?$task_handle@V?$_Parallel_chunk_helper@V?$_Vector_const_iterator@V?$_Vector_val@U?$_Simple_types@H@std@@@std@@@std@@_JV<lambda_e91d5317cacb03e6a1467b3ede17adf9>@@Vauto_partitioner@Concurrency@@$00@Concurrency@@@Concurrency@@@details@Concurrency@@UEAAPEAXI@Z ; Concurrency::details::_MallocaArrayHolder<Concurrency::task_handle<Concurrency::_Parallel_chunk_helper<std::_Vector_const_iterator<std::_Vector_val<std::_Simple_types<int> > >,__int64,<lambda_e91d5317cacb03e6a1467b3ede17adf9>,Concurrency::auto_partitioner,1> > >::`scalar deleting destructor'
PUBLIC	??0?$task_handle@V?$_Parallel_chunk_helper@V?$_Vector_const_iterator@V?$_Vector_val@U?$_Simple_types@H@std@@@std@@@std@@_JV<lambda_e91d5317cacb03e6a1467b3ede17adf9>@@Vauto_partitioner@Concurrency@@$00@Concurrency@@@Concurrency@@QEAA@AEBV?$_Parallel_chunk_helper@V?$_Vector_const_iterator@V?$_Vector_val@U?$_Simple_types@H@std@@@std@@@std@@_JV<lambda_e91d5317cacb03e6a1467b3ede17adf9>@@Vauto_partitioner@Concurrency@@$00@1@@Z ; Concurrency::task_handle<Concurrency::_Parallel_chunk_helper<std::_Vector_const_iterator<std::_Vector_val<std::_Simple_types<int> > >,__int64,<lambda_e91d5317cacb03e6a1467b3ede17adf9>,Concurrency::auto_partitioner,1> >::task_handle<Concurrency::_Parallel_chunk_helper<std::_Vector_const_iterator<std::_Vector_val<std::_Simple_types<int> > >,__int64,<lambda_e91d5317cacb03e6a1467b3ede17adf9>,Concurrency::auto_partitioner,1> >
PUBLIC	??1?$task_handle@V?$_Parallel_chunk_helper@V?$_Vector_const_iterator@V?$_Vector_val@U?$_Simple_types@H@std@@@std@@@std@@_JV<lambda_e91d5317cacb03e6a1467b3ede17adf9>@@Vauto_partitioner@Concurrency@@$00@Concurrency@@@Concurrency@@UEAA@XZ ; Concurrency::task_handle<Concurrency::_Parallel_chunk_helper<std::_Vector_const_iterator<std::_Vector_val<std::_Simple_types<int> > >,__int64,<lambda_e91d5317cacb03e6a1467b3ede17adf9>,Concurrency::auto_partitioner,1> >::~task_handle<Concurrency::_Parallel_chunk_helper<std::_Vector_const_iterator<std::_Vector_val<std::_Simple_types<int> > >,__int64,<lambda_e91d5317cacb03e6a1467b3ede17adf9>,Concurrency::auto_partitioner,1> >
PUBLIC	??R?$task_handle@V?$_Parallel_chunk_helper@V?$_Vector_const_iterator@V?$_Vector_val@U?$_Simple_types@H@std@@@std@@@std@@_JV<lambda_e91d5317cacb03e6a1467b3ede17adf9>@@Vauto_partitioner@Concurrency@@$00@Concurrency@@@Concurrency@@QEBAXXZ ; Concurrency::task_handle<Concurrency::_Parallel_chunk_helper<std::_Vector_const_iterator<std::_Vector_val<std::_Simple_types<int> > >,__int64,<lambda_e91d5317cacb03e6a1467b3ede17adf9>,Concurrency::auto_partitioner,1> >::operator()
PUBLIC	??0?$_Parallel_chunk_helper@V?$_Vector_const_iterator@V?$_Vector_val@U?$_Simple_types@H@std@@@std@@@std@@_JV<lambda_e91d5317cacb03e6a1467b3ede17adf9>@@Vauto_partitioner@Concurrency@@$00@Concurrency@@QEAA@_JAEBV?$_Vector_const_iterator@V?$_Vector_val@U?$_Simple_types@H@std@@@std@@@std@@00AEB_JAEBV<lambda_e91d5317cacb03e6a1467b3ede17adf9>@@AEBVauto_partitioner@1@QEAV?$_Worker_proxy@_J@1@@Z ; Concurrency::_Parallel_chunk_helper<std::_Vector_const_iterator<std::_Vector_val<std::_Simple_types<int> > >,__int64,<lambda_e91d5317cacb03e6a1467b3ede17adf9>,Concurrency::auto_partitioner,1>::_Parallel_chunk_helper<std::_Vector_const_iterator<std::_Vector_val<std::_Simple_types<int> > >,__int64,<lambda_e91d5317cacb03e6a1467b3ede17adf9>,Concurrency::auto_partitioner,1>
PUBLIC	??0?$_Parallel_chunk_helper@V?$_Vector_const_iterator@V?$_Vector_val@U?$_Simple_types@H@std@@@std@@@std@@_JV<lambda_e91d5317cacb03e6a1467b3ede17adf9>@@Vauto_partitioner@Concurrency@@$00@Concurrency@@QEAA@AEBV?$_Vector_const_iterator@V?$_Vector_val@U?$_Simple_types@H@std@@@std@@@std@@AEB_JAEBV<lambda_e91d5317cacb03e6a1467b3ede17adf9>@@AEBV?$_Range@_J@1@QEAV?$_Worker_proxy@_J@1@@Z ; Concurrency::_Parallel_chunk_helper<std::_Vector_const_iterator<std::_Vector_val<std::_Simple_types<int> > >,__int64,<lambda_e91d5317cacb03e6a1467b3ede17adf9>,Concurrency::auto_partitioner,1>::_Parallel_chunk_helper<std::_Vector_const_iterator<std::_Vector_val<std::_Simple_types<int> > >,__int64,<lambda_e91d5317cacb03e6a1467b3ede17adf9>,Concurrency::auto_partitioner,1>
PUBLIC	??R?$_Parallel_chunk_helper@V?$_Vector_const_iterator@V?$_Vector_val@U?$_Simple_types@H@std@@@std@@@std@@_JV<lambda_e91d5317cacb03e6a1467b3ede17adf9>@@Vauto_partitioner@Concurrency@@$00@Concurrency@@QEBAXXZ ; Concurrency::_Parallel_chunk_helper<std::_Vector_const_iterator<std::_Vector_val<std::_Simple_types<int> > >,__int64,<lambda_e91d5317cacb03e6a1467b3ede17adf9>,Concurrency::auto_partitioner,1>::operator()
PUBLIC	??_G?$task_handle@V?$_Parallel_chunk_helper@V?$_Vector_const_iterator@V?$_Vector_val@U?$_Simple_types@H@std@@@std@@@std@@_JV<lambda_e91d5317cacb03e6a1467b3ede17adf9>@@Vauto_partitioner@Concurrency@@$00@Concurrency@@@Concurrency@@UEAAPEAXI@Z ; Concurrency::task_handle<Concurrency::_Parallel_chunk_helper<std::_Vector_const_iterator<std::_Vector_val<std::_Simple_types<int> > >,__int64,<lambda_e91d5317cacb03e6a1467b3ede17adf9>,Concurrency::auto_partitioner,1> >::`scalar deleting destructor'
PUBLIC	??$forward@AEBVauto_partitioner@Concurrency@@@std@@YAAEBVauto_partitioner@Concurrency@@AEBV12@@Z ; std::forward<Concurrency::auto_partitioner const & __ptr64>
PUBLIC	??$_Parallel_chunk_task_group_run@V?$_Parallel_chunk_helper@V?$_Vector_const_iterator@V?$_Vector_val@U?$_Simple_types@H@std@@@std@@@std@@_JV<lambda_e91d5317cacb03e6a1467b3ede17adf9>@@Vauto_partitioner@Concurrency@@$00@Concurrency@@_JVauto_partitioner@2@@Concurrency@@YAXAEAVstructured_task_group@0@PEAV?$task_handle@V?$_Parallel_chunk_helper@V?$_Vector_const_iterator@V?$_Vector_val@U?$_Simple_types@H@std@@@std@@@std@@_JV<lambda_e91d5317cacb03e6a1467b3ede17adf9>@@Vauto_partitioner@Concurrency@@$00@Concurrency@@@0@AEBVauto_partitioner@0@_J@Z ; Concurrency::_Parallel_chunk_task_group_run<Concurrency::_Parallel_chunk_helper<std::_Vector_const_iterator<std::_Vector_val<std::_Simple_types<int> > >,__int64,<lambda_e91d5317cacb03e6a1467b3ede17adf9>,Concurrency::auto_partitioner,1>,__int64,Concurrency::auto_partitioner>
PUBLIC	??$run_and_wait@V?$_Parallel_chunk_helper@V?$_Vector_const_iterator@V?$_Vector_val@U?$_Simple_types@H@std@@@std@@@std@@_JV<lambda_e91d5317cacb03e6a1467b3ede17adf9>@@Vauto_partitioner@Concurrency@@$00@Concurrency@@@structured_task_group@Concurrency@@QEAA?AW4task_group_status@1@AEAV?$task_handle@V?$_Parallel_chunk_helper@V?$_Vector_const_iterator@V?$_Vector_val@U?$_Simple_types@H@std@@@std@@@std@@_JV<lambda_e91d5317cacb03e6a1467b3ede17adf9>@@Vauto_partitioner@Concurrency@@$00@Concurrency@@@1@@Z ; Concurrency::structured_task_group::run_and_wait<Concurrency::_Parallel_chunk_helper<std::_Vector_const_iterator<std::_Vector_val<std::_Simple_types<int> > >,__int64,<lambda_e91d5317cacb03e6a1467b3ede17adf9>,Concurrency::auto_partitioner,1> >
PUBLIC	??$_InvokeBridge@V?$task_handle@V?$_Parallel_chunk_helper@V?$_Vector_const_iterator@V?$_Vector_val@U?$_Simple_types@H@std@@@std@@@std@@_JV<lambda_e91d5317cacb03e6a1467b3ede17adf9>@@Vauto_partitioner@Concurrency@@$00@Concurrency@@@Concurrency@@@_UnrealizedChore@details@Concurrency@@KAXPEAX@Z ; Concurrency::details::_UnrealizedChore::_InvokeBridge<Concurrency::task_handle<Concurrency::_Parallel_chunk_helper<std::_Vector_const_iterator<std::_Vector_val<std::_Simple_types<int> > >,__int64,<lambda_e91d5317cacb03e6a1467b3ede17adf9>,Concurrency::auto_partitioner,1> > >
PUBLIC	??$_Dist_type@V?$_Vector_const_iterator@V?$_Vector_val@U?$_Simple_types@H@std@@@std@@@std@@@std@@YAPEA_JV?$_Vector_const_iterator@V?$_Vector_val@U?$_Simple_types@H@std@@@std@@@0@@Z ; std::_Dist_type<std::_Vector_const_iterator<std::_Vector_val<std::_Simple_types<int> > > >
PUBLIC	??$_Lower_bound@PEBHH_JU?$less@X@std@@@std@@YAPEBHPEBH0AEBHU?$less@X@0@PEA_J@Z ; std::_Lower_bound<int const * __ptr64,int,__int64,std::less<void> >
PUBLIC	??$_Rechecked@V?$_Vector_val@U?$_Simple_types@H@std@@@std@@@std@@YAAEAV?$_Vector_const_iterator@V?$_Vector_val@U?$_Simple_types@H@std@@@std@@@0@AEAV10@PEBH@Z ; std::_Rechecked<std::_Vector_val<std::_Simple_types<int> > >
PUBLIC	??$run@V?$_Parallel_chunk_helper@V?$_Vector_const_iterator@V?$_Vector_val@U?$_Simple_types@H@std@@@std@@@std@@_JV<lambda_e91d5317cacb03e6a1467b3ede17adf9>@@Vauto_partitioner@Concurrency@@$00@Concurrency@@@structured_task_group@Concurrency@@QEAAXAEAV?$task_handle@V?$_Parallel_chunk_helper@V?$_Vector_const_iterator@V?$_Vector_val@U?$_Simple_types@H@std@@@std@@@std@@_JV<lambda_e91d5317cacb03e6a1467b3ede17adf9>@@Vauto_partitioner@Concurrency@@$00@Concurrency@@@1@@Z ; Concurrency::structured_task_group::run<Concurrency::_Parallel_chunk_helper<std::_Vector_const_iterator<std::_Vector_val<std::_Simple_types<int> > >,__int64,<lambda_e91d5317cacb03e6a1467b3ede17adf9>,Concurrency::auto_partitioner,1> >
PUBLIC	??0?$_Range@_J@Concurrency@@QEAA@_J0@Z		; Concurrency::_Range<__int64>::_Range<__int64>
PUBLIC	?_Send_range@?$_Range@_J@Concurrency@@QEAAXPEAV12@@Z ; Concurrency::_Range<__int64>::_Send_range
PUBLIC	?_Steal_range@?$_Range@_J@Concurrency@@QEAAXPEAV12@@Z ; Concurrency::_Range<__int64>::_Steal_range
PUBLIC	?_Number_of_iterations@?$_Range@_J@Concurrency@@QEBA_JXZ ; Concurrency::_Range<__int64>::_Number_of_iterations
PUBLIC	?_Get_current_iteration@?$_Range@_J@Concurrency@@QEBA_JXZ ; Concurrency::_Range<__int64>::_Get_current_iteration
PUBLIC	?_Set_current_iteration@?$_Range@_J@Concurrency@@QEAAX_J@Z ; Concurrency::_Range<__int64>::_Set_current_iteration
PUBLIC	?_Get_last_iteration@?$_Range@_J@Concurrency@@QEBA_JXZ ; Concurrency::_Range<__int64>::_Get_last_iteration
PUBLIC	?_Set_last_iteration@?$_Range@_J@Concurrency@@QEAAX_J@Z ; Concurrency::_Range<__int64>::_Set_last_iteration
PUBLIC	??0?$_Worker_proxy@_J@Concurrency@@QEAA@PEAV01@@Z ; Concurrency::_Worker_proxy<__int64>::_Worker_proxy<__int64>
PUBLIC	??1?$_Worker_proxy@_J@Concurrency@@QEAA@XZ	; Concurrency::_Worker_proxy<__int64>::~_Worker_proxy<__int64>
PUBLIC	?_Receive_range@?$_Worker_proxy@_J@Concurrency@@QEAA_NPEAV?$_Range@_J@2@@Z ; Concurrency::_Worker_proxy<__int64>::_Receive_range
PUBLIC	?_Send_range@?$_Worker_proxy@_J@Concurrency@@QEAA_NPEAV?$_Range@_J@2@@Z ; Concurrency::_Worker_proxy<__int64>::_Send_range
PUBLIC	?_Enable_intrusive_steal@?$_Worker_proxy@_J@Concurrency@@QEAAXPEAV?$_Range@_J@2@@Z ; Concurrency::_Worker_proxy<__int64>::_Enable_intrusive_steal
PUBLIC	?_Disable_intrusive_steal@?$_Worker_proxy@_J@Concurrency@@QEAAXXZ ; Concurrency::_Worker_proxy<__int64>::_Disable_intrusive_steal
PUBLIC	?_Is_helper_registered@?$_Worker_proxy@_J@Concurrency@@QEAA_NXZ ; Concurrency::_Worker_proxy<__int64>::_Is_helper_registered
PUBLIC	?_Is_done@?$_Worker_proxy@_J@Concurrency@@QEAA_NXZ ; Concurrency::_Worker_proxy<__int64>::_Is_done
PUBLIC	?_Set_done@?$_Worker_proxy@_J@Concurrency@@QEAAXXZ ; Concurrency::_Worker_proxy<__int64>::_Set_done
PUBLIC	?_Set_tree_done@?$_Worker_proxy@_J@Concurrency@@QEAAXXZ ; Concurrency::_Worker_proxy<__int64>::_Set_tree_done
PUBLIC	?_Is_beacon_signaled@?$_Worker_proxy@_J@Concurrency@@QEAA_NXZ ; Concurrency::_Worker_proxy<__int64>::_Is_beacon_signaled
PUBLIC	?_Verify_beacon_cancellation@?$_Worker_proxy@_J@Concurrency@@QEAA_NXZ ; Concurrency::_Worker_proxy<__int64>::_Verify_beacon_cancellation
PUBLIC	?_Wait_on_intrusive_steal@?$_Worker_proxy@_J@Concurrency@@AEAAXXZ ; Concurrency::_Worker_proxy<__int64>::_Wait_on_intrusive_steal
PUBLIC	?_NotifyCancel@?$_Worker_proxy@_J@Concurrency@@AEAAXXZ ; Concurrency::_Worker_proxy<__int64>::_NotifyCancel
PUBLIC	?_Propagate_cancel@?$_Worker_proxy@_J@Concurrency@@AEAAXXZ ; Concurrency::_Worker_proxy<__int64>::_Propagate_cancel
PUBLIC	?_Invoke@?$_Parallel_chunk_helper_invoke@V?$_Vector_const_iterator@V?$_Vector_val@U?$_Simple_types@H@std@@@std@@@std@@_JV<lambda_e91d5317cacb03e6a1467b3ede17adf9>@@$00@Concurrency@@SAXAEBV?$_Vector_const_iterator@V?$_Vector_val@U?$_Simple_types@H@std@@@std@@@std@@AEA_JAEBV<lambda_e91d5317cacb03e6a1467b3ede17adf9>@@@Z ; Concurrency::_Parallel_chunk_helper_invoke<std::_Vector_const_iterator<std::_Vector_val<std::_Simple_types<int> > >,__int64,<lambda_e91d5317cacb03e6a1467b3ede17adf9>,1>::_Invoke
PUBLIC	?_GetAllocationSize@?$_MallocaListHolder@V?$task_handle@V?$_Parallel_chunk_helper@V?$_Vector_const_iterator@V?$_Vector_val@U?$_Simple_types@H@std@@@std@@@std@@_JV<lambda_e91d5317cacb03e6a1467b3ede17adf9>@@Vauto_partitioner@Concurrency@@$00@Concurrency@@@Concurrency@@@details@Concurrency@@QEBA_KXZ ; Concurrency::details::_MallocaListHolder<Concurrency::task_handle<Concurrency::_Parallel_chunk_helper<std::_Vector_const_iterator<std::_Vector_val<std::_Simple_types<int> > >,__int64,<lambda_e91d5317cacb03e6a1467b3ede17adf9>,Concurrency::auto_partitioner,1> > >::_GetAllocationSize
PUBLIC	??0?$_MallocaListHolder@V?$task_handle@V?$_Parallel_chunk_helper@V?$_Vector_const_iterator@V?$_Vector_val@U?$_Simple_types@H@std@@@std@@@std@@_JV<lambda_e91d5317cacb03e6a1467b3ede17adf9>@@Vauto_partitioner@Concurrency@@$00@Concurrency@@@Concurrency@@@details@Concurrency@@QEAA@XZ ; Concurrency::details::_MallocaListHolder<Concurrency::task_handle<Concurrency::_Parallel_chunk_helper<std::_Vector_const_iterator<std::_Vector_val<std::_Simple_types<int> > >,__int64,<lambda_e91d5317cacb03e6a1467b3ede17adf9>,Concurrency::auto_partitioner,1> > >::_MallocaListHolder<Concurrency::task_handle<Concurrency::_Parallel_chunk_helper<std::_Vector_const_iterator<std::_Vector_val<std::_Simple_types<int> > >,__int64,<lambda_e91d5317cacb03e6a1467b3ede17adf9>,Concurrency::auto_partitioner,1> > >
PUBLIC	?_AddNode@?$_MallocaListHolder@V?$task_handle@V?$_Parallel_chunk_helper@V?$_Vector_const_iterator@V?$_Vector_val@U?$_Simple_types@H@std@@@std@@@std@@_JV<lambda_e91d5317cacb03e6a1467b3ede17adf9>@@Vauto_partitioner@Concurrency@@$00@Concurrency@@@Concurrency@@@details@Concurrency@@QEAAXPEAV?$task_handle@V?$_Parallel_chunk_helper@V?$_Vector_const_iterator@V?$_Vector_val@U?$_Simple_types@H@std@@@std@@@std@@_JV<lambda_e91d5317cacb03e6a1467b3ede17adf9>@@Vauto_partitioner@Concurrency@@$00@Concurrency@@@3@@Z ; Concurrency::details::_MallocaListHolder<Concurrency::task_handle<Concurrency::_Parallel_chunk_helper<std::_Vector_const_iterator<std::_Vector_val<std::_Simple_types<int> > >,__int64,<lambda_e91d5317cacb03e6a1467b3ede17adf9>,Concurrency::auto_partitioner,1> > >::_AddNode
PUBLIC	?_AddRawMallocaNode@?$_MallocaListHolder@V?$task_handle@V?$_Parallel_chunk_helper@V?$_Vector_const_iterator@V?$_Vector_val@U?$_Simple_types@H@std@@@std@@@std@@_JV<lambda_e91d5317cacb03e6a1467b3ede17adf9>@@Vauto_partitioner@Concurrency@@$00@Concurrency@@@Concurrency@@@details@Concurrency@@QEAAPEAV?$task_handle@V?$_Parallel_chunk_helper@V?$_Vector_const_iterator@V?$_Vector_val@U?$_Simple_types@H@std@@@std@@@std@@_JV<lambda_e91d5317cacb03e6a1467b3ede17adf9>@@Vauto_partitioner@Concurrency@@$00@Concurrency@@@3@PEAX@Z ; Concurrency::details::_MallocaListHolder<Concurrency::task_handle<Concurrency::_Parallel_chunk_helper<std::_Vector_const_iterator<std::_Vector_val<std::_Simple_types<int> > >,__int64,<lambda_e91d5317cacb03e6a1467b3ede17adf9>,Concurrency::auto_partitioner,1> > >::_AddRawMallocaNode
PUBLIC	??1?$_MallocaListHolder@V?$task_handle@V?$_Parallel_chunk_helper@V?$_Vector_const_iterator@V?$_Vector_val@U?$_Simple_types@H@std@@@std@@@std@@_JV<lambda_e91d5317cacb03e6a1467b3ede17adf9>@@Vauto_partitioner@Concurrency@@$00@Concurrency@@@Concurrency@@@details@Concurrency@@UEAA@XZ ; Concurrency::details::_MallocaListHolder<Concurrency::task_handle<Concurrency::_Parallel_chunk_helper<std::_Vector_const_iterator<std::_Vector_val<std::_Simple_types<int> > >,__int64,<lambda_e91d5317cacb03e6a1467b3ede17adf9>,Concurrency::auto_partitioner,1> > >::~_MallocaListHolder<Concurrency::task_handle<Concurrency::_Parallel_chunk_helper<std::_Vector_const_iterator<std::_Vector_val<std::_Simple_types<int> > >,__int64,<lambda_e91d5317cacb03e6a1467b3ede17adf9>,Concurrency::auto_partitioner,1> > >
PUBLIC	??_G?$_MallocaListHolder@V?$task_handle@V?$_Parallel_chunk_helper@V?$_Vector_const_iterator@V?$_Vector_val@U?$_Simple_types@H@std@@@std@@@std@@_JV<lambda_e91d5317cacb03e6a1467b3ede17adf9>@@Vauto_partitioner@Concurrency@@$00@Concurrency@@@Concurrency@@@details@Concurrency@@UEAAPEAXI@Z ; Concurrency::details::_MallocaListHolder<Concurrency::task_handle<Concurrency::_Parallel_chunk_helper<std::_Vector_const_iterator<std::_Vector_val<std::_Simple_types<int> > >,__int64,<lambda_e91d5317cacb03e6a1467b3ede17adf9>,Concurrency::auto_partitioner,1> > >::`scalar deleting destructor'
PUBLIC	??0?$_SpinWait@$00@details@Concurrency@@QEAA@P6AXXZ@Z ; Concurrency::details::_SpinWait<1>::_SpinWait<1>
PUBLIC	?_SetSpinCount@?$_SpinWait@$00@details@Concurrency@@QEAAXI@Z ; Concurrency::details::_SpinWait<1>::_SetSpinCount
PUBLIC	?_SpinOnce@?$_SpinWait@$00@details@Concurrency@@QEAA_NXZ ; Concurrency::details::_SpinWait<1>::_SpinOnce
PUBLIC	?_DoYield@?$_SpinWait@$00@details@Concurrency@@IEAAXXZ ; Concurrency::details::_SpinWait<1>::_DoYield
PUBLIC	?_Reset@?$_SpinWait@$00@details@Concurrency@@IEAAXXZ ; Concurrency::details::_SpinWait<1>::_Reset
PUBLIC	?_NumberOfSpins@?$_SpinWait@$00@details@Concurrency@@IEAAKXZ ; Concurrency::details::_SpinWait<1>::_NumberOfSpins
PUBLIC	?_ShouldSpinAgain@?$_SpinWait@$00@details@Concurrency@@IEAA_NXZ ; Concurrency::details::_SpinWait<1>::_ShouldSpinAgain
PUBLIC	??$_Distance@PEBH_J@std@@YAXPEBH0AEA_J@Z	; std::_Distance<int const * __ptr64,__int64>
PUBLIC	??$advance@PEBH_J@std@@YAXAEAPEBH_J@Z		; std::advance<int const * __ptr64,__int64>
PUBLIC	??$_Iter_cat@PEBH@std@@YA?AUrandom_access_iterator_tag@0@AEBQEBH@Z ; std::_Iter_cat<int const * __ptr64>
PUBLIC	??$_Distance2@PEBH_J@std@@YAXPEBH0AEA_JUrandom_access_iterator_tag@0@@Z ; std::_Distance2<int const * __ptr64,__int64>
PUBLIC	??$_Advance@PEBH_J@std@@YAXAEAPEBH_JUrandom_access_iterator_tag@0@@Z ; std::_Advance<int const * __ptr64,__int64>
PUBLIC	?_OptionsStorage@?1??__local_stdio_printf_options@@9@4_KA ; `__local_stdio_printf_options'::`2'::_OptionsStorage
PUBLIC	??_7exception@std@@6B@				; std::exception::`vftable'
PUBLIC	??_C@_0BC@EOODALEL@Unknown?5exception?$AA@	; `string'
PUBLIC	??_7bad_alloc@std@@6B@				; std::bad_alloc::`vftable'
PUBLIC	??_C@_0P@GHFPNOJB@bad?5allocation?$AA@		; `string'
PUBLIC	??_7runtime_error@std@@6B@			; std::runtime_error::`vftable'
PUBLIC	??_7bad_cast@std@@6B@				; std::bad_cast::`vftable'
PUBLIC	??_C@_08EPJLHIJG@bad?5cast?$AA@			; `string'
PUBLIC	_TI2?AVruntime_error@std@@
PUBLIC	_CTA2?AVruntime_error@std@@
PUBLIC	??_R0?AVruntime_error@std@@@8			; std::runtime_error `RTTI Type Descriptor'
PUBLIC	_CT??_R0?AVruntime_error@std@@@824
PUBLIC	??_R0?AVexception@std@@@8			; std::exception `RTTI Type Descriptor'
PUBLIC	_CT??_R0?AVexception@std@@@824
PUBLIC	??_C@_0BA@ELKIONDK@bad?5locale?5name?$AA@	; `string'
PUBLIC	??_C@_05LAPONLG@false?$AA@			; `string'
PUBLIC	??_C@_04LOAJBDKD@true?$AA@			; `string'
PUBLIC	??_7_Facet_base@std@@6B@			; std::_Facet_base::`vftable'
PUBLIC	??_7facet@locale@std@@6B@			; std::locale::facet::`vftable'
PUBLIC	??_C@_00CNPNBAHC@?$AA@				; `string'
PUBLIC	??_7ctype_base@std@@6B@				; std::ctype_base::`vftable'
PUBLIC	??_7?$ctype@D@std@@6B@				; std::ctype<char>::`vftable'
PUBLIC	??_7error_category@std@@6B@			; std::error_category::`vftable'
PUBLIC	??_7_System_error@std@@6B@			; std::_System_error::`vftable'
PUBLIC	??_C@_02LMMGGCAJ@?3?5?$AA@			; `string'
PUBLIC	??_7system_error@std@@6B@			; std::system_error::`vftable'
PUBLIC	??_7_Generic_error_category@std@@6B@		; std::_Generic_error_category::`vftable'
PUBLIC	??_C@_07DCLBNMLN@generic?$AA@			; `string'
PUBLIC	??_7_Iostream_error_category@std@@6B@		; std::_Iostream_error_category::`vftable'
PUBLIC	??_C@_08LLGCOLLL@iostream?$AA@			; `string'
PUBLIC	??_C@_0BG@PADBLCHM@iostream?5stream?5error?$AA@	; `string'
PUBLIC	??_7failure@ios_base@std@@6B@			; std::ios_base::failure::`vftable'
PUBLIC	_TI5?AVfailure@ios_base@std@@
PUBLIC	_CTA5?AVfailure@ios_base@std@@
PUBLIC	??_R0?AVfailure@ios_base@std@@@8		; std::ios_base::failure `RTTI Type Descriptor'
PUBLIC	_CT??_R0?AVfailure@ios_base@std@@@840
PUBLIC	??_R0?AVsystem_error@std@@@8			; std::system_error `RTTI Type Descriptor'
PUBLIC	_CT??_R0?AVsystem_error@std@@@840
PUBLIC	??_R0?AV_System_error@std@@@8			; std::_System_error `RTTI Type Descriptor'
PUBLIC	_CT??_R0?AV_System_error@std@@@840
PUBLIC	??_C@_0BF@PHHKMMFD@ios_base?3?3badbit?5set?$AA@	; `string'
PUBLIC	??_C@_0BG@FMKFHCIL@ios_base?3?3failbit?5set?$AA@ ; `string'
PUBLIC	??_C@_0BF@OOHOMBOF@ios_base?3?3eofbit?5set?$AA@	; `string'
PUBLIC	??_7_Chore@details@Concurrency@@6B@		; Concurrency::details::_Chore::`vftable'
PUBLIC	??_7_UnrealizedChore@details@Concurrency@@6B@	; Concurrency::details::_UnrealizedChore::`vftable'
PUBLIC	??_C@_02LBACNBCJ@b?6?$AA@			; `string'
PUBLIC	??_C@_06LADKOPEH@error?6?$AA@			; `string'
PUBLIC	?id@?$num_put@DV?$ostreambuf_iterator@DU?$char_traits@D@std@@@std@@@std@@2V0locale@2@A ; std::num_put<char,std::ostreambuf_iterator<char,std::char_traits<char> > >::id
PUBLIC	??_7?$num_put@DV?$ostreambuf_iterator@DU?$char_traits@D@std@@@std@@@std@@6B@ ; std::num_put<char,std::ostreambuf_iterator<char,std::char_traits<char> > >::`vftable'
PUBLIC	??_C@_02BBAHNLBA@?$CFp?$AA@			; `string'
PUBLIC	?id@?$numpunct@D@std@@2V0locale@2@A		; std::numpunct<char>::id
PUBLIC	??_7?$numpunct@D@std@@6B@			; std::numpunct<char>::`vftable'
PUBLIC	??_C@_0BD@OLBABOEK@vector?$DMT?$DO?5too?5long?$AA@ ; `string'
PUBLIC	??_C@_02MDKMJEGG@eE?$AA@			; `string'
PUBLIC	??_C@_02OOPEBDOJ@pP?$AA@			; `string'
PUBLIC	??_C@_0BI@CFPLBAOH@invalid?5string?5position?$AA@ ; `string'
PUBLIC	??_C@_0BA@JFNIOLAK@string?5too?5long?$AA@	; `string'
PUBLIC	?_Psave@?$_Facetptr@V?$ctype@D@std@@@std@@2PEBVfacet@locale@2@EB ; std::_Facetptr<std::ctype<char> >::_Psave
PUBLIC	_TI2?AVbad_cast@std@@
PUBLIC	_CTA2?AVbad_cast@std@@
PUBLIC	??_R0?AVbad_cast@std@@@8			; std::bad_cast `RTTI Type Descriptor'
PUBLIC	_CT??_R0?AVbad_cast@std@@@824
PUBLIC	?_Static@?1???$_Immortalize@V_Iostream_error_category@std@@@std@@YAAEAV_Iostream_error_category@1@XZ@4U?$_Immortalizer@V_Iostream_error_category@std@@@1@A ; `std::_Immortalize<std::_Iostream_error_category>'::`2'::_Static
PUBLIC	?$TSS0@?1???$_Immortalize@V_Iostream_error_category@std@@@std@@YAAEAV_Iostream_error_category@1@XZ@4HA ; TSS0<`template-parameter-2',unsigned int,std::V_Iostream_error_category::mortalize>
PUBLIC	?_Psave@?$_Facetptr@V?$num_put@DV?$ostreambuf_iterator@DU?$char_traits@D@std@@@std@@@std@@@std@@2PEBVfacet@locale@2@EB ; std::_Facetptr<std::num_put<char,std::ostreambuf_iterator<char,std::char_traits<char> > > >::_Psave
PUBLIC	?_Psave@?$_Facetptr@V?$numpunct@D@std@@@std@@2PEBVfacet@locale@2@EB ; std::_Facetptr<std::numpunct<char> >::_Psave
PUBLIC	??_7?$_MallocaArrayHolder@V?$task_handle@V?$_Parallel_chunk_helper@V?$_Vector_const_iterator@V?$_Vector_val@U?$_Simple_types@H@std@@@std@@@std@@_JV<lambda_e91d5317cacb03e6a1467b3ede17adf9>@@Vauto_partitioner@Concurrency@@$00@Concurrency@@@Concurrency@@@details@Concurrency@@6B@ ; Concurrency::details::_MallocaArrayHolder<Concurrency::task_handle<Concurrency::_Parallel_chunk_helper<std::_Vector_const_iterator<std::_Vector_val<std::_Simple_types<int> > >,__int64,<lambda_e91d5317cacb03e6a1467b3ede17adf9>,Concurrency::auto_partitioner,1> > >::`vftable'
PUBLIC	??_7?$task_handle@V?$_Parallel_chunk_helper@V?$_Vector_const_iterator@V?$_Vector_val@U?$_Simple_types@H@std@@@std@@@std@@_JV<lambda_e91d5317cacb03e6a1467b3ede17adf9>@@Vauto_partitioner@Concurrency@@$00@Concurrency@@@Concurrency@@6B@ ; Concurrency::task_handle<Concurrency::_Parallel_chunk_helper<std::_Vector_const_iterator<std::_Vector_val<std::_Simple_types<int> > >,__int64,<lambda_e91d5317cacb03e6a1467b3ede17adf9>,Concurrency::auto_partitioner,1> >::`vftable'
PUBLIC	_TI2?AVbad_alloc@std@@
PUBLIC	_CTA2?AVbad_alloc@std@@
PUBLIC	??_R0?AVbad_alloc@std@@@8			; std::bad_alloc `RTTI Type Descriptor'
PUBLIC	_CT??_R0?AVbad_alloc@std@@@824
PUBLIC	??_7?$_MallocaListHolder@V?$task_handle@V?$_Parallel_chunk_helper@V?$_Vector_const_iterator@V?$_Vector_val@U?$_Simple_types@H@std@@@std@@@std@@_JV<lambda_e91d5317cacb03e6a1467b3ede17adf9>@@Vauto_partitioner@Concurrency@@$00@Concurrency@@@Concurrency@@@details@Concurrency@@6B@ ; Concurrency::details::_MallocaListHolder<Concurrency::task_handle<Concurrency::_Parallel_chunk_helper<std::_Vector_const_iterator<std::_Vector_val<std::_Simple_types<int> > >,__int64,<lambda_e91d5317cacb03e6a1467b3ede17adf9>,Concurrency::auto_partitioner,1> > >::`vftable'
PUBLIC	??_R4exception@std@@6B@				; std::exception::`RTTI Complete Object Locator'
PUBLIC	??_R3exception@std@@8				; std::exception::`RTTI Class Hierarchy Descriptor'
PUBLIC	??_R2exception@std@@8				; std::exception::`RTTI Base Class Array'
PUBLIC	??_R1A@?0A@EA@exception@std@@8			; std::exception::`RTTI Base Class Descriptor at (0,-1,0,64)'
PUBLIC	??_R4bad_alloc@std@@6B@				; std::bad_alloc::`RTTI Complete Object Locator'
PUBLIC	??_R3bad_alloc@std@@8				; std::bad_alloc::`RTTI Class Hierarchy Descriptor'
PUBLIC	??_R2bad_alloc@std@@8				; std::bad_alloc::`RTTI Base Class Array'
PUBLIC	??_R1A@?0A@EA@bad_alloc@std@@8			; std::bad_alloc::`RTTI Base Class Descriptor at (0,-1,0,64)'
PUBLIC	??_R4runtime_error@std@@6B@			; std::runtime_error::`RTTI Complete Object Locator'
PUBLIC	??_R3runtime_error@std@@8			; std::runtime_error::`RTTI Class Hierarchy Descriptor'
PUBLIC	??_R2runtime_error@std@@8			; std::runtime_error::`RTTI Base Class Array'
PUBLIC	??_R1A@?0A@EA@runtime_error@std@@8		; std::runtime_error::`RTTI Base Class Descriptor at (0,-1,0,64)'
PUBLIC	??_R4bad_cast@std@@6B@				; std::bad_cast::`RTTI Complete Object Locator'
PUBLIC	??_R3bad_cast@std@@8				; std::bad_cast::`RTTI Class Hierarchy Descriptor'
PUBLIC	??_R2bad_cast@std@@8				; std::bad_cast::`RTTI Base Class Array'
PUBLIC	??_R1A@?0A@EA@bad_cast@std@@8			; std::bad_cast::`RTTI Base Class Descriptor at (0,-1,0,64)'
PUBLIC	??_R4_Facet_base@std@@6B@			; std::_Facet_base::`RTTI Complete Object Locator'
PUBLIC	??_R0?AV_Facet_base@std@@@8			; std::_Facet_base `RTTI Type Descriptor'
PUBLIC	??_R3_Facet_base@std@@8				; std::_Facet_base::`RTTI Class Hierarchy Descriptor'
PUBLIC	??_R2_Facet_base@std@@8				; std::_Facet_base::`RTTI Base Class Array'
PUBLIC	??_R1A@?0A@EA@_Facet_base@std@@8		; std::_Facet_base::`RTTI Base Class Descriptor at (0,-1,0,64)'
PUBLIC	??_R1A@?0A@EA@facet@locale@std@@8		; std::locale::facet::`RTTI Base Class Descriptor at (0,-1,0,64)'
PUBLIC	??_R0?AVfacet@locale@std@@@8			; std::locale::facet `RTTI Type Descriptor'
PUBLIC	??_R3facet@locale@std@@8			; std::locale::facet::`RTTI Class Hierarchy Descriptor'
PUBLIC	??_R2facet@locale@std@@8			; std::locale::facet::`RTTI Base Class Array'
PUBLIC	??_R17?0A@EA@_Crt_new_delete@std@@8		; std::_Crt_new_delete::`RTTI Base Class Descriptor at (8,-1,0,64)'
PUBLIC	??_R0?AU_Crt_new_delete@std@@@8			; std::_Crt_new_delete `RTTI Type Descriptor'
PUBLIC	??_R3_Crt_new_delete@std@@8			; std::_Crt_new_delete::`RTTI Class Hierarchy Descriptor'
PUBLIC	??_R2_Crt_new_delete@std@@8			; std::_Crt_new_delete::`RTTI Base Class Array'
PUBLIC	??_R1A@?0A@EA@_Crt_new_delete@std@@8		; std::_Crt_new_delete::`RTTI Base Class Descriptor at (0,-1,0,64)'
PUBLIC	??_R4facet@locale@std@@6B@			; std::locale::facet::`RTTI Complete Object Locator'
PUBLIC	??_R4ctype_base@std@@6B@			; std::ctype_base::`RTTI Complete Object Locator'
PUBLIC	??_R0?AUctype_base@std@@@8			; std::ctype_base `RTTI Type Descriptor'
PUBLIC	??_R3ctype_base@std@@8				; std::ctype_base::`RTTI Class Hierarchy Descriptor'
PUBLIC	??_R2ctype_base@std@@8				; std::ctype_base::`RTTI Base Class Array'
PUBLIC	??_R1A@?0A@EA@ctype_base@std@@8			; std::ctype_base::`RTTI Base Class Descriptor at (0,-1,0,64)'
PUBLIC	??_R4?$ctype@D@std@@6B@				; std::ctype<char>::`RTTI Complete Object Locator'
PUBLIC	??_R0?AV?$ctype@D@std@@@8			; std::ctype<char> `RTTI Type Descriptor'
PUBLIC	??_R3?$ctype@D@std@@8				; std::ctype<char>::`RTTI Class Hierarchy Descriptor'
PUBLIC	??_R2?$ctype@D@std@@8				; std::ctype<char>::`RTTI Base Class Array'
PUBLIC	??_R1A@?0A@EA@?$ctype@D@std@@8			; std::ctype<char>::`RTTI Base Class Descriptor at (0,-1,0,64)'
PUBLIC	??_R4error_category@std@@6B@			; std::error_category::`RTTI Complete Object Locator'
PUBLIC	??_R0?AVerror_category@std@@@8			; std::error_category `RTTI Type Descriptor'
PUBLIC	??_R3error_category@std@@8			; std::error_category::`RTTI Class Hierarchy Descriptor'
PUBLIC	??_R2error_category@std@@8			; std::error_category::`RTTI Base Class Array'
PUBLIC	??_R1A@?0A@EA@error_category@std@@8		; std::error_category::`RTTI Base Class Descriptor at (0,-1,0,64)'
PUBLIC	??_R4_System_error@std@@6B@			; std::_System_error::`RTTI Complete Object Locator'
PUBLIC	??_R3_System_error@std@@8			; std::_System_error::`RTTI Class Hierarchy Descriptor'
PUBLIC	??_R2_System_error@std@@8			; std::_System_error::`RTTI Base Class Array'
PUBLIC	??_R1A@?0A@EA@_System_error@std@@8		; std::_System_error::`RTTI Base Class Descriptor at (0,-1,0,64)'
PUBLIC	??_R4system_error@std@@6B@			; std::system_error::`RTTI Complete Object Locator'
PUBLIC	??_R3system_error@std@@8			; std::system_error::`RTTI Class Hierarchy Descriptor'
PUBLIC	??_R2system_error@std@@8			; std::system_error::`RTTI Base Class Array'
PUBLIC	??_R1A@?0A@EA@system_error@std@@8		; std::system_error::`RTTI Base Class Descriptor at (0,-1,0,64)'
PUBLIC	??_R4_Generic_error_category@std@@6B@		; std::_Generic_error_category::`RTTI Complete Object Locator'
PUBLIC	??_R0?AV_Generic_error_category@std@@@8		; std::_Generic_error_category `RTTI Type Descriptor'
PUBLIC	??_R3_Generic_error_category@std@@8		; std::_Generic_error_category::`RTTI Class Hierarchy Descriptor'
PUBLIC	??_R2_Generic_error_category@std@@8		; std::_Generic_error_category::`RTTI Base Class Array'
PUBLIC	??_R1A@?0A@EA@_Generic_error_category@std@@8	; std::_Generic_error_category::`RTTI Base Class Descriptor at (0,-1,0,64)'
PUBLIC	??_R4_Iostream_error_category@std@@6B@		; std::_Iostream_error_category::`RTTI Complete Object Locator'
PUBLIC	??_R0?AV_Iostream_error_category@std@@@8	; std::_Iostream_error_category `RTTI Type Descriptor'
PUBLIC	??_R3_Iostream_error_category@std@@8		; std::_Iostream_error_category::`RTTI Class Hierarchy Descriptor'
PUBLIC	??_R2_Iostream_error_category@std@@8		; std::_Iostream_error_category::`RTTI Base Class Array'
PUBLIC	??_R1A@?0A@EA@_Iostream_error_category@std@@8	; std::_Iostream_error_category::`RTTI Base Class Descriptor at (0,-1,0,64)'
PUBLIC	??_R4failure@ios_base@std@@6B@			; std::ios_base::failure::`RTTI Complete Object Locator'
PUBLIC	??_R3failure@ios_base@std@@8			; std::ios_base::failure::`RTTI Class Hierarchy Descriptor'
PUBLIC	??_R2failure@ios_base@std@@8			; std::ios_base::failure::`RTTI Base Class Array'
PUBLIC	??_R1A@?0A@EA@failure@ios_base@std@@8		; std::ios_base::failure::`RTTI Base Class Descriptor at (0,-1,0,64)'
PUBLIC	??_R4?$num_put@DV?$ostreambuf_iterator@DU?$char_traits@D@std@@@std@@@std@@6B@ ; std::num_put<char,std::ostreambuf_iterator<char,std::char_traits<char> > >::`RTTI Complete Object Locator'
PUBLIC	??_R0?AV?$num_put@DV?$ostreambuf_iterator@DU?$char_traits@D@std@@@std@@@std@@@8 ; std::num_put<char,std::ostreambuf_iterator<char,std::char_traits<char> > > `RTTI Type Descriptor'
PUBLIC	??_R3?$num_put@DV?$ostreambuf_iterator@DU?$char_traits@D@std@@@std@@@std@@8 ; std::num_put<char,std::ostreambuf_iterator<char,std::char_traits<char> > >::`RTTI Class Hierarchy Descriptor'
PUBLIC	??_R2?$num_put@DV?$ostreambuf_iterator@DU?$char_traits@D@std@@@std@@@std@@8 ; std::num_put<char,std::ostreambuf_iterator<char,std::char_traits<char> > >::`RTTI Base Class Array'
PUBLIC	??_R1A@?0A@EA@?$num_put@DV?$ostreambuf_iterator@DU?$char_traits@D@std@@@std@@@std@@8 ; std::num_put<char,std::ostreambuf_iterator<char,std::char_traits<char> > >::`RTTI Base Class Descriptor at (0,-1,0,64)'
PUBLIC	??_R4_UnrealizedChore@details@Concurrency@@6B@	; Concurrency::details::_UnrealizedChore::`RTTI Complete Object Locator'
PUBLIC	??_R0?AV_UnrealizedChore@details@Concurrency@@@8 ; Concurrency::details::_UnrealizedChore `RTTI Type Descriptor'
PUBLIC	??_R3_UnrealizedChore@details@Concurrency@@8	; Concurrency::details::_UnrealizedChore::`RTTI Class Hierarchy Descriptor'
PUBLIC	??_R2_UnrealizedChore@details@Concurrency@@8	; Concurrency::details::_UnrealizedChore::`RTTI Base Class Array'
PUBLIC	??_R1A@?0A@EA@_UnrealizedChore@details@Concurrency@@8 ; Concurrency::details::_UnrealizedChore::`RTTI Base Class Descriptor at (0,-1,0,64)'
PUBLIC	??_R1A@?0A@EA@_Chore@details@Concurrency@@8	; Concurrency::details::_Chore::`RTTI Base Class Descriptor at (0,-1,0,64)'
PUBLIC	??_R0?AU_Chore@details@Concurrency@@@8		; Concurrency::details::_Chore `RTTI Type Descriptor'
PUBLIC	??_R3_Chore@details@Concurrency@@8		; Concurrency::details::_Chore::`RTTI Class Hierarchy Descriptor'
PUBLIC	??_R2_Chore@details@Concurrency@@8		; Concurrency::details::_Chore::`RTTI Base Class Array'
PUBLIC	??_R1BA@?0A@EA@_AllocBase@details@Concurrency@@8 ; Concurrency::details::_AllocBase::`RTTI Base Class Descriptor at (16,-1,0,64)'
PUBLIC	??_R0?AU_AllocBase@details@Concurrency@@@8	; Concurrency::details::_AllocBase `RTTI Type Descriptor'
PUBLIC	??_R3_AllocBase@details@Concurrency@@8		; Concurrency::details::_AllocBase::`RTTI Class Hierarchy Descriptor'
PUBLIC	??_R2_AllocBase@details@Concurrency@@8		; Concurrency::details::_AllocBase::`RTTI Base Class Array'
PUBLIC	??_R1A@?0A@EA@_AllocBase@details@Concurrency@@8	; Concurrency::details::_AllocBase::`RTTI Base Class Descriptor at (0,-1,0,64)'
PUBLIC	??_R4_Chore@details@Concurrency@@6B@		; Concurrency::details::_Chore::`RTTI Complete Object Locator'
PUBLIC	??_R4?$numpunct@D@std@@6B@			; std::numpunct<char>::`RTTI Complete Object Locator'
PUBLIC	??_R0?AV?$numpunct@D@std@@@8			; std::numpunct<char> `RTTI Type Descriptor'
PUBLIC	??_R3?$numpunct@D@std@@8			; std::numpunct<char>::`RTTI Class Hierarchy Descriptor'
PUBLIC	??_R2?$numpunct@D@std@@8			; std::numpunct<char>::`RTTI Base Class Array'
PUBLIC	??_R1A@?0A@EA@?$numpunct@D@std@@8		; std::numpunct<char>::`RTTI Base Class Descriptor at (0,-1,0,64)'
PUBLIC	??_R4?$task_handle@V?$_Parallel_chunk_helper@V?$_Vector_const_iterator@V?$_Vector_val@U?$_Simple_types@H@std@@@std@@@std@@_JV<lambda_e91d5317cacb03e6a1467b3ede17adf9>@@Vauto_partitioner@Concurrency@@$00@Concurrency@@@Concurrency@@6B@ ; Concurrency::task_handle<Concurrency::_Parallel_chunk_helper<std::_Vector_const_iterator<std::_Vector_val<std::_Simple_types<int> > >,__int64,<lambda_e91d5317cacb03e6a1467b3ede17adf9>,Concurrency::auto_partitioner,1> >::`RTTI Complete Object Locator'
PUBLIC	??_R0?AV?$task_handle@V?$_Parallel_chunk_helper@V?$_Vector_const_iterator@V?$_Vector_val@U?$_Simple_types@H@std@@@std@@@std@@_JV<lambda_e91d5317cacb03e6a1467b3ede17adf9>@@Vauto_partitioner@Concurrency@@$00@Concurrency@@@Concurrency@@@8 ; Concurrency::task_handle<Concurrency::_Parallel_chunk_helper<std::_Vector_const_iterator<std::_Vector_val<std::_Simple_types<int> > >,__int64,<lambda_e91d5317cacb03e6a1467b3ede17adf9>,Concurrency::auto_partitioner,1> > `RTTI Type Descriptor'
PUBLIC	??_R3?$task_handle@V?$_Parallel_chunk_helper@V?$_Vector_const_iterator@V?$_Vector_val@U?$_Simple_types@H@std@@@std@@@std@@_JV<lambda_e91d5317cacb03e6a1467b3ede17adf9>@@Vauto_partitioner@Concurrency@@$00@Concurrency@@@Concurrency@@8 ; Concurrency::task_handle<Concurrency::_Parallel_chunk_helper<std::_Vector_const_iterator<std::_Vector_val<std::_Simple_types<int> > >,__int64,<lambda_e91d5317cacb03e6a1467b3ede17adf9>,Concurrency::auto_partitioner,1> >::`RTTI Class Hierarchy Descriptor'
PUBLIC	??_R2?$task_handle@V?$_Parallel_chunk_helper@V?$_Vector_const_iterator@V?$_Vector_val@U?$_Simple_types@H@std@@@std@@@std@@_JV<lambda_e91d5317cacb03e6a1467b3ede17adf9>@@Vauto_partitioner@Concurrency@@$00@Concurrency@@@Concurrency@@8 ; Concurrency::task_handle<Concurrency::_Parallel_chunk_helper<std::_Vector_const_iterator<std::_Vector_val<std::_Simple_types<int> > >,__int64,<lambda_e91d5317cacb03e6a1467b3ede17adf9>,Concurrency::auto_partitioner,1> >::`RTTI Base Class Array'
PUBLIC	??_R1A@?0A@EA@?$task_handle@V?$_Parallel_chunk_helper@V?$_Vector_const_iterator@V?$_Vector_val@U?$_Simple_types@H@std@@@std@@@std@@_JV<lambda_e91d5317cacb03e6a1467b3ede17adf9>@@Vauto_partitioner@Concurrency@@$00@Concurrency@@@Concurrency@@8 ; Concurrency::task_handle<Concurrency::_Parallel_chunk_helper<std::_Vector_const_iterator<std::_Vector_val<std::_Simple_types<int> > >,__int64,<lambda_e91d5317cacb03e6a1467b3ede17adf9>,Concurrency::auto_partitioner,1> >::`RTTI Base Class Descriptor at (0,-1,0,64)'
PUBLIC	??_R4?$_MallocaArrayHolder@V?$task_handle@V?$_Parallel_chunk_helper@V?$_Vector_const_iterator@V?$_Vector_val@U?$_Simple_types@H@std@@@std@@@std@@_JV<lambda_e91d5317cacb03e6a1467b3ede17adf9>@@Vauto_partitioner@Concurrency@@$00@Concurrency@@@Concurrency@@@details@Concurrency@@6B@ ; Concurrency::details::_MallocaArrayHolder<Concurrency::task_handle<Concurrency::_Parallel_chunk_helper<std::_Vector_const_iterator<std::_Vector_val<std::_Simple_types<int> > >,__int64,<lambda_e91d5317cacb03e6a1467b3ede17adf9>,Concurrency::auto_partitioner,1> > >::`RTTI Complete Object Locator'
PUBLIC	??_R0?AV?$_MallocaArrayHolder@V?$task_handle@V?$_Parallel_chunk_helper@V?$_Vector_const_iterator@V?$_Vector_val@U?$_Simple_types@H@std@@@std@@@std@@_JV<lambda_e91d5317cacb03e6a1467b3ede17adf9>@@Vauto_partitioner@Concurrency@@$00@Concurrency@@@Concurrency@@@details@Concurrency@@@8 ; Concurrency::details::_MallocaArrayHolder<Concurrency::task_handle<Concurrency::_Parallel_chunk_helper<std::_Vector_const_iterator<std::_Vector_val<std::_Simple_types<int> > >,__int64,<lambda_e91d5317cacb03e6a1467b3ede17adf9>,Concurrency::auto_partitioner,1> > > `RTTI Type Descriptor'
PUBLIC	??_R3?$_MallocaArrayHolder@V?$task_handle@V?$_Parallel_chunk_helper@V?$_Vector_const_iterator@V?$_Vector_val@U?$_Simple_types@H@std@@@std@@@std@@_JV<lambda_e91d5317cacb03e6a1467b3ede17adf9>@@Vauto_partitioner@Concurrency@@$00@Concurrency@@@Concurrency@@@details@Concurrency@@8 ; Concurrency::details::_MallocaArrayHolder<Concurrency::task_handle<Concurrency::_Parallel_chunk_helper<std::_Vector_const_iterator<std::_Vector_val<std::_Simple_types<int> > >,__int64,<lambda_e91d5317cacb03e6a1467b3ede17adf9>,Concurrency::auto_partitioner,1> > >::`RTTI Class Hierarchy Descriptor'
PUBLIC	??_R2?$_MallocaArrayHolder@V?$task_handle@V?$_Parallel_chunk_helper@V?$_Vector_const_iterator@V?$_Vector_val@U?$_Simple_types@H@std@@@std@@@std@@_JV<lambda_e91d5317cacb03e6a1467b3ede17adf9>@@Vauto_partitioner@Concurrency@@$00@Concurrency@@@Concurrency@@@details@Concurrency@@8 ; Concurrency::details::_MallocaArrayHolder<Concurrency::task_handle<Concurrency::_Parallel_chunk_helper<std::_Vector_const_iterator<std::_Vector_val<std::_Simple_types<int> > >,__int64,<lambda_e91d5317cacb03e6a1467b3ede17adf9>,Concurrency::auto_partitioner,1> > >::`RTTI Base Class Array'
PUBLIC	??_R1A@?0A@EA@?$_MallocaArrayHolder@V?$task_handle@V?$_Parallel_chunk_helper@V?$_Vector_const_iterator@V?$_Vector_val@U?$_Simple_types@H@std@@@std@@@std@@_JV<lambda_e91d5317cacb03e6a1467b3ede17adf9>@@Vauto_partitioner@Concurrency@@$00@Concurrency@@@Concurrency@@@details@Concurrency@@8 ; Concurrency::details::_MallocaArrayHolder<Concurrency::task_handle<Concurrency::_Parallel_chunk_helper<std::_Vector_const_iterator<std::_Vector_val<std::_Simple_types<int> > >,__int64,<lambda_e91d5317cacb03e6a1467b3ede17adf9>,Concurrency::auto_partitioner,1> > >::`RTTI Base Class Descriptor at (0,-1,0,64)'
PUBLIC	??_R4?$_MallocaListHolder@V?$task_handle@V?$_Parallel_chunk_helper@V?$_Vector_const_iterator@V?$_Vector_val@U?$_Simple_types@H@std@@@std@@@std@@_JV<lambda_e91d5317cacb03e6a1467b3ede17adf9>@@Vauto_partitioner@Concurrency@@$00@Concurrency@@@Concurrency@@@details@Concurrency@@6B@ ; Concurrency::details::_MallocaListHolder<Concurrency::task_handle<Concurrency::_Parallel_chunk_helper<std::_Vector_const_iterator<std::_Vector_val<std::_Simple_types<int> > >,__int64,<lambda_e91d5317cacb03e6a1467b3ede17adf9>,Concurrency::auto_partitioner,1> > >::`RTTI Complete Object Locator'
PUBLIC	??_R0?AV?$_MallocaListHolder@V?$task_handle@V?$_Parallel_chunk_helper@V?$_Vector_const_iterator@V?$_Vector_val@U?$_Simple_types@H@std@@@std@@@std@@_JV<lambda_e91d5317cacb03e6a1467b3ede17adf9>@@Vauto_partitioner@Concurrency@@$00@Concurrency@@@Concurrency@@@details@Concurrency@@@8 ; Concurrency::details::_MallocaListHolder<Concurrency::task_handle<Concurrency::_Parallel_chunk_helper<std::_Vector_const_iterator<std::_Vector_val<std::_Simple_types<int> > >,__int64,<lambda_e91d5317cacb03e6a1467b3ede17adf9>,Concurrency::auto_partitioner,1> > > `RTTI Type Descriptor'
PUBLIC	??_R3?$_MallocaListHolder@V?$task_handle@V?$_Parallel_chunk_helper@V?$_Vector_const_iterator@V?$_Vector_val@U?$_Simple_types@H@std@@@std@@@std@@_JV<lambda_e91d5317cacb03e6a1467b3ede17adf9>@@Vauto_partitioner@Concurrency@@$00@Concurrency@@@Concurrency@@@details@Concurrency@@8 ; Concurrency::details::_MallocaListHolder<Concurrency::task_handle<Concurrency::_Parallel_chunk_helper<std::_Vector_const_iterator<std::_Vector_val<std::_Simple_types<int> > >,__int64,<lambda_e91d5317cacb03e6a1467b3ede17adf9>,Concurrency::auto_partitioner,1> > >::`RTTI Class Hierarchy Descriptor'
PUBLIC	??_R2?$_MallocaListHolder@V?$task_handle@V?$_Parallel_chunk_helper@V?$_Vector_const_iterator@V?$_Vector_val@U?$_Simple_types@H@std@@@std@@@std@@_JV<lambda_e91d5317cacb03e6a1467b3ede17adf9>@@Vauto_partitioner@Concurrency@@$00@Concurrency@@@Concurrency@@@details@Concurrency@@8 ; Concurrency::details::_MallocaListHolder<Concurrency::task_handle<Concurrency::_Parallel_chunk_helper<std::_Vector_const_iterator<std::_Vector_val<std::_Simple_types<int> > >,__int64,<lambda_e91d5317cacb03e6a1467b3ede17adf9>,Concurrency::auto_partitioner,1> > >::`RTTI Base Class Array'
PUBLIC	??_R1A@?0A@EA@?$_MallocaListHolder@V?$task_handle@V?$_Parallel_chunk_helper@V?$_Vector_const_iterator@V?$_Vector_val@U?$_Simple_types@H@std@@@std@@@std@@_JV<lambda_e91d5317cacb03e6a1467b3ede17adf9>@@Vauto_partitioner@Concurrency@@$00@Concurrency@@@Concurrency@@@details@Concurrency@@8 ; Concurrency::details::_MallocaListHolder<Concurrency::task_handle<Concurrency::_Parallel_chunk_helper<std::_Vector_const_iterator<std::_Vector_val<std::_Simple_types<int> > >,__int64,<lambda_e91d5317cacb03e6a1467b3ede17adf9>,Concurrency::auto_partitioner,1> > >::`RTTI Base Class Descriptor at (0,-1,0,64)'
PUBLIC	__real@4202a05f20000000
PUBLIC	__xmm@7fffffffffffffff7fffffffffffffff
EXTRN	_purecall:PROC
EXTRN	??2@YAPEAX_K@Z:PROC				; operator new
EXTRN	??3@YAXPEAX@Z:PROC				; operator delete
EXTRN	??3@YAXPEAX_K@Z:PROC				; operator delete
EXTRN	?__global_delete@@YAXPEAX_K@Z:PROC		; __global_delete
EXTRN	??_V@YAXPEAX@Z:PROC				; operator delete[]
EXTRN	atexit:PROC
EXTRN	_Init_thread_header:PROC
EXTRN	_Init_thread_footer:PROC
EXTRN	__std_terminate:PROC
EXTRN	_invalid_parameter_noinfo_noreturn:PROC
EXTRN	??0_Lockit@std@@QEAA@H@Z:PROC			; std::_Lockit::_Lockit
EXTRN	??1_Lockit@std@@QEAA@XZ:PROC			; std::_Lockit::~_Lockit
EXTRN	_time64:PROC
EXTRN	calloc:PROC
EXTRN	free:PROC
EXTRN	malloc:PROC
EXTRN	srand:PROC
EXTRN	rand:PROC
EXTRN	frexp:PROC
EXTRN	__stdio_common_vsprintf_s:PROC
EXTRN	memmove:PROC
EXTRN	strcspn:PROC
EXTRN	__std_exception_copy:PROC
EXTRN	__std_exception_destroy:PROC
EXTRN	??_Eexception@std@@UEAAPEAXI@Z:PROC		; std::exception::`vector deleting destructor'
EXTRN	??_Ebad_alloc@std@@UEAAPEAXI@Z:PROC		; std::bad_alloc::`vector deleting destructor'
EXTRN	?uncaught_exception@std@@YA_NXZ:PROC		; std::uncaught_exception
EXTRN	?_Xbad_alloc@std@@YAXXZ:PROC			; std::_Xbad_alloc
EXTRN	?_Xlength_error@std@@YAXPEBD@Z:PROC		; std::_Xlength_error
EXTRN	?_Xout_of_range@std@@YAXPEBD@Z:PROC		; std::_Xout_of_range
EXTRN	??_Eruntime_error@std@@UEAAPEAXI@Z:PROC		; std::runtime_error::`vector deleting destructor'
EXTRN	??_Ebad_cast@std@@UEAAPEAXI@Z:PROC		; std::bad_cast::`vector deleting destructor'
EXTRN	localeconv:PROC
EXTRN	_Getctype:PROC
EXTRN	_Getcvt:PROC
EXTRN	_Tolower:PROC
EXTRN	_Toupper:PROC
EXTRN	?_Locinfo_ctor@_Locinfo@std@@SAXPEAV12@PEBD@Z:PROC ; std::_Locinfo::_Locinfo_ctor
EXTRN	?_Locinfo_dtor@_Locinfo@std@@SAXPEAV12@@Z:PROC	; std::_Locinfo::_Locinfo_dtor
EXTRN	??_E_Facet_base@std@@UEAAPEAXI@Z:PROC		; std::_Facet_base::`vector deleting destructor'
EXTRN	?_Facet_Register@std@@YAXPEAV_Facet_base@1@@Z:PROC ; std::_Facet_Register
EXTRN	??_Efacet@locale@std@@MEAAPEAXI@Z:PROC		; std::locale::facet::`vector deleting destructor'
EXTRN	?_Getgloballocale@locale@std@@CAPEAV_Locimp@12@XZ:PROC ; std::locale::_Getgloballocale
EXTRN	??_Ectype_base@std@@UEAAPEAXI@Z:PROC		; std::ctype_base::`vector deleting destructor'
EXTRN	??_E?$ctype@D@std@@MEAAPEAXI@Z:PROC		; std::ctype<char>::`vector deleting destructor'
EXTRN	??_Eerror_category@std@@UEAAPEAXI@Z:PROC	; std::error_category::`vector deleting destructor'
EXTRN	??_E_System_error@std@@UEAAPEAXI@Z:PROC		; std::_System_error::`vector deleting destructor'
EXTRN	??_Esystem_error@std@@UEAAPEAXI@Z:PROC		; std::system_error::`vector deleting destructor'
EXTRN	?_Syserror_map@std@@YAPEBDH@Z:PROC		; std::_Syserror_map
EXTRN	??_E_Generic_error_category@std@@UEAAPEAXI@Z:PROC ; std::_Generic_error_category::`vector deleting destructor'
EXTRN	??_E_Iostream_error_category@std@@UEAAPEAXI@Z:PROC ; std::_Iostream_error_category::`vector deleting destructor'
EXTRN	??_Efailure@ios_base@std@@UEAAPEAXI@Z:PROC	; std::ios_base::failure::`vector deleting destructor'
EXTRN	?Free@Concurrency@@YAXPEAX@Z:PROC		; Concurrency::Free
EXTRN	?_CurrentContext@_Context@details@Concurrency@@SA?AV123@XZ:PROC ; Concurrency::details::_Context::_CurrentContext
EXTRN	?_Yield@_Context@details@Concurrency@@SAXXZ:PROC ; Concurrency::details::_Context::_Yield
EXTRN	?_IsSynchronouslyBlocked@_Context@details@Concurrency@@QEBA_NXZ:PROC ; Concurrency::details::_Context::_IsSynchronouslyBlocked
EXTRN	?_GetNumberOfVirtualProcessors@_CurrentScheduler@details@Concurrency@@SAIXZ:PROC ; Concurrency::details::_CurrentScheduler::_GetNumberOfVirtualProcessors
EXTRN	?_Value@_SpinCount@details@Concurrency@@SAIXZ:PROC ; Concurrency::details::_SpinCount::_Value
EXTRN	?_UnderlyingYield@details@Concurrency@@YAXXZ:PROC ; Concurrency::details::_UnderlyingYield
EXTRN	??_E_Chore@details@Concurrency@@MEAAPEAXI@Z:PROC ; Concurrency::details::_Chore::`vector deleting destructor'
EXTRN	?_CheckTaskCollection@_UnrealizedChore@details@Concurrency@@IEAAXXZ:PROC ; Concurrency::details::_UnrealizedChore::_CheckTaskCollection
EXTRN	??_E_UnrealizedChore@details@Concurrency@@UEAAPEAXI@Z:PROC ; Concurrency::details::_UnrealizedChore::`vector deleting destructor'
EXTRN	??1_StructuredTaskCollection@details@Concurrency@@QEAA@XZ:PROC ; Concurrency::details::_StructuredTaskCollection::~_StructuredTaskCollection
EXTRN	?_Schedule@_StructuredTaskCollection@details@Concurrency@@QEAAXPEAV_UnrealizedChore@23@@Z:PROC ; Concurrency::details::_StructuredTaskCollection::_Schedule
EXTRN	?_RunAndWait@_StructuredTaskCollection@details@Concurrency@@QEAA?AW4_TaskCollectionStatus@23@PEAV_UnrealizedChore@23@@Z:PROC ; Concurrency::details::_StructuredTaskCollection::_RunAndWait
EXTRN	??0_Cancellation_beacon@details@Concurrency@@QEAA@XZ:PROC ; Concurrency::details::_Cancellation_beacon::_Cancellation_beacon
EXTRN	??1_Cancellation_beacon@details@Concurrency@@QEAA@XZ:PROC ; Concurrency::details::_Cancellation_beacon::~_Cancellation_beacon
EXTRN	?_Confirm_cancel@_Cancellation_beacon@details@Concurrency@@QEAA_NXZ:PROC ; Concurrency::details::_Cancellation_beacon::_Confirm_cancel
EXTRN	?_Trace_ppl_function@Concurrency@@YAXAEBU_GUID@@EW4ConcRT_EventType@1@@Z:PROC ; Concurrency::_Trace_ppl_function
EXTRN	??_E?$num_put@DV?$ostreambuf_iterator@DU?$char_traits@D@std@@@std@@@std@@MEAAPEAXI@Z:PROC ; std::num_put<char,std::ostreambuf_iterator<char,std::char_traits<char> > >::`vector deleting destructor'
EXTRN	??_E?$numpunct@D@std@@MEAAPEAXI@Z:PROC		; std::numpunct<char>::`vector deleting destructor'
EXTRN	??_E?$_MallocaArrayHolder@V?$task_handle@V?$_Parallel_chunk_helper@V?$_Vector_const_iterator@V?$_Vector_val@U?$_Simple_types@H@std@@@std@@@std@@_JV<lambda_e91d5317cacb03e6a1467b3ede17adf9>@@Vauto_partitioner@Concurrency@@$00@Concurrency@@@Concurrency@@@details@Concurrency@@UEAAPEAXI@Z:PROC ; Concurrency::details::_MallocaArrayHolder<Concurrency::task_handle<Concurrency::_Parallel_chunk_helper<std::_Vector_const_iterator<std::_Vector_val<std::_Simple_types<int> > >,__int64,<lambda_e91d5317cacb03e6a1467b3ede17adf9>,Concurrency::auto_partitioner,1> > >::`vector deleting destructor'
EXTRN	??_E?$task_handle@V?$_Parallel_chunk_helper@V?$_Vector_const_iterator@V?$_Vector_val@U?$_Simple_types@H@std@@@std@@@std@@_JV<lambda_e91d5317cacb03e6a1467b3ede17adf9>@@Vauto_partitioner@Concurrency@@$00@Concurrency@@@Concurrency@@UEAAPEAXI@Z:PROC ; Concurrency::task_handle<Concurrency::_Parallel_chunk_helper<std::_Vector_const_iterator<std::_Vector_val<std::_Simple_types<int> > >,__int64,<lambda_e91d5317cacb03e6a1467b3ede17adf9>,Concurrency::auto_partitioner,1> >::`vector deleting destructor'
EXTRN	??_E?$_MallocaListHolder@V?$task_handle@V?$_Parallel_chunk_helper@V?$_Vector_const_iterator@V?$_Vector_val@U?$_Simple_types@H@std@@@std@@@std@@_JV<lambda_e91d5317cacb03e6a1467b3ede17adf9>@@Vauto_partitioner@Concurrency@@$00@Concurrency@@@Concurrency@@@details@Concurrency@@UEAAPEAXI@Z:PROC ; Concurrency::details::_MallocaListHolder<Concurrency::task_handle<Concurrency::_Parallel_chunk_helper<std::_Vector_const_iterator<std::_Vector_val<std::_Simple_types<int> > >,__int64,<lambda_e91d5317cacb03e6a1467b3ede17adf9>,Concurrency::auto_partitioner,1> > >::`vector deleting destructor'
EXTRN	_CxxThrowException:PROC
EXTRN	__CxxFrameHandler3:PROC
EXTRN	__GSHandlerCheck:PROC
EXTRN	__GSHandlerCheck_EH:PROC
EXTRN	__chkstk:PROC
EXTRN	__security_check_cookie:PROC
EXTRN	memcpy:PROC
EXTRN	memset:PROC
EXTRN	_Init_thread_epoch:DWORD
EXTRN	??_7type_info@@6B@:BYTE				; type_info::`vftable'
EXTRN	?_Id_cnt@id@locale@std@@0HA:DWORD		; std::locale::id::_Id_cnt
EXTRN	?id@?$ctype@D@std@@2V0locale@2@A:QWORD		; std::ctype<char>::id
EXTRN	?cout@std@@3V?$basic_ostream@DU?$char_traits@D@std@@@1@A:BYTE ; std::cout
EXTRN	?PPLParallelForeachEventGuid@Concurrency@@3U_GUID@@B:BYTE ; Concurrency::PPLParallelForeachEventGuid
EXTRN	__security_cookie:QWORD
EXTRN	_fltused:DWORD
EXTRN	_tls_index:DWORD
;	COMDAT ?_OptionsStorage@?1??__local_stdio_printf_options@@9@4_KA
_BSS	SEGMENT
?_OptionsStorage@?1??__local_stdio_printf_options@@9@4_KA DQ 01H DUP (?) ; `__local_stdio_printf_options'::`2'::_OptionsStorage
_BSS	ENDS
;	COMDAT ?id@?$num_put@DV?$ostreambuf_iterator@DU?$char_traits@D@std@@@std@@@std@@2V0locale@2@A
_BSS	SEGMENT
?id@?$num_put@DV?$ostreambuf_iterator@DU?$char_traits@D@std@@@std@@@std@@2V0locale@2@A DQ 01H DUP (?) ; std::num_put<char,std::ostreambuf_iterator<char,std::char_traits<char> > >::id
_BSS	ENDS
;	COMDAT ?id@?$numpunct@D@std@@2V0locale@2@A
_BSS	SEGMENT
?id@?$numpunct@D@std@@2V0locale@2@A DQ 01H DUP (?)	; std::numpunct<char>::id
_BSS	ENDS
;	COMDAT ?_Psave@?$_Facetptr@V?$ctype@D@std@@@std@@2PEBVfacet@locale@2@EB
_BSS	SEGMENT
?_Psave@?$_Facetptr@V?$ctype@D@std@@@std@@2PEBVfacet@locale@2@EB DQ 01H DUP (?) ; std::_Facetptr<std::ctype<char> >::_Psave
_BSS	ENDS
;	COMDAT ?_Static@?1???$_Immortalize@V_Iostream_error_category@std@@@std@@YAAEAV_Iostream_error_category@1@XZ@4U?$_Immortalizer@V_Iostream_error_category@std@@@1@A
_BSS	SEGMENT
?_Static@?1???$_Immortalize@V_Iostream_error_category@std@@@std@@YAAEAV_Iostream_error_category@1@XZ@4U?$_Immortalizer@V_Iostream_error_category@std@@@1@A DB 010H DUP (?) ; `std::_Immortalize<std::_Iostream_error_category>'::`2'::_Static
_BSS	ENDS
;	COMDAT ?$TSS0@?1???$_Immortalize@V_Iostream_error_category@std@@@std@@YAAEAV_Iostream_error_category@1@XZ@4HA
_BSS	SEGMENT
?$TSS0@?1???$_Immortalize@V_Iostream_error_category@std@@@std@@YAAEAV_Iostream_error_category@1@XZ@4HA DD 01H DUP (?) ; TSS0<`template-parameter-2',unsigned int,std::V_Iostream_error_category::mortalize>
_BSS	ENDS
;	COMDAT ?_Psave@?$_Facetptr@V?$num_put@DV?$ostreambuf_iterator@DU?$char_traits@D@std@@@std@@@std@@@std@@2PEBVfacet@locale@2@EB
_BSS	SEGMENT
?_Psave@?$_Facetptr@V?$num_put@DV?$ostreambuf_iterator@DU?$char_traits@D@std@@@std@@@std@@@std@@2PEBVfacet@locale@2@EB DQ 01H DUP (?) ; std::_Facetptr<std::num_put<char,std::ostreambuf_iterator<char,std::char_traits<char> > > >::_Psave
_BSS	ENDS
;	COMDAT ?_Psave@?$_Facetptr@V?$numpunct@D@std@@@std@@2PEBVfacet@locale@2@EB
_BSS	SEGMENT
?_Psave@?$_Facetptr@V?$numpunct@D@std@@@std@@2PEBVfacet@locale@2@EB DQ 01H DUP (?) ; std::_Facetptr<std::numpunct<char> >::_Psave
_BSS	ENDS
;	COMDAT pdata
pdata	SEGMENT
$pdata$_vsprintf_s_l DD imagerel $LN4
	DD	imagerel $LN4+98
	DD	imagerel $unwind$_vsprintf_s_l
pdata	ENDS
;	COMDAT pdata
pdata	SEGMENT
$pdata$sprintf_s DD imagerel $LN8
	DD	imagerel $LN8+85
	DD	imagerel $unwind$sprintf_s
pdata	ENDS
;	COMDAT pdata
pdata	SEGMENT
$pdata$??0exception@std@@QEAA@QEBD@Z DD imagerel $LN4
	DD	imagerel $LN4+64
	DD	imagerel $unwind$??0exception@std@@QEAA@QEBD@Z
pdata	ENDS
;	COMDAT pdata
pdata	SEGMENT
$pdata$??0exception@std@@QEAA@AEBV01@@Z DD imagerel $LN4
	DD	imagerel $LN4+53
	DD	imagerel $unwind$??0exception@std@@QEAA@AEBV01@@Z
pdata	ENDS
;	COMDAT pdata
pdata	SEGMENT
$pdata$??_Gexception@std@@UEAAPEAXI@Z DD imagerel $LN8
	DD	imagerel $LN8+66
	DD	imagerel $unwind$??_Gexception@std@@UEAAPEAXI@Z
pdata	ENDS
;	COMDAT pdata
pdata	SEGMENT
$pdata$??0bad_alloc@std@@QEAA@AEBV01@@Z DD imagerel $LN7
	DD	imagerel $LN7+63
	DD	imagerel $unwind$??0bad_alloc@std@@QEAA@AEBV01@@Z
pdata	ENDS
;	COMDAT pdata
pdata	SEGMENT
$pdata$??_Gbad_alloc@std@@UEAAPEAXI@Z DD imagerel $LN11
	DD	imagerel $LN11+66
	DD	imagerel $unwind$??_Gbad_alloc@std@@UEAAPEAXI@Z
pdata	ENDS
;	COMDAT pdata
pdata	SEGMENT
$pdata$?copy@?$char_traits@D@std@@SAPEADPEADPEBD_K@Z DD imagerel $LN7
	DD	imagerel $LN7+28
	DD	imagerel $unwind$?copy@?$char_traits@D@std@@SAPEADPEADPEBD_K@Z
pdata	ENDS
;	COMDAT pdata
pdata	SEGMENT
$pdata$?assign@?$char_traits@D@std@@SAPEADPEAD_KD@Z DD imagerel $LN4
	DD	imagerel $LN4+33
	DD	imagerel $unwind$?assign@?$char_traits@D@std@@SAPEADPEAD_KD@Z
pdata	ENDS
;	COMDAT pdata
pdata	SEGMENT
$pdata$?deallocate@?$allocator@D@std@@QEAAXPEAD_K@Z DD imagerel $LN19
	DD	imagerel $LN19+93
	DD	imagerel $unwind$?deallocate@?$allocator@D@std@@QEAAXPEAD_K@Z
pdata	ENDS
;	COMDAT pdata
pdata	SEGMENT
$pdata$?allocate@?$allocator@D@std@@QEAAPEAD_K@Z DD imagerel $LN19
	DD	imagerel $LN19+109
	DD	imagerel $unwind$?allocate@?$allocator@D@std@@QEAAPEAD_K@Z
pdata	ENDS
;	COMDAT pdata
pdata	SEGMENT
$pdata$?deallocate@?$_Wrap_alloc@V?$allocator@D@std@@@std@@QEAAXPEAD_K@Z DD imagerel $LN22
	DD	imagerel $LN22+93
	DD	imagerel $unwind$?deallocate@?$_Wrap_alloc@V?$allocator@D@std@@@std@@QEAAXPEAD_K@Z
pdata	ENDS
;	COMDAT pdata
pdata	SEGMENT
$pdata$??0?$basic_string@DU?$char_traits@D@std@@V?$allocator@D@2@@std@@QEAA@AEBV01@@Z DD imagerel $LN143
	DD	imagerel $LN143+49
	DD	imagerel $unwind$??0?$basic_string@DU?$char_traits@D@std@@V?$allocator@D@2@@std@@QEAA@AEBV01@@Z
pdata	ENDS
;	COMDAT pdata
pdata	SEGMENT
$pdata$??0?$basic_string@DU?$char_traits@D@std@@V?$allocator@D@2@@std@@QEAA@PEBD@Z DD imagerel $LN137
	DD	imagerel $LN137+60
	DD	imagerel $unwind$??0?$basic_string@DU?$char_traits@D@std@@V?$allocator@D@2@@std@@QEAA@PEBD@Z
pdata	ENDS
;	COMDAT pdata
pdata	SEGMENT
$pdata$??0?$basic_string@DU?$char_traits@D@std@@V?$allocator@D@2@@std@@QEAA@_KD@Z DD imagerel $LN130
	DD	imagerel $LN130+42
	DD	imagerel $unwind$??0?$basic_string@DU?$char_traits@D@std@@V?$allocator@D@2@@std@@QEAA@_KD@Z
pdata	ENDS
;	COMDAT pdata
pdata	SEGMENT
$pdata$??0?$basic_string@DU?$char_traits@D@std@@V?$allocator@D@2@@std@@QEAA@$$QEAV01@@Z DD imagerel $LN142
	DD	imagerel $LN142+42
	DD	imagerel $unwind$??0?$basic_string@DU?$char_traits@D@std@@V?$allocator@D@2@@std@@QEAA@$$QEAV01@@Z
pdata	ENDS
;	COMDAT pdata
pdata	SEGMENT
$pdata$?assign@?$basic_string@DU?$char_traits@D@std@@V?$allocator@D@2@@std@@QEAAAEAV12@$$QEAV12@@Z DD imagerel $LN308
	DD	imagerel $LN308+113
	DD	imagerel $unwind$?assign@?$basic_string@DU?$char_traits@D@std@@V?$allocator@D@2@@std@@QEAAAEAV12@$$QEAV12@@Z
pdata	ENDS
;	COMDAT pdata
pdata	SEGMENT
$pdata$?_Assign_rv@?$basic_string@DU?$char_traits@D@std@@V?$allocator@D@2@@std@@QEAAX$$QEAV12@@Z DD imagerel $LN248
	DD	imagerel $LN248+128
	DD	imagerel $unwind$?_Assign_rv@?$basic_string@DU?$char_traits@D@std@@V?$allocator@D@2@@std@@QEAAX$$QEAV12@@Z
pdata	ENDS
;	COMDAT pdata
pdata	SEGMENT
$pdata$??1?$basic_string@DU?$char_traits@D@std@@V?$allocator@D@2@@std@@QEAA@XZ DD imagerel $LN118
	DD	imagerel $LN118+74
	DD	imagerel $unwind$??1?$basic_string@DU?$char_traits@D@std@@V?$allocator@D@2@@std@@QEAA@XZ
pdata	ENDS
;	COMDAT pdata
pdata	SEGMENT
$pdata$??4?$basic_string@DU?$char_traits@D@std@@V?$allocator@D@2@@std@@QEAAAEAV01@AEBV01@@Z DD imagerel $LN150
	DD	imagerel $LN150+35
	DD	imagerel $unwind$??4?$basic_string@DU?$char_traits@D@std@@V?$allocator@D@2@@std@@QEAAAEAV01@AEBV01@@Z
pdata	ENDS
;	COMDAT pdata
pdata	SEGMENT
$pdata$?append@?$basic_string@DU?$char_traits@D@std@@V?$allocator@D@2@@std@@QEAAAEAV12@AEBV12@_K1@Z DD imagerel $LN244
	DD	imagerel $LN244+76
	DD	imagerel $unwind$?append@?$basic_string@DU?$char_traits@D@std@@V?$allocator@D@2@@std@@QEAAAEAV12@AEBV12@_K1@Z
pdata	ENDS
;	COMDAT pdata
pdata	SEGMENT
$pdata$0$?append@?$basic_string@DU?$char_traits@D@std@@V?$allocator@D@2@@std@@QEAAAEAV12@AEBV12@_K1@Z DD imagerel $LN244+76
	DD	imagerel $LN244+254
	DD	imagerel $chain$0$?append@?$basic_string@DU?$char_traits@D@std@@V?$allocator@D@2@@std@@QEAAAEAV12@AEBV12@_K1@Z
pdata	ENDS
;	COMDAT pdata
pdata	SEGMENT
$pdata$1$?append@?$basic_string@DU?$char_traits@D@std@@V?$allocator@D@2@@std@@QEAAAEAV12@AEBV12@_K1@Z DD imagerel $LN244+254
	DD	imagerel $LN244+280
	DD	imagerel $chain$1$?append@?$basic_string@DU?$char_traits@D@std@@V?$allocator@D@2@@std@@QEAAAEAV12@AEBV12@_K1@Z
pdata	ENDS
;	COMDAT pdata
pdata	SEGMENT
$pdata$2$?append@?$basic_string@DU?$char_traits@D@std@@V?$allocator@D@2@@std@@QEAAAEAV12@AEBV12@_K1@Z DD imagerel $LN244+280
	DD	imagerel $LN244+293
	DD	imagerel $chain$2$?append@?$basic_string@DU?$char_traits@D@std@@V?$allocator@D@2@@std@@QEAAAEAV12@AEBV12@_K1@Z
pdata	ENDS
;	COMDAT pdata
pdata	SEGMENT
$pdata$?append@?$basic_string@DU?$char_traits@D@std@@V?$allocator@D@2@@std@@QEAAAEAV12@PEBD_K@Z DD imagerel $LN267
	DD	imagerel $LN267+139
	DD	imagerel $unwind$?append@?$basic_string@DU?$char_traits@D@std@@V?$allocator@D@2@@std@@QEAAAEAV12@PEBD_K@Z
pdata	ENDS
;	COMDAT pdata
pdata	SEGMENT
$pdata$0$?append@?$basic_string@DU?$char_traits@D@std@@V?$allocator@D@2@@std@@QEAAAEAV12@PEBD_K@Z DD imagerel $LN267+139
	DD	imagerel $LN267+299
	DD	imagerel $chain$0$?append@?$basic_string@DU?$char_traits@D@std@@V?$allocator@D@2@@std@@QEAAAEAV12@PEBD_K@Z
pdata	ENDS
;	COMDAT pdata
pdata	SEGMENT
$pdata$1$?append@?$basic_string@DU?$char_traits@D@std@@V?$allocator@D@2@@std@@QEAAAEAV12@PEBD_K@Z DD imagerel $LN267+299
	DD	imagerel $LN267+312
	DD	imagerel $chain$1$?append@?$basic_string@DU?$char_traits@D@std@@V?$allocator@D@2@@std@@QEAAAEAV12@PEBD_K@Z
pdata	ENDS
;	COMDAT pdata
pdata	SEGMENT
$pdata$2$?append@?$basic_string@DU?$char_traits@D@std@@V?$allocator@D@2@@std@@QEAAAEAV12@PEBD_K@Z DD imagerel $LN267+312
	DD	imagerel $LN267+325
	DD	imagerel $chain$2$?append@?$basic_string@DU?$char_traits@D@std@@V?$allocator@D@2@@std@@QEAAAEAV12@PEBD_K@Z
pdata	ENDS
;	COMDAT pdata
pdata	SEGMENT
$pdata$?append@?$basic_string@DU?$char_traits@D@std@@V?$allocator@D@2@@std@@QEAAAEAV12@_KD@Z DD imagerel $LN220
	DD	imagerel $LN220+45
	DD	imagerel $unwind$?append@?$basic_string@DU?$char_traits@D@std@@V?$allocator@D@2@@std@@QEAAAEAV12@_KD@Z
pdata	ENDS
;	COMDAT pdata
pdata	SEGMENT
$pdata$0$?append@?$basic_string@DU?$char_traits@D@std@@V?$allocator@D@2@@std@@QEAAAEAV12@_KD@Z DD imagerel $LN220+45
	DD	imagerel $LN220+236
	DD	imagerel $chain$0$?append@?$basic_string@DU?$char_traits@D@std@@V?$allocator@D@2@@std@@QEAAAEAV12@_KD@Z
pdata	ENDS
;	COMDAT pdata
pdata	SEGMENT
$pdata$1$?append@?$basic_string@DU?$char_traits@D@std@@V?$allocator@D@2@@std@@QEAAAEAV12@_KD@Z DD imagerel $LN220+236
	DD	imagerel $LN220+249
	DD	imagerel $chain$1$?append@?$basic_string@DU?$char_traits@D@std@@V?$allocator@D@2@@std@@QEAAAEAV12@_KD@Z
pdata	ENDS
;	COMDAT pdata
pdata	SEGMENT
$pdata$2$?append@?$basic_string@DU?$char_traits@D@std@@V?$allocator@D@2@@std@@QEAAAEAV12@_KD@Z DD imagerel $LN220+249
	DD	imagerel $LN220+262
	DD	imagerel $chain$2$?append@?$basic_string@DU?$char_traits@D@std@@V?$allocator@D@2@@std@@QEAAAEAV12@_KD@Z
pdata	ENDS
;	COMDAT pdata
pdata	SEGMENT
$pdata$?assign@?$basic_string@DU?$char_traits@D@std@@V?$allocator@D@2@@std@@QEAAAEAV12@AEBV12@_K1@Z DD imagerel $LN262
	DD	imagerel $LN262+297
	DD	imagerel $unwind$?assign@?$basic_string@DU?$char_traits@D@std@@V?$allocator@D@2@@std@@QEAAAEAV12@AEBV12@_K1@Z
pdata	ENDS
;	COMDAT pdata
pdata	SEGMENT
$pdata$?assign@?$basic_string@DU?$char_traits@D@std@@V?$allocator@D@2@@std@@QEAAAEAV12@PEBD_K@Z DD imagerel $LN233
	DD	imagerel $LN233+304
	DD	imagerel $unwind$?assign@?$basic_string@DU?$char_traits@D@std@@V?$allocator@D@2@@std@@QEAAAEAV12@PEBD_K@Z
pdata	ENDS
;	COMDAT pdata
pdata	SEGMENT
$pdata$?assign@?$basic_string@DU?$char_traits@D@std@@V?$allocator@D@2@@std@@QEAAAEAV12@_KD@Z DD imagerel $LN190
	DD	imagerel $LN190+258
	DD	imagerel $unwind$?assign@?$basic_string@DU?$char_traits@D@std@@V?$allocator@D@2@@std@@QEAAAEAV12@_KD@Z
pdata	ENDS
;	COMDAT pdata
pdata	SEGMENT
$pdata$?insert@?$basic_string@DU?$char_traits@D@std@@V?$allocator@D@2@@std@@QEAAAEAV12@_K0D@Z DD imagerel $LN273
	DD	imagerel $LN273+63
	DD	imagerel $unwind$?insert@?$basic_string@DU?$char_traits@D@std@@V?$allocator@D@2@@std@@QEAAAEAV12@_K0D@Z
pdata	ENDS
;	COMDAT pdata
pdata	SEGMENT
$pdata$0$?insert@?$basic_string@DU?$char_traits@D@std@@V?$allocator@D@2@@std@@QEAAAEAV12@_K0D@Z DD imagerel $LN273+63
	DD	imagerel $LN273+321
	DD	imagerel $chain$0$?insert@?$basic_string@DU?$char_traits@D@std@@V?$allocator@D@2@@std@@QEAAAEAV12@_K0D@Z
pdata	ENDS
;	COMDAT pdata
pdata	SEGMENT
$pdata$1$?insert@?$basic_string@DU?$char_traits@D@std@@V?$allocator@D@2@@std@@QEAAAEAV12@_K0D@Z DD imagerel $LN273+321
	DD	imagerel $LN273+347
	DD	imagerel $chain$1$?insert@?$basic_string@DU?$char_traits@D@std@@V?$allocator@D@2@@std@@QEAAAEAV12@_K0D@Z
pdata	ENDS
;	COMDAT pdata
pdata	SEGMENT
$pdata$2$?insert@?$basic_string@DU?$char_traits@D@std@@V?$allocator@D@2@@std@@QEAAAEAV12@_K0D@Z DD imagerel $LN273+347
	DD	imagerel $LN273+360
	DD	imagerel $chain$2$?insert@?$basic_string@DU?$char_traits@D@std@@V?$allocator@D@2@@std@@QEAAAEAV12@_K0D@Z
pdata	ENDS
;	COMDAT pdata
pdata	SEGMENT
$pdata$?erase@?$basic_string@DU?$char_traits@D@std@@V?$allocator@D@2@@std@@QEAAAEAV12@_K@Z DD imagerel $LN51
	DD	imagerel $LN51+61
	DD	imagerel $unwind$?erase@?$basic_string@DU?$char_traits@D@std@@V?$allocator@D@2@@std@@QEAAAEAV12@_K@Z
pdata	ENDS
;	COMDAT pdata
pdata	SEGMENT
$pdata$?erase@?$basic_string@DU?$char_traits@D@std@@V?$allocator@D@2@@std@@QEAAAEAV12@_K0@Z DD imagerel $LN126
	DD	imagerel $LN126+203
	DD	imagerel $unwind$?erase@?$basic_string@DU?$char_traits@D@std@@V?$allocator@D@2@@std@@QEAAAEAV12@_K0@Z
pdata	ENDS
;	COMDAT pdata
pdata	SEGMENT
$pdata$?_Copy@?$basic_string@DU?$char_traits@D@std@@V?$allocator@D@2@@std@@QEAAX_K0@Z DD imagerel $LN468
	DD	imagerel $LN468+276
	DD	imagerel $unwind$?_Copy@?$basic_string@DU?$char_traits@D@std@@V?$allocator@D@2@@std@@QEAAX_K0@Z
pdata	ENDS
;	COMDAT pdata
pdata	SEGMENT
$pdata$?catch$1@?0??_Copy@?$basic_string@DU?$char_traits@D@std@@V?$allocator@D@2@@std@@QEAAX_K0@Z@4HA DD imagerel ?catch$1@?0??_Copy@?$basic_string@DU?$char_traits@D@std@@V?$allocator@D@2@@std@@QEAAX_K0@Z@4HA
	DD	imagerel ?catch$1@?0??_Copy@?$basic_string@DU?$char_traits@D@std@@V?$allocator@D@2@@std@@QEAAX_K0@Z@4HA+51
	DD	imagerel $unwind$?catch$1@?0??_Copy@?$basic_string@DU?$char_traits@D@std@@V?$allocator@D@2@@std@@QEAAX_K0@Z@4HA
pdata	ENDS
;	COMDAT pdata
pdata	SEGMENT
$pdata$?catch$0@?0??_Copy@?$basic_string@DU?$char_traits@D@std@@V?$allocator@D@2@@std@@QEAAX_K0@Z@4HA DD imagerel ?catch$0@?0??_Copy@?$basic_string@DU?$char_traits@D@std@@V?$allocator@D@2@@std@@QEAAX_K0@Z@4HA
	DD	imagerel ?catch$0@?0??_Copy@?$basic_string@DU?$char_traits@D@std@@V?$allocator@D@2@@std@@QEAAX_K0@Z@4HA+81
	DD	imagerel $unwind$?catch$0@?0??_Copy@?$basic_string@DU?$char_traits@D@std@@V?$allocator@D@2@@std@@QEAAX_K0@Z@4HA
pdata	ENDS
;	COMDAT pdata
pdata	SEGMENT
$pdata$?_Grow@?$basic_string@DU?$char_traits@D@std@@V?$allocator@D@2@@std@@QEAA_N_K_N@Z DD imagerel $LN105
	DD	imagerel $LN105+15
	DD	imagerel $unwind$?_Grow@?$basic_string@DU?$char_traits@D@std@@V?$allocator@D@2@@std@@QEAA_N_K_N@Z
pdata	ENDS
;	COMDAT pdata
pdata	SEGMENT
$pdata$0$?_Grow@?$basic_string@DU?$char_traits@D@std@@V?$allocator@D@2@@std@@QEAA_N_K_N@Z DD imagerel $LN105+15
	DD	imagerel $LN105+54
	DD	imagerel $chain$0$?_Grow@?$basic_string@DU?$char_traits@D@std@@V?$allocator@D@2@@std@@QEAA_N_K_N@Z
pdata	ENDS
;	COMDAT pdata
pdata	SEGMENT
$pdata$2$?_Grow@?$basic_string@DU?$char_traits@D@std@@V?$allocator@D@2@@std@@QEAA_N_K_N@Z DD imagerel $LN105+54
	DD	imagerel $LN105+100
	DD	imagerel $chain$2$?_Grow@?$basic_string@DU?$char_traits@D@std@@V?$allocator@D@2@@std@@QEAA_N_K_N@Z
pdata	ENDS
;	COMDAT pdata
pdata	SEGMENT
$pdata$4$?_Grow@?$basic_string@DU?$char_traits@D@std@@V?$allocator@D@2@@std@@QEAA_N_K_N@Z DD imagerel $LN105+100
	DD	imagerel $LN105+139
	DD	imagerel $chain$4$?_Grow@?$basic_string@DU?$char_traits@D@std@@V?$allocator@D@2@@std@@QEAA_N_K_N@Z
pdata	ENDS
;	COMDAT pdata
pdata	SEGMENT
$pdata$5$?_Grow@?$basic_string@DU?$char_traits@D@std@@V?$allocator@D@2@@std@@QEAA_N_K_N@Z DD imagerel $LN105+139
	DD	imagerel $LN105+152
	DD	imagerel $chain$5$?_Grow@?$basic_string@DU?$char_traits@D@std@@V?$allocator@D@2@@std@@QEAA_N_K_N@Z
pdata	ENDS
;	COMDAT pdata
pdata	SEGMENT
$pdata$?_Tidy@?$basic_string@DU?$char_traits@D@std@@V?$allocator@D@2@@std@@QEAAX_N_K@Z DD imagerel $LN116
	DD	imagerel $LN116+27
	DD	imagerel $unwind$?_Tidy@?$basic_string@DU?$char_traits@D@std@@V?$allocator@D@2@@std@@QEAAX_N_K@Z
pdata	ENDS
;	COMDAT pdata
pdata	SEGMENT
$pdata$0$?_Tidy@?$basic_string@DU?$char_traits@D@std@@V?$allocator@D@2@@std@@QEAAX_N_K@Z DD imagerel $LN116+27
	DD	imagerel $LN116+71
	DD	imagerel $chain$0$?_Tidy@?$basic_string@DU?$char_traits@D@std@@V?$allocator@D@2@@std@@QEAAX_N_K@Z
pdata	ENDS
;	COMDAT pdata
pdata	SEGMENT
$pdata$1$?_Tidy@?$basic_string@DU?$char_traits@D@std@@V?$allocator@D@2@@std@@QEAAX_N_K@Z DD imagerel $LN116+71
	DD	imagerel $LN116+123
	DD	imagerel $chain$1$?_Tidy@?$basic_string@DU?$char_traits@D@std@@V?$allocator@D@2@@std@@QEAAX_N_K@Z
pdata	ENDS
;	COMDAT pdata
pdata	SEGMENT
$pdata$?_Xlen@?$basic_string@DU?$char_traits@D@std@@V?$allocator@D@2@@std@@QEBAXXZ DD imagerel $LN4
	DD	imagerel $LN4+17
	DD	imagerel $unwind$?_Xlen@?$basic_string@DU?$char_traits@D@std@@V?$allocator@D@2@@std@@QEBAXXZ
pdata	ENDS
;	COMDAT pdata
pdata	SEGMENT
$pdata$?_Xran@?$basic_string@DU?$char_traits@D@std@@V?$allocator@D@2@@std@@QEBAXXZ DD imagerel $LN4
	DD	imagerel $LN4+17
	DD	imagerel $unwind$?_Xran@?$basic_string@DU?$char_traits@D@std@@V?$allocator@D@2@@std@@QEBAXXZ
pdata	ENDS
;	COMDAT pdata
pdata	SEGMENT
$pdata$??0runtime_error@std@@QEAA@AEBV?$basic_string@DU?$char_traits@D@std@@V?$allocator@D@2@@1@@Z DD imagerel $LN28
	DD	imagerel $LN28+84
	DD	imagerel $unwind$??0runtime_error@std@@QEAA@AEBV?$basic_string@DU?$char_traits@D@std@@V?$allocator@D@2@@1@@Z
pdata	ENDS
;	COMDAT pdata
pdata	SEGMENT
$pdata$??0runtime_error@std@@QEAA@PEBD@Z DD imagerel $LN7
	DD	imagerel $LN7+74
	DD	imagerel $unwind$??0runtime_error@std@@QEAA@PEBD@Z
pdata	ENDS
;	COMDAT pdata
pdata	SEGMENT
$pdata$??0runtime_error@std@@QEAA@AEBV01@@Z DD imagerel $LN7
	DD	imagerel $LN7+63
	DD	imagerel $unwind$??0runtime_error@std@@QEAA@AEBV01@@Z
pdata	ENDS
;	COMDAT pdata
pdata	SEGMENT
$pdata$??_Gruntime_error@std@@UEAAPEAXI@Z DD imagerel $LN11
	DD	imagerel $LN11+66
	DD	imagerel $unwind$??_Gruntime_error@std@@UEAAPEAXI@Z
pdata	ENDS
;	COMDAT pdata
pdata	SEGMENT
$pdata$??0bad_cast@std@@QEAA@AEBV01@@Z DD imagerel $LN7
	DD	imagerel $LN7+63
	DD	imagerel $unwind$??0bad_cast@std@@QEAA@AEBV01@@Z
pdata	ENDS
;	COMDAT pdata
pdata	SEGMENT
$pdata$??_Gbad_cast@std@@UEAAPEAXI@Z DD imagerel $LN11
	DD	imagerel $LN11+66
	DD	imagerel $unwind$??_Gbad_cast@std@@UEAAPEAXI@Z
pdata	ENDS
;	COMDAT pdata
pdata	SEGMENT
$pdata$??0_Locinfo@std@@QEAA@PEBD@Z DD imagerel $LN28
	DD	imagerel $LN28+201
	DD	imagerel $unwind$??0_Locinfo@std@@QEAA@PEBD@Z
pdata	ENDS
;	COMDAT pdata
pdata	SEGMENT
$pdata$??1_Locinfo@std@@QEAA@XZ DD imagerel $LN39
	DD	imagerel $LN39+163
	DD	imagerel $unwind$??1_Locinfo@std@@QEAA@XZ
pdata	ENDS
;	COMDAT pdata
pdata	SEGMENT
$pdata$?_Getctype@_Locinfo@std@@QEBA?AU_Ctypevec@@XZ DD imagerel $LN4
	DD	imagerel $LN4+42
	DD	imagerel $unwind$?_Getctype@_Locinfo@std@@QEBA?AU_Ctypevec@@XZ
pdata	ENDS
;	COMDAT pdata
pdata	SEGMENT
$pdata$?_Getcvt@_Locinfo@std@@QEBA?AU_Cvtvec@@XZ DD imagerel $LN4
	DD	imagerel $LN4+58
	DD	imagerel $unwind$?_Getcvt@_Locinfo@std@@QEBA?AU_Cvtvec@@XZ
pdata	ENDS
;	COMDAT pdata
pdata	SEGMENT
$pdata$??1?$_Yarn@D@std@@QEAA@XZ DD imagerel $LN8
	DD	imagerel $LN8+35
	DD	imagerel $unwind$??1?$_Yarn@D@std@@QEAA@XZ
pdata	ENDS
;	COMDAT pdata
pdata	SEGMENT
$pdata$?_Tidy@?$_Yarn@D@std@@AEAAXXZ DD imagerel $LN6
	DD	imagerel $LN6+35
	DD	imagerel $unwind$?_Tidy@?$_Yarn@D@std@@AEAAXXZ
pdata	ENDS
;	COMDAT pdata
pdata	SEGMENT
$pdata$??1?$_Yarn@_W@std@@QEAA@XZ DD imagerel $LN8
	DD	imagerel $LN8+35
	DD	imagerel $unwind$??1?$_Yarn@_W@std@@QEAA@XZ
pdata	ENDS
;	COMDAT pdata
pdata	SEGMENT
$pdata$?_Tidy@?$_Yarn@_W@std@@AEAAXXZ DD imagerel $LN6
	DD	imagerel $LN6+35
	DD	imagerel $unwind$?_Tidy@?$_Yarn@_W@std@@AEAAXXZ
pdata	ENDS
;	COMDAT pdata
pdata	SEGMENT
$pdata$??_G_Facet_base@std@@UEAAPEAXI@Z DD imagerel $LN9
	DD	imagerel $LN9+43
	DD	imagerel $unwind$??_G_Facet_base@std@@UEAAPEAXI@Z
pdata	ENDS
;	COMDAT pdata
pdata	SEGMENT
$pdata$??Bid@locale@std@@QEAA_KXZ DD imagerel $LN8
	DD	imagerel $LN8+80
	DD	imagerel $unwind$??Bid@locale@std@@QEAA_KXZ
pdata	ENDS
;	COMDAT pdata
pdata	SEGMENT
$pdata$??_Gfacet@locale@std@@MEAAPEAXI@Z DD imagerel $LN12
	DD	imagerel $LN12+43
	DD	imagerel $unwind$??_Gfacet@locale@std@@MEAAPEAXI@Z
pdata	ENDS
;	COMDAT pdata
pdata	SEGMENT
$pdata$??0locale@std@@QEAA@AEBV01@@Z DD imagerel $LN3
	DD	imagerel $LN3+42
	DD	imagerel $unwind$??0locale@std@@QEAA@AEBV01@@Z
pdata	ENDS
;	COMDAT pdata
pdata	SEGMENT
$pdata$??1locale@std@@QEAA@XZ DD imagerel $LN6
	DD	imagerel $LN6+57
	DD	imagerel $unwind$??1locale@std@@QEAA@XZ
pdata	ENDS
;	COMDAT pdata
pdata	SEGMENT
$pdata$?_Getfacet@locale@std@@QEBAPEBVfacet@12@_K@Z DD imagerel $LN12
	DD	imagerel $LN12+82
	DD	imagerel $unwind$?_Getfacet@locale@std@@QEBAPEBVfacet@12@_K@Z
pdata	ENDS
;	COMDAT pdata
pdata	SEGMENT
$pdata$??_Gctype_base@std@@UEAAPEAXI@Z DD imagerel $LN15
	DD	imagerel $LN15+43
	DD	imagerel $unwind$??_Gctype_base@std@@UEAAPEAXI@Z
pdata	ENDS
;	COMDAT pdata
pdata	SEGMENT
$pdata$??0?$ctype@D@std@@QEAA@AEBV_Locinfo@1@_K@Z DD imagerel $LN18
	DD	imagerel $LN18+57
	DD	imagerel $unwind$??0?$ctype@D@std@@QEAA@AEBV_Locinfo@1@_K@Z
pdata	ENDS
;	COMDAT pdata
pdata	SEGMENT
$pdata$?_Getcat@?$ctype@D@std@@SA_KPEAPEBVfacet@locale@2@PEBV42@@Z DD imagerel $LN36
	DD	imagerel $LN36+230
	DD	imagerel $unwind$?_Getcat@?$ctype@D@std@@SA_KPEAPEBVfacet@locale@2@PEBV42@@Z
pdata	ENDS
;	COMDAT pdata
pdata	SEGMENT
$pdata$?dtor$0@?0??_Getcat@?$ctype@D@std@@SA_KPEAPEBVfacet@locale@2@PEBV42@@Z@4HA DD imagerel ?dtor$0@?0??_Getcat@?$ctype@D@std@@SA_KPEAPEBVfacet@locale@2@PEBV42@@Z@4HA
	DD	imagerel ?dtor$0@?0??_Getcat@?$ctype@D@std@@SA_KPEAPEBVfacet@locale@2@PEBV42@@Z@4HA+32
	DD	imagerel $unwind$?dtor$0@?0??_Getcat@?$ctype@D@std@@SA_KPEAPEBVfacet@locale@2@PEBV42@@Z@4HA
pdata	ENDS
;	COMDAT pdata
pdata	SEGMENT
$pdata$??1?$ctype@D@std@@MEAA@XZ DD imagerel $LN19
	DD	imagerel $LN19+73
	DD	imagerel $unwind$??1?$ctype@D@std@@MEAA@XZ
pdata	ENDS
;	COMDAT pdata
pdata	SEGMENT
$pdata$?_Init@?$ctype@D@std@@IEAAXAEBV_Locinfo@2@@Z DD imagerel $LN6
	DD	imagerel $LN6+40
	DD	imagerel $unwind$?_Init@?$ctype@D@std@@IEAAXAEBV_Locinfo@2@@Z
pdata	ENDS
;	COMDAT pdata
pdata	SEGMENT
$pdata$?_Tidy@?$ctype@D@std@@IEAAXXZ DD imagerel $LN8
	DD	imagerel $LN8+64
	DD	imagerel $unwind$?_Tidy@?$ctype@D@std@@IEAAXXZ
pdata	ENDS
;	COMDAT pdata
pdata	SEGMENT
$pdata$?do_tolower@?$ctype@D@std@@MEBAPEBDPEADPEBD@Z DD imagerel $LN12
	DD	imagerel $LN12+38
	DD	imagerel $unwind$?do_tolower@?$ctype@D@std@@MEBAPEBDPEADPEBD@Z
pdata	ENDS
;	COMDAT pdata
pdata	SEGMENT
$pdata$0$?do_tolower@?$ctype@D@std@@MEBAPEBDPEADPEBD@Z DD imagerel $LN12+38
	DD	imagerel $LN12+77
	DD	imagerel $chain$0$?do_tolower@?$ctype@D@std@@MEBAPEBDPEADPEBD@Z
pdata	ENDS
;	COMDAT pdata
pdata	SEGMENT
$pdata$1$?do_tolower@?$ctype@D@std@@MEBAPEBDPEADPEBD@Z DD imagerel $LN12+77
	DD	imagerel $LN12+96
	DD	imagerel $chain$1$?do_tolower@?$ctype@D@std@@MEBAPEBDPEADPEBD@Z
pdata	ENDS
;	COMDAT pdata
pdata	SEGMENT
$pdata$?do_toupper@?$ctype@D@std@@MEBAPEBDPEADPEBD@Z DD imagerel $LN12
	DD	imagerel $LN12+38
	DD	imagerel $unwind$?do_toupper@?$ctype@D@std@@MEBAPEBDPEADPEBD@Z
pdata	ENDS
;	COMDAT pdata
pdata	SEGMENT
$pdata$0$?do_toupper@?$ctype@D@std@@MEBAPEBDPEADPEBD@Z DD imagerel $LN12+38
	DD	imagerel $LN12+77
	DD	imagerel $chain$0$?do_toupper@?$ctype@D@std@@MEBAPEBDPEADPEBD@Z
pdata	ENDS
;	COMDAT pdata
pdata	SEGMENT
$pdata$1$?do_toupper@?$ctype@D@std@@MEBAPEBDPEADPEBD@Z DD imagerel $LN12+77
	DD	imagerel $LN12+96
	DD	imagerel $chain$1$?do_toupper@?$ctype@D@std@@MEBAPEBDPEADPEBD@Z
pdata	ENDS
;	COMDAT pdata
pdata	SEGMENT
$pdata$?do_widen@?$ctype@D@std@@MEBAPEBDPEBD0PEAD@Z DD imagerel $LN4
	DD	imagerel $LN4+29
	DD	imagerel $unwind$?do_widen@?$ctype@D@std@@MEBAPEBDPEBD0PEAD@Z
pdata	ENDS
;	COMDAT pdata
pdata	SEGMENT
$pdata$?do_narrow@?$ctype@D@std@@MEBAPEBDPEBD0DPEAD@Z DD imagerel $LN4
	DD	imagerel $LN4+31
	DD	imagerel $unwind$?do_narrow@?$ctype@D@std@@MEBAPEBDPEBD0DPEAD@Z
pdata	ENDS
;	COMDAT pdata
pdata	SEGMENT
$pdata$??_G?$ctype@D@std@@MEAAPEAXI@Z DD imagerel $LN24
	DD	imagerel $LN24+106
	DD	imagerel $unwind$??_G?$ctype@D@std@@MEAAPEAXI@Z
pdata	ENDS
;	COMDAT pdata
pdata	SEGMENT
$pdata$??$use_facet@V?$ctype@D@std@@@std@@YAAEBV?$ctype@D@0@AEBVlocale@0@@Z DD imagerel $LN32
	DD	imagerel $LN32+318
	DD	imagerel $unwind$??$use_facet@V?$ctype@D@std@@@std@@YAAEBV?$ctype@D@0@AEBVlocale@0@@Z
pdata	ENDS
;	COMDAT pdata
pdata	SEGMENT
$pdata$?make_error_code@std@@YA?AVerror_code@1@W4io_errc@1@@Z DD imagerel $LN10
	DD	imagerel $LN10+40
	DD	imagerel $unwind$?make_error_code@std@@YA?AVerror_code@1@W4io_errc@1@@Z
pdata	ENDS
;	COMDAT pdata
pdata	SEGMENT
$pdata$?equivalent@error_category@std@@UEBA_NHAEBVerror_condition@2@@Z DD imagerel $LN24
	DD	imagerel $LN24+63
	DD	imagerel $unwind$?equivalent@error_category@std@@UEBA_NHAEBVerror_condition@2@@Z
pdata	ENDS
;	COMDAT pdata
pdata	SEGMENT
$pdata$??_Gerror_category@std@@UEAAPEAXI@Z DD imagerel $LN9
	DD	imagerel $LN9+43
	DD	imagerel $unwind$??_Gerror_category@std@@UEAAPEAXI@Z
pdata	ENDS
;	COMDAT pdata
pdata	SEGMENT
$pdata$?message@error_code@std@@QEBA?AV?$basic_string@DU?$char_traits@D@std@@V?$allocator@D@2@@2@XZ DD imagerel $LN12
	DD	imagerel $LN12+39
	DD	imagerel $unwind$?message@error_code@std@@QEBA?AV?$basic_string@DU?$char_traits@D@std@@V?$allocator@D@2@@2@XZ
pdata	ENDS
;	COMDAT pdata
pdata	SEGMENT
$pdata$?_Makestr@_System_error@std@@CA?AV?$basic_string@DU?$char_traits@D@std@@V?$allocator@D@2@@2@Verror_code@2@V32@@Z DD imagerel $LN403
	DD	imagerel $LN403+277
	DD	imagerel $unwind$?_Makestr@_System_error@std@@CA?AV?$basic_string@DU?$char_traits@D@std@@V?$allocator@D@2@@2@Verror_code@2@V32@@Z
pdata	ENDS
;	COMDAT pdata
pdata	SEGMENT
$pdata$??0_System_error@std@@IEAA@Verror_code@1@AEBV?$basic_string@DU?$char_traits@D@std@@V?$allocator@D@2@@1@@Z DD imagerel $LN290
	DD	imagerel $LN290+250
	DD	imagerel $unwind$??0_System_error@std@@IEAA@Verror_code@1@AEBV?$basic_string@DU?$char_traits@D@std@@V?$allocator@D@2@@1@@Z
pdata	ENDS
;	COMDAT pdata
pdata	SEGMENT
$pdata$??0_System_error@std@@QEAA@AEBV01@@Z DD imagerel $LN9
	DD	imagerel $LN9+80
	DD	imagerel $unwind$??0_System_error@std@@QEAA@AEBV01@@Z
pdata	ENDS
;	COMDAT pdata
pdata	SEGMENT
$pdata$??_G_System_error@std@@UEAAPEAXI@Z DD imagerel $LN14
	DD	imagerel $LN14+66
	DD	imagerel $unwind$??_G_System_error@std@@UEAAPEAXI@Z
pdata	ENDS
;	COMDAT pdata
pdata	SEGMENT
$pdata$??0system_error@std@@QEAA@Verror_code@1@PEBD@Z DD imagerel $LN257
	DD	imagerel $LN257+200
	DD	imagerel $unwind$??0system_error@std@@QEAA@Verror_code@1@PEBD@Z
pdata	ENDS
;	COMDAT pdata
pdata	SEGMENT
$pdata$??0system_error@std@@QEAA@AEBV01@@Z DD imagerel $LN11
	DD	imagerel $LN11+90
	DD	imagerel $unwind$??0system_error@std@@QEAA@AEBV01@@Z
pdata	ENDS
;	COMDAT pdata
pdata	SEGMENT
$pdata$??_Gsystem_error@std@@UEAAPEAXI@Z DD imagerel $LN17
	DD	imagerel $LN17+66
	DD	imagerel $unwind$??_Gsystem_error@std@@UEAAPEAXI@Z
pdata	ENDS
;	COMDAT pdata
pdata	SEGMENT
$pdata$?message@_Generic_error_category@std@@UEBA?AV?$basic_string@DU?$char_traits@D@std@@V?$allocator@D@2@@2@H@Z DD imagerel $LN141
	DD	imagerel $LN141+86
	DD	imagerel $unwind$?message@_Generic_error_category@std@@UEBA?AV?$basic_string@DU?$char_traits@D@std@@V?$allocator@D@2@@2@H@Z
pdata	ENDS
;	COMDAT pdata
pdata	SEGMENT
$pdata$??_G_Generic_error_category@std@@UEAAPEAXI@Z DD imagerel $LN12
	DD	imagerel $LN12+43
	DD	imagerel $unwind$??_G_Generic_error_category@std@@UEAAPEAXI@Z
pdata	ENDS
;	COMDAT pdata
pdata	SEGMENT
$pdata$?message@_Iostream_error_category@std@@UEBA?AV?$basic_string@DU?$char_traits@D@std@@V?$allocator@D@2@@2@H@Z DD imagerel $LN143
	DD	imagerel $LN143+77
	DD	imagerel $unwind$?message@_Iostream_error_category@std@@UEBA?AV?$basic_string@DU?$char_traits@D@std@@V?$allocator@D@2@@2@H@Z
pdata	ENDS
;	COMDAT pdata
pdata	SEGMENT
$pdata$??_G_Iostream_error_category@std@@UEAAPEAXI@Z DD imagerel $LN15
	DD	imagerel $LN15+43
	DD	imagerel $unwind$??_G_Iostream_error_category@std@@UEAAPEAXI@Z
pdata	ENDS
;	COMDAT pdata
pdata	SEGMENT
$pdata$??$_Immortalize@V_Iostream_error_category@std@@@std@@YAAEAV_Iostream_error_category@0@XZ DD imagerel $LN22
	DD	imagerel $LN22+121
	DD	imagerel $unwind$??$_Immortalize@V_Iostream_error_category@std@@@std@@YAAEAV_Iostream_error_category@0@XZ
pdata	ENDS
;	COMDAT pdata
pdata	SEGMENT
$pdata$??0failure@ios_base@std@@QEAA@PEBDAEBVerror_code@2@@Z DD imagerel $LN5
	DD	imagerel $LN5+50
	DD	imagerel $unwind$??0failure@ios_base@std@@QEAA@PEBDAEBVerror_code@2@@Z
pdata	ENDS
;	COMDAT pdata
pdata	SEGMENT
$pdata$??0failure@ios_base@std@@QEAA@AEBV012@@Z DD imagerel $LN13
	DD	imagerel $LN13+90
	DD	imagerel $unwind$??0failure@ios_base@std@@QEAA@AEBV012@@Z
pdata	ENDS
;	COMDAT pdata
pdata	SEGMENT
$pdata$??_Gfailure@ios_base@std@@UEAAPEAXI@Z DD imagerel $LN20
	DD	imagerel $LN20+66
	DD	imagerel $unwind$??_Gfailure@ios_base@std@@UEAAPEAXI@Z
pdata	ENDS
;	COMDAT pdata
pdata	SEGMENT
$pdata$?clear@ios_base@std@@QEAAXH_N@Z DD imagerel $LN1134
	DD	imagerel $LN1134+781
	DD	imagerel $unwind$?clear@ios_base@std@@QEAAXH_N@Z
pdata	ENDS
;	COMDAT pdata
pdata	SEGMENT
$pdata$?getloc@ios_base@std@@QEBA?AVlocale@2@XZ DD imagerel $LN8
	DD	imagerel $LN8+54
	DD	imagerel $unwind$?getloc@ios_base@std@@QEBA?AVlocale@2@XZ
pdata	ENDS
;	COMDAT pdata
pdata	SEGMENT
$pdata$?_Osfx@?$basic_ostream@DU?$char_traits@D@std@@@std@@QEAAXXZ DD imagerel $LN30
	DD	imagerel $LN30+96
	DD	imagerel $unwind$?_Osfx@?$basic_ostream@DU?$char_traits@D@std@@@std@@QEAAXXZ
pdata	ENDS
;	COMDAT pdata
pdata	SEGMENT
$pdata$?catch$0@?0??_Osfx@?$basic_ostream@DU?$char_traits@D@std@@@std@@QEAAXXZ@4HA DD imagerel ?catch$0@?0??_Osfx@?$basic_ostream@DU?$char_traits@D@std@@@std@@QEAAXXZ@4HA
	DD	imagerel ?catch$0@?0??_Osfx@?$basic_ostream@DU?$char_traits@D@std@@@std@@QEAAXXZ@4HA+27
	DD	imagerel $unwind$?catch$0@?0??_Osfx@?$basic_ostream@DU?$char_traits@D@std@@@std@@QEAAXXZ@4HA
pdata	ENDS
;	COMDAT pdata
pdata	SEGMENT
$pdata$??6?$basic_ostream@DU?$char_traits@D@std@@@std@@QEAAAEAV01@H@Z DD imagerel $LN1230
	DD	imagerel $LN1230+396
	DD	imagerel $unwind$??6?$basic_ostream@DU?$char_traits@D@std@@@std@@QEAAAEAV01@H@Z
pdata	ENDS
;	COMDAT pdata
pdata	SEGMENT
$pdata$?catch$0@?0???6?$basic_ostream@DU?$char_traits@D@std@@@std@@QEAAAEAV01@H@Z@4HA DD imagerel ?catch$0@?0???6?$basic_ostream@DU?$char_traits@D@std@@@std@@QEAAAEAV01@H@Z@4HA
	DD	imagerel ?catch$0@?0???6?$basic_ostream@DU?$char_traits@D@std@@@std@@QEAAAEAV01@H@Z@4HA+80
	DD	imagerel $unwind$?catch$0@?0???6?$basic_ostream@DU?$char_traits@D@std@@@std@@QEAAAEAV01@H@Z@4HA
pdata	ENDS
;	COMDAT pdata
pdata	SEGMENT
$pdata$?flush@?$basic_ostream@DU?$char_traits@D@std@@@std@@QEAAAEAV12@XZ DD imagerel $LN61
	DD	imagerel $LN61+174
	DD	imagerel $unwind$?flush@?$basic_ostream@DU?$char_traits@D@std@@@std@@QEAAAEAV12@XZ
pdata	ENDS
;	COMDAT pdata
pdata	SEGMENT
$pdata$??_G_Chore@details@Concurrency@@MEAAPEAXI@Z DD imagerel $LN9
	DD	imagerel $LN9+43
	DD	imagerel $unwind$??_G_Chore@details@Concurrency@@MEAAPEAXI@Z
pdata	ENDS
;	COMDAT pdata
pdata	SEGMENT
$pdata$??_G_UnrealizedChore@details@Concurrency@@UEAAPEAXI@Z DD imagerel $LN16
	DD	imagerel $LN16+66
	DD	imagerel $unwind$??_G_UnrealizedChore@details@Concurrency@@UEAAPEAXI@Z
pdata	ENDS
;	COMDAT pdata
pdata	SEGMENT
$pdata$?bigV@@YA?AV?$vector@HV?$allocator@H@std@@@std@@H@Z DD imagerel $LN100
	DD	imagerel $LN100+137
	DD	imagerel $unwind$?bigV@@YA?AV?$vector@HV?$allocator@H@std@@@std@@H@Z
pdata	ENDS
;	COMDAT pdata
pdata	SEGMENT
$pdata$?dtor$0@?0??bigV@@YA?AV?$vector@HV?$allocator@H@std@@@std@@H@Z@4HA DD imagerel ?dtor$0@?0??bigV@@YA?AV?$vector@HV?$allocator@H@std@@@std@@H@Z@4HA
	DD	imagerel ?dtor$0@?0??bigV@@YA?AV?$vector@HV?$allocator@H@std@@@std@@H@Z@4HA+38
	DD	imagerel $unwind$?dtor$0@?0??bigV@@YA?AV?$vector@HV?$allocator@H@std@@@std@@H@Z@4HA
pdata	ENDS
;	COMDAT pdata
pdata	SEGMENT
$pdata$?deallocate@?$allocator@H@std@@QEAAXPEAH_K@Z DD imagerel $LN19
	DD	imagerel $LN19+109
	DD	imagerel $unwind$?deallocate@?$allocator@H@std@@QEAAXPEAH_K@Z
pdata	ENDS
;	COMDAT pdata
pdata	SEGMENT
$pdata$?allocate@?$allocator@H@std@@QEAAPEAH_K@Z DD imagerel $LN19
	DD	imagerel $LN19+126
	DD	imagerel $unwind$?allocate@?$allocator@H@std@@QEAAPEAH_K@Z
pdata	ENDS
;	COMDAT pdata
pdata	SEGMENT
$pdata$??1?$vector@HV?$allocator@H@std@@@std@@QEAA@XZ DD imagerel $LN96
	DD	imagerel $LN96+52
	DD	imagerel $unwind$??1?$vector@HV?$allocator@H@std@@@std@@QEAA@XZ
pdata	ENDS
;	COMDAT pdata
pdata	SEGMENT
$pdata$?resize@?$vector@HV?$allocator@H@std@@@std@@QEAAX_K@Z DD imagerel $LN342
	DD	imagerel $LN342+249
	DD	imagerel $unwind$?resize@?$vector@HV?$allocator@H@std@@@std@@QEAAX_K@Z
pdata	ENDS
;	COMDAT pdata
pdata	SEGMENT
$pdata$?catch$0@?0??resize@?$vector@HV?$allocator@H@std@@@std@@QEAAX_K@Z@4HA DD imagerel ?catch$0@?0??resize@?$vector@HV?$allocator@H@std@@@std@@QEAAX_K@Z@4HA
	DD	imagerel ?catch$0@?0??resize@?$vector@HV?$allocator@H@std@@@std@@QEAAX_K@Z@4HA+32
	DD	imagerel $unwind$?catch$0@?0??resize@?$vector@HV?$allocator@H@std@@@std@@QEAAX_K@Z@4HA
pdata	ENDS
;	COMDAT pdata
pdata	SEGMENT
$pdata$?_Reallocate@?$vector@HV?$allocator@H@std@@@std@@IEAAX_K@Z DD imagerel $LN180
	DD	imagerel $LN180+153
	DD	imagerel $unwind$?_Reallocate@?$vector@HV?$allocator@H@std@@@std@@IEAAX_K@Z
pdata	ENDS
;	COMDAT pdata
pdata	SEGMENT
$pdata$?catch$0@?0??_Reallocate@?$vector@HV?$allocator@H@std@@@std@@IEAAX_K@Z@4HA DD imagerel ?catch$0@?0??_Reallocate@?$vector@HV?$allocator@H@std@@@std@@IEAAX_K@Z@4HA
	DD	imagerel ?catch$0@?0??_Reallocate@?$vector@HV?$allocator@H@std@@@std@@IEAAX_K@Z@4HA+40
	DD	imagerel $unwind$?catch$0@?0??_Reallocate@?$vector@HV?$allocator@H@std@@@std@@IEAAX_K@Z@4HA
pdata	ENDS
;	COMDAT pdata
pdata	SEGMENT
$pdata$?_Reserve@?$vector@HV?$allocator@H@std@@@std@@IEAAX_K@Z DD imagerel $LN136
	DD	imagerel $LN136+129
	DD	imagerel $unwind$?_Reserve@?$vector@HV?$allocator@H@std@@@std@@IEAAX_K@Z
pdata	ENDS
;	COMDAT pdata
pdata	SEGMENT
$pdata$?_Tidy@?$vector@HV?$allocator@H@std@@@std@@IEAAXXZ DD imagerel $LN94
	DD	imagerel $LN94+52
	DD	imagerel $unwind$?_Tidy@?$vector@HV?$allocator@H@std@@@std@@IEAAXXZ
pdata	ENDS
;	COMDAT pdata
pdata	SEGMENT
$pdata$?_Xlen@?$vector@HV?$allocator@H@std@@@std@@IEBAXXZ DD imagerel $LN4
	DD	imagerel $LN4+17
	DD	imagerel $unwind$?_Xlen@?$vector@HV?$allocator@H@std@@@std@@IEBAXXZ
pdata	ENDS
;	COMDAT pdata
pdata	SEGMENT
$pdata$main DD	imagerel $LN345
	DD	imagerel $LN345+420
	DD	imagerel $unwind$main
pdata	ENDS
;	COMDAT pdata
pdata	SEGMENT
$pdata$main$catch$0 DD imagerel main$catch$0
	DD	imagerel main$catch$0+47
	DD	imagerel $unwind$main$catch$0
pdata	ENDS
;	COMDAT pdata
pdata	SEGMENT
$pdata$??$?6U?$char_traits@D@std@@@std@@YAAEAV?$basic_ostream@DU?$char_traits@D@std@@@0@AEAV10@PEBD@Z DD imagerel $LN1301
	DD	imagerel $LN1301+588
	DD	imagerel $unwind$??$?6U?$char_traits@D@std@@@std@@YAAEAV?$basic_ostream@DU?$char_traits@D@std@@@0@AEAV10@PEBD@Z
pdata	ENDS
;	COMDAT pdata
pdata	SEGMENT
$pdata$?catch$0@?0???$?6U?$char_traits@D@std@@@std@@YAAEAV?$basic_ostream@DU?$char_traits@D@std@@@0@AEAV10@PEBD@Z@4HA DD imagerel ?catch$0@?0???$?6U?$char_traits@D@std@@@std@@YAAEAV?$basic_ostream@DU?$char_traits@D@std@@@0@AEAV10@PEBD@Z@4HA
	DD	imagerel ?catch$0@?0???$?6U?$char_traits@D@std@@@std@@YAAEAV?$basic_ostream@DU?$char_traits@D@std@@@0@AEAV10@PEBD@Z@4HA+80
	DD	imagerel $unwind$?catch$0@?0???$?6U?$char_traits@D@std@@@std@@YAAEAV?$basic_ostream@DU?$char_traits@D@std@@@0@AEAV10@PEBD@Z@4HA
pdata	ENDS
;	COMDAT pdata
pdata	SEGMENT
$pdata$??$?6U?$char_traits@D@std@@@std@@YAAEAV?$basic_ostream@DU?$char_traits@D@std@@@0@AEAV10@D@Z DD imagerel $LN1313
	DD	imagerel $LN1313+600
	DD	imagerel $unwind$??$?6U?$char_traits@D@std@@@std@@YAAEAV?$basic_ostream@DU?$char_traits@D@std@@@0@AEAV10@D@Z
pdata	ENDS
;	COMDAT pdata
pdata	SEGMENT
$pdata$?catch$0@?0???$?6U?$char_traits@D@std@@@std@@YAAEAV?$basic_ostream@DU?$char_traits@D@std@@@0@AEAV10@D@Z@4HA DD imagerel ?catch$0@?0???$?6U?$char_traits@D@std@@@std@@YAAEAV?$basic_ostream@DU?$char_traits@D@std@@@0@AEAV10@D@Z@4HA
	DD	imagerel ?catch$0@?0???$?6U?$char_traits@D@std@@@std@@YAAEAV?$basic_ostream@DU?$char_traits@D@std@@@0@AEAV10@D@Z@4HA+80
	DD	imagerel $unwind$?catch$0@?0???$?6U?$char_traits@D@std@@@std@@YAAEAV?$basic_ostream@DU?$char_traits@D@std@@@0@AEAV10@D@Z@4HA
pdata	ENDS
;	COMDAT pdata
pdata	SEGMENT
$pdata$??$parallel_for_each@V?$_Vector_const_iterator@V?$_Vector_val@U?$_Simple_types@H@std@@@std@@@std@@V<lambda_e91d5317cacb03e6a1467b3ede17adf9>@@@Concurrency@@YAXV?$_Vector_const_iterator@V?$_Vector_val@U?$_Simple_types@H@std@@@std@@@std@@0AEBV<lambda_e91d5317cacb03e6a1467b3ede17adf9>@@@Z DD imagerel $LN38
	DD	imagerel $LN38+135
	DD	imagerel $unwind$??$parallel_for_each@V?$_Vector_const_iterator@V?$_Vector_val@U?$_Simple_types@H@std@@@std@@@std@@V<lambda_e91d5317cacb03e6a1467b3ede17adf9>@@@Concurrency@@YAXV?$_Vector_const_iterator@V?$_Vector_val@U?$_Simple_types@H@std@@@std@@@std@@0AEBV<lambda_e91d5317cacb03e6a1467b3ede17adf9>@@@Z
pdata	ENDS
;	COMDAT pdata
pdata	SEGMENT
$pdata$??$_Uninitialized_default_fill_n@PEAH_KU?$_Wrap_alloc@V?$allocator@H@std@@@std@@@std@@YAXPEAH_KAEAU?$_Wrap_alloc@V?$allocator@H@std@@@0@@Z DD imagerel $LN19
	DD	imagerel $LN19+9
	DD	imagerel $unwind$??$_Uninitialized_default_fill_n@PEAH_KU?$_Wrap_alloc@V?$allocator@H@std@@@std@@@std@@YAXPEAH_KAEAU?$_Wrap_alloc@V?$allocator@H@std@@@0@@Z
pdata	ENDS
;	COMDAT pdata
pdata	SEGMENT
$pdata$0$??$_Uninitialized_default_fill_n@PEAH_KU?$_Wrap_alloc@V?$allocator@H@std@@@std@@@std@@YAXPEAH_KAEAU?$_Wrap_alloc@V?$allocator@H@std@@@0@@Z DD imagerel $LN19+9
	DD	imagerel $LN19+27
	DD	imagerel $chain$0$??$_Uninitialized_default_fill_n@PEAH_KU?$_Wrap_alloc@V?$allocator@H@std@@@std@@@std@@YAXPEAH_KAEAU?$_Wrap_alloc@V?$allocator@H@std@@@0@@Z
pdata	ENDS
;	COMDAT pdata
pdata	SEGMENT
$pdata$1$??$_Uninitialized_default_fill_n@PEAH_KU?$_Wrap_alloc@V?$allocator@H@std@@@std@@@std@@YAXPEAH_KAEAU?$_Wrap_alloc@V?$allocator@H@std@@@0@@Z DD imagerel $LN19+27
	DD	imagerel $LN19+32
	DD	imagerel $chain$1$??$_Uninitialized_default_fill_n@PEAH_KU?$_Wrap_alloc@V?$allocator@H@std@@@std@@@std@@YAXPEAH_KAEAU?$_Wrap_alloc@V?$allocator@H@std@@@0@@Z
pdata	ENDS
;	COMDAT pdata
pdata	SEGMENT
$pdata$??0_Sentry_base@?$basic_ostream@DU?$char_traits@D@std@@@std@@QEAA@AEAV12@@Z DD imagerel $LN10
	DD	imagerel $LN10+44
	DD	imagerel $unwind$??0_Sentry_base@?$basic_ostream@DU?$char_traits@D@std@@@std@@QEAA@AEAV12@@Z
pdata	ENDS
;	COMDAT pdata
pdata	SEGMENT
$pdata$??1_Sentry_base@?$basic_ostream@DU?$char_traits@D@std@@@std@@QEAA@XZ DD imagerel $LN8
	DD	imagerel $LN8+49
	DD	imagerel $unwind$??1_Sentry_base@?$basic_ostream@DU?$char_traits@D@std@@@std@@QEAA@XZ
pdata	ENDS
;	COMDAT pdata
pdata	SEGMENT
$pdata$??0sentry@?$basic_ostream@DU?$char_traits@D@std@@@std@@QEAA@AEAV12@@Z DD imagerel $LN26
	DD	imagerel $LN26+123
	DD	imagerel $unwind$??0sentry@?$basic_ostream@DU?$char_traits@D@std@@@std@@QEAA@AEAV12@@Z
pdata	ENDS
;	COMDAT pdata
pdata	SEGMENT
$pdata$??1sentry@?$basic_ostream@DU?$char_traits@D@std@@@std@@QEAA@XZ DD imagerel $LN13
	DD	imagerel $LN13+70
	DD	imagerel $unwind$??1sentry@?$basic_ostream@DU?$char_traits@D@std@@@std@@QEAA@XZ
pdata	ENDS
;	COMDAT pdata
pdata	SEGMENT
$pdata$??$use_facet@V?$num_put@DV?$ostreambuf_iterator@DU?$char_traits@D@std@@@std@@@std@@@std@@YAAEBV?$num_put@DV?$ostreambuf_iterator@DU?$char_traits@D@std@@@std@@@0@AEBVlocale@0@@Z DD imagerel $LN32
	DD	imagerel $LN32+318
	DD	imagerel $unwind$??$use_facet@V?$num_put@DV?$ostreambuf_iterator@DU?$char_traits@D@std@@@std@@@std@@@std@@YAAEBV?$num_put@DV?$ostreambuf_iterator@DU?$char_traits@D@std@@@std@@@0@AEBVlocale@0@@Z
pdata	ENDS
;	COMDAT pdata
pdata	SEGMENT
$pdata$?_Getcat@?$num_put@DV?$ostreambuf_iterator@DU?$char_traits@D@std@@@std@@@std@@SA_KPEAPEBVfacet@locale@2@PEBV42@@Z DD imagerel $LN32
	DD	imagerel $LN32+196
	DD	imagerel $unwind$?_Getcat@?$num_put@DV?$ostreambuf_iterator@DU?$char_traits@D@std@@@std@@@std@@SA_KPEAPEBVfacet@locale@2@PEBV42@@Z
pdata	ENDS
;	COMDAT pdata
pdata	SEGMENT
$pdata$?dtor$0@?0??_Getcat@?$num_put@DV?$ostreambuf_iterator@DU?$char_traits@D@std@@@std@@@std@@SA_KPEAPEBVfacet@locale@2@PEBV42@@Z@4HA DD imagerel ?dtor$0@?0??_Getcat@?$num_put@DV?$ostreambuf_iterator@DU?$char_traits@D@std@@@std@@@std@@SA_KPEAPEBVfacet@locale@2@PEBV42@@Z@4HA
	DD	imagerel ?dtor$0@?0??_Getcat@?$num_put@DV?$ostreambuf_iterator@DU?$char_traits@D@std@@@std@@@std@@SA_KPEAPEBVfacet@locale@2@PEBV42@@Z@4HA+32
	DD	imagerel $unwind$?dtor$0@?0??_Getcat@?$num_put@DV?$ostreambuf_iterator@DU?$char_traits@D@std@@@std@@@std@@SA_KPEAPEBVfacet@locale@2@PEBV42@@Z@4HA
pdata	ENDS
;	COMDAT pdata
pdata	SEGMENT
$pdata$?put@?$num_put@DV?$ostreambuf_iterator@DU?$char_traits@D@std@@@std@@@std@@QEBA?AV?$ostreambuf_iterator@DU?$char_traits@D@std@@@2@V32@AEAVios_base@2@DJ@Z DD imagerel $LN4
	DD	imagerel $LN4+56
	DD	imagerel $unwind$?put@?$num_put@DV?$ostreambuf_iterator@DU?$char_traits@D@std@@@std@@@std@@QEBA?AV?$ostreambuf_iterator@DU?$char_traits@D@std@@@2@V32@AEAVios_base@2@DJ@Z
pdata	ENDS
;	COMDAT pdata
pdata	SEGMENT
$pdata$?do_put@?$num_put@DV?$ostreambuf_iterator@DU?$char_traits@D@std@@@std@@@std@@MEBA?AV?$ostreambuf_iterator@DU?$char_traits@D@std@@@2@V32@AEAVios_base@2@D_N@Z DD imagerel $LN1302
	DD	imagerel $LN1302+845
	DD	imagerel $unwind$?do_put@?$num_put@DV?$ostreambuf_iterator@DU?$char_traits@D@std@@@std@@@std@@MEBA?AV?$ostreambuf_iterator@DU?$char_traits@D@std@@@2@V32@AEAVios_base@2@D_N@Z
pdata	ENDS
;	COMDAT pdata
pdata	SEGMENT
$pdata$?do_put@?$num_put@DV?$ostreambuf_iterator@DU?$char_traits@D@std@@@std@@@std@@MEBA?AV?$ostreambuf_iterator@DU?$char_traits@D@std@@@2@V32@AEAVios_base@2@DJ@Z DD imagerel $LN17
	DD	imagerel $LN17+243
	DD	imagerel $unwind$?do_put@?$num_put@DV?$ostreambuf_iterator@DU?$char_traits@D@std@@@std@@@std@@MEBA?AV?$ostreambuf_iterator@DU?$char_traits@D@std@@@2@V32@AEAVios_base@2@DJ@Z
pdata	ENDS
;	COMDAT pdata
pdata	SEGMENT
$pdata$?do_put@?$num_put@DV?$ostreambuf_iterator@DU?$char_traits@D@std@@@std@@@std@@MEBA?AV?$ostreambuf_iterator@DU?$char_traits@D@std@@@2@V32@AEAVios_base@2@DK@Z DD imagerel $LN17
	DD	imagerel $LN17+243
	DD	imagerel $unwind$?do_put@?$num_put@DV?$ostreambuf_iterator@DU?$char_traits@D@std@@@std@@@std@@MEBA?AV?$ostreambuf_iterator@DU?$char_traits@D@std@@@2@V32@AEAVios_base@2@DK@Z
pdata	ENDS
;	COMDAT pdata
pdata	SEGMENT
$pdata$?do_put@?$num_put@DV?$ostreambuf_iterator@DU?$char_traits@D@std@@@std@@@std@@MEBA?AV?$ostreambuf_iterator@DU?$char_traits@D@std@@@2@V32@AEAVios_base@2@D_J@Z DD imagerel $LN16
	DD	imagerel $LN16+253
	DD	imagerel $unwind$?do_put@?$num_put@DV?$ostreambuf_iterator@DU?$char_traits@D@std@@@std@@@std@@MEBA?AV?$ostreambuf_iterator@DU?$char_traits@D@std@@@2@V32@AEAVios_base@2@D_J@Z
pdata	ENDS
;	COMDAT pdata
pdata	SEGMENT
$pdata$?do_put@?$num_put@DV?$ostreambuf_iterator@DU?$char_traits@D@std@@@std@@@std@@MEBA?AV?$ostreambuf_iterator@DU?$char_traits@D@std@@@2@V32@AEAVios_base@2@D_K@Z DD imagerel $LN16
	DD	imagerel $LN16+253
	DD	imagerel $unwind$?do_put@?$num_put@DV?$ostreambuf_iterator@DU?$char_traits@D@std@@@std@@@std@@MEBA?AV?$ostreambuf_iterator@DU?$char_traits@D@std@@@2@V32@AEAVios_base@2@D_K@Z
pdata	ENDS
;	COMDAT pdata
pdata	SEGMENT
$pdata$?do_put@?$num_put@DV?$ostreambuf_iterator@DU?$char_traits@D@std@@@std@@@std@@MEBA?AV?$ostreambuf_iterator@DU?$char_traits@D@std@@@2@V32@AEAVios_base@2@DN@Z DD imagerel $LN388
	DD	imagerel $LN388+570
	DD	imagerel $unwind$?do_put@?$num_put@DV?$ostreambuf_iterator@DU?$char_traits@D@std@@@std@@@std@@MEBA?AV?$ostreambuf_iterator@DU?$char_traits@D@std@@@2@V32@AEAVios_base@2@DN@Z
pdata	ENDS
;	COMDAT pdata
pdata	SEGMENT
$pdata$?do_put@?$num_put@DV?$ostreambuf_iterator@DU?$char_traits@D@std@@@std@@@std@@MEBA?AV?$ostreambuf_iterator@DU?$char_traits@D@std@@@2@V32@AEAVios_base@2@DO@Z DD imagerel $LN392
	DD	imagerel $LN392+574
	DD	imagerel $unwind$?do_put@?$num_put@DV?$ostreambuf_iterator@DU?$char_traits@D@std@@@std@@@std@@MEBA?AV?$ostreambuf_iterator@DU?$char_traits@D@std@@@2@V32@AEAVios_base@2@DO@Z
pdata	ENDS
;	COMDAT pdata
pdata	SEGMENT
$pdata$?do_put@?$num_put@DV?$ostreambuf_iterator@DU?$char_traits@D@std@@@std@@@std@@MEBA?AV?$ostreambuf_iterator@DU?$char_traits@D@std@@@2@V32@AEAVios_base@2@DPEBX@Z DD imagerel $LN4
	DD	imagerel $LN4+156
	DD	imagerel $unwind$?do_put@?$num_put@DV?$ostreambuf_iterator@DU?$char_traits@D@std@@@std@@@std@@MEBA?AV?$ostreambuf_iterator@DU?$char_traits@D@std@@@2@V32@AEAVios_base@2@DPEBX@Z
pdata	ENDS
;	COMDAT pdata
pdata	SEGMENT
$pdata$?_Fput@?$num_put@DV?$ostreambuf_iterator@DU?$char_traits@D@std@@@std@@@std@@AEBA?AV?$ostreambuf_iterator@DU?$char_traits@D@std@@@2@V32@AEAVios_base@2@DPEBD_K@Z DD imagerel $LN1238
	DD	imagerel $LN1238+1836
	DD	imagerel $unwind$?_Fput@?$num_put@DV?$ostreambuf_iterator@DU?$char_traits@D@std@@@std@@@std@@AEBA?AV?$ostreambuf_iterator@DU?$char_traits@D@std@@@2@V32@AEAVios_base@2@DPEBD_K@Z
pdata	ENDS
;	COMDAT pdata
pdata	SEGMENT
$pdata$?_Iput@?$num_put@DV?$ostreambuf_iterator@DU?$char_traits@D@std@@@std@@@std@@AEBA?AV?$ostreambuf_iterator@DU?$char_traits@D@std@@@2@V32@AEAVios_base@2@DPEAD_K@Z DD imagerel $LN829
	DD	imagerel $LN829+1480
	DD	imagerel $unwind$?_Iput@?$num_put@DV?$ostreambuf_iterator@DU?$char_traits@D@std@@@std@@@std@@AEBA?AV?$ostreambuf_iterator@DU?$char_traits@D@std@@@2@V32@AEAVios_base@2@DPEAD_K@Z
pdata	ENDS
;	COMDAT pdata
pdata	SEGMENT
$pdata$?_Put@?$num_put@DV?$ostreambuf_iterator@DU?$char_traits@D@std@@@std@@@std@@AEBA?AV?$ostreambuf_iterator@DU?$char_traits@D@std@@@2@V32@PEBD_K@Z DD imagerel $LN41
	DD	imagerel $LN41+157
	DD	imagerel $unwind$?_Put@?$num_put@DV?$ostreambuf_iterator@DU?$char_traits@D@std@@@std@@@std@@AEBA?AV?$ostreambuf_iterator@DU?$char_traits@D@std@@@2@V32@PEBD_K@Z
pdata	ENDS
;	COMDAT pdata
pdata	SEGMENT
$pdata$?_Rep@?$num_put@DV?$ostreambuf_iterator@DU?$char_traits@D@std@@@std@@@std@@AEBA?AV?$ostreambuf_iterator@DU?$char_traits@D@std@@@2@V32@D_K@Z DD imagerel $LN41
	DD	imagerel $LN41+159
	DD	imagerel $unwind$?_Rep@?$num_put@DV?$ostreambuf_iterator@DU?$char_traits@D@std@@@std@@@std@@AEBA?AV?$ostreambuf_iterator@DU?$char_traits@D@std@@@2@V32@D_K@Z
pdata	ENDS
;	COMDAT pdata
pdata	SEGMENT
$pdata$??_G?$num_put@DV?$ostreambuf_iterator@DU?$char_traits@D@std@@@std@@@std@@MEAAPEAXI@Z DD imagerel $LN15
	DD	imagerel $LN15+43
	DD	imagerel $unwind$??_G?$num_put@DV?$ostreambuf_iterator@DU?$char_traits@D@std@@@std@@@std@@MEAAPEAXI@Z
pdata	ENDS
;	COMDAT pdata
pdata	SEGMENT
$pdata$??4?$ostreambuf_iterator@DU?$char_traits@D@std@@@std@@QEAAAEAV01@D@Z DD imagerel $LN30
	DD	imagerel $LN30+96
	DD	imagerel $unwind$??4?$ostreambuf_iterator@DU?$char_traits@D@std@@@std@@QEAAAEAV01@D@Z
pdata	ENDS
;	COMDAT pdata
pdata	SEGMENT
$pdata$??$use_facet@V?$numpunct@D@std@@@std@@YAAEBV?$numpunct@D@0@AEBVlocale@0@@Z DD imagerel $LN32
	DD	imagerel $LN32+318
	DD	imagerel $unwind$??$use_facet@V?$numpunct@D@std@@@std@@YAAEBV?$numpunct@D@0@AEBVlocale@0@@Z
pdata	ENDS
;	COMDAT pdata
pdata	SEGMENT
$pdata$?grouping@?$numpunct@D@std@@QEBA?AV?$basic_string@DU?$char_traits@D@std@@V?$allocator@D@2@@2@XZ DD imagerel $LN6
	DD	imagerel $LN6+32
	DD	imagerel $unwind$?grouping@?$numpunct@D@std@@QEBA?AV?$basic_string@DU?$char_traits@D@std@@V?$allocator@D@2@@2@XZ
pdata	ENDS
;	COMDAT pdata
pdata	SEGMENT
$pdata$?falsename@?$numpunct@D@std@@QEBA?AV?$basic_string@DU?$char_traits@D@std@@V?$allocator@D@2@@2@XZ DD imagerel $LN6
	DD	imagerel $LN6+32
	DD	imagerel $unwind$?falsename@?$numpunct@D@std@@QEBA?AV?$basic_string@DU?$char_traits@D@std@@V?$allocator@D@2@@2@XZ
pdata	ENDS
;	COMDAT pdata
pdata	SEGMENT
$pdata$?truename@?$numpunct@D@std@@QEBA?AV?$basic_string@DU?$char_traits@D@std@@V?$allocator@D@2@@2@XZ DD imagerel $LN6
	DD	imagerel $LN6+32
	DD	imagerel $unwind$?truename@?$numpunct@D@std@@QEBA?AV?$basic_string@DU?$char_traits@D@std@@V?$allocator@D@2@@2@XZ
pdata	ENDS
;	COMDAT pdata
pdata	SEGMENT
$pdata$??0?$numpunct@D@std@@QEAA@AEBV_Locinfo@1@_K_N@Z DD imagerel $LN11
	DD	imagerel $LN11+55
	DD	imagerel $unwind$??0?$numpunct@D@std@@QEAA@AEBV_Locinfo@1@_K_N@Z
pdata	ENDS
;	COMDAT pdata
pdata	SEGMENT
$pdata$?_Getcat@?$numpunct@D@std@@SA_KPEAPEBVfacet@locale@2@PEBV42@@Z DD imagerel $LN31
	DD	imagerel $LN31+213
	DD	imagerel $unwind$?_Getcat@?$numpunct@D@std@@SA_KPEAPEBVfacet@locale@2@PEBV42@@Z
pdata	ENDS
;	COMDAT pdata
pdata	SEGMENT
$pdata$?dtor$0@?0??_Getcat@?$numpunct@D@std@@SA_KPEAPEBVfacet@locale@2@PEBV42@@Z@4HA DD imagerel ?dtor$0@?0??_Getcat@?$numpunct@D@std@@SA_KPEAPEBVfacet@locale@2@PEBV42@@Z@4HA
	DD	imagerel ?dtor$0@?0??_Getcat@?$numpunct@D@std@@SA_KPEAPEBVfacet@locale@2@PEBV42@@Z@4HA+32
	DD	imagerel $unwind$?dtor$0@?0??_Getcat@?$numpunct@D@std@@SA_KPEAPEBVfacet@locale@2@PEBV42@@Z@4HA
pdata	ENDS
;	COMDAT pdata
pdata	SEGMENT
$pdata$?dtor$1@?0??_Getcat@?$numpunct@D@std@@SA_KPEAPEBVfacet@locale@2@PEBV42@@Z@4HA DD imagerel ?dtor$1@?0??_Getcat@?$numpunct@D@std@@SA_KPEAPEBVfacet@locale@2@PEBV42@@Z@4HA
	DD	imagerel ?dtor$1@?0??_Getcat@?$numpunct@D@std@@SA_KPEAPEBVfacet@locale@2@PEBV42@@Z@4HA+44
	DD	imagerel $unwind$?dtor$1@?0??_Getcat@?$numpunct@D@std@@SA_KPEAPEBVfacet@locale@2@PEBV42@@Z@4HA
pdata	ENDS
;	COMDAT pdata
pdata	SEGMENT
$pdata$??1?$numpunct@D@std@@MEAA@XZ DD imagerel $LN12
	DD	imagerel $LN12+62
	DD	imagerel $unwind$??1?$numpunct@D@std@@MEAA@XZ
pdata	ENDS
;	COMDAT pdata
pdata	SEGMENT
$pdata$?_Init@?$numpunct@D@std@@IEAAXAEBV_Locinfo@2@_N@Z DD imagerel $LN65
	DD	imagerel $LN65+362
	DD	imagerel $unwind$?_Init@?$numpunct@D@std@@IEAAXAEBV_Locinfo@2@_N@Z
pdata	ENDS
;	COMDAT pdata
pdata	SEGMENT
$pdata$?catch$0@?0??_Init@?$numpunct@D@std@@IEAAXAEBV_Locinfo@2@_N@Z@4HA DD imagerel ?catch$0@?0??_Init@?$numpunct@D@std@@IEAAXAEBV_Locinfo@2@_N@Z@4HA
	DD	imagerel ?catch$0@?0??_Init@?$numpunct@D@std@@IEAAXAEBV_Locinfo@2@_N@Z@4HA+35
	DD	imagerel $unwind$?catch$0@?0??_Init@?$numpunct@D@std@@IEAAXAEBV_Locinfo@2@_N@Z@4HA
pdata	ENDS
;	COMDAT pdata
pdata	SEGMENT
$pdata$?do_grouping@?$numpunct@D@std@@MEBA?AV?$basic_string@DU?$char_traits@D@std@@V?$allocator@D@2@@2@XZ DD imagerel $LN141
	DD	imagerel $LN141+75
	DD	imagerel $unwind$?do_grouping@?$numpunct@D@std@@MEBA?AV?$basic_string@DU?$char_traits@D@std@@V?$allocator@D@2@@2@XZ
pdata	ENDS
;	COMDAT pdata
pdata	SEGMENT
$pdata$?do_falsename@?$numpunct@D@std@@MEBA?AV?$basic_string@DU?$char_traits@D@std@@V?$allocator@D@2@@2@XZ DD imagerel $LN141
	DD	imagerel $LN141+75
	DD	imagerel $unwind$?do_falsename@?$numpunct@D@std@@MEBA?AV?$basic_string@DU?$char_traits@D@std@@V?$allocator@D@2@@2@XZ
pdata	ENDS
;	COMDAT pdata
pdata	SEGMENT
$pdata$?do_truename@?$numpunct@D@std@@MEBA?AV?$basic_string@DU?$char_traits@D@std@@V?$allocator@D@2@@2@XZ DD imagerel $LN141
	DD	imagerel $LN141+75
	DD	imagerel $unwind$?do_truename@?$numpunct@D@std@@MEBA?AV?$basic_string@DU?$char_traits@D@std@@V?$allocator@D@2@@2@XZ
pdata	ENDS
;	COMDAT pdata
pdata	SEGMENT
$pdata$?_Tidy@?$numpunct@D@std@@AEAAXXZ DD imagerel $LN4
	DD	imagerel $LN4+41
	DD	imagerel $unwind$?_Tidy@?$numpunct@D@std@@AEAAXXZ
pdata	ENDS
;	COMDAT pdata
pdata	SEGMENT
$pdata$??_G?$numpunct@D@std@@MEAAPEAXI@Z DD imagerel $LN17
	DD	imagerel $LN17+94
	DD	imagerel $unwind$??_G?$numpunct@D@std@@MEAAPEAXI@Z
pdata	ENDS
;	COMDAT pdata
pdata	SEGMENT
$pdata$??$_Umove@PEAH@?$vector@HV?$allocator@H@std@@@std@@IEAAPEAHPEAH00@Z DD imagerel $LN28
	DD	imagerel $LN28+41
	DD	imagerel $unwind$??$_Umove@PEAH@?$vector@HV?$allocator@H@std@@@std@@IEAAPEAHPEAH00@Z
pdata	ENDS
;	COMDAT pdata
pdata	SEGMENT
$pdata$??$_Deallocate@H@std@@YAXPEAH_K@Z DD imagerel $LN16
	DD	imagerel $LN16+106
	DD	imagerel $unwind$??$_Deallocate@H@std@@YAXPEAH_K@Z
pdata	ENDS
;	COMDAT pdata
pdata	SEGMENT
$pdata$??$_Deallocate@D@std@@YAXPEAD_K@Z DD imagerel $LN16
	DD	imagerel $LN16+90
	DD	imagerel $unwind$??$_Deallocate@D@std@@YAXPEAD_K@Z
pdata	ENDS
;	COMDAT pdata
pdata	SEGMENT
$pdata$??$_Allocate@H@std@@YAPEAH_KPEAH_N@Z DD imagerel $LN16
	DD	imagerel $LN16+131
	DD	imagerel $unwind$??$_Allocate@H@std@@YAPEAH_KPEAH_N@Z
pdata	ENDS
;	COMDAT pdata
pdata	SEGMENT
$pdata$??$_Allocate@D@std@@YAPEAD_KPEAD_N@Z DD imagerel $LN16
	DD	imagerel $LN16+114
	DD	imagerel $unwind$??$_Allocate@D@std@@YAPEAD_KPEAD_N@Z
pdata	ENDS
;	COMDAT pdata
pdata	SEGMENT
$pdata$??$parallel_for_each@V?$_Vector_const_iterator@V?$_Vector_val@U?$_Simple_types@H@std@@@std@@@std@@V<lambda_e91d5317cacb03e6a1467b3ede17adf9>@@Vauto_partitioner@Concurrency@@@Concurrency@@YAXV?$_Vector_const_iterator@V?$_Vector_val@U?$_Simple_types@H@std@@@std@@@std@@0AEBV<lambda_e91d5317cacb03e6a1467b3ede17adf9>@@$$QEAVauto_partitioner@0@@Z DD imagerel $LN31
	DD	imagerel $LN31+137
	DD	imagerel $unwind$??$parallel_for_each@V?$_Vector_const_iterator@V?$_Vector_val@U?$_Simple_types@H@std@@@std@@@std@@V<lambda_e91d5317cacb03e6a1467b3ede17adf9>@@Vauto_partitioner@Concurrency@@@Concurrency@@YAXV?$_Vector_const_iterator@V?$_Vector_val@U?$_Simple_types@H@std@@@std@@@std@@0AEBV<lambda_e91d5317cacb03e6a1467b3ede17adf9>@@$$QEAVauto_partitioner@0@@Z
pdata	ENDS
;	COMDAT pdata
pdata	SEGMENT
$pdata$??$_Uninit_def_fill_n@H_KH@std@@YAXPEAH_KAEAU?$_Wrap_alloc@V?$allocator@H@std@@@0@0U_Scalar_ptr_iterator_tag@0@@Z DD imagerel $LN13
	DD	imagerel $LN13+9
	DD	imagerel $unwind$??$_Uninit_def_fill_n@H_KH@std@@YAXPEAH_KAEAU?$_Wrap_alloc@V?$allocator@H@std@@@0@0U_Scalar_ptr_iterator_tag@0@@Z
pdata	ENDS
;	COMDAT pdata
pdata	SEGMENT
$pdata$0$??$_Uninit_def_fill_n@H_KH@std@@YAXPEAH_KAEAU?$_Wrap_alloc@V?$allocator@H@std@@@0@0U_Scalar_ptr_iterator_tag@0@@Z DD imagerel $LN13+9
	DD	imagerel $LN13+27
	DD	imagerel $chain$0$??$_Uninit_def_fill_n@H_KH@std@@YAXPEAH_KAEAU?$_Wrap_alloc@V?$allocator@H@std@@@0@0U_Scalar_ptr_iterator_tag@0@@Z
pdata	ENDS
;	COMDAT pdata
pdata	SEGMENT
$pdata$1$??$_Uninit_def_fill_n@H_KH@std@@YAXPEAH_KAEAU?$_Wrap_alloc@V?$allocator@H@std@@@0@0U_Scalar_ptr_iterator_tag@0@@Z DD imagerel $LN13+27
	DD	imagerel $LN13+32
	DD	imagerel $chain$1$??$_Uninit_def_fill_n@H_KH@std@@YAXPEAH_KAEAU?$_Wrap_alloc@V?$allocator@H@std@@@0@0U_Scalar_ptr_iterator_tag@0@@Z
pdata	ENDS
;	COMDAT pdata
pdata	SEGMENT
$pdata$??$_Uninitialized_move@PEAHPEAHU?$_Wrap_alloc@V?$allocator@H@std@@@std@@@std@@YAPEAHPEAH00AEAU?$_Wrap_alloc@V?$allocator@H@std@@@0@@Z DD imagerel $LN20
	DD	imagerel $LN20+47
	DD	imagerel $unwind$??$_Uninitialized_move@PEAHPEAHU?$_Wrap_alloc@V?$allocator@H@std@@@std@@@std@@YAPEAHPEAH00AEAU?$_Wrap_alloc@V?$allocator@H@std@@@0@@Z
pdata	ENDS
;	COMDAT pdata
pdata	SEGMENT
$pdata$??$_Maklocstr@D@std@@YAPEADPEBDPEADAEBU_Cvtvec@@@Z DD imagerel $LN15
	DD	imagerel $LN15+100
	DD	imagerel $unwind$??$_Maklocstr@D@std@@YAPEADPEBDPEADAEBU_Cvtvec@@@Z
pdata	ENDS
;	COMDAT pdata
pdata	SEGMENT
$pdata$??$_Parallel_for_each_impl@V?$_Vector_const_iterator@V?$_Vector_val@U?$_Simple_types@H@std@@@std@@@std@@V<lambda_e91d5317cacb03e6a1467b3ede17adf9>@@Vauto_partitioner@Concurrency@@@Concurrency@@YAXAEBV?$_Vector_const_iterator@V?$_Vector_val@U?$_Simple_types@H@std@@@std@@@std@@0AEBV<lambda_e91d5317cacb03e6a1467b3ede17adf9>@@$$QEAVauto_partitioner@0@Urandom_access_iterator_tag@2@@Z DD imagerel $LN24
	DD	imagerel $LN24+60
	DD	imagerel $unwind$??$_Parallel_for_each_impl@V?$_Vector_const_iterator@V?$_Vector_val@U?$_Simple_types@H@std@@@std@@@std@@V<lambda_e91d5317cacb03e6a1467b3ede17adf9>@@Vauto_partitioner@Concurrency@@@Concurrency@@YAXAEBV?$_Vector_const_iterator@V?$_Vector_val@U?$_Simple_types@H@std@@@std@@@std@@0AEBV<lambda_e91d5317cacb03e6a1467b3ede17adf9>@@$$QEAVauto_partitioner@0@Urandom_access_iterator_tag@2@@Z
pdata	ENDS
;	COMDAT pdata
pdata	SEGMENT
$pdata$??$_Uninit_move@PEAHPEAHU?$_Wrap_alloc@V?$allocator@H@std@@@std@@@std@@YAPEAHPEAH00AEAU?$_Wrap_alloc@V?$allocator@H@std@@@0@@Z DD imagerel $LN10
	DD	imagerel $LN10+47
	DD	imagerel $unwind$??$_Uninit_move@PEAHPEAHU?$_Wrap_alloc@V?$allocator@H@std@@@std@@@std@@YAPEAHPEAH00AEAU?$_Wrap_alloc@V?$allocator@H@std@@@0@@Z
pdata	ENDS
;	COMDAT pdata
pdata	SEGMENT
$pdata$??$binary_search@V?$_Vector_const_iterator@V?$_Vector_val@U?$_Simple_types@H@std@@@std@@@std@@H@std@@YA_NV?$_Vector_const_iterator@V?$_Vector_val@U?$_Simple_types@H@std@@@std@@@0@0AEBH@Z DD imagerel $LN4
	DD	imagerel $LN4+20
	DD	imagerel $unwind$??$binary_search@V?$_Vector_const_iterator@V?$_Vector_val@U?$_Simple_types@H@std@@@std@@@std@@H@std@@YA_NV?$_Vector_const_iterator@V?$_Vector_val@U?$_Simple_types@H@std@@@std@@@0@0AEBH@Z
pdata	ENDS
;	COMDAT pdata
pdata	SEGMENT
$pdata$??$_Parallel_for_each_partitioned_impl@V?$_Vector_const_iterator@V?$_Vector_val@U?$_Simple_types@H@std@@@std@@@std@@_JV<lambda_e91d5317cacb03e6a1467b3ede17adf9>@@@Concurrency@@YAXAEBV?$_Vector_const_iterator@V?$_Vector_val@U?$_Simple_types@H@std@@@std@@@std@@_J1AEBV<lambda_e91d5317cacb03e6a1467b3ede17adf9>@@AEBVauto_partitioner@0@@Z DD imagerel $LN4
	DD	imagerel $LN4+34
	DD	imagerel $unwind$??$_Parallel_for_each_partitioned_impl@V?$_Vector_const_iterator@V?$_Vector_val@U?$_Simple_types@H@std@@@std@@@std@@_JV<lambda_e91d5317cacb03e6a1467b3ede17adf9>@@@Concurrency@@YAXAEBV?$_Vector_const_iterator@V?$_Vector_val@U?$_Simple_types@H@std@@@std@@@std@@_J1AEBV<lambda_e91d5317cacb03e6a1467b3ede17adf9>@@AEBVauto_partitioner@0@@Z
pdata	ENDS
;	COMDAT pdata
pdata	SEGMENT
$pdata$??$_Uninit_move@HHH@std@@YAPEAHPEAH00AEAU?$_Wrap_alloc@V?$allocator@H@std@@@0@0U_Scalar_ptr_iterator_tag@0@@Z DD imagerel $LN4
	DD	imagerel $LN4+47
	DD	imagerel $unwind$??$_Uninit_move@HHH@std@@YAPEAHPEAH00AEAU?$_Wrap_alloc@V?$allocator@H@std@@@0@0U_Scalar_ptr_iterator_tag@0@@Z
pdata	ENDS
;	COMDAT pdata
pdata	SEGMENT
$pdata$??$binary_search@V?$_Vector_const_iterator@V?$_Vector_val@U?$_Simple_types@H@std@@@std@@@std@@HU?$less@X@2@@std@@YA_NV?$_Vector_const_iterator@V?$_Vector_val@U?$_Simple_types@H@std@@@std@@@0@0AEBHU?$less@X@0@@Z DD imagerel $LN60
	DD	imagerel $LN60+126
	DD	imagerel $unwind$??$binary_search@V?$_Vector_const_iterator@V?$_Vector_val@U?$_Simple_types@H@std@@@std@@@std@@HU?$less@X@2@@std@@YA_NV?$_Vector_const_iterator@V?$_Vector_val@U?$_Simple_types@H@std@@@std@@@0@0AEBHU?$less@X@0@@Z
pdata	ENDS
;	COMDAT pdata
pdata	SEGMENT
$pdata$??$_Parallel_chunk_impl@V?$_Parallel_chunk_helper@V?$_Vector_const_iterator@V?$_Vector_val@U?$_Simple_types@H@std@@@std@@@std@@_JV<lambda_e91d5317cacb03e6a1467b3ede17adf9>@@Vauto_partitioner@Concurrency@@$00@Concurrency@@V?$_Vector_const_iterator@V?$_Vector_val@U?$_Simple_types@H@std@@@std@@@std@@_JV<lambda_e91d5317cacb03e6a1467b3ede17adf9>@@AEBVauto_partitioner@2@@Concurrency@@YAXAEBV?$_Vector_const_iterator@V?$_Vector_val@U?$_Simple_types@H@std@@@std@@@std@@_JAEB_JAEBV<lambda_e91d5317cacb03e6a1467b3ede17adf9>@@AEBVauto_partitioner@0@@Z DD imagerel $LN144
	DD	imagerel $LN144+939
	DD	imagerel $unwind$??$_Parallel_chunk_impl@V?$_Parallel_chunk_helper@V?$_Vector_const_iterator@V?$_Vector_val@U?$_Simple_types@H@std@@@std@@@std@@_JV<lambda_e91d5317cacb03e6a1467b3ede17adf9>@@Vauto_partitioner@Concurrency@@$00@Concurrency@@V?$_Vector_const_iterator@V?$_Vector_val@U?$_Simple_types@H@std@@@std@@@std@@_JV<lambda_e91d5317cacb03e6a1467b3ede17adf9>@@AEBVauto_partitioner@2@@Concurrency@@YAXAEBV?$_Vector_const_iterator@V?$_Vector_val@U?$_Simple_types@H@std@@@std@@@std@@_JAEB_JAEBV<lambda_e91d5317cacb03e6a1467b3ede17adf9>@@AEBVauto_partitioner@0@@Z
pdata	ENDS
;	COMDAT pdata
pdata	SEGMENT
$pdata$??$_Get_num_chunks@_J@auto_partitioner@Concurrency@@QEBA_J_J@Z DD imagerel $LN4
	DD	imagerel $LN4+16
	DD	imagerel $unwind$??$_Get_num_chunks@_J@auto_partitioner@Concurrency@@QEBA_J_J@Z
pdata	ENDS
;	COMDAT pdata
pdata	SEGMENT
$pdata$?_InitOnRawMalloca@?$_MallocaArrayHolder@V?$task_handle@V?$_Parallel_chunk_helper@V?$_Vector_const_iterator@V?$_Vector_val@U?$_Simple_types@H@std@@@std@@@std@@_JV<lambda_e91d5317cacb03e6a1467b3ede17adf9>@@Vauto_partitioner@Concurrency@@$00@Concurrency@@@Concurrency@@@details@Concurrency@@QEAAPEAV?$task_handle@V?$_Parallel_chunk_helper@V?$_Vector_const_iterator@V?$_Vector_val@U?$_Simple_types@H@std@@@std@@@std@@_JV<lambda_e91d5317cacb03e6a1467b3ede17adf9>@@Vauto_partitioner@Concurrency@@$00@Concurrency@@@3@PEAX@Z DD imagerel $LN15
	DD	imagerel $LN15+78
	DD	imagerel $unwind$?_InitOnRawMalloca@?$_MallocaArrayHolder@V?$task_handle@V?$_Parallel_chunk_helper@V?$_Vector_const_iterator@V?$_Vector_val@U?$_Simple_types@H@std@@@std@@@std@@_JV<lambda_e91d5317cacb03e6a1467b3ede17adf9>@@Vauto_partitioner@Concurrency@@$00@Concurrency@@@Concurrency@@@details@Concurrency@@QEAAPEAV?$task_handle@V?$_Parallel_chunk_helper@V?$_Vector_const_iterator@V?$_Vector_val@U?$_Simple_types@H@std@@@std@@@std@@_JV<lambda_e91d5317cacb03e6a1467b3ede17adf9>@@Vauto_partitioner@Concurrency@@$00@Concurrency@@@3@PEAX@Z
pdata	ENDS
;	COMDAT pdata
pdata	SEGMENT
$pdata$??1?$_MallocaArrayHolder@V?$task_handle@V?$_Parallel_chunk_helper@V?$_Vector_const_iterator@V?$_Vector_val@U?$_Simple_types@H@std@@@std@@@std@@_JV<lambda_e91d5317cacb03e6a1467b3ede17adf9>@@Vauto_partitioner@Concurrency@@$00@Concurrency@@@Concurrency@@@details@Concurrency@@UEAA@XZ DD imagerel $LN28
	DD	imagerel $LN28+180
	DD	imagerel $unwind$??1?$_MallocaArrayHolder@V?$task_handle@V?$_Parallel_chunk_helper@V?$_Vector_const_iterator@V?$_Vector_val@U?$_Simple_types@H@std@@@std@@@std@@_JV<lambda_e91d5317cacb03e6a1467b3ede17adf9>@@Vauto_partitioner@Concurrency@@$00@Concurrency@@@Concurrency@@@details@Concurrency@@UEAA@XZ
pdata	ENDS
;	COMDAT pdata
pdata	SEGMENT
$pdata$??_G?$_MallocaArrayHolder@V?$task_handle@V?$_Parallel_chunk_helper@V?$_Vector_const_iterator@V?$_Vector_val@U?$_Simple_types@H@std@@@std@@@std@@_JV<lambda_e91d5317cacb03e6a1467b3ede17adf9>@@Vauto_partitioner@Concurrency@@$00@Concurrency@@@Concurrency@@@details@Concurrency@@UEAAPEAXI@Z DD imagerel $LN6
	DD	imagerel $LN6+52
	DD	imagerel $unwind$??_G?$_MallocaArrayHolder@V?$task_handle@V?$_Parallel_chunk_helper@V?$_Vector_const_iterator@V?$_Vector_val@U?$_Simple_types@H@std@@@std@@@std@@_JV<lambda_e91d5317cacb03e6a1467b3ede17adf9>@@Vauto_partitioner@Concurrency@@$00@Concurrency@@@Concurrency@@@details@Concurrency@@UEAAPEAXI@Z
pdata	ENDS
;	COMDAT pdata
pdata	SEGMENT
$pdata$??1?$task_handle@V?$_Parallel_chunk_helper@V?$_Vector_const_iterator@V?$_Vector_val@U?$_Simple_types@H@std@@@std@@@std@@_JV<lambda_e91d5317cacb03e6a1467b3ede17adf9>@@Vauto_partitioner@Concurrency@@$00@Concurrency@@@Concurrency@@UEAA@XZ DD imagerel $LN16
	DD	imagerel $LN16+75
	DD	imagerel $unwind$??1?$task_handle@V?$_Parallel_chunk_helper@V?$_Vector_const_iterator@V?$_Vector_val@U?$_Simple_types@H@std@@@std@@@std@@_JV<lambda_e91d5317cacb03e6a1467b3ede17adf9>@@Vauto_partitioner@Concurrency@@$00@Concurrency@@@Concurrency@@UEAA@XZ
pdata	ENDS
;	COMDAT pdata
pdata	SEGMENT
$pdata$??R?$_Parallel_chunk_helper@V?$_Vector_const_iterator@V?$_Vector_val@U?$_Simple_types@H@std@@@std@@@std@@_JV<lambda_e91d5317cacb03e6a1467b3ede17adf9>@@Vauto_partitioner@Concurrency@@$00@Concurrency@@QEBAXXZ DD imagerel $LN228
	DD	imagerel $LN228+1150
	DD	imagerel $unwind$??R?$_Parallel_chunk_helper@V?$_Vector_const_iterator@V?$_Vector_val@U?$_Simple_types@H@std@@@std@@@std@@_JV<lambda_e91d5317cacb03e6a1467b3ede17adf9>@@Vauto_partitioner@Concurrency@@$00@Concurrency@@QEBAXXZ
pdata	ENDS
;	COMDAT pdata
pdata	SEGMENT
$pdata$?dtor$4@?0???R?$_Parallel_chunk_helper@V?$_Vector_const_iterator@V?$_Vector_val@U?$_Simple_types@H@std@@@std@@@std@@_JV<lambda_e91d5317cacb03e6a1467b3ede17adf9>@@Vauto_partitioner@Concurrency@@$00@Concurrency@@QEBAXXZ@4HA DD imagerel ?dtor$4@?0???R?$_Parallel_chunk_helper@V?$_Vector_const_iterator@V?$_Vector_val@U?$_Simple_types@H@std@@@std@@@std@@_JV<lambda_e91d5317cacb03e6a1467b3ede17adf9>@@Vauto_partitioner@Concurrency@@$00@Concurrency@@QEBAXXZ@4HA
	DD	imagerel ?dtor$4@?0???R?$_Parallel_chunk_helper@V?$_Vector_const_iterator@V?$_Vector_val@U?$_Simple_types@H@std@@@std@@@std@@_JV<lambda_e91d5317cacb03e6a1467b3ede17adf9>@@Vauto_partitioner@Concurrency@@$00@Concurrency@@QEBAXXZ@4HA+35
	DD	imagerel $unwind$?dtor$4@?0???R?$_Parallel_chunk_helper@V?$_Vector_const_iterator@V?$_Vector_val@U?$_Simple_types@H@std@@@std@@@std@@_JV<lambda_e91d5317cacb03e6a1467b3ede17adf9>@@Vauto_partitioner@Concurrency@@$00@Concurrency@@QEBAXXZ@4HA
pdata	ENDS
;	COMDAT pdata
pdata	SEGMENT
$pdata$??_G?$task_handle@V?$_Parallel_chunk_helper@V?$_Vector_const_iterator@V?$_Vector_val@U?$_Simple_types@H@std@@@std@@@std@@_JV<lambda_e91d5317cacb03e6a1467b3ede17adf9>@@Vauto_partitioner@Concurrency@@$00@Concurrency@@@Concurrency@@UEAAPEAXI@Z DD imagerel $LN24
	DD	imagerel $LN24+112
	DD	imagerel $unwind$??_G?$task_handle@V?$_Parallel_chunk_helper@V?$_Vector_const_iterator@V?$_Vector_val@U?$_Simple_types@H@std@@@std@@@std@@_JV<lambda_e91d5317cacb03e6a1467b3ede17adf9>@@Vauto_partitioner@Concurrency@@$00@Concurrency@@@Concurrency@@UEAAPEAXI@Z
pdata	ENDS
;	COMDAT pdata
pdata	SEGMENT
$pdata$??0?$_Worker_proxy@_J@Concurrency@@QEAA@PEAV01@@Z DD imagerel $LN6
	DD	imagerel $LN6+91
	DD	imagerel $unwind$??0?$_Worker_proxy@_J@Concurrency@@QEAA@PEAV01@@Z
pdata	ENDS
;	COMDAT pdata
pdata	SEGMENT
$pdata$?_Receive_range@?$_Worker_proxy@_J@Concurrency@@QEAA_NPEAV?$_Range@_J@2@@Z DD imagerel $LN46
	DD	imagerel $LN46+29
	DD	imagerel $unwind$?_Receive_range@?$_Worker_proxy@_J@Concurrency@@QEAA_NPEAV?$_Range@_J@2@@Z
pdata	ENDS
;	COMDAT pdata
pdata	SEGMENT
$pdata$1$?_Receive_range@?$_Worker_proxy@_J@Concurrency@@QEAA_NPEAV?$_Range@_J@2@@Z DD imagerel $LN46+29
	DD	imagerel $LN46+77
	DD	imagerel $chain$1$?_Receive_range@?$_Worker_proxy@_J@Concurrency@@QEAA_NPEAV?$_Range@_J@2@@Z
pdata	ENDS
;	COMDAT pdata
pdata	SEGMENT
$pdata$3$?_Receive_range@?$_Worker_proxy@_J@Concurrency@@QEAA_NPEAV?$_Range@_J@2@@Z DD imagerel $LN46+77
	DD	imagerel $LN46+215
	DD	imagerel $chain$3$?_Receive_range@?$_Worker_proxy@_J@Concurrency@@QEAA_NPEAV?$_Range@_J@2@@Z
pdata	ENDS
;	COMDAT pdata
pdata	SEGMENT
$pdata$4$?_Receive_range@?$_Worker_proxy@_J@Concurrency@@QEAA_NPEAV?$_Range@_J@2@@Z DD imagerel $LN46+215
	DD	imagerel $LN46+228
	DD	imagerel $chain$4$?_Receive_range@?$_Worker_proxy@_J@Concurrency@@QEAA_NPEAV?$_Range@_J@2@@Z
pdata	ENDS
;	COMDAT pdata
pdata	SEGMENT
$pdata$5$?_Receive_range@?$_Worker_proxy@_J@Concurrency@@QEAA_NPEAV?$_Range@_J@2@@Z DD imagerel $LN46+228
	DD	imagerel $LN46+242
	DD	imagerel $chain$5$?_Receive_range@?$_Worker_proxy@_J@Concurrency@@QEAA_NPEAV?$_Range@_J@2@@Z
pdata	ENDS
;	COMDAT pdata
pdata	SEGMENT
$pdata$7$?_Receive_range@?$_Worker_proxy@_J@Concurrency@@QEAA_NPEAV?$_Range@_J@2@@Z DD imagerel $LN46+242
	DD	imagerel $LN46+270
	DD	imagerel $chain$7$?_Receive_range@?$_Worker_proxy@_J@Concurrency@@QEAA_NPEAV?$_Range@_J@2@@Z
pdata	ENDS
;	COMDAT pdata
pdata	SEGMENT
$pdata$?_Wait_on_intrusive_steal@?$_Worker_proxy@_J@Concurrency@@AEAAXXZ DD imagerel $LN56
	DD	imagerel $LN56+27
	DD	imagerel $unwind$?_Wait_on_intrusive_steal@?$_Worker_proxy@_J@Concurrency@@AEAAXXZ
pdata	ENDS
;	COMDAT pdata
pdata	SEGMENT
$pdata$0$?_Wait_on_intrusive_steal@?$_Worker_proxy@_J@Concurrency@@AEAAXXZ DD imagerel $LN56+27
	DD	imagerel $LN56+54
	DD	imagerel $chain$0$?_Wait_on_intrusive_steal@?$_Worker_proxy@_J@Concurrency@@AEAAXXZ
pdata	ENDS
;	COMDAT pdata
pdata	SEGMENT
$pdata$1$?_Wait_on_intrusive_steal@?$_Worker_proxy@_J@Concurrency@@AEAAXXZ DD imagerel $LN56+54
	DD	imagerel $LN56+264
	DD	imagerel $chain$1$?_Wait_on_intrusive_steal@?$_Worker_proxy@_J@Concurrency@@AEAAXXZ
pdata	ENDS
;	COMDAT pdata
pdata	SEGMENT
$pdata$2$?_Wait_on_intrusive_steal@?$_Worker_proxy@_J@Concurrency@@AEAAXXZ DD imagerel $LN56+264
	DD	imagerel $LN56+269
	DD	imagerel $chain$2$?_Wait_on_intrusive_steal@?$_Worker_proxy@_J@Concurrency@@AEAAXXZ
pdata	ENDS
;	COMDAT pdata
pdata	SEGMENT
$pdata$3$?_Wait_on_intrusive_steal@?$_Worker_proxy@_J@Concurrency@@AEAAXXZ DD imagerel $LN56+269
	DD	imagerel $LN56+275
	DD	imagerel $chain$3$?_Wait_on_intrusive_steal@?$_Worker_proxy@_J@Concurrency@@AEAAXXZ
pdata	ENDS
;	COMDAT pdata
pdata	SEGMENT
$pdata$?_AddRawMallocaNode@?$_MallocaListHolder@V?$task_handle@V?$_Parallel_chunk_helper@V?$_Vector_const_iterator@V?$_Vector_val@U?$_Simple_types@H@std@@@std@@@std@@_JV<lambda_e91d5317cacb03e6a1467b3ede17adf9>@@Vauto_partitioner@Concurrency@@$00@Concurrency@@@Concurrency@@@details@Concurrency@@QEAAPEAV?$task_handle@V?$_Parallel_chunk_helper@V?$_Vector_const_iterator@V?$_Vector_val@U?$_Simple_types@H@std@@@std@@@std@@_JV<lambda_e91d5317cacb03e6a1467b3ede17adf9>@@Vauto_partitioner@Concurrency@@$00@Concurrency@@@3@PEAX@Z DD imagerel $LN13
	DD	imagerel $LN13+78
	DD	imagerel $unwind$?_AddRawMallocaNode@?$_MallocaListHolder@V?$task_handle@V?$_Parallel_chunk_helper@V?$_Vector_const_iterator@V?$_Vector_val@U?$_Simple_types@H@std@@@std@@@std@@_JV<lambda_e91d5317cacb03e6a1467b3ede17adf9>@@Vauto_partitioner@Concurrency@@$00@Concurrency@@@Concurrency@@@details@Concurrency@@QEAAPEAV?$task_handle@V?$_Parallel_chunk_helper@V?$_Vector_const_iterator@V?$_Vector_val@U?$_Simple_types@H@std@@@std@@@std@@_JV<lambda_e91d5317cacb03e6a1467b3ede17adf9>@@Vauto_partitioner@Concurrency@@$00@Concurrency@@@3@PEAX@Z
pdata	ENDS
;	COMDAT pdata
pdata	SEGMENT
$pdata$??1?$_MallocaListHolder@V?$task_handle@V?$_Parallel_chunk_helper@V?$_Vector_const_iterator@V?$_Vector_val@U?$_Simple_types@H@std@@@std@@@std@@_JV<lambda_e91d5317cacb03e6a1467b3ede17adf9>@@Vauto_partitioner@Concurrency@@$00@Concurrency@@@Concurrency@@@details@Concurrency@@UEAA@XZ DD imagerel $LN28
	DD	imagerel $LN28+143
	DD	imagerel $unwind$??1?$_MallocaListHolder@V?$task_handle@V?$_Parallel_chunk_helper@V?$_Vector_const_iterator@V?$_Vector_val@U?$_Simple_types@H@std@@@std@@@std@@_JV<lambda_e91d5317cacb03e6a1467b3ede17adf9>@@Vauto_partitioner@Concurrency@@$00@Concurrency@@@Concurrency@@@details@Concurrency@@UEAA@XZ
pdata	ENDS
;	COMDAT pdata
pdata	SEGMENT
$pdata$??_G?$_MallocaListHolder@V?$task_handle@V?$_Parallel_chunk_helper@V?$_Vector_const_iterator@V?$_Vector_val@U?$_Simple_types@H@std@@@std@@@std@@_JV<lambda_e91d5317cacb03e6a1467b3ede17adf9>@@Vauto_partitioner@Concurrency@@$00@Concurrency@@@Concurrency@@@details@Concurrency@@UEAAPEAXI@Z DD imagerel $LN6
	DD	imagerel $LN6+52
	DD	imagerel $unwind$??_G?$_MallocaListHolder@V?$task_handle@V?$_Parallel_chunk_helper@V?$_Vector_const_iterator@V?$_Vector_val@U?$_Simple_types@H@std@@@std@@@std@@_JV<lambda_e91d5317cacb03e6a1467b3ede17adf9>@@Vauto_partitioner@Concurrency@@$00@Concurrency@@@Concurrency@@@details@Concurrency@@UEAAPEAXI@Z
pdata	ENDS
;	COMDAT pdata
pdata	SEGMENT
$pdata$?_SpinOnce@?$_SpinWait@$00@details@Concurrency@@QEAA_NXZ DD imagerel $LN52
	DD	imagerel $LN52+219
	DD	imagerel $unwind$?_SpinOnce@?$_SpinWait@$00@details@Concurrency@@QEAA_NXZ
pdata	ENDS
;	COMDAT pdata
pdata	SEGMENT
$pdata$?_Reset@?$_SpinWait@$00@details@Concurrency@@IEAAXXZ DD imagerel $LN8
	DD	imagerel $LN8+60
	DD	imagerel $unwind$?_Reset@?$_SpinWait@$00@details@Concurrency@@IEAAXXZ
pdata	ENDS
;	COMDAT __xmm@7fffffffffffffff7fffffffffffffff
CONST	SEGMENT
__xmm@7fffffffffffffff7fffffffffffffff DB 0ffH, 0ffH, 0ffH, 0ffH, 0ffH, 0ffH
	DB	0ffH, 07fH, 0ffH, 0ffH, 0ffH, 0ffH, 0ffH, 0ffH, 0ffH, 07fH
CONST	ENDS
;	COMDAT __real@4202a05f20000000
CONST	SEGMENT
__real@4202a05f20000000 DQ 04202a05f20000000r	; 1e+10
CONST	ENDS
;	COMDAT ??_R1A@?0A@EA@?$_MallocaListHolder@V?$task_handle@V?$_Parallel_chunk_helper@V?$_Vector_const_iterator@V?$_Vector_val@U?$_Simple_types@H@std@@@std@@@std@@_JV<lambda_e91d5317cacb03e6a1467b3ede17adf9>@@Vauto_partitioner@Concurrency@@$00@Concurrency@@@Concurrency@@@details@Concurrency@@8
rdata$r	SEGMENT
??_R1A@?0A@EA@?$_MallocaListHolder@V?$task_handle@V?$_Parallel_chunk_helper@V?$_Vector_const_iterator@V?$_Vector_val@U?$_Simple_types@H@std@@@std@@@std@@_JV<lambda_e91d5317cacb03e6a1467b3ede17adf9>@@Vauto_partitioner@Concurrency@@$00@Concurrency@@@Concurrency@@@details@Concurrency@@8 DD imagerel ??_R0?AV?$_MallocaListHolder@V?$task_handle@V?$_Parallel_chunk_helper@V?$_Vector_const_iterator@V?$_Vector_val@U?$_Simple_types@H@std@@@std@@@std@@_JV<lambda_e91d5317cacb03e6a1467b3ede17adf9>@@Vauto_partitioner@Concurrency@@$00@Concurrency@@@Concurrency@@@details@Concurrency@@@8 ; Concurrency::details::_MallocaListHolder<Concurrency::task_handle<Concurrency::_Parallel_chunk_helper<std::_Vector_const_iterator<std::_Vector_val<std::_Simple_types<int> > >,__int64,<lambda_e91d5317cacb03e6a1467b3ede17adf9>,Concurrency::auto_partitioner,1> > >::`RTTI Base Class Descriptor at (0,-1,0,64)'
	DD	00H
	DD	00H
	DD	0ffffffffH
	DD	00H
	DD	040H
	DD	imagerel ??_R3?$_MallocaListHolder@V?$task_handle@V?$_Parallel_chunk_helper@V?$_Vector_const_iterator@V?$_Vector_val@U?$_Simple_types@H@std@@@std@@@std@@_JV<lambda_e91d5317cacb03e6a1467b3ede17adf9>@@Vauto_partitioner@Concurrency@@$00@Concurrency@@@Concurrency@@@details@Concurrency@@8
rdata$r	ENDS
;	COMDAT ??_R2?$_MallocaListHolder@V?$task_handle@V?$_Parallel_chunk_helper@V?$_Vector_const_iterator@V?$_Vector_val@U?$_Simple_types@H@std@@@std@@@std@@_JV<lambda_e91d5317cacb03e6a1467b3ede17adf9>@@Vauto_partitioner@Concurrency@@$00@Concurrency@@@Concurrency@@@details@Concurrency@@8
rdata$r	SEGMENT
??_R2?$_MallocaListHolder@V?$task_handle@V?$_Parallel_chunk_helper@V?$_Vector_const_iterator@V?$_Vector_val@U?$_Simple_types@H@std@@@std@@@std@@_JV<lambda_e91d5317cacb03e6a1467b3ede17adf9>@@Vauto_partitioner@Concurrency@@$00@Concurrency@@@Concurrency@@@details@Concurrency@@8 DD imagerel ??_R1A@?0A@EA@?$_MallocaListHolder@V?$task_handle@V?$_Parallel_chunk_helper@V?$_Vector_const_iterator@V?$_Vector_val@U?$_Simple_types@H@std@@@std@@@std@@_JV<lambda_e91d5317cacb03e6a1467b3ede17adf9>@@Vauto_partitioner@Concurrency@@$00@Concurrency@@@Concurrency@@@details@Concurrency@@8 ; Concurrency::details::_MallocaListHolder<Concurrency::task_handle<Concurrency::_Parallel_chunk_helper<std::_Vector_const_iterator<std::_Vector_val<std::_Simple_types<int> > >,__int64,<lambda_e91d5317cacb03e6a1467b3ede17adf9>,Concurrency::auto_partitioner,1> > >::`RTTI Base Class Array'
	ORG $+3
rdata$r	ENDS
;	COMDAT ??_R3?$_MallocaListHolder@V?$task_handle@V?$_Parallel_chunk_helper@V?$_Vector_const_iterator@V?$_Vector_val@U?$_Simple_types@H@std@@@std@@@std@@_JV<lambda_e91d5317cacb03e6a1467b3ede17adf9>@@Vauto_partitioner@Concurrency@@$00@Concurrency@@@Concurrency@@@details@Concurrency@@8
rdata$r	SEGMENT
??_R3?$_MallocaListHolder@V?$task_handle@V?$_Parallel_chunk_helper@V?$_Vector_const_iterator@V?$_Vector_val@U?$_Simple_types@H@std@@@std@@@std@@_JV<lambda_e91d5317cacb03e6a1467b3ede17adf9>@@Vauto_partitioner@Concurrency@@$00@Concurrency@@@Concurrency@@@details@Concurrency@@8 DD 00H ; Concurrency::details::_MallocaListHolder<Concurrency::task_handle<Concurrency::_Parallel_chunk_helper<std::_Vector_const_iterator<std::_Vector_val<std::_Simple_types<int> > >,__int64,<lambda_e91d5317cacb03e6a1467b3ede17adf9>,Concurrency::auto_partitioner,1> > >::`RTTI Class Hierarchy Descriptor'
	DD	00H
	DD	01H
	DD	imagerel ??_R2?$_MallocaListHolder@V?$task_handle@V?$_Parallel_chunk_helper@V?$_Vector_const_iterator@V?$_Vector_val@U?$_Simple_types@H@std@@@std@@@std@@_JV<lambda_e91d5317cacb03e6a1467b3ede17adf9>@@Vauto_partitioner@Concurrency@@$00@Concurrency@@@Concurrency@@@details@Concurrency@@8
rdata$r	ENDS
;	COMDAT ??_R0?AV?$_MallocaListHolder@V?$task_handle@V?$_Parallel_chunk_helper@V?$_Vector_const_iterator@V?$_Vector_val@U?$_Simple_types@H@std@@@std@@@std@@_JV<lambda_e91d5317cacb03e6a1467b3ede17adf9>@@Vauto_partitioner@Concurrency@@$00@Concurrency@@@Concurrency@@@details@Concurrency@@@8
data$r	SEGMENT
??_R0?AV?$_MallocaListHolder@V?$task_handle@V?$_Parallel_chunk_helper@V?$_Vector_const_iterator@V?$_Vector_val@U?$_Simple_types@H@std@@@std@@@std@@_JV<lambda_e91d5317cacb03e6a1467b3ede17adf9>@@Vauto_partitioner@Concurrency@@$00@Concurrency@@@Concurrency@@@details@Concurrency@@@8 DQ FLAT:??_7type_info@@6B@ ; Concurrency::details::_MallocaListHolder<Concurrency::task_handle<Concurrency::_Parallel_chunk_helper<std::_Vector_const_iterator<std::_Vector_val<std::_Simple_types<int> > >,__int64,<lambda_e91d5317cacb03e6a1467b3ede17adf9>,Concurrency::auto_partitioner,1> > > `RTTI Type Descriptor'
	DQ	0000000000000000H
	DB	'.?AV?$_MallocaListHolder@V?$task_handle@V?$_Parallel_chu'
	DB	'nk_helper@V?$_Vector_const_iterator@V?$_Vector_val@U?$_Simple'
	DB	'_types@H@std@@@std@@@std@@_JV<lambda_e91d5317cacb03e6a1467b3e'
	DB	'de17adf9>@@Vauto_partitioner@Concurrency@@$00@Concurrency@@@C'
	DB	'oncurrency@@@details@Concurrency@@', 00H
data$r	ENDS
;	COMDAT ??_R4?$_MallocaListHolder@V?$task_handle@V?$_Parallel_chunk_helper@V?$_Vector_const_iterator@V?$_Vector_val@U?$_Simple_types@H@std@@@std@@@std@@_JV<lambda_e91d5317cacb03e6a1467b3ede17adf9>@@Vauto_partitioner@Concurrency@@$00@Concurrency@@@Concurrency@@@details@Concurrency@@6B@
rdata$r	SEGMENT
??_R4?$_MallocaListHolder@V?$task_handle@V?$_Parallel_chunk_helper@V?$_Vector_const_iterator@V?$_Vector_val@U?$_Simple_types@H@std@@@std@@@std@@_JV<lambda_e91d5317cacb03e6a1467b3ede17adf9>@@Vauto_partitioner@Concurrency@@$00@Concurrency@@@Concurrency@@@details@Concurrency@@6B@ DD 01H ; Concurrency::details::_MallocaListHolder<Concurrency::task_handle<Concurrency::_Parallel_chunk_helper<std::_Vector_const_iterator<std::_Vector_val<std::_Simple_types<int> > >,__int64,<lambda_e91d5317cacb03e6a1467b3ede17adf9>,Concurrency::auto_partitioner,1> > >::`RTTI Complete Object Locator'
	DD	00H
	DD	00H
	DD	imagerel ??_R0?AV?$_MallocaListHolder@V?$task_handle@V?$_Parallel_chunk_helper@V?$_Vector_const_iterator@V?$_Vector_val@U?$_Simple_types@H@std@@@std@@@std@@_JV<lambda_e91d5317cacb03e6a1467b3ede17adf9>@@Vauto_partitioner@Concurrency@@$00@Concurrency@@@Concurrency@@@details@Concurrency@@@8
	DD	imagerel ??_R3?$_MallocaListHolder@V?$task_handle@V?$_Parallel_chunk_helper@V?$_Vector_const_iterator@V?$_Vector_val@U?$_Simple_types@H@std@@@std@@@std@@_JV<lambda_e91d5317cacb03e6a1467b3ede17adf9>@@Vauto_partitioner@Concurrency@@$00@Concurrency@@@Concurrency@@@details@Concurrency@@8
	DD	imagerel ??_R4?$_MallocaListHolder@V?$task_handle@V?$_Parallel_chunk_helper@V?$_Vector_const_iterator@V?$_Vector_val@U?$_Simple_types@H@std@@@std@@@std@@_JV<lambda_e91d5317cacb03e6a1467b3ede17adf9>@@Vauto_partitioner@Concurrency@@$00@Concurrency@@@Concurrency@@@details@Concurrency@@6B@
rdata$r	ENDS
;	COMDAT ??_R1A@?0A@EA@?$_MallocaArrayHolder@V?$task_handle@V?$_Parallel_chunk_helper@V?$_Vector_const_iterator@V?$_Vector_val@U?$_Simple_types@H@std@@@std@@@std@@_JV<lambda_e91d5317cacb03e6a1467b3ede17adf9>@@Vauto_partitioner@Concurrency@@$00@Concurrency@@@Concurrency@@@details@Concurrency@@8
rdata$r	SEGMENT
??_R1A@?0A@EA@?$_MallocaArrayHolder@V?$task_handle@V?$_Parallel_chunk_helper@V?$_Vector_const_iterator@V?$_Vector_val@U?$_Simple_types@H@std@@@std@@@std@@_JV<lambda_e91d5317cacb03e6a1467b3ede17adf9>@@Vauto_partitioner@Concurrency@@$00@Concurrency@@@Concurrency@@@details@Concurrency@@8 DD imagerel ??_R0?AV?$_MallocaArrayHolder@V?$task_handle@V?$_Parallel_chunk_helper@V?$_Vector_const_iterator@V?$_Vector_val@U?$_Simple_types@H@std@@@std@@@std@@_JV<lambda_e91d5317cacb03e6a1467b3ede17adf9>@@Vauto_partitioner@Concurrency@@$00@Concurrency@@@Concurrency@@@details@Concurrency@@@8 ; Concurrency::details::_MallocaArrayHolder<Concurrency::task_handle<Concurrency::_Parallel_chunk_helper<std::_Vector_const_iterator<std::_Vector_val<std::_Simple_types<int> > >,__int64,<lambda_e91d5317cacb03e6a1467b3ede17adf9>,Concurrency::auto_partitioner,1> > >::`RTTI Base Class Descriptor at (0,-1,0,64)'
	DD	00H
	DD	00H
	DD	0ffffffffH
	DD	00H
	DD	040H
	DD	imagerel ??_R3?$_MallocaArrayHolder@V?$task_handle@V?$_Parallel_chunk_helper@V?$_Vector_const_iterator@V?$_Vector_val@U?$_Simple_types@H@std@@@std@@@std@@_JV<lambda_e91d5317cacb03e6a1467b3ede17adf9>@@Vauto_partitioner@Concurrency@@$00@Concurrency@@@Concurrency@@@details@Concurrency@@8
rdata$r	ENDS
;	COMDAT ??_R2?$_MallocaArrayHolder@V?$task_handle@V?$_Parallel_chunk_helper@V?$_Vector_const_iterator@V?$_Vector_val@U?$_Simple_types@H@std@@@std@@@std@@_JV<lambda_e91d5317cacb03e6a1467b3ede17adf9>@@Vauto_partitioner@Concurrency@@$00@Concurrency@@@Concurrency@@@details@Concurrency@@8
rdata$r	SEGMENT
??_R2?$_MallocaArrayHolder@V?$task_handle@V?$_Parallel_chunk_helper@V?$_Vector_const_iterator@V?$_Vector_val@U?$_Simple_types@H@std@@@std@@@std@@_JV<lambda_e91d5317cacb03e6a1467b3ede17adf9>@@Vauto_partitioner@Concurrency@@$00@Concurrency@@@Concurrency@@@details@Concurrency@@8 DD imagerel ??_R1A@?0A@EA@?$_MallocaArrayHolder@V?$task_handle@V?$_Parallel_chunk_helper@V?$_Vector_const_iterator@V?$_Vector_val@U?$_Simple_types@H@std@@@std@@@std@@_JV<lambda_e91d5317cacb03e6a1467b3ede17adf9>@@Vauto_partitioner@Concurrency@@$00@Concurrency@@@Concurrency@@@details@Concurrency@@8 ; Concurrency::details::_MallocaArrayHolder<Concurrency::task_handle<Concurrency::_Parallel_chunk_helper<std::_Vector_const_iterator<std::_Vector_val<std::_Simple_types<int> > >,__int64,<lambda_e91d5317cacb03e6a1467b3ede17adf9>,Concurrency::auto_partitioner,1> > >::`RTTI Base Class Array'
	ORG $+3
rdata$r	ENDS
;	COMDAT ??_R3?$_MallocaArrayHolder@V?$task_handle@V?$_Parallel_chunk_helper@V?$_Vector_const_iterator@V?$_Vector_val@U?$_Simple_types@H@std@@@std@@@std@@_JV<lambda_e91d5317cacb03e6a1467b3ede17adf9>@@Vauto_partitioner@Concurrency@@$00@Concurrency@@@Concurrency@@@details@Concurrency@@8
rdata$r	SEGMENT
??_R3?$_MallocaArrayHolder@V?$task_handle@V?$_Parallel_chunk_helper@V?$_Vector_const_iterator@V?$_Vector_val@U?$_Simple_types@H@std@@@std@@@std@@_JV<lambda_e91d5317cacb03e6a1467b3ede17adf9>@@Vauto_partitioner@Concurrency@@$00@Concurrency@@@Concurrency@@@details@Concurrency@@8 DD 00H ; Concurrency::details::_MallocaArrayHolder<Concurrency::task_handle<Concurrency::_Parallel_chunk_helper<std::_Vector_const_iterator<std::_Vector_val<std::_Simple_types<int> > >,__int64,<lambda_e91d5317cacb03e6a1467b3ede17adf9>,Concurrency::auto_partitioner,1> > >::`RTTI Class Hierarchy Descriptor'
	DD	00H
	DD	01H
	DD	imagerel ??_R2?$_MallocaArrayHolder@V?$task_handle@V?$_Parallel_chunk_helper@V?$_Vector_const_iterator@V?$_Vector_val@U?$_Simple_types@H@std@@@std@@@std@@_JV<lambda_e91d5317cacb03e6a1467b3ede17adf9>@@Vauto_partitioner@Concurrency@@$00@Concurrency@@@Concurrency@@@details@Concurrency@@8
rdata$r	ENDS
;	COMDAT ??_R0?AV?$_MallocaArrayHolder@V?$task_handle@V?$_Parallel_chunk_helper@V?$_Vector_const_iterator@V?$_Vector_val@U?$_Simple_types@H@std@@@std@@@std@@_JV<lambda_e91d5317cacb03e6a1467b3ede17adf9>@@Vauto_partitioner@Concurrency@@$00@Concurrency@@@Concurrency@@@details@Concurrency@@@8
data$r	SEGMENT
??_R0?AV?$_MallocaArrayHolder@V?$task_handle@V?$_Parallel_chunk_helper@V?$_Vector_const_iterator@V?$_Vector_val@U?$_Simple_types@H@std@@@std@@@std@@_JV<lambda_e91d5317cacb03e6a1467b3ede17adf9>@@Vauto_partitioner@Concurrency@@$00@Concurrency@@@Concurrency@@@details@Concurrency@@@8 DQ FLAT:??_7type_info@@6B@ ; Concurrency::details::_MallocaArrayHolder<Concurrency::task_handle<Concurrency::_Parallel_chunk_helper<std::_Vector_const_iterator<std::_Vector_val<std::_Simple_types<int> > >,__int64,<lambda_e91d5317cacb03e6a1467b3ede17adf9>,Concurrency::auto_partitioner,1> > > `RTTI Type Descriptor'
	DQ	0000000000000000H
	DB	'.?AV?$_MallocaArrayHolder@V?$task_handle@V?$_Parallel_ch'
	DB	'unk_helper@V?$_Vector_const_iterator@V?$_Vector_val@U?$_Simpl'
	DB	'e_types@H@std@@@std@@@std@@_JV<lambda_e91d5317cacb03e6a1467b3'
	DB	'ede17adf9>@@Vauto_partitioner@Concurrency@@$00@Concurrency@@@'
	DB	'Concurrency@@@details@Concurrency@@', 00H
data$r	ENDS
;	COMDAT ??_R4?$_MallocaArrayHolder@V?$task_handle@V?$_Parallel_chunk_helper@V?$_Vector_const_iterator@V?$_Vector_val@U?$_Simple_types@H@std@@@std@@@std@@_JV<lambda_e91d5317cacb03e6a1467b3ede17adf9>@@Vauto_partitioner@Concurrency@@$00@Concurrency@@@Concurrency@@@details@Concurrency@@6B@
rdata$r	SEGMENT
??_R4?$_MallocaArrayHolder@V?$task_handle@V?$_Parallel_chunk_helper@V?$_Vector_const_iterator@V?$_Vector_val@U?$_Simple_types@H@std@@@std@@@std@@_JV<lambda_e91d5317cacb03e6a1467b3ede17adf9>@@Vauto_partitioner@Concurrency@@$00@Concurrency@@@Concurrency@@@details@Concurrency@@6B@ DD 01H ; Concurrency::details::_MallocaArrayHolder<Concurrency::task_handle<Concurrency::_Parallel_chunk_helper<std::_Vector_const_iterator<std::_Vector_val<std::_Simple_types<int> > >,__int64,<lambda_e91d5317cacb03e6a1467b3ede17adf9>,Concurrency::auto_partitioner,1> > >::`RTTI Complete Object Locator'
	DD	00H
	DD	00H
	DD	imagerel ??_R0?AV?$_MallocaArrayHolder@V?$task_handle@V?$_Parallel_chunk_helper@V?$_Vector_const_iterator@V?$_Vector_val@U?$_Simple_types@H@std@@@std@@@std@@_JV<lambda_e91d5317cacb03e6a1467b3ede17adf9>@@Vauto_partitioner@Concurrency@@$00@Concurrency@@@Concurrency@@@details@Concurrency@@@8
	DD	imagerel ??_R3?$_MallocaArrayHolder@V?$task_handle@V?$_Parallel_chunk_helper@V?$_Vector_const_iterator@V?$_Vector_val@U?$_Simple_types@H@std@@@std@@@std@@_JV<lambda_e91d5317cacb03e6a1467b3ede17adf9>@@Vauto_partitioner@Concurrency@@$00@Concurrency@@@Concurrency@@@details@Concurrency@@8
	DD	imagerel ??_R4?$_MallocaArrayHolder@V?$task_handle@V?$_Parallel_chunk_helper@V?$_Vector_const_iterator@V?$_Vector_val@U?$_Simple_types@H@std@@@std@@@std@@_JV<lambda_e91d5317cacb03e6a1467b3ede17adf9>@@Vauto_partitioner@Concurrency@@$00@Concurrency@@@Concurrency@@@details@Concurrency@@6B@
rdata$r	ENDS
;	COMDAT ??_R1A@?0A@EA@?$task_handle@V?$_Parallel_chunk_helper@V?$_Vector_const_iterator@V?$_Vector_val@U?$_Simple_types@H@std@@@std@@@std@@_JV<lambda_e91d5317cacb03e6a1467b3ede17adf9>@@Vauto_partitioner@Concurrency@@$00@Concurrency@@@Concurrency@@8
rdata$r	SEGMENT
??_R1A@?0A@EA@?$task_handle@V?$_Parallel_chunk_helper@V?$_Vector_const_iterator@V?$_Vector_val@U?$_Simple_types@H@std@@@std@@@std@@_JV<lambda_e91d5317cacb03e6a1467b3ede17adf9>@@Vauto_partitioner@Concurrency@@$00@Concurrency@@@Concurrency@@8 DD imagerel ??_R0?AV?$task_handle@V?$_Parallel_chunk_helper@V?$_Vector_const_iterator@V?$_Vector_val@U?$_Simple_types@H@std@@@std@@@std@@_JV<lambda_e91d5317cacb03e6a1467b3ede17adf9>@@Vauto_partitioner@Concurrency@@$00@Concurrency@@@Concurrency@@@8 ; Concurrency::task_handle<Concurrency::_Parallel_chunk_helper<std::_Vector_const_iterator<std::_Vector_val<std::_Simple_types<int> > >,__int64,<lambda_e91d5317cacb03e6a1467b3ede17adf9>,Concurrency::auto_partitioner,1> >::`RTTI Base Class Descriptor at (0,-1,0,64)'
	DD	03H
	DD	00H
	DD	0ffffffffH
	DD	00H
	DD	040H
	DD	imagerel ??_R3?$task_handle@V?$_Parallel_chunk_helper@V?$_Vector_const_iterator@V?$_Vector_val@U?$_Simple_types@H@std@@@std@@@std@@_JV<lambda_e91d5317cacb03e6a1467b3ede17adf9>@@Vauto_partitioner@Concurrency@@$00@Concurrency@@@Concurrency@@8
rdata$r	ENDS
;	COMDAT ??_R2?$task_handle@V?$_Parallel_chunk_helper@V?$_Vector_const_iterator@V?$_Vector_val@U?$_Simple_types@H@std@@@std@@@std@@_JV<lambda_e91d5317cacb03e6a1467b3ede17adf9>@@Vauto_partitioner@Concurrency@@$00@Concurrency@@@Concurrency@@8
rdata$r	SEGMENT
??_R2?$task_handle@V?$_Parallel_chunk_helper@V?$_Vector_const_iterator@V?$_Vector_val@U?$_Simple_types@H@std@@@std@@@std@@_JV<lambda_e91d5317cacb03e6a1467b3ede17adf9>@@Vauto_partitioner@Concurrency@@$00@Concurrency@@@Concurrency@@8 DD imagerel ??_R1A@?0A@EA@?$task_handle@V?$_Parallel_chunk_helper@V?$_Vector_const_iterator@V?$_Vector_val@U?$_Simple_types@H@std@@@std@@@std@@_JV<lambda_e91d5317cacb03e6a1467b3ede17adf9>@@Vauto_partitioner@Concurrency@@$00@Concurrency@@@Concurrency@@8 ; Concurrency::task_handle<Concurrency::_Parallel_chunk_helper<std::_Vector_const_iterator<std::_Vector_val<std::_Simple_types<int> > >,__int64,<lambda_e91d5317cacb03e6a1467b3ede17adf9>,Concurrency::auto_partitioner,1> >::`RTTI Base Class Array'
	DD	imagerel ??_R1A@?0A@EA@_UnrealizedChore@details@Concurrency@@8
	DD	imagerel ??_R1A@?0A@EA@_Chore@details@Concurrency@@8
	DD	imagerel ??_R1BA@?0A@EA@_AllocBase@details@Concurrency@@8
	ORG $+3
rdata$r	ENDS
;	COMDAT ??_R3?$task_handle@V?$_Parallel_chunk_helper@V?$_Vector_const_iterator@V?$_Vector_val@U?$_Simple_types@H@std@@@std@@@std@@_JV<lambda_e91d5317cacb03e6a1467b3ede17adf9>@@Vauto_partitioner@Concurrency@@$00@Concurrency@@@Concurrency@@8
rdata$r	SEGMENT
??_R3?$task_handle@V?$_Parallel_chunk_helper@V?$_Vector_const_iterator@V?$_Vector_val@U?$_Simple_types@H@std@@@std@@@std@@_JV<lambda_e91d5317cacb03e6a1467b3ede17adf9>@@Vauto_partitioner@Concurrency@@$00@Concurrency@@@Concurrency@@8 DD 00H ; Concurrency::task_handle<Concurrency::_Parallel_chunk_helper<std::_Vector_const_iterator<std::_Vector_val<std::_Simple_types<int> > >,__int64,<lambda_e91d5317cacb03e6a1467b3ede17adf9>,Concurrency::auto_partitioner,1> >::`RTTI Class Hierarchy Descriptor'
	DD	01H
	DD	04H
	DD	imagerel ??_R2?$task_handle@V?$_Parallel_chunk_helper@V?$_Vector_const_iterator@V?$_Vector_val@U?$_Simple_types@H@std@@@std@@@std@@_JV<lambda_e91d5317cacb03e6a1467b3ede17adf9>@@Vauto_partitioner@Concurrency@@$00@Concurrency@@@Concurrency@@8
rdata$r	ENDS
;	COMDAT ??_R0?AV?$task_handle@V?$_Parallel_chunk_helper@V?$_Vector_const_iterator@V?$_Vector_val@U?$_Simple_types@H@std@@@std@@@std@@_JV<lambda_e91d5317cacb03e6a1467b3ede17adf9>@@Vauto_partitioner@Concurrency@@$00@Concurrency@@@Concurrency@@@8
data$r	SEGMENT
??_R0?AV?$task_handle@V?$_Parallel_chunk_helper@V?$_Vector_const_iterator@V?$_Vector_val@U?$_Simple_types@H@std@@@std@@@std@@_JV<lambda_e91d5317cacb03e6a1467b3ede17adf9>@@Vauto_partitioner@Concurrency@@$00@Concurrency@@@Concurrency@@@8 DQ FLAT:??_7type_info@@6B@ ; Concurrency::task_handle<Concurrency::_Parallel_chunk_helper<std::_Vector_const_iterator<std::_Vector_val<std::_Simple_types<int> > >,__int64,<lambda_e91d5317cacb03e6a1467b3ede17adf9>,Concurrency::auto_partitioner,1> > `RTTI Type Descriptor'
	DQ	0000000000000000H
	DB	'.?AV?$task_handle@V?$_Parallel_chunk_helper@V?$_Vector_c'
	DB	'onst_iterator@V?$_Vector_val@U?$_Simple_types@H@std@@@std@@@s'
	DB	'td@@_JV<lambda_e91d5317cacb03e6a1467b3ede17adf9>@@Vauto_parti'
	DB	'tioner@Concurrency@@$00@Concurrency@@@Concurrency@@', 00H
data$r	ENDS
;	COMDAT ??_R4?$task_handle@V?$_Parallel_chunk_helper@V?$_Vector_const_iterator@V?$_Vector_val@U?$_Simple_types@H@std@@@std@@@std@@_JV<lambda_e91d5317cacb03e6a1467b3ede17adf9>@@Vauto_partitioner@Concurrency@@$00@Concurrency@@@Concurrency@@6B@
rdata$r	SEGMENT
??_R4?$task_handle@V?$_Parallel_chunk_helper@V?$_Vector_const_iterator@V?$_Vector_val@U?$_Simple_types@H@std@@@std@@@std@@_JV<lambda_e91d5317cacb03e6a1467b3ede17adf9>@@Vauto_partitioner@Concurrency@@$00@Concurrency@@@Concurrency@@6B@ DD 01H ; Concurrency::task_handle<Concurrency::_Parallel_chunk_helper<std::_Vector_const_iterator<std::_Vector_val<std::_Simple_types<int> > >,__int64,<lambda_e91d5317cacb03e6a1467b3ede17adf9>,Concurrency::auto_partitioner,1> >::`RTTI Complete Object Locator'
	DD	00H
	DD	00H
	DD	imagerel ??_R0?AV?$task_handle@V?$_Parallel_chunk_helper@V?$_Vector_const_iterator@V?$_Vector_val@U?$_Simple_types@H@std@@@std@@@std@@_JV<lambda_e91d5317cacb03e6a1467b3ede17adf9>@@Vauto_partitioner@Concurrency@@$00@Concurrency@@@Concurrency@@@8
	DD	imagerel ??_R3?$task_handle@V?$_Parallel_chunk_helper@V?$_Vector_const_iterator@V?$_Vector_val@U?$_Simple_types@H@std@@@std@@@std@@_JV<lambda_e91d5317cacb03e6a1467b3ede17adf9>@@Vauto_partitioner@Concurrency@@$00@Concurrency@@@Concurrency@@8
	DD	imagerel ??_R4?$task_handle@V?$_Parallel_chunk_helper@V?$_Vector_const_iterator@V?$_Vector_val@U?$_Simple_types@H@std@@@std@@@std@@_JV<lambda_e91d5317cacb03e6a1467b3ede17adf9>@@Vauto_partitioner@Concurrency@@$00@Concurrency@@@Concurrency@@6B@
rdata$r	ENDS
;	COMDAT ??_R1A@?0A@EA@?$numpunct@D@std@@8
rdata$r	SEGMENT
??_R1A@?0A@EA@?$numpunct@D@std@@8 DD imagerel ??_R0?AV?$numpunct@D@std@@@8 ; std::numpunct<char>::`RTTI Base Class Descriptor at (0,-1,0,64)'
	DD	03H
	DD	00H
	DD	0ffffffffH
	DD	00H
	DD	040H
	DD	imagerel ??_R3?$numpunct@D@std@@8
rdata$r	ENDS
;	COMDAT ??_R2?$numpunct@D@std@@8
rdata$r	SEGMENT
??_R2?$numpunct@D@std@@8 DD imagerel ??_R1A@?0A@EA@?$numpunct@D@std@@8 ; std::numpunct<char>::`RTTI Base Class Array'
	DD	imagerel ??_R1A@?0A@EA@facet@locale@std@@8
	DD	imagerel ??_R1A@?0A@EA@_Facet_base@std@@8
	DD	imagerel ??_R17?0A@EA@_Crt_new_delete@std@@8
	ORG $+3
rdata$r	ENDS
;	COMDAT ??_R3?$numpunct@D@std@@8
rdata$r	SEGMENT
??_R3?$numpunct@D@std@@8 DD 00H				; std::numpunct<char>::`RTTI Class Hierarchy Descriptor'
	DD	01H
	DD	04H
	DD	imagerel ??_R2?$numpunct@D@std@@8
rdata$r	ENDS
;	COMDAT ??_R0?AV?$numpunct@D@std@@@8
data$r	SEGMENT
??_R0?AV?$numpunct@D@std@@@8 DQ FLAT:??_7type_info@@6B@	; std::numpunct<char> `RTTI Type Descriptor'
	DQ	0000000000000000H
	DB	'.?AV?$numpunct@D@std@@', 00H
data$r	ENDS
;	COMDAT ??_R4?$numpunct@D@std@@6B@
rdata$r	SEGMENT
??_R4?$numpunct@D@std@@6B@ DD 01H			; std::numpunct<char>::`RTTI Complete Object Locator'
	DD	00H
	DD	00H
	DD	imagerel ??_R0?AV?$numpunct@D@std@@@8
	DD	imagerel ??_R3?$numpunct@D@std@@8
	DD	imagerel ??_R4?$numpunct@D@std@@6B@
rdata$r	ENDS
;	COMDAT ??_R4_Chore@details@Concurrency@@6B@
rdata$r	SEGMENT
??_R4_Chore@details@Concurrency@@6B@ DD 01H		; Concurrency::details::_Chore::`RTTI Complete Object Locator'
	DD	00H
	DD	00H
	DD	imagerel ??_R0?AU_Chore@details@Concurrency@@@8
	DD	imagerel ??_R3_Chore@details@Concurrency@@8
	DD	imagerel ??_R4_Chore@details@Concurrency@@6B@
rdata$r	ENDS
;	COMDAT ??_R1A@?0A@EA@_AllocBase@details@Concurrency@@8
rdata$r	SEGMENT
??_R1A@?0A@EA@_AllocBase@details@Concurrency@@8 DD imagerel ??_R0?AU_AllocBase@details@Concurrency@@@8 ; Concurrency::details::_AllocBase::`RTTI Base Class Descriptor at (0,-1,0,64)'
	DD	00H
	DD	00H
	DD	0ffffffffH
	DD	00H
	DD	040H
	DD	imagerel ??_R3_AllocBase@details@Concurrency@@8
rdata$r	ENDS
;	COMDAT ??_R2_AllocBase@details@Concurrency@@8
rdata$r	SEGMENT
??_R2_AllocBase@details@Concurrency@@8 DD imagerel ??_R1A@?0A@EA@_AllocBase@details@Concurrency@@8 ; Concurrency::details::_AllocBase::`RTTI Base Class Array'
	ORG $+3
rdata$r	ENDS
;	COMDAT ??_R3_AllocBase@details@Concurrency@@8
rdata$r	SEGMENT
??_R3_AllocBase@details@Concurrency@@8 DD 00H		; Concurrency::details::_AllocBase::`RTTI Class Hierarchy Descriptor'
	DD	00H
	DD	01H
	DD	imagerel ??_R2_AllocBase@details@Concurrency@@8
rdata$r	ENDS
;	COMDAT ??_R0?AU_AllocBase@details@Concurrency@@@8
data$r	SEGMENT
??_R0?AU_AllocBase@details@Concurrency@@@8 DQ FLAT:??_7type_info@@6B@ ; Concurrency::details::_AllocBase `RTTI Type Descriptor'
	DQ	0000000000000000H
	DB	'.?AU_AllocBase@details@Concurrency@@', 00H
data$r	ENDS
;	COMDAT ??_R1BA@?0A@EA@_AllocBase@details@Concurrency@@8
rdata$r	SEGMENT
??_R1BA@?0A@EA@_AllocBase@details@Concurrency@@8 DD imagerel ??_R0?AU_AllocBase@details@Concurrency@@@8 ; Concurrency::details::_AllocBase::`RTTI Base Class Descriptor at (16,-1,0,64)'
	DD	00H
	DD	010H
	DD	0ffffffffH
	DD	00H
	DD	040H
	DD	imagerel ??_R3_AllocBase@details@Concurrency@@8
rdata$r	ENDS
;	COMDAT ??_R2_Chore@details@Concurrency@@8
rdata$r	SEGMENT
??_R2_Chore@details@Concurrency@@8 DD imagerel ??_R1A@?0A@EA@_Chore@details@Concurrency@@8 ; Concurrency::details::_Chore::`RTTI Base Class Array'
	ORG $+3
rdata$r	ENDS
;	COMDAT ??_R3_Chore@details@Concurrency@@8
rdata$r	SEGMENT
??_R3_Chore@details@Concurrency@@8 DD 00H		; Concurrency::details::_Chore::`RTTI Class Hierarchy Descriptor'
	DD	00H
	DD	01H
	DD	imagerel ??_R2_Chore@details@Concurrency@@8
rdata$r	ENDS
;	COMDAT ??_R0?AU_Chore@details@Concurrency@@@8
data$r	SEGMENT
??_R0?AU_Chore@details@Concurrency@@@8 DQ FLAT:??_7type_info@@6B@ ; Concurrency::details::_Chore `RTTI Type Descriptor'
	DQ	0000000000000000H
	DB	'.?AU_Chore@details@Concurrency@@', 00H
data$r	ENDS
;	COMDAT ??_R1A@?0A@EA@_Chore@details@Concurrency@@8
rdata$r	SEGMENT
??_R1A@?0A@EA@_Chore@details@Concurrency@@8 DD imagerel ??_R0?AU_Chore@details@Concurrency@@@8 ; Concurrency::details::_Chore::`RTTI Base Class Descriptor at (0,-1,0,64)'
	DD	00H
	DD	00H
	DD	0ffffffffH
	DD	00H
	DD	040H
	DD	imagerel ??_R3_Chore@details@Concurrency@@8
rdata$r	ENDS
;	COMDAT ??_R1A@?0A@EA@_UnrealizedChore@details@Concurrency@@8
rdata$r	SEGMENT
??_R1A@?0A@EA@_UnrealizedChore@details@Concurrency@@8 DD imagerel ??_R0?AV_UnrealizedChore@details@Concurrency@@@8 ; Concurrency::details::_UnrealizedChore::`RTTI Base Class Descriptor at (0,-1,0,64)'
	DD	02H
	DD	00H
	DD	0ffffffffH
	DD	00H
	DD	040H
	DD	imagerel ??_R3_UnrealizedChore@details@Concurrency@@8
rdata$r	ENDS
;	COMDAT ??_R2_UnrealizedChore@details@Concurrency@@8
rdata$r	SEGMENT
??_R2_UnrealizedChore@details@Concurrency@@8 DD imagerel ??_R1A@?0A@EA@_UnrealizedChore@details@Concurrency@@8 ; Concurrency::details::_UnrealizedChore::`RTTI Base Class Array'
	DD	imagerel ??_R1A@?0A@EA@_Chore@details@Concurrency@@8
	DD	imagerel ??_R1BA@?0A@EA@_AllocBase@details@Concurrency@@8
	ORG $+3
rdata$r	ENDS
;	COMDAT ??_R3_UnrealizedChore@details@Concurrency@@8
rdata$r	SEGMENT
??_R3_UnrealizedChore@details@Concurrency@@8 DD 00H	; Concurrency::details::_UnrealizedChore::`RTTI Class Hierarchy Descriptor'
	DD	01H
	DD	03H
	DD	imagerel ??_R2_UnrealizedChore@details@Concurrency@@8
rdata$r	ENDS
;	COMDAT ??_R0?AV_UnrealizedChore@details@Concurrency@@@8
data$r	SEGMENT
??_R0?AV_UnrealizedChore@details@Concurrency@@@8 DQ FLAT:??_7type_info@@6B@ ; Concurrency::details::_UnrealizedChore `RTTI Type Descriptor'
	DQ	0000000000000000H
	DB	'.?AV_UnrealizedChore@details@Concurrency@@', 00H
data$r	ENDS
;	COMDAT ??_R4_UnrealizedChore@details@Concurrency@@6B@
rdata$r	SEGMENT
??_R4_UnrealizedChore@details@Concurrency@@6B@ DD 01H	; Concurrency::details::_UnrealizedChore::`RTTI Complete Object Locator'
	DD	00H
	DD	00H
	DD	imagerel ??_R0?AV_UnrealizedChore@details@Concurrency@@@8
	DD	imagerel ??_R3_UnrealizedChore@details@Concurrency@@8
	DD	imagerel ??_R4_UnrealizedChore@details@Concurrency@@6B@
rdata$r	ENDS
;	COMDAT ??_R1A@?0A@EA@?$num_put@DV?$ostreambuf_iterator@DU?$char_traits@D@std@@@std@@@std@@8
rdata$r	SEGMENT
??_R1A@?0A@EA@?$num_put@DV?$ostreambuf_iterator@DU?$char_traits@D@std@@@std@@@std@@8 DD imagerel ??_R0?AV?$num_put@DV?$ostreambuf_iterator@DU?$char_traits@D@std@@@std@@@std@@@8 ; std::num_put<char,std::ostreambuf_iterator<char,std::char_traits<char> > >::`RTTI Base Class Descriptor at (0,-1,0,64)'
	DD	03H
	DD	00H
	DD	0ffffffffH
	DD	00H
	DD	040H
	DD	imagerel ??_R3?$num_put@DV?$ostreambuf_iterator@DU?$char_traits@D@std@@@std@@@std@@8
rdata$r	ENDS
;	COMDAT ??_R2?$num_put@DV?$ostreambuf_iterator@DU?$char_traits@D@std@@@std@@@std@@8
rdata$r	SEGMENT
??_R2?$num_put@DV?$ostreambuf_iterator@DU?$char_traits@D@std@@@std@@@std@@8 DD imagerel ??_R1A@?0A@EA@?$num_put@DV?$ostreambuf_iterator@DU?$char_traits@D@std@@@std@@@std@@8 ; std::num_put<char,std::ostreambuf_iterator<char,std::char_traits<char> > >::`RTTI Base Class Array'
	DD	imagerel ??_R1A@?0A@EA@facet@locale@std@@8
	DD	imagerel ??_R1A@?0A@EA@_Facet_base@std@@8
	DD	imagerel ??_R17?0A@EA@_Crt_new_delete@std@@8
	ORG $+3
rdata$r	ENDS
;	COMDAT ??_R3?$num_put@DV?$ostreambuf_iterator@DU?$char_traits@D@std@@@std@@@std@@8
rdata$r	SEGMENT
??_R3?$num_put@DV?$ostreambuf_iterator@DU?$char_traits@D@std@@@std@@@std@@8 DD 00H ; std::num_put<char,std::ostreambuf_iterator<char,std::char_traits<char> > >::`RTTI Class Hierarchy Descriptor'
	DD	01H
	DD	04H
	DD	imagerel ??_R2?$num_put@DV?$ostreambuf_iterator@DU?$char_traits@D@std@@@std@@@std@@8
rdata$r	ENDS
;	COMDAT ??_R0?AV?$num_put@DV?$ostreambuf_iterator@DU?$char_traits@D@std@@@std@@@std@@@8
data$r	SEGMENT
??_R0?AV?$num_put@DV?$ostreambuf_iterator@DU?$char_traits@D@std@@@std@@@std@@@8 DQ FLAT:??_7type_info@@6B@ ; std::num_put<char,std::ostreambuf_iterator<char,std::char_traits<char> > > `RTTI Type Descriptor'
	DQ	0000000000000000H
	DB	'.?AV?$num_put@DV?$ostreambuf_iterator@DU?$char_traits@D@'
	DB	'std@@@std@@@std@@', 00H
data$r	ENDS
;	COMDAT ??_R4?$num_put@DV?$ostreambuf_iterator@DU?$char_traits@D@std@@@std@@@std@@6B@
rdata$r	SEGMENT
??_R4?$num_put@DV?$ostreambuf_iterator@DU?$char_traits@D@std@@@std@@@std@@6B@ DD 01H ; std::num_put<char,std::ostreambuf_iterator<char,std::char_traits<char> > >::`RTTI Complete Object Locator'
	DD	00H
	DD	00H
	DD	imagerel ??_R0?AV?$num_put@DV?$ostreambuf_iterator@DU?$char_traits@D@std@@@std@@@std@@@8
	DD	imagerel ??_R3?$num_put@DV?$ostreambuf_iterator@DU?$char_traits@D@std@@@std@@@std@@8
	DD	imagerel ??_R4?$num_put@DV?$ostreambuf_iterator@DU?$char_traits@D@std@@@std@@@std@@6B@
rdata$r	ENDS
;	COMDAT ??_R1A@?0A@EA@failure@ios_base@std@@8
rdata$r	SEGMENT
??_R1A@?0A@EA@failure@ios_base@std@@8 DD imagerel ??_R0?AVfailure@ios_base@std@@@8 ; std::ios_base::failure::`RTTI Base Class Descriptor at (0,-1,0,64)'
	DD	04H
	DD	00H
	DD	0ffffffffH
	DD	00H
	DD	040H
	DD	imagerel ??_R3failure@ios_base@std@@8
rdata$r	ENDS
;	COMDAT ??_R2failure@ios_base@std@@8
rdata$r	SEGMENT
??_R2failure@ios_base@std@@8 DD imagerel ??_R1A@?0A@EA@failure@ios_base@std@@8 ; std::ios_base::failure::`RTTI Base Class Array'
	DD	imagerel ??_R1A@?0A@EA@system_error@std@@8
	DD	imagerel ??_R1A@?0A@EA@_System_error@std@@8
	DD	imagerel ??_R1A@?0A@EA@runtime_error@std@@8
	DD	imagerel ??_R1A@?0A@EA@exception@std@@8
	ORG $+3
rdata$r	ENDS
;	COMDAT ??_R3failure@ios_base@std@@8
rdata$r	SEGMENT
??_R3failure@ios_base@std@@8 DD 00H			; std::ios_base::failure::`RTTI Class Hierarchy Descriptor'
	DD	00H
	DD	05H
	DD	imagerel ??_R2failure@ios_base@std@@8
rdata$r	ENDS
;	COMDAT ??_R4failure@ios_base@std@@6B@
rdata$r	SEGMENT
??_R4failure@ios_base@std@@6B@ DD 01H			; std::ios_base::failure::`RTTI Complete Object Locator'
	DD	00H
	DD	00H
	DD	imagerel ??_R0?AVfailure@ios_base@std@@@8
	DD	imagerel ??_R3failure@ios_base@std@@8
	DD	imagerel ??_R4failure@ios_base@std@@6B@
rdata$r	ENDS
;	COMDAT ??_R1A@?0A@EA@_Iostream_error_category@std@@8
rdata$r	SEGMENT
??_R1A@?0A@EA@_Iostream_error_category@std@@8 DD imagerel ??_R0?AV_Iostream_error_category@std@@@8 ; std::_Iostream_error_category::`RTTI Base Class Descriptor at (0,-1,0,64)'
	DD	02H
	DD	00H
	DD	0ffffffffH
	DD	00H
	DD	040H
	DD	imagerel ??_R3_Iostream_error_category@std@@8
rdata$r	ENDS
;	COMDAT ??_R2_Iostream_error_category@std@@8
rdata$r	SEGMENT
??_R2_Iostream_error_category@std@@8 DD imagerel ??_R1A@?0A@EA@_Iostream_error_category@std@@8 ; std::_Iostream_error_category::`RTTI Base Class Array'
	DD	imagerel ??_R1A@?0A@EA@_Generic_error_category@std@@8
	DD	imagerel ??_R1A@?0A@EA@error_category@std@@8
	ORG $+3
rdata$r	ENDS
;	COMDAT ??_R3_Iostream_error_category@std@@8
rdata$r	SEGMENT
??_R3_Iostream_error_category@std@@8 DD 00H		; std::_Iostream_error_category::`RTTI Class Hierarchy Descriptor'
	DD	00H
	DD	03H
	DD	imagerel ??_R2_Iostream_error_category@std@@8
rdata$r	ENDS
;	COMDAT ??_R0?AV_Iostream_error_category@std@@@8
data$r	SEGMENT
??_R0?AV_Iostream_error_category@std@@@8 DQ FLAT:??_7type_info@@6B@ ; std::_Iostream_error_category `RTTI Type Descriptor'
	DQ	0000000000000000H
	DB	'.?AV_Iostream_error_category@std@@', 00H
data$r	ENDS
;	COMDAT ??_R4_Iostream_error_category@std@@6B@
rdata$r	SEGMENT
??_R4_Iostream_error_category@std@@6B@ DD 01H		; std::_Iostream_error_category::`RTTI Complete Object Locator'
	DD	00H
	DD	00H
	DD	imagerel ??_R0?AV_Iostream_error_category@std@@@8
	DD	imagerel ??_R3_Iostream_error_category@std@@8
	DD	imagerel ??_R4_Iostream_error_category@std@@6B@
rdata$r	ENDS
;	COMDAT ??_R1A@?0A@EA@_Generic_error_category@std@@8
rdata$r	SEGMENT
??_R1A@?0A@EA@_Generic_error_category@std@@8 DD imagerel ??_R0?AV_Generic_error_category@std@@@8 ; std::_Generic_error_category::`RTTI Base Class Descriptor at (0,-1,0,64)'
	DD	01H
	DD	00H
	DD	0ffffffffH
	DD	00H
	DD	040H
	DD	imagerel ??_R3_Generic_error_category@std@@8
rdata$r	ENDS
;	COMDAT ??_R2_Generic_error_category@std@@8
rdata$r	SEGMENT
??_R2_Generic_error_category@std@@8 DD imagerel ??_R1A@?0A@EA@_Generic_error_category@std@@8 ; std::_Generic_error_category::`RTTI Base Class Array'
	DD	imagerel ??_R1A@?0A@EA@error_category@std@@8
	ORG $+3
rdata$r	ENDS
;	COMDAT ??_R3_Generic_error_category@std@@8
rdata$r	SEGMENT
??_R3_Generic_error_category@std@@8 DD 00H		; std::_Generic_error_category::`RTTI Class Hierarchy Descriptor'
	DD	00H
	DD	02H
	DD	imagerel ??_R2_Generic_error_category@std@@8
rdata$r	ENDS
;	COMDAT ??_R0?AV_Generic_error_category@std@@@8
data$r	SEGMENT
??_R0?AV_Generic_error_category@std@@@8 DQ FLAT:??_7type_info@@6B@ ; std::_Generic_error_category `RTTI Type Descriptor'
	DQ	0000000000000000H
	DB	'.?AV_Generic_error_category@std@@', 00H
data$r	ENDS
;	COMDAT ??_R4_Generic_error_category@std@@6B@
rdata$r	SEGMENT
??_R4_Generic_error_category@std@@6B@ DD 01H		; std::_Generic_error_category::`RTTI Complete Object Locator'
	DD	00H
	DD	00H
	DD	imagerel ??_R0?AV_Generic_error_category@std@@@8
	DD	imagerel ??_R3_Generic_error_category@std@@8
	DD	imagerel ??_R4_Generic_error_category@std@@6B@
rdata$r	ENDS
;	COMDAT ??_R1A@?0A@EA@system_error@std@@8
rdata$r	SEGMENT
??_R1A@?0A@EA@system_error@std@@8 DD imagerel ??_R0?AVsystem_error@std@@@8 ; std::system_error::`RTTI Base Class Descriptor at (0,-1,0,64)'
	DD	03H
	DD	00H
	DD	0ffffffffH
	DD	00H
	DD	040H
	DD	imagerel ??_R3system_error@std@@8
rdata$r	ENDS
;	COMDAT ??_R2system_error@std@@8
rdata$r	SEGMENT
??_R2system_error@std@@8 DD imagerel ??_R1A@?0A@EA@system_error@std@@8 ; std::system_error::`RTTI Base Class Array'
	DD	imagerel ??_R1A@?0A@EA@_System_error@std@@8
	DD	imagerel ??_R1A@?0A@EA@runtime_error@std@@8
	DD	imagerel ??_R1A@?0A@EA@exception@std@@8
	ORG $+3
rdata$r	ENDS
;	COMDAT ??_R3system_error@std@@8
rdata$r	SEGMENT
??_R3system_error@std@@8 DD 00H				; std::system_error::`RTTI Class Hierarchy Descriptor'
	DD	00H
	DD	04H
	DD	imagerel ??_R2system_error@std@@8
rdata$r	ENDS
;	COMDAT ??_R4system_error@std@@6B@
rdata$r	SEGMENT
??_R4system_error@std@@6B@ DD 01H			; std::system_error::`RTTI Complete Object Locator'
	DD	00H
	DD	00H
	DD	imagerel ??_R0?AVsystem_error@std@@@8
	DD	imagerel ??_R3system_error@std@@8
	DD	imagerel ??_R4system_error@std@@6B@
rdata$r	ENDS
;	COMDAT ??_R1A@?0A@EA@_System_error@std@@8
rdata$r	SEGMENT
??_R1A@?0A@EA@_System_error@std@@8 DD imagerel ??_R0?AV_System_error@std@@@8 ; std::_System_error::`RTTI Base Class Descriptor at (0,-1,0,64)'
	DD	02H
	DD	00H
	DD	0ffffffffH
	DD	00H
	DD	040H
	DD	imagerel ??_R3_System_error@std@@8
rdata$r	ENDS
;	COMDAT ??_R2_System_error@std@@8
rdata$r	SEGMENT
??_R2_System_error@std@@8 DD imagerel ??_R1A@?0A@EA@_System_error@std@@8 ; std::_System_error::`RTTI Base Class Array'
	DD	imagerel ??_R1A@?0A@EA@runtime_error@std@@8
	DD	imagerel ??_R1A@?0A@EA@exception@std@@8
	ORG $+3
rdata$r	ENDS
;	COMDAT ??_R3_System_error@std@@8
rdata$r	SEGMENT
??_R3_System_error@std@@8 DD 00H			; std::_System_error::`RTTI Class Hierarchy Descriptor'
	DD	00H
	DD	03H
	DD	imagerel ??_R2_System_error@std@@8
rdata$r	ENDS
;	COMDAT ??_R4_System_error@std@@6B@
rdata$r	SEGMENT
??_R4_System_error@std@@6B@ DD 01H			; std::_System_error::`RTTI Complete Object Locator'
	DD	00H
	DD	00H
	DD	imagerel ??_R0?AV_System_error@std@@@8
	DD	imagerel ??_R3_System_error@std@@8
	DD	imagerel ??_R4_System_error@std@@6B@
rdata$r	ENDS
;	COMDAT ??_R1A@?0A@EA@error_category@std@@8
rdata$r	SEGMENT
??_R1A@?0A@EA@error_category@std@@8 DD imagerel ??_R0?AVerror_category@std@@@8 ; std::error_category::`RTTI Base Class Descriptor at (0,-1,0,64)'
	DD	00H
	DD	00H
	DD	0ffffffffH
	DD	00H
	DD	040H
	DD	imagerel ??_R3error_category@std@@8
rdata$r	ENDS
;	COMDAT ??_R2error_category@std@@8
rdata$r	SEGMENT
??_R2error_category@std@@8 DD imagerel ??_R1A@?0A@EA@error_category@std@@8 ; std::error_category::`RTTI Base Class Array'
	ORG $+3
rdata$r	ENDS
;	COMDAT ??_R3error_category@std@@8
rdata$r	SEGMENT
??_R3error_category@std@@8 DD 00H			; std::error_category::`RTTI Class Hierarchy Descriptor'
	DD	00H
	DD	01H
	DD	imagerel ??_R2error_category@std@@8
rdata$r	ENDS
;	COMDAT ??_R0?AVerror_category@std@@@8
data$r	SEGMENT
??_R0?AVerror_category@std@@@8 DQ FLAT:??_7type_info@@6B@ ; std::error_category `RTTI Type Descriptor'
	DQ	0000000000000000H
	DB	'.?AVerror_category@std@@', 00H
data$r	ENDS
;	COMDAT ??_R4error_category@std@@6B@
rdata$r	SEGMENT
??_R4error_category@std@@6B@ DD 01H			; std::error_category::`RTTI Complete Object Locator'
	DD	00H
	DD	00H
	DD	imagerel ??_R0?AVerror_category@std@@@8
	DD	imagerel ??_R3error_category@std@@8
	DD	imagerel ??_R4error_category@std@@6B@
rdata$r	ENDS
;	COMDAT ??_R1A@?0A@EA@?$ctype@D@std@@8
rdata$r	SEGMENT
??_R1A@?0A@EA@?$ctype@D@std@@8 DD imagerel ??_R0?AV?$ctype@D@std@@@8 ; std::ctype<char>::`RTTI Base Class Descriptor at (0,-1,0,64)'
	DD	04H
	DD	00H
	DD	0ffffffffH
	DD	00H
	DD	040H
	DD	imagerel ??_R3?$ctype@D@std@@8
rdata$r	ENDS
;	COMDAT ??_R2?$ctype@D@std@@8
rdata$r	SEGMENT
??_R2?$ctype@D@std@@8 DD imagerel ??_R1A@?0A@EA@?$ctype@D@std@@8 ; std::ctype<char>::`RTTI Base Class Array'
	DD	imagerel ??_R1A@?0A@EA@ctype_base@std@@8
	DD	imagerel ??_R1A@?0A@EA@facet@locale@std@@8
	DD	imagerel ??_R1A@?0A@EA@_Facet_base@std@@8
	DD	imagerel ??_R17?0A@EA@_Crt_new_delete@std@@8
	ORG $+3
rdata$r	ENDS
;	COMDAT ??_R3?$ctype@D@std@@8
rdata$r	SEGMENT
??_R3?$ctype@D@std@@8 DD 00H				; std::ctype<char>::`RTTI Class Hierarchy Descriptor'
	DD	01H
	DD	05H
	DD	imagerel ??_R2?$ctype@D@std@@8
rdata$r	ENDS
;	COMDAT ??_R0?AV?$ctype@D@std@@@8
data$r	SEGMENT
??_R0?AV?$ctype@D@std@@@8 DQ FLAT:??_7type_info@@6B@	; std::ctype<char> `RTTI Type Descriptor'
	DQ	0000000000000000H
	DB	'.?AV?$ctype@D@std@@', 00H
data$r	ENDS
;	COMDAT ??_R4?$ctype@D@std@@6B@
rdata$r	SEGMENT
??_R4?$ctype@D@std@@6B@ DD 01H				; std::ctype<char>::`RTTI Complete Object Locator'
	DD	00H
	DD	00H
	DD	imagerel ??_R0?AV?$ctype@D@std@@@8
	DD	imagerel ??_R3?$ctype@D@std@@8
	DD	imagerel ??_R4?$ctype@D@std@@6B@
rdata$r	ENDS
;	COMDAT ??_R1A@?0A@EA@ctype_base@std@@8
rdata$r	SEGMENT
??_R1A@?0A@EA@ctype_base@std@@8 DD imagerel ??_R0?AUctype_base@std@@@8 ; std::ctype_base::`RTTI Base Class Descriptor at (0,-1,0,64)'
	DD	03H
	DD	00H
	DD	0ffffffffH
	DD	00H
	DD	040H
	DD	imagerel ??_R3ctype_base@std@@8
rdata$r	ENDS
;	COMDAT ??_R2ctype_base@std@@8
rdata$r	SEGMENT
??_R2ctype_base@std@@8 DD imagerel ??_R1A@?0A@EA@ctype_base@std@@8 ; std::ctype_base::`RTTI Base Class Array'
	DD	imagerel ??_R1A@?0A@EA@facet@locale@std@@8
	DD	imagerel ??_R1A@?0A@EA@_Facet_base@std@@8
	DD	imagerel ??_R17?0A@EA@_Crt_new_delete@std@@8
	ORG $+3
rdata$r	ENDS
;	COMDAT ??_R3ctype_base@std@@8
rdata$r	SEGMENT
??_R3ctype_base@std@@8 DD 00H				; std::ctype_base::`RTTI Class Hierarchy Descriptor'
	DD	01H
	DD	04H
	DD	imagerel ??_R2ctype_base@std@@8
rdata$r	ENDS
;	COMDAT ??_R0?AUctype_base@std@@@8
data$r	SEGMENT
??_R0?AUctype_base@std@@@8 DQ FLAT:??_7type_info@@6B@	; std::ctype_base `RTTI Type Descriptor'
	DQ	0000000000000000H
	DB	'.?AUctype_base@std@@', 00H
data$r	ENDS
;	COMDAT ??_R4ctype_base@std@@6B@
rdata$r	SEGMENT
??_R4ctype_base@std@@6B@ DD 01H				; std::ctype_base::`RTTI Complete Object Locator'
	DD	00H
	DD	00H
	DD	imagerel ??_R0?AUctype_base@std@@@8
	DD	imagerel ??_R3ctype_base@std@@8
	DD	imagerel ??_R4ctype_base@std@@6B@
rdata$r	ENDS
;	COMDAT ??_R4facet@locale@std@@6B@
rdata$r	SEGMENT
??_R4facet@locale@std@@6B@ DD 01H			; std::locale::facet::`RTTI Complete Object Locator'
	DD	00H
	DD	00H
	DD	imagerel ??_R0?AVfacet@locale@std@@@8
	DD	imagerel ??_R3facet@locale@std@@8
	DD	imagerel ??_R4facet@locale@std@@6B@
rdata$r	ENDS
;	COMDAT ??_R1A@?0A@EA@_Crt_new_delete@std@@8
rdata$r	SEGMENT
??_R1A@?0A@EA@_Crt_new_delete@std@@8 DD imagerel ??_R0?AU_Crt_new_delete@std@@@8 ; std::_Crt_new_delete::`RTTI Base Class Descriptor at (0,-1,0,64)'
	DD	00H
	DD	00H
	DD	0ffffffffH
	DD	00H
	DD	040H
	DD	imagerel ??_R3_Crt_new_delete@std@@8
rdata$r	ENDS
;	COMDAT ??_R2_Crt_new_delete@std@@8
rdata$r	SEGMENT
??_R2_Crt_new_delete@std@@8 DD imagerel ??_R1A@?0A@EA@_Crt_new_delete@std@@8 ; std::_Crt_new_delete::`RTTI Base Class Array'
	ORG $+3
rdata$r	ENDS
;	COMDAT ??_R3_Crt_new_delete@std@@8
rdata$r	SEGMENT
??_R3_Crt_new_delete@std@@8 DD 00H			; std::_Crt_new_delete::`RTTI Class Hierarchy Descriptor'
	DD	00H
	DD	01H
	DD	imagerel ??_R2_Crt_new_delete@std@@8
rdata$r	ENDS
;	COMDAT ??_R0?AU_Crt_new_delete@std@@@8
data$r	SEGMENT
??_R0?AU_Crt_new_delete@std@@@8 DQ FLAT:??_7type_info@@6B@ ; std::_Crt_new_delete `RTTI Type Descriptor'
	DQ	0000000000000000H
	DB	'.?AU_Crt_new_delete@std@@', 00H
data$r	ENDS
;	COMDAT ??_R17?0A@EA@_Crt_new_delete@std@@8
rdata$r	SEGMENT
??_R17?0A@EA@_Crt_new_delete@std@@8 DD imagerel ??_R0?AU_Crt_new_delete@std@@@8 ; std::_Crt_new_delete::`RTTI Base Class Descriptor at (8,-1,0,64)'
	DD	00H
	DD	08H
	DD	0ffffffffH
	DD	00H
	DD	040H
	DD	imagerel ??_R3_Crt_new_delete@std@@8
rdata$r	ENDS
;	COMDAT ??_R2facet@locale@std@@8
rdata$r	SEGMENT
??_R2facet@locale@std@@8 DD imagerel ??_R1A@?0A@EA@facet@locale@std@@8 ; std::locale::facet::`RTTI Base Class Array'
	DD	imagerel ??_R1A@?0A@EA@_Facet_base@std@@8
	DD	imagerel ??_R17?0A@EA@_Crt_new_delete@std@@8
	ORG $+3
rdata$r	ENDS
;	COMDAT ??_R3facet@locale@std@@8
rdata$r	SEGMENT
??_R3facet@locale@std@@8 DD 00H				; std::locale::facet::`RTTI Class Hierarchy Descriptor'
	DD	01H
	DD	03H
	DD	imagerel ??_R2facet@locale@std@@8
rdata$r	ENDS
;	COMDAT ??_R0?AVfacet@locale@std@@@8
data$r	SEGMENT
??_R0?AVfacet@locale@std@@@8 DQ FLAT:??_7type_info@@6B@	; std::locale::facet `RTTI Type Descriptor'
	DQ	0000000000000000H
	DB	'.?AVfacet@locale@std@@', 00H
data$r	ENDS
;	COMDAT ??_R1A@?0A@EA@facet@locale@std@@8
rdata$r	SEGMENT
??_R1A@?0A@EA@facet@locale@std@@8 DD imagerel ??_R0?AVfacet@locale@std@@@8 ; std::locale::facet::`RTTI Base Class Descriptor at (0,-1,0,64)'
	DD	02H
	DD	00H
	DD	0ffffffffH
	DD	00H
	DD	040H
	DD	imagerel ??_R3facet@locale@std@@8
rdata$r	ENDS
;	COMDAT ??_R1A@?0A@EA@_Facet_base@std@@8
rdata$r	SEGMENT
??_R1A@?0A@EA@_Facet_base@std@@8 DD imagerel ??_R0?AV_Facet_base@std@@@8 ; std::_Facet_base::`RTTI Base Class Descriptor at (0,-1,0,64)'
	DD	00H
	DD	00H
	DD	0ffffffffH
	DD	00H
	DD	040H
	DD	imagerel ??_R3_Facet_base@std@@8
rdata$r	ENDS
;	COMDAT ??_R2_Facet_base@std@@8
rdata$r	SEGMENT
??_R2_Facet_base@std@@8 DD imagerel ??_R1A@?0A@EA@_Facet_base@std@@8 ; std::_Facet_base::`RTTI Base Class Array'
	ORG $+3
rdata$r	ENDS
;	COMDAT ??_R3_Facet_base@std@@8
rdata$r	SEGMENT
??_R3_Facet_base@std@@8 DD 00H				; std::_Facet_base::`RTTI Class Hierarchy Descriptor'
	DD	00H
	DD	01H
	DD	imagerel ??_R2_Facet_base@std@@8
rdata$r	ENDS
;	COMDAT ??_R0?AV_Facet_base@std@@@8
data$r	SEGMENT
??_R0?AV_Facet_base@std@@@8 DQ FLAT:??_7type_info@@6B@	; std::_Facet_base `RTTI Type Descriptor'
	DQ	0000000000000000H
	DB	'.?AV_Facet_base@std@@', 00H
data$r	ENDS
;	COMDAT ??_R4_Facet_base@std@@6B@
rdata$r	SEGMENT
??_R4_Facet_base@std@@6B@ DD 01H			; std::_Facet_base::`RTTI Complete Object Locator'
	DD	00H
	DD	00H
	DD	imagerel ??_R0?AV_Facet_base@std@@@8
	DD	imagerel ??_R3_Facet_base@std@@8
	DD	imagerel ??_R4_Facet_base@std@@6B@
rdata$r	ENDS
;	COMDAT ??_R1A@?0A@EA@bad_cast@std@@8
rdata$r	SEGMENT
??_R1A@?0A@EA@bad_cast@std@@8 DD imagerel ??_R0?AVbad_cast@std@@@8 ; std::bad_cast::`RTTI Base Class Descriptor at (0,-1,0,64)'
	DD	01H
	DD	00H
	DD	0ffffffffH
	DD	00H
	DD	040H
	DD	imagerel ??_R3bad_cast@std@@8
rdata$r	ENDS
;	COMDAT ??_R2bad_cast@std@@8
rdata$r	SEGMENT
??_R2bad_cast@std@@8 DD imagerel ??_R1A@?0A@EA@bad_cast@std@@8 ; std::bad_cast::`RTTI Base Class Array'
	DD	imagerel ??_R1A@?0A@EA@exception@std@@8
	ORG $+3
rdata$r	ENDS
;	COMDAT ??_R3bad_cast@std@@8
rdata$r	SEGMENT
??_R3bad_cast@std@@8 DD 00H				; std::bad_cast::`RTTI Class Hierarchy Descriptor'
	DD	00H
	DD	02H
	DD	imagerel ??_R2bad_cast@std@@8
rdata$r	ENDS
;	COMDAT ??_R4bad_cast@std@@6B@
rdata$r	SEGMENT
??_R4bad_cast@std@@6B@ DD 01H				; std::bad_cast::`RTTI Complete Object Locator'
	DD	00H
	DD	00H
	DD	imagerel ??_R0?AVbad_cast@std@@@8
	DD	imagerel ??_R3bad_cast@std@@8
	DD	imagerel ??_R4bad_cast@std@@6B@
rdata$r	ENDS
;	COMDAT ??_R1A@?0A@EA@runtime_error@std@@8
rdata$r	SEGMENT
??_R1A@?0A@EA@runtime_error@std@@8 DD imagerel ??_R0?AVruntime_error@std@@@8 ; std::runtime_error::`RTTI Base Class Descriptor at (0,-1,0,64)'
	DD	01H
	DD	00H
	DD	0ffffffffH
	DD	00H
	DD	040H
	DD	imagerel ??_R3runtime_error@std@@8
rdata$r	ENDS
;	COMDAT ??_R2runtime_error@std@@8
rdata$r	SEGMENT
??_R2runtime_error@std@@8 DD imagerel ??_R1A@?0A@EA@runtime_error@std@@8 ; std::runtime_error::`RTTI Base Class Array'
	DD	imagerel ??_R1A@?0A@EA@exception@std@@8
	ORG $+3
rdata$r	ENDS
;	COMDAT ??_R3runtime_error@std@@8
rdata$r	SEGMENT
??_R3runtime_error@std@@8 DD 00H			; std::runtime_error::`RTTI Class Hierarchy Descriptor'
	DD	00H
	DD	02H
	DD	imagerel ??_R2runtime_error@std@@8
rdata$r	ENDS
;	COMDAT ??_R4runtime_error@std@@6B@
rdata$r	SEGMENT
??_R4runtime_error@std@@6B@ DD 01H			; std::runtime_error::`RTTI Complete Object Locator'
	DD	00H
	DD	00H
	DD	imagerel ??_R0?AVruntime_error@std@@@8
	DD	imagerel ??_R3runtime_error@std@@8
	DD	imagerel ??_R4runtime_error@std@@6B@
rdata$r	ENDS
;	COMDAT ??_R1A@?0A@EA@bad_alloc@std@@8
rdata$r	SEGMENT
??_R1A@?0A@EA@bad_alloc@std@@8 DD imagerel ??_R0?AVbad_alloc@std@@@8 ; std::bad_alloc::`RTTI Base Class Descriptor at (0,-1,0,64)'
	DD	01H
	DD	00H
	DD	0ffffffffH
	DD	00H
	DD	040H
	DD	imagerel ??_R3bad_alloc@std@@8
rdata$r	ENDS
;	COMDAT ??_R2bad_alloc@std@@8
rdata$r	SEGMENT
??_R2bad_alloc@std@@8 DD imagerel ??_R1A@?0A@EA@bad_alloc@std@@8 ; std::bad_alloc::`RTTI Base Class Array'
	DD	imagerel ??_R1A@?0A@EA@exception@std@@8
	ORG $+3
rdata$r	ENDS
;	COMDAT ??_R3bad_alloc@std@@8
rdata$r	SEGMENT
??_R3bad_alloc@std@@8 DD 00H				; std::bad_alloc::`RTTI Class Hierarchy Descriptor'
	DD	00H
	DD	02H
	DD	imagerel ??_R2bad_alloc@std@@8
rdata$r	ENDS
;	COMDAT ??_R4bad_alloc@std@@6B@
rdata$r	SEGMENT
??_R4bad_alloc@std@@6B@ DD 01H				; std::bad_alloc::`RTTI Complete Object Locator'
	DD	00H
	DD	00H
	DD	imagerel ??_R0?AVbad_alloc@std@@@8
	DD	imagerel ??_R3bad_alloc@std@@8
	DD	imagerel ??_R4bad_alloc@std@@6B@
rdata$r	ENDS
;	COMDAT ??_R1A@?0A@EA@exception@std@@8
rdata$r	SEGMENT
??_R1A@?0A@EA@exception@std@@8 DD imagerel ??_R0?AVexception@std@@@8 ; std::exception::`RTTI Base Class Descriptor at (0,-1,0,64)'
	DD	00H
	DD	00H
	DD	0ffffffffH
	DD	00H
	DD	040H
	DD	imagerel ??_R3exception@std@@8
rdata$r	ENDS
;	COMDAT ??_R2exception@std@@8
rdata$r	SEGMENT
??_R2exception@std@@8 DD imagerel ??_R1A@?0A@EA@exception@std@@8 ; std::exception::`RTTI Base Class Array'
	ORG $+3
rdata$r	ENDS
;	COMDAT ??_R3exception@std@@8
rdata$r	SEGMENT
??_R3exception@std@@8 DD 00H				; std::exception::`RTTI Class Hierarchy Descriptor'
	DD	00H
	DD	01H
	DD	imagerel ??_R2exception@std@@8
rdata$r	ENDS
;	COMDAT ??_R4exception@std@@6B@
rdata$r	SEGMENT
??_R4exception@std@@6B@ DD 01H				; std::exception::`RTTI Complete Object Locator'
	DD	00H
	DD	00H
	DD	imagerel ??_R0?AVexception@std@@@8
	DD	imagerel ??_R3exception@std@@8
	DD	imagerel ??_R4exception@std@@6B@
rdata$r	ENDS
;	COMDAT ??_7?$_MallocaListHolder@V?$task_handle@V?$_Parallel_chunk_helper@V?$_Vector_const_iterator@V?$_Vector_val@U?$_Simple_types@H@std@@@std@@@std@@_JV<lambda_e91d5317cacb03e6a1467b3ede17adf9>@@Vauto_partitioner@Concurrency@@$00@Concurrency@@@Concurrency@@@details@Concurrency@@6B@
CONST	SEGMENT
??_7?$_MallocaListHolder@V?$task_handle@V?$_Parallel_chunk_helper@V?$_Vector_const_iterator@V?$_Vector_val@U?$_Simple_types@H@std@@@std@@@std@@_JV<lambda_e91d5317cacb03e6a1467b3ede17adf9>@@Vauto_partitioner@Concurrency@@$00@Concurrency@@@Concurrency@@@details@Concurrency@@6B@ DQ FLAT:??_R4?$_MallocaListHolder@V?$task_handle@V?$_Parallel_chunk_helper@V?$_Vector_const_iterator@V?$_Vector_val@U?$_Simple_types@H@std@@@std@@@std@@_JV<lambda_e91d5317cacb03e6a1467b3ede17adf9>@@Vauto_partitioner@Concurrency@@$00@Concurrency@@@Concurrency@@@details@Concurrency@@6B@ ; Concurrency::details::_MallocaListHolder<Concurrency::task_handle<Concurrency::_Parallel_chunk_helper<std::_Vector_const_iterator<std::_Vector_val<std::_Simple_types<int> > >,__int64,<lambda_e91d5317cacb03e6a1467b3ede17adf9>,Concurrency::auto_partitioner,1> > >::`vftable'
	DQ	FLAT:??_E?$_MallocaListHolder@V?$task_handle@V?$_Parallel_chunk_helper@V?$_Vector_const_iterator@V?$_Vector_val@U?$_Simple_types@H@std@@@std@@@std@@_JV<lambda_e91d5317cacb03e6a1467b3ede17adf9>@@Vauto_partitioner@Concurrency@@$00@Concurrency@@@Concurrency@@@details@Concurrency@@UEAAPEAXI@Z
CONST	ENDS
;	COMDAT _CT??_R0?AVbad_alloc@std@@@824
xdata$x	SEGMENT
_CT??_R0?AVbad_alloc@std@@@824 DD 010H
	DD	imagerel ??_R0?AVbad_alloc@std@@@8
	DD	00H
	DD	0ffffffffH
	ORG $+4
	DD	018H
	DD	imagerel ??0bad_alloc@std@@QEAA@AEBV01@@Z
xdata$x	ENDS
;	COMDAT ??_R0?AVbad_alloc@std@@@8
data$r	SEGMENT
??_R0?AVbad_alloc@std@@@8 DQ FLAT:??_7type_info@@6B@	; std::bad_alloc `RTTI Type Descriptor'
	DQ	0000000000000000H
	DB	'.?AVbad_alloc@std@@', 00H
data$r	ENDS
;	COMDAT _CTA2?AVbad_alloc@std@@
xdata$x	SEGMENT
_CTA2?AVbad_alloc@std@@ DD 02H
	DD	imagerel _CT??_R0?AVbad_alloc@std@@@824
	DD	imagerel _CT??_R0?AVexception@std@@@824
xdata$x	ENDS
;	COMDAT _TI2?AVbad_alloc@std@@
xdata$x	SEGMENT
_TI2?AVbad_alloc@std@@ DD 00H
	DD	imagerel ??1bad_alloc@std@@UEAA@XZ
	DD	00H
	DD	imagerel _CTA2?AVbad_alloc@std@@
xdata$x	ENDS
;	COMDAT ??_7?$task_handle@V?$_Parallel_chunk_helper@V?$_Vector_const_iterator@V?$_Vector_val@U?$_Simple_types@H@std@@@std@@@std@@_JV<lambda_e91d5317cacb03e6a1467b3ede17adf9>@@Vauto_partitioner@Concurrency@@$00@Concurrency@@@Concurrency@@6B@
CONST	SEGMENT
??_7?$task_handle@V?$_Parallel_chunk_helper@V?$_Vector_const_iterator@V?$_Vector_val@U?$_Simple_types@H@std@@@std@@@std@@_JV<lambda_e91d5317cacb03e6a1467b3ede17adf9>@@Vauto_partitioner@Concurrency@@$00@Concurrency@@@Concurrency@@6B@ DQ FLAT:??_R4?$task_handle@V?$_Parallel_chunk_helper@V?$_Vector_const_iterator@V?$_Vector_val@U?$_Simple_types@H@std@@@std@@@std@@_JV<lambda_e91d5317cacb03e6a1467b3ede17adf9>@@Vauto_partitioner@Concurrency@@$00@Concurrency@@@Concurrency@@6B@ ; Concurrency::task_handle<Concurrency::_Parallel_chunk_helper<std::_Vector_const_iterator<std::_Vector_val<std::_Simple_types<int> > >,__int64,<lambda_e91d5317cacb03e6a1467b3ede17adf9>,Concurrency::auto_partitioner,1> >::`vftable'
	DQ	FLAT:??_E?$task_handle@V?$_Parallel_chunk_helper@V?$_Vector_const_iterator@V?$_Vector_val@U?$_Simple_types@H@std@@@std@@@std@@_JV<lambda_e91d5317cacb03e6a1467b3ede17adf9>@@Vauto_partitioner@Concurrency@@$00@Concurrency@@@Concurrency@@UEAAPEAXI@Z
CONST	ENDS
;	COMDAT ??_7?$_MallocaArrayHolder@V?$task_handle@V?$_Parallel_chunk_helper@V?$_Vector_const_iterator@V?$_Vector_val@U?$_Simple_types@H@std@@@std@@@std@@_JV<lambda_e91d5317cacb03e6a1467b3ede17adf9>@@Vauto_partitioner@Concurrency@@$00@Concurrency@@@Concurrency@@@details@Concurrency@@6B@
CONST	SEGMENT
??_7?$_MallocaArrayHolder@V?$task_handle@V?$_Parallel_chunk_helper@V?$_Vector_const_iterator@V?$_Vector_val@U?$_Simple_types@H@std@@@std@@@std@@_JV<lambda_e91d5317cacb03e6a1467b3ede17adf9>@@Vauto_partitioner@Concurrency@@$00@Concurrency@@@Concurrency@@@details@Concurrency@@6B@ DQ FLAT:??_R4?$_MallocaArrayHolder@V?$task_handle@V?$_Parallel_chunk_helper@V?$_Vector_const_iterator@V?$_Vector_val@U?$_Simple_types@H@std@@@std@@@std@@_JV<lambda_e91d5317cacb03e6a1467b3ede17adf9>@@Vauto_partitioner@Concurrency@@$00@Concurrency@@@Concurrency@@@details@Concurrency@@6B@ ; Concurrency::details::_MallocaArrayHolder<Concurrency::task_handle<Concurrency::_Parallel_chunk_helper<std::_Vector_const_iterator<std::_Vector_val<std::_Simple_types<int> > >,__int64,<lambda_e91d5317cacb03e6a1467b3ede17adf9>,Concurrency::auto_partitioner,1> > >::`vftable'
	DQ	FLAT:??_E?$_MallocaArrayHolder@V?$task_handle@V?$_Parallel_chunk_helper@V?$_Vector_const_iterator@V?$_Vector_val@U?$_Simple_types@H@std@@@std@@@std@@_JV<lambda_e91d5317cacb03e6a1467b3ede17adf9>@@Vauto_partitioner@Concurrency@@$00@Concurrency@@@Concurrency@@@details@Concurrency@@UEAAPEAXI@Z
CONST	ENDS
;	COMDAT _CT??_R0?AVbad_cast@std@@@824
xdata$x	SEGMENT
_CT??_R0?AVbad_cast@std@@@824 DD 00H
	DD	imagerel ??_R0?AVbad_cast@std@@@8
	DD	00H
	DD	0ffffffffH
	ORG $+4
	DD	018H
	DD	imagerel ??0bad_cast@std@@QEAA@AEBV01@@Z
xdata$x	ENDS
;	COMDAT ??_R0?AVbad_cast@std@@@8
data$r	SEGMENT
??_R0?AVbad_cast@std@@@8 DQ FLAT:??_7type_info@@6B@	; std::bad_cast `RTTI Type Descriptor'
	DQ	0000000000000000H
	DB	'.?AVbad_cast@std@@', 00H
data$r	ENDS
;	COMDAT _CTA2?AVbad_cast@std@@
xdata$x	SEGMENT
_CTA2?AVbad_cast@std@@ DD 02H
	DD	imagerel _CT??_R0?AVbad_cast@std@@@824
	DD	imagerel _CT??_R0?AVexception@std@@@824
xdata$x	ENDS
;	COMDAT _TI2?AVbad_cast@std@@
xdata$x	SEGMENT
_TI2?AVbad_cast@std@@ DD 00H
	DD	imagerel ??1bad_cast@std@@UEAA@XZ
	DD	00H
	DD	imagerel _CTA2?AVbad_cast@std@@
xdata$x	ENDS
;	COMDAT ??_C@_0BA@JFNIOLAK@string?5too?5long?$AA@
CONST	SEGMENT
??_C@_0BA@JFNIOLAK@string?5too?5long?$AA@ DB 'string too long', 00H ; `string'
CONST	ENDS
;	COMDAT ??_C@_0BI@CFPLBAOH@invalid?5string?5position?$AA@
CONST	SEGMENT
??_C@_0BI@CFPLBAOH@invalid?5string?5position?$AA@ DB 'invalid string posi'
	DB	'tion', 00H					; `string'
CONST	ENDS
;	COMDAT ??_C@_02OOPEBDOJ@pP?$AA@
CONST	SEGMENT
??_C@_02OOPEBDOJ@pP?$AA@ DB 'pP', 00H			; `string'
CONST	ENDS
;	COMDAT ??_C@_02MDKMJEGG@eE?$AA@
CONST	SEGMENT
??_C@_02MDKMJEGG@eE?$AA@ DB 'eE', 00H			; `string'
CONST	ENDS
;	COMDAT ??_C@_0BD@OLBABOEK@vector?$DMT?$DO?5too?5long?$AA@
CONST	SEGMENT
??_C@_0BD@OLBABOEK@vector?$DMT?$DO?5too?5long?$AA@ DB 'vector<T> too long'
	DB	00H						; `string'
CONST	ENDS
;	COMDAT ??_7?$numpunct@D@std@@6B@
CONST	SEGMENT
??_7?$numpunct@D@std@@6B@ DQ FLAT:??_R4?$numpunct@D@std@@6B@ ; std::numpunct<char>::`vftable'
	DQ	FLAT:??_E?$numpunct@D@std@@MEAAPEAXI@Z
	DQ	FLAT:?_Incref@facet@locale@std@@UEAAXXZ
	DQ	FLAT:?_Decref@facet@locale@std@@UEAAPEAV_Facet_base@3@XZ
	DQ	FLAT:?do_decimal_point@?$numpunct@D@std@@MEBADXZ
	DQ	FLAT:?do_thousands_sep@?$numpunct@D@std@@MEBADXZ
	DQ	FLAT:?do_grouping@?$numpunct@D@std@@MEBA?AV?$basic_string@DU?$char_traits@D@std@@V?$allocator@D@2@@2@XZ
	DQ	FLAT:?do_falsename@?$numpunct@D@std@@MEBA?AV?$basic_string@DU?$char_traits@D@std@@V?$allocator@D@2@@2@XZ
	DQ	FLAT:?do_truename@?$numpunct@D@std@@MEBA?AV?$basic_string@DU?$char_traits@D@std@@V?$allocator@D@2@@2@XZ
CONST	ENDS
;	COMDAT ??_C@_02BBAHNLBA@?$CFp?$AA@
CONST	SEGMENT
??_C@_02BBAHNLBA@?$CFp?$AA@ DB '%p', 00H		; `string'
CONST	ENDS
;	COMDAT ??_7?$num_put@DV?$ostreambuf_iterator@DU?$char_traits@D@std@@@std@@@std@@6B@
CONST	SEGMENT
??_7?$num_put@DV?$ostreambuf_iterator@DU?$char_traits@D@std@@@std@@@std@@6B@ DQ FLAT:??_R4?$num_put@DV?$ostreambuf_iterator@DU?$char_traits@D@std@@@std@@@std@@6B@ ; std::num_put<char,std::ostreambuf_iterator<char,std::char_traits<char> > >::`vftable'
	DQ	FLAT:??_E?$num_put@DV?$ostreambuf_iterator@DU?$char_traits@D@std@@@std@@@std@@MEAAPEAXI@Z
	DQ	FLAT:?_Incref@facet@locale@std@@UEAAXXZ
	DQ	FLAT:?_Decref@facet@locale@std@@UEAAPEAV_Facet_base@3@XZ
	DQ	FLAT:?do_put@?$num_put@DV?$ostreambuf_iterator@DU?$char_traits@D@std@@@std@@@std@@MEBA?AV?$ostreambuf_iterator@DU?$char_traits@D@std@@@2@V32@AEAVios_base@2@DPEBX@Z
	DQ	FLAT:?do_put@?$num_put@DV?$ostreambuf_iterator@DU?$char_traits@D@std@@@std@@@std@@MEBA?AV?$ostreambuf_iterator@DU?$char_traits@D@std@@@2@V32@AEAVios_base@2@DO@Z
	DQ	FLAT:?do_put@?$num_put@DV?$ostreambuf_iterator@DU?$char_traits@D@std@@@std@@@std@@MEBA?AV?$ostreambuf_iterator@DU?$char_traits@D@std@@@2@V32@AEAVios_base@2@DN@Z
	DQ	FLAT:?do_put@?$num_put@DV?$ostreambuf_iterator@DU?$char_traits@D@std@@@std@@@std@@MEBA?AV?$ostreambuf_iterator@DU?$char_traits@D@std@@@2@V32@AEAVios_base@2@D_K@Z
	DQ	FLAT:?do_put@?$num_put@DV?$ostreambuf_iterator@DU?$char_traits@D@std@@@std@@@std@@MEBA?AV?$ostreambuf_iterator@DU?$char_traits@D@std@@@2@V32@AEAVios_base@2@D_J@Z
	DQ	FLAT:?do_put@?$num_put@DV?$ostreambuf_iterator@DU?$char_traits@D@std@@@std@@@std@@MEBA?AV?$ostreambuf_iterator@DU?$char_traits@D@std@@@2@V32@AEAVios_base@2@DK@Z
	DQ	FLAT:?do_put@?$num_put@DV?$ostreambuf_iterator@DU?$char_traits@D@std@@@std@@@std@@MEBA?AV?$ostreambuf_iterator@DU?$char_traits@D@std@@@2@V32@AEAVios_base@2@DJ@Z
	DQ	FLAT:?do_put@?$num_put@DV?$ostreambuf_iterator@DU?$char_traits@D@std@@@std@@@std@@MEBA?AV?$ostreambuf_iterator@DU?$char_traits@D@std@@@2@V32@AEAVios_base@2@D_N@Z
CONST	ENDS
;	COMDAT ??_C@_06LADKOPEH@error?6?$AA@
CONST	SEGMENT
??_C@_06LADKOPEH@error?6?$AA@ DB 'error', 0aH, 00H	; `string'
CONST	ENDS
;	COMDAT ??_C@_02LBACNBCJ@b?6?$AA@
CONST	SEGMENT
??_C@_02LBACNBCJ@b?6?$AA@ DB 'b', 0aH, 00H		; `string'
CONST	ENDS
;	COMDAT ??_7_UnrealizedChore@details@Concurrency@@6B@
CONST	SEGMENT
??_7_UnrealizedChore@details@Concurrency@@6B@ DQ FLAT:??_R4_UnrealizedChore@details@Concurrency@@6B@ ; Concurrency::details::_UnrealizedChore::`vftable'
	DQ	FLAT:??_E_UnrealizedChore@details@Concurrency@@UEAAPEAXI@Z
CONST	ENDS
;	COMDAT ??_7_Chore@details@Concurrency@@6B@
CONST	SEGMENT
??_7_Chore@details@Concurrency@@6B@ DQ FLAT:??_R4_Chore@details@Concurrency@@6B@ ; Concurrency::details::_Chore::`vftable'
	DQ	FLAT:??_E_Chore@details@Concurrency@@MEAAPEAXI@Z
CONST	ENDS
;	COMDAT ??_C@_0BF@OOHOMBOF@ios_base?3?3eofbit?5set?$AA@
CONST	SEGMENT
??_C@_0BF@OOHOMBOF@ios_base?3?3eofbit?5set?$AA@ DB 'ios_base::eofbit set', 00H ; `string'
CONST	ENDS
;	COMDAT ??_C@_0BG@FMKFHCIL@ios_base?3?3failbit?5set?$AA@
CONST	SEGMENT
??_C@_0BG@FMKFHCIL@ios_base?3?3failbit?5set?$AA@ DB 'ios_base::failbit se'
	DB	't', 00H					; `string'
CONST	ENDS
;	COMDAT ??_C@_0BF@PHHKMMFD@ios_base?3?3badbit?5set?$AA@
CONST	SEGMENT
??_C@_0BF@PHHKMMFD@ios_base?3?3badbit?5set?$AA@ DB 'ios_base::badbit set', 00H ; `string'
CONST	ENDS
;	COMDAT _CT??_R0?AV_System_error@std@@@840
xdata$x	SEGMENT
_CT??_R0?AV_System_error@std@@@840 DD 00H
	DD	imagerel ??_R0?AV_System_error@std@@@8
	DD	00H
	DD	0ffffffffH
	ORG $+4
	DD	028H
	DD	imagerel ??0_System_error@std@@QEAA@AEBV01@@Z
xdata$x	ENDS
;	COMDAT ??_R0?AV_System_error@std@@@8
data$r	SEGMENT
??_R0?AV_System_error@std@@@8 DQ FLAT:??_7type_info@@6B@ ; std::_System_error `RTTI Type Descriptor'
	DQ	0000000000000000H
	DB	'.?AV_System_error@std@@', 00H
data$r	ENDS
;	COMDAT _CT??_R0?AVsystem_error@std@@@840
xdata$x	SEGMENT
_CT??_R0?AVsystem_error@std@@@840 DD 00H
	DD	imagerel ??_R0?AVsystem_error@std@@@8
	DD	00H
	DD	0ffffffffH
	ORG $+4
	DD	028H
	DD	imagerel ??0system_error@std@@QEAA@AEBV01@@Z
xdata$x	ENDS
;	COMDAT ??_R0?AVsystem_error@std@@@8
data$r	SEGMENT
??_R0?AVsystem_error@std@@@8 DQ FLAT:??_7type_info@@6B@	; std::system_error `RTTI Type Descriptor'
	DQ	0000000000000000H
	DB	'.?AVsystem_error@std@@', 00H
data$r	ENDS
;	COMDAT _CT??_R0?AVfailure@ios_base@std@@@840
xdata$x	SEGMENT
_CT??_R0?AVfailure@ios_base@std@@@840 DD 00H
	DD	imagerel ??_R0?AVfailure@ios_base@std@@@8
	DD	00H
	DD	0ffffffffH
	ORG $+4
	DD	028H
	DD	imagerel ??0failure@ios_base@std@@QEAA@AEBV012@@Z
xdata$x	ENDS
;	COMDAT ??_R0?AVfailure@ios_base@std@@@8
data$r	SEGMENT
??_R0?AVfailure@ios_base@std@@@8 DQ FLAT:??_7type_info@@6B@ ; std::ios_base::failure `RTTI Type Descriptor'
	DQ	0000000000000000H
	DB	'.?AVfailure@ios_base@std@@', 00H
data$r	ENDS
;	COMDAT _CTA5?AVfailure@ios_base@std@@
xdata$x	SEGMENT
_CTA5?AVfailure@ios_base@std@@ DD 05H
	DD	imagerel _CT??_R0?AVfailure@ios_base@std@@@840
	DD	imagerel _CT??_R0?AVsystem_error@std@@@840
	DD	imagerel _CT??_R0?AV_System_error@std@@@840
	DD	imagerel _CT??_R0?AVruntime_error@std@@@824
	DD	imagerel _CT??_R0?AVexception@std@@@824
xdata$x	ENDS
;	COMDAT _TI5?AVfailure@ios_base@std@@
xdata$x	SEGMENT
_TI5?AVfailure@ios_base@std@@ DD 00H
	DD	imagerel ??1failure@ios_base@std@@UEAA@XZ
	DD	00H
	DD	imagerel _CTA5?AVfailure@ios_base@std@@
xdata$x	ENDS
;	COMDAT ??_7failure@ios_base@std@@6B@
CONST	SEGMENT
??_7failure@ios_base@std@@6B@ DQ FLAT:??_R4failure@ios_base@std@@6B@ ; std::ios_base::failure::`vftable'
	DQ	FLAT:??_Efailure@ios_base@std@@UEAAPEAXI@Z
	DQ	FLAT:?what@exception@std@@UEBAPEBDXZ
CONST	ENDS
;	COMDAT ??_C@_0BG@PADBLCHM@iostream?5stream?5error?$AA@
CONST	SEGMENT
??_C@_0BG@PADBLCHM@iostream?5stream?5error?$AA@ DB 'iostream stream error'
	DB	00H						; `string'
CONST	ENDS
;	COMDAT ??_C@_08LLGCOLLL@iostream?$AA@
CONST	SEGMENT
??_C@_08LLGCOLLL@iostream?$AA@ DB 'iostream', 00H	; `string'
CONST	ENDS
;	COMDAT ??_7_Iostream_error_category@std@@6B@
CONST	SEGMENT
??_7_Iostream_error_category@std@@6B@ DQ FLAT:??_R4_Iostream_error_category@std@@6B@ ; std::_Iostream_error_category::`vftable'
	DQ	FLAT:??_E_Iostream_error_category@std@@UEAAPEAXI@Z
	DQ	FLAT:?name@_Iostream_error_category@std@@UEBAPEBDXZ
	DQ	FLAT:?message@_Iostream_error_category@std@@UEBA?AV?$basic_string@DU?$char_traits@D@std@@V?$allocator@D@2@@2@H@Z
	DQ	FLAT:?default_error_condition@error_category@std@@UEBA?AVerror_condition@2@H@Z
	DQ	FLAT:?equivalent@error_category@std@@UEBA_NAEBVerror_code@2@H@Z
	DQ	FLAT:?equivalent@error_category@std@@UEBA_NHAEBVerror_condition@2@@Z
CONST	ENDS
;	COMDAT ??_C@_07DCLBNMLN@generic?$AA@
CONST	SEGMENT
??_C@_07DCLBNMLN@generic?$AA@ DB 'generic', 00H		; `string'
CONST	ENDS
;	COMDAT ??_7_Generic_error_category@std@@6B@
CONST	SEGMENT
??_7_Generic_error_category@std@@6B@ DQ FLAT:??_R4_Generic_error_category@std@@6B@ ; std::_Generic_error_category::`vftable'
	DQ	FLAT:??_E_Generic_error_category@std@@UEAAPEAXI@Z
	DQ	FLAT:?name@_Generic_error_category@std@@UEBAPEBDXZ
	DQ	FLAT:?message@_Generic_error_category@std@@UEBA?AV?$basic_string@DU?$char_traits@D@std@@V?$allocator@D@2@@2@H@Z
	DQ	FLAT:?default_error_condition@error_category@std@@UEBA?AVerror_condition@2@H@Z
	DQ	FLAT:?equivalent@error_category@std@@UEBA_NAEBVerror_code@2@H@Z
	DQ	FLAT:?equivalent@error_category@std@@UEBA_NHAEBVerror_condition@2@@Z
CONST	ENDS
;	COMDAT ??_7system_error@std@@6B@
CONST	SEGMENT
??_7system_error@std@@6B@ DQ FLAT:??_R4system_error@std@@6B@ ; std::system_error::`vftable'
	DQ	FLAT:??_Esystem_error@std@@UEAAPEAXI@Z
	DQ	FLAT:?what@exception@std@@UEBAPEBDXZ
CONST	ENDS
;	COMDAT ??_C@_02LMMGGCAJ@?3?5?$AA@
CONST	SEGMENT
??_C@_02LMMGGCAJ@?3?5?$AA@ DB ': ', 00H			; `string'
CONST	ENDS
;	COMDAT ??_7_System_error@std@@6B@
CONST	SEGMENT
??_7_System_error@std@@6B@ DQ FLAT:??_R4_System_error@std@@6B@ ; std::_System_error::`vftable'
	DQ	FLAT:??_E_System_error@std@@UEAAPEAXI@Z
	DQ	FLAT:?what@exception@std@@UEBAPEBDXZ
CONST	ENDS
;	COMDAT ??_7error_category@std@@6B@
CONST	SEGMENT
??_7error_category@std@@6B@ DQ FLAT:??_R4error_category@std@@6B@ ; std::error_category::`vftable'
	DQ	FLAT:??_Eerror_category@std@@UEAAPEAXI@Z
	DQ	FLAT:_purecall
	DQ	FLAT:_purecall
	DQ	FLAT:?default_error_condition@error_category@std@@UEBA?AVerror_condition@2@H@Z
	DQ	FLAT:?equivalent@error_category@std@@UEBA_NAEBVerror_code@2@H@Z
	DQ	FLAT:?equivalent@error_category@std@@UEBA_NHAEBVerror_condition@2@@Z
CONST	ENDS
;	COMDAT ??_7?$ctype@D@std@@6B@
CONST	SEGMENT
??_7?$ctype@D@std@@6B@ DQ FLAT:??_R4?$ctype@D@std@@6B@	; std::ctype<char>::`vftable'
	DQ	FLAT:??_E?$ctype@D@std@@MEAAPEAXI@Z
	DQ	FLAT:?_Incref@facet@locale@std@@UEAAXXZ
	DQ	FLAT:?_Decref@facet@locale@std@@UEAAPEAV_Facet_base@3@XZ
	DQ	FLAT:?do_tolower@?$ctype@D@std@@MEBAPEBDPEADPEBD@Z
	DQ	FLAT:?do_tolower@?$ctype@D@std@@MEBADD@Z
	DQ	FLAT:?do_toupper@?$ctype@D@std@@MEBAPEBDPEADPEBD@Z
	DQ	FLAT:?do_toupper@?$ctype@D@std@@MEBADD@Z
	DQ	FLAT:?do_widen@?$ctype@D@std@@MEBAPEBDPEBD0PEAD@Z
