; Listing generated by Microsoft (R) Optimizing Compiler Version 19.10.24629.0 

include listing.inc


PUBLIC	??_C@_0BC@EOODALEL@Unknown?5exception?$AA@	; `string'
PUBLIC	??_C@_08EPJLHIJG@bad?5cast?$AA@			; `string'
PUBLIC	??_C@_0BA@ELKIONDK@bad?5locale?5name?$AA@	; `string'
PUBLIC	??_C@_00CNPNBAHC@?$AA@				; `string'
PUBLIC	??_C@_02LMMGGCAJ@?3?5?$AA@			; `string'
PUBLIC	??_C@_07DCLBNMLN@generic?$AA@			; `string'
PUBLIC	??_C@_08LLGCOLLL@iostream?$AA@			; `string'
PUBLIC	??_C@_0BG@PADBLCHM@iostream?5stream?5error?$AA@	; `string'
PUBLIC	??_C@_0BF@PHHKMMFD@ios_base?3?3badbit?5set?$AA@	; `string'
PUBLIC	??_C@_0BG@FMKFHCIL@ios_base?3?3failbit?5set?$AA@ ; `string'
PUBLIC	??_C@_0BF@OOHOMBOF@ios_base?3?3eofbit?5set?$AA@	; `string'
PUBLIC	??_C@_03LPPJIELD@?$CJ?3?5?$AA@			; `string'
PUBLIC	??_C@_02KEGNLNML@?0?5?$AA@			; `string'
PUBLIC	??_C@_01ODHLEDKK@?$CI?$AA@			; `string'
PUBLIC	??_C@_0DC@FDEAEJPJ@Result?3?3error?$CI?$CJ?5called?5on?5a?5resu@ ; `string'
PUBLIC	??_C@_0CP@CCOBECKN@Result?3?3item?$CI?$CJ?5called?5on?5a?5resul@ ; `string'
PUBLIC	??_C@_0BI@LDAJLFNC@End?5of?5stream?5expected?4?$AA@ ; `string'
PUBLIC	??_C@_0P@DIBLOLJI@End?5of?5stream?4?$AA@	; `string'
PUBLIC	??_C@_0BA@JFNIOLAK@string?5too?5long?$AA@	; `string'
PUBLIC	??_C@_0BI@CFPLBAOH@invalid?5string?5position?$AA@ ; `string'
PUBLIC	??_R0?AVfailure@ios_base@std@@@8		; std::ios_base::failure `RTTI Type Descriptor'
PUBLIC	??_R0?AVruntime_error@std@@@8			; std::runtime_error `RTTI Type Descriptor'
PUBLIC	??_R4exception@std@@6B@				; std::exception::`RTTI Complete Object Locator'
PUBLIC	??_R2system_error@std@@8			; std::system_error::`RTTI Base Class Array'
PUBLIC	??_R4facet@locale@std@@6B@			; std::locale::facet::`RTTI Complete Object Locator'
PUBLIC	??_R1A@?0A@EA@system_error@std@@8		; std::system_error::`RTTI Base Class Descriptor at (0,-1,0,64)'
PUBLIC	??_R3?$ctype@D@std@@8				; std::ctype<char>::`RTTI Class Hierarchy Descriptor'
PUBLIC	??_R1A@?0A@EA@_Iostream_error_category@std@@8	; std::_Iostream_error_category::`RTTI Base Class Descriptor at (0,-1,0,64)'
PUBLIC	_CT??_R0?AVexception@std@@@824
PUBLIC	??_7error_category@std@@6B@			; std::error_category::`vftable'
PUBLIC	??_R4runtime_error@std@@6B@			; std::runtime_error::`RTTI Complete Object Locator'
PUBLIC	??_R4_System_error@std@@6B@			; std::_System_error::`RTTI Complete Object Locator'
PUBLIC	??_R3_Facet_base@std@@8				; std::_Facet_base::`RTTI Class Hierarchy Descriptor'
PUBLIC	??_R2?$ctype@_W@std@@8				; std::ctype<wchar_t>::`RTTI Base Class Array'
PUBLIC	??_R1A@?0A@EA@bad_cast@std@@8			; std::bad_cast::`RTTI Base Class Descriptor at (0,-1,0,64)'
PUBLIC	??_R4_Generic_error_category@std@@6B@		; std::_Generic_error_category::`RTTI Complete Object Locator'
PUBLIC	??_7_Generic_error_category@std@@6B@		; std::_Generic_error_category::`vftable'
PUBLIC	_CT??_R0?AVfailure@ios_base@std@@@840
PUBLIC	??_7_Iostream_error_category@std@@6B@		; std::_Iostream_error_category::`vftable'
PUBLIC	??_R0?AVerror_category@std@@@8			; std::error_category `RTTI Type Descriptor'
PUBLIC	??_R0?AV?$ctype@D@std@@@8			; std::ctype<char> `RTTI Type Descriptor'
PUBLIC	??_R3_Crt_new_delete@std@@8			; std::_Crt_new_delete::`RTTI Class Hierarchy Descriptor'
PUBLIC	??_R1A@?0A@EA@runtime_error@std@@8		; std::runtime_error::`RTTI Base Class Descriptor at (0,-1,0,64)'
PUBLIC	??_R2_System_error@std@@8			; std::_System_error::`RTTI Base Class Array'
PUBLIC	??_R0?AVsystem_error@std@@@8			; std::system_error `RTTI Type Descriptor'
PUBLIC	??_R1A@?0A@EA@exception@std@@8			; std::exception::`RTTI Base Class Descriptor at (0,-1,0,64)'
PUBLIC	??_R4_Iostream_error_category@std@@6B@		; std::_Iostream_error_category::`RTTI Complete Object Locator'
PUBLIC	??_R4system_error@std@@6B@			; std::system_error::`RTTI Complete Object Locator'
PUBLIC	??_R1A@?0A@EA@_Generic_error_category@std@@8	; std::_Generic_error_category::`RTTI Base Class Descriptor at (0,-1,0,64)'
PUBLIC	??_R3?$ctype@_W@std@@8				; std::ctype<wchar_t>::`RTTI Class Hierarchy Descriptor'
PUBLIC	??_R1A@?0A@EA@_Facet_base@std@@8		; std::_Facet_base::`RTTI Base Class Descriptor at (0,-1,0,64)'
PUBLIC	??_R0?AV_Facet_base@std@@@8			; std::_Facet_base `RTTI Type Descriptor'
PUBLIC	??_7ctype_base@std@@6B@				; std::ctype_base::`vftable'
PUBLIC	??_R3_System_error@std@@8			; std::_System_error::`RTTI Class Hierarchy Descriptor'
PUBLIC	??_R0?AV_Generic_error_category@std@@@8		; std::_Generic_error_category `RTTI Type Descriptor'
PUBLIC	??_R3_Iostream_error_category@std@@8		; std::_Iostream_error_category::`RTTI Class Hierarchy Descriptor'
PUBLIC	??_R0?AU_Crt_new_delete@std@@@8			; std::_Crt_new_delete `RTTI Type Descriptor'
PUBLIC	??_R17?0A@EA@_Crt_new_delete@std@@8		; std::_Crt_new_delete::`RTTI Base Class Descriptor at (8,-1,0,64)'
PUBLIC	??_R2bad_cast@std@@8				; std::bad_cast::`RTTI Base Class Array'
PUBLIC	??_R2exception@std@@8				; std::exception::`RTTI Base Class Array'
PUBLIC	??_R4failure@ios_base@std@@6B@			; std::ios_base::failure::`RTTI Complete Object Locator'
PUBLIC	??_7bad_cast@std@@6B@				; std::bad_cast::`vftable'
PUBLIC	??_R1A@?0A@EA@?$ctype@_W@std@@8			; std::ctype<wchar_t>::`RTTI Base Class Descriptor at (0,-1,0,64)'
PUBLIC	_TI2?AVruntime_error@std@@
PUBLIC	??_R3_Generic_error_category@std@@8		; std::_Generic_error_category::`RTTI Class Hierarchy Descriptor'
PUBLIC	??_R2_Iostream_error_category@std@@8		; std::_Iostream_error_category::`RTTI Base Class Array'
PUBLIC	_CT??_R0?AVruntime_error@std@@@824
PUBLIC	_CT??_R0?AVbad_cast@std@@@824
PUBLIC	??_R2error_category@std@@8			; std::error_category::`RTTI Base Class Array'
PUBLIC	??_R1A@?0A@EA@facet@locale@std@@8		; std::locale::facet::`RTTI Base Class Descriptor at (0,-1,0,64)'
PUBLIC	??_R0?AV_Iostream_error_category@std@@@8	; std::_Iostream_error_category `RTTI Type Descriptor'
PUBLIC	??_R0?AVbad_cast@std@@@8			; std::bad_cast `RTTI Type Descriptor'
PUBLIC	??_7?$ctype@D@std@@6B@				; std::ctype<char>::`vftable'
PUBLIC	_CTA2?AVbad_cast@std@@
PUBLIC	??_R2failure@ios_base@std@@8			; std::ios_base::failure::`RTTI Base Class Array'
PUBLIC	??_R4error_category@std@@6B@			; std::error_category::`RTTI Complete Object Locator'
PUBLIC	??_R0?AUctype_base@std@@@8			; std::ctype_base `RTTI Type Descriptor'
PUBLIC	??_R3failure@ios_base@std@@8			; std::ios_base::failure::`RTTI Class Hierarchy Descriptor'
PUBLIC	??_7facet@locale@std@@6B@			; std::locale::facet::`vftable'
PUBLIC	??_7exception@std@@6B@				; std::exception::`vftable'
PUBLIC	_CTA5?AVfailure@ios_base@std@@
PUBLIC	_TI2?AVbad_cast@std@@
PUBLIC	??_R2?$ctype@D@std@@8				; std::ctype<char>::`RTTI Base Class Array'
PUBLIC	??_R3exception@std@@8				; std::exception::`RTTI Class Hierarchy Descriptor'
PUBLIC	??_7runtime_error@std@@6B@			; std::runtime_error::`vftable'
PUBLIC	??_7_System_error@std@@6B@			; std::_System_error::`vftable'
PUBLIC	??_R1A@?0A@EA@failure@ios_base@std@@8		; std::ios_base::failure::`RTTI Base Class Descriptor at (0,-1,0,64)'
PUBLIC	??_7?$ctype@_W@std@@6B@				; std::ctype<wchar_t>::`vftable'
PUBLIC	??_R0?AVfacet@locale@std@@@8			; std::locale::facet `RTTI Type Descriptor'
PUBLIC	??_R3facet@locale@std@@8			; std::locale::facet::`RTTI Class Hierarchy Descriptor'
PUBLIC	??_R3ctype_base@std@@8				; std::ctype_base::`RTTI Class Hierarchy Descriptor'
PUBLIC	?npos@?$basic_string@DU?$char_traits@D@std@@V?$allocator@D@2@@std@@2_KB ; std::basic_string<char,std::char_traits<char>,std::allocator<char> >::npos
PUBLIC	?_Psave@?$_Facetptr@V?$ctype@_W@std@@@std@@2PEBVfacet@locale@2@EB ; std::_Facetptr<std::ctype<wchar_t> >::_Psave
PUBLIC	?_Psave@?$_Facetptr@V?$ctype@D@std@@@std@@2PEBVfacet@locale@2@EB ; std::_Facetptr<std::ctype<char> >::_Psave
PUBLIC	??_R2_Generic_error_category@std@@8		; std::_Generic_error_category::`RTTI Base Class Array'
PUBLIC	??_R1A@?0A@EA@_System_error@std@@8		; std::_System_error::`RTTI Base Class Descriptor at (0,-1,0,64)'
PUBLIC	??_R3bad_cast@std@@8				; std::bad_cast::`RTTI Class Hierarchy Descriptor'
PUBLIC	??_R3error_category@std@@8			; std::error_category::`RTTI Class Hierarchy Descriptor'
PUBLIC	??_R4ctype_base@std@@6B@			; std::ctype_base::`RTTI Complete Object Locator'
PUBLIC	??_R4bad_cast@std@@6B@				; std::bad_cast::`RTTI Complete Object Locator'
PUBLIC	??_R1A@?0A@EA@_Crt_new_delete@std@@8		; std::_Crt_new_delete::`RTTI Base Class Descriptor at (0,-1,0,64)'
PUBLIC	??_R4_Facet_base@std@@6B@			; std::_Facet_base::`RTTI Complete Object Locator'
PUBLIC	_CTA2?AVruntime_error@std@@
PUBLIC	??_R2runtime_error@std@@8			; std::runtime_error::`RTTI Base Class Array'
PUBLIC	_CT??_R0?AV_System_error@std@@@840
PUBLIC	??_7_Facet_base@std@@6B@			; std::_Facet_base::`vftable'
PUBLIC	_CT??_R0?AVsystem_error@std@@@840
PUBLIC	??_R1A@?0A@EA@ctype_base@std@@8			; std::ctype_base::`RTTI Base Class Descriptor at (0,-1,0,64)'
PUBLIC	??_R0?AV_System_error@std@@@8			; std::_System_error `RTTI Type Descriptor'
PUBLIC	??_R2_Crt_new_delete@std@@8			; std::_Crt_new_delete::`RTTI Base Class Array'
PUBLIC	??_R0?AV?$ctype@_W@std@@@8			; std::ctype<wchar_t> `RTTI Type Descriptor'
PUBLIC	??_R1A@?0A@EA@?$ctype@D@std@@8			; std::ctype<char>::`RTTI Base Class Descriptor at (0,-1,0,64)'
PUBLIC	_TI5?AVfailure@ios_base@std@@
PUBLIC	??_R3system_error@std@@8			; std::system_error::`RTTI Class Hierarchy Descriptor'
PUBLIC	??_R2_Facet_base@std@@8				; std::_Facet_base::`RTTI Base Class Array'
PUBLIC	??_R2facet@locale@std@@8			; std::locale::facet::`RTTI Base Class Array'
PUBLIC	??_R0?AVexception@std@@@8			; std::exception `RTTI Type Descriptor'
PUBLIC	??_R4?$ctype@D@std@@6B@				; std::ctype<char>::`RTTI Complete Object Locator'
PUBLIC	??_7system_error@std@@6B@			; std::system_error::`vftable'
PUBLIC	??_R4?$ctype@_W@std@@6B@			; std::ctype<wchar_t>::`RTTI Complete Object Locator'
PUBLIC	??_R3runtime_error@std@@8			; std::runtime_error::`RTTI Class Hierarchy Descriptor'
PUBLIC	??_R2ctype_base@std@@8				; std::ctype_base::`RTTI Base Class Array'
PUBLIC	??_7failure@ios_base@std@@6B@			; std::ios_base::failure::`vftable'
PUBLIC	??_R1A@?0A@EA@error_category@std@@8		; std::error_category::`RTTI Base Class Descriptor at (0,-1,0,64)'
EXTRN	_invalid_parameter_noinfo_noreturn:PROC
EXTRN	??_7type_info@@6B@:BYTE				; type_info::`vftable'
EXTRN	__std_terminate:PROC
EXTRN	free:PROC
EXTRN	_Towupper:PROC
EXTRN	_Wcrtomb:PROC
EXTRN	_Toupper:PROC
EXTRN	_Init_thread_abort:PROC
EXTRN	_Getwctypes:PROC
EXTRN	_Getcvt:PROC
EXTRN	_Init_thread_header:PROC
EXTRN	_purecall:PROC
EXTRN	_Tolower:PROC
EXTRN	??3@YAXPEAX_K@Z:PROC				; operator delete
EXTRN	??3@YAXPEAX@Z:PROC				; operator delete
EXTRN	_Getctype:PROC
EXTRN	_Towlower:PROC
EXTRN	atexit:PROC
EXTRN	__std_exception_copy:PROC
EXTRN	_Init_thread_footer:PROC
EXTRN	_Getwctype:PROC
EXTRN	?_Syserror_map@std@@YAPEBDH@Z:PROC		; std::_Syserror_map
EXTRN	?_Xlength_error@std@@YAXPEBD@Z:PROC		; std::_Xlength_error
EXTRN	?id@?$ctype@D@std@@2V0locale@2@A:QWORD		; std::ctype<char>::id
EXTRN	?_Facet_Register@std@@YAXPEAV_Facet_base@1@@Z:PROC ; std::_Facet_Register
EXTRN	?cerr@std@@3V?$basic_ostream@DU?$char_traits@D@std@@@1@A:BYTE ; std::cerr
EXTRN	?_Xout_of_range@std@@YAXPEBD@Z:PROC		; std::_Xout_of_range
EXTRN	?_Id_cnt@id@locale@std@@0HA:DWORD		; std::locale::id::_Id_cnt
EXTRN	?_Locinfo_ctor@_Locinfo@std@@SAXPEAV12@PEBD@Z:PROC ; std::_Locinfo::_Locinfo_ctor
EXTRN	?_Locinfo_dtor@_Locinfo@std@@SAXPEAV12@@Z:PROC	; std::_Locinfo::_Locinfo_dtor
EXTRN	?id@?$ctype@_W@std@@2V0locale@2@A:QWORD		; std::ctype<wchar_t>::id
EXTRN	?wcout@std@@3V?$basic_ostream@_WU?$char_traits@_W@std@@@1@A:BYTE ; std::wcout
EXTRN	?_Xbad_alloc@std@@YAXXZ:PROC			; std::_Xbad_alloc
EXTRN	?uncaught_exception@std@@YA_NXZ:PROC		; std::uncaught_exception
EXTRN	?_Getgloballocale@locale@std@@CAPEAV_Locimp@12@XZ:PROC ; std::locale::_Getgloballocale
EXTRN	?cout@std@@3V?$basic_ostream@DU?$char_traits@D@std@@@1@A:BYTE ; std::cout
EXTRN	??0_Lockit@std@@QEAA@H@Z:PROC			; std::_Lockit::_Lockit
EXTRN	??1_Lockit@std@@QEAA@XZ:PROC			; std::_Lockit::~_Lockit
EXTRN	??2@YAPEAX_K@Z:PROC				; operator new
EXTRN	_Init_thread_epoch:DWORD
EXTRN	memmove:PROC
EXTRN	_Mbrtowc:PROC
EXTRN	??_V@YAXPEAX@Z:PROC				; operator delete[]
EXTRN	__std_exception_destroy:PROC
EXTRN	__security_check_cookie:PROC
EXTRN	__CxxFrameHandler3:PROC
;	COMDAT ?_Psave@?$_Facetptr@V?$ctype@_W@std@@@std@@2PEBVfacet@locale@2@EB
_BSS	SEGMENT
?_Psave@?$_Facetptr@V?$ctype@_W@std@@@std@@2PEBVfacet@locale@2@EB DQ 01H DUP (?) ; std::_Facetptr<std::ctype<wchar_t> >::_Psave
_BSS	ENDS
;	COMDAT ?_Psave@?$_Facetptr@V?$ctype@D@std@@@std@@2PEBVfacet@locale@2@EB
_BSS	SEGMENT
?_Psave@?$_Facetptr@V?$ctype@D@std@@@std@@2PEBVfacet@locale@2@EB DQ 01H DUP (?) ; std::_Facetptr<std::ctype<char> >::_Psave
_BSS	ENDS
;	COMDAT ??_R1A@?0A@EA@error_category@std@@8
rdata$r	SEGMENT
??_R1A@?0A@EA@error_category@std@@8 DD imagerel ??_R0?AVerror_category@std@@@8 ; std::error_category::`RTTI Base Class Descriptor at (0,-1,0,64)'
	DD	00H
	DD	00H
	DD	0ffffffffH
	DD	00H
	DD	040H
	DD	imagerel ??_R3error_category@std@@8
rdata$r	ENDS
;	COMDAT ??_7failure@ios_base@std@@6B@
CONST	SEGMENT
??_7failure@ios_base@std@@6B@ DQ FLAT:??_R4failure@ios_base@std@@6B@ ; std::ios_base::failure::`vftable'
	DQ	FLAT:??_Efailure@ios_base@std@@UEAAPEAXI@Z
	DQ	FLAT:?what@exception@std@@UEBAPEBDXZ
CONST	ENDS
;	COMDAT ??_R2ctype_base@std@@8
rdata$r	SEGMENT
??_R2ctype_base@std@@8 DD imagerel ??_R1A@?0A@EA@ctype_base@std@@8 ; std::ctype_base::`RTTI Base Class Array'
	DD	imagerel ??_R1A@?0A@EA@facet@locale@std@@8
	DD	imagerel ??_R1A@?0A@EA@_Facet_base@std@@8
	DD	imagerel ??_R17?0A@EA@_Crt_new_delete@std@@8
	ORG $+3
rdata$r	ENDS
;	COMDAT ??_R3runtime_error@std@@8
rdata$r	SEGMENT
??_R3runtime_error@std@@8 DD 00H			; std::runtime_error::`RTTI Class Hierarchy Descriptor'
	DD	00H
	DD	02H
	DD	imagerel ??_R2runtime_error@std@@8
rdata$r	ENDS
;	COMDAT ??_R4?$ctype@_W@std@@6B@
rdata$r	SEGMENT
??_R4?$ctype@_W@std@@6B@ DD 01H				; std::ctype<wchar_t>::`RTTI Complete Object Locator'
	DD	00H
	DD	00H
	DD	imagerel ??_R0?AV?$ctype@_W@std@@@8
	DD	imagerel ??_R3?$ctype@_W@std@@8
	DD	imagerel ??_R4?$ctype@_W@std@@6B@
rdata$r	ENDS
;	COMDAT ??_7system_error@std@@6B@
CONST	SEGMENT
??_7system_error@std@@6B@ DQ FLAT:??_R4system_error@std@@6B@ ; std::system_error::`vftable'
	DQ	FLAT:??_Esystem_error@std@@UEAAPEAXI@Z
	DQ	FLAT:?what@exception@std@@UEBAPEBDXZ
CONST	ENDS
;	COMDAT ??_R4?$ctype@D@std@@6B@
rdata$r	SEGMENT
??_R4?$ctype@D@std@@6B@ DD 01H				; std::ctype<char>::`RTTI Complete Object Locator'
	DD	00H
	DD	00H
	DD	imagerel ??_R0?AV?$ctype@D@std@@@8
	DD	imagerel ??_R3?$ctype@D@std@@8
	DD	imagerel ??_R4?$ctype@D@std@@6B@
rdata$r	ENDS
;	COMDAT ??_R0?AVexception@std@@@8
data$r	SEGMENT
??_R0?AVexception@std@@@8 DQ FLAT:??_7type_info@@6B@	; std::exception `RTTI Type Descriptor'
	DQ	0000000000000000H
	DB	'.?AVexception@std@@', 00H
data$r	ENDS
;	COMDAT ??_R2facet@locale@std@@8
rdata$r	SEGMENT
??_R2facet@locale@std@@8 DD imagerel ??_R1A@?0A@EA@facet@locale@std@@8 ; std::locale::facet::`RTTI Base Class Array'
	DD	imagerel ??_R1A@?0A@EA@_Facet_base@std@@8
	DD	imagerel ??_R17?0A@EA@_Crt_new_delete@std@@8
	ORG $+3
rdata$r	ENDS
;	COMDAT ??_R2_Facet_base@std@@8
rdata$r	SEGMENT
??_R2_Facet_base@std@@8 DD imagerel ??_R1A@?0A@EA@_Facet_base@std@@8 ; std::_Facet_base::`RTTI Base Class Array'
	ORG $+3
rdata$r	ENDS
;	COMDAT ??_R3system_error@std@@8
rdata$r	SEGMENT
??_R3system_error@std@@8 DD 00H				; std::system_error::`RTTI Class Hierarchy Descriptor'
	DD	00H
	DD	04H
	DD	imagerel ??_R2system_error@std@@8
rdata$r	ENDS
;	COMDAT _TI5?AVfailure@ios_base@std@@
xdata$x	SEGMENT
_TI5?AVfailure@ios_base@std@@ DD 00H
	DD	imagerel ??1failure@ios_base@std@@UEAA@XZ
	DD	00H
	DD	imagerel _CTA5?AVfailure@ios_base@std@@
xdata$x	ENDS
;	COMDAT ??_R1A@?0A@EA@?$ctype@D@std@@8
rdata$r	SEGMENT
??_R1A@?0A@EA@?$ctype@D@std@@8 DD imagerel ??_R0?AV?$ctype@D@std@@@8 ; std::ctype<char>::`RTTI Base Class Descriptor at (0,-1,0,64)'
	DD	04H
	DD	00H
	DD	0ffffffffH
	DD	00H
	DD	040H
	DD	imagerel ??_R3?$ctype@D@std@@8
rdata$r	ENDS
;	COMDAT ??_R0?AV?$ctype@_W@std@@@8
data$r	SEGMENT
??_R0?AV?$ctype@_W@std@@@8 DQ FLAT:??_7type_info@@6B@	; std::ctype<wchar_t> `RTTI Type Descriptor'
	DQ	0000000000000000H
	DB	'.?AV?$ctype@_W@std@@', 00H
data$r	ENDS
;	COMDAT ??_R2_Crt_new_delete@std@@8
rdata$r	SEGMENT
??_R2_Crt_new_delete@std@@8 DD imagerel ??_R1A@?0A@EA@_Crt_new_delete@std@@8 ; std::_Crt_new_delete::`RTTI Base Class Array'
	ORG $+3
rdata$r	ENDS
;	COMDAT ??_R0?AV_System_error@std@@@8
data$r	SEGMENT
??_R0?AV_System_error@std@@@8 DQ FLAT:??_7type_info@@6B@ ; std::_System_error `RTTI Type Descriptor'
	DQ	0000000000000000H
	DB	'.?AV_System_error@std@@', 00H
data$r	ENDS
;	COMDAT ??_R1A@?0A@EA@ctype_base@std@@8
rdata$r	SEGMENT
??_R1A@?0A@EA@ctype_base@std@@8 DD imagerel ??_R0?AUctype_base@std@@@8 ; std::ctype_base::`RTTI Base Class Descriptor at (0,-1,0,64)'
	DD	03H
	DD	00H
	DD	0ffffffffH
	DD	00H
	DD	040H
	DD	imagerel ??_R3ctype_base@std@@8
rdata$r	ENDS
;	COMDAT _CT??_R0?AVsystem_error@std@@@840
xdata$x	SEGMENT
_CT??_R0?AVsystem_error@std@@@840 DD 00H
	DD	imagerel ??_R0?AVsystem_error@std@@@8
	DD	00H
	DD	0ffffffffH
	ORG $+4
	DD	028H
	DD	imagerel ??0system_error@std@@QEAA@AEBV01@@Z
xdata$x	ENDS
;	COMDAT ??_7_Facet_base@std@@6B@
CONST	SEGMENT
??_7_Facet_base@std@@6B@ DQ FLAT:??_R4_Facet_base@std@@6B@ ; std::_Facet_base::`vftable'
	DQ	FLAT:??_E_Facet_base@std@@UEAAPEAXI@Z
	DQ	FLAT:_purecall
	DQ	FLAT:_purecall
CONST	ENDS
;	COMDAT _CT??_R0?AV_System_error@std@@@840
xdata$x	SEGMENT
_CT??_R0?AV_System_error@std@@@840 DD 00H
	DD	imagerel ??_R0?AV_System_error@std@@@8
	DD	00H
	DD	0ffffffffH
	ORG $+4
	DD	028H
	DD	imagerel ??0_System_error@std@@QEAA@AEBV01@@Z
xdata$x	ENDS
;	COMDAT ??_R2runtime_error@std@@8
rdata$r	SEGMENT
??_R2runtime_error@std@@8 DD imagerel ??_R1A@?0A@EA@runtime_error@std@@8 ; std::runtime_error::`RTTI Base Class Array'
	DD	imagerel ??_R1A@?0A@EA@exception@std@@8
	ORG $+3
rdata$r	ENDS
;	COMDAT _CTA2?AVruntime_error@std@@
xdata$x	SEGMENT
_CTA2?AVruntime_error@std@@ DD 02H
	DD	imagerel _CT??_R0?AVruntime_error@std@@@824
	DD	imagerel _CT??_R0?AVexception@std@@@824
xdata$x	ENDS
;	COMDAT ??_R4_Facet_base@std@@6B@
rdata$r	SEGMENT
??_R4_Facet_base@std@@6B@ DD 01H			; std::_Facet_base::`RTTI Complete Object Locator'
	DD	00H
	DD	00H
	DD	imagerel ??_R0?AV_Facet_base@std@@@8
	DD	imagerel ??_R3_Facet_base@std@@8
	DD	imagerel ??_R4_Facet_base@std@@6B@
rdata$r	ENDS
;	COMDAT ??_R1A@?0A@EA@_Crt_new_delete@std@@8
rdata$r	SEGMENT
??_R1A@?0A@EA@_Crt_new_delete@std@@8 DD imagerel ??_R0?AU_Crt_new_delete@std@@@8 ; std::_Crt_new_delete::`RTTI Base Class Descriptor at (0,-1,0,64)'
	DD	00H
	DD	00H
	DD	0ffffffffH
	DD	00H
	DD	040H
	DD	imagerel ??_R3_Crt_new_delete@std@@8
rdata$r	ENDS
;	COMDAT ??_R4bad_cast@std@@6B@
rdata$r	SEGMENT
??_R4bad_cast@std@@6B@ DD 01H				; std::bad_cast::`RTTI Complete Object Locator'
	DD	00H
	DD	00H
	DD	imagerel ??_R0?AVbad_cast@std@@@8
	DD	imagerel ??_R3bad_cast@std@@8
	DD	imagerel ??_R4bad_cast@std@@6B@
rdata$r	ENDS
;	COMDAT ??_R4ctype_base@std@@6B@
rdata$r	SEGMENT
??_R4ctype_base@std@@6B@ DD 01H				; std::ctype_base::`RTTI Complete Object Locator'
	DD	00H
	DD	00H
	DD	imagerel ??_R0?AUctype_base@std@@@8
	DD	imagerel ??_R3ctype_base@std@@8
	DD	imagerel ??_R4ctype_base@std@@6B@
rdata$r	ENDS
;	COMDAT ??_R3error_category@std@@8
rdata$r	SEGMENT
??_R3error_category@std@@8 DD 00H			; std::error_category::`RTTI Class Hierarchy Descriptor'
	DD	00H
	DD	01H
	DD	imagerel ??_R2error_category@std@@8
rdata$r	ENDS
;	COMDAT ??_R3bad_cast@std@@8
rdata$r	SEGMENT
??_R3bad_cast@std@@8 DD 00H				; std::bad_cast::`RTTI Class Hierarchy Descriptor'
	DD	00H
	DD	02H
	DD	imagerel ??_R2bad_cast@std@@8
rdata$r	ENDS
;	COMDAT ??_R1A@?0A@EA@_System_error@std@@8
rdata$r	SEGMENT
??_R1A@?0A@EA@_System_error@std@@8 DD imagerel ??_R0?AV_System_error@std@@@8 ; std::_System_error::`RTTI Base Class Descriptor at (0,-1,0,64)'
	DD	02H
	DD	00H
	DD	0ffffffffH
	DD	00H
	DD	040H
	DD	imagerel ??_R3_System_error@std@@8
rdata$r	ENDS
;	COMDAT ??_R2_Generic_error_category@std@@8
rdata$r	SEGMENT
??_R2_Generic_error_category@std@@8 DD imagerel ??_R1A@?0A@EA@_Generic_error_category@std@@8 ; std::_Generic_error_category::`RTTI Base Class Array'
	DD	imagerel ??_R1A@?0A@EA@error_category@std@@8
	ORG $+3
rdata$r	ENDS
;	COMDAT ?npos@?$basic_string@DU?$char_traits@D@std@@V?$allocator@D@2@@std@@2_KB
CONST	SEGMENT
?npos@?$basic_string@DU?$char_traits@D@std@@V?$allocator@D@2@@std@@2_KB DQ ffffffffffffffffH ; std::basic_string<char,std::char_traits<char>,std::allocator<char> >::npos
CONST	ENDS
;	COMDAT ??_R3ctype_base@std@@8
rdata$r	SEGMENT
??_R3ctype_base@std@@8 DD 00H				; std::ctype_base::`RTTI Class Hierarchy Descriptor'
	DD	01H
	DD	04H
	DD	imagerel ??_R2ctype_base@std@@8
rdata$r	ENDS
;	COMDAT ??_R3facet@locale@std@@8
rdata$r	SEGMENT
??_R3facet@locale@std@@8 DD 00H				; std::locale::facet::`RTTI Class Hierarchy Descriptor'
	DD	01H
	DD	03H
	DD	imagerel ??_R2facet@locale@std@@8
rdata$r	ENDS
;	COMDAT ??_R0?AVfacet@locale@std@@@8
data$r	SEGMENT
??_R0?AVfacet@locale@std@@@8 DQ FLAT:??_7type_info@@6B@	; std::locale::facet `RTTI Type Descriptor'
	DQ	0000000000000000H
	DB	'.?AVfacet@locale@std@@', 00H
data$r	ENDS
;	COMDAT ??_7?$ctype@_W@std@@6B@
CONST	SEGMENT
??_7?$ctype@_W@std@@6B@ DQ FLAT:??_R4?$ctype@_W@std@@6B@ ; std::ctype<wchar_t>::`vftable'
	DQ	FLAT:??_E?$ctype@_W@std@@MEAAPEAXI@Z
	DQ	FLAT:?_Incref@facet@locale@std@@UEAAXXZ
	DQ	FLAT:?_Decref@facet@locale@std@@UEAAPEAV_Facet_base@3@XZ
	DQ	FLAT:?do_is@?$ctype@_W@std@@MEBAPEB_WPEB_W0PEAF@Z
	DQ	FLAT:?do_is@?$ctype@_W@std@@MEBA_NF_W@Z
	DQ	FLAT:?do_scan_is@?$ctype@_W@std@@MEBAPEB_WFPEB_W0@Z
	DQ	FLAT:?do_scan_not@?$ctype@_W@std@@MEBAPEB_WFPEB_W0@Z
	DQ	FLAT:?do_tolower@?$ctype@_W@std@@MEBAPEB_WPEA_WPEB_W@Z
	DQ	FLAT:?do_tolower@?$ctype@_W@std@@MEBA_W_W@Z
	DQ	FLAT:?do_toupper@?$ctype@_W@std@@MEBAPEB_WPEA_WPEB_W@Z
	DQ	FLAT:?do_toupper@?$ctype@_W@std@@MEBA_W_W@Z
	DQ	FLAT:?do_widen@?$ctype@_W@std@@MEBAPEBDPEBD0PEA_W@Z
	DQ	FLAT:?do_widen@?$ctype@_W@std@@MEBA_WD@Z
	DQ	FLAT:?do_narrow@?$ctype@_W@std@@MEBAPEB_WPEB_W0DPEAD@Z
	DQ	FLAT:?do_narrow@?$ctype@_W@std@@MEBAD_WD@Z
CONST	ENDS
;	COMDAT ??_R1A@?0A@EA@failure@ios_base@std@@8
rdata$r	SEGMENT
??_R1A@?0A@EA@failure@ios_base@std@@8 DD imagerel ??_R0?AVfailure@ios_base@std@@@8 ; std::ios_base::failure::`RTTI Base Class Descriptor at (0,-1,0,64)'
	DD	04H
	DD	00H
	DD	0ffffffffH
	DD	00H
	DD	040H
	DD	imagerel ??_R3failure@ios_base@std@@8
rdata$r	ENDS
;	COMDAT ??_7_System_error@std@@6B@
CONST	SEGMENT
??_7_System_error@std@@6B@ DQ FLAT:??_R4_System_error@std@@6B@ ; std::_System_error::`vftable'
	DQ	FLAT:??_E_System_error@std@@UEAAPEAXI@Z
	DQ	FLAT:?what@exception@std@@UEBAPEBDXZ
CONST	ENDS
;	COMDAT ??_7runtime_error@std@@6B@
CONST	SEGMENT
??_7runtime_error@std@@6B@ DQ FLAT:??_R4runtime_error@std@@6B@ ; std::runtime_error::`vftable'
	DQ	FLAT:??_Eruntime_error@std@@UEAAPEAXI@Z
	DQ	FLAT:?what@exception@std@@UEBAPEBDXZ
CONST	ENDS
;	COMDAT ??_R3exception@std@@8
rdata$r	SEGMENT
??_R3exception@std@@8 DD 00H				; std::exception::`RTTI Class Hierarchy Descriptor'
	DD	00H
	DD	01H
	DD	imagerel ??_R2exception@std@@8
rdata$r	ENDS
;	COMDAT ??_R2?$ctype@D@std@@8
rdata$r	SEGMENT
??_R2?$ctype@D@std@@8 DD imagerel ??_R1A@?0A@EA@?$ctype@D@std@@8 ; std::ctype<char>::`RTTI Base Class Array'
	DD	imagerel ??_R1A@?0A@EA@ctype_base@std@@8
	DD	imagerel ??_R1A@?0A@EA@facet@locale@std@@8
	DD	imagerel ??_R1A@?0A@EA@_Facet_base@std@@8
	DD	imagerel ??_R17?0A@EA@_Crt_new_delete@std@@8
	ORG $+3
rdata$r	ENDS
;	COMDAT _TI2?AVbad_cast@std@@
xdata$x	SEGMENT
_TI2?AVbad_cast@std@@ DD 00H
	DD	imagerel ??1bad_cast@std@@UEAA@XZ
	DD	00H
	DD	imagerel _CTA2?AVbad_cast@std@@
xdata$x	ENDS
;	COMDAT _CTA5?AVfailure@ios_base@std@@
xdata$x	SEGMENT
_CTA5?AVfailure@ios_base@std@@ DD 05H
	DD	imagerel _CT??_R0?AVfailure@ios_base@std@@@840
	DD	imagerel _CT??_R0?AVsystem_error@std@@@840
	DD	imagerel _CT??_R0?AV_System_error@std@@@840
	DD	imagerel _CT??_R0?AVruntime_error@std@@@824
	DD	imagerel _CT??_R0?AVexception@std@@@824
xdata$x	ENDS
;	COMDAT ??_7exception@std@@6B@
CONST	SEGMENT
??_7exception@std@@6B@ DQ FLAT:??_R4exception@std@@6B@	; std::exception::`vftable'
	DQ	FLAT:??_Eexception@std@@UEAAPEAXI@Z
	DQ	FLAT:?what@exception@std@@UEBAPEBDXZ
CONST	ENDS
;	COMDAT ??_7facet@locale@std@@6B@
CONST	SEGMENT
??_7facet@locale@std@@6B@ DQ FLAT:??_R4facet@locale@std@@6B@ ; std::locale::facet::`vftable'
	DQ	FLAT:??_Efacet@locale@std@@MEAAPEAXI@Z
	DQ	FLAT:?_Incref@facet@locale@std@@UEAAXXZ
	DQ	FLAT:?_Decref@facet@locale@std@@UEAAPEAV_Facet_base@3@XZ
CONST	ENDS
;	COMDAT ??_R3failure@ios_base@std@@8
rdata$r	SEGMENT
??_R3failure@ios_base@std@@8 DD 00H			; std::ios_base::failure::`RTTI Class Hierarchy Descriptor'
	DD	00H
	DD	05H
	DD	imagerel ??_R2failure@ios_base@std@@8
rdata$r	ENDS
;	COMDAT ??_R0?AUctype_base@std@@@8
data$r	SEGMENT
??_R0?AUctype_base@std@@@8 DQ FLAT:??_7type_info@@6B@	; std::ctype_base `RTTI Type Descriptor'
	DQ	0000000000000000H
	DB	'.?AUctype_base@std@@', 00H
data$r	ENDS
;	COMDAT ??_R4error_category@std@@6B@
rdata$r	SEGMENT
??_R4error_category@std@@6B@ DD 01H			; std::error_category::`RTTI Complete Object Locator'
	DD	00H
	DD	00H
	DD	imagerel ??_R0?AVerror_category@std@@@8
	DD	imagerel ??_R3error_category@std@@8
	DD	imagerel ??_R4error_category@std@@6B@
rdata$r	ENDS
;	COMDAT ??_R2failure@ios_base@std@@8
rdata$r	SEGMENT
??_R2failure@ios_base@std@@8 DD imagerel ??_R1A@?0A@EA@failure@ios_base@std@@8 ; std::ios_base::failure::`RTTI Base Class Array'
	DD	imagerel ??_R1A@?0A@EA@system_error@std@@8
	DD	imagerel ??_R1A@?0A@EA@_System_error@std@@8
	DD	imagerel ??_R1A@?0A@EA@runtime_error@std@@8
	DD	imagerel ??_R1A@?0A@EA@exception@std@@8
	ORG $+3
rdata$r	ENDS
;	COMDAT _CTA2?AVbad_cast@std@@
xdata$x	SEGMENT
_CTA2?AVbad_cast@std@@ DD 02H
	DD	imagerel _CT??_R0?AVbad_cast@std@@@824
	DD	imagerel _CT??_R0?AVexception@std@@@824
xdata$x	ENDS
;	COMDAT ??_7?$ctype@D@std@@6B@
CONST	SEGMENT
??_7?$ctype@D@std@@6B@ DQ FLAT:??_R4?$ctype@D@std@@6B@	; std::ctype<char>::`vftable'
	DQ	FLAT:??_E?$ctype@D@std@@MEAAPEAXI@Z
	DQ	FLAT:?_Incref@facet@locale@std@@UEAAXXZ
	DQ	FLAT:?_Decref@facet@locale@std@@UEAAPEAV_Facet_base@3@XZ
	DQ	FLAT:?do_tolower@?$ctype@D@std@@MEBAPEBDPEADPEBD@Z
	DQ	FLAT:?do_tolower@?$ctype@D@std@@MEBADD@Z
	DQ	FLAT:?do_toupper@?$ctype@D@std@@MEBAPEBDPEADPEBD@Z
	DQ	FLAT:?do_toupper@?$ctype@D@std@@MEBADD@Z
	DQ	FLAT:?do_widen@?$ctype@D@std@@MEBAPEBDPEBD0PEAD@Z
	DQ	FLAT:?do_widen@?$ctype@D@std@@MEBADD@Z
	DQ	FLAT:?do_narrow@?$ctype@D@std@@MEBAPEBDPEBD0DPEAD@Z
	DQ	FLAT:?do_narrow@?$ctype@D@std@@MEBADDD@Z
CONST	ENDS
;	COMDAT ??_R0?AVbad_cast@std@@@8
data$r	SEGMENT
??_R0?AVbad_cast@std@@@8 DQ FLAT:??_7type_info@@6B@	; std::bad_cast `RTTI Type Descriptor'
	DQ	0000000000000000H
	DB	'.?AVbad_cast@std@@', 00H
data$r	ENDS
;	COMDAT ??_R0?AV_Iostream_error_category@std@@@8
data$r	SEGMENT
??_R0?AV_Iostream_error_category@std@@@8 DQ FLAT:??_7type_info@@6B@ ; std::_Iostream_error_category `RTTI Type Descriptor'
	DQ	0000000000000000H
	DB	'.?AV_Iostream_error_category@std@@', 00H
data$r	ENDS
;	COMDAT ??_R1A@?0A@EA@facet@locale@std@@8
rdata$r	SEGMENT
??_R1A@?0A@EA@facet@locale@std@@8 DD imagerel ??_R0?AVfacet@locale@std@@@8 ; std::locale::facet::`RTTI Base Class Descriptor at (0,-1,0,64)'
	DD	02H
	DD	00H
	DD	0ffffffffH
	DD	00H
	DD	040H
	DD	imagerel ??_R3facet@locale@std@@8
rdata$r	ENDS
;	COMDAT ??_R2error_category@std@@8
rdata$r	SEGMENT
??_R2error_category@std@@8 DD imagerel ??_R1A@?0A@EA@error_category@std@@8 ; std::error_category::`RTTI Base Class Array'
	ORG $+3
rdata$r	ENDS
;	COMDAT _CT??_R0?AVbad_cast@std@@@824
xdata$x	SEGMENT
_CT??_R0?AVbad_cast@std@@@824 DD 00H
	DD	imagerel ??_R0?AVbad_cast@std@@@8
	DD	00H
	DD	0ffffffffH
	ORG $+4
	DD	018H
	DD	imagerel ??0bad_cast@std@@QEAA@AEBV01@@Z
xdata$x	ENDS
;	COMDAT _CT??_R0?AVruntime_error@std@@@824
xdata$x	SEGMENT
_CT??_R0?AVruntime_error@std@@@824 DD 00H
	DD	imagerel ??_R0?AVruntime_error@std@@@8
	DD	00H
	DD	0ffffffffH
	ORG $+4
	DD	018H
	DD	imagerel ??0runtime_error@std@@QEAA@AEBV01@@Z
xdata$x	ENDS
;	COMDAT ??_R2_Iostream_error_category@std@@8
rdata$r	SEGMENT
??_R2_Iostream_error_category@std@@8 DD imagerel ??_R1A@?0A@EA@_Iostream_error_category@std@@8 ; std::_Iostream_error_category::`RTTI Base Class Array'
	DD	imagerel ??_R1A@?0A@EA@_Generic_error_category@std@@8
	DD	imagerel ??_R1A@?0A@EA@error_category@std@@8
	ORG $+3
rdata$r	ENDS
;	COMDAT ??_R3_Generic_error_category@std@@8
rdata$r	SEGMENT
??_R3_Generic_error_category@std@@8 DD 00H		; std::_Generic_error_category::`RTTI Class Hierarchy Descriptor'
	DD	00H
	DD	02H
	DD	imagerel ??_R2_Generic_error_category@std@@8
rdata$r	ENDS
;	COMDAT _TI2?AVruntime_error@std@@
xdata$x	SEGMENT
_TI2?AVruntime_error@std@@ DD 00H
	DD	imagerel ??1runtime_error@std@@UEAA@XZ
	DD	00H
	DD	imagerel _CTA2?AVruntime_error@std@@
xdata$x	ENDS
;	COMDAT ??_R1A@?0A@EA@?$ctype@_W@std@@8
rdata$r	SEGMENT
??_R1A@?0A@EA@?$ctype@_W@std@@8 DD imagerel ??_R0?AV?$ctype@_W@std@@@8 ; std::ctype<wchar_t>::`RTTI Base Class Descriptor at (0,-1,0,64)'
	DD	04H
	DD	00H
	DD	0ffffffffH
	DD	00H
	DD	040H
	DD	imagerel ??_R3?$ctype@_W@std@@8
rdata$r	ENDS
;	COMDAT ??_7bad_cast@std@@6B@
CONST	SEGMENT
??_7bad_cast@std@@6B@ DQ FLAT:??_R4bad_cast@std@@6B@	; std::bad_cast::`vftable'
	DQ	FLAT:??_Ebad_cast@std@@UEAAPEAXI@Z
	DQ	FLAT:?what@exception@std@@UEBAPEBDXZ
CONST	ENDS
;	COMDAT ??_R4failure@ios_base@std@@6B@
rdata$r	SEGMENT
??_R4failure@ios_base@std@@6B@ DD 01H			; std::ios_base::failure::`RTTI Complete Object Locator'
	DD	00H
	DD	00H
	DD	imagerel ??_R0?AVfailure@ios_base@std@@@8
	DD	imagerel ??_R3failure@ios_base@std@@8
	DD	imagerel ??_R4failure@ios_base@std@@6B@
rdata$r	ENDS
;	COMDAT ??_R2exception@std@@8
rdata$r	SEGMENT
??_R2exception@std@@8 DD imagerel ??_R1A@?0A@EA@exception@std@@8 ; std::exception::`RTTI Base Class Array'
	ORG $+3
rdata$r	ENDS
;	COMDAT ??_R2bad_cast@std@@8
rdata$r	SEGMENT
??_R2bad_cast@std@@8 DD imagerel ??_R1A@?0A@EA@bad_cast@std@@8 ; std::bad_cast::`RTTI Base Class Array'
	DD	imagerel ??_R1A@?0A@EA@exception@std@@8
	ORG $+3
rdata$r	ENDS
;	COMDAT ??_R17?0A@EA@_Crt_new_delete@std@@8
rdata$r	SEGMENT
??_R17?0A@EA@_Crt_new_delete@std@@8 DD imagerel ??_R0?AU_Crt_new_delete@std@@@8 ; std::_Crt_new_delete::`RTTI Base Class Descriptor at (8,-1,0,64)'
	DD	00H
	DD	08H
	DD	0ffffffffH
	DD	00H
	DD	040H
	DD	imagerel ??_R3_Crt_new_delete@std@@8
rdata$r	ENDS
;	COMDAT ??_R0?AU_Crt_new_delete@std@@@8
data$r	SEGMENT
??_R0?AU_Crt_new_delete@std@@@8 DQ FLAT:??_7type_info@@6B@ ; std::_Crt_new_delete `RTTI Type Descriptor'
	DQ	0000000000000000H
	DB	'.?AU_Crt_new_delete@std@@', 00H
data$r	ENDS
;	COMDAT ??_R3_Iostream_error_category@std@@8
rdata$r	SEGMENT
??_R3_Iostream_error_category@std@@8 DD 00H		; std::_Iostream_error_category::`RTTI Class Hierarchy Descriptor'
	DD	00H
	DD	03H
	DD	imagerel ??_R2_Iostream_error_category@std@@8
rdata$r	ENDS
;	COMDAT ??_R0?AV_Generic_error_category@std@@@8
data$r	SEGMENT
??_R0?AV_Generic_error_category@std@@@8 DQ FLAT:??_7type_info@@6B@ ; std::_Generic_error_category `RTTI Type Descriptor'
	DQ	0000000000000000H
	DB	'.?AV_Generic_error_category@std@@', 00H
data$r	ENDS
;	COMDAT ??_R3_System_error@std@@8
rdata$r	SEGMENT
??_R3_System_error@std@@8 DD 00H			; std::_System_error::`RTTI Class Hierarchy Descriptor'
	DD	00H
	DD	03H
	DD	imagerel ??_R2_System_error@std@@8
rdata$r	ENDS
;	COMDAT ??_7ctype_base@std@@6B@
CONST	SEGMENT
??_7ctype_base@std@@6B@ DQ FLAT:??_R4ctype_base@std@@6B@ ; std::ctype_base::`vftable'
	DQ	FLAT:??_Ectype_base@std@@UEAAPEAXI@Z
	DQ	FLAT:?_Incref@facet@locale@std@@UEAAXXZ
	DQ	FLAT:?_Decref@facet@locale@std@@UEAAPEAV_Facet_base@3@XZ
CONST	ENDS
;	COMDAT ??_R0?AV_Facet_base@std@@@8
data$r	SEGMENT
??_R0?AV_Facet_base@std@@@8 DQ FLAT:??_7type_info@@6B@	; std::_Facet_base `RTTI Type Descriptor'
	DQ	0000000000000000H
	DB	'.?AV_Facet_base@std@@', 00H
data$r	ENDS
;	COMDAT ??_R1A@?0A@EA@_Facet_base@std@@8
rdata$r	SEGMENT
??_R1A@?0A@EA@_Facet_base@std@@8 DD imagerel ??_R0?AV_Facet_base@std@@@8 ; std::_Facet_base::`RTTI Base Class Descriptor at (0,-1,0,64)'
	DD	00H
	DD	00H
	DD	0ffffffffH
	DD	00H
	DD	040H
	DD	imagerel ??_R3_Facet_base@std@@8
rdata$r	ENDS
;	COMDAT ??_R3?$ctype@_W@std@@8
rdata$r	SEGMENT
??_R3?$ctype@_W@std@@8 DD 00H				; std::ctype<wchar_t>::`RTTI Class Hierarchy Descriptor'
	DD	01H
	DD	05H
	DD	imagerel ??_R2?$ctype@_W@std@@8
rdata$r	ENDS
;	COMDAT ??_R1A@?0A@EA@_Generic_error_category@std@@8
rdata$r	SEGMENT
??_R1A@?0A@EA@_Generic_error_category@std@@8 DD imagerel ??_R0?AV_Generic_error_category@std@@@8 ; std::_Generic_error_category::`RTTI Base Class Descriptor at (0,-1,0,64)'
	DD	01H
	DD	00H
	DD	0ffffffffH
	DD	00H
	DD	040H
	DD	imagerel ??_R3_Generic_error_category@std@@8
rdata$r	ENDS
;	COMDAT ??_R4system_error@std@@6B@
rdata$r	SEGMENT
??_R4system_error@std@@6B@ DD 01H			; std::system_error::`RTTI Complete Object Locator'
	DD	00H
	DD	00H
	DD	imagerel ??_R0?AVsystem_error@std@@@8
	DD	imagerel ??_R3system_error@std@@8
	DD	imagerel ??_R4system_error@std@@6B@
rdata$r	ENDS
;	COMDAT ??_R4_Iostream_error_category@std@@6B@
rdata$r	SEGMENT
??_R4_Iostream_error_category@std@@6B@ DD 01H		; std::_Iostream_error_category::`RTTI Complete Object Locator'
	DD	00H
	DD	00H
	DD	imagerel ??_R0?AV_Iostream_error_category@std@@@8
	DD	imagerel ??_R3_Iostream_error_category@std@@8
	DD	imagerel ??_R4_Iostream_error_category@std@@6B@
rdata$r	ENDS
;	COMDAT ??_R1A@?0A@EA@exception@std@@8
rdata$r	SEGMENT
??_R1A@?0A@EA@exception@std@@8 DD imagerel ??_R0?AVexception@std@@@8 ; std::exception::`RTTI Base Class Descriptor at (0,-1,0,64)'
	DD	00H
	DD	00H
	DD	0ffffffffH
	DD	00H
	DD	040H
	DD	imagerel ??_R3exception@std@@8
rdata$r	ENDS
;	COMDAT ??_R0?AVsystem_error@std@@@8
data$r	SEGMENT
??_R0?AVsystem_error@std@@@8 DQ FLAT:??_7type_info@@6B@	; std::system_error `RTTI Type Descriptor'
	DQ	0000000000000000H
	DB	'.?AVsystem_error@std@@', 00H
data$r	ENDS
;	COMDAT ??_R2_System_error@std@@8
rdata$r	SEGMENT
??_R2_System_error@std@@8 DD imagerel ??_R1A@?0A@EA@_System_error@std@@8 ; std::_System_error::`RTTI Base Class Array'
	DD	imagerel ??_R1A@?0A@EA@runtime_error@std@@8
	DD	imagerel ??_R1A@?0A@EA@exception@std@@8
	ORG $+3
rdata$r	ENDS
;	COMDAT ??_R1A@?0A@EA@runtime_error@std@@8
rdata$r	SEGMENT
??_R1A@?0A@EA@runtime_error@std@@8 DD imagerel ??_R0?AVruntime_error@std@@@8 ; std::runtime_error::`RTTI Base Class Descriptor at (0,-1,0,64)'
	DD	01H
	DD	00H
	DD	0ffffffffH
	DD	00H
	DD	040H
	DD	imagerel ??_R3runtime_error@std@@8
rdata$r	ENDS
;	COMDAT ??_R3_Crt_new_delete@std@@8
rdata$r	SEGMENT
??_R3_Crt_new_delete@std@@8 DD 00H			; std::_Crt_new_delete::`RTTI Class Hierarchy Descriptor'
	DD	00H
	DD	01H
	DD	imagerel ??_R2_Crt_new_delete@std@@8
rdata$r	ENDS
;	COMDAT ??_R0?AV?$ctype@D@std@@@8
data$r	SEGMENT
??_R0?AV?$ctype@D@std@@@8 DQ FLAT:??_7type_info@@6B@	; std::ctype<char> `RTTI Type Descriptor'
	DQ	0000000000000000H
	DB	'.?AV?$ctype@D@std@@', 00H
data$r	ENDS
;	COMDAT ??_R0?AVerror_category@std@@@8
data$r	SEGMENT
??_R0?AVerror_category@std@@@8 DQ FLAT:??_7type_info@@6B@ ; std::error_category `RTTI Type Descriptor'
	DQ	0000000000000000H
	DB	'.?AVerror_category@std@@', 00H
data$r	ENDS
;	COMDAT ??_7_Iostream_error_category@std@@6B@
CONST	SEGMENT
??_7_Iostream_error_category@std@@6B@ DQ FLAT:??_R4_Iostream_error_category@std@@6B@ ; std::_Iostream_error_category::`vftable'
	DQ	FLAT:??_E_Iostream_error_category@std@@UEAAPEAXI@Z
	DQ	FLAT:?name@_Iostream_error_category@std@@UEBAPEBDXZ
	DQ	FLAT:?message@_Iostream_error_category@std@@UEBA?AV?$basic_string@DU?$char_traits@D@std@@V?$allocator@D@2@@2@H@Z
	DQ	FLAT:?default_error_condition@error_category@std@@UEBA?AVerror_condition@2@H@Z
	DQ	FLAT:?equivalent@error_category@std@@UEBA_NAEBVerror_code@2@H@Z
	DQ	FLAT:?equivalent@error_category@std@@UEBA_NHAEBVerror_condition@2@@Z
CONST	ENDS
;	COMDAT _CT??_R0?AVfailure@ios_base@std@@@840
xdata$x	SEGMENT
_CT??_R0?AVfailure@ios_base@std@@@840 DD 00H
	DD	imagerel ??_R0?AVfailure@ios_base@std@@@8
	DD	00H
	DD	0ffffffffH
	ORG $+4
	DD	028H
	DD	imagerel ??0failure@ios_base@std@@QEAA@AEBV012@@Z
xdata$x	ENDS
;	COMDAT ??_7_Generic_error_category@std@@6B@
CONST	SEGMENT
??_7_Generic_error_category@std@@6B@ DQ FLAT:??_R4_Generic_error_category@std@@6B@ ; std::_Generic_error_category::`vftable'
	DQ	FLAT:??_E_Generic_error_category@std@@UEAAPEAXI@Z
	DQ	FLAT:?name@_Generic_error_category@std@@UEBAPEBDXZ
	DQ	FLAT:?message@_Generic_error_category@std@@UEBA?AV?$basic_string@DU?$char_traits@D@std@@V?$allocator@D@2@@2@H@Z
	DQ	FLAT:?default_error_condition@error_category@std@@UEBA?AVerror_condition@2@H@Z
	DQ	FLAT:?equivalent@error_category@std@@UEBA_NAEBVerror_code@2@H@Z
	DQ	FLAT:?equivalent@error_category@std@@UEBA_NHAEBVerror_condition@2@@Z
CONST	ENDS
;	COMDAT ??_R4_Generic_error_category@std@@6B@
rdata$r	SEGMENT
??_R4_Generic_error_category@std@@6B@ DD 01H		; std::_Generic_error_category::`RTTI Complete Object Locator'
	DD	00H
	DD	00H
	DD	imagerel ??_R0?AV_Generic_error_category@std@@@8
	DD	imagerel ??_R3_Generic_error_category@std@@8
	DD	imagerel ??_R4_Generic_error_category@std@@6B@
rdata$r	ENDS
;	COMDAT ??_R1A@?0A@EA@bad_cast@std@@8
rdata$r	SEGMENT
??_R1A@?0A@EA@bad_cast@std@@8 DD imagerel ??_R0?AVbad_cast@std@@@8 ; std::bad_cast::`RTTI Base Class Descriptor at (0,-1,0,64)'
	DD	01H
	DD	00H
	DD	0ffffffffH
	DD	00H
	DD	040H
	DD	imagerel ??_R3bad_cast@std@@8
rdata$r	ENDS
;	COMDAT ??_R2?$ctype@_W@std@@8
rdata$r	SEGMENT
??_R2?$ctype@_W@std@@8 DD imagerel ??_R1A@?0A@EA@?$ctype@_W@std@@8 ; std::ctype<wchar_t>::`RTTI Base Class Array'
	DD	imagerel ??_R1A@?0A@EA@ctype_base@std@@8
	DD	imagerel ??_R1A@?0A@EA@facet@locale@std@@8
	DD	imagerel ??_R1A@?0A@EA@_Facet_base@std@@8
	DD	imagerel ??_R17?0A@EA@_Crt_new_delete@std@@8
	ORG $+3
rdata$r	ENDS
;	COMDAT ??_R3_Facet_base@std@@8
rdata$r	SEGMENT
??_R3_Facet_base@std@@8 DD 00H				; std::_Facet_base::`RTTI Class Hierarchy Descriptor'
	DD	00H
	DD	01H
	DD	imagerel ??_R2_Facet_base@std@@8
rdata$r	ENDS
;	COMDAT ??_R4_System_error@std@@6B@
rdata$r	SEGMENT
??_R4_System_error@std@@6B@ DD 01H			; std::_System_error::`RTTI Complete Object Locator'
	DD	00H
	DD	00H
	DD	imagerel ??_R0?AV_System_error@std@@@8
	DD	imagerel ??_R3_System_error@std@@8
	DD	imagerel ??_R4_System_error@std@@6B@
rdata$r	ENDS
;	COMDAT ??_R4runtime_error@std@@6B@
rdata$r	SEGMENT
??_R4runtime_error@std@@6B@ DD 01H			; std::runtime_error::`RTTI Complete Object Locator'
	DD	00H
	DD	00H
	DD	imagerel ??_R0?AVruntime_error@std@@@8
	DD	imagerel ??_R3runtime_error@std@@8
	DD	imagerel ??_R4runtime_error@std@@6B@
rdata$r	ENDS
;	COMDAT ??_7error_category@std@@6B@
CONST	SEGMENT
??_7error_category@std@@6B@ DQ FLAT:??_R4error_category@std@@6B@ ; std::error_category::`vftable'
	DQ	FLAT:??_Eerror_category@std@@UEAAPEAXI@Z
	DQ	FLAT:_purecall
	DQ	FLAT:_purecall
	DQ	FLAT:?default_error_condition@error_category@std@@UEBA?AVerror_condition@2@H@Z
	DQ	FLAT:?equivalent@error_category@std@@UEBA_NAEBVerror_code@2@H@Z
	DQ	FLAT:?equivalent@error_category@std@@UEBA_NHAEBVerror_condition@2@@Z
CONST	ENDS
;	COMDAT _CT??_R0?AVexception@std@@@824
xdata$x	SEGMENT
_CT??_R0?AVexception@std@@@824 DD 00H
	DD	imagerel ??_R0?AVexception@std@@@8
	DD	00H
	DD	0ffffffffH
	ORG $+4
	DD	018H
	DD	imagerel ??0exception@std@@QEAA@AEBV01@@Z
xdata$x	ENDS
;	COMDAT ??_R1A@?0A@EA@_Iostream_error_category@std@@8
rdata$r	SEGMENT
??_R1A@?0A@EA@_Iostream_error_category@std@@8 DD imagerel ??_R0?AV_Iostream_error_category@std@@@8 ; std::_Iostream_error_category::`RTTI Base Class Descriptor at (0,-1,0,64)'
	DD	02H
	DD	00H
	DD	0ffffffffH
	DD	00H
	DD	040H
	DD	imagerel ??_R3_Iostream_error_category@std@@8
rdata$r	ENDS
;	COMDAT ??_R3?$ctype@D@std@@8
rdata$r	SEGMENT
??_R3?$ctype@D@std@@8 DD 00H				; std::ctype<char>::`RTTI Class Hierarchy Descriptor'
	DD	01H
	DD	05H
	DD	imagerel ??_R2?$ctype@D@std@@8
rdata$r	ENDS
;	COMDAT ??_R1A@?0A@EA@system_error@std@@8
rdata$r	SEGMENT
??_R1A@?0A@EA@system_error@std@@8 DD imagerel ??_R0?AVsystem_error@std@@@8 ; std::system_error::`RTTI Base Class Descriptor at (0,-1,0,64)'
	DD	03H
	DD	00H
	DD	0ffffffffH
	DD	00H
	DD	040H
	DD	imagerel ??_R3system_error@std@@8
rdata$r	ENDS
;	COMDAT ??_R4facet@locale@std@@6B@
rdata$r	SEGMENT
??_R4facet@locale@std@@6B@ DD 01H			; std::locale::facet::`RTTI Complete Object Locator'
	DD	00H
	DD	00H
	DD	imagerel ??_R0?AVfacet@locale@std@@@8
	DD	imagerel ??_R3facet@locale@std@@8
	DD	imagerel ??_R4facet@locale@std@@6B@
rdata$r	ENDS
;	COMDAT ??_R2system_error@std@@8
rdata$r	SEGMENT
??_R2system_error@std@@8 DD imagerel ??_R1A@?0A@EA@system_error@std@@8 ; std::system_error::`RTTI Base Class Array'
	DD	imagerel ??_R1A@?0A@EA@_System_error@std@@8
	DD	imagerel ??_R1A@?0A@EA@runtime_error@std@@8
	DD	imagerel ??_R1A@?0A@EA@exception@std@@8
	ORG $+3
rdata$r	ENDS
;	COMDAT ??_R4exception@std@@6B@
rdata$r	SEGMENT
??_R4exception@std@@6B@ DD 01H				; std::exception::`RTTI Complete Object Locator'
	DD	00H
	DD	00H
	DD	imagerel ??_R0?AVexception@std@@@8
	DD	imagerel ??_R3exception@std@@8
	DD	imagerel ??_R4exception@std@@6B@
rdata$r	ENDS
;	COMDAT ??_R0?AVruntime_error@std@@@8
data$r	SEGMENT
??_R0?AVruntime_error@std@@@8 DQ FLAT:??_7type_info@@6B@ ; std::runtime_error `RTTI Type Descriptor'
	DQ	0000000000000000H
	DB	'.?AVruntime_error@std@@', 00H
data$r	ENDS
;	COMDAT ??_R0?AVfailure@ios_base@std@@@8
data$r	SEGMENT
??_R0?AVfailure@ios_base@std@@@8 DQ FLAT:??_7type_info@@6B@ ; std::ios_base::failure `RTTI Type Descriptor'
	DQ	0000000000000000H
	DB	'.?AVfailure@ios_base@std@@', 00H
data$r	ENDS
;	COMDAT ??_C@_0BI@CFPLBAOH@invalid?5string?5position?$AA@
CONST	SEGMENT
??_C@_0BI@CFPLBAOH@invalid?5string?5position?$AA@ DB 'invalid string posi'
	DB	'tion', 00H					; `string'
CONST	ENDS
;	COMDAT ??_C@_0BA@JFNIOLAK@string?5too?5long?$AA@
CONST	SEGMENT
??_C@_0BA@JFNIOLAK@string?5too?5long?$AA@ DB 'string too long', 00H ; `string'
CONST	ENDS
;	COMDAT ??_C@_0P@DIBLOLJI@End?5of?5stream?4?$AA@
CONST	SEGMENT
??_C@_0P@DIBLOLJI@End?5of?5stream?4?$AA@ DB 'End of stream.', 00H ; `string'
CONST	ENDS
;	COMDAT ??_C@_0BI@LDAJLFNC@End?5of?5stream?5expected?4?$AA@
CONST	SEGMENT
??_C@_0BI@LDAJLFNC@End?5of?5stream?5expected?4?$AA@ DB 'End of stream exp'
	DB	'ected.', 00H				; `string'
$SG4294967189 DB 'hello world', 00H
$SG4294967188 DB 'err', 00H
$SG4294967187 DB 'equal a', 00H
CONST	ENDS
;	COMDAT ??_C@_0CP@CCOBECKN@Result?3?3item?$CI?$CJ?5called?5on?5a?5resul@
CONST	SEGMENT
??_C@_0CP@CCOBECKN@Result?3?3item?$CI?$CJ?5called?5on?5a?5resul@ DB 'Resu'
	DB	'lt::item() called on a result with error: ', 00H ; `string'
CONST	ENDS
;	COMDAT ??_C@_0DC@FDEAEJPJ@Result?3?3error?$CI?$CJ?5called?5on?5a?5resu@
CONST	SEGMENT
??_C@_0DC@FDEAEJPJ@Result?3?3error?$CI?$CJ?5called?5on?5a?5resu@ DB 'Resu'
	DB	'lt::error() called on a result without error.', 00H ; `string'
CONST	ENDS
;	COMDAT ??_C@_01ODHLEDKK@?$CI?$AA@
CONST	SEGMENT
??_C@_01ODHLEDKK@?$CI?$AA@ DB '(', 00H			; `string'
CONST	ENDS
;	COMDAT ??_C@_02KEGNLNML@?0?5?$AA@
CONST	SEGMENT
??_C@_02KEGNLNML@?0?5?$AA@ DB ', ', 00H			; `string'
CONST	ENDS
;	COMDAT ??_C@_03LPPJIELD@?$CJ?3?5?$AA@
CONST	SEGMENT
??_C@_03LPPJIELD@?$CJ?3?5?$AA@ DB '): ', 00H		; `string'
CONST	ENDS
;	COMDAT ??_C@_0BF@OOHOMBOF@ios_base?3?3eofbit?5set?$AA@
CONST	SEGMENT
??_C@_0BF@OOHOMBOF@ios_base?3?3eofbit?5set?$AA@ DB 'ios_base::eofbit set', 00H ; `string'
CONST	ENDS
;	COMDAT ??_C@_0BG@FMKFHCIL@ios_base?3?3failbit?5set?$AA@
CONST	SEGMENT
??_C@_0BG@FMKFHCIL@ios_base?3?3failbit?5set?$AA@ DB 'ios_base::failbit se'
	DB	't', 00H					; `string'
CONST	ENDS
;	COMDAT ??_C@_0BF@PHHKMMFD@ios_base?3?3badbit?5set?$AA@
CONST	SEGMENT
??_C@_0BF@PHHKMMFD@ios_base?3?3badbit?5set?$AA@ DB 'ios_base::badbit set', 00H ; `string'
CONST	ENDS
;	COMDAT ??_C@_0BG@PADBLCHM@iostream?5stream?5error?$AA@
CONST	SEGMENT
??_C@_0BG@PADBLCHM@iostream?5stream?5error?$AA@ DB 'iostream stream error'
	DB	00H						; `string'
CONST	ENDS
;	COMDAT ??_C@_08LLGCOLLL@iostream?$AA@
CONST	SEGMENT
??_C@_08LLGCOLLL@iostream?$AA@ DB 'iostream', 00H	; `string'
CONST	ENDS
;	COMDAT ??_C@_07DCLBNMLN@generic?$AA@
CONST	SEGMENT
??_C@_07DCLBNMLN@generic?$AA@ DB 'generic', 00H		; `string'
CONST	ENDS
;	COMDAT ??_C@_02LMMGGCAJ@?3?5?$AA@
CONST	SEGMENT
??_C@_02LMMGGCAJ@?3?5?$AA@ DB ': ', 00H			; `string'
CONST	ENDS
;	COMDAT ??_C@_00CNPNBAHC@?$AA@
CONST	SEGMENT
??_C@_00CNPNBAHC@?$AA@ DB 00H				; `string'
CONST	ENDS
;	COMDAT ??_C@_0BA@ELKIONDK@bad?5locale?5name?$AA@
CONST	SEGMENT
??_C@_0BA@ELKIONDK@bad?5locale?5name?$AA@ DB 'bad locale name', 00H ; `string'
CONST	ENDS
;	COMDAT ??_C@_08EPJLHIJG@bad?5cast?$AA@
CONST	SEGMENT
??_C@_08EPJLHIJG@bad?5cast?$AA@ DB 'bad cast', 00H	; `string'
CONST	ENDS
;	COMDAT ??_C@_0BC@EOODALEL@Unknown?5exception?$AA@
CONST	SEGMENT
??_C@_0BC@EOODALEL@Unknown?5exception?$AA@ DB 'Unknown exception', 00H ; `string'
CONST	ENDS
PUBLIC	??$?0AEBV?$allocator@D@std@@@?$_Wrap_alloc@V?$allocator@D@std@@@std@@QEAA@AEBV?$allocator@D@1@@Z ; std::_Wrap_alloc<std::allocator<char> >::_Wrap_alloc<std::allocator<char> ><std::allocator<char> const & __ptr64>
PUBLIC	??$?0AEBV?$allocator@D@std@@$$V@?$_Compressed_pair@U?$_Wrap_alloc@V?$allocator@D@std@@@std@@V?$_String_val@U?$_Simple_types@D@std@@@2@$00@std@@QEAA@U_One_then_variadic_args_t@1@AEBV?$allocator@D@1@@Z ; std::_Compressed_pair<std::_Wrap_alloc<std::allocator<char> >,std::_String_val<std::_Simple_types<char> >,1>::_Compressed_pair<std::_Wrap_alloc<std::allocator<char> >,std::_String_val<std::_Simple_types<char> >,1><std::allocator<char> const & __ptr64>
PUBLIC	??$forward@AEBV?$allocator@D@std@@@std@@YAAEBV?$allocator@D@0@AEBV10@@Z ; std::forward<std::allocator<char> const & __ptr64>
PUBLIC	??Y?$_String_const_iterator@V?$_String_val@U?$_Simple_types@D@std@@@std@@@std@@QEAAAEAV01@_J@Z ; std::_String_const_iterator<std::_String_val<std::_Simple_types<char> > >::operator+=
PUBLIC	??$addressof@$$CBD@std@@YAPEBDAEBD@Z		; std::addressof<char const >
PUBLIC	??$construct@PEADAEAPEAD@?$allocator@D@std@@QEAAXPEAPEADAEAPEAD@Z ; std::allocator<char>::construct<char * __ptr64,char * __ptr64 & __ptr64>
PUBLIC	??$destroy@PEAD@?$allocator@D@std@@QEAAXPEAPEAD@Z ; std::allocator<char>::destroy<char * __ptr64>
PUBLIC	??$_Advance1@V?$_String_const_iterator@V?$_String_val@U?$_Simple_types@D@std@@@std@@@std@@_J@std@@YAXAEAV?$_String_const_iterator@V?$_String_val@U?$_Simple_types@D@std@@@std@@@0@_JUrandom_access_iterator_tag@0@@Z ; std::_Advance1<std::_String_const_iterator<std::_String_val<std::_Simple_types<char> > >,__int64>
PUBLIC	??$_Unchecked@PEAD@std@@YAPEADPEAD@Z		; std::_Unchecked<char * __ptr64>
PUBLIC	??$?0AEBV?$allocator@D@std@@X@?$_String_alloc@U?$_String_base_types@DV?$allocator@D@std@@@std@@@std@@QEAA@AEBV?$allocator@D@1@@Z ; std::_String_alloc<std::_String_base_types<char,std::allocator<char> > >::_String_alloc<std::_String_base_types<char,std::allocator<char> > ><std::allocator<char> const & __ptr64,void>
PUBLIC	?pointer_to@?$pointer_traits@PEBD@std@@SAPEBDAEBD@Z ; std::pointer_traits<char const * __ptr64>::pointer_to
PUBLIC	?address@?$_Wrap_alloc@V?$allocator@D@std@@@std@@QEBAPEBDAEBD@Z ; std::_Wrap_alloc<std::allocator<char> >::address
PUBLIC	??0?$_String_const_iterator@V?$_String_val@U?$_Simple_types@D@std@@@std@@@std@@QEAA@PEBDPEBU_Container_base0@1@@Z ; std::_String_const_iterator<std::_String_val<std::_Simple_types<char> > >::_String_const_iterator<std::_String_val<std::_Simple_types<char> > >
PUBLIC	?_Construct@?$basic_string@DU?$char_traits@D@std@@V?$allocator@D@2@@std@@QEAAXQEAD0Urandom_access_iterator_tag@2@@Z ; std::basic_string<char,std::char_traits<char>,std::allocator<char> >::_Construct
PUBLIC	?begin@?$basic_string@DU?$char_traits@D@std@@V?$allocator@D@2@@std@@QEBA?AV?$_String_const_iterator@V?$_String_val@U?$_Simple_types@D@std@@@std@@@2@XZ ; std::basic_string<char,std::char_traits<char>,std::allocator<char> >::begin
PUBLIC	?end@?$basic_string@DU?$char_traits@D@std@@V?$allocator@D@2@@std@@QEBA?AV?$_String_const_iterator@V?$_String_val@U?$_Simple_types@D@std@@@std@@@2@XZ ; std::basic_string<char,std::char_traits<char>,std::allocator<char> >::end
PUBLIC	??0?$_Wrap_alloc@V?$allocator@D@std@@@std@@QEAA@$$QEAU01@@Z ; std::_Wrap_alloc<std::allocator<char> >::_Wrap_alloc<std::allocator<char> >
PUBLIC	??$_Pocca@U?$_Wrap_alloc@V?$allocator@D@std@@@std@@@std@@YAXAEAU?$_Wrap_alloc@V?$allocator@D@std@@@0@AEBU10@U?$integral_constant@_N$0A@@0@@Z ; std::_Pocca<std::_Wrap_alloc<std::allocator<char> > >
PUBLIC	??$construct@PEADAEAPEAD@?$allocator_traits@V?$allocator@D@std@@@std@@SAXAEAV?$allocator@D@1@PEAPEADAEAPEAD@Z ; std::allocator_traits<std::allocator<char> >::construct<char * __ptr64,char * __ptr64 & __ptr64>
PUBLIC	??$forward@AEAPEAD@std@@YAAEAPEADAEAPEAD@Z	; std::forward<char * __ptr64 & __ptr64>
PUBLIC	??$destroy@PEAD@?$allocator_traits@V?$allocator@D@std@@@std@@SAXAEAV?$allocator@D@1@PEAPEAD@Z ; std::allocator_traits<std::allocator<char> >::destroy<char * __ptr64>
PUBLIC	??$forward@V?$allocator@D@std@@@std@@YA$$QEAV?$allocator@D@0@AEAV10@@Z ; std::forward<std::allocator<char> >
PUBLIC	??$?0U?$_Wrap_alloc@V?$allocator@D@std@@@std@@$$V@?$_Compressed_pair@U?$_Wrap_alloc@V?$allocator@D@std@@@std@@V?$_String_val@U?$_Simple_types@D@std@@@2@$00@std@@QEAA@U_One_then_variadic_args_t@1@$$QEAU?$_Wrap_alloc@V?$allocator@D@std@@@1@@Z ; std::_Compressed_pair<std::_Wrap_alloc<std::allocator<char> >,std::_String_val<std::_Simple_types<char> >,1>::_Compressed_pair<std::_Wrap_alloc<std::allocator<char> >,std::_String_val<std::_Simple_types<char> >,1><std::_Wrap_alloc<std::allocator<char> > >
PUBLIC	??$forward@U?$_Wrap_alloc@V?$allocator@D@std@@@std@@@std@@YA$$QEAU?$_Wrap_alloc@V?$allocator@D@std@@@0@AEAU10@@Z ; std::forward<std::_Wrap_alloc<std::allocator<char> > >
PUBLIC	??$use_facet@V?$ctype@_W@std@@@std@@YAAEBV?$ctype@_W@0@AEBVlocale@0@@Z ; std::use_facet<std::ctype<wchar_t> >
PUBLIC	??$_Insert_string@DU?$char_traits@D@std@@_K@std@@YAAEAV?$basic_ostream@DU?$char_traits@D@std@@@0@AEAV10@QEBD_K@Z ; std::_Insert_string<char,std::char_traits<char>,unsigned __int64>
PUBLIC	??$advance@V?$_String_const_iterator@V?$_String_val@U?$_Simple_types@D@std@@@std@@@std@@_J@std@@YAXAEAV?$_String_const_iterator@V?$_String_val@U?$_Simple_types@D@std@@@std@@@0@_J@Z ; std::advance<std::_String_const_iterator<std::_String_val<std::_Simple_types<char> > >,__int64>
PUBLIC	??$?0PEADX@?$basic_string@DU?$char_traits@D@std@@V?$allocator@D@2@@std@@QEAA@PEAD0AEBV?$allocator@D@1@@Z ; std::basic_string<char,std::char_traits<char>,std::allocator<char> >::basic_string<char,std::char_traits<char>,std::allocator<char> ><char * __ptr64,void>
PUBLIC	??$_UIntegral_to_buff@DI@std@@YAPEADPEADI@Z	; std::_UIntegral_to_buff<char,unsigned int>
PUBLIC	??$end@V?$basic_string@DU?$char_traits@D@std@@V?$allocator@D@2@@std@@@std@@YA?AV?$_String_const_iterator@V?$_String_val@U?$_Simple_types@D@std@@@std@@@0@AEBV?$basic_string@DU?$char_traits@D@std@@V?$allocator@D@2@@0@@Z ; std::end<std::basic_string<char,std::char_traits<char>,std::allocator<char> > >
PUBLIC	??$begin@V?$basic_string@DU?$char_traits@D@std@@V?$allocator@D@2@@std@@@std@@YA?AV?$_String_const_iterator@V?$_String_val@U?$_Simple_types@D@std@@@std@@@0@AEBV?$basic_string@DU?$char_traits@D@std@@V?$allocator@D@2@@0@@Z ; std::begin<std::basic_string<char,std::char_traits<char>,std::allocator<char> > >
PUBLIC	?clear@?$basic_ios@DU?$char_traits@D@std@@@std@@QEAAXH_N@Z ; std::basic_ios<char,std::char_traits<char> >::clear
PUBLIC	?tie@?$basic_ios@DU?$char_traits@D@std@@@std@@QEBAPEAV?$basic_ostream@DU?$char_traits@D@std@@@2@XZ ; std::basic_ios<char,std::char_traits<char> >::tie
PUBLIC	?pubsync@?$basic_streambuf@DU?$char_traits@D@std@@@std@@QEAAHXZ ; std::basic_streambuf<char,std::char_traits<char> >::pubsync
PUBLIC	?_Pninc@?$basic_streambuf@DU?$char_traits@D@std@@@std@@IEAAPEADXZ ; std::basic_streambuf<char,std::char_traits<char> >::_Pninc
PUBLIC	?_Pnavail@?$basic_streambuf@DU?$char_traits@D@std@@@std@@IEBA_JXZ ; std::basic_streambuf<char,std::char_traits<char> >::_Pnavail
PUBLIC	?_Osfx@?$basic_ostream@DU?$char_traits@D@std@@@std@@QEAAXXZ ; std::basic_ostream<char,std::char_traits<char> >::_Osfx
PUBLIC	?clear@?$basic_ios@_WU?$char_traits@_W@std@@@std@@QEAAXH_N@Z ; std::basic_ios<wchar_t,std::char_traits<wchar_t> >::clear
PUBLIC	?tie@?$basic_ios@_WU?$char_traits@_W@std@@@std@@QEBAPEAV?$basic_ostream@_WU?$char_traits@_W@std@@@2@XZ ; std::basic_ios<wchar_t,std::char_traits<wchar_t> >::tie
PUBLIC	?pubsync@?$basic_streambuf@_WU?$char_traits@_W@std@@@std@@QEAAHXZ ; std::basic_streambuf<wchar_t,std::char_traits<wchar_t> >::pubsync
PUBLIC	?_Pninc@?$basic_streambuf@_WU?$char_traits@_W@std@@@std@@IEAAPEA_WXZ ; std::basic_streambuf<wchar_t,std::char_traits<wchar_t> >::_Pninc
PUBLIC	?_Pnavail@?$basic_streambuf@_WU?$char_traits@_W@std@@@std@@IEBA_JXZ ; std::basic_streambuf<wchar_t,std::char_traits<wchar_t> >::_Pnavail
PUBLIC	?_Osfx@?$basic_ostream@_WU?$char_traits@_W@std@@@std@@QEAAXXZ ; std::basic_ostream<wchar_t,std::char_traits<wchar_t> >::_Osfx
PUBLIC	?insert@?$basic_string@DU?$char_traits@D@std@@V?$allocator@D@2@@std@@QEAAAEAV12@_KAEBV12@0_K@Z ; std::basic_string<char,std::char_traits<char>,std::allocator<char> >::insert
PUBLIC	?insert@?$basic_string@DU?$char_traits@D@std@@V?$allocator@D@2@@std@@QEAAAEAV12@_KQEBD0@Z ; std::basic_string<char,std::char_traits<char>,std::allocator<char> >::insert
PUBLIC	??0_Bxty@?$_String_val@U?$_Simple_types@D@std@@@std@@QEAA@XZ ; std::_String_val<std::_Simple_types<char> >::_Bxty::_Bxty
PUBLIC	??0_Sentry_base@?$basic_ostream@DU?$char_traits@D@std@@@std@@QEAA@AEAV12@@Z ; std::basic_ostream<char,std::char_traits<char> >::_Sentry_base::_Sentry_base
PUBLIC	??1_Sentry_base@?$basic_ostream@DU?$char_traits@D@std@@@std@@QEAA@XZ ; std::basic_ostream<char,std::char_traits<char> >::_Sentry_base::~_Sentry_base
PUBLIC	??0_Sentry_base@?$basic_ostream@_WU?$char_traits@_W@std@@@std@@QEAA@AEAV12@@Z ; std::basic_ostream<wchar_t,std::char_traits<wchar_t> >::_Sentry_base::_Sentry_base
PUBLIC	??1_Sentry_base@?$basic_ostream@_WU?$char_traits@_W@std@@@std@@QEAA@XZ ; std::basic_ostream<wchar_t,std::char_traits<wchar_t> >::_Sentry_base::~_Sentry_base
PUBLIC	?setstate@?$basic_ios@DU?$char_traits@D@std@@@std@@QEAAXH_N@Z ; std::basic_ios<char,std::char_traits<char> >::setstate
PUBLIC	?rdbuf@?$basic_ios@DU?$char_traits@D@std@@@std@@QEBAPEAV?$basic_streambuf@DU?$char_traits@D@std@@@2@XZ ; std::basic_ios<char,std::char_traits<char> >::rdbuf
PUBLIC	?fill@?$basic_ios@DU?$char_traits@D@std@@@std@@QEBADXZ ; std::basic_ios<char,std::char_traits<char> >::fill
PUBLIC	?widen@?$basic_ios@DU?$char_traits@D@std@@@std@@QEBADD@Z ; std::basic_ios<char,std::char_traits<char> >::widen
PUBLIC	?sputc@?$basic_streambuf@DU?$char_traits@D@std@@@std@@QEAAHD@Z ; std::basic_streambuf<char,std::char_traits<char> >::sputc
PUBLIC	?sputn@?$basic_streambuf@DU?$char_traits@D@std@@@std@@QEAA_JPEBD_J@Z ; std::basic_streambuf<char,std::char_traits<char> >::sputn
PUBLIC	?put@?$basic_ostream@DU?$char_traits@D@std@@@std@@QEAAAEAV12@D@Z ; std::basic_ostream<char,std::char_traits<char> >::put
PUBLIC	?flush@?$basic_ostream@DU?$char_traits@D@std@@@std@@QEAAAEAV12@XZ ; std::basic_ostream<char,std::char_traits<char> >::flush
PUBLIC	??0?$allocator@D@std@@QEAA@XZ			; std::allocator<char>::allocator<char>
PUBLIC	?setstate@?$basic_ios@_WU?$char_traits@_W@std@@@std@@QEAAXH_N@Z ; std::basic_ios<wchar_t,std::char_traits<wchar_t> >::setstate
PUBLIC	?rdbuf@?$basic_ios@_WU?$char_traits@_W@std@@@std@@QEBAPEAV?$basic_streambuf@_WU?$char_traits@_W@std@@@2@XZ ; std::basic_ios<wchar_t,std::char_traits<wchar_t> >::rdbuf
PUBLIC	?fill@?$basic_ios@_WU?$char_traits@_W@std@@@std@@QEBA_WXZ ; std::basic_ios<wchar_t,std::char_traits<wchar_t> >::fill
PUBLIC	?widen@?$basic_ios@_WU?$char_traits@_W@std@@@std@@QEBA_WD@Z ; std::basic_ios<wchar_t,std::char_traits<wchar_t> >::widen
PUBLIC	?sputc@?$basic_streambuf@_WU?$char_traits@_W@std@@@std@@QEAAG_W@Z ; std::basic_streambuf<wchar_t,std::char_traits<wchar_t> >::sputc
PUBLIC	?put@?$basic_ostream@_WU?$char_traits@_W@std@@@std@@QEAAAEAV12@_W@Z ; std::basic_ostream<wchar_t,std::char_traits<wchar_t> >::put
PUBLIC	?flush@?$basic_ostream@_WU?$char_traits@_W@std@@@std@@QEAAAEAV12@XZ ; std::basic_ostream<wchar_t,std::char_traits<wchar_t> >::flush
PUBLIC	?insert@?$basic_string@DU?$char_traits@D@std@@V?$allocator@D@2@@std@@QEAAAEAV12@_KAEBV12@@Z ; std::basic_string<char,std::char_traits<char>,std::allocator<char> >::insert
PUBLIC	?insert@?$basic_string@DU?$char_traits@D@std@@V?$allocator@D@2@@std@@QEAAAEAV12@_KQEBD@Z ; std::basic_string<char,std::char_traits<char>,std::allocator<char> >::insert
PUBLIC	?data@?$basic_string@DU?$char_traits@D@std@@V?$allocator@D@2@@std@@QEBAPEBDXZ ; std::basic_string<char,std::char_traits<char>,std::allocator<char> >::data
PUBLIC	??0?$_Wrap_alloc@V?$allocator@D@std@@@std@@QEAA@XZ ; std::_Wrap_alloc<std::allocator<char> >::_Wrap_alloc<std::allocator<char> >
PUBLIC	??0?$_String_val@U?$_Simple_types@D@std@@@std@@QEAA@XZ ; std::_String_val<std::_Simple_types<char> >::_String_val<std::_Simple_types<char> >
PUBLIC	??0sentry@?$basic_ostream@DU?$char_traits@D@std@@@std@@QEAA@AEAV12@@Z ; std::basic_ostream<char,std::char_traits<char> >::sentry::sentry
PUBLIC	??1sentry@?$basic_ostream@DU?$char_traits@D@std@@@std@@QEAA@XZ ; std::basic_ostream<char,std::char_traits<char> >::sentry::~sentry
PUBLIC	??Bsentry@?$basic_ostream@DU?$char_traits@D@std@@@std@@QEBA_NXZ ; std::basic_ostream<char,std::char_traits<char> >::sentry::operator bool
PUBLIC	??0sentry@?$basic_ostream@_WU?$char_traits@_W@std@@@std@@QEAA@AEAV12@@Z ; std::basic_ostream<wchar_t,std::char_traits<wchar_t> >::sentry::sentry
PUBLIC	??1sentry@?$basic_ostream@_WU?$char_traits@_W@std@@@std@@QEAA@XZ ; std::basic_ostream<wchar_t,std::char_traits<wchar_t> >::sentry::~sentry
PUBLIC	??Bsentry@?$basic_ostream@_WU?$char_traits@_W@std@@@std@@QEBA_NXZ ; std::basic_ostream<wchar_t,std::char_traits<wchar_t> >::sentry::operator bool
PUBLIC	??0?$_Immortalizer@V_Iostream_error_category@std@@@std@@QEAA@XZ ; std::_Immortalizer<std::_Iostream_error_category>::_Immortalizer<std::_Iostream_error_category>
PUBLIC	??1?$_Immortalizer@V_Iostream_error_category@std@@@std@@QEAA@XZ ; std::_Immortalizer<std::_Iostream_error_category>::~_Immortalizer<std::_Iostream_error_category>
PUBLIC	??0bad_cast@std@@QEAA@AEBV01@@Z			; std::bad_cast::bad_cast
PUBLIC	??__F_Static@?1???$_Immortalize@V_Iostream_error_category@std@@@std@@YAAEAV_Iostream_error_category@0@XZ@YAXXZ ; `std::_Immortalize<std::_Iostream_error_category>'::`2'::`dynamic atexit destructor for '_Static''
PUBLIC	??$_Pocca@U?$_Wrap_alloc@V?$allocator@D@std@@@std@@@std@@YAXAEAU?$_Wrap_alloc@V?$allocator@D@std@@@0@AEBU10@@Z ; std::_Pocca<std::_Wrap_alloc<std::allocator<char> > >
PUBLIC	??$_Min_value@_K@std@@YAAEB_KAEB_K0@Z		; std::_Min_value<unsigned __int64>
PUBLIC	??$_Unfancy@D@std@@YAPEADPEAD@Z			; std::_Unfancy<char>
PUBLIC	??$construct@PEADAEAPEAD@?$_Wrap_alloc@V?$allocator@D@std@@@std@@QEAAXPEAPEADAEAPEAD@Z ; std::_Wrap_alloc<std::allocator<char> >::construct<char * __ptr64,char * __ptr64 & __ptr64>
PUBLIC	??$destroy@PEAD@?$_Wrap_alloc@V?$allocator@D@std@@@std@@QEAAXPEAPEAD@Z ; std::_Wrap_alloc<std::allocator<char> >::destroy<char * __ptr64>
PUBLIC	??$addressof@PEAD@std@@YAPEAPEADAEAPEAD@Z	; std::addressof<char * __ptr64>
PUBLIC	??$?0$$V@?$_Compressed_pair@U?$_Wrap_alloc@V?$allocator@D@std@@@std@@V?$_String_val@U?$_Simple_types@D@std@@@2@$00@std@@QEAA@U_Zero_then_variadic_args_t@1@@Z ; std::_Compressed_pair<std::_Wrap_alloc<std::allocator<char> >,std::_String_val<std::_Simple_types<char> >,1>::_Compressed_pair<std::_Wrap_alloc<std::allocator<char> >,std::_String_val<std::_Simple_types<char> >,1><>
PUBLIC	??$?0V?$allocator@D@std@@@?$_Wrap_alloc@V?$allocator@D@std@@@std@@QEAA@$$QEAV?$allocator@D@1@@Z ; std::_Wrap_alloc<std::allocator<char> >::_Wrap_alloc<std::allocator<char> ><std::allocator<char> >
PUBLIC	??$move@AEAV?$basic_string@DU?$char_traits@D@std@@V?$allocator@D@2@@std@@@std@@YA$$QEAV?$basic_string@DU?$char_traits@D@std@@V?$allocator@D@2@@0@AEAV10@@Z ; std::move<std::basic_string<char,std::char_traits<char>,std::allocator<char> > & __ptr64>
PUBLIC	??$?0U?$_Wrap_alloc@V?$allocator@D@std@@@std@@X@?$_String_alloc@U?$_String_base_types@DV?$allocator@D@std@@@std@@@std@@QEAA@$$QEAU?$_Wrap_alloc@V?$allocator@D@std@@@1@@Z ; std::_String_alloc<std::_String_base_types<char,std::allocator<char> > >::_String_alloc<std::_String_base_types<char,std::allocator<char> > ><std::_Wrap_alloc<std::allocator<char> >,void>
PUBLIC	??$move@AEAU?$_Wrap_alloc@V?$allocator@D@std@@@std@@@std@@YA$$QEAU?$_Wrap_alloc@V?$allocator@D@std@@@0@AEAU10@@Z ; std::move<std::_Wrap_alloc<std::allocator<char> > & __ptr64>
PUBLIC	??$endl@_WU?$char_traits@_W@std@@@std@@YAAEAV?$basic_ostream@_WU?$char_traits@_W@std@@@0@AEAV10@@Z ; std::endl<wchar_t,std::char_traits<wchar_t> >
PUBLIC	??$?6_WU?$char_traits@_W@std@@@std@@YAAEAV?$basic_ostream@_WU?$char_traits@_W@std@@@0@AEAV10@PEBD@Z ; std::operator<<<wchar_t,std::char_traits<wchar_t> >
PUBLIC	??$?6DU?$char_traits@D@std@@V?$allocator@D@1@@std@@YAAEAV?$basic_ostream@DU?$char_traits@D@std@@@0@AEAV10@AEBV?$basic_string@DU?$char_traits@D@std@@V?$allocator@D@2@@0@@Z ; std::operator<<<char,std::char_traits<char>,std::allocator<char> >
PUBLIC	??$next@V?$_String_const_iterator@V?$_String_val@U?$_Simple_types@D@std@@@std@@@std@@@std@@YA?AV?$_String_const_iterator@V?$_String_val@U?$_Simple_types@D@std@@@std@@@0@V10@_J@Z ; std::next<std::_String_const_iterator<std::_String_val<std::_Simple_types<char> > > >
PUBLIC	??$endl@DU?$char_traits@D@std@@@std@@YAAEAV?$basic_ostream@DU?$char_traits@D@std@@@0@AEAV10@@Z ; std::endl<char,std::char_traits<char> >
PUBLIC	??$?6U?$char_traits@D@std@@@std@@YAAEAV?$basic_ostream@DU?$char_traits@D@std@@@0@AEAV10@D@Z ; std::operator<<<std::char_traits<char> >
PUBLIC	??$?6U?$char_traits@D@std@@@std@@YAAEAV?$basic_ostream@DU?$char_traits@D@std@@@0@AEAV10@PEBD@Z ; std::operator<<<std::char_traits<char> >
PUBLIC	??$cend@V?$basic_string@DU?$char_traits@D@std@@V?$allocator@D@2@@std@@@std@@YA?AV?$_String_const_iterator@V?$_String_val@U?$_Simple_types@D@std@@@std@@@0@AEBV?$basic_string@DU?$char_traits@D@std@@V?$allocator@D@2@@0@@Z ; std::cend<std::basic_string<char,std::char_traits<char>,std::allocator<char> > >
PUBLIC	??$cbegin@V?$basic_string@DU?$char_traits@D@std@@V?$allocator@D@2@@std@@@std@@YA?AV?$_String_const_iterator@V?$_String_val@U?$_Simple_types@D@std@@@std@@@0@AEBV?$basic_string@DU?$char_traits@D@std@@V?$allocator@D@2@@0@@Z ; std::cbegin<std::basic_string<char,std::char_traits<char>,std::allocator<char> > >
PUBLIC	??$?HDU?$char_traits@D@std@@V?$allocator@D@1@@std@@YA?AV?$basic_string@DU?$char_traits@D@std@@V?$allocator@D@2@@0@$$QEAV10@0@Z ; std::operator+<char,std::char_traits<char>,std::allocator<char> >
PUBLIC	??$?HDU?$char_traits@D@std@@V?$allocator@D@1@@std@@YA?AV?$basic_string@DU?$char_traits@D@std@@V?$allocator@D@2@@0@$$QEAV10@AEBV10@@Z ; std::operator+<char,std::char_traits<char>,std::allocator<char> >
PUBLIC	??$?HDU?$char_traits@D@std@@V?$allocator@D@1@@std@@YA?AV?$basic_string@DU?$char_traits@D@std@@V?$allocator@D@2@@0@$$QEAV10@QEBD@Z ; std::operator+<char,std::char_traits<char>,std::allocator<char> >
PUBLIC	??$?HDU?$char_traits@D@std@@V?$allocator@D@1@@std@@YA?AV?$basic_string@DU?$char_traits@D@std@@V?$allocator@D@2@@0@QEBD$$QEAV10@@Z ; std::operator+<char,std::char_traits<char>,std::allocator<char> >
PUBLIC	??$end@D$0BF@@std@@YAPEADAEAY0BF@D@Z		; std::end<char,21>
PUBLIC	??$_Integral_to_string@DH@std@@YA?AV?$basic_string@DU?$char_traits@D@std@@V?$allocator@D@2@@0@H@Z ; std::_Integral_to_string<char,int>
PUBLIC	??$_Immortalize@V_Iostream_error_category@std@@@std@@YAAEAV_Iostream_error_category@0@XZ ; std::_Immortalize<std::_Iostream_error_category>
PUBLIC	??$use_facet@V?$ctype@D@std@@@std@@YAAEBV?$ctype@D@0@AEBVlocale@0@@Z ; std::use_facet<std::ctype<char> >
PUBLIC	?max_size@?$allocator@D@std@@QEBA_KXZ		; std::allocator<char>::max_size
PUBLIC	?max_size@?$allocator_traits@V?$allocator@D@std@@@std@@SA_KAEBV?$allocator@D@2@@Z ; std::allocator_traits<std::allocator<char> >::max_size
PUBLIC	?allocate@?$allocator@D@std@@QEAAPEAD_K@Z	; std::allocator<char>::allocate
PUBLIC	?max_size@?$_Wrap_alloc@V?$allocator@D@std@@@std@@QEBA_KU_Nil@2@@Z ; std::_Wrap_alloc<std::allocator<char> >::max_size
PUBLIC	?max_size@?$basic_string@DU?$char_traits@D@std@@V?$allocator@D@2@@std@@QEBA_KXZ ; std::basic_string<char,std::char_traits<char>,std::allocator<char> >::max_size
PUBLIC	?allocate@?$_Wrap_alloc@V?$allocator@D@std@@@std@@QEAAPEAD_K@Z ; std::_Wrap_alloc<std::allocator<char> >::allocate
PUBLIC	??0?$allocator@D@std@@QEAA@AEBV01@@Z		; std::allocator<char>::allocator<char>
PUBLIC	?deallocate@?$allocator@D@std@@QEAAXPEAD_K@Z	; std::allocator<char>::deallocate
PUBLIC	?erase@?$basic_string@DU?$char_traits@D@std@@V?$allocator@D@2@@std@@QEAAAEAV12@_K@Z ; std::basic_string<char,std::char_traits<char>,std::allocator<char> >::erase
PUBLIC	?erase@?$basic_string@DU?$char_traits@D@std@@V?$allocator@D@2@@std@@QEAAAEAV12@_K0@Z ; std::basic_string<char,std::char_traits<char>,std::allocator<char> >::erase
PUBLIC	?_Copy@?$basic_string@DU?$char_traits@D@std@@V?$allocator@D@2@@std@@QEAAX_K@Z ; std::basic_string<char,std::char_traits<char>,std::allocator<char> >::_Copy
PUBLIC	?_Tidy_deallocate@?$basic_string@DU?$char_traits@D@std@@V?$allocator@D@2@@std@@QEAAXXZ ; std::basic_string<char,std::char_traits<char>,std::allocator<char> >::_Tidy_deallocate
PUBLIC	?_Xran@?$basic_string@DU?$char_traits@D@std@@V?$allocator@D@2@@std@@SAXXZ ; std::basic_string<char,std::char_traits<char>,std::allocator<char> >::_Xran
PUBLIC	?_Copy_alloc@?$_String_alloc@U?$_String_base_types@DV?$allocator@D@std@@@std@@@std@@QEAAXAEBU?$_Wrap_alloc@V?$allocator@D@std@@@2@@Z ; std::_String_alloc<std::_String_base_types<char,std::allocator<char> > >::_Copy_alloc
PUBLIC	?_Orphan_all@?$_String_alloc@U?$_String_base_types@DV?$allocator@D@std@@@std@@@std@@QEAAXXZ ; std::_String_alloc<std::_String_base_types<char,std::allocator<char> > >::_Orphan_all
PUBLIC	?_Get_second@?$_Compressed_pair@U?$_Wrap_alloc@V?$allocator@D@std@@@std@@V?$_String_val@U?$_Simple_types@D@std@@@2@$00@std@@QEAAAEAV?$_String_val@U?$_Simple_types@D@std@@@2@XZ ; std::_Compressed_pair<std::_Wrap_alloc<std::allocator<char> >,std::_String_val<std::_Simple_types<char> >,1>::_Get_second
PUBLIC	?_Get_second@?$_Compressed_pair@U?$_Wrap_alloc@V?$allocator@D@std@@@std@@V?$_String_val@U?$_Simple_types@D@std@@@2@$00@std@@QEBAAEBV?$_String_val@U?$_Simple_types@D@std@@@2@XZ ; std::_Compressed_pair<std::_Wrap_alloc<std::allocator<char> >,std::_String_val<std::_Simple_types<char> >,1>::_Get_second
PUBLIC	??4?$basic_string@DU?$char_traits@D@std@@V?$allocator@D@2@@std@@QEAAAEAV01@AEBV01@@Z ; std::basic_string<char,std::char_traits<char>,std::allocator<char> >::operator=
PUBLIC	?assign@?$basic_string@DU?$char_traits@D@std@@V?$allocator@D@2@@std@@QEAAAEAV12@AEBV12@_K_K@Z ; std::basic_string<char,std::char_traits<char>,std::allocator<char> >::assign
PUBLIC	?_Clamp_suffix_size@?$basic_string@DU?$char_traits@D@std@@V?$allocator@D@2@@std@@QEBA_K_K0@Z ; std::basic_string<char,std::char_traits<char>,std::allocator<char> >::_Clamp_suffix_size
PUBLIC	?_Eos@?$basic_string@DU?$char_traits@D@std@@V?$allocator@D@2@@std@@QEAAX_K@Z ; std::basic_string<char,std::char_traits<char>,std::allocator<char> >::_Eos
PUBLIC	?_Grow@?$basic_string@DU?$char_traits@D@std@@V?$allocator@D@2@@std@@QEAA_N_K@Z ; std::basic_string<char,std::char_traits<char>,std::allocator<char> >::_Grow
PUBLIC	?_Inside@?$basic_string@DU?$char_traits@D@std@@V?$allocator@D@2@@std@@QEBA_NQEBD@Z ; std::basic_string<char,std::char_traits<char>,std::allocator<char> >::_Inside
PUBLIC	?_Xlen@?$basic_string@DU?$char_traits@D@std@@V?$allocator@D@2@@std@@SAXXZ ; std::basic_string<char,std::char_traits<char>,std::allocator<char> >::_Xlen
PUBLIC	?_Check_offset@?$basic_string@DU?$char_traits@D@std@@V?$allocator@D@2@@std@@QEBAX_K@Z ; std::basic_string<char,std::char_traits<char>,std::allocator<char> >::_Check_offset
PUBLIC	?_Get_data@?$_String_alloc@U?$_String_base_types@DV?$allocator@D@std@@@std@@@std@@QEAAAEAV?$_String_val@U?$_Simple_types@D@std@@@2@XZ ; std::_String_alloc<std::_String_base_types<char,std::allocator<char> > >::_Get_data
PUBLIC	?_Get_data@?$_String_alloc@U?$_String_base_types@DV?$allocator@D@std@@@std@@@std@@QEBAAEBV?$_String_val@U?$_Simple_types@D@std@@@2@XZ ; std::_String_alloc<std::_String_base_types<char,std::allocator<char> > >::_Get_data
PUBLIC	?_Mysize@?$_String_alloc@U?$_String_base_types@DV?$allocator@D@std@@@std@@@std@@QEAAAEA_KXZ ; std::_String_alloc<std::_String_base_types<char,std::allocator<char> > >::_Mysize
PUBLIC	?_Myres@?$_String_alloc@U?$_String_base_types@DV?$allocator@D@std@@@std@@@std@@QEAAAEA_KXZ ; std::_String_alloc<std::_String_base_types<char,std::allocator<char> > >::_Myres
PUBLIC	?_Myres@?$_String_alloc@U?$_String_base_types@DV?$allocator@D@std@@@std@@@std@@QEBAAEB_KXZ ; std::_String_alloc<std::_String_base_types<char,std::allocator<char> > >::_Myres
PUBLIC	?deallocate@?$_Wrap_alloc@V?$allocator@D@std@@@std@@QEAAXPEAD_K@Z ; std::_Wrap_alloc<std::allocator<char> >::deallocate
PUBLIC	?select_on_container_copy_construction@?$allocator_traits@V?$allocator@D@std@@@std@@SA?AV?$allocator@D@2@AEBV32@@Z ; std::allocator_traits<std::allocator<char> >::select_on_container_copy_construction
PUBLIC	?_Myptr@?$_String_val@U?$_Simple_types@D@std@@@std@@QEAAPEADXZ ; std::_String_val<std::_Simple_types<char> >::_Myptr
PUBLIC	?_Myptr@?$_String_val@U?$_Simple_types@D@std@@@std@@QEBAPEBDXZ ; std::_String_val<std::_Simple_types<char> >::_Myptr
PUBLIC	?_Large_string_engaged@?$_String_val@U?$_Simple_types@D@std@@@std@@QEBA_NXZ ; std::_String_val<std::_Simple_types<char> >::_Large_string_engaged
PUBLIC	?_Get_first@?$_Compressed_pair@U?$_Wrap_alloc@V?$allocator@D@std@@@std@@V?$_String_val@U?$_Simple_types@D@std@@@2@$00@std@@QEAAAEAU?$_Wrap_alloc@V?$allocator@D@std@@@2@XZ ; std::_Compressed_pair<std::_Wrap_alloc<std::allocator<char> >,std::_String_val<std::_Simple_types<char> >,1>::_Get_first
PUBLIC	?_Get_first@?$_Compressed_pair@U?$_Wrap_alloc@V?$allocator@D@std@@@std@@V?$_String_val@U?$_Simple_types@D@std@@@2@$00@std@@QEBAAEBU?$_Wrap_alloc@V?$allocator@D@std@@@2@XZ ; std::_Compressed_pair<std::_Wrap_alloc<std::allocator<char> >,std::_String_val<std::_Simple_types<char> >,1>::_Get_first
PUBLIC	??4Error@@QEAAAEAV0@AEBV0@@Z			; Error::operator=
PUBLIC	?_Assign_rv_contents@?$basic_string@DU?$char_traits@D@std@@V?$allocator@D@2@@std@@QEAAX$$QEAV12@@Z ; std::basic_string<char,std::char_traits<char>,std::allocator<char> >::_Assign_rv_contents
PUBLIC	?_Assign_lv_contents@?$basic_string@DU?$char_traits@D@std@@V?$allocator@D@2@@std@@QEAAXAEBV12@@Z ; std::basic_string<char,std::char_traits<char>,std::allocator<char> >::_Assign_lv_contents
PUBLIC	?append@?$basic_string@DU?$char_traits@D@std@@V?$allocator@D@2@@std@@QEAAAEAV12@AEBV12@_K_K@Z ; std::basic_string<char,std::char_traits<char>,std::allocator<char> >::append
PUBLIC	?append@?$basic_string@DU?$char_traits@D@std@@V?$allocator@D@2@@std@@QEAAAEAV12@QEBD_K@Z ; std::basic_string<char,std::char_traits<char>,std::allocator<char> >::append
PUBLIC	?assign@?$basic_string@DU?$char_traits@D@std@@V?$allocator@D@2@@std@@QEAAAEAV12@QEBD_K@Z ; std::basic_string<char,std::char_traits<char>,std::allocator<char> >::assign
PUBLIC	?assign@?$basic_string@DU?$char_traits@D@std@@V?$allocator@D@2@@std@@QEAAAEAV12@QEBD@Z ; std::basic_string<char,std::char_traits<char>,std::allocator<char> >::assign
PUBLIC	?size@?$basic_string@DU?$char_traits@D@std@@V?$allocator@D@2@@std@@QEBA_KXZ ; std::basic_string<char,std::char_traits<char>,std::allocator<char> >::size
PUBLIC	?capacity@?$basic_string@DU?$char_traits@D@std@@V?$allocator@D@2@@std@@QEBA_KXZ ; std::basic_string<char,std::char_traits<char>,std::allocator<char> >::capacity
PUBLIC	?_Tidy_init@?$basic_string@DU?$char_traits@D@std@@V?$allocator@D@2@@std@@QEAAXXZ ; std::basic_string<char,std::char_traits<char>,std::allocator<char> >::_Tidy_init
PUBLIC	?_Tidy_deallocate_only@?$basic_string@DU?$char_traits@D@std@@V?$allocator@D@2@@std@@QEAAXXZ ; std::basic_string<char,std::char_traits<char>,std::allocator<char> >::_Tidy_deallocate_only
PUBLIC	?_Myptr@?$_String_alloc@U?$_String_base_types@DV?$allocator@D@std@@@std@@@std@@QEAAPEADXZ ; std::_String_alloc<std::_String_base_types<char,std::allocator<char> > >::_Myptr
PUBLIC	?_Myptr@?$_String_alloc@U?$_String_base_types@DV?$allocator@D@std@@@std@@@std@@QEBAPEBDXZ ; std::_String_alloc<std::_String_base_types<char,std::allocator<char> > >::_Myptr
PUBLIC	??0?$_String_alloc@U?$_String_base_types@DV?$allocator@D@std@@@std@@@std@@QEAA@XZ ; std::_String_alloc<std::_String_base_types<char,std::allocator<char> > >::_String_alloc<std::_String_base_types<char,std::allocator<char> > >
PUBLIC	?_Getal@?$_String_alloc@U?$_String_base_types@DV?$allocator@D@std@@@std@@@std@@QEAAAEAU?$_Wrap_alloc@V?$allocator@D@std@@@2@XZ ; std::_String_alloc<std::_String_base_types<char,std::allocator<char> > >::_Getal
PUBLIC	?_Getal@?$_String_alloc@U?$_String_base_types@DV?$allocator@D@std@@@std@@@std@@QEBAAEBU?$_Wrap_alloc@V?$allocator@D@std@@@2@XZ ; std::_String_alloc<std::_String_base_types<char,std::allocator<char> > >::_Getal
PUBLIC	?_Mysize@?$_String_alloc@U?$_String_base_types@DV?$allocator@D@std@@@std@@@std@@QEBAAEB_KXZ ; std::_String_alloc<std::_String_base_types<char,std::allocator<char> > >::_Mysize
PUBLIC	?select_on_container_copy_construction@?$_Wrap_alloc@V?$allocator@D@std@@@std@@QEBA?AU12@U_Nil@2@@Z ; std::_Wrap_alloc<std::allocator<char> >::select_on_container_copy_construction
PUBLIC	?_Compat@?$_String_const_iterator@V?$_String_val@U?$_Simple_types@D@std@@@std@@@std@@QEBAXAEBV12@@Z ; std::_String_const_iterator<std::_String_val<std::_Simple_types<char> > >::_Compat
PUBLIC	??1_Bxty@?$_String_val@U?$_Simple_types@D@std@@@std@@QEAA@XZ ; std::_String_val<std::_Simple_types<char> >::_Bxty::~_Bxty
PUBLIC	?_Tidy@?$_Yarn@D@std@@AEAAXXZ			; std::_Yarn<char>::_Tidy
PUBLIC	?_Tidy@?$_Yarn@_W@std@@AEAAXXZ			; std::_Yarn<wchar_t>::_Tidy
PUBLIC	??0?$Result@DV?$Stream@V?$_String_const_iterator@V?$_String_val@U?$_Simple_types@D@std@@@std@@@std@@@@@@QEAA@AEBV0@@Z ; Result<char,Stream<std::_String_const_iterator<std::_String_val<std::_Simple_types<char> > > > >::Result<char,Stream<std::_String_const_iterator<std::_String_val<std::_Simple_types<char> > > > >
PUBLIC	??1?$_String_val@U?$_Simple_types@D@std@@@std@@QEAA@XZ ; std::_String_val<std::_Simple_types<char> >::~_String_val<std::_Simple_types<char> >
PUBLIC	??1?$_Compressed_pair@U?$_Wrap_alloc@V?$allocator@D@std@@@std@@V?$_String_val@U?$_Simple_types@D@std@@@2@$00@std@@QEAA@XZ ; std::_Compressed_pair<std::_Wrap_alloc<std::allocator<char> >,std::_String_val<std::_Simple_types<char> >,1>::~_Compressed_pair<std::_Wrap_alloc<std::allocator<char> >,std::_String_val<std::_Simple_types<char> >,1>
PUBLIC	??1?$_String_alloc@U?$_String_base_types@DV?$allocator@D@std@@@std@@@std@@QEAA@XZ ; std::_String_alloc<std::_String_base_types<char,std::allocator<char> > >::~_String_alloc<std::_String_base_types<char,std::allocator<char> > >
PUBLIC	??_GError@@QEAAPEAXI@Z				; Error::`scalar deleting destructor'
PUBLIC	??6?$basic_ostream@DU?$char_traits@D@std@@@std@@QEAAAEAV01@P6AAEAV01@AEAV01@@Z@Z ; std::basic_ostream<char,std::char_traits<char> >::operator<<
PUBLIC	??6?$basic_ostream@_WU?$char_traits@_W@std@@@std@@QEAAAEAV01@P6AAEAV01@AEAV01@@Z@Z ; std::basic_ostream<wchar_t,std::char_traits<wchar_t> >::operator<<
PUBLIC	??0?$basic_string@DU?$char_traits@D@std@@V?$allocator@D@2@@std@@QEAA@AEBV01@@Z ; std::basic_string<char,std::char_traits<char>,std::allocator<char> >::basic_string<char,std::char_traits<char>,std::allocator<char> >
PUBLIC	??0?$basic_string@DU?$char_traits@D@std@@V?$allocator@D@2@@std@@QEAA@QEBD@Z ; std::basic_string<char,std::char_traits<char>,std::allocator<char> >::basic_string<char,std::char_traits<char>,std::allocator<char> >
PUBLIC	??0?$basic_string@DU?$char_traits@D@std@@V?$allocator@D@2@@std@@QEAA@$$QEAV01@@Z ; std::basic_string<char,std::char_traits<char>,std::allocator<char> >::basic_string<char,std::char_traits<char>,std::allocator<char> >
PUBLIC	??1?$basic_string@DU?$char_traits@D@std@@V?$allocator@D@2@@std@@QEAA@XZ ; std::basic_string<char,std::char_traits<char>,std::allocator<char> >::~basic_string<char,std::char_traits<char>,std::allocator<char> >
PUBLIC	?append@?$basic_string@DU?$char_traits@D@std@@V?$allocator@D@2@@std@@QEAAAEAV12@AEBV12@@Z ; std::basic_string<char,std::char_traits<char>,std::allocator<char> >::append
PUBLIC	?append@?$basic_string@DU?$char_traits@D@std@@V?$allocator@D@2@@std@@QEAAAEAV12@QEBD@Z ; std::basic_string<char,std::char_traits<char>,std::allocator<char> >::append
PUBLIC	?c_str@?$basic_string@DU?$char_traits@D@std@@V?$allocator@D@2@@std@@QEBAPEBDXZ ; std::basic_string<char,std::char_traits<char>,std::allocator<char> >::c_str
PUBLIC	?empty@?$basic_string@DU?$char_traits@D@std@@V?$allocator@D@2@@std@@QEBA_NXZ ; std::basic_string<char,std::char_traits<char>,std::allocator<char> >::empty
PUBLIC	??D?$_String_const_iterator@V?$_String_val@U?$_Simple_types@D@std@@@std@@@std@@QEBAAEBDXZ ; std::_String_const_iterator<std::_String_val<std::_Simple_types<char> > >::operator*
PUBLIC	??8?$_String_const_iterator@V?$_String_val@U?$_Simple_types@D@std@@@std@@@std@@QEBA_NAEBV01@@Z ; std::_String_const_iterator<std::_String_val<std::_Simple_types<char> > >::operator==
PUBLIC	??0?$_Yarn@D@std@@QEAA@XZ			; std::_Yarn<char>::_Yarn<char>
PUBLIC	??1?$_Yarn@D@std@@QEAA@XZ			; std::_Yarn<char>::~_Yarn<char>
PUBLIC	?c_str@?$_Yarn@D@std@@QEBAPEBDXZ		; std::_Yarn<char>::c_str
PUBLIC	??0?$_Yarn@_W@std@@QEAA@XZ			; std::_Yarn<wchar_t>::_Yarn<wchar_t>
PUBLIC	??1?$_Yarn@_W@std@@QEAA@XZ			; std::_Yarn<wchar_t>::~_Yarn<wchar_t>
PUBLIC	??0?$Stream@V?$_String_const_iterator@V?$_String_val@U?$_Simple_types@D@std@@@std@@@std@@@@QEAA@AEBV?$_String_const_iterator@V?$_String_val@U?$_Simple_types@D@std@@@std@@@std@@0@Z ; Stream<std::_String_const_iterator<std::_String_val<std::_Simple_types<char> > > >::Stream<std::_String_const_iterator<std::_String_val<std::_Simple_types<char> > > >
PUBLIC	??0?$Result@DV?$Stream@V?$_String_const_iterator@V?$_String_val@U?$_Simple_types@D@std@@@std@@@std@@@@@@QEAA@AEBDAEBV?$Stream@V?$_String_const_iterator@V?$_String_val@U?$_Simple_types@D@std@@@std@@@std@@@@@Z ; Result<char,Stream<std::_String_const_iterator<std::_String_val<std::_Simple_types<char> > > > >::Result<char,Stream<std::_String_const_iterator<std::_String_val<std::_Simple_types<char> > > > >
PUBLIC	??0?$Result@DV?$Stream@V?$_String_const_iterator@V?$_String_val@U?$_Simple_types@D@std@@@std@@@std@@@@@@QEAA@AEBVError@@AEBV?$Stream@V?$_String_const_iterator@V?$_String_val@U?$_Simple_types@D@std@@@std@@@std@@@@@Z ; Result<char,Stream<std::_String_const_iterator<std::_String_val<std::_Simple_types<char> > > > >::Result<char,Stream<std::_String_const_iterator<std::_String_val<std::_Simple_types<char> > > > >
PUBLIC	??1?$Result@DV?$Stream@V?$_String_const_iterator@V?$_String_val@U?$_Simple_types@D@std@@@std@@@std@@@@@@QEAA@XZ ; Result<char,Stream<std::_String_const_iterator<std::_String_val<std::_Simple_types<char> > > > >::~Result<char,Stream<std::_String_const_iterator<std::_String_val<std::_Simple_types<char> > > > >
PUBLIC	?RunParser@?$ItemParser@DV?$Stream@V?$_String_const_iterator@V?$_String_val@U?$_Simple_types@D@std@@@std@@@std@@@@@@QEAA?AV?$Result@DV?$Stream@V?$_String_const_iterator@V?$_String_val@U?$_Simple_types@D@std@@@std@@@std@@@@@@AEBV?$Stream@V?$_String_const_iterator@V?$_String_val@U?$_Simple_types@D@std@@@std@@@std@@@@@Z ; ItemParser<char,Stream<std::_String_const_iterator<std::_String_val<std::_Simple_types<char> > > > >::RunParser
PUBLIC	?RunParser@?$EosParser@V?$Stream@V?$_String_const_iterator@V?$_String_val@U?$_Simple_types@D@std@@@std@@@std@@@@@@QEAA?AV?$Result@DV?$Stream@V?$_String_const_iterator@V?$_String_val@U?$_Simple_types@D@std@@@std@@@std@@@@@@AEBV?$Stream@V?$_String_const_iterator@V?$_String_val@U?$_Simple_types@D@std@@@std@@@std@@@@@Z ; EosParser<Stream<std::_String_const_iterator<std::_String_val<std::_Simple_types<char> > > > >::RunParser
PUBLIC	??0?$OrParser@DV?$Stream@V?$_String_const_iterator@V?$_String_val@U?$_Simple_types@D@std@@@std@@@std@@@@V?$ItemParser@DV?$Stream@V?$_String_const_iterator@V?$_String_val@U?$_Simple_types@D@std@@@std@@@std@@@@@@V?$EosParser@V?$Stream@V?$_String_const_iterator@V?$_String_val@U?$_Simple_types@D@std@@@std@@@std@@@@@@@@QEAA@V?$ItemParser@DV?$Stream@V?$_String_const_iterator@V?$_String_val@U?$_Simple_types@D@std@@@std@@@std@@@@@@V?$EosParser@V?$Stream@V?$_String_const_iterator@V?$_String_val@U?$_Simple_types@D@std@@@std@@@std@@@@@@@Z ; OrParser<char,Stream<std::_String_const_iterator<std::_String_val<std::_Simple_types<char> > > >,ItemParser<char,Stream<std::_String_const_iterator<std::_String_val<std::_Simple_types<char> > > > >,EosParser<Stream<std::_String_const_iterator<std::_String_val<std::_Simple_types<char> > > > > >::OrParser<char,Stream<std::_String_const_iterator<std::_String_val<std::_Simple_types<char> > > >,ItemParser<char,Stream<std::_String_const_iterator<std::_String_val<std::_Simple_types<char> > > > >,EosParser<Stream<std::_String_const_iterator<std::_String_val<std::_Simple_types<char> > > > > >
PUBLIC	?hasError@?$Result@DV?$Stream@V?$_String_const_iterator@V?$_String_val@U?$_Simple_types@D@std@@@std@@@std@@@@@@QEBA_NXZ ; Result<char,Stream<std::_String_const_iterator<std::_String_val<std::_Simple_types<char> > > > >::hasError
PUBLIC	?RunParser@?$OrParser@DV?$Stream@V?$_String_const_iterator@V?$_String_val@U?$_Simple_types@D@std@@@std@@@std@@@@V?$ItemParser@DV?$Stream@V?$_String_const_iterator@V?$_String_val@U?$_Simple_types@D@std@@@std@@@std@@@@@@V?$EosParser@V?$Stream@V?$_String_const_iterator@V?$_String_val@U?$_Simple_types@D@std@@@std@@@std@@@@@@@@QEAA?AV?$Result@DV?$Stream@V?$_String_const_iterator@V?$_String_val@U?$_Simple_types@D@std@@@std@@@std@@@@@@AEBV?$Stream@V?$_String_const_iterator@V?$_String_val@U?$_Simple_types@D@std@@@std@@@std@@@@@Z ; OrParser<char,Stream<std::_String_const_iterator<std::_String_val<std::_Simple_types<char> > > >,ItemParser<char,Stream<std::_String_const_iterator<std::_String_val<std::_Simple_types<char> > > > >,EosParser<Stream<std::_String_const_iterator<std::_String_val<std::_Simple_types<char> > > > > >::RunParser
PUBLIC	??0Error@@QEAA@AEBV0@@Z				; Error::Error
PUBLIC	??1Error@@QEAA@XZ				; Error::~Error
PUBLIC	?item@?$Result@DV?$Stream@V?$_String_const_iterator@V?$_String_val@U?$_Simple_types@D@std@@@std@@@std@@@@@@QEBADXZ ; Result<char,Stream<std::_String_const_iterator<std::_String_val<std::_Simple_types<char> > > > >::item
PUBLIC	?error@?$Result@DV?$Stream@V?$_String_const_iterator@V?$_String_val@U?$_Simple_types@D@std@@@std@@@std@@@@@@QEBA?AVError@@XZ ; Result<char,Stream<std::_String_const_iterator<std::_String_val<std::_Simple_types<char> > > > >::error
PUBLIC	?next@?$Stream@V?$_String_const_iterator@V?$_String_val@U?$_Simple_types@D@std@@@std@@@std@@@@QEBA?AV1@XZ ; Stream<std::_String_const_iterator<std::_String_val<std::_Simple_types<char> > > >::next
PUBLIC	?current@?$Stream@V?$_String_const_iterator@V?$_String_val@U?$_Simple_types@D@std@@@std@@@std@@@@QEBAAEBDXZ ; Stream<std::_String_const_iterator<std::_String_val<std::_Simple_types<char> > > >::current
PUBLIC	?end@?$Stream@V?$_String_const_iterator@V?$_String_val@U?$_Simple_types@D@std@@@std@@@std@@@@QEBA_NXZ ; Stream<std::_String_const_iterator<std::_String_val<std::_Simple_types<char> > > >::end
PUBLIC	??$make_stream@V?$basic_string@DU?$char_traits@D@std@@V?$allocator@D@2@@std@@@@YA?AV?$Stream@V?$_String_const_iterator@V?$_String_val@U?$_Simple_types@D@std@@@std@@@std@@@@AEBV?$basic_string@DU?$char_traits@D@std@@V?$allocator@D@2@@std@@@Z ; make_stream<std::basic_string<char,std::char_traits<char>,std::allocator<char> > >
PUBLIC	main
PUBLIC	?formattedMessage@Error@@QEBA?AV?$basic_string@DU?$char_traits@D@std@@V?$allocator@D@2@@std@@XZ ; Error::formattedMessage
PUBLIC	??0Error@@QEAA@HHAEBV?$basic_string@DU?$char_traits@D@std@@V?$allocator@D@2@@std@@@Z ; Error::Error
PUBLIC	?to_string@std@@YA?AV?$basic_string@DU?$char_traits@D@std@@V?$allocator@D@2@@1@H@Z ; std::to_string
PUBLIC	??0_System_error@std@@QEAA@AEBV01@@Z		; std::_System_error::_System_error
PUBLIC	??0system_error@std@@QEAA@AEBV01@@Z		; std::system_error::system_error
PUBLIC	??0failure@ios_base@std@@QEAA@AEBV012@@Z	; std::ios_base::failure::failure
PUBLIC	??1failure@ios_base@std@@UEAA@XZ		; std::ios_base::failure::~failure
PUBLIC	??_Gfailure@ios_base@std@@UEAAPEAXI@Z		; std::ios_base::failure::`scalar deleting destructor'
PUBLIC	?getloc@ios_base@std@@QEBA?AVlocale@2@XZ	; std::ios_base::getloc
PUBLIC	?width@ios_base@std@@QEAA_J_J@Z			; std::ios_base::width
PUBLIC	?width@ios_base@std@@QEBA_JXZ			; std::ios_base::width
PUBLIC	?flags@ios_base@std@@QEBAHXZ			; std::ios_base::flags
PUBLIC	?good@ios_base@std@@QEBA_NXZ			; std::ios_base::good
PUBLIC	?rdstate@ios_base@std@@QEBAHXZ			; std::ios_base::rdstate
PUBLIC	?clear@ios_base@std@@QEAAXH_N@Z			; std::ios_base::clear
PUBLIC	??0failure@ios_base@std@@QEAA@PEBDAEBVerror_code@2@@Z ; std::ios_base::failure::failure
PUBLIC	?iostream_category@std@@YAAEBVerror_category@1@XZ ; std::iostream_category
PUBLIC	??1_Iostream_error_category@std@@UEAA@XZ	; std::_Iostream_error_category::~_Iostream_error_category
PUBLIC	??_G_Iostream_error_category@std@@UEAAPEAXI@Z	; std::_Iostream_error_category::`scalar deleting destructor'
PUBLIC	?message@_Iostream_error_category@std@@UEBA?AV?$basic_string@DU?$char_traits@D@std@@V?$allocator@D@2@@2@H@Z ; std::_Iostream_error_category::message
PUBLIC	?name@_Iostream_error_category@std@@UEBAPEBDXZ	; std::_Iostream_error_category::name
PUBLIC	??0_Iostream_error_category@std@@QEAA@XZ	; std::_Iostream_error_category::_Iostream_error_category
PUBLIC	??1_Generic_error_category@std@@UEAA@XZ		; std::_Generic_error_category::~_Generic_error_category
PUBLIC	??_G_Generic_error_category@std@@UEAAPEAXI@Z	; std::_Generic_error_category::`scalar deleting destructor'
PUBLIC	?message@_Generic_error_category@std@@UEBA?AV?$basic_string@DU?$char_traits@D@std@@V?$allocator@D@2@@2@H@Z ; std::_Generic_error_category::message
PUBLIC	?name@_Generic_error_category@std@@UEBAPEBDXZ	; std::_Generic_error_category::name
PUBLIC	??0_Generic_error_category@std@@QEAA@XZ		; std::_Generic_error_category::_Generic_error_category
PUBLIC	??1system_error@std@@UEAA@XZ			; std::system_error::~system_error
PUBLIC	??_Gsystem_error@std@@UEAAPEAXI@Z		; std::system_error::`scalar deleting destructor'
PUBLIC	??0system_error@std@@QEAA@Verror_code@1@PEBD@Z	; std::system_error::system_error
PUBLIC	??1_System_error@std@@UEAA@XZ			; std::_System_error::~_System_error
PUBLIC	??_G_System_error@std@@UEAAPEAXI@Z		; std::_System_error::`scalar deleting destructor'
PUBLIC	??0_System_error@std@@IEAA@Verror_code@1@AEBV?$basic_string@DU?$char_traits@D@std@@V?$allocator@D@2@@1@@Z ; std::_System_error::_System_error
PUBLIC	?_Makestr@_System_error@std@@CA?AV?$basic_string@DU?$char_traits@D@std@@V?$allocator@D@2@@2@Verror_code@2@V32@@Z ; std::_System_error::_Makestr
PUBLIC	?make_error_code@std@@YA?AVerror_code@1@W4io_errc@1@@Z ; std::make_error_code
PUBLIC	?equivalent@error_category@std@@UEBA_NAEBVerror_code@2@H@Z ; std::error_category::equivalent
PUBLIC	?equivalent@error_category@std@@UEBA_NHAEBVerror_condition@2@@Z ; std::error_category::equivalent
PUBLIC	?default_error_condition@error_category@std@@UEBA?AVerror_condition@2@H@Z ; std::error_category::default_error_condition
PUBLIC	??8std@@YA_NAEBVerror_condition@0@0@Z		; std::operator==
PUBLIC	?category@error_condition@std@@QEBAAEBVerror_category@2@XZ ; std::error_condition::category
PUBLIC	?value@error_condition@std@@QEBAHXZ		; std::error_condition::value
PUBLIC	??0error_condition@std@@QEAA@HAEBVerror_category@1@@Z ; std::error_condition::error_condition
PUBLIC	?message@error_code@std@@QEBA?AV?$basic_string@DU?$char_traits@D@std@@V?$allocator@D@2@@2@XZ ; std::error_code::message
PUBLIC	?category@error_code@std@@QEBAAEBVerror_category@2@XZ ; std::error_code::category
PUBLIC	?value@error_code@std@@QEBAHXZ			; std::error_code::value
PUBLIC	??0error_code@std@@QEAA@HAEBVerror_category@1@@Z ; std::error_code::error_code
PUBLIC	??_Gerror_category@std@@UEAAPEAXI@Z		; std::error_category::`scalar deleting destructor'
PUBLIC	??8error_category@std@@QEBA_NAEBV01@@Z		; std::error_category::operator==
PUBLIC	??1error_category@std@@UEAA@XZ			; std::error_category::~error_category
PUBLIC	??0error_category@std@@QEAA@XZ			; std::error_category::error_category
PUBLIC	??_G?$ctype@_W@std@@MEAAPEAXI@Z			; std::ctype<wchar_t>::`scalar deleting destructor'
PUBLIC	?do_narrow@?$ctype@_W@std@@MEBAPEB_WPEB_W0DPEAD@Z ; std::ctype<wchar_t>::do_narrow
PUBLIC	?do_narrow@?$ctype@_W@std@@MEBAD_WD@Z		; std::ctype<wchar_t>::do_narrow
PUBLIC	?_Donarrow@?$ctype@_W@std@@IEBAD_WD@Z		; std::ctype<wchar_t>::_Donarrow
PUBLIC	?do_widen@?$ctype@_W@std@@MEBAPEBDPEBD0PEA_W@Z	; std::ctype<wchar_t>::do_widen
PUBLIC	?do_widen@?$ctype@_W@std@@MEBA_WD@Z		; std::ctype<wchar_t>::do_widen
PUBLIC	?_Dowiden@?$ctype@_W@std@@IEBA_WD@Z		; std::ctype<wchar_t>::_Dowiden
PUBLIC	?do_toupper@?$ctype@_W@std@@MEBAPEB_WPEA_WPEB_W@Z ; std::ctype<wchar_t>::do_toupper
PUBLIC	?do_toupper@?$ctype@_W@std@@MEBA_W_W@Z		; std::ctype<wchar_t>::do_toupper
PUBLIC	?do_tolower@?$ctype@_W@std@@MEBAPEB_WPEA_WPEB_W@Z ; std::ctype<wchar_t>::do_tolower
PUBLIC	?do_tolower@?$ctype@_W@std@@MEBA_W_W@Z		; std::ctype<wchar_t>::do_tolower
PUBLIC	?do_scan_not@?$ctype@_W@std@@MEBAPEB_WFPEB_W0@Z	; std::ctype<wchar_t>::do_scan_not
PUBLIC	?do_scan_is@?$ctype@_W@std@@MEBAPEB_WFPEB_W0@Z	; std::ctype<wchar_t>::do_scan_is
PUBLIC	?do_is@?$ctype@_W@std@@MEBAPEB_WPEB_W0PEAF@Z	; std::ctype<wchar_t>::do_is
PUBLIC	?do_is@?$ctype@_W@std@@MEBA_NF_W@Z		; std::ctype<wchar_t>::do_is
PUBLIC	?_Init@?$ctype@_W@std@@IEAAXAEBV_Locinfo@2@@Z	; std::ctype<wchar_t>::_Init
PUBLIC	??1?$ctype@_W@std@@MEAA@XZ			; std::ctype<wchar_t>::~ctype<wchar_t>
PUBLIC	?_Getcat@?$ctype@_W@std@@SA_KPEAPEBVfacet@locale@2@PEBV42@@Z ; std::ctype<wchar_t>::_Getcat
PUBLIC	??0?$ctype@_W@std@@QEAA@AEBV_Locinfo@1@_K@Z	; std::ctype<wchar_t>::ctype<wchar_t>
PUBLIC	?widen@?$ctype@_W@std@@QEBA_WD@Z		; std::ctype<wchar_t>::widen
PUBLIC	?is@?$ctype@_W@std@@QEBA_NF_W@Z			; std::ctype<wchar_t>::is
PUBLIC	??_G?$ctype@D@std@@MEAAPEAXI@Z			; std::ctype<char>::`scalar deleting destructor'
PUBLIC	?do_narrow@?$ctype@D@std@@MEBAPEBDPEBD0DPEAD@Z	; std::ctype<char>::do_narrow
PUBLIC	?do_narrow@?$ctype@D@std@@MEBADDD@Z		; std::ctype<char>::do_narrow
PUBLIC	?do_widen@?$ctype@D@std@@MEBAPEBDPEBD0PEAD@Z	; std::ctype<char>::do_widen
PUBLIC	?do_widen@?$ctype@D@std@@MEBADD@Z		; std::ctype<char>::do_widen
PUBLIC	?do_toupper@?$ctype@D@std@@MEBAPEBDPEADPEBD@Z	; std::ctype<char>::do_toupper
PUBLIC	?do_toupper@?$ctype@D@std@@MEBADD@Z		; std::ctype<char>::do_toupper
PUBLIC	?do_tolower@?$ctype@D@std@@MEBAPEBDPEADPEBD@Z	; std::ctype<char>::do_tolower
PUBLIC	?do_tolower@?$ctype@D@std@@MEBADD@Z		; std::ctype<char>::do_tolower
PUBLIC	?_Tidy@?$ctype@D@std@@IEAAXXZ			; std::ctype<char>::_Tidy
PUBLIC	?_Init@?$ctype@D@std@@IEAAXAEBV_Locinfo@2@@Z	; std::ctype<char>::_Init
PUBLIC	??1?$ctype@D@std@@MEAA@XZ			; std::ctype<char>::~ctype<char>
PUBLIC	?_Getcat@?$ctype@D@std@@SA_KPEAPEBVfacet@locale@2@PEBV42@@Z ; std::ctype<char>::_Getcat
PUBLIC	??0?$ctype@D@std@@QEAA@AEBV_Locinfo@1@_K@Z	; std::ctype<char>::ctype<char>
PUBLIC	?widen@?$ctype@D@std@@QEBADD@Z			; std::ctype<char>::widen
PUBLIC	??_Gctype_base@std@@UEAAPEAXI@Z			; std::ctype_base::`scalar deleting destructor'
PUBLIC	??1ctype_base@std@@UEAA@XZ			; std::ctype_base::~ctype_base
PUBLIC	??0ctype_base@std@@QEAA@_K@Z			; std::ctype_base::ctype_base
PUBLIC	??0_Facet_base@std@@QEAA@XZ			; std::_Facet_base::_Facet_base
PUBLIC	??_Gfacet@locale@std@@MEAAPEAXI@Z		; std::locale::facet::`scalar deleting destructor'
PUBLIC	?_Getfacet@locale@std@@QEBAPEBVfacet@12@_K@Z	; std::locale::_Getfacet
PUBLIC	?c_str@locale@std@@QEBAPEBDXZ			; std::locale::c_str
PUBLIC	??1locale@std@@QEAA@XZ				; std::locale::~locale
PUBLIC	??0locale@std@@QEAA@AEBV01@@Z			; std::locale::locale
PUBLIC	??1facet@locale@std@@MEAA@XZ			; std::locale::facet::~facet
PUBLIC	??0facet@locale@std@@IEAA@_K@Z			; std::locale::facet::facet
PUBLIC	?_Decref@facet@locale@std@@UEAAPEAV_Facet_base@3@XZ ; std::locale::facet::_Decref
PUBLIC	?_Incref@facet@locale@std@@UEAAXXZ		; std::locale::facet::_Incref
PUBLIC	??Bid@locale@std@@QEAA_KXZ			; std::locale::id::operator unsigned __int64
PUBLIC	??_G_Facet_base@std@@UEAAPEAXI@Z		; std::_Facet_base::`scalar deleting destructor'
PUBLIC	??1_Facet_base@std@@UEAA@XZ			; std::_Facet_base::~_Facet_base
PUBLIC	??0runtime_error@std@@QEAA@AEBV01@@Z		; std::runtime_error::runtime_error
PUBLIC	?_Getcvt@_Locinfo@std@@QEBA?AU_Cvtvec@@XZ	; std::_Locinfo::_Getcvt
PUBLIC	?_Getctype@_Locinfo@std@@QEBA?AU_Ctypevec@@XZ	; std::_Locinfo::_Getctype
PUBLIC	??1_Locinfo@std@@QEAA@XZ			; std::_Locinfo::~_Locinfo
PUBLIC	??0_Locinfo@std@@QEAA@PEBD@Z			; std::_Locinfo::_Locinfo
PUBLIC	??1bad_cast@std@@UEAA@XZ			; std::bad_cast::~bad_cast
PUBLIC	??_Gbad_cast@std@@UEAAPEAXI@Z			; std::bad_cast::`scalar deleting destructor'
PUBLIC	??0bad_cast@std@@QEAA@XZ			; std::bad_cast::bad_cast
PUBLIC	??1runtime_error@std@@UEAA@XZ			; std::runtime_error::~runtime_error
PUBLIC	??_Gruntime_error@std@@UEAAPEAXI@Z		; std::runtime_error::`scalar deleting destructor'
PUBLIC	??0runtime_error@std@@QEAA@PEBD@Z		; std::runtime_error::runtime_error
PUBLIC	??0runtime_error@std@@QEAA@AEBV?$basic_string@DU?$char_traits@D@std@@V?$allocator@D@2@@1@@Z ; std::runtime_error::runtime_error
PUBLIC	?_Deallocate@std@@YAXPEAX_K1@Z			; std::_Deallocate
PUBLIC	?_Allocate@std@@YAPEAX_K0_N@Z			; std::_Allocate
PUBLIC	?_Adopt@_Iterator_base0@std@@QEAAXPEBX@Z	; std::_Iterator_base0::_Adopt
PUBLIC	?_Orphan_all@_Container_base0@std@@QEAAXXZ	; std::_Container_base0::_Orphan_all
PUBLIC	?eof@?$char_traits@D@std@@SAHXZ			; std::char_traits<char>::eof
PUBLIC	?eq_int_type@?$char_traits@D@std@@SA_NAEBH0@Z	; std::char_traits<char>::eq_int_type
PUBLIC	?to_int_type@?$char_traits@D@std@@SAHAEBD@Z	; std::char_traits<char>::to_int_type
PUBLIC	?assign@?$char_traits@D@std@@SAXAEADAEBD@Z	; std::char_traits<char>::assign
PUBLIC	?move@?$char_traits@D@std@@SAPEADQEADQEBD_K@Z	; std::char_traits<char>::move
PUBLIC	?copy@?$char_traits@D@std@@SAPEADQEADQEBD_K@Z	; std::char_traits<char>::copy
PUBLIC	?length@?$char_traits@D@std@@SA_KQEBD@Z		; std::char_traits<char>::length
PUBLIC	?eof@?$char_traits@_W@std@@SAGXZ		; std::char_traits<wchar_t>::eof
PUBLIC	?eq_int_type@?$char_traits@_W@std@@SA_NAEBG0@Z	; std::char_traits<wchar_t>::eq_int_type
PUBLIC	?to_int_type@?$char_traits@_W@std@@SAGAEB_W@Z	; std::char_traits<wchar_t>::to_int_type
PUBLIC	??2@YAPEAX_KPEAX@Z				; operator new
PUBLIC	??_Gexception@std@@UEAAPEAXI@Z			; std::exception::`scalar deleting destructor'
PUBLIC	?what@exception@std@@UEBAPEBDXZ			; std::exception::what
PUBLIC	??1exception@std@@UEAA@XZ			; std::exception::~exception
PUBLIC	??0exception@std@@QEAA@AEBV01@@Z		; std::exception::exception
PUBLIC	??0exception@std@@QEAA@QEBDH@Z			; std::exception::exception
PUBLIC	??0exception@std@@QEAA@QEBD@Z			; std::exception::exception
PUBLIC	?$TSS0@?1???$_Immortalize@V_Iostream_error_category@std@@@std@@YAAEAV_Iostream_error_category@1@XZ@4HA ; TSS0<`template-parameter-2',unsigned int,std::V_Iostream_error_category::mortalize>
PUBLIC	?_Static@?1???$_Immortalize@V_Iostream_error_category@std@@@std@@YAAEAV_Iostream_error_category@1@XZ@4U?$_Immortalizer@V_Iostream_error_category@std@@@1@A ; `std::_Immortalize<std::_Iostream_error_category>'::`2'::_Static
EXTRN	??_E?$ctype@_W@std@@MEAAPEAXI@Z:PROC		; std::ctype<wchar_t>::`vector deleting destructor'
EXTRN	??_Ebad_cast@std@@UEAAPEAXI@Z:PROC		; std::bad_cast::`vector deleting destructor'
EXTRN	??_Efacet@locale@std@@MEAAPEAXI@Z:PROC		; std::locale::facet::`vector deleting destructor'
EXTRN	??_E_System_error@std@@UEAAPEAXI@Z:PROC		; std::_System_error::`vector deleting destructor'
EXTRN	??_Eexception@std@@UEAAPEAXI@Z:PROC		; std::exception::`vector deleting destructor'
EXTRN	??_Efailure@ios_base@std@@UEAAPEAXI@Z:PROC	; std::ios_base::failure::`vector deleting destructor'
EXTRN	??_E?$ctype@D@std@@MEAAPEAXI@Z:PROC		; std::ctype<char>::`vector deleting destructor'
EXTRN	??_E_Iostream_error_category@std@@UEAAPEAXI@Z:PROC ; std::_Iostream_error_category::`vector deleting destructor'
EXTRN	??_Esystem_error@std@@UEAAPEAXI@Z:PROC		; std::system_error::`vector deleting destructor'
EXTRN	??_Eruntime_error@std@@UEAAPEAXI@Z:PROC		; std::runtime_error::`vector deleting destructor'
EXTRN	??_Ectype_base@std@@UEAAPEAXI@Z:PROC		; std::ctype_base::`vector deleting destructor'
EXTRN	??_Eerror_category@std@@UEAAPEAXI@Z:PROC	; std::error_category::`vector deleting destructor'
EXTRN	??_E_Facet_base@std@@UEAAPEAXI@Z:PROC		; std::_Facet_base::`vector deleting destructor'
EXTRN	??_E_Generic_error_category@std@@UEAAPEAXI@Z:PROC ; std::_Generic_error_category::`vector deleting destructor'
EXTRN	_CxxThrowException:PROC
EXTRN	__GSHandlerCheck:PROC
EXTRN	__GSHandlerCheck_EH:PROC
EXTRN	memcpy:PROC
EXTRN	__security_cookie:QWORD
EXTRN	_tls_index:DWORD
;	COMDAT ?$TSS0@?1???$_Immortalize@V_Iostream_error_category@std@@@std@@YAAEAV_Iostream_error_category@1@XZ@4HA
_BSS	SEGMENT
?$TSS0@?1???$_Immortalize@V_Iostream_error_category@std@@@std@@YAAEAV_Iostream_error_category@1@XZ@4HA DD 01H DUP (?) ; TSS0<`template-parameter-2',unsigned int,std::V_Iostream_error_category::mortalize>
_BSS	ENDS
;	COMDAT ?_Static@?1???$_Immortalize@V_Iostream_error_category@std@@@std@@YAAEAV_Iostream_error_category@1@XZ@4U?$_Immortalizer@V_Iostream_error_category@std@@@1@A
_BSS	SEGMENT
?_Static@?1???$_Immortalize@V_Iostream_error_category@std@@@std@@YAAEAV_Iostream_error_category@1@XZ@4U?$_Immortalizer@V_Iostream_error_category@std@@@1@A DB 010H DUP (?) ; `std::_Immortalize<std::_Iostream_error_category>'::`2'::_Static
_BSS	ENDS
;	COMDAT pdata
pdata	SEGMENT
$pdata$??$use_facet@V?$ctype@_W@std@@@std@@YAAEBV?$ctype@_W@0@AEBVlocale@0@@Z DD imagerel $LN32
	DD	imagerel $LN32+326
	DD	imagerel $unwind$??$use_facet@V?$ctype@_W@std@@@std@@YAAEBV?$ctype@_W@0@AEBVlocale@0@@Z
pdata	ENDS
;	COMDAT pdata
pdata	SEGMENT
$pdata$??$_Insert_string@DU?$char_traits@D@std@@_K@std@@YAAEAV?$basic_ostream@DU?$char_traits@D@std@@@0@AEAV10@QEBD_K@Z DD imagerel $LN190
	DD	imagerel $LN190+772
	DD	imagerel $unwind$??$_Insert_string@DU?$char_traits@D@std@@_K@std@@YAAEAV?$basic_ostream@DU?$char_traits@D@std@@@0@AEAV10@QEBD_K@Z
pdata	ENDS
;	COMDAT pdata
pdata	SEGMENT
$pdata$?catch$12@?0???$_Insert_string@DU?$char_traits@D@std@@_K@std@@YAAEAV?$basic_ostream@DU?$char_traits@D@std@@@0@AEAV10@QEBD_K@Z@4HA DD imagerel ?catch$12@?0???$_Insert_string@DU?$char_traits@D@std@@_K@std@@YAAEAV?$basic_ostream@DU?$char_traits@D@std@@@0@AEAV10@QEBD_K@Z@4HA
	DD	imagerel ?catch$12@?0???$_Insert_string@DU?$char_traits@D@std@@_K@std@@YAAEAV?$basic_ostream@DU?$char_traits@D@std@@@0@AEAV10@QEBD_K@Z@4HA+83
	DD	imagerel $unwind$?catch$12@?0???$_Insert_string@DU?$char_traits@D@std@@_K@std@@YAAEAV?$basic_ostream@DU?$char_traits@D@std@@@0@AEAV10@QEBD_K@Z@4HA
pdata	ENDS
;	COMDAT pdata
pdata	SEGMENT
$pdata$??$?0PEADX@?$basic_string@DU?$char_traits@D@std@@V?$allocator@D@2@@std@@QEAA@PEAD0AEBV?$allocator@D@1@@Z DD imagerel $LN35
	DD	imagerel $LN35+50
	DD	imagerel $unwind$??$?0PEADX@?$basic_string@DU?$char_traits@D@std@@V?$allocator@D@2@@std@@QEAA@PEAD0AEBV?$allocator@D@1@@Z
pdata	ENDS
;	COMDAT pdata
pdata	SEGMENT
$pdata$?_Osfx@?$basic_ostream@DU?$char_traits@D@std@@@std@@QEAAXXZ DD imagerel $LN44
	DD	imagerel $LN44+275
	DD	imagerel $unwind$?_Osfx@?$basic_ostream@DU?$char_traits@D@std@@@std@@QEAAXXZ
pdata	ENDS
;	COMDAT pdata
pdata	SEGMENT
$pdata$?catch$0@?0??_Osfx@?$basic_ostream@DU?$char_traits@D@std@@@std@@QEAAXXZ@4HA DD imagerel ?catch$0@?0??_Osfx@?$basic_ostream@DU?$char_traits@D@std@@@std@@QEAAXXZ@4HA
	DD	imagerel ?catch$0@?0??_Osfx@?$basic_ostream@DU?$char_traits@D@std@@@std@@QEAAXXZ@4HA+27
	DD	imagerel $unwind$?catch$0@?0??_Osfx@?$basic_ostream@DU?$char_traits@D@std@@@std@@QEAAXXZ@4HA
pdata	ENDS
;	COMDAT pdata
pdata	SEGMENT
$pdata$?_Osfx@?$basic_ostream@_WU?$char_traits@_W@std@@@std@@QEAAXXZ DD imagerel $LN44
	DD	imagerel $LN44+275
	DD	imagerel $unwind$?_Osfx@?$basic_ostream@_WU?$char_traits@_W@std@@@std@@QEAAXXZ
pdata	ENDS
;	COMDAT pdata
pdata	SEGMENT
$pdata$?catch$0@?0??_Osfx@?$basic_ostream@_WU?$char_traits@_W@std@@@std@@QEAAXXZ@4HA DD imagerel ?catch$0@?0??_Osfx@?$basic_ostream@_WU?$char_traits@_W@std@@@std@@QEAAXXZ@4HA
	DD	imagerel ?catch$0@?0??_Osfx@?$basic_ostream@_WU?$char_traits@_W@std@@@std@@QEAAXXZ@4HA+27
	DD	imagerel $unwind$?catch$0@?0??_Osfx@?$basic_ostream@_WU?$char_traits@_W@std@@@std@@QEAAXXZ@4HA
pdata	ENDS
;	COMDAT pdata
pdata	SEGMENT
$pdata$?insert@?$basic_string@DU?$char_traits@D@std@@V?$allocator@D@2@@std@@QEAAAEAV12@_KAEBV12@0_K@Z DD imagerel $LN239
	DD	imagerel $LN239+45
	DD	imagerel $unwind$?insert@?$basic_string@DU?$char_traits@D@std@@V?$allocator@D@2@@std@@QEAAAEAV12@_KAEBV12@0_K@Z
pdata	ENDS
;	COMDAT pdata
pdata	SEGMENT
$pdata$0$?insert@?$basic_string@DU?$char_traits@D@std@@V?$allocator@D@2@@std@@QEAAAEAV12@_KAEBV12@0_K@Z DD imagerel $LN239+45
	DD	imagerel $LN239+77
	DD	imagerel $chain$0$?insert@?$basic_string@DU?$char_traits@D@std@@V?$allocator@D@2@@std@@QEAAAEAV12@_KAEBV12@0_K@Z
pdata	ENDS
;	COMDAT pdata
pdata	SEGMENT
$pdata$1$?insert@?$basic_string@DU?$char_traits@D@std@@V?$allocator@D@2@@std@@QEAAAEAV12@_KAEBV12@0_K@Z DD imagerel $LN239+77
	DD	imagerel $LN239+340
	DD	imagerel $chain$1$?insert@?$basic_string@DU?$char_traits@D@std@@V?$allocator@D@2@@std@@QEAAAEAV12@_KAEBV12@0_K@Z
pdata	ENDS
;	COMDAT pdata
pdata	SEGMENT
$pdata$3$?insert@?$basic_string@DU?$char_traits@D@std@@V?$allocator@D@2@@std@@QEAAAEAV12@_KAEBV12@0_K@Z DD imagerel $LN239+340
	DD	imagerel $LN239+346
	DD	imagerel $chain$3$?insert@?$basic_string@DU?$char_traits@D@std@@V?$allocator@D@2@@std@@QEAAAEAV12@_KAEBV12@0_K@Z
pdata	ENDS
;	COMDAT pdata
pdata	SEGMENT
$pdata$4$?insert@?$basic_string@DU?$char_traits@D@std@@V?$allocator@D@2@@std@@QEAAAEAV12@_KAEBV12@0_K@Z DD imagerel $LN239+346
	DD	imagerel $LN239+352
	DD	imagerel $chain$4$?insert@?$basic_string@DU?$char_traits@D@std@@V?$allocator@D@2@@std@@QEAAAEAV12@_KAEBV12@0_K@Z
pdata	ENDS
;	COMDAT pdata
pdata	SEGMENT
$pdata$?insert@?$basic_string@DU?$char_traits@D@std@@V?$allocator@D@2@@std@@QEAAAEAV12@_KQEBD0@Z DD imagerel $LN190
	DD	imagerel $LN190+122
	DD	imagerel $unwind$?insert@?$basic_string@DU?$char_traits@D@std@@V?$allocator@D@2@@std@@QEAAAEAV12@_KQEBD0@Z
pdata	ENDS
;	COMDAT pdata
pdata	SEGMENT
$pdata$0$?insert@?$basic_string@DU?$char_traits@D@std@@V?$allocator@D@2@@std@@QEAAAEAV12@_KQEBD0@Z DD imagerel $LN190+122
	DD	imagerel $LN190+305
	DD	imagerel $chain$0$?insert@?$basic_string@DU?$char_traits@D@std@@V?$allocator@D@2@@std@@QEAAAEAV12@_KQEBD0@Z
pdata	ENDS
;	COMDAT pdata
pdata	SEGMENT
$pdata$1$?insert@?$basic_string@DU?$char_traits@D@std@@V?$allocator@D@2@@std@@QEAAAEAV12@_KQEBD0@Z DD imagerel $LN190+305
	DD	imagerel $LN190+311
	DD	imagerel $chain$1$?insert@?$basic_string@DU?$char_traits@D@std@@V?$allocator@D@2@@std@@QEAAAEAV12@_KQEBD0@Z
pdata	ENDS
;	COMDAT pdata
pdata	SEGMENT
$pdata$??0_Sentry_base@?$basic_ostream@DU?$char_traits@D@std@@@std@@QEAA@AEAV12@@Z DD imagerel $LN10
	DD	imagerel $LN10+44
	DD	imagerel $unwind$??0_Sentry_base@?$basic_ostream@DU?$char_traits@D@std@@@std@@QEAA@AEAV12@@Z
pdata	ENDS
;	COMDAT pdata
pdata	SEGMENT
$pdata$??1_Sentry_base@?$basic_ostream@DU?$char_traits@D@std@@@std@@QEAA@XZ DD imagerel $LN8
	DD	imagerel $LN8+45
	DD	imagerel $unwind$??1_Sentry_base@?$basic_ostream@DU?$char_traits@D@std@@@std@@QEAA@XZ
pdata	ENDS
;	COMDAT pdata
pdata	SEGMENT
$pdata$??0_Sentry_base@?$basic_ostream@_WU?$char_traits@_W@std@@@std@@QEAA@AEAV12@@Z DD imagerel $LN10
	DD	imagerel $LN10+44
	DD	imagerel $unwind$??0_Sentry_base@?$basic_ostream@_WU?$char_traits@_W@std@@@std@@QEAA@AEAV12@@Z
pdata	ENDS
;	COMDAT pdata
pdata	SEGMENT
$pdata$??1_Sentry_base@?$basic_ostream@_WU?$char_traits@_W@std@@@std@@QEAA@XZ DD imagerel $LN8
	DD	imagerel $LN8+45
	DD	imagerel $unwind$??1_Sentry_base@?$basic_ostream@_WU?$char_traits@_W@std@@@std@@QEAA@XZ
pdata	ENDS
;	COMDAT pdata
pdata	SEGMENT
$pdata$?widen@?$basic_ios@DU?$char_traits@D@std@@@std@@QEBADD@Z DD imagerel $LN16
	DD	imagerel $LN16+121
	DD	imagerel $unwind$?widen@?$basic_ios@DU?$char_traits@D@std@@@std@@QEBADD@Z
pdata	ENDS
;	COMDAT pdata
pdata	SEGMENT
$pdata$?put@?$basic_ostream@DU?$char_traits@D@std@@@std@@QEAAAEAV12@D@Z DD imagerel $LN120
	DD	imagerel $LN120+511
	DD	imagerel $unwind$?put@?$basic_ostream@DU?$char_traits@D@std@@@std@@QEAAAEAV12@D@Z
pdata	ENDS
;	COMDAT pdata
pdata	SEGMENT
$pdata$?catch$8@?0??put@?$basic_ostream@DU?$char_traits@D@std@@@std@@QEAAAEAV12@D@Z@4HA DD imagerel ?catch$8@?0??put@?$basic_ostream@DU?$char_traits@D@std@@@std@@QEAAAEAV12@D@Z@4HA
	DD	imagerel ?catch$8@?0??put@?$basic_ostream@DU?$char_traits@D@std@@@std@@QEAAAEAV12@D@Z@4HA+83
	DD	imagerel $unwind$?catch$8@?0??put@?$basic_ostream@DU?$char_traits@D@std@@@std@@QEAAAEAV12@D@Z@4HA
pdata	ENDS
;	COMDAT pdata
pdata	SEGMENT
$pdata$?flush@?$basic_ostream@DU?$char_traits@D@std@@@std@@QEAAAEAV12@XZ DD imagerel $LN74
	DD	imagerel $LN74+339
	DD	imagerel $unwind$?flush@?$basic_ostream@DU?$char_traits@D@std@@@std@@QEAAAEAV12@XZ
pdata	ENDS
;	COMDAT pdata
pdata	SEGMENT
$pdata$?widen@?$basic_ios@_WU?$char_traits@_W@std@@@std@@QEBA_WD@Z DD imagerel $LN18
	DD	imagerel $LN18+185
	DD	imagerel $unwind$?widen@?$basic_ios@_WU?$char_traits@_W@std@@@std@@QEBA_WD@Z
pdata	ENDS
;	COMDAT pdata
pdata	SEGMENT
$pdata$?put@?$basic_ostream@_WU?$char_traits@_W@std@@@std@@QEAAAEAV12@_W@Z DD imagerel $LN120
	DD	imagerel $LN120+514
	DD	imagerel $unwind$?put@?$basic_ostream@_WU?$char_traits@_W@std@@@std@@QEAAAEAV12@_W@Z
pdata	ENDS
;	COMDAT pdata
pdata	SEGMENT
$pdata$?catch$8@?0??put@?$basic_ostream@_WU?$char_traits@_W@std@@@std@@QEAAAEAV12@_W@Z@4HA DD imagerel ?catch$8@?0??put@?$basic_ostream@_WU?$char_traits@_W@std@@@std@@QEAAAEAV12@_W@Z@4HA
	DD	imagerel ?catch$8@?0??put@?$basic_ostream@_WU?$char_traits@_W@std@@@std@@QEAAAEAV12@_W@Z@4HA+83
	DD	imagerel $unwind$?catch$8@?0??put@?$basic_ostream@_WU?$char_traits@_W@std@@@std@@QEAAAEAV12@_W@Z@4HA
pdata	ENDS
;	COMDAT pdata
pdata	SEGMENT
$pdata$?flush@?$basic_ostream@_WU?$char_traits@_W@std@@@std@@QEAAAEAV12@XZ DD imagerel $LN74
	DD	imagerel $LN74+339
	DD	imagerel $unwind$?flush@?$basic_ostream@_WU?$char_traits@_W@std@@@std@@QEAAAEAV12@XZ
pdata	ENDS
;	COMDAT pdata
pdata	SEGMENT
$pdata$?insert@?$basic_string@DU?$char_traits@D@std@@V?$allocator@D@2@@std@@QEAAAEAV12@_KAEBV12@@Z DD imagerel $LN4
	DD	imagerel $LN4+26
	DD	imagerel $unwind$?insert@?$basic_string@DU?$char_traits@D@std@@V?$allocator@D@2@@std@@QEAAAEAV12@_KAEBV12@@Z
pdata	ENDS
;	COMDAT pdata
pdata	SEGMENT
$pdata$??0sentry@?$basic_ostream@DU?$char_traits@D@std@@@std@@QEAA@AEAV12@@Z DD imagerel $LN26
	DD	imagerel $LN26+123
	DD	imagerel $unwind$??0sentry@?$basic_ostream@DU?$char_traits@D@std@@@std@@QEAA@AEAV12@@Z
pdata	ENDS
;	COMDAT pdata
pdata	SEGMENT
$pdata$??1sentry@?$basic_ostream@DU?$char_traits@D@std@@@std@@QEAA@XZ DD imagerel $LN13
	DD	imagerel $LN13+70
	DD	imagerel $unwind$??1sentry@?$basic_ostream@DU?$char_traits@D@std@@@std@@QEAA@XZ
pdata	ENDS
;	COMDAT pdata
pdata	SEGMENT
$pdata$??0sentry@?$basic_ostream@_WU?$char_traits@_W@std@@@std@@QEAA@AEAV12@@Z DD imagerel $LN26
	DD	imagerel $LN26+123
	DD	imagerel $unwind$??0sentry@?$basic_ostream@_WU?$char_traits@_W@std@@@std@@QEAA@AEAV12@@Z
pdata	ENDS
;	COMDAT pdata
pdata	SEGMENT
$pdata$??1sentry@?$basic_ostream@_WU?$char_traits@_W@std@@@std@@QEAA@XZ DD imagerel $LN13
	DD	imagerel $LN13+70
	DD	imagerel $unwind$??1sentry@?$basic_ostream@_WU?$char_traits@_W@std@@@std@@QEAA@XZ
pdata	ENDS
;	COMDAT pdata
pdata	SEGMENT
$pdata$??0bad_cast@std@@QEAA@AEBV01@@Z DD imagerel $LN6
	DD	imagerel $LN6+63
	DD	imagerel $unwind$??0bad_cast@std@@QEAA@AEBV01@@Z
pdata	ENDS
;	COMDAT pdata
pdata	SEGMENT
$pdata$??$endl@_WU?$char_traits@_W@std@@@std@@YAAEAV?$basic_ostream@_WU?$char_traits@_W@std@@@0@AEAV10@@Z DD imagerel $LN4
	DD	imagerel $LN4+54
	DD	imagerel $unwind$??$endl@_WU?$char_traits@_W@std@@@std@@YAAEAV?$basic_ostream@_WU?$char_traits@_W@std@@@0@AEAV10@@Z
pdata	ENDS
;	COMDAT pdata
pdata	SEGMENT
$pdata$??$?6_WU?$char_traits@_W@std@@@std@@YAAEAV?$basic_ostream@_WU?$char_traits@_W@std@@@0@AEAV10@PEBD@Z DD imagerel $LN242
	DD	imagerel $LN242+1050
	DD	imagerel $unwind$??$?6_WU?$char_traits@_W@std@@@std@@YAAEAV?$basic_ostream@_WU?$char_traits@_W@std@@@0@AEAV10@PEBD@Z
pdata	ENDS
;	COMDAT pdata
pdata	SEGMENT
$pdata$?catch$18@?0???$?6_WU?$char_traits@_W@std@@@std@@YAAEAV?$basic_ostream@_WU?$char_traits@_W@std@@@0@AEAV10@PEBD@Z@4HA DD imagerel ?catch$18@?0???$?6_WU?$char_traits@_W@std@@@std@@YAAEAV?$basic_ostream@_WU?$char_traits@_W@std@@@0@AEAV10@PEBD@Z@4HA
	DD	imagerel ?catch$18@?0???$?6_WU?$char_traits@_W@std@@@std@@YAAEAV?$basic_ostream@_WU?$char_traits@_W@std@@@0@AEAV10@PEBD@Z@4HA+83
	DD	imagerel $unwind$?catch$18@?0???$?6_WU?$char_traits@_W@std@@@std@@YAAEAV?$basic_ostream@_WU?$char_traits@_W@std@@@0@AEAV10@PEBD@Z@4HA
pdata	ENDS
;	COMDAT pdata
pdata	SEGMENT
$pdata$??$endl@DU?$char_traits@D@std@@@std@@YAAEAV?$basic_ostream@DU?$char_traits@D@std@@@0@AEAV10@@Z DD imagerel $LN18
	DD	imagerel $LN18+151
	DD	imagerel $unwind$??$endl@DU?$char_traits@D@std@@@std@@YAAEAV?$basic_ostream@DU?$char_traits@D@std@@@0@AEAV10@@Z
pdata	ENDS
;	COMDAT pdata
pdata	SEGMENT
$pdata$??$?6U?$char_traits@D@std@@@std@@YAAEAV?$basic_ostream@DU?$char_traits@D@std@@@0@AEAV10@D@Z DD imagerel $LN204
	DD	imagerel $LN204+802
	DD	imagerel $unwind$??$?6U?$char_traits@D@std@@@std@@YAAEAV?$basic_ostream@DU?$char_traits@D@std@@@0@AEAV10@D@Z
pdata	ENDS
;	COMDAT pdata
pdata	SEGMENT
$pdata$?catch$16@?0???$?6U?$char_traits@D@std@@@std@@YAAEAV?$basic_ostream@DU?$char_traits@D@std@@@0@AEAV10@D@Z@4HA DD imagerel ?catch$16@?0???$?6U?$char_traits@D@std@@@std@@YAAEAV?$basic_ostream@DU?$char_traits@D@std@@@0@AEAV10@D@Z@4HA
	DD	imagerel ?catch$16@?0???$?6U?$char_traits@D@std@@@std@@YAAEAV?$basic_ostream@DU?$char_traits@D@std@@@0@AEAV10@D@Z@4HA+83
	DD	imagerel $unwind$?catch$16@?0???$?6U?$char_traits@D@std@@@std@@YAAEAV?$basic_ostream@DU?$char_traits@D@std@@@0@AEAV10@D@Z@4HA
pdata	ENDS
;	COMDAT pdata
pdata	SEGMENT
$pdata$??$?6U?$char_traits@D@std@@@std@@YAAEAV?$basic_ostream@DU?$char_traits@D@std@@@0@AEAV10@PEBD@Z DD imagerel $LN191
	DD	imagerel $LN191+776
	DD	imagerel $unwind$??$?6U?$char_traits@D@std@@@std@@YAAEAV?$basic_ostream@DU?$char_traits@D@std@@@0@AEAV10@PEBD@Z
pdata	ENDS
;	COMDAT pdata
pdata	SEGMENT
$pdata$?catch$13@?0???$?6U?$char_traits@D@std@@@std@@YAAEAV?$basic_ostream@DU?$char_traits@D@std@@@0@AEAV10@PEBD@Z@4HA DD imagerel ?catch$13@?0???$?6U?$char_traits@D@std@@@std@@YAAEAV?$basic_ostream@DU?$char_traits@D@std@@@0@AEAV10@PEBD@Z@4HA
	DD	imagerel ?catch$13@?0???$?6U?$char_traits@D@std@@@std@@YAAEAV?$basic_ostream@DU?$char_traits@D@std@@@0@AEAV10@PEBD@Z@4HA+83
	DD	imagerel $unwind$?catch$13@?0???$?6U?$char_traits@D@std@@@std@@YAAEAV?$basic_ostream@DU?$char_traits@D@std@@@0@AEAV10@PEBD@Z@4HA
pdata	ENDS
;	COMDAT pdata
pdata	SEGMENT
$pdata$??$?HDU?$char_traits@D@std@@V?$allocator@D@1@@std@@YA?AV?$basic_string@DU?$char_traits@D@std@@V?$allocator@D@2@@0@$$QEAV10@0@Z DD imagerel $LN288
	DD	imagerel $LN288+209
	DD	imagerel $unwind$??$?HDU?$char_traits@D@std@@V?$allocator@D@1@@std@@YA?AV?$basic_string@DU?$char_traits@D@std@@V?$allocator@D@2@@0@$$QEAV10@0@Z
pdata	ENDS
;	COMDAT pdata
pdata	SEGMENT
$pdata$??$?HDU?$char_traits@D@std@@V?$allocator@D@1@@std@@YA?AV?$basic_string@DU?$char_traits@D@std@@V?$allocator@D@2@@0@$$QEAV10@AEBV10@@Z DD imagerel $LN109
	DD	imagerel $LN109+152
	DD	imagerel $unwind$??$?HDU?$char_traits@D@std@@V?$allocator@D@1@@std@@YA?AV?$basic_string@DU?$char_traits@D@std@@V?$allocator@D@2@@0@$$QEAV10@AEBV10@@Z
pdata	ENDS
;	COMDAT pdata
pdata	SEGMENT
$pdata$??$?HDU?$char_traits@D@std@@V?$allocator@D@1@@std@@YA?AV?$basic_string@DU?$char_traits@D@std@@V?$allocator@D@2@@0@$$QEAV10@QEBD@Z DD imagerel $LN113
	DD	imagerel $LN113+158
	DD	imagerel $unwind$??$?HDU?$char_traits@D@std@@V?$allocator@D@1@@std@@YA?AV?$basic_string@DU?$char_traits@D@std@@V?$allocator@D@2@@0@$$QEAV10@QEBD@Z
pdata	ENDS
;	COMDAT pdata
pdata	SEGMENT
$pdata$??$?HDU?$char_traits@D@std@@V?$allocator@D@1@@std@@YA?AV?$basic_string@DU?$char_traits@D@std@@V?$allocator@D@2@@0@QEBD$$QEAV10@@Z DD imagerel $LN113
	DD	imagerel $LN113+156
	DD	imagerel $unwind$??$?HDU?$char_traits@D@std@@V?$allocator@D@1@@std@@YA?AV?$basic_string@DU?$char_traits@D@std@@V?$allocator@D@2@@0@QEBD$$QEAV10@@Z
pdata	ENDS
;	COMDAT pdata
pdata	SEGMENT
$pdata$??$_Integral_to_string@DH@std@@YA?AV?$basic_string@DU?$char_traits@D@std@@V?$allocator@D@2@@0@H@Z DD imagerel $LN63
	DD	imagerel $LN63+220
	DD	imagerel $unwind$??$_Integral_to_string@DH@std@@YA?AV?$basic_string@DU?$char_traits@D@std@@V?$allocator@D@2@@0@H@Z
pdata	ENDS
;	COMDAT pdata
pdata	SEGMENT
$pdata$??$_Immortalize@V_Iostream_error_category@std@@@std@@YAAEAV_Iostream_error_category@0@XZ DD imagerel $LN23
	DD	imagerel $LN23+116
	DD	imagerel $unwind$??$_Immortalize@V_Iostream_error_category@std@@@std@@YAAEAV_Iostream_error_category@0@XZ
pdata	ENDS
;	COMDAT pdata
pdata	SEGMENT
$pdata$??$use_facet@V?$ctype@D@std@@@std@@YAAEBV?$ctype@D@0@AEBVlocale@0@@Z DD imagerel $LN32
	DD	imagerel $LN32+326
	DD	imagerel $unwind$??$use_facet@V?$ctype@D@std@@@std@@YAAEBV?$ctype@D@0@AEBVlocale@0@@Z
pdata	ENDS
;	COMDAT pdata
pdata	SEGMENT
$pdata$?allocate@?$allocator@D@std@@QEAAPEAD_K@Z DD imagerel $LN16
	DD	imagerel $LN16+83
	DD	imagerel $unwind$?allocate@?$allocator@D@std@@QEAAPEAD_K@Z
pdata	ENDS
;	COMDAT pdata
pdata	SEGMENT
$pdata$?allocate@?$_Wrap_alloc@V?$allocator@D@std@@@std@@QEAAPEAD_K@Z DD imagerel $LN19
	DD	imagerel $LN19+83
	DD	imagerel $unwind$?allocate@?$_Wrap_alloc@V?$allocator@D@std@@@std@@QEAAPEAD_K@Z
pdata	ENDS
;	COMDAT pdata
pdata	SEGMENT
$pdata$?deallocate@?$allocator@D@std@@QEAAXPEAD_K@Z DD imagerel $LN18
	DD	imagerel $LN18+81
	DD	imagerel $unwind$?deallocate@?$allocator@D@std@@QEAAXPEAD_K@Z
pdata	ENDS
;	COMDAT pdata
pdata	SEGMENT
$pdata$?erase@?$basic_string@DU?$char_traits@D@std@@V?$allocator@D@2@@std@@QEAAAEAV12@_K@Z DD imagerel $LN38
	DD	imagerel $LN38+54
	DD	imagerel $unwind$?erase@?$basic_string@DU?$char_traits@D@std@@V?$allocator@D@2@@std@@QEAAAEAV12@_K@Z
pdata	ENDS
;	COMDAT pdata
pdata	SEGMENT
$pdata$?erase@?$basic_string@DU?$char_traits@D@std@@V?$allocator@D@2@@std@@QEAAAEAV12@_K0@Z DD imagerel $LN97
	DD	imagerel $LN97+191
	DD	imagerel $unwind$?erase@?$basic_string@DU?$char_traits@D@std@@V?$allocator@D@2@@std@@QEAAAEAV12@_K0@Z
pdata	ENDS
;	COMDAT pdata
pdata	SEGMENT
$pdata$?_Copy@?$basic_string@DU?$char_traits@D@std@@V?$allocator@D@2@@std@@QEAAX_K@Z DD imagerel $LN118
	DD	imagerel $LN118+335
	DD	imagerel $unwind$?_Copy@?$basic_string@DU?$char_traits@D@std@@V?$allocator@D@2@@std@@QEAAX_K@Z
pdata	ENDS
;	COMDAT pdata
pdata	SEGMENT
$pdata$?catch$16@?0??_Copy@?$basic_string@DU?$char_traits@D@std@@V?$allocator@D@2@@std@@QEAAX_K@Z@4HA DD imagerel ?catch$16@?0??_Copy@?$basic_string@DU?$char_traits@D@std@@V?$allocator@D@2@@std@@QEAAX_K@Z@4HA
	DD	imagerel ?catch$16@?0??_Copy@?$basic_string@DU?$char_traits@D@std@@V?$allocator@D@2@@std@@QEAAX_K@Z@4HA+51
	DD	imagerel $unwind$?catch$16@?0??_Copy@?$basic_string@DU?$char_traits@D@std@@V?$allocator@D@2@@std@@QEAAX_K@Z@4HA
pdata	ENDS
;	COMDAT pdata
pdata	SEGMENT
$pdata$?_Tidy_deallocate@?$basic_string@DU?$char_traits@D@std@@V?$allocator@D@2@@std@@QEAAXXZ DD imagerel $LN56
	DD	imagerel $LN56+119
	DD	imagerel $unwind$?_Tidy_deallocate@?$basic_string@DU?$char_traits@D@std@@V?$allocator@D@2@@std@@QEAAXXZ
pdata	ENDS
;	COMDAT pdata
pdata	SEGMENT
$pdata$?_Xran@?$basic_string@DU?$char_traits@D@std@@V?$allocator@D@2@@std@@SAXXZ DD imagerel $LN4
	DD	imagerel $LN4+17
	DD	imagerel $unwind$?_Xran@?$basic_string@DU?$char_traits@D@std@@V?$allocator@D@2@@std@@SAXXZ
pdata	ENDS
;	COMDAT pdata
pdata	SEGMENT
$pdata$??4?$basic_string@DU?$char_traits@D@std@@V?$allocator@D@2@@std@@QEAAAEAV01@AEBV01@@Z DD imagerel $LN15
	DD	imagerel $LN15+35
	DD	imagerel $unwind$??4?$basic_string@DU?$char_traits@D@std@@V?$allocator@D@2@@std@@QEAAAEAV01@AEBV01@@Z
pdata	ENDS
;	COMDAT pdata
pdata	SEGMENT
$pdata$?assign@?$basic_string@DU?$char_traits@D@std@@V?$allocator@D@2@@std@@QEAAAEAV12@AEBV12@_K_K@Z DD imagerel $LN159
	DD	imagerel $LN159+248
	DD	imagerel $unwind$?assign@?$basic_string@DU?$char_traits@D@std@@V?$allocator@D@2@@std@@QEAAAEAV12@AEBV12@_K_K@Z
pdata	ENDS
;	COMDAT pdata
pdata	SEGMENT
$pdata$?_Grow@?$basic_string@DU?$char_traits@D@std@@V?$allocator@D@2@@std@@QEAA_N_K@Z DD imagerel $LN34
	DD	imagerel $LN34+51
	DD	imagerel $unwind$?_Grow@?$basic_string@DU?$char_traits@D@std@@V?$allocator@D@2@@std@@QEAA_N_K@Z
pdata	ENDS
;	COMDAT pdata
pdata	SEGMENT
$pdata$?_Xlen@?$basic_string@DU?$char_traits@D@std@@V?$allocator@D@2@@std@@SAXXZ DD imagerel $LN4
	DD	imagerel $LN4+17
	DD	imagerel $unwind$?_Xlen@?$basic_string@DU?$char_traits@D@std@@V?$allocator@D@2@@std@@SAXXZ
pdata	ENDS
;	COMDAT pdata
pdata	SEGMENT
$pdata$?_Check_offset@?$basic_string@DU?$char_traits@D@std@@V?$allocator@D@2@@std@@QEBAX_K@Z DD imagerel $LN16
	DD	imagerel $LN16+21
	DD	imagerel $unwind$?_Check_offset@?$basic_string@DU?$char_traits@D@std@@V?$allocator@D@2@@std@@QEBAX_K@Z
pdata	ENDS
;	COMDAT pdata
pdata	SEGMENT
$pdata$?deallocate@?$_Wrap_alloc@V?$allocator@D@std@@@std@@QEAAXPEAD_K@Z DD imagerel $LN21
	DD	imagerel $LN21+81
	DD	imagerel $unwind$?deallocate@?$_Wrap_alloc@V?$allocator@D@std@@@std@@QEAAXPEAD_K@Z
pdata	ENDS
;	COMDAT pdata
pdata	SEGMENT
$pdata$??4Error@@QEAAAEAV0@AEBV0@@Z DD imagerel $LN17
	DD	imagerel $LN17+53
	DD	imagerel $unwind$??4Error@@QEAAAEAV0@AEBV0@@Z
pdata	ENDS
;	COMDAT pdata
pdata	SEGMENT
$pdata$?_Assign_rv_contents@?$basic_string@DU?$char_traits@D@std@@V?$allocator@D@2@@std@@QEAAX$$QEAV12@@Z DD imagerel $LN62
	DD	imagerel $LN62+101
	DD	imagerel $unwind$?_Assign_rv_contents@?$basic_string@DU?$char_traits@D@std@@V?$allocator@D@2@@std@@QEAAX$$QEAV12@@Z
pdata	ENDS
;	COMDAT pdata
pdata	SEGMENT
$pdata$?append@?$basic_string@DU?$char_traits@D@std@@V?$allocator@D@2@@std@@QEAAAEAV12@AEBV12@_K_K@Z DD imagerel $LN151
	DD	imagerel $LN151+75
	DD	imagerel $unwind$?append@?$basic_string@DU?$char_traits@D@std@@V?$allocator@D@2@@std@@QEAAAEAV12@AEBV12@_K_K@Z
pdata	ENDS
;	COMDAT pdata
pdata	SEGMENT
$pdata$0$?append@?$basic_string@DU?$char_traits@D@std@@V?$allocator@D@2@@std@@QEAAAEAV12@AEBV12@_K_K@Z DD imagerel $LN151+75
	DD	imagerel $LN151+232
	DD	imagerel $chain$0$?append@?$basic_string@DU?$char_traits@D@std@@V?$allocator@D@2@@std@@QEAAAEAV12@AEBV12@_K_K@Z
pdata	ENDS
;	COMDAT pdata
pdata	SEGMENT
$pdata$1$?append@?$basic_string@DU?$char_traits@D@std@@V?$allocator@D@2@@std@@QEAAAEAV12@AEBV12@_K_K@Z DD imagerel $LN151+232
	DD	imagerel $LN151+244
	DD	imagerel $chain$1$?append@?$basic_string@DU?$char_traits@D@std@@V?$allocator@D@2@@std@@QEAAAEAV12@AEBV12@_K_K@Z
pdata	ENDS
;	COMDAT pdata
pdata	SEGMENT
$pdata$?append@?$basic_string@DU?$char_traits@D@std@@V?$allocator@D@2@@std@@QEAAAEAV12@QEBD_K@Z DD imagerel $LN142
	DD	imagerel $LN142+119
	DD	imagerel $unwind$?append@?$basic_string@DU?$char_traits@D@std@@V?$allocator@D@2@@std@@QEAAAEAV12@QEBD_K@Z
pdata	ENDS
;	COMDAT pdata
pdata	SEGMENT
$pdata$0$?append@?$basic_string@DU?$char_traits@D@std@@V?$allocator@D@2@@std@@QEAAAEAV12@QEBD_K@Z DD imagerel $LN142+119
	DD	imagerel $LN142+257
	DD	imagerel $chain$0$?append@?$basic_string@DU?$char_traits@D@std@@V?$allocator@D@2@@std@@QEAAAEAV12@QEBD_K@Z
pdata	ENDS
;	COMDAT pdata
pdata	SEGMENT
$pdata$1$?append@?$basic_string@DU?$char_traits@D@std@@V?$allocator@D@2@@std@@QEAAAEAV12@QEBD_K@Z DD imagerel $LN142+257
	DD	imagerel $LN142+263
	DD	imagerel $chain$1$?append@?$basic_string@DU?$char_traits@D@std@@V?$allocator@D@2@@std@@QEAAAEAV12@QEBD_K@Z
pdata	ENDS
;	COMDAT pdata
pdata	SEGMENT
$pdata$?assign@?$basic_string@DU?$char_traits@D@std@@V?$allocator@D@2@@std@@QEAAAEAV12@QEBD_K@Z DD imagerel $LN112
	DD	imagerel $LN112+246
	DD	imagerel $unwind$?assign@?$basic_string@DU?$char_traits@D@std@@V?$allocator@D@2@@std@@QEAAAEAV12@QEBD_K@Z
pdata	ENDS
;	COMDAT pdata
pdata	SEGMENT
$pdata$?_Tidy_deallocate_only@?$basic_string@DU?$char_traits@D@std@@V?$allocator@D@2@@std@@QEAAXXZ DD imagerel $LN42
	DD	imagerel $LN42+98
	DD	imagerel $unwind$?_Tidy_deallocate_only@?$basic_string@DU?$char_traits@D@std@@V?$allocator@D@2@@std@@QEAAXXZ
pdata	ENDS
;	COMDAT pdata
pdata	SEGMENT
$pdata$?_Tidy@?$_Yarn@D@std@@AEAAXXZ DD imagerel $LN6
	DD	imagerel $LN6+35
	DD	imagerel $unwind$?_Tidy@?$_Yarn@D@std@@AEAAXXZ
pdata	ENDS
;	COMDAT pdata
pdata	SEGMENT
$pdata$?_Tidy@?$_Yarn@_W@std@@AEAAXXZ DD imagerel $LN6
	DD	imagerel $LN6+35
	DD	imagerel $unwind$?_Tidy@?$_Yarn@_W@std@@AEAAXXZ
pdata	ENDS
;	COMDAT pdata
pdata	SEGMENT
$pdata$??0?$Result@DV?$Stream@V?$_String_const_iterator@V?$_String_val@U?$_Simple_types@D@std@@@std@@@std@@@@@@QEAA@AEBV0@@Z DD imagerel $LN22
	DD	imagerel $LN22+88
	DD	imagerel $unwind$??0?$Result@DV?$Stream@V?$_String_const_iterator@V?$_String_val@U?$_Simple_types@D@std@@@std@@@std@@@@@@QEAA@AEBV0@@Z
pdata	ENDS
;	COMDAT pdata
pdata	SEGMENT
$pdata$??_GError@@QEAAPEAXI@Z DD imagerel $LN54
	DD	imagerel $LN54+104
	DD	imagerel $unwind$??_GError@@QEAAPEAXI@Z
pdata	ENDS
;	COMDAT pdata
pdata	SEGMENT
$pdata$??0?$basic_string@DU?$char_traits@D@std@@V?$allocator@D@2@@std@@QEAA@AEBV01@@Z DD imagerel $LN42
	DD	imagerel $LN42+49
	DD	imagerel $unwind$??0?$basic_string@DU?$char_traits@D@std@@V?$allocator@D@2@@std@@QEAA@AEBV01@@Z
pdata	ENDS
;	COMDAT pdata
pdata	SEGMENT
$pdata$??0?$basic_string@DU?$char_traits@D@std@@V?$allocator@D@2@@std@@QEAA@QEBD@Z DD imagerel $LN27
	DD	imagerel $LN27+56
	DD	imagerel $unwind$??0?$basic_string@DU?$char_traits@D@std@@V?$allocator@D@2@@std@@QEAA@QEBD@Z
pdata	ENDS
;	COMDAT pdata
pdata	SEGMENT
$pdata$??0?$basic_string@DU?$char_traits@D@std@@V?$allocator@D@2@@std@@QEAA@$$QEAV01@@Z DD imagerel $LN99
	DD	imagerel $LN99+118
	DD	imagerel $unwind$??0?$basic_string@DU?$char_traits@D@std@@V?$allocator@D@2@@std@@QEAA@$$QEAV01@@Z
pdata	ENDS
;	COMDAT pdata
pdata	SEGMENT
$pdata$??1?$basic_string@DU?$char_traits@D@std@@V?$allocator@D@2@@std@@QEAA@XZ DD imagerel $LN45
	DD	imagerel $LN45+98
	DD	imagerel $unwind$??1?$basic_string@DU?$char_traits@D@std@@V?$allocator@D@2@@std@@QEAA@XZ
pdata	ENDS
;	COMDAT pdata
pdata	SEGMENT
$pdata$??1?$_Yarn@D@std@@QEAA@XZ DD imagerel $LN8
	DD	imagerel $LN8+35
	DD	imagerel $unwind$??1?$_Yarn@D@std@@QEAA@XZ
pdata	ENDS
;	COMDAT pdata
pdata	SEGMENT
$pdata$??1?$_Yarn@_W@std@@QEAA@XZ DD imagerel $LN8
	DD	imagerel $LN8+35
	DD	imagerel $unwind$??1?$_Yarn@_W@std@@QEAA@XZ
pdata	ENDS
;	COMDAT pdata
pdata	SEGMENT
$pdata$??0?$Result@DV?$Stream@V?$_String_const_iterator@V?$_String_val@U?$_Simple_types@D@std@@@std@@@std@@@@@@QEAA@AEBVError@@AEBV?$Stream@V?$_String_const_iterator@V?$_String_val@U?$_Simple_types@D@std@@@std@@@std@@@@@Z DD imagerel $LN48
	DD	imagerel $LN48+100
	DD	imagerel $unwind$??0?$Result@DV?$Stream@V?$_String_const_iterator@V?$_String_val@U?$_Simple_types@D@std@@@std@@@std@@@@@@QEAA@AEBVError@@AEBV?$Stream@V?$_String_const_iterator@V?$_String_val@U?$_Simple_types@D@std@@@std@@@std@@@@@Z
pdata	ENDS
;	COMDAT pdata
pdata	SEGMENT
$pdata$??1?$Result@DV?$Stream@V?$_String_const_iterator@V?$_String_val@U?$_Simple_types@D@std@@@std@@@std@@@@@@QEAA@XZ DD imagerel $LN60
	DD	imagerel $LN60+104
	DD	imagerel $unwind$??1?$Result@DV?$Stream@V?$_String_const_iterator@V?$_String_val@U?$_Simple_types@D@std@@@std@@@std@@@@@@QEAA@XZ
pdata	ENDS
;	COMDAT pdata
pdata	SEGMENT
$pdata$?RunParser@?$ItemParser@DV?$Stream@V?$_String_const_iterator@V?$_String_val@U?$_Simple_types@D@std@@@std@@@std@@@@@@QEAA?AV?$Result@DV?$Stream@V?$_String_const_iterator@V?$_String_val@U?$_Simple_types@D@std@@@std@@@std@@@@@@AEBV?$Stream@V?$_String_const_iterator@V?$_String_val@U?$_Simple_types@D@std@@@std@@@std@@@@@Z DD imagerel $LN231
	DD	imagerel $LN231+452
	DD	imagerel $unwind$?RunParser@?$ItemParser@DV?$Stream@V?$_String_const_iterator@V?$_String_val@U?$_Simple_types@D@std@@@std@@@std@@@@@@QEAA?AV?$Result@DV?$Stream@V?$_String_const_iterator@V?$_String_val@U?$_Simple_types@D@std@@@std@@@std@@@@@@AEBV?$Stream@V?$_String_const_iterator@V?$_String_val@U?$_Simple_types@D@std@@@std@@@std@@@@@Z
pdata	ENDS
;	COMDAT pdata
pdata	SEGMENT
$pdata$?RunParser@?$EosParser@V?$Stream@V?$_String_const_iterator@V?$_String_val@U?$_Simple_types@D@std@@@std@@@std@@@@@@QEAA?AV?$Result@DV?$Stream@V?$_String_const_iterator@V?$_String_val@U?$_Simple_types@D@std@@@std@@@std@@@@@@AEBV?$Stream@V?$_String_const_iterator@V?$_String_val@U?$_Simple_types@D@std@@@std@@@std@@@@@Z DD imagerel $LN214
	DD	imagerel $LN214+456
	DD	imagerel $unwind$?RunParser@?$EosParser@V?$Stream@V?$_String_const_iterator@V?$_String_val@U?$_Simple_types@D@std@@@std@@@std@@@@@@QEAA?AV?$Result@DV?$Stream@V?$_String_const_iterator@V?$_String_val@U?$_Simple_types@D@std@@@std@@@std@@@@@@AEBV?$Stream@V?$_String_const_iterator@V?$_String_val@U?$_Simple_types@D@std@@@std@@@std@@@@@Z
pdata	ENDS
;	COMDAT pdata
pdata	SEGMENT
$pdata$?RunParser@?$OrParser@DV?$Stream@V?$_String_const_iterator@V?$_String_val@U?$_Simple_types@D@std@@@std@@@std@@@@V?$ItemParser@DV?$Stream@V?$_String_const_iterator@V?$_String_val@U?$_Simple_types@D@std@@@std@@@std@@@@@@V?$EosParser@V?$Stream@V?$_String_const_iterator@V?$_String_val@U?$_Simple_types@D@std@@@std@@@std@@@@@@@@QEAA?AV?$Result@DV?$Stream@V?$_String_const_iterator@V?$_String_val@U?$_Simple_types@D@std@@@std@@@std@@@@@@AEBV?$Stream@V?$_String_const_iterator@V?$_String_val@U?$_Simple_types@D@std@@@std@@@std@@@@@Z DD imagerel $LN138
	DD	imagerel $LN138+201
	DD	imagerel $unwind$?RunParser@?$OrParser@DV?$Stream@V?$_String_const_iterator@V?$_String_val@U?$_Simple_types@D@std@@@std@@@std@@@@V?$ItemParser@DV?$Stream@V?$_String_const_iterator@V?$_String_val@U?$_Simple_types@D@std@@@std@@@std@@@@@@V?$EosParser@V?$Stream@V?$_String_const_iterator@V?$_String_val@U?$_Simple_types@D@std@@@std@@@std@@@@@@@@QEAA?AV?$Result@DV?$Stream@V?$_String_const_iterator@V?$_String_val@U?$_Simple_types@D@std@@@std@@@std@@@@@@AEBV?$Stream@V?$_String_const_iterator@V?$_String_val@U?$_Simple_types@D@std@@@std@@@std@@@@@Z
pdata	ENDS
;	COMDAT pdata
pdata	SEGMENT
$pdata$??0Error@@QEAA@AEBV0@@Z DD imagerel $LN45
	DD	imagerel $LN45+67
	DD	imagerel $unwind$??0Error@@QEAA@AEBV0@@Z
pdata	ENDS
;	COMDAT pdata
pdata	SEGMENT
$pdata$??1Error@@QEAA@XZ DD imagerel $LN49
	DD	imagerel $LN49+99
	DD	imagerel $unwind$??1Error@@QEAA@XZ
pdata	ENDS
;	COMDAT pdata
pdata	SEGMENT
$pdata$?item@?$Result@DV?$Stream@V?$_String_const_iterator@V?$_String_val@U?$_Simple_types@D@std@@@std@@@std@@@@@@QEBADXZ DD imagerel $LN89
	DD	imagerel $LN89+101
	DD	imagerel $unwind$?item@?$Result@DV?$Stream@V?$_String_const_iterator@V?$_String_val@U?$_Simple_types@D@std@@@std@@@std@@@@@@QEBADXZ
pdata	ENDS
;	COMDAT pdata
pdata	SEGMENT
$pdata$?error@?$Result@DV?$Stream@V?$_String_const_iterator@V?$_String_val@U?$_Simple_types@D@std@@@std@@@std@@@@@@QEBA?AVError@@XZ DD imagerel $LN52
	DD	imagerel $LN52+112
	DD	imagerel $unwind$?error@?$Result@DV?$Stream@V?$_String_const_iterator@V?$_String_val@U?$_Simple_types@D@std@@@std@@@std@@@@@@QEBA?AVError@@XZ
pdata	ENDS
pdata	SEGMENT
$pdata$main DD	imagerel $LN1273
	DD	imagerel $LN1273+1939
	DD	imagerel $unwind$main
pdata	ENDS
pdata	SEGMENT
$pdata$main$catch$219 DD imagerel main$catch$219
	DD	imagerel main$catch$219+92
	DD	imagerel $unwind$main$catch$219
$pdata$main$catch$220 DD imagerel main$catch$220
	DD	imagerel main$catch$220+92
	DD	imagerel $unwind$main$catch$220
pdata	ENDS
;	COMDAT pdata
pdata	SEGMENT
$pdata$?formattedMessage@Error@@QEBA?AV?$basic_string@DU?$char_traits@D@std@@V?$allocator@D@2@@std@@XZ DD imagerel $LN247
	DD	imagerel $LN247+784
	DD	imagerel $unwind$?formattedMessage@Error@@QEBA?AV?$basic_string@DU?$char_traits@D@std@@V?$allocator@D@2@@std@@XZ
pdata	ENDS
;	COMDAT pdata
pdata	SEGMENT
$pdata$??0Error@@QEAA@HHAEBV?$basic_string@DU?$char_traits@D@std@@V?$allocator@D@2@@std@@@Z DD imagerel $LN45
	DD	imagerel $LN45+65
	DD	imagerel $unwind$??0Error@@QEAA@HHAEBV?$basic_string@DU?$char_traits@D@std@@V?$allocator@D@2@@std@@@Z
pdata	ENDS
;	COMDAT pdata
pdata	SEGMENT
$pdata$?to_string@std@@YA?AV?$basic_string@DU?$char_traits@D@std@@V?$allocator@D@2@@1@H@Z DD imagerel $LN6
	DD	imagerel $LN6+31
	DD	imagerel $unwind$?to_string@std@@YA?AV?$basic_string@DU?$char_traits@D@std@@V?$allocator@D@2@@1@H@Z
pdata	ENDS
;	COMDAT pdata
pdata	SEGMENT
$pdata$??0_System_error@std@@QEAA@AEBV01@@Z DD imagerel $LN9
	DD	imagerel $LN9+80
	DD	imagerel $unwind$??0_System_error@std@@QEAA@AEBV01@@Z
pdata	ENDS
;	COMDAT pdata
pdata	SEGMENT
$pdata$??0system_error@std@@QEAA@AEBV01@@Z DD imagerel $LN12
	DD	imagerel $LN12+90
	DD	imagerel $unwind$??0system_error@std@@QEAA@AEBV01@@Z
pdata	ENDS
;	COMDAT pdata
pdata	SEGMENT
$pdata$??0failure@ios_base@std@@QEAA@AEBV012@@Z DD imagerel $LN15
	DD	imagerel $LN15+90
	DD	imagerel $unwind$??0failure@ios_base@std@@QEAA@AEBV012@@Z
pdata	ENDS
;	COMDAT pdata
pdata	SEGMENT
$pdata$??_Gfailure@ios_base@std@@UEAAPEAXI@Z DD imagerel $LN20
	DD	imagerel $LN20+66
	DD	imagerel $unwind$??_Gfailure@ios_base@std@@UEAAPEAXI@Z
pdata	ENDS
;	COMDAT pdata
pdata	SEGMENT
$pdata$?getloc@ios_base@std@@QEBA?AVlocale@2@XZ DD imagerel $LN6
	DD	imagerel $LN6+46
	DD	imagerel $unwind$?getloc@ios_base@std@@QEBA?AVlocale@2@XZ
pdata	ENDS
;	COMDAT pdata
pdata	SEGMENT
$pdata$?clear@ios_base@std@@QEAAXH_N@Z DD imagerel $LN17
	DD	imagerel $LN17+186
	DD	imagerel $unwind$?clear@ios_base@std@@QEAAXH_N@Z
pdata	ENDS
;	COMDAT pdata
pdata	SEGMENT
$pdata$??0failure@ios_base@std@@QEAA@PEBDAEBVerror_code@2@@Z DD imagerel $LN5
	DD	imagerel $LN5+50
	DD	imagerel $unwind$??0failure@ios_base@std@@QEAA@PEBDAEBVerror_code@2@@Z
pdata	ENDS
;	COMDAT pdata
pdata	SEGMENT
$pdata$?iostream_category@std@@YAAEBVerror_category@1@XZ DD imagerel $LN25
	DD	imagerel $LN25+116
	DD	imagerel $unwind$?iostream_category@std@@YAAEBVerror_category@1@XZ
pdata	ENDS
;	COMDAT pdata
pdata	SEGMENT
$pdata$??_G_Iostream_error_category@std@@UEAAPEAXI@Z DD imagerel $LN15
	DD	imagerel $LN15+43
	DD	imagerel $unwind$??_G_Iostream_error_category@std@@UEAAPEAXI@Z
pdata	ENDS
;	COMDAT pdata
pdata	SEGMENT
$pdata$?message@_Iostream_error_category@std@@UEBA?AV?$basic_string@DU?$char_traits@D@std@@V?$allocator@D@2@@2@H@Z DD imagerel $LN33
	DD	imagerel $LN33+77
	DD	imagerel $unwind$?message@_Iostream_error_category@std@@UEBA?AV?$basic_string@DU?$char_traits@D@std@@V?$allocator@D@2@@2@H@Z
pdata	ENDS
;	COMDAT pdata
pdata	SEGMENT
$pdata$??_G_Generic_error_category@std@@UEAAPEAXI@Z DD imagerel $LN12
	DD	imagerel $LN12+43
	DD	imagerel $unwind$??_G_Generic_error_category@std@@UEAAPEAXI@Z
pdata	ENDS
;	COMDAT pdata
pdata	SEGMENT
$pdata$?message@_Generic_error_category@std@@UEBA?AV?$basic_string@DU?$char_traits@D@std@@V?$allocator@D@2@@2@H@Z DD imagerel $LN31
	DD	imagerel $LN31+78
	DD	imagerel $unwind$?message@_Generic_error_category@std@@UEBA?AV?$basic_string@DU?$char_traits@D@std@@V?$allocator@D@2@@2@H@Z
pdata	ENDS
;	COMDAT pdata
pdata	SEGMENT
$pdata$??_Gsystem_error@std@@UEAAPEAXI@Z DD imagerel $LN17
	DD	imagerel $LN17+66
	DD	imagerel $unwind$??_Gsystem_error@std@@UEAAPEAXI@Z
pdata	ENDS
;	COMDAT pdata
pdata	SEGMENT
$pdata$??0system_error@std@@QEAA@Verror_code@1@PEBD@Z DD imagerel $LN71
	DD	imagerel $LN71+248
	DD	imagerel $unwind$??0system_error@std@@QEAA@Verror_code@1@PEBD@Z
pdata	ENDS
;	COMDAT pdata
pdata	SEGMENT
$pdata$??_G_System_error@std@@UEAAPEAXI@Z DD imagerel $LN14
	DD	imagerel $LN14+66
	DD	imagerel $unwind$??_G_System_error@std@@UEAAPEAXI@Z
pdata	ENDS
;	COMDAT pdata
pdata	SEGMENT
$pdata$??0_System_error@std@@IEAA@Verror_code@1@AEBV?$basic_string@DU?$char_traits@D@std@@V?$allocator@D@2@@1@@Z DD imagerel $LN115
	DD	imagerel $LN115+309
	DD	imagerel $unwind$??0_System_error@std@@IEAA@Verror_code@1@AEBV?$basic_string@DU?$char_traits@D@std@@V?$allocator@D@2@@1@@Z
pdata	ENDS
;	COMDAT pdata
pdata	SEGMENT
$pdata$?_Makestr@_System_error@std@@CA?AV?$basic_string@DU?$char_traits@D@std@@V?$allocator@D@2@@2@Verror_code@2@V32@@Z DD imagerel $LN205
	DD	imagerel $LN205+405
	DD	imagerel $unwind$?_Makestr@_System_error@std@@CA?AV?$basic_string@DU?$char_traits@D@std@@V?$allocator@D@2@@2@Verror_code@2@V32@@Z
pdata	ENDS
;	COMDAT pdata
pdata	SEGMENT
$pdata$?make_error_code@std@@YA?AVerror_code@1@W4io_errc@1@@Z DD imagerel $LN29
	DD	imagerel $LN29+143
	DD	imagerel $unwind$?make_error_code@std@@YA?AVerror_code@1@W4io_errc@1@@Z
pdata	ENDS
;	COMDAT pdata
pdata	SEGMENT
$pdata$?equivalent@error_category@std@@UEBA_NHAEBVerror_condition@2@@Z DD imagerel $LN32
	DD	imagerel $LN32+95
	DD	imagerel $unwind$?equivalent@error_category@std@@UEBA_NHAEBVerror_condition@2@@Z
pdata	ENDS
;	COMDAT pdata
pdata	SEGMENT
$pdata$?message@error_code@std@@QEBA?AV?$basic_string@DU?$char_traits@D@std@@V?$allocator@D@2@@2@XZ DD imagerel $LN12
	DD	imagerel $LN12+39
	DD	imagerel $unwind$?message@error_code@std@@QEBA?AV?$basic_string@DU?$char_traits@D@std@@V?$allocator@D@2@@2@XZ
pdata	ENDS
;	COMDAT pdata
pdata	SEGMENT
$pdata$??_Gerror_category@std@@UEAAPEAXI@Z DD imagerel $LN9
	DD	imagerel $LN9+43
	DD	imagerel $unwind$??_Gerror_category@std@@UEAAPEAXI@Z
pdata	ENDS
;	COMDAT pdata
pdata	SEGMENT
$pdata$??_G?$ctype@_W@std@@MEAAPEAXI@Z DD imagerel $LN19
	DD	imagerel $LN19+92
	DD	imagerel $unwind$??_G?$ctype@_W@std@@MEAAPEAXI@Z
pdata	ENDS
;	COMDAT pdata
pdata	SEGMENT
$pdata$?do_narrow@?$ctype@_W@std@@MEBAPEB_WPEB_W0DPEAD@Z DD imagerel $LN16
	DD	imagerel $LN16+67
	DD	imagerel $unwind$?do_narrow@?$ctype@_W@std@@MEBAPEB_WPEB_W0DPEAD@Z
pdata	ENDS
;	COMDAT pdata
pdata	SEGMENT
$pdata$0$?do_narrow@?$ctype@_W@std@@MEBAPEB_WPEB_W0DPEAD@Z DD imagerel $LN16+67
	DD	imagerel $LN16+150
	DD	imagerel $chain$0$?do_narrow@?$ctype@_W@std@@MEBAPEB_WPEB_W0DPEAD@Z
pdata	ENDS
;	COMDAT pdata
pdata	SEGMENT
$pdata$1$?do_narrow@?$ctype@_W@std@@MEBAPEB_WPEB_W0DPEAD@Z DD imagerel $LN16+150
	DD	imagerel $LN16+177
	DD	imagerel $chain$1$?do_narrow@?$ctype@_W@std@@MEBAPEB_WPEB_W0DPEAD@Z
pdata	ENDS
;	COMDAT pdata
pdata	SEGMENT
$pdata$?do_narrow@?$ctype@_W@std@@MEBAD_WD@Z DD imagerel $LN8
	DD	imagerel $LN8+84
	DD	imagerel $unwind$?do_narrow@?$ctype@_W@std@@MEBAD_WD@Z
pdata	ENDS
;	COMDAT pdata
pdata	SEGMENT
$pdata$?_Donarrow@?$ctype@_W@std@@IEBAD_WD@Z DD imagerel $LN6
	DD	imagerel $LN6+84
	DD	imagerel $unwind$?_Donarrow@?$ctype@_W@std@@IEBAD_WD@Z
pdata	ENDS
;	COMDAT pdata
pdata	SEGMENT
$pdata$?do_widen@?$ctype@_W@std@@MEBAPEBDPEBD0PEA_W@Z DD imagerel $LN14
	DD	imagerel $LN14+35
	DD	imagerel $unwind$?do_widen@?$ctype@_W@std@@MEBAPEBDPEBD0PEA_W@Z
pdata	ENDS
;	COMDAT pdata
pdata	SEGMENT
$pdata$1$?do_widen@?$ctype@_W@std@@MEBAPEBDPEBD0PEA_W@Z DD imagerel $LN14+35
	DD	imagerel $LN14+154
	DD	imagerel $chain$1$?do_widen@?$ctype@_W@std@@MEBAPEBDPEBD0PEA_W@Z
pdata	ENDS
;	COMDAT pdata
pdata	SEGMENT
$pdata$2$?do_widen@?$ctype@_W@std@@MEBAPEBDPEBD0PEA_W@Z DD imagerel $LN14+154
	DD	imagerel $LN14+166
	DD	imagerel $chain$2$?do_widen@?$ctype@_W@std@@MEBAPEBDPEBD0PEA_W@Z
pdata	ENDS
;	COMDAT pdata
pdata	SEGMENT
$pdata$?do_widen@?$ctype@_W@std@@MEBA_WD@Z DD imagerel $LN6
	DD	imagerel $LN6+74
	DD	imagerel $unwind$?do_widen@?$ctype@_W@std@@MEBA_WD@Z
pdata	ENDS
;	COMDAT pdata
pdata	SEGMENT
$pdata$?_Dowiden@?$ctype@_W@std@@IEBA_WD@Z DD imagerel $LN4
	DD	imagerel $LN4+74
	DD	imagerel $unwind$?_Dowiden@?$ctype@_W@std@@IEBA_WD@Z
pdata	ENDS
;	COMDAT pdata
pdata	SEGMENT
$pdata$?do_toupper@?$ctype@_W@std@@MEBAPEB_WPEA_WPEB_W@Z DD imagerel $LN12
	DD	imagerel $LN12+44
	DD	imagerel $unwind$?do_toupper@?$ctype@_W@std@@MEBAPEB_WPEA_WPEB_W@Z
pdata	ENDS
;	COMDAT pdata
pdata	SEGMENT
$pdata$0$?do_toupper@?$ctype@_W@std@@MEBAPEB_WPEA_WPEB_W@Z DD imagerel $LN12+44
	DD	imagerel $LN12+84
	DD	imagerel $chain$0$?do_toupper@?$ctype@_W@std@@MEBAPEB_WPEA_WPEB_W@Z
pdata	ENDS
;	COMDAT pdata
pdata	SEGMENT
$pdata$1$?do_toupper@?$ctype@_W@std@@MEBAPEB_WPEA_WPEB_W@Z DD imagerel $LN12+84
	DD	imagerel $LN12+103
	DD	imagerel $chain$1$?do_toupper@?$ctype@_W@std@@MEBAPEB_WPEA_WPEB_W@Z
pdata	ENDS
;	COMDAT pdata
pdata	SEGMENT
$pdata$?do_tolower@?$ctype@_W@std@@MEBAPEB_WPEA_WPEB_W@Z DD imagerel $LN12
	DD	imagerel $LN12+44
	DD	imagerel $unwind$?do_tolower@?$ctype@_W@std@@MEBAPEB_WPEA_WPEB_W@Z
pdata	ENDS
;	COMDAT pdata
pdata	SEGMENT
$pdata$0$?do_tolower@?$ctype@_W@std@@MEBAPEB_WPEA_WPEB_W@Z DD imagerel $LN12+44
	DD	imagerel $LN12+84
	DD	imagerel $chain$0$?do_tolower@?$ctype@_W@std@@MEBAPEB_WPEA_WPEB_W@Z
pdata	ENDS
;	COMDAT pdata
pdata	SEGMENT
$pdata$1$?do_tolower@?$ctype@_W@std@@MEBAPEB_WPEA_WPEB_W@Z DD imagerel $LN12+84
	DD	imagerel $LN12+103
	DD	imagerel $chain$1$?do_tolower@?$ctype@_W@std@@MEBAPEB_WPEA_WPEB_W@Z
pdata	ENDS
;	COMDAT pdata
pdata	SEGMENT
$pdata$?do_scan_not@?$ctype@_W@std@@MEBAPEB_WFPEB_W0@Z DD imagerel $LN20
	DD	imagerel $LN20+37
	DD	imagerel $unwind$?do_scan_not@?$ctype@_W@std@@MEBAPEB_WFPEB_W0@Z
pdata	ENDS
;	COMDAT pdata
pdata	SEGMENT
$pdata$0$?do_scan_not@?$ctype@_W@std@@MEBAPEB_WFPEB_W0@Z DD imagerel $LN20+37
	DD	imagerel $LN20+101
	DD	imagerel $chain$0$?do_scan_not@?$ctype@_W@std@@MEBAPEB_WFPEB_W0@Z
pdata	ENDS
;	COMDAT pdata
pdata	SEGMENT
$pdata$1$?do_scan_not@?$ctype@_W@std@@MEBAPEB_WFPEB_W0@Z DD imagerel $LN20+101
	DD	imagerel $LN20+127
	DD	imagerel $chain$1$?do_scan_not@?$ctype@_W@std@@MEBAPEB_WFPEB_W0@Z
pdata	ENDS
;	COMDAT pdata
pdata	SEGMENT
$pdata$2$?do_scan_not@?$ctype@_W@std@@MEBAPEB_WFPEB_W0@Z DD imagerel $LN20+127
	DD	imagerel $LN20+138
	DD	imagerel $chain$2$?do_scan_not@?$ctype@_W@std@@MEBAPEB_WFPEB_W0@Z
pdata	ENDS
;	COMDAT pdata
pdata	SEGMENT
$pdata$?do_scan_is@?$ctype@_W@std@@MEBAPEB_WFPEB_W0@Z DD imagerel $LN20
	DD	imagerel $LN20+37
	DD	imagerel $unwind$?do_scan_is@?$ctype@_W@std@@MEBAPEB_WFPEB_W0@Z
pdata	ENDS
;	COMDAT pdata
pdata	SEGMENT
$pdata$0$?do_scan_is@?$ctype@_W@std@@MEBAPEB_WFPEB_W0@Z DD imagerel $LN20+37
	DD	imagerel $LN20+101
	DD	imagerel $chain$0$?do_scan_is@?$ctype@_W@std@@MEBAPEB_WFPEB_W0@Z
pdata	ENDS
;	COMDAT pdata
pdata	SEGMENT
$pdata$1$?do_scan_is@?$ctype@_W@std@@MEBAPEB_WFPEB_W0@Z DD imagerel $LN20+101
	DD	imagerel $LN20+127
	DD	imagerel $chain$1$?do_scan_is@?$ctype@_W@std@@MEBAPEB_WFPEB_W0@Z
pdata	ENDS
;	COMDAT pdata
pdata	SEGMENT
$pdata$2$?do_scan_is@?$ctype@_W@std@@MEBAPEB_WFPEB_W0@Z DD imagerel $LN20+127
	DD	imagerel $LN20+138
	DD	imagerel $chain$2$?do_scan_is@?$ctype@_W@std@@MEBAPEB_WFPEB_W0@Z
pdata	ENDS
;	COMDAT pdata
pdata	SEGMENT
$pdata$?do_is@?$ctype@_W@std@@MEBA_NF_W@Z DD imagerel $LN4
	DD	imagerel $LN4+34
	DD	imagerel $unwind$?do_is@?$ctype@_W@std@@MEBA_NF_W@Z
pdata	ENDS
;	COMDAT pdata
pdata	SEGMENT
$pdata$?_Init@?$ctype@_W@std@@IEAAXAEBV_Locinfo@2@@Z DD imagerel $LN8
	DD	imagerel $LN8+81
	DD	imagerel $unwind$?_Init@?$ctype@_W@std@@IEAAXAEBV_Locinfo@2@@Z
pdata	ENDS
;	COMDAT pdata
pdata	SEGMENT
$pdata$??1?$ctype@_W@std@@MEAA@XZ DD imagerel $LN14
	DD	imagerel $LN14+59
	DD	imagerel $unwind$??1?$ctype@_W@std@@MEAA@XZ
pdata	ENDS
;	COMDAT pdata
pdata	SEGMENT
$pdata$?_Getcat@?$ctype@_W@std@@SA_KPEAPEBVfacet@locale@2@PEBV42@@Z DD imagerel $LN57
	DD	imagerel $LN57+378
	DD	imagerel $unwind$?_Getcat@?$ctype@_W@std@@SA_KPEAPEBVfacet@locale@2@PEBV42@@Z
pdata	ENDS
;	COMDAT pdata
pdata	SEGMENT
$pdata$?dtor$0@?0??_Getcat@?$ctype@_W@std@@SA_KPEAPEBVfacet@locale@2@PEBV42@@Z@4HA DD imagerel ?dtor$0@?0??_Getcat@?$ctype@_W@std@@SA_KPEAPEBVfacet@locale@2@PEBV42@@Z@4HA
	DD	imagerel ?dtor$0@?0??_Getcat@?$ctype@_W@std@@SA_KPEAPEBVfacet@locale@2@PEBV42@@Z@4HA+32
	DD	imagerel $unwind$?dtor$0@?0??_Getcat@?$ctype@_W@std@@SA_KPEAPEBVfacet@locale@2@PEBV42@@Z@4HA
pdata	ENDS
;	COMDAT pdata
pdata	SEGMENT
$pdata$??0?$ctype@_W@std@@QEAA@AEBV_Locinfo@1@_K@Z DD imagerel $LN17
	DD	imagerel $LN17+98
	DD	imagerel $unwind$??0?$ctype@_W@std@@QEAA@AEBV_Locinfo@1@_K@Z
pdata	ENDS
;	COMDAT pdata
pdata	SEGMENT
$pdata$?widen@?$ctype@_W@std@@QEBA_WD@Z DD imagerel $LN10
	DD	imagerel $LN10+99
	DD	imagerel $unwind$?widen@?$ctype@_W@std@@QEBA_WD@Z
pdata	ENDS
;	COMDAT pdata
pdata	SEGMENT
$pdata$?is@?$ctype@_W@std@@QEBA_NF_W@Z DD imagerel $LN8
	DD	imagerel $LN8+63
	DD	imagerel $unwind$?is@?$ctype@_W@std@@QEBA_NF_W@Z
pdata	ENDS
;	COMDAT pdata
pdata	SEGMENT
$pdata$??_G?$ctype@D@std@@MEAAPEAXI@Z DD imagerel $LN24
	DD	imagerel $LN24+106
	DD	imagerel $unwind$??_G?$ctype@D@std@@MEAAPEAXI@Z
pdata	ENDS
;	COMDAT pdata
pdata	SEGMENT
$pdata$?do_narrow@?$ctype@D@std@@MEBAPEBDPEBD0DPEAD@Z DD imagerel $LN4
	DD	imagerel $LN4+31
	DD	imagerel $unwind$?do_narrow@?$ctype@D@std@@MEBAPEBDPEBD0DPEAD@Z
pdata	ENDS
;	COMDAT pdata
pdata	SEGMENT
$pdata$?do_widen@?$ctype@D@std@@MEBAPEBDPEBD0PEAD@Z DD imagerel $LN4
	DD	imagerel $LN4+29
	DD	imagerel $unwind$?do_widen@?$ctype@D@std@@MEBAPEBDPEBD0PEAD@Z
pdata	ENDS
;	COMDAT pdata
pdata	SEGMENT
$pdata$?do_toupper@?$ctype@D@std@@MEBAPEBDPEADPEBD@Z DD imagerel $LN12
	DD	imagerel $LN12+38
	DD	imagerel $unwind$?do_toupper@?$ctype@D@std@@MEBAPEBDPEADPEBD@Z
pdata	ENDS
;	COMDAT pdata
pdata	SEGMENT
$pdata$0$?do_toupper@?$ctype@D@std@@MEBAPEBDPEADPEBD@Z DD imagerel $LN12+38
	DD	imagerel $LN12+77
	DD	imagerel $chain$0$?do_toupper@?$ctype@D@std@@MEBAPEBDPEADPEBD@Z
pdata	ENDS
;	COMDAT pdata
pdata	SEGMENT
$pdata$1$?do_toupper@?$ctype@D@std@@MEBAPEBDPEADPEBD@Z DD imagerel $LN12+77
	DD	imagerel $LN12+96
	DD	imagerel $chain$1$?do_toupper@?$ctype@D@std@@MEBAPEBDPEADPEBD@Z
pdata	ENDS
;	COMDAT pdata
pdata	SEGMENT
$pdata$?do_tolower@?$ctype@D@std@@MEBAPEBDPEADPEBD@Z DD imagerel $LN12
	DD	imagerel $LN12+38
	DD	imagerel $unwind$?do_tolower@?$ctype@D@std@@MEBAPEBDPEADPEBD@Z
pdata	ENDS
;	COMDAT pdata
pdata	SEGMENT
$pdata$0$?do_tolower@?$ctype@D@std@@MEBAPEBDPEADPEBD@Z DD imagerel $LN12+38
	DD	imagerel $LN12+77
	DD	imagerel $chain$0$?do_tolower@?$ctype@D@std@@MEBAPEBDPEADPEBD@Z
pdata	ENDS
;	COMDAT pdata
pdata	SEGMENT
$pdata$1$?do_tolower@?$ctype@D@std@@MEBAPEBDPEADPEBD@Z DD imagerel $LN12+77
	DD	imagerel $LN12+96
	DD	imagerel $chain$1$?do_tolower@?$ctype@D@std@@MEBAPEBDPEADPEBD@Z
pdata	ENDS
;	COMDAT pdata
pdata	SEGMENT
$pdata$?_Tidy@?$ctype@D@std@@IEAAXXZ DD imagerel $LN8
	DD	imagerel $LN8+64
	DD	imagerel $unwind$?_Tidy@?$ctype@D@std@@IEAAXXZ
pdata	ENDS
;	COMDAT pdata
pdata	SEGMENT
$pdata$?_Init@?$ctype@D@std@@IEAAXAEBV_Locinfo@2@@Z DD imagerel $LN6
	DD	imagerel $LN6+40
	DD	imagerel $unwind$?_Init@?$ctype@D@std@@IEAAXAEBV_Locinfo@2@@Z
pdata	ENDS
;	COMDAT pdata
pdata	SEGMENT
$pdata$??1?$ctype@D@std@@MEAA@XZ DD imagerel $LN19
	DD	imagerel $LN19+73
	DD	imagerel $unwind$??1?$ctype@D@std@@MEAA@XZ
pdata	ENDS
;	COMDAT pdata
pdata	SEGMENT
$pdata$?_Getcat@?$ctype@D@std@@SA_KPEAPEBVfacet@locale@2@PEBV42@@Z DD imagerel $LN55
	DD	imagerel $LN55+334
	DD	imagerel $unwind$?_Getcat@?$ctype@D@std@@SA_KPEAPEBVfacet@locale@2@PEBV42@@Z
pdata	ENDS
;	COMDAT pdata
pdata	SEGMENT
$pdata$?dtor$0@?0??_Getcat@?$ctype@D@std@@SA_KPEAPEBVfacet@locale@2@PEBV42@@Z@4HA DD imagerel ?dtor$0@?0??_Getcat@?$ctype@D@std@@SA_KPEAPEBVfacet@locale@2@PEBV42@@Z@4HA
	DD	imagerel ?dtor$0@?0??_Getcat@?$ctype@D@std@@SA_KPEAPEBVfacet@locale@2@PEBV42@@Z@4HA+32
	DD	imagerel $unwind$?dtor$0@?0??_Getcat@?$ctype@D@std@@SA_KPEAPEBVfacet@locale@2@PEBV42@@Z@4HA
pdata	ENDS
;	COMDAT pdata
pdata	SEGMENT
$pdata$??0?$ctype@D@std@@QEAA@AEBV_Locinfo@1@_K@Z DD imagerel $LN15
	DD	imagerel $LN15+57
	DD	imagerel $unwind$??0?$ctype@D@std@@QEAA@AEBV_Locinfo@1@_K@Z
pdata	ENDS
;	COMDAT pdata
pdata	SEGMENT
$pdata$?widen@?$ctype@D@std@@QEBADD@Z DD imagerel $LN8
	DD	imagerel $LN8+37
	DD	imagerel $unwind$?widen@?$ctype@D@std@@QEBADD@Z
pdata	ENDS
;	COMDAT pdata
pdata	SEGMENT
$pdata$??_Gctype_base@std@@UEAAPEAXI@Z DD imagerel $LN15
	DD	imagerel $LN15+43
	DD	imagerel $unwind$??_Gctype_base@std@@UEAAPEAXI@Z
pdata	ENDS
;	COMDAT pdata
pdata	SEGMENT
$pdata$??_Gfacet@locale@std@@MEAAPEAXI@Z DD imagerel $LN12
	DD	imagerel $LN12+43
	DD	imagerel $unwind$??_Gfacet@locale@std@@MEAAPEAXI@Z
pdata	ENDS
;	COMDAT pdata
pdata	SEGMENT
$pdata$?_Getfacet@locale@std@@QEBAPEBVfacet@12@_K@Z DD imagerel $LN12
	DD	imagerel $LN12+82
	DD	imagerel $unwind$?_Getfacet@locale@std@@QEBAPEBVfacet@12@_K@Z
pdata	ENDS
;	COMDAT pdata
pdata	SEGMENT
$pdata$??1locale@std@@QEAA@XZ DD imagerel $LN6
	DD	imagerel $LN6+57
	DD	imagerel $unwind$??1locale@std@@QEAA@XZ
pdata	ENDS
;	COMDAT pdata
pdata	SEGMENT
$pdata$??0locale@std@@QEAA@AEBV01@@Z DD imagerel $LN3
	DD	imagerel $LN3+42
	DD	imagerel $unwind$??0locale@std@@QEAA@AEBV01@@Z
pdata	ENDS
;	COMDAT pdata
pdata	SEGMENT
$pdata$??Bid@locale@std@@QEAA_KXZ DD imagerel $LN8
	DD	imagerel $LN8+80
	DD	imagerel $unwind$??Bid@locale@std@@QEAA_KXZ
pdata	ENDS
;	COMDAT pdata
pdata	SEGMENT
$pdata$??_G_Facet_base@std@@UEAAPEAXI@Z DD imagerel $LN9
	DD	imagerel $LN9+43
	DD	imagerel $unwind$??_G_Facet_base@std@@UEAAPEAXI@Z
pdata	ENDS
;	COMDAT pdata
pdata	SEGMENT
$pdata$??0runtime_error@std@@QEAA@AEBV01@@Z DD imagerel $LN6
	DD	imagerel $LN6+63
	DD	imagerel $unwind$??0runtime_error@std@@QEAA@AEBV01@@Z
pdata	ENDS
;	COMDAT pdata
pdata	SEGMENT
$pdata$?_Getcvt@_Locinfo@std@@QEBA?AU_Cvtvec@@XZ DD imagerel $LN4
	DD	imagerel $LN4+58
	DD	imagerel $unwind$?_Getcvt@_Locinfo@std@@QEBA?AU_Cvtvec@@XZ
pdata	ENDS
;	COMDAT pdata
pdata	SEGMENT
$pdata$?_Getctype@_Locinfo@std@@QEBA?AU_Ctypevec@@XZ DD imagerel $LN4
	DD	imagerel $LN4+42
	DD	imagerel $unwind$?_Getctype@_Locinfo@std@@QEBA?AU_Ctypevec@@XZ
pdata	ENDS
;	COMDAT pdata
pdata	SEGMENT
$pdata$??1_Locinfo@std@@QEAA@XZ DD imagerel $LN39
	DD	imagerel $LN39+163
	DD	imagerel $unwind$??1_Locinfo@std@@QEAA@XZ
pdata	ENDS
;	COMDAT pdata
pdata	SEGMENT
$pdata$??0_Locinfo@std@@QEAA@PEBD@Z DD imagerel $LN24
	DD	imagerel $LN24+150
	DD	imagerel $unwind$??0_Locinfo@std@@QEAA@PEBD@Z
pdata	ENDS
;	COMDAT pdata
pdata	SEGMENT
$pdata$??_Gbad_cast@std@@UEAAPEAXI@Z DD imagerel $LN11
	DD	imagerel $LN11+66
	DD	imagerel $unwind$??_Gbad_cast@std@@UEAAPEAXI@Z
pdata	ENDS
;	COMDAT pdata
pdata	SEGMENT
$pdata$??_Gruntime_error@std@@UEAAPEAXI@Z DD imagerel $LN11
	DD	imagerel $LN11+66
	DD	imagerel $unwind$??_Gruntime_error@std@@UEAAPEAXI@Z
pdata	ENDS
;	COMDAT pdata
pdata	SEGMENT
$pdata$??0runtime_error@std@@QEAA@PEBD@Z DD imagerel $LN6
	DD	imagerel $LN6+74
	DD	imagerel $unwind$??0runtime_error@std@@QEAA@PEBD@Z
pdata	ENDS
;	COMDAT pdata
pdata	SEGMENT
$pdata$??0runtime_error@std@@QEAA@AEBV?$basic_string@DU?$char_traits@D@std@@V?$allocator@D@2@@1@@Z DD imagerel $LN25
	DD	imagerel $LN25+84
	DD	imagerel $unwind$??0runtime_error@std@@QEAA@AEBV?$basic_string@DU?$char_traits@D@std@@V?$allocator@D@2@@1@@Z
pdata	ENDS
;	COMDAT pdata
pdata	SEGMENT
$pdata$?_Deallocate@std@@YAXPEAX_K1@Z DD imagerel $LN16
	DD	imagerel $LN16+105
	DD	imagerel $unwind$?_Deallocate@std@@YAXPEAX_K1@Z
pdata	ENDS
;	COMDAT pdata
pdata	SEGMENT
$pdata$?_Allocate@std@@YAPEAX_K0_N@Z DD imagerel $LN14
	DD	imagerel $LN14+113
	DD	imagerel $unwind$?_Allocate@std@@YAPEAX_K0_N@Z
pdata	ENDS
;	COMDAT pdata
pdata	SEGMENT
$pdata$?copy@?$char_traits@D@std@@SAPEADQEADQEBD_K@Z DD imagerel $LN4
	DD	imagerel $LN4+23
	DD	imagerel $unwind$?copy@?$char_traits@D@std@@SAPEADQEADQEBD_K@Z
pdata	ENDS
;	COMDAT pdata
pdata	SEGMENT
$pdata$??_Gexception@std@@UEAAPEAXI@Z DD imagerel $LN8
	DD	imagerel $LN8+66
	DD	imagerel $unwind$??_Gexception@std@@UEAAPEAXI@Z
pdata	ENDS
;	COMDAT pdata
pdata	SEGMENT
$pdata$??0exception@std@@QEAA@AEBV01@@Z DD imagerel $LN4
	DD	imagerel $LN4+53
	DD	imagerel $unwind$??0exception@std@@QEAA@AEBV01@@Z
pdata	ENDS
;	COMDAT pdata
pdata	SEGMENT
$pdata$??0exception@std@@QEAA@QEBD@Z DD imagerel $LN4
	DD	imagerel $LN4+64
	DD	imagerel $unwind$??0exception@std@@QEAA@QEBD@Z
pdata	ENDS
;	COMDAT xdata
xdata	SEGMENT
$unwind$??0exception@std@@QEAA@QEBD@Z DD 020601H
	DD	030025206H
xdata	ENDS
;	COMDAT xdata
xdata	SEGMENT
$unwind$??0exception@std@@QEAA@AEBV01@@Z DD 020601H
	DD	030023206H
xdata	ENDS
;	COMDAT xdata
xdata	SEGMENT
$unwind$??_Gexception@std@@UEAAPEAXI@Z DD 040a01H
	DD	06340aH
	DD	07006320aH
xdata	ENDS
;	COMDAT xdata
xdata	SEGMENT
$unwind$?copy@?$char_traits@D@std@@SAPEADQEADQEBD_K@Z DD 020601H
	DD	030023206H
xdata	ENDS
;	COMDAT xdata
xdata	SEGMENT
$unwind$?_Allocate@std@@YAPEAX_K0_N@Z DD 010401H
	DD	04204H
xdata	ENDS
;	COMDAT xdata
xdata	SEGMENT
$unwind$?_Deallocate@std@@YAXPEAX_K1@Z DD 010401H
	DD	04204H
xdata	ENDS
;	COMDAT xdata
xdata	SEGMENT
$unwind$??0runtime_error@std@@QEAA@AEBV?$basic_string@DU?$char_traits@D@std@@V?$allocator@D@2@@1@@Z DD 020601H
	DD	030025206H
xdata	ENDS
;	COMDAT xdata
xdata	SEGMENT
$unwind$??0runtime_error@std@@QEAA@PEBD@Z DD 020601H
	DD	030025206H
xdata	ENDS
;	COMDAT xdata
xdata	SEGMENT
$unwind$??_Gruntime_error@std@@UEAAPEAXI@Z DD 040a01H
	DD	06340aH
	DD	07006320aH
xdata	ENDS
;	COMDAT xdata
xdata	SEGMENT
$unwind$??_Gbad_cast@std@@UEAAPEAXI@Z DD 040a01H
	DD	06340aH
	DD	07006320aH
xdata	ENDS
;	COMDAT xdata
xdata	SEGMENT
$ip2state$??0_Locinfo@std@@QEAA@PEBD@Z DD imagerel ??0_Locinfo@std@@QEAA@PEBD@Z
	DD	0ffffffffH
	DD	imagerel ??0_Locinfo@std@@QEAA@PEBD@Z+38
	DD	00H
	DD	imagerel ??0_Locinfo@std@@QEAA@PEBD@Z+47
	DD	01H
	DD	imagerel ??0_Locinfo@std@@QEAA@PEBD@Z+54
	DD	02H
	DD	imagerel ??0_Locinfo@std@@QEAA@PEBD@Z+62
	DD	03H
	DD	imagerel ??0_Locinfo@std@@QEAA@PEBD@Z+70
	DD	04H
	DD	imagerel ??0_Locinfo@std@@QEAA@PEBD@Z+77
	DD	05H
	DD	imagerel ??0_Locinfo@std@@QEAA@PEBD@Z+84
	DD	06H
	DD	imagerel ??0_Locinfo@std@@QEAA@PEBD@Z+136
	DD	0ffffffffH
xdata	ENDS
;	COMDAT xdata
xdata	SEGMENT
$stateUnwindMap$??0_Locinfo@std@@QEAA@PEBD@Z DD 0ffffffffH
	DD	imagerel ?dtor$0@?0???0_Locinfo@std@@QEAA@PEBD@Z@4HA
	DD	00H
	DD	imagerel ?dtor$1@?0???0_Locinfo@std@@QEAA@PEBD@Z@4HA
	DD	01H
	DD	imagerel ?dtor$2@?0???0_Locinfo@std@@QEAA@PEBD@Z@4HA
	DD	02H
	DD	imagerel ?dtor$3@?0???0_Locinfo@std@@QEAA@PEBD@Z@4HA
	DD	03H
	DD	imagerel ?dtor$4@?0???0_Locinfo@std@@QEAA@PEBD@Z@4HA
	DD	04H
	DD	imagerel ?dtor$5@?0???0_Locinfo@std@@QEAA@PEBD@Z@4HA
	DD	05H
	DD	imagerel ?dtor$6@?0???0_Locinfo@std@@QEAA@PEBD@Z@4HA
xdata	ENDS
;	COMDAT CONST
CONST	SEGMENT
$cppxdata$??0_Locinfo@std@@QEAA@PEBD@Z DD 019930522H
	DD	07H
	DD	imagerel $stateUnwindMap$??0_Locinfo@std@@QEAA@PEBD@Z
	DD	00H
	DD	00H
	DD	09H
	DD	imagerel $ip2state$??0_Locinfo@std@@QEAA@PEBD@Z
	DD	020H
	DD	00H
	DD	01H
CONST	ENDS
;	COMDAT xdata
xdata	SEGMENT
$unwind$??0_Locinfo@std@@QEAA@PEBD@Z DD 041811H
	DD	0b3418H
	DD	07006720aH
	DD	imagerel __CxxFrameHandler3
	DD	imagerel $cppxdata$??0_Locinfo@std@@QEAA@PEBD@Z
xdata	ENDS
;	COMDAT xdata
xdata	SEGMENT
$ip2state$??1_Locinfo@std@@QEAA@XZ DD imagerel ??1_Locinfo@std@@QEAA@XZ
	DD	0ffffffffH
xdata	ENDS
;	COMDAT CONST
CONST	SEGMENT
$cppxdata$??1_Locinfo@std@@QEAA@XZ DD 019930522H
	DD	00H
	DD	00H
	DD	00H
	DD	00H
	DD	01H
	DD	imagerel $ip2state$??1_Locinfo@std@@QEAA@XZ
	DD	020H
	DD	00H
	DD	05H
CONST	ENDS
;	COMDAT xdata
xdata	SEGMENT
$unwind$??1_Locinfo@std@@QEAA@XZ DD 041419H
	DD	083414H
	DD	070025206H
	DD	imagerel __CxxFrameHandler3
	DD	imagerel $cppxdata$??1_Locinfo@std@@QEAA@XZ
xdata	ENDS
;	COMDAT xdata
xdata	SEGMENT
$unwind$?_Getctype@_Locinfo@std@@QEBA?AU_Ctypevec@@XZ DD 020601H
	DD	030027206H
xdata	ENDS
;	COMDAT xdata
xdata	SEGMENT
$unwind$?_Getcvt@_Locinfo@std@@QEBA?AU_Cvtvec@@XZ DD 020601H
	DD	030029206H
xdata	ENDS
;	COMDAT xdata
xdata	SEGMENT
$unwind$??0runtime_error@std@@QEAA@AEBV01@@Z DD 020601H
	DD	030023206H
xdata	ENDS
;	COMDAT xdata
xdata	SEGMENT
$unwind$??_G_Facet_base@std@@UEAAPEAXI@Z DD 020601H
	DD	030023206H
xdata	ENDS
;	COMDAT xdata
xdata	SEGMENT
$unwind$??Bid@locale@std@@QEAA_KXZ DD 020601H
	DD	030023206H
xdata	ENDS
;	COMDAT xdata
xdata	SEGMENT
$ip2state$??0locale@std@@QEAA@AEBV01@@Z DD imagerel ??0locale@std@@QEAA@AEBV01@@Z
	DD	0ffffffffH
xdata	ENDS
;	COMDAT CONST
CONST	SEGMENT
$cppxdata$??0locale@std@@QEAA@AEBV01@@Z DD 019930522H
	DD	00H
	DD	00H
	DD	00H
	DD	00H
	DD	01H
	DD	imagerel $ip2state$??0locale@std@@QEAA@AEBV01@@Z
	DD	020H
	DD	00H
	DD	05H
CONST	ENDS
;	COMDAT xdata
xdata	SEGMENT
$unwind$??0locale@std@@QEAA@AEBV01@@Z DD 020f19H
	DD	030025206H
	DD	imagerel __CxxFrameHandler3
	DD	imagerel $cppxdata$??0locale@std@@QEAA@AEBV01@@Z
xdata	ENDS
;	COMDAT xdata
xdata	SEGMENT
$ip2state$??1locale@std@@QEAA@XZ DD imagerel ??1locale@std@@QEAA@XZ
	DD	0ffffffffH
xdata	ENDS
;	COMDAT CONST
CONST	SEGMENT
$cppxdata$??1locale@std@@QEAA@XZ DD 019930522H
	DD	00H
	DD	00H
	DD	00H
	DD	00H
	DD	01H
	DD	imagerel $ip2state$??1locale@std@@QEAA@XZ
	DD	020H
	DD	00H
	DD	05H
CONST	ENDS
;	COMDAT xdata
xdata	SEGMENT
$unwind$??1locale@std@@QEAA@XZ DD 010d19H
	DD	06204H
	DD	imagerel __CxxFrameHandler3
	DD	imagerel $cppxdata$??1locale@std@@QEAA@XZ
xdata	ENDS
;	COMDAT xdata
xdata	SEGMENT
$unwind$?_Getfacet@locale@std@@QEBAPEBVfacet@12@_K@Z DD 040a01H
	DD	06340aH
	DD	07006320aH
xdata	ENDS
;	COMDAT xdata
xdata	SEGMENT
$unwind$??_Gfacet@locale@std@@MEAAPEAXI@Z DD 020601H
	DD	030023206H
xdata	ENDS
;	COMDAT xdata
xdata	SEGMENT
$unwind$??_Gctype_base@std@@UEAAPEAXI@Z DD 020601H
	DD	030023206H
xdata	ENDS
;	COMDAT xdata
xdata	SEGMENT
$unwind$?widen@?$ctype@D@std@@QEBADD@Z DD 010401H
	DD	04204H
xdata	ENDS
;	COMDAT xdata
xdata	SEGMENT
$unwind$??0?$ctype@D@std@@QEAA@AEBV_Locinfo@1@_K@Z DD 020601H
	DD	030027206H
xdata	ENDS
;	COMDAT xdata
xdata	SEGMENT
$unwind$?dtor$0@?0??_Getcat@?$ctype@D@std@@SA_KPEAPEBVfacet@locale@2@PEBV42@@Z@4HA DD 020601H
	DD	050023206H
xdata	ENDS
;	COMDAT xdata
xdata	SEGMENT
$ip2state$?_Getcat@?$ctype@D@std@@SA_KPEAPEBVfacet@locale@2@PEBV42@@Z DD imagerel ?_Getcat@?$ctype@D@std@@SA_KPEAPEBVfacet@locale@2@PEBV42@@Z
	DD	0ffffffffH
	DD	imagerel ?_Getcat@?$ctype@D@std@@SA_KPEAPEBVfacet@locale@2@PEBV42@@Z+83
	DD	00H
	DD	imagerel ?_Getcat@?$ctype@D@std@@SA_KPEAPEBVfacet@locale@2@PEBV42@@Z+127
	DD	01H
	DD	imagerel ?_Getcat@?$ctype@D@std@@SA_KPEAPEBVfacet@locale@2@PEBV42@@Z+137
	DD	02H
	DD	imagerel ?_Getcat@?$ctype@D@std@@SA_KPEAPEBVfacet@locale@2@PEBV42@@Z+147
	DD	03H
	DD	imagerel ?_Getcat@?$ctype@D@std@@SA_KPEAPEBVfacet@locale@2@PEBV42@@Z+157
	DD	04H
	DD	imagerel ?_Getcat@?$ctype@D@std@@SA_KPEAPEBVfacet@locale@2@PEBV42@@Z+167
	DD	05H
	DD	imagerel ?_Getcat@?$ctype@D@std@@SA_KPEAPEBVfacet@locale@2@PEBV42@@Z+177
	DD	06H
	DD	imagerel ?_Getcat@?$ctype@D@std@@SA_KPEAPEBVfacet@locale@2@PEBV42@@Z+190
	DD	07H
	DD	imagerel ?_Getcat@?$ctype@D@std@@SA_KPEAPEBVfacet@locale@2@PEBV42@@Z+250
	DD	00H
	DD	imagerel ?_Getcat@?$ctype@D@std@@SA_KPEAPEBVfacet@locale@2@PEBV42@@Z+291
	DD	0ffffffffH
xdata	ENDS
;	COMDAT xdata
xdata	SEGMENT
$stateUnwindMap$?_Getcat@?$ctype@D@std@@SA_KPEAPEBVfacet@locale@2@PEBV42@@Z DD 0ffffffffH
	DD	imagerel ?dtor$0@?0??_Getcat@?$ctype@D@std@@SA_KPEAPEBVfacet@locale@2@PEBV42@@Z@4HA
	DD	00H
	DD	imagerel ?dtor$2@?0??_Getcat@?$ctype@D@std@@SA_KPEAPEBVfacet@locale@2@PEBV42@@Z@4HA
	DD	01H
	DD	imagerel ?dtor$3@?0??_Getcat@?$ctype@D@std@@SA_KPEAPEBVfacet@locale@2@PEBV42@@Z@4HA
	DD	02H
	DD	imagerel ?dtor$4@?0??_Getcat@?$ctype@D@std@@SA_KPEAPEBVfacet@locale@2@PEBV42@@Z@4HA
	DD	03H
	DD	imagerel ?dtor$5@?0??_Getcat@?$ctype@D@std@@SA_KPEAPEBVfacet@locale@2@PEBV42@@Z@4HA
	DD	04H
	DD	imagerel ?dtor$6@?0??_Getcat@?$ctype@D@std@@SA_KPEAPEBVfacet@locale@2@PEBV42@@Z@4HA
	DD	05H
	DD	imagerel ?dtor$7@?0??_Getcat@?$ctype@D@std@@SA_KPEAPEBVfacet@locale@2@PEBV42@@Z@4HA
	DD	06H
	DD	imagerel ?dtor$8@?0??_Getcat@?$ctype@D@std@@SA_KPEAPEBVfacet@locale@2@PEBV42@@Z@4HA
xdata	ENDS
;	COMDAT CONST
CONST	SEGMENT
$cppxdata$?_Getcat@?$ctype@D@std@@SA_KPEAPEBVfacet@locale@2@PEBV42@@Z DD 019930522H
	DD	08H
	DD	imagerel $stateUnwindMap$?_Getcat@?$ctype@D@std@@SA_KPEAPEBVfacet@locale@2@PEBV42@@Z
	DD	00H
	DD	00H
	DD	0bH
	DD	imagerel $ip2state$?_Getcat@?$ctype@D@std@@SA_KPEAPEBVfacet@locale@2@PEBV42@@Z
	DD	088H
	DD	00H
	DD	01H
CONST	ENDS
;	COMDAT xdata
xdata	SEGMENT
$unwind$?_Getcat@?$ctype@D@std@@SA_KPEAPEBVfacet@locale@2@PEBV42@@Z DD 091f11H
	DD	01b641fH
	DD	01a541bH
	DD	0193417H
	DD	016010bH
	DD	07004H
	DD	imagerel __CxxFrameHandler3
	DD	imagerel $cppxdata$?_Getcat@?$ctype@D@std@@SA_KPEAPEBVfacet@locale@2@PEBV42@@Z
xdata	ENDS
;	COMDAT xdata
xdata	SEGMENT
$unwind$??1?$ctype@D@std@@MEAA@XZ DD 020601H
	DD	030023206H
xdata	ENDS
;	COMDAT xdata
xdata	SEGMENT
$unwind$?_Init@?$ctype@D@std@@IEAAXAEBV_Locinfo@2@@Z DD 020601H
	DD	030027206H
xdata	ENDS
;	COMDAT xdata
xdata	SEGMENT
$unwind$?_Tidy@?$ctype@D@std@@IEAAXXZ DD 020601H
	DD	030023206H
xdata	ENDS
;	COMDAT xdata
xdata	SEGMENT
$chain$1$?do_tolower@?$ctype@D@std@@MEBAPEBDPEADPEBD@Z DD 021H
	DD	imagerel $LN12
	DD	imagerel $LN12+38
	DD	imagerel $unwind$?do_tolower@?$ctype@D@std@@MEBAPEBDPEADPEBD@Z
xdata	ENDS
;	COMDAT xdata
xdata	SEGMENT
$chain$0$?do_tolower@?$ctype@D@std@@MEBAPEBDPEADPEBD@Z DD 020521H
	DD	065405H
	DD	imagerel $LN12
	DD	imagerel $LN12+38
	DD	imagerel $unwind$?do_tolower@?$ctype@D@std@@MEBAPEBDPEADPEBD@Z
xdata	ENDS
;	COMDAT xdata
xdata	SEGMENT
$unwind$?do_tolower@?$ctype@D@std@@MEBAPEBDPEADPEBD@Z DD 060f01H
	DD	08640fH
	DD	07340fH
	DD	0700b320fH
xdata	ENDS
;	COMDAT xdata
xdata	SEGMENT
$chain$1$?do_toupper@?$ctype@D@std@@MEBAPEBDPEADPEBD@Z DD 021H
	DD	imagerel $LN12
	DD	imagerel $LN12+38
	DD	imagerel $unwind$?do_toupper@?$ctype@D@std@@MEBAPEBDPEADPEBD@Z
xdata	ENDS
;	COMDAT xdata
xdata	SEGMENT
$chain$0$?do_toupper@?$ctype@D@std@@MEBAPEBDPEADPEBD@Z DD 020521H
	DD	065405H
	DD	imagerel $LN12
	DD	imagerel $LN12+38
	DD	imagerel $unwind$?do_toupper@?$ctype@D@std@@MEBAPEBDPEADPEBD@Z
xdata	ENDS
;	COMDAT xdata
xdata	SEGMENT
$unwind$?do_toupper@?$ctype@D@std@@MEBAPEBDPEADPEBD@Z DD 060f01H
	DD	08640fH
	DD	07340fH
	DD	0700b320fH
xdata	ENDS
;	COMDAT xdata
xdata	SEGMENT
$unwind$?do_widen@?$ctype@D@std@@MEBAPEBDPEBD0PEAD@Z DD 020601H
	DD	030023206H
xdata	ENDS
;	COMDAT xdata
xdata	SEGMENT
$unwind$?do_narrow@?$ctype@D@std@@MEBAPEBDPEBD0DPEAD@Z DD 020601H
	DD	030023206H
xdata	ENDS
;	COMDAT xdata
xdata	SEGMENT
$unwind$??_G?$ctype@D@std@@MEAAPEAXI@Z DD 040a01H
	DD	06340aH
	DD	07006320aH
xdata	ENDS
;	COMDAT xdata
xdata	SEGMENT
$unwind$?is@?$ctype@_W@std@@QEBA_NF_W@Z DD 020601H
	DD	030023206H
xdata	ENDS
;	COMDAT xdata
xdata	SEGMENT
$unwind$?widen@?$ctype@_W@std@@QEBA_WD@Z DD 010401H
	DD	06204H
xdata	ENDS
;	COMDAT xdata
xdata	SEGMENT
$unwind$??0?$ctype@_W@std@@QEAA@AEBV_Locinfo@1@_K@Z DD 020601H
	DD	030029206H
xdata	ENDS
;	COMDAT xdata
xdata	SEGMENT
$unwind$?dtor$0@?0??_Getcat@?$ctype@_W@std@@SA_KPEAPEBVfacet@locale@2@PEBV42@@Z@4HA DD 020601H
	DD	050023206H
xdata	ENDS
;	COMDAT xdata
xdata	SEGMENT
$ip2state$?_Getcat@?$ctype@_W@std@@SA_KPEAPEBVfacet@locale@2@PEBV42@@Z DD imagerel ?_Getcat@?$ctype@_W@std@@SA_KPEAPEBVfacet@locale@2@PEBV42@@Z
	DD	0ffffffffH
	DD	imagerel ?_Getcat@?$ctype@_W@std@@SA_KPEAPEBVfacet@locale@2@PEBV42@@Z+83
	DD	00H
	DD	imagerel ?_Getcat@?$ctype@_W@std@@SA_KPEAPEBVfacet@locale@2@PEBV42@@Z+127
	DD	01H
	DD	imagerel ?_Getcat@?$ctype@_W@std@@SA_KPEAPEBVfacet@locale@2@PEBV42@@Z+137
	DD	02H
	DD	imagerel ?_Getcat@?$ctype@_W@std@@SA_KPEAPEBVfacet@locale@2@PEBV42@@Z+147
	DD	03H
	DD	imagerel ?_Getcat@?$ctype@_W@std@@SA_KPEAPEBVfacet@locale@2@PEBV42@@Z+157
	DD	04H
	DD	imagerel ?_Getcat@?$ctype@_W@std@@SA_KPEAPEBVfacet@locale@2@PEBV42@@Z+167
	DD	05H
	DD	imagerel ?_Getcat@?$ctype@_W@std@@SA_KPEAPEBVfacet@locale@2@PEBV42@@Z+177
	DD	06H
	DD	imagerel ?_Getcat@?$ctype@_W@std@@SA_KPEAPEBVfacet@locale@2@PEBV42@@Z+190
	DD	07H
	DD	imagerel ?_Getcat@?$ctype@_W@std@@SA_KPEAPEBVfacet@locale@2@PEBV42@@Z+250
	DD	00H
	DD	imagerel ?_Getcat@?$ctype@_W@std@@SA_KPEAPEBVfacet@locale@2@PEBV42@@Z+335
	DD	0ffffffffH
xdata	ENDS
;	COMDAT xdata
xdata	SEGMENT
$stateUnwindMap$?_Getcat@?$ctype@_W@std@@SA_KPEAPEBVfacet@locale@2@PEBV42@@Z DD 0ffffffffH
	DD	imagerel ?dtor$0@?0??_Getcat@?$ctype@_W@std@@SA_KPEAPEBVfacet@locale@2@PEBV42@@Z@4HA
	DD	00H
	DD	imagerel ?dtor$2@?0??_Getcat@?$ctype@_W@std@@SA_KPEAPEBVfacet@locale@2@PEBV42@@Z@4HA
	DD	01H
	DD	imagerel ?dtor$3@?0??_Getcat@?$ctype@_W@std@@SA_KPEAPEBVfacet@locale@2@PEBV42@@Z@4HA
	DD	02H
	DD	imagerel ?dtor$4@?0??_Getcat@?$ctype@_W@std@@SA_KPEAPEBVfacet@locale@2@PEBV42@@Z@4HA
	DD	03H
	DD	imagerel ?dtor$5@?0??_Getcat@?$ctype@_W@std@@SA_KPEAPEBVfacet@locale@2@PEBV42@@Z@4HA
	DD	04H
	DD	imagerel ?dtor$6@?0??_Getcat@?$ctype@_W@std@@SA_KPEAPEBVfacet@locale@2@PEBV42@@Z@4HA
	DD	05H
	DD	imagerel ?dtor$7@?0??_Getcat@?$ctype@_W@std@@SA_KPEAPEBVfacet@locale@2@PEBV42@@Z@4HA
	DD	06H
	DD	imagerel ?dtor$8@?0??_Getcat@?$ctype@_W@std@@SA_KPEAPEBVfacet@locale@2@PEBV42@@Z@4HA
xdata	ENDS
;	COMDAT CONST
CONST	SEGMENT
$cppxdata$?_Getcat@?$ctype@_W@std@@SA_KPEAPEBVfacet@locale@2@PEBV42@@Z DD 019930522H
	DD	08H
	DD	imagerel $stateUnwindMap$?_Getcat@?$ctype@_W@std@@SA_KPEAPEBVfacet@locale@2@PEBV42@@Z
	DD	00H
	DD	00H
	DD	0bH
	DD	imagerel $ip2state$?_Getcat@?$ctype@_W@std@@SA_KPEAPEBVfacet@locale@2@PEBV42@@Z
	DD	088H
	DD	00H
	DD	01H
CONST	ENDS
;	COMDAT xdata
xdata	SEGMENT
$unwind$?_Getcat@?$ctype@_W@std@@SA_KPEAPEBVfacet@locale@2@PEBV42@@Z DD 091f11H
	DD	021641fH
	DD	020541bH
	DD	01f3417H
	DD	01c010bH
	DD	07004H
	DD	imagerel __CxxFrameHandler3
	DD	imagerel $cppxdata$?_Getcat@?$ctype@_W@std@@SA_KPEAPEBVfacet@locale@2@PEBV42@@Z
xdata	ENDS
;	COMDAT xdata
xdata	SEGMENT
$unwind$??1?$ctype@_W@std@@MEAA@XZ DD 020601H
	DD	030023206H
xdata	ENDS
;	COMDAT xdata
xdata	SEGMENT
$unwind$?_Init@?$ctype@_W@std@@IEAAXAEBV_Locinfo@2@@Z DD 020601H
	DD	030029206H
xdata	ENDS
;	COMDAT xdata
xdata	SEGMENT
$unwind$?do_is@?$ctype@_W@std@@MEBA_NF_W@Z DD 020601H
	DD	030023206H
xdata	ENDS
;	COMDAT xdata
xdata	SEGMENT
$chain$2$?do_scan_is@?$ctype@_W@std@@MEBAPEB_WFPEB_W0@Z DD 020021H
	DD	06e400H
	DD	imagerel $LN20
	DD	imagerel $LN20+37
	DD	imagerel $unwind$?do_scan_is@?$ctype@_W@std@@MEBAPEB_WFPEB_W0@Z
xdata	ENDS
;	COMDAT xdata
xdata	SEGMENT
$chain$1$?do_scan_is@?$ctype@_W@std@@MEBAPEB_WFPEB_W0@Z DD 021H
	DD	imagerel $LN20
	DD	imagerel $LN20+37
	DD	imagerel $unwind$?do_scan_is@?$ctype@_W@std@@MEBAPEB_WFPEB_W0@Z
xdata	ENDS
;	COMDAT xdata
xdata	SEGMENT
$chain$0$?do_scan_is@?$ctype@_W@std@@MEBAPEB_WFPEB_W0@Z DD 020521H
	DD	06e405H
	DD	imagerel $LN20
	DD	imagerel $LN20+37
	DD	imagerel $unwind$?do_scan_is@?$ctype@_W@std@@MEBAPEB_WFPEB_W0@Z
xdata	ENDS
;	COMDAT xdata
xdata	SEGMENT
$unwind$?do_scan_is@?$ctype@_W@std@@MEBAPEB_WFPEB_W0@Z DD 081401H
	DD	096414H
	DD	085414H
	DD	073414H
	DD	070103214H
xdata	ENDS
;	COMDAT xdata
xdata	SEGMENT
$chain$2$?do_scan_not@?$ctype@_W@std@@MEBAPEB_WFPEB_W0@Z DD 020021H
	DD	06e400H
	DD	imagerel $LN20
	DD	imagerel $LN20+37
	DD	imagerel $unwind$?do_scan_not@?$ctype@_W@std@@MEBAPEB_WFPEB_W0@Z
xdata	ENDS
;	COMDAT xdata
xdata	SEGMENT
$chain$1$?do_scan_not@?$ctype@_W@std@@MEBAPEB_WFPEB_W0@Z DD 021H
	DD	imagerel $LN20
	DD	imagerel $LN20+37
	DD	imagerel $unwind$?do_scan_not@?$ctype@_W@std@@MEBAPEB_WFPEB_W0@Z
xdata	ENDS
;	COMDAT xdata
xdata	SEGMENT
$chain$0$?do_scan_not@?$ctype@_W@std@@MEBAPEB_WFPEB_W0@Z DD 020521H
	DD	06e405H
	DD	imagerel $LN20
	DD	imagerel $LN20+37
	DD	imagerel $unwind$?do_scan_not@?$ctype@_W@std@@MEBAPEB_WFPEB_W0@Z
xdata	ENDS
;	COMDAT xdata
xdata	SEGMENT
$unwind$?do_scan_not@?$ctype@_W@std@@MEBAPEB_WFPEB_W0@Z DD 081401H
	DD	096414H
	DD	085414H
	DD	073414H
	DD	070103214H
xdata	ENDS
;	COMDAT xdata
xdata	SEGMENT
$chain$1$?do_tolower@?$ctype@_W@std@@MEBAPEB_WPEA_WPEB_W@Z DD 021H
	DD	imagerel $LN12
	DD	imagerel $LN12+44
	DD	imagerel $unwind$?do_tolower@?$ctype@_W@std@@MEBAPEB_WPEA_WPEB_W@Z
xdata	ENDS
;	COMDAT xdata
xdata	SEGMENT
$chain$0$?do_tolower@?$ctype@_W@std@@MEBAPEB_WPEA_WPEB_W@Z DD 020521H
	DD	065405H
	DD	imagerel $LN12
	DD	imagerel $LN12+44
	DD	imagerel $unwind$?do_tolower@?$ctype@_W@std@@MEBAPEB_WPEA_WPEB_W@Z
xdata	ENDS
;	COMDAT xdata
xdata	SEGMENT
$unwind$?do_tolower@?$ctype@_W@std@@MEBAPEB_WPEA_WPEB_W@Z DD 060f01H
	DD	08640fH
	DD	07340fH
	DD	0700b320fH
xdata	ENDS
;	COMDAT xdata
xdata	SEGMENT
$chain$1$?do_toupper@?$ctype@_W@std@@MEBAPEB_WPEA_WPEB_W@Z DD 021H
	DD	imagerel $LN12
	DD	imagerel $LN12+44
	DD	imagerel $unwind$?do_toupper@?$ctype@_W@std@@MEBAPEB_WPEA_WPEB_W@Z
xdata	ENDS
;	COMDAT xdata
xdata	SEGMENT
$chain$0$?do_toupper@?$ctype@_W@std@@MEBAPEB_WPEA_WPEB_W@Z DD 020521H
	DD	065405H
	DD	imagerel $LN12
	DD	imagerel $LN12+44
	DD	imagerel $unwind$?do_toupper@?$ctype@_W@std@@MEBAPEB_WPEA_WPEB_W@Z
xdata	ENDS
;	COMDAT xdata
xdata	SEGMENT
$unwind$?do_toupper@?$ctype@_W@std@@MEBAPEB_WPEA_WPEB_W@Z DD 060f01H
	DD	08640fH
	DD	07340fH
	DD	0700b320fH
xdata	ENDS
;	COMDAT xdata
xdata	SEGMENT
$unwind$?_Dowiden@?$ctype@_W@std@@IEBA_WD@Z DD 010801H
	DD	06208H
xdata	ENDS
;	COMDAT xdata
xdata	SEGMENT
$unwind$?do_widen@?$ctype@_W@std@@MEBA_WD@Z DD 010401H
	DD	06204H
xdata	ENDS
;	COMDAT xdata
xdata	SEGMENT
$chain$2$?do_widen@?$ctype@_W@std@@MEBAPEBDPEBD0PEA_W@Z DD 021H
	DD	imagerel $LN14
	DD	imagerel $LN14+35
	DD	imagerel $unwind$?do_widen@?$ctype@_W@std@@MEBAPEBDPEBD0PEA_W@Z
xdata	ENDS
;	COMDAT xdata
xdata	SEGMENT
$chain$1$?do_widen@?$ctype@_W@std@@MEBAPEBDPEBD0PEA_W@Z DD 040e21H
	DD	08f40eH
	DD	0ee405H
	DD	imagerel $LN14
	DD	imagerel $LN14+35
	DD	imagerel $unwind$?do_widen@?$ctype@_W@std@@MEBAPEBDPEBD0PEA_W@Z
xdata	ENDS
;	COMDAT xdata
xdata	SEGMENT
$unwind$?do_widen@?$ctype@_W@std@@MEBAPEBDPEBD0PEA_W@Z DD 050901H
	DD	070058209H
	DD	050036004H
	DD	03002H
xdata	ENDS
;	COMDAT xdata
xdata	SEGMENT
$unwind$?_Donarrow@?$ctype@_W@std@@IEBAD_WD@Z DD 021519H
	DD	030027206H
	DD	imagerel __GSHandlerCheck
	DD	030H
xdata	ENDS
;	COMDAT xdata
xdata	SEGMENT
$unwind$?do_narrow@?$ctype@_W@std@@MEBAD_WD@Z DD 021519H
	DD	030027206H
	DD	imagerel __GSHandlerCheck
	DD	030H
xdata	ENDS
;	COMDAT xdata
xdata	SEGMENT
$chain$1$?do_narrow@?$ctype@_W@std@@MEBAPEB_WPEB_W0DPEAD@Z DD 021H
	DD	imagerel $LN16
	DD	imagerel $LN16+67
	DD	imagerel $unwind$?do_narrow@?$ctype@_W@std@@MEBAPEB_WPEB_W0DPEAD@Z
xdata	ENDS
;	COMDAT xdata
xdata	SEGMENT
$chain$0$?do_narrow@?$ctype@_W@std@@MEBAPEB_WPEB_W0DPEAD@Z DD 020821H
	DD	010e408H
	DD	imagerel $LN16
	DD	imagerel $LN16+67
	DD	imagerel $unwind$?do_narrow@?$ctype@_W@std@@MEBAPEB_WPEB_W0DPEAD@Z
xdata	ENDS
;	COMDAT xdata
xdata	SEGMENT
$unwind$?do_narrow@?$ctype@_W@std@@MEBAPEB_WPEB_W0DPEAD@Z DD 061a19H
	DD	0f007720bH
	DD	060047005H
	DD	030025003H
	DD	imagerel __GSHandlerCheck
	DD	030H
xdata	ENDS
;	COMDAT xdata
xdata	SEGMENT
$unwind$??_G?$ctype@_W@std@@MEAAPEAXI@Z DD 040a01H
	DD	06340aH
	DD	07006320aH
xdata	ENDS
;	COMDAT xdata
xdata	SEGMENT
$unwind$??_Gerror_category@std@@UEAAPEAXI@Z DD 020601H
	DD	030023206H
xdata	ENDS
;	COMDAT xdata
xdata	SEGMENT
$unwind$?message@error_code@std@@QEBA?AV?$basic_string@DU?$char_traits@D@std@@V?$allocator@D@2@@2@XZ DD 020601H
	DD	030025206H
xdata	ENDS
;	COMDAT xdata
xdata	SEGMENT
$unwind$?equivalent@error_category@std@@UEBA_NHAEBVerror_condition@2@@Z DD 020601H
	DD	030025206H
xdata	ENDS
;	COMDAT xdata
xdata	SEGMENT
$unwind$?make_error_code@std@@YA?AVerror_code@1@W4io_errc@1@@Z DD 040a01H
	DD	06340aH
	DD	07006320aH
xdata	ENDS
;	COMDAT xdata
xdata	SEGMENT
$ip2state$?_Makestr@_System_error@std@@CA?AV?$basic_string@DU?$char_traits@D@std@@V?$allocator@D@2@@2@Verror_code@2@V32@@Z DD imagerel ?_Makestr@_System_error@std@@CA?AV?$basic_string@DU?$char_traits@D@std@@V?$allocator@D@2@@2@Verror_code@2@V32@@Z
	DD	0ffffffffH
	DD	imagerel ?_Makestr@_System_error@std@@CA?AV?$basic_string@DU?$char_traits@D@std@@V?$allocator@D@2@@2@Verror_code@2@V32@@Z+60
	DD	00H
	DD	imagerel ?_Makestr@_System_error@std@@CA?AV?$basic_string@DU?$char_traits@D@std@@V?$allocator@D@2@@2@Verror_code@2@V32@@Z+99
	DD	01H
	DD	imagerel ?_Makestr@_System_error@std@@CA?AV?$basic_string@DU?$char_traits@D@std@@V?$allocator@D@2@@2@Verror_code@2@V32@@Z+118
	DD	00H
	DD	imagerel ?_Makestr@_System_error@std@@CA?AV?$basic_string@DU?$char_traits@D@std@@V?$allocator@D@2@@2@Verror_code@2@V32@@Z+288
	DD	0ffffffffH
xdata	ENDS
;	COMDAT xdata
xdata	SEGMENT
$stateUnwindMap$?_Makestr@_System_error@std@@CA?AV?$basic_string@DU?$char_traits@D@std@@V?$allocator@D@2@@2@Verror_code@2@V32@@Z DD 0ffffffffH
	DD	imagerel ?dtor$0@?0??_Makestr@_System_error@std@@CA?AV?$basic_string@DU?$char_traits@D@std@@V?$allocator@D@2@@2@Verror_code@2@V32@@Z@4HA
	DD	00H
	DD	imagerel ?dtor$1@?0??_Makestr@_System_error@std@@CA?AV?$basic_string@DU?$char_traits@D@std@@V?$allocator@D@2@@2@Verror_code@2@V32@@Z@4HA
xdata	ENDS
;	COMDAT CONST
CONST	SEGMENT
$cppxdata$?_Makestr@_System_error@std@@CA?AV?$basic_string@DU?$char_traits@D@std@@V?$allocator@D@2@@2@Verror_code@2@V32@@Z DD 019930522H
	DD	02H
	DD	imagerel $stateUnwindMap$?_Makestr@_System_error@std@@CA?AV?$basic_string@DU?$char_traits@D@std@@V?$allocator@D@2@@2@Verror_code@2@V32@@Z
	DD	00H
	DD	00H
	DD	05H
	DD	imagerel $ip2state$?_Makestr@_System_error@std@@CA?AV?$basic_string@DU?$char_traits@D@std@@V?$allocator@D@2@@2@Verror_code@2@V32@@Z
	DD	028H
	DD	00H
	DD	01H
CONST	ENDS
;	COMDAT xdata
xdata	SEGMENT
$unwind$?_Makestr@_System_error@std@@CA?AV?$basic_string@DU?$char_traits@D@std@@V?$allocator@D@2@@2@Verror_code@2@V32@@Z DD 062819H
	DD	0133419H
	DD	07004b208H
	DD	050026003H
	DD	imagerel __GSHandlerCheck_EH
	DD	imagerel $cppxdata$?_Makestr@_System_error@std@@CA?AV?$basic_string@DU?$char_traits@D@std@@V?$allocator@D@2@@2@Verror_code@2@V32@@Z
	DD	05aH
xdata	ENDS
;	COMDAT xdata
xdata	SEGMENT
$unwind$??0_System_error@std@@IEAA@Verror_code@1@AEBV?$basic_string@DU?$char_traits@D@std@@V?$allocator@D@2@@1@@Z DD 041c19H
	DD	015340dH
	DD	07006f20dH
	DD	imagerel __GSHandlerCheck
	DD	070H
xdata	ENDS
;	COMDAT xdata
xdata	SEGMENT
$unwind$??_G_System_error@std@@UEAAPEAXI@Z DD 040a01H
	DD	06340aH
	DD	07006320aH
xdata	ENDS
;	COMDAT xdata
xdata	SEGMENT
$ip2state$??0system_error@std@@QEAA@Verror_code@1@PEBD@Z DD imagerel ??0system_error@std@@QEAA@Verror_code@1@PEBD@Z
	DD	0ffffffffH
	DD	imagerel ??0system_error@std@@QEAA@Verror_code@1@PEBD@Z+93
	DD	00H
	DD	imagerel ??0system_error@std@@QEAA@Verror_code@1@PEBD@Z+120
	DD	0ffffffffH
xdata	ENDS
;	COMDAT xdata
xdata	SEGMENT
$stateUnwindMap$??0system_error@std@@QEAA@Verror_code@1@PEBD@Z DD 0ffffffffH
	DD	imagerel ?dtor$0@?0???0system_error@std@@QEAA@Verror_code@1@PEBD@Z@4HA
xdata	ENDS
;	COMDAT CONST
CONST	SEGMENT
$cppxdata$??0system_error@std@@QEAA@Verror_code@1@PEBD@Z DD 019930522H
	DD	01H
	DD	imagerel $stateUnwindMap$??0system_error@std@@QEAA@Verror_code@1@PEBD@Z
	DD	00H
	DD	00H
	DD	03H
	DD	imagerel $ip2state$??0system_error@std@@QEAA@Verror_code@1@PEBD@Z
	DD	020H
	DD	00H
	DD	01H
CONST	ENDS
;	COMDAT xdata
xdata	SEGMENT
$unwind$??0system_error@std@@QEAA@Verror_code@1@PEBD@Z DD 042319H
	DD	0133414H
	DD	07004d208H
	DD	imagerel __GSHandlerCheck_EH
	DD	imagerel $cppxdata$??0system_error@std@@QEAA@Verror_code@1@PEBD@Z
	DD	062H
xdata	ENDS
;	COMDAT xdata
xdata	SEGMENT
$unwind$??_Gsystem_error@std@@UEAAPEAXI@Z DD 040a01H
	DD	06340aH
	DD	07006320aH
xdata	ENDS
;	COMDAT xdata
xdata	SEGMENT
$unwind$?message@_Generic_error_category@std@@UEBA?AV?$basic_string@DU?$char_traits@D@std@@V?$allocator@D@2@@2@H@Z DD 020601H
	DD	030025206H
xdata	ENDS
;	COMDAT xdata
xdata	SEGMENT
$unwind$??_G_Generic_error_category@std@@UEAAPEAXI@Z DD 020601H
	DD	030023206H
xdata	ENDS
;	COMDAT xdata
xdata	SEGMENT
$unwind$?message@_Iostream_error_category@std@@UEBA?AV?$basic_string@DU?$char_traits@D@std@@V?$allocator@D@2@@2@H@Z DD 020601H
	DD	030025206H
xdata	ENDS
;	COMDAT xdata
xdata	SEGMENT
$unwind$??_G_Iostream_error_category@std@@UEAAPEAXI@Z DD 020601H
	DD	030023206H
xdata	ENDS
;	COMDAT xdata
xdata	SEGMENT
$unwind$?iostream_category@std@@YAAEBVerror_category@1@XZ DD 010401H
	DD	04204H
xdata	ENDS
;	COMDAT xdata
xdata	SEGMENT
$unwind$??0failure@ios_base@std@@QEAA@PEBDAEBVerror_code@2@@Z DD 020601H
	DD	030025206H
xdata	ENDS
;	COMDAT xdata
xdata	SEGMENT
$unwind$?clear@ios_base@std@@QEAAXH_N@Z DD 010401H
	DD	0c204H
xdata	ENDS
;	COMDAT xdata
xdata	SEGMENT
$ip2state$?getloc@ios_base@std@@QEBA?AVlocale@2@XZ DD imagerel ?getloc@ios_base@std@@QEBA?AVlocale@2@XZ
	DD	0ffffffffH
	DD	imagerel ?getloc@ios_base@std@@QEBA?AVlocale@2@XZ+22
	DD	00H
	DD	imagerel ?getloc@ios_base@std@@QEBA?AVlocale@2@XZ+37
	DD	0ffffffffH
xdata	ENDS
;	COMDAT xdata
xdata	SEGMENT
$stateUnwindMap$?getloc@ios_base@std@@QEBA?AVlocale@2@XZ DD 0ffffffffH
	DD	imagerel __std_terminate
xdata	ENDS
;	COMDAT CONST
CONST	SEGMENT
$cppxdata$?getloc@ios_base@std@@QEBA?AVlocale@2@XZ DD 019930522H
	DD	01H
	DD	imagerel $stateUnwindMap$?getloc@ios_base@std@@QEBA?AVlocale@2@XZ
	DD	00H
	DD	00H
	DD	03H
	DD	imagerel $ip2state$?getloc@ios_base@std@@QEBA?AVlocale@2@XZ
	DD	020H
	DD	00H
	DD	01H
CONST	ENDS
;	COMDAT xdata
xdata	SEGMENT
$unwind$?getloc@ios_base@std@@QEBA?AVlocale@2@XZ DD 020f11H
	DD	030025206H
	DD	imagerel __CxxFrameHandler3
	DD	imagerel $cppxdata$?getloc@ios_base@std@@QEBA?AVlocale@2@XZ
xdata	ENDS
;	COMDAT xdata
xdata	SEGMENT
$unwind$??_Gfailure@ios_base@std@@UEAAPEAXI@Z DD 040a01H
	DD	06340aH
	DD	07006320aH
xdata	ENDS
;	COMDAT xdata
xdata	SEGMENT
$unwind$??0failure@ios_base@std@@QEAA@AEBV012@@Z DD 040a01H
	DD	06340aH
	DD	07006320aH
xdata	ENDS
;	COMDAT xdata
xdata	SEGMENT
$unwind$??0system_error@std@@QEAA@AEBV01@@Z DD 040a01H
	DD	06340aH
	DD	07006320aH
xdata	ENDS
;	COMDAT xdata
xdata	SEGMENT
$unwind$??0_System_error@std@@QEAA@AEBV01@@Z DD 040a01H
	DD	06340aH
	DD	07006320aH
xdata	ENDS
;	COMDAT xdata
xdata	SEGMENT
$unwind$?to_string@std@@YA?AV?$basic_string@DU?$char_traits@D@std@@V?$allocator@D@2@@1@H@Z DD 020601H
	DD	030025206H
xdata	ENDS
;	COMDAT xdata
xdata	SEGMENT
$unwind$??0Error@@QEAA@HHAEBV?$basic_string@DU?$char_traits@D@std@@V?$allocator@D@2@@std@@@Z DD 020601H
	DD	030023206H
xdata	ENDS
;	COMDAT xdata
xdata	SEGMENT
$ip2state$?formattedMessage@Error@@QEBA?AV?$basic_string@DU?$char_traits@D@std@@V?$allocator@D@2@@std@@XZ DD imagerel ?formattedMessage@Error@@QEBA?AV?$basic_string@DU?$char_traits@D@std@@V?$allocator@D@2@@std@@XZ
	DD	0ffffffffH
	DD	imagerel ?formattedMessage@Error@@QEBA?AV?$basic_string@DU?$char_traits@D@std@@V?$allocator@D@2@@std@@XZ+75
	DD	00H
	DD	imagerel ?formattedMessage@Error@@QEBA?AV?$basic_string@DU?$char_traits@D@std@@V?$allocator@D@2@@std@@XZ+91
	DD	01H
	DD	imagerel ?formattedMessage@Error@@QEBA?AV?$basic_string@DU?$char_traits@D@std@@V?$allocator@D@2@@std@@XZ+115
	DD	02H
	DD	imagerel ?formattedMessage@Error@@QEBA?AV?$basic_string@DU?$char_traits@D@std@@V?$allocator@D@2@@std@@XZ+136
	DD	03H
	DD	imagerel ?formattedMessage@Error@@QEBA?AV?$basic_string@DU?$char_traits@D@std@@V?$allocator@D@2@@std@@XZ+153
	DD	04H
	DD	imagerel ?formattedMessage@Error@@QEBA?AV?$basic_string@DU?$char_traits@D@std@@V?$allocator@D@2@@std@@XZ+174
	DD	05H
	DD	imagerel ?formattedMessage@Error@@QEBA?AV?$basic_string@DU?$char_traits@D@std@@V?$allocator@D@2@@std@@XZ+190
	DD	04H
	DD	imagerel ?formattedMessage@Error@@QEBA?AV?$basic_string@DU?$char_traits@D@std@@V?$allocator@D@2@@std@@XZ+279
	DD	03H
	DD	imagerel ?formattedMessage@Error@@QEBA?AV?$basic_string@DU?$char_traits@D@std@@V?$allocator@D@2@@std@@XZ+368
	DD	02H
	DD	imagerel ?formattedMessage@Error@@QEBA?AV?$basic_string@DU?$char_traits@D@std@@V?$allocator@D@2@@std@@XZ+460
	DD	01H
	DD	imagerel ?formattedMessage@Error@@QEBA?AV?$basic_string@DU?$char_traits@D@std@@V?$allocator@D@2@@std@@XZ+555
	DD	00H
	DD	imagerel ?formattedMessage@Error@@QEBA?AV?$basic_string@DU?$char_traits@D@std@@V?$allocator@D@2@@std@@XZ+650
	DD	0ffffffffH
xdata	ENDS
;	COMDAT xdata
xdata	SEGMENT
$stateUnwindMap$?formattedMessage@Error@@QEBA?AV?$basic_string@DU?$char_traits@D@std@@V?$allocator@D@2@@std@@XZ DD 0ffffffffH
	DD	imagerel ?dtor$0@?0??formattedMessage@Error@@QEBA?AV?$basic_string@DU?$char_traits@D@std@@V?$allocator@D@2@@std@@XZ@4HA
	DD	00H
	DD	imagerel ?dtor$1@?0??formattedMessage@Error@@QEBA?AV?$basic_string@DU?$char_traits@D@std@@V?$allocator@D@2@@std@@XZ@4HA
	DD	01H
	DD	imagerel ?dtor$2@?0??formattedMessage@Error@@QEBA?AV?$basic_string@DU?$char_traits@D@std@@V?$allocator@D@2@@std@@XZ@4HA
	DD	02H
	DD	imagerel ?dtor$3@?0??formattedMessage@Error@@QEBA?AV?$basic_string@DU?$char_traits@D@std@@V?$allocator@D@2@@std@@XZ@4HA
	DD	03H
	DD	imagerel ?dtor$4@?0??formattedMessage@Error@@QEBA?AV?$basic_string@DU?$char_traits@D@std@@V?$allocator@D@2@@std@@XZ@4HA
	DD	04H
	DD	imagerel ?dtor$5@?0??formattedMessage@Error@@QEBA?AV?$basic_string@DU?$char_traits@D@std@@V?$allocator@D@2@@std@@XZ@4HA
xdata	ENDS
;	COMDAT CONST
CONST	SEGMENT
$cppxdata$?formattedMessage@Error@@QEBA?AV?$basic_string@DU?$char_traits@D@std@@V?$allocator@D@2@@std@@XZ DD 019930522H
	DD	06H
	DD	imagerel $stateUnwindMap$?formattedMessage@Error@@QEBA?AV?$basic_string@DU?$char_traits@D@std@@V?$allocator@D@2@@std@@XZ
	DD	00H
	DD	00H
	DD	0dH
	DD	imagerel $ip2state$?formattedMessage@Error@@QEBA?AV?$basic_string@DU?$char_traits@D@std@@V?$allocator@D@2@@std@@XZ
	DD	028H
	DD	00H
	DD	01H
CONST	ENDS
;	COMDAT xdata
xdata	SEGMENT
$unwind$?formattedMessage@Error@@QEBA?AV?$basic_string@DU?$char_traits@D@std@@V?$allocator@D@2@@std@@XZ DD 072e19H
	DD	025641cH
	DD	0243418H
	DD	020010bH
	DD	07004H
	DD	imagerel __GSHandlerCheck_EH
	DD	imagerel $cppxdata$?formattedMessage@Error@@QEBA?AV?$basic_string@DU?$char_traits@D@std@@V?$allocator@D@2@@std@@XZ
	DD	0f2H
$cppxdata$main DD 019930522H
	DD	017H
	DD	imagerel $stateUnwindMap$main
	DD	02H
	DD	imagerel $tryMap$main
	DD	025H
	DD	imagerel $ip2state$main
	DD	0b0H
	DD	00H
	DD	01H
CONST	ENDS
xdata	SEGMENT
$unwind$main DD	0d3e19H
	DD	028682cH
	DD	0587427H
	DD	0576423H
	DD	056341fH
	DD	0520110H
	DD	0e007f009H
	DD	0c005H
	DD	imagerel __GSHandlerCheck_EH
	DD	imagerel $cppxdata$main
	DD	027bH
$stateUnwindMap$main DD 0ffffffffH
	DD	imagerel main$dtor$0
	DD	00H
	DD	imagerel main$dtor$73
	DD	00H
	DD	imagerel __std_terminate
	DD	00H
	DD	imagerel main$dtor$1
	DD	03H
	DD	imagerel main$dtor$2
	DD	00H
	DD	imagerel main$dtor$2
	DD	05H
	DD	imagerel main$dtor$3
	DD	05H
	DD	imagerel main$dtor$4
	DD	07H
	DD	00H
	DD	08H
	DD	imagerel main$dtor$168
	DD	09H
	DD	imagerel main$dtor$169
	DD	07H
	DD	00H
	DD	07H
	DD	imagerel main$dtor$6
	DD	0cH
	DD	00H
	DD	0dH
	DD	imagerel main$dtor$182
	DD	0eH
	DD	imagerel main$dtor$183
	DD	0cH
	DD	00H
	DD	0cH
	DD	imagerel main$dtor$8
	DD	011H
	DD	imagerel main$dtor$203
	DD	012H
	DD	imagerel main$dtor$204
	DD	011H
	DD	imagerel main$dtor$9
	DD	014H
	DD	imagerel main$dtor$205
	DD	015H
	DD	imagerel main$dtor$206
$tryMap$main DD	08H
	DD	0aH
	DD	0bH
	DD	01H
	DD	imagerel $handlerMap$0$main
	DD	0dH
	DD	0fH
	DD	010H
	DD	01H
	DD	imagerel $handlerMap$1$main
$handlerMap$0$main DD 08H
	DD	FLAT:??_R0?AVruntime_error@std@@@8
	DD	0b8H
	DD	imagerel main$catch$219
	DD	038H
$handlerMap$1$main DD 08H
	DD	FLAT:??_R0?AVruntime_error@std@@@8
	DD	0c0H
	DD	imagerel main$catch$220
	DD	038H
$ip2state$main DD imagerel main
	DD	0ffffffffH
	DD	imagerel main+163
	DD	00H
	DD	imagerel main+322
	DD	01H
	DD	imagerel main+333
	DD	02H
	DD	imagerel main+372
	DD	00H
	DD	imagerel main+560
	DD	03H
	DD	imagerel main+636
	DD	05H
	DD	imagerel main+752
	DD	06H
	DD	imagerel main+783
	DD	05H
	DD	imagerel main+949
	DD	08H
	DD	imagerel main+1087
	DD	09H
	DD	imagerel main+1111
	DD	0aH
	DD	imagerel main+1148
	DD	07H
	DD	imagerel main+1173
	DD	0dH
	DD	imagerel main+1199
	DD	0eH
	DD	imagerel main+1223
	DD	0fH
	DD	imagerel main+1260
	DD	0dH
	DD	imagerel main+1343
	DD	0cH
	DD	imagerel main+1444
	DD	011H
	DD	imagerel main+1476
	DD	012H
	DD	imagerel main+1500
	DD	013H
	DD	imagerel main+1537
	DD	011H
	DD	imagerel main+1584
	DD	014H
	DD	imagerel main+1616
	DD	015H
	DD	imagerel main+1640
	DD	016H
	DD	imagerel main+1677
	DD	014H
	DD	imagerel main+1750
	DD	011H
	DD	imagerel main+1774
	DD	0cH
	DD	imagerel main+1798
	DD	07H
	DD	imagerel main+1816
	DD	05H
	DD	imagerel main+1834
	DD	00H
	DD	imagerel main+1848
	DD	0ffffffffH
	DD	imagerel main$catch$219
	DD	00H
	DD	imagerel main$catch$219+13
	DD	0bH
	DD	imagerel main$catch$219+78
	DD	00H
	DD	imagerel main$catch$220+13
	DD	010H
	DD	imagerel main$catch$220+78
	DD	00H
$unwind$main$catch$219 DD 020a19H
	DD	05006320aH
	DD	imagerel __CxxFrameHandler3
	DD	imagerel $cppxdata$main
$unwind$main$catch$220 DD 020a19H
	DD	05006320aH
	DD	imagerel __CxxFrameHandler3
	DD	imagerel $cppxdata$main
xdata	ENDS
;	COMDAT xdata
xdata	SEGMENT
$unwind$?error@?$Result@DV?$Stream@V?$_String_const_iterator@V?$_String_val@U?$_Simple_types@D@std@@@std@@@std@@@@@@QEBA?AVError@@XZ DD 020601H
	DD	030027206H
xdata	ENDS
;	COMDAT xdata
xdata	SEGMENT
$ip2state$?item@?$Result@DV?$Stream@V?$_String_const_iterator@V?$_String_val@U?$_Simple_types@D@std@@@std@@@std@@@@@@QEBADXZ DD imagerel ?item@?$Result@DV?$Stream@V?$_String_const_iterator@V?$_String_val@U?$_Simple_types@D@std@@@std@@@std@@@@@@QEBADXZ
	DD	0ffffffffH
	DD	imagerel ?item@?$Result@DV?$Stream@V?$_String_const_iterator@V?$_String_val@U?$_Simple_types@D@std@@@std@@@std@@@@@@QEBADXZ+49
	DD	00H
	DD	imagerel ?item@?$Result@DV?$Stream@V?$_String_const_iterator@V?$_String_val@U?$_Simple_types@D@std@@@std@@@std@@@@@@QEBADXZ+70
	DD	01H
xdata	ENDS
;	COMDAT xdata
xdata	SEGMENT
$stateUnwindMap$?item@?$Result@DV?$Stream@V?$_String_const_iterator@V?$_String_val@U?$_Simple_types@D@std@@@std@@@std@@@@@@QEBADXZ DD 0ffffffffH
	DD	imagerel ?dtor$0@?0??item@?$Result@DV?$Stream@V?$_String_const_iterator@V?$_String_val@U?$_Simple_types@D@std@@@std@@@std@@@@@@QEBADXZ@4HA
	DD	00H
	DD	imagerel ?dtor$1@?0??item@?$Result@DV?$Stream@V?$_String_const_iterator@V?$_String_val@U?$_Simple_types@D@std@@@std@@@std@@@@@@QEBADXZ@4HA
xdata	ENDS
;	COMDAT CONST
CONST	SEGMENT
$cppxdata$?item@?$Result@DV?$Stream@V?$_String_const_iterator@V?$_String_val@U?$_Simple_types@D@std@@@std@@@std@@@@@@QEBADXZ DD 019930522H
	DD	02H
	DD	imagerel $stateUnwindMap$?item@?$Result@DV?$Stream@V?$_String_const_iterator@V?$_String_val@U?$_Simple_types@D@std@@@std@@@std@@@@@@QEBADXZ
	DD	00H
	DD	00H
	DD	03H
	DD	imagerel $ip2state$?item@?$Result@DV?$Stream@V?$_String_const_iterator@V?$_String_val@U?$_Simple_types@D@std@@@std@@@std@@@@@@QEBADXZ
	DD	020H
	DD	00H
	DD	01H
CONST	ENDS
;	COMDAT xdata
xdata	SEGMENT
$unwind$?item@?$Result@DV?$Stream@V?$_String_const_iterator@V?$_String_val@U?$_Simple_types@D@std@@@std@@@std@@@@@@QEBADXZ DD 022219H
	DD	0130107H
	DD	imagerel __GSHandlerCheck_EH
	DD	imagerel $cppxdata$?item@?$Result@DV?$Stream@V?$_String_const_iterator@V?$_String_val@U?$_Simple_types@D@std@@@std@@@std@@@@@@QEBADXZ
	DD	082H
xdata	ENDS
;	COMDAT xdata
xdata	SEGMENT
$unwind$??1Error@@QEAA@XZ DD 010401H
	DD	04204H
xdata	ENDS
;	COMDAT xdata
xdata	SEGMENT
$unwind$??0Error@@QEAA@AEBV0@@Z DD 020601H
	DD	030023206H
xdata	ENDS
;	COMDAT xdata
xdata	SEGMENT
$ip2state$?RunParser@?$OrParser@DV?$Stream@V?$_String_const_iterator@V?$_String_val@U?$_Simple_types@D@std@@@std@@@std@@@@V?$ItemParser@DV?$Stream@V?$_String_const_iterator@V?$_String_val@U?$_Simple_types@D@std@@@std@@@std@@@@@@V?$EosParser@V?$Stream@V?$_String_const_iterator@V?$_String_val@U?$_Simple_types@D@std@@@std@@@std@@@@@@@@QEAA?AV?$Result@DV?$Stream@V?$_String_const_iterator@V?$_String_val@U?$_Simple_types@D@std@@@std@@@std@@@@@@AEBV?$Stream@V?$_String_const_iterator@V?$_String_val@U?$_Simple_types@D@std@@@std@@@std@@@@@Z DD imagerel ?RunParser@?$OrParser@DV?$Stream@V?$_String_const_iterator@V?$_String_val@U?$_Simple_types@D@std@@@std@@@std@@@@V?$ItemParser@DV?$Stream@V?$_String_const_iterator@V?$_String_val@U?$_Simple_types@D@std@@@std@@@std@@@@@@V?$EosParser@V?$Stream@V?$_String_const_iterator@V?$_String_val@U?$_Simple_types@D@std@@@std@@@std@@@@@@@@QEAA?AV?$Result@DV?$Stream@V?$_String_const_iterator@V?$_String_val@U?$_Simple_types@D@std@@@std@@@std@@@@@@AEBV?$Stream@V?$_String_const_iterator@V?$_String_val@U?$_Simple_types@D@std@@@std@@@std@@@@@Z
	DD	0ffffffffH
	DD	imagerel ?RunParser@?$OrParser@DV?$Stream@V?$_String_const_iterator@V?$_String_val@U?$_Simple_types@D@std@@@std@@@std@@@@V?$ItemParser@DV?$Stream@V?$_String_const_iterator@V?$_String_val@U?$_Simple_types@D@std@@@std@@@std@@@@@@V?$EosParser@V?$Stream@V?$_String_const_iterator@V?$_String_val@U?$_Simple_types@D@std@@@std@@@std@@@@@@@@QEAA?AV?$Result@DV?$Stream@V?$_String_const_iterator@V?$_String_val@U?$_Simple_types@D@std@@@std@@@std@@@@@@AEBV?$Stream@V?$_String_const_iterator@V?$_String_val@U?$_Simple_types@D@std@@@std@@@std@@@@@Z+48
	DD	00H
	DD	imagerel ?RunParser@?$OrParser@DV?$Stream@V?$_String_const_iterator@V?$_String_val@U?$_Simple_types@D@std@@@std@@@std@@@@V?$ItemParser@DV?$Stream@V?$_String_const_iterator@V?$_String_val@U?$_Simple_types@D@std@@@std@@@std@@@@@@V?$EosParser@V?$Stream@V?$_String_const_iterator@V?$_String_val@U?$_Simple_types@D@std@@@std@@@std@@@@@@@@QEAA?AV?$Result@DV?$Stream@V?$_String_const_iterator@V?$_String_val@U?$_Simple_types@D@std@@@std@@@std@@@@@@AEBV?$Stream@V?$_String_const_iterator@V?$_String_val@U?$_Simple_types@D@std@@@std@@@std@@@@@Z+75
	DD	0ffffffffH
	DD	imagerel ?RunParser@?$OrParser@DV?$Stream@V?$_String_const_iterator@V?$_String_val@U?$_Simple_types@D@std@@@std@@@std@@@@V?$ItemParser@DV?$Stream@V?$_String_const_iterator@V?$_String_val@U?$_Simple_types@D@std@@@std@@@std@@@@@@V?$EosParser@V?$Stream@V?$_String_const_iterator@V?$_String_val@U?$_Simple_types@D@std@@@std@@@std@@@@@@@@QEAA?AV?$Result@DV?$Stream@V?$_String_const_iterator@V?$_String_val@U?$_Simple_types@D@std@@@std@@@std@@@@@@AEBV?$Stream@V?$_String_const_iterator@V?$_String_val@U?$_Simple_types@D@std@@@std@@@std@@@@@Z+77
	DD	00H
	DD	imagerel ?RunParser@?$OrParser@DV?$Stream@V?$_String_const_iterator@V?$_String_val@U?$_Simple_types@D@std@@@std@@@std@@@@V?$ItemParser@DV?$Stream@V?$_String_const_iterator@V?$_String_val@U?$_Simple_types@D@std@@@std@@@std@@@@@@V?$EosParser@V?$Stream@V?$_String_const_iterator@V?$_String_val@U?$_Simple_types@D@std@@@std@@@std@@@@@@@@QEAA?AV?$Result@DV?$Stream@V?$_String_const_iterator@V?$_String_val@U?$_Simple_types@D@std@@@std@@@std@@@@@@AEBV?$Stream@V?$_String_const_iterator@V?$_String_val@U?$_Simple_types@D@std@@@std@@@std@@@@@Z+89
	DD	0ffffffffH
xdata	ENDS
;	COMDAT xdata
xdata	SEGMENT
$stateUnwindMap$?RunParser@?$OrParser@DV?$Stream@V?$_String_const_iterator@V?$_String_val@U?$_Simple_types@D@std@@@std@@@std@@@@V?$ItemParser@DV?$Stream@V?$_String_const_iterator@V?$_String_val@U?$_Simple_types@D@std@@@std@@@std@@@@@@V?$EosParser@V?$Stream@V?$_String_const_iterator@V?$_String_val@U?$_Simple_types@D@std@@@std@@@std@@@@@@@@QEAA?AV?$Result@DV?$Stream@V?$_String_const_iterator@V?$_String_val@U?$_Simple_types@D@std@@@std@@@std@@@@@@AEBV?$Stream@V?$_String_const_iterator@V?$_String_val@U?$_Simple_types@D@std@@@std@@@std@@@@@Z DD 0ffffffffH
	DD	imagerel ?dtor$0@?0??RunParser@?$OrParser@DV?$Stream@V?$_String_const_iterator@V?$_String_val@U?$_Simple_types@D@std@@@std@@@std@@@@V?$ItemParser@DV?$Stream@V?$_String_const_iterator@V?$_String_val@U?$_Simple_types@D@std@@@std@@@std@@@@@@V?$EosParser@V?$Stream@V?$_String_const_iterator@V?$_String_val@U?$_Simple_types@D@std@@@std@@@std@@@@@@@@QEAA?AV?$Result@DV?$Stream@V?$_String_const_iterator@V?$_String_val@U?$_Simple_types@D@std@@@std@@@std@@@@@@AEBV?$Stream@V?$_String_const_iterator@V?$_String_val@U?$_Simple_types@D@std@@@std@@@std@@@@@Z@4HA
xdata	ENDS
;	COMDAT CONST
CONST	SEGMENT
$cppxdata$?RunParser@?$OrParser@DV?$Stream@V?$_String_const_iterator@V?$_String_val@U?$_Simple_types@D@std@@@std@@@std@@@@V?$ItemParser@DV?$Stream@V?$_String_const_iterator@V?$_String_val@U?$_Simple_types@D@std@@@std@@@std@@@@@@V?$EosParser@V?$Stream@V?$_String_const_iterator@V?$_String_val@U?$_Simple_types@D@std@@@std@@@std@@@@@@@@QEAA?AV?$Result@DV?$Stream@V?$_String_const_iterator@V?$_String_val@U?$_Simple_types@D@std@@@std@@@std@@@@@@AEBV?$Stream@V?$_String_const_iterator@V?$_String_val@U?$_Simple_types@D@std@@@std@@@std@@@@@Z DD 019930522H
	DD	01H
	DD	imagerel $stateUnwindMap$?RunParser@?$OrParser@DV?$Stream@V?$_String_const_iterator@V?$_String_val@U?$_Simple_types@D@std@@@std@@@std@@@@V?$ItemParser@DV?$Stream@V?$_String_const_iterator@V?$_String_val@U?$_Simple_types@D@std@@@std@@@std@@@@@@V?$EosParser@V?$Stream@V?$_String_const_iterator@V?$_String_val@U?$_Simple_types@D@std@@@std@@@std@@@@@@@@QEAA?AV?$Result@DV?$Stream@V?$_String_const_iterator@V?$_String_val@U?$_Simple_types@D@std@@@std@@@std@@@@@@AEBV?$Stream@V?$_String_const_iterator@V?$_String_val@U?$_Simple_types@D@std@@@std@@@std@@@@@Z
	DD	00H
	DD	00H
	DD	05H
	DD	imagerel $ip2state$?RunParser@?$OrParser@DV?$Stream@V?$_String_const_iterator@V?$_String_val@U?$_Simple_types@D@std@@@std@@@std@@@@V?$ItemParser@DV?$Stream@V?$_String_const_iterator@V?$_String_val@U?$_Simple_types@D@std@@@std@@@std@@@@@@V?$EosParser@V?$Stream@V?$_String_const_iterator@V?$_String_val@U?$_Simple_types@D@std@@@std@@@std@@@@@@@@QEAA?AV?$Result@DV?$Stream@V?$_String_const_iterator@V?$_String_val@U?$_Simple_types@D@std@@@std@@@std@@@@@@AEBV?$Stream@V?$_String_const_iterator@V?$_String_val@U?$_Simple_types@D@std@@@std@@@std@@@@@Z
	DD	028H
	DD	00H
	DD	01H
CONST	ENDS
;	COMDAT xdata
xdata	SEGMENT
$unwind$?RunParser@?$OrParser@DV?$Stream@V?$_String_const_iterator@V?$_String_val@U?$_Simple_types@D@std@@@std@@@std@@@@V?$ItemParser@DV?$Stream@V?$_String_const_iterator@V?$_String_val@U?$_Simple_types@D@std@@@std@@@std@@@@@@V?$EosParser@V?$Stream@V?$_String_const_iterator@V?$_String_val@U?$_Simple_types@D@std@@@std@@@std@@@@@@@@QEAA?AV?$Result@DV?$Stream@V?$_String_const_iterator@V?$_String_val@U?$_Simple_types@D@std@@@std@@@std@@@@@@AEBV?$Stream@V?$_String_const_iterator@V?$_String_val@U?$_Simple_types@D@std@@@std@@@std@@@@@Z DD 041711H
	DD	0103417H
	DD	07002d206H
	DD	imagerel __CxxFrameHandler3
	DD	imagerel $cppxdata$?RunParser@?$OrParser@DV?$Stream@V?$_String_const_iterator@V?$_String_val@U?$_Simple_types@D@std@@@std@@@std@@@@V?$ItemParser@DV?$Stream@V?$_String_const_iterator@V?$_String_val@U?$_Simple_types@D@std@@@std@@@std@@@@@@V?$EosParser@V?$Stream@V?$_String_const_iterator@V?$_String_val@U?$_Simple_types@D@std@@@std@@@std@@@@@@@@QEAA?AV?$Result@DV?$Stream@V?$_String_const_iterator@V?$_String_val@U?$_Simple_types@D@std@@@std@@@std@@@@@@AEBV?$Stream@V?$_String_const_iterator@V?$_String_val@U?$_Simple_types@D@std@@@std@@@std@@@@@Z
xdata	ENDS
;	COMDAT xdata
xdata	SEGMENT
$ip2state$?RunParser@?$EosParser@V?$Stream@V?$_String_const_iterator@V?$_String_val@U?$_Simple_types@D@std@@@std@@@std@@@@@@QEAA?AV?$Result@DV?$Stream@V?$_String_const_iterator@V?$_String_val@U?$_Simple_types@D@std@@@std@@@std@@@@@@AEBV?$Stream@V?$_String_const_iterator@V?$_String_val@U?$_Simple_types@D@std@@@std@@@std@@@@@Z DD imagerel ?RunParser@?$EosParser@V?$Stream@V?$_String_const_iterator@V?$_String_val@U?$_Simple_types@D@std@@@std@@@std@@@@@@QEAA?AV?$Result@DV?$Stream@V?$_String_const_iterator@V?$_String_val@U?$_Simple_types@D@std@@@std@@@std@@@@@@AEBV?$Stream@V?$_String_const_iterator@V?$_String_val@U?$_Simple_types@D@std@@@std@@@std@@@@@Z
	DD	0ffffffffH
	DD	imagerel ?RunParser@?$EosParser@V?$Stream@V?$_String_const_iterator@V?$_String_val@U?$_Simple_types@D@std@@@std@@@std@@@@@@QEAA?AV?$Result@DV?$Stream@V?$_String_const_iterator@V?$_String_val@U?$_Simple_types@D@std@@@std@@@std@@@@@@AEBV?$Stream@V?$_String_const_iterator@V?$_String_val@U?$_Simple_types@D@std@@@std@@@std@@@@@Z+108
	DD	00H
	DD	imagerel ?RunParser@?$EosParser@V?$Stream@V?$_String_const_iterator@V?$_String_val@U?$_Simple_types@D@std@@@std@@@std@@@@@@QEAA?AV?$Result@DV?$Stream@V?$_String_const_iterator@V?$_String_val@U?$_Simple_types@D@std@@@std@@@std@@@@@@AEBV?$Stream@V?$_String_const_iterator@V?$_String_val@U?$_Simple_types@D@std@@@std@@@std@@@@@Z+155
	DD	02H
	DD	imagerel ?RunParser@?$EosParser@V?$Stream@V?$_String_const_iterator@V?$_String_val@U?$_Simple_types@D@std@@@std@@@std@@@@@@QEAA?AV?$Result@DV?$Stream@V?$_String_const_iterator@V?$_String_val@U?$_Simple_types@D@std@@@std@@@std@@@@@@AEBV?$Stream@V?$_String_const_iterator@V?$_String_val@U?$_Simple_types@D@std@@@std@@@std@@@@@Z+311
	DD	0ffffffffH
xdata	ENDS
;	COMDAT xdata
xdata	SEGMENT
$stateUnwindMap$?RunParser@?$EosParser@V?$Stream@V?$_String_const_iterator@V?$_String_val@U?$_Simple_types@D@std@@@std@@@std@@@@@@QEAA?AV?$Result@DV?$Stream@V?$_String_const_iterator@V?$_String_val@U?$_Simple_types@D@std@@@std@@@std@@@@@@AEBV?$Stream@V?$_String_const_iterator@V?$_String_val@U?$_Simple_types@D@std@@@std@@@std@@@@@Z DD 0ffffffffH
	DD	imagerel ?dtor$0@?0??RunParser@?$EosParser@V?$Stream@V?$_String_const_iterator@V?$_String_val@U?$_Simple_types@D@std@@@std@@@std@@@@@@QEAA?AV?$Result@DV?$Stream@V?$_String_const_iterator@V?$_String_val@U?$_Simple_types@D@std@@@std@@@std@@@@@@AEBV?$Stream@V?$_String_const_iterator@V?$_String_val@U?$_Simple_types@D@std@@@std@@@std@@@@@Z@4HA
	DD	00H
	DD	imagerel ?dtor$1@?0??RunParser@?$EosParser@V?$Stream@V?$_String_const_iterator@V?$_String_val@U?$_Simple_types@D@std@@@std@@@std@@@@@@QEAA?AV?$Result@DV?$Stream@V?$_String_const_iterator@V?$_String_val@U?$_Simple_types@D@std@@@std@@@std@@@@@@AEBV?$Stream@V?$_String_const_iterator@V?$_String_val@U?$_Simple_types@D@std@@@std@@@std@@@@@Z@4HA
	DD	0ffffffffH
	DD	imagerel ?dtor$1@?0??RunParser@?$EosParser@V?$Stream@V?$_String_const_iterator@V?$_String_val@U?$_Simple_types@D@std@@@std@@@std@@@@@@QEAA?AV?$Result@DV?$Stream@V?$_String_const_iterator@V?$_String_val@U?$_Simple_types@D@std@@@std@@@std@@@@@@AEBV?$Stream@V?$_String_const_iterator@V?$_String_val@U?$_Simple_types@D@std@@@std@@@std@@@@@Z@4HA
xdata	ENDS
;	COMDAT CONST
CONST	SEGMENT
$cppxdata$?RunParser@?$EosParser@V?$Stream@V?$_String_const_iterator@V?$_String_val@U?$_Simple_types@D@std@@@std@@@std@@@@@@QEAA?AV?$Result@DV?$Stream@V?$_String_const_iterator@V?$_String_val@U?$_Simple_types@D@std@@@std@@@std@@@@@@AEBV?$Stream@V?$_String_const_iterator@V?$_String_val@U?$_Simple_types@D@std@@@std@@@std@@@@@Z DD 019930522H
	DD	03H
	DD	imagerel $stateUnwindMap$?RunParser@?$EosParser@V?$Stream@V?$_String_const_iterator@V?$_String_val@U?$_Simple_types@D@std@@@std@@@std@@@@@@QEAA?AV?$Result@DV?$Stream@V?$_String_const_iterator@V?$_String_val@U?$_Simple_types@D@std@@@std@@@std@@@@@@AEBV?$Stream@V?$_String_const_iterator@V?$_String_val@U?$_Simple_types@D@std@@@std@@@std@@@@@Z
	DD	00H
	DD	00H
	DD	04H
	DD	imagerel $ip2state$?RunParser@?$EosParser@V?$Stream@V?$_String_const_iterator@V?$_String_val@U?$_Simple_types@D@std@@@std@@@std@@@@@@QEAA?AV?$Result@DV?$Stream@V?$_String_const_iterator@V?$_String_val@U?$_Simple_types@D@std@@@std@@@std@@@@@@AEBV?$Stream@V?$_String_const_iterator@V?$_String_val@U?$_Simple_types@D@std@@@std@@@std@@@@@Z
	DD	028H
	DD	00H
	DD	01H
CONST	ENDS
;	COMDAT xdata
xdata	SEGMENT
$unwind$?RunParser@?$EosParser@V?$Stream@V?$_String_const_iterator@V?$_String_val@U?$_Simple_types@D@std@@@std@@@std@@@@@@QEAA?AV?$Result@DV?$Stream@V?$_String_const_iterator@V?$_String_val@U?$_Simple_types@D@std@@@std@@@std@@@@@@AEBV?$Stream@V?$_String_const_iterator@V?$_String_val@U?$_Simple_types@D@std@@@std@@@std@@@@@Z DD 072d19H
	DD	016641bH
	DD	0143417H
	DD	012010bH
	DD	07004H
	DD	imagerel __GSHandlerCheck_EH
	DD	imagerel $cppxdata$?RunParser@?$EosParser@V?$Stream@V?$_String_const_iterator@V?$_String_val@U?$_Simple_types@D@std@@@std@@@std@@@@@@QEAA?AV?$Result@DV?$Stream@V?$_String_const_iterator@V?$_String_val@U?$_Simple_types@D@std@@@std@@@std@@@@@@AEBV?$Stream@V?$_String_const_iterator@V?$_String_val@U?$_Simple_types@D@std@@@std@@@std@@@@@Z
	DD	082H
xdata	ENDS
;	COMDAT xdata
xdata	SEGMENT
$ip2state$?RunParser@?$ItemParser@DV?$Stream@V?$_String_const_iterator@V?$_String_val@U?$_Simple_types@D@std@@@std@@@std@@@@@@QEAA?AV?$Result@DV?$Stream@V?$_String_const_iterator@V?$_String_val@U?$_Simple_types@D@std@@@std@@@std@@@@@@AEBV?$Stream@V?$_String_const_iterator@V?$_String_val@U?$_Simple_types@D@std@@@std@@@std@@@@@Z DD imagerel ?RunParser@?$ItemParser@DV?$Stream@V?$_String_const_iterator@V?$_String_val@U?$_Simple_types@D@std@@@std@@@std@@@@@@QEAA?AV?$Result@DV?$Stream@V?$_String_const_iterator@V?$_String_val@U?$_Simple_types@D@std@@@std@@@std@@@@@@AEBV?$Stream@V?$_String_const_iterator@V?$_String_val@U?$_Simple_types@D@std@@@std@@@std@@@@@Z
	DD	0ffffffffH
	DD	imagerel ?RunParser@?$ItemParser@DV?$Stream@V?$_String_const_iterator@V?$_String_val@U?$_Simple_types@D@std@@@std@@@std@@@@@@QEAA?AV?$Result@DV?$Stream@V?$_String_const_iterator@V?$_String_val@U?$_Simple_types@D@std@@@std@@@std@@@@@@AEBV?$Stream@V?$_String_const_iterator@V?$_String_val@U?$_Simple_types@D@std@@@std@@@std@@@@@Z+110
	DD	00H
	DD	imagerel ?RunParser@?$ItemParser@DV?$Stream@V?$_String_const_iterator@V?$_String_val@U?$_Simple_types@D@std@@@std@@@std@@@@@@QEAA?AV?$Result@DV?$Stream@V?$_String_const_iterator@V?$_String_val@U?$_Simple_types@D@std@@@std@@@std@@@@@@AEBV?$Stream@V?$_String_const_iterator@V?$_String_val@U?$_Simple_types@D@std@@@std@@@std@@@@@Z+151
	DD	02H
	DD	imagerel ?RunParser@?$ItemParser@DV?$Stream@V?$_String_const_iterator@V?$_String_val@U?$_Simple_types@D@std@@@std@@@std@@@@@@QEAA?AV?$Result@DV?$Stream@V?$_String_const_iterator@V?$_String_val@U?$_Simple_types@D@std@@@std@@@std@@@@@@AEBV?$Stream@V?$_String_const_iterator@V?$_String_val@U?$_Simple_types@D@std@@@std@@@std@@@@@Z+301
	DD	0ffffffffH
xdata	ENDS
;	COMDAT xdata
xdata	SEGMENT
$stateUnwindMap$?RunParser@?$ItemParser@DV?$Stream@V?$_String_const_iterator@V?$_String_val@U?$_Simple_types@D@std@@@std@@@std@@@@@@QEAA?AV?$Result@DV?$Stream@V?$_String_const_iterator@V?$_String_val@U?$_Simple_types@D@std@@@std@@@std@@@@@@AEBV?$Stream@V?$_String_const_iterator@V?$_String_val@U?$_Simple_types@D@std@@@std@@@std@@@@@Z DD 0ffffffffH
	DD	imagerel ?dtor$0@?0??RunParser@?$ItemParser@DV?$Stream@V?$_String_const_iterator@V?$_String_val@U?$_Simple_types@D@std@@@std@@@std@@@@@@QEAA?AV?$Result@DV?$Stream@V?$_String_const_iterator@V?$_String_val@U?$_Simple_types@D@std@@@std@@@std@@@@@@AEBV?$Stream@V?$_String_const_iterator@V?$_String_val@U?$_Simple_types@D@std@@@std@@@std@@@@@Z@4HA
	DD	00H
	DD	imagerel ?dtor$1@?0??RunParser@?$ItemParser@DV?$Stream@V?$_String_const_iterator@V?$_String_val@U?$_Simple_types@D@std@@@std@@@std@@@@@@QEAA?AV?$Result@DV?$Stream@V?$_String_const_iterator@V?$_String_val@U?$_Simple_types@D@std@@@std@@@std@@@@@@AEBV?$Stream@V?$_String_const_iterator@V?$_String_val@U?$_Simple_types@D@std@@@std@@@std@@@@@Z@4HA
	DD	0ffffffffH
	DD	imagerel ?dtor$1@?0??RunParser@?$ItemParser@DV?$Stream@V?$_String_const_iterator@V?$_String_val@U?$_Simple_types@D@std@@@std@@@std@@@@@@QEAA?AV?$Result@DV?$Stream@V?$_String_const_iterator@V?$_String_val@U?$_Simple_types@D@std@@@std@@@std@@@@@@AEBV?$Stream@V?$_String_const_iterator@V?$_String_val@U?$_Simple_types@D@std@@@std@@@std@@@@@Z@4HA
xdata	ENDS
;	COMDAT CONST
CONST	SEGMENT
$cppxdata$?RunParser@?$ItemParser@DV?$Stream@V?$_String_const_iterator@V?$_String_val@U?$_Simple_types@D@std@@@std@@@std@@@@@@QEAA?AV?$Result@DV?$Stream@V?$_String_const_iterator@V?$_String_val@U?$_Simple_types@D@std@@@std@@@std@@@@@@AEBV?$Stream@V?$_String_const_iterator@V?$_String_val@U?$_Simple_types@D@std@@@std@@@std@@@@@Z DD 019930522H
	DD	03H
	DD	imagerel $stateUnwindMap$?RunParser@?$ItemParser@DV?$Stream@V?$_String_const_iterator@V?$_String_val@U?$_Simple_types@D@std@@@std@@@std@@@@@@QEAA?AV?$Result@DV?$Stream@V?$_String_const_iterator@V?$_String_val@U?$_Simple_types@D@std@@@std@@@std@@@@@@AEBV?$Stream@V?$_String_const_iterator@V?$_String_val@U?$_Simple_types@D@std@@@std@@@std@@@@@Z
	DD	00H
	DD	00H
	DD	04H
	DD	imagerel $ip2state$?RunParser@?$ItemParser@DV?$Stream@V?$_String_const_iterator@V?$_String_val@U?$_Simple_types@D@std@@@std@@@std@@@@@@QEAA?AV?$Result@DV?$Stream@V?$_String_const_iterator@V?$_String_val@U?$_Simple_types@D@std@@@std@@@std@@@@@@AEBV?$Stream@V?$_String_const_iterator@V?$_String_val@U?$_Simple_types@D@std@@@std@@@std@@@@@Z
	DD	038H
	DD	00H
	DD	01H
CONST	ENDS
;	COMDAT xdata
xdata	SEGMENT
$unwind$?RunParser@?$ItemParser@DV?$Stream@V?$_String_const_iterator@V?$_String_val@U?$_Simple_types@D@std@@@std@@@std@@@@@@QEAA?AV?$Result@DV?$Stream@V?$_String_const_iterator@V?$_String_val@U?$_Simple_types@D@std@@@std@@@std@@@@@@AEBV?$Stream@V?$_String_const_iterator@V?$_String_val@U?$_Simple_types@D@std@@@std@@@std@@@@@Z DD 072e19H
	DD	0163420H
	DD	0120110H
	DD	060037004H
	DD	05002H
	DD	imagerel __GSHandlerCheck_EH
	DD	imagerel $cppxdata$?RunParser@?$ItemParser@DV?$Stream@V?$_String_const_iterator@V?$_String_val@U?$_Simple_types@D@std@@@std@@@std@@@@@@QEAA?AV?$Result@DV?$Stream@V?$_String_const_iterator@V?$_String_val@U?$_Simple_types@D@std@@@std@@@std@@@@@@AEBV?$Stream@V?$_String_const_iterator@V?$_String_val@U?$_Simple_types@D@std@@@std@@@std@@@@@Z
	DD	08aH
xdata	ENDS
;	COMDAT xdata
xdata	SEGMENT
$unwind$??1?$Result@DV?$Stream@V?$_String_const_iterator@V?$_String_val@U?$_Simple_types@D@std@@@std@@@std@@@@@@QEAA@XZ DD 010401H
	DD	04204H
xdata	ENDS
;	COMDAT xdata
xdata	SEGMENT
$unwind$??0?$Result@DV?$Stream@V?$_String_const_iterator@V?$_String_val@U?$_Simple_types@D@std@@@std@@@std@@@@@@QEAA@AEBVError@@AEBV?$Stream@V?$_String_const_iterator@V?$_String_val@U?$_Simple_types@D@std@@@std@@@std@@@@@Z DD 040a01H
	DD	07340aH
	DD	07006320aH
xdata	ENDS
;	COMDAT xdata
xdata	SEGMENT
$unwind$??1?$_Yarn@_W@std@@QEAA@XZ DD 020601H
	DD	030023206H
xdata	ENDS
;	COMDAT xdata
xdata	SEGMENT
$unwind$??1?$_Yarn@D@std@@QEAA@XZ DD 020601H
	DD	030023206H
xdata	ENDS
;	COMDAT xdata
xdata	SEGMENT
$unwind$??1?$basic_string@DU?$char_traits@D@std@@V?$allocator@D@2@@std@@QEAA@XZ DD 010401H
	DD	04204H
xdata	ENDS
;	COMDAT xdata
xdata	SEGMENT
$unwind$??0?$basic_string@DU?$char_traits@D@std@@V?$allocator@D@2@@std@@QEAA@$$QEAV01@@Z DD 040a01H
	DD	06340aH
	DD	07006320aH
xdata	ENDS
;	COMDAT xdata
xdata	SEGMENT
$unwind$??0?$basic_string@DU?$char_traits@D@std@@V?$allocator@D@2@@std@@QEAA@QEBD@Z DD 020601H
	DD	030023206H
xdata	ENDS
;	COMDAT xdata
xdata	SEGMENT
$unwind$??0?$basic_string@DU?$char_traits@D@std@@V?$allocator@D@2@@std@@QEAA@AEBV01@@Z DD 020601H
	DD	030023206H
xdata	ENDS
;	COMDAT xdata
xdata	SEGMENT
$unwind$??_GError@@QEAAPEAXI@Z DD 020601H
	DD	030023206H
xdata	ENDS
;	COMDAT xdata
xdata	SEGMENT
$unwind$??0?$Result@DV?$Stream@V?$_String_const_iterator@V?$_String_val@U?$_Simple_types@D@std@@@std@@@std@@@@@@QEAA@AEBV0@@Z DD 020601H
	DD	030023206H
xdata	ENDS
;	COMDAT xdata
xdata	SEGMENT
$unwind$?_Tidy@?$_Yarn@_W@std@@AEAAXXZ DD 020601H
	DD	030023206H
xdata	ENDS
;	COMDAT xdata
xdata	SEGMENT
$unwind$?_Tidy@?$_Yarn@D@std@@AEAAXXZ DD 020601H
	DD	030023206H
xdata	ENDS
;	COMDAT xdata
xdata	SEGMENT
$unwind$?_Tidy_deallocate_only@?$basic_string@DU?$char_traits@D@std@@V?$allocator@D@2@@std@@QEAAXXZ DD 010401H
	DD	04204H
xdata	ENDS
;	COMDAT xdata
xdata	SEGMENT
$unwind$?assign@?$basic_string@DU?$char_traits@D@std@@V?$allocator@D@2@@std@@QEAAAEAV12@QEBD_K@Z DD 060f01H
	DD	07640fH
	DD	06340fH
	DD	0700b320fH
xdata	ENDS
;	COMDAT xdata
xdata	SEGMENT
$chain$1$?append@?$basic_string@DU?$char_traits@D@std@@V?$allocator@D@2@@std@@QEAAAEAV12@QEBD_K@Z DD 021H
	DD	imagerel $LN142
	DD	imagerel $LN142+119
	DD	imagerel $unwind$?append@?$basic_string@DU?$char_traits@D@std@@V?$allocator@D@2@@std@@QEAAAEAV12@QEBD_K@Z
xdata	ENDS
;	COMDAT xdata
xdata	SEGMENT
$chain$0$?append@?$basic_string@DU?$char_traits@D@std@@V?$allocator@D@2@@std@@QEAAAEAV12@QEBD_K@Z DD 020521H
	DD	067405H
	DD	imagerel $LN142
	DD	imagerel $LN142+119
	DD	imagerel $unwind$?append@?$basic_string@DU?$char_traits@D@std@@V?$allocator@D@2@@std@@QEAAAEAV12@QEBD_K@Z
xdata	ENDS
;	COMDAT xdata
xdata	SEGMENT
$unwind$?append@?$basic_string@DU?$char_traits@D@std@@V?$allocator@D@2@@std@@QEAAAEAV12@QEBD_K@Z DD 060f01H
	DD	08540fH
	DD	07340fH
	DD	0600b320fH
xdata	ENDS
;	COMDAT xdata
xdata	SEGMENT
$chain$1$?append@?$basic_string@DU?$char_traits@D@std@@V?$allocator@D@2@@std@@QEAAAEAV12@AEBV12@_K_K@Z DD 021H
	DD	imagerel $LN151
	DD	imagerel $LN151+75
	DD	imagerel $unwind$?append@?$basic_string@DU?$char_traits@D@std@@V?$allocator@D@2@@std@@QEAAAEAV12@AEBV12@_K_K@Z
xdata	ENDS
;	COMDAT xdata
xdata	SEGMENT
$chain$0$?append@?$basic_string@DU?$char_traits@D@std@@V?$allocator@D@2@@std@@QEAAAEAV12@AEBV12@_K_K@Z DD 020521H
	DD	067405H
	DD	imagerel $LN151
	DD	imagerel $LN151+75
	DD	imagerel $unwind$?append@?$basic_string@DU?$char_traits@D@std@@V?$allocator@D@2@@std@@QEAAAEAV12@AEBV12@_K_K@Z
xdata	ENDS
;	COMDAT xdata
xdata	SEGMENT
$unwind$?append@?$basic_string@DU?$char_traits@D@std@@V?$allocator@D@2@@std@@QEAAAEAV12@AEBV12@_K_K@Z DD 081501H
	DD	096415H
	DD	085415H
	DD	073415H
	DD	0e0113215H
xdata	ENDS
;	COMDAT xdata
xdata	SEGMENT
$unwind$?_Assign_rv_contents@?$basic_string@DU?$char_traits@D@std@@V?$allocator@D@2@@std@@QEAAX$$QEAV12@@Z DD 040a01H
	DD	06340aH
	DD	07006320aH
xdata	ENDS
;	COMDAT xdata
xdata	SEGMENT
$unwind$??4Error@@QEAAAEAV0@AEBV0@@Z DD 020601H
	DD	030023206H
xdata	ENDS
;	COMDAT xdata
xdata	SEGMENT
$unwind$?deallocate@?$_Wrap_alloc@V?$allocator@D@std@@@std@@QEAAXPEAD_K@Z DD 010401H
	DD	04204H
xdata	ENDS
;	COMDAT xdata
xdata	SEGMENT
$unwind$?_Check_offset@?$basic_string@DU?$char_traits@D@std@@V?$allocator@D@2@@std@@QEBAX_K@Z DD 010401H
	DD	04204H
xdata	ENDS
;	COMDAT xdata
xdata	SEGMENT
$unwind$?_Xlen@?$basic_string@DU?$char_traits@D@std@@V?$allocator@D@2@@std@@SAXXZ DD 010401H
	DD	04204H
xdata	ENDS
;	COMDAT xdata
xdata	SEGMENT
$unwind$?_Grow@?$basic_string@DU?$char_traits@D@std@@V?$allocator@D@2@@std@@QEAA_N_K@Z DD 010401H
	DD	04204H
xdata	ENDS
;	COMDAT xdata
xdata	SEGMENT
$unwind$?assign@?$basic_string@DU?$char_traits@D@std@@V?$allocator@D@2@@std@@QEAAAEAV12@AEBV12@_K_K@Z DD 081501H
	DD	087415H
	DD	076415H
	DD	063415H
	DD	0e0113215H
xdata	ENDS
;	COMDAT xdata
xdata	SEGMENT
$unwind$??4?$basic_string@DU?$char_traits@D@std@@V?$allocator@D@2@@std@@QEAAAEAV01@AEBV01@@Z DD 020601H
	DD	030023206H
xdata	ENDS
;	COMDAT xdata
xdata	SEGMENT
$unwind$?_Xran@?$basic_string@DU?$char_traits@D@std@@V?$allocator@D@2@@std@@SAXXZ DD 010401H
	DD	04204H
xdata	ENDS
;	COMDAT xdata
xdata	SEGMENT
$unwind$?_Tidy_deallocate@?$basic_string@DU?$char_traits@D@std@@V?$allocator@D@2@@std@@QEAAXXZ DD 020601H
	DD	030023206H
xdata	ENDS
;	COMDAT xdata
xdata	SEGMENT
$unwind$?catch$16@?0??_Copy@?$basic_string@DU?$char_traits@D@std@@V?$allocator@D@2@@std@@QEAAX_K@Z@4HA DD 020a19H
	DD	05006320aH
	DD	imagerel __CxxFrameHandler3
	DD	imagerel $cppxdata$?_Copy@?$basic_string@DU?$char_traits@D@std@@V?$allocator@D@2@@std@@QEAAX_K@Z
xdata	ENDS
;	COMDAT xdata
xdata	SEGMENT
$ip2state$?_Copy@?$basic_string@DU?$char_traits@D@std@@V?$allocator@D@2@@std@@QEAAX_K@Z DD imagerel ?_Copy@?$basic_string@DU?$char_traits@D@std@@V?$allocator@D@2@@std@@QEAAX_K@Z
	DD	0ffffffffH
	DD	imagerel ?_Copy@?$basic_string@DU?$char_traits@D@std@@V?$allocator@D@2@@std@@QEAAX_K@Z+119
	DD	00H
	DD	imagerel ?_Copy@?$basic_string@DU?$char_traits@D@std@@V?$allocator@D@2@@std@@QEAAX_K@Z+185
	DD	0ffffffffH
	DD	imagerel ?catch$16@?0??_Copy@?$basic_string@DU?$char_traits@D@std@@V?$allocator@D@2@@std@@QEAAX_K@Z@4HA
	DD	00H
	DD	imagerel ?catch$16@?0??_Copy@?$basic_string@DU?$char_traits@D@std@@V?$allocator@D@2@@std@@QEAAX_K@Z@4HA+13
	DD	01H
	DD	imagerel ?catch$16@?0??_Copy@?$basic_string@DU?$char_traits@D@std@@V?$allocator@D@2@@std@@QEAAX_K@Z@4HA+37
	DD	00H
xdata	ENDS
;	COMDAT xdata
xdata	SEGMENT
$handlerMap$0$?_Copy@?$basic_string@DU?$char_traits@D@std@@V?$allocator@D@2@@std@@QEAAX_K@Z DD 040H
	DD	00H
	DD	00H
	DD	imagerel ?catch$16@?0??_Copy@?$basic_string@DU?$char_traits@D@std@@V?$allocator@D@2@@std@@QEAAX_K@Z@4HA
	DD	038H
xdata	ENDS
;	COMDAT xdata
xdata	SEGMENT
$tryMap$?_Copy@?$basic_string@DU?$char_traits@D@std@@V?$allocator@D@2@@std@@QEAAX_K@Z DD 00H
	DD	00H
	DD	01H
	DD	01H
	DD	imagerel $handlerMap$0$?_Copy@?$basic_string@DU?$char_traits@D@std@@V?$allocator@D@2@@std@@QEAAX_K@Z
xdata	ENDS
;	COMDAT xdata
xdata	SEGMENT
$stateUnwindMap$?_Copy@?$basic_string@DU?$char_traits@D@std@@V?$allocator@D@2@@std@@QEAAX_K@Z DD 0ffffffffH
	DD	00H
	DD	0ffffffffH
	DD	00H
xdata	ENDS
;	COMDAT CONST
CONST	SEGMENT
$cppxdata$?_Copy@?$basic_string@DU?$char_traits@D@std@@V?$allocator@D@2@@std@@QEAAX_K@Z DD 019930522H
	DD	02H
	DD	imagerel $stateUnwindMap$?_Copy@?$basic_string@DU?$char_traits@D@std@@V?$allocator@D@2@@std@@QEAAX_K@Z
	DD	01H
	DD	imagerel $tryMap$?_Copy@?$basic_string@DU?$char_traits@D@std@@V?$allocator@D@2@@std@@QEAAX_K@Z
	DD	06H
	DD	imagerel $ip2state$?_Copy@?$basic_string@DU?$char_traits@D@std@@V?$allocator@D@2@@std@@QEAAX_K@Z
	DD	020H
	DD	00H
	DD	01H
CONST	ENDS
;	COMDAT xdata
xdata	SEGMENT
$unwind$?_Copy@?$basic_string@DU?$char_traits@D@std@@V?$allocator@D@2@@std@@QEAAX_K@Z DD 051c19H
	DD	0e00f6213H
	DD	0600c700dH
	DD	0300bH
	DD	imagerel __CxxFrameHandler3
	DD	imagerel $cppxdata$?_Copy@?$basic_string@DU?$char_traits@D@std@@V?$allocator@D@2@@std@@QEAAX_K@Z
xdata	ENDS
;	COMDAT xdata
xdata	SEGMENT
$unwind$?erase@?$basic_string@DU?$char_traits@D@std@@V?$allocator@D@2@@std@@QEAAAEAV12@_K0@Z DD 040a01H
	DD	06340aH
	DD	07006320aH
xdata	ENDS
;	COMDAT xdata
xdata	SEGMENT
$unwind$?erase@?$basic_string@DU?$char_traits@D@std@@V?$allocator@D@2@@std@@QEAAAEAV12@_K@Z DD 010401H
	DD	04204H
xdata	ENDS
;	COMDAT xdata
xdata	SEGMENT
$unwind$?deallocate@?$allocator@D@std@@QEAAXPEAD_K@Z DD 010401H
	DD	04204H
xdata	ENDS
;	COMDAT xdata
xdata	SEGMENT
$unwind$?allocate@?$_Wrap_alloc@V?$allocator@D@std@@@std@@QEAAPEAD_K@Z DD 010401H
	DD	04204H
xdata	ENDS
;	COMDAT xdata
xdata	SEGMENT
$unwind$?allocate@?$allocator@D@std@@QEAAPEAD_K@Z DD 010401H
	DD	04204H
xdata	ENDS
;	COMDAT xdata
xdata	SEGMENT
$ip2state$??$use_facet@V?$ctype@D@std@@@std@@YAAEBV?$ctype@D@0@AEBVlocale@0@@Z DD imagerel ??$use_facet@V?$ctype@D@std@@@std@@YAAEBV?$ctype@D@0@AEBVlocale@0@@Z
	DD	0ffffffffH
	DD	imagerel ??$use_facet@V?$ctype@D@std@@@std@@YAAEBV?$ctype@D@0@AEBVlocale@0@@Z+38
	DD	00H
	DD	imagerel ??$use_facet@V?$ctype@D@std@@@std@@YAAEBV?$ctype@D@0@AEBVlocale@0@@Z+300
	DD	0ffffffffH
xdata	ENDS
;	COMDAT xdata
xdata	SEGMENT
$stateUnwindMap$??$use_facet@V?$ctype@D@std@@@std@@YAAEBV?$ctype@D@0@AEBVlocale@0@@Z DD 0ffffffffH
	DD	imagerel ?dtor$0@?0???$use_facet@V?$ctype@D@std@@@std@@YAAEBV?$ctype@D@0@AEBVlocale@0@@Z@4HA
xdata	ENDS
;	COMDAT CONST
CONST	SEGMENT
$cppxdata$??$use_facet@V?$ctype@D@std@@@std@@YAAEBV?$ctype@D@0@AEBVlocale@0@@Z DD 019930522H
	DD	01H
	DD	imagerel $stateUnwindMap$??$use_facet@V?$ctype@D@std@@@std@@YAAEBV?$ctype@D@0@AEBVlocale@0@@Z
	DD	00H
	DD	00H
	DD	03H
	DD	imagerel $ip2state$??$use_facet@V?$ctype@D@std@@@std@@YAAEBV?$ctype@D@0@AEBVlocale@0@@Z
	DD	020H
	DD	00H
	DD	01H
CONST	ENDS
;	COMDAT xdata
xdata	SEGMENT
$unwind$??$use_facet@V?$ctype@D@std@@@std@@YAAEBV?$ctype@D@0@AEBVlocale@0@@Z DD 061611H
	DD	0f3416H
	DD	070047208H
	DD	050026003H
	DD	imagerel __CxxFrameHandler3
	DD	imagerel $cppxdata$??$use_facet@V?$ctype@D@std@@@std@@YAAEBV?$ctype@D@0@AEBVlocale@0@@Z
xdata	ENDS
;	COMDAT xdata
xdata	SEGMENT
$unwind$??$_Immortalize@V_Iostream_error_category@std@@@std@@YAAEAV_Iostream_error_category@0@XZ DD 010401H
	DD	04204H
xdata	ENDS
;	COMDAT xdata
xdata	SEGMENT
$unwind$??$_Integral_to_string@DH@std@@YA?AV?$basic_string@DU?$char_traits@D@std@@V?$allocator@D@2@@0@H@Z DD 021519H
	DD	030029206H
	DD	imagerel __GSHandlerCheck
	DD	040H
xdata	ENDS
;	COMDAT xdata
xdata	SEGMENT
$unwind$??$?HDU?$char_traits@D@std@@V?$allocator@D@1@@std@@YA?AV?$basic_string@DU?$char_traits@D@std@@V?$allocator@D@2@@0@QEBD$$QEAV10@@Z DD 060f01H
	DD	09640fH
	DD	08340fH
	DD	0700b520fH
xdata	ENDS
;	COMDAT xdata
xdata	SEGMENT
$unwind$??$?HDU?$char_traits@D@std@@V?$allocator@D@1@@std@@YA?AV?$basic_string@DU?$char_traits@D@std@@V?$allocator@D@2@@0@$$QEAV10@QEBD@Z DD 060f01H
	DD	09640fH
	DD	08340fH
	DD	0700b520fH
xdata	ENDS
;	COMDAT xdata
xdata	SEGMENT
$unwind$??$?HDU?$char_traits@D@std@@V?$allocator@D@1@@std@@YA?AV?$basic_string@DU?$char_traits@D@std@@V?$allocator@D@2@@0@$$QEAV10@AEBV10@@Z DD 060f01H
	DD	09640fH
	DD	08340fH
	DD	0700b520fH
xdata	ENDS
;	COMDAT xdata
xdata	SEGMENT
$unwind$??$?HDU?$char_traits@D@std@@V?$allocator@D@1@@std@@YA?AV?$basic_string@DU?$char_traits@D@std@@V?$allocator@D@2@@0@$$QEAV10@0@Z DD 060f01H
	DD	0b640fH
	DD	0a340fH
	DD	0700b720fH
xdata	ENDS
;	COMDAT xdata
xdata	SEGMENT
$unwind$?catch$13@?0???$?6U?$char_traits@D@std@@@std@@YAAEAV?$basic_ostream@DU?$char_traits@D@std@@@0@AEAV10@PEBD@Z@4HA DD 020a19H
	DD	05006320aH
	DD	imagerel __CxxFrameHandler3
	DD	imagerel $cppxdata$??$?6U?$char_traits@D@std@@@std@@YAAEAV?$basic_ostream@DU?$char_traits@D@std@@@0@AEAV10@PEBD@Z
xdata	ENDS
;	COMDAT xdata
xdata	SEGMENT
$ip2state$??$?6U?$char_traits@D@std@@@std@@YAAEAV?$basic_ostream@DU?$char_traits@D@std@@@0@AEAV10@PEBD@Z DD imagerel ??$?6U?$char_traits@D@std@@@std@@YAAEAV?$basic_ostream@DU?$char_traits@D@std@@@0@AEAV10@PEBD@Z
	DD	0ffffffffH
	DD	imagerel ??$?6U?$char_traits@D@std@@@std@@YAAEAV?$basic_ostream@DU?$char_traits@D@std@@@0@AEAV10@PEBD@Z+141
	DD	00H
	DD	imagerel ??$?6U?$char_traits@D@std@@@std@@YAAEAV?$basic_ostream@DU?$char_traits@D@std@@@0@AEAV10@PEBD@Z+195
	DD	01H
	DD	imagerel ??$?6U?$char_traits@D@std@@@std@@YAAEAV?$basic_ostream@DU?$char_traits@D@std@@@0@AEAV10@PEBD@Z+209
	DD	02H
	DD	imagerel ??$?6U?$char_traits@D@std@@@std@@YAAEAV?$basic_ostream@DU?$char_traits@D@std@@@0@AEAV10@PEBD@Z+478
	DD	01H
	DD	imagerel ??$?6U?$char_traits@D@std@@@std@@YAAEAV?$basic_ostream@DU?$char_traits@D@std@@@0@AEAV10@PEBD@Z+706
	DD	04H
	DD	imagerel ??$?6U?$char_traits@D@std@@@std@@YAAEAV?$basic_ostream@DU?$char_traits@D@std@@@0@AEAV10@PEBD@Z+724
	DD	05H
	DD	imagerel ??$?6U?$char_traits@D@std@@@std@@YAAEAV?$basic_ostream@DU?$char_traits@D@std@@@0@AEAV10@PEBD@Z+749
	DD	0ffffffffH
	DD	imagerel ?catch$13@?0???$?6U?$char_traits@D@std@@@std@@YAAEAV?$basic_ostream@DU?$char_traits@D@std@@@0@AEAV10@PEBD@Z@4HA
	DD	00H
	DD	imagerel ?catch$13@?0???$?6U?$char_traits@D@std@@@std@@YAAEAV?$basic_ostream@DU?$char_traits@D@std@@@0@AEAV10@PEBD@Z@4HA+13
	DD	03H
	DD	imagerel ?catch$13@?0???$?6U?$char_traits@D@std@@@std@@YAAEAV?$basic_ostream@DU?$char_traits@D@std@@@0@AEAV10@PEBD@Z@4HA+57
	DD	00H
	DD	imagerel ?catch$13@?0???$?6U?$char_traits@D@std@@@std@@YAAEAV?$basic_ostream@DU?$char_traits@D@std@@@0@AEAV10@PEBD@Z@4HA+66
	DD	03H
	DD	imagerel ?catch$13@?0???$?6U?$char_traits@D@std@@@std@@YAAEAV?$basic_ostream@DU?$char_traits@D@std@@@0@AEAV10@PEBD@Z@4HA+76
	DD	00H
xdata	ENDS
;	COMDAT xdata
xdata	SEGMENT
$handlerMap$0$??$?6U?$char_traits@D@std@@@std@@YAAEAV?$basic_ostream@DU?$char_traits@D@std@@@0@AEAV10@PEBD@Z DD 040H
	DD	00H
	DD	00H
	DD	imagerel ?catch$13@?0???$?6U?$char_traits@D@std@@@std@@YAAEAV?$basic_ostream@DU?$char_traits@D@std@@@0@AEAV10@PEBD@Z@4HA
	DD	038H
xdata	ENDS
;	COMDAT xdata
xdata	SEGMENT
$tryMap$??$?6U?$char_traits@D@std@@@std@@YAAEAV?$basic_ostream@DU?$char_traits@D@std@@@0@AEAV10@PEBD@Z DD 02H
	DD	02H
	DD	03H
	DD	01H
	DD	imagerel $handlerMap$0$??$?6U?$char_traits@D@std@@@std@@YAAEAV?$basic_ostream@DU?$char_traits@D@std@@@0@AEAV10@PEBD@Z
xdata	ENDS
;	COMDAT xdata
xdata	SEGMENT
$stateUnwindMap$??$?6U?$char_traits@D@std@@@std@@YAAEAV?$basic_ostream@DU?$char_traits@D@std@@@0@AEAV10@PEBD@Z DD 0ffffffffH
	DD	imagerel ?dtor$2@?0???$?6U?$char_traits@D@std@@@std@@YAAEAV?$basic_ostream@DU?$char_traits@D@std@@@0@AEAV10@PEBD@Z@4HA
	DD	0ffffffffH
	DD	imagerel ?dtor$0@?0???$?6U?$char_traits@D@std@@@std@@YAAEAV?$basic_ostream@DU?$char_traits@D@std@@@0@AEAV10@PEBD@Z@4HA
	DD	01H
	DD	00H
	DD	01H
	DD	00H
	DD	0ffffffffH
	DD	imagerel __std_terminate
	DD	04H
	DD	imagerel __std_terminate
xdata	ENDS
;	COMDAT CONST
CONST	SEGMENT
$cppxdata$??$?6U?$char_traits@D@std@@@std@@YAAEAV?$basic_ostream@DU?$char_traits@D@std@@@0@AEAV10@PEBD@Z DD 019930522H
	DD	06H
	DD	imagerel $stateUnwindMap$??$?6U?$char_traits@D@std@@@std@@YAAEAV?$basic_ostream@DU?$char_traits@D@std@@@0@AEAV10@PEBD@Z
	DD	01H
	DD	imagerel $tryMap$??$?6U?$char_traits@D@std@@@std@@YAAEAV?$basic_ostream@DU?$char_traits@D@std@@@0@AEAV10@PEBD@Z
	DD	0dH
	DD	imagerel $ip2state$??$?6U?$char_traits@D@std@@@std@@YAAEAV?$basic_ostream@DU?$char_traits@D@std@@@0@AEAV10@PEBD@Z
	DD	040H
	DD	00H
	DD	01H
CONST	ENDS
;	COMDAT xdata
xdata	SEGMENT
$unwind$??$?6U?$char_traits@D@std@@@std@@YAAEAV?$basic_ostream@DU?$char_traits@D@std@@@0@AEAV10@PEBD@Z DD 092519H
	DD	01f3425H
	DD	0180114H
	DD	0e00bf00dH
	DD	07007c009H
	DD	06006H
	DD	imagerel __CxxFrameHandler3
	DD	imagerel $cppxdata$??$?6U?$char_traits@D@std@@@std@@YAAEAV?$basic_ostream@DU?$char_traits@D@std@@@0@AEAV10@PEBD@Z
xdata	ENDS
;	COMDAT xdata
xdata	SEGMENT
$unwind$?catch$16@?0???$?6U?$char_traits@D@std@@@std@@YAAEAV?$basic_ostream@DU?$char_traits@D@std@@@0@AEAV10@D@Z@4HA DD 020a19H
	DD	05006320aH
	DD	imagerel __CxxFrameHandler3
	DD	imagerel $cppxdata$??$?6U?$char_traits@D@std@@@std@@YAAEAV?$basic_ostream@DU?$char_traits@D@std@@@0@AEAV10@D@Z
xdata	ENDS
;	COMDAT xdata
xdata	SEGMENT
$ip2state$??$?6U?$char_traits@D@std@@@std@@YAAEAV?$basic_ostream@DU?$char_traits@D@std@@@0@AEAV10@D@Z DD imagerel ??$?6U?$char_traits@D@std@@@std@@YAAEAV?$basic_ostream@DU?$char_traits@D@std@@@0@AEAV10@D@Z
	DD	0ffffffffH
	DD	imagerel ??$?6U?$char_traits@D@std@@@std@@YAAEAV?$basic_ostream@DU?$char_traits@D@std@@@0@AEAV10@D@Z+92
	DD	00H
	DD	imagerel ??$?6U?$char_traits@D@std@@@std@@YAAEAV?$basic_ostream@DU?$char_traits@D@std@@@0@AEAV10@D@Z+145
	DD	01H
	DD	imagerel ??$?6U?$char_traits@D@std@@@std@@YAAEAV?$basic_ostream@DU?$char_traits@D@std@@@0@AEAV10@D@Z+172
	DD	02H
	DD	imagerel ??$?6U?$char_traits@D@std@@@std@@YAAEAV?$basic_ostream@DU?$char_traits@D@std@@@0@AEAV10@D@Z+484
	DD	01H
	DD	imagerel ??$?6U?$char_traits@D@std@@@std@@YAAEAV?$basic_ostream@DU?$char_traits@D@std@@@0@AEAV10@D@Z+727
	DD	04H
	DD	imagerel ??$?6U?$char_traits@D@std@@@std@@YAAEAV?$basic_ostream@DU?$char_traits@D@std@@@0@AEAV10@D@Z+745
	DD	05H
	DD	imagerel ??$?6U?$char_traits@D@std@@@std@@YAAEAV?$basic_ostream@DU?$char_traits@D@std@@@0@AEAV10@D@Z+770
	DD	0ffffffffH
	DD	imagerel ?catch$16@?0???$?6U?$char_traits@D@std@@@std@@YAAEAV?$basic_ostream@DU?$char_traits@D@std@@@0@AEAV10@D@Z@4HA
	DD	00H
	DD	imagerel ?catch$16@?0???$?6U?$char_traits@D@std@@@std@@YAAEAV?$basic_ostream@DU?$char_traits@D@std@@@0@AEAV10@D@Z@4HA+13
	DD	03H
	DD	imagerel ?catch$16@?0???$?6U?$char_traits@D@std@@@std@@YAAEAV?$basic_ostream@DU?$char_traits@D@std@@@0@AEAV10@D@Z@4HA+57
	DD	00H
	DD	imagerel ?catch$16@?0???$?6U?$char_traits@D@std@@@std@@YAAEAV?$basic_ostream@DU?$char_traits@D@std@@@0@AEAV10@D@Z@4HA+66
	DD	03H
	DD	imagerel ?catch$16@?0???$?6U?$char_traits@D@std@@@std@@YAAEAV?$basic_ostream@DU?$char_traits@D@std@@@0@AEAV10@D@Z@4HA+76
	DD	00H
xdata	ENDS
;	COMDAT xdata
xdata	SEGMENT
$handlerMap$0$??$?6U?$char_traits@D@std@@@std@@YAAEAV?$basic_ostream@DU?$char_traits@D@std@@@0@AEAV10@D@Z DD 040H
	DD	00H
	DD	00H
	DD	imagerel ?catch$16@?0???$?6U?$char_traits@D@std@@@std@@YAAEAV?$basic_ostream@DU?$char_traits@D@std@@@0@AEAV10@D@Z@4HA
	DD	038H
xdata	ENDS
;	COMDAT xdata
xdata	SEGMENT
$tryMap$??$?6U?$char_traits@D@std@@@std@@YAAEAV?$basic_ostream@DU?$char_traits@D@std@@@0@AEAV10@D@Z DD 02H
	DD	02H
	DD	03H
	DD	01H
	DD	imagerel $handlerMap$0$??$?6U?$char_traits@D@std@@@std@@YAAEAV?$basic_ostream@DU?$char_traits@D@std@@@0@AEAV10@D@Z
xdata	ENDS
;	COMDAT xdata
xdata	SEGMENT
$stateUnwindMap$??$?6U?$char_traits@D@std@@@std@@YAAEAV?$basic_ostream@DU?$char_traits@D@std@@@0@AEAV10@D@Z DD 0ffffffffH
	DD	imagerel ?dtor$1@?0???$?6U?$char_traits@D@std@@@std@@YAAEAV?$basic_ostream@DU?$char_traits@D@std@@@0@AEAV10@D@Z@4HA
	DD	0ffffffffH
	DD	imagerel ?dtor$0@?0???$?6U?$char_traits@D@std@@@std@@YAAEAV?$basic_ostream@DU?$char_traits@D@std@@@0@AEAV10@D@Z@4HA
	DD	01H
	DD	00H
	DD	01H
	DD	00H
	DD	0ffffffffH
	DD	imagerel __std_terminate
	DD	04H
	DD	imagerel __std_terminate
xdata	ENDS
;	COMDAT CONST
CONST	SEGMENT
$cppxdata$??$?6U?$char_traits@D@std@@@std@@YAAEAV?$basic_ostream@DU?$char_traits@D@std@@@0@AEAV10@D@Z DD 019930522H
	DD	06H
	DD	imagerel $stateUnwindMap$??$?6U?$char_traits@D@std@@@std@@YAAEAV?$basic_ostream@DU?$char_traits@D@std@@@0@AEAV10@D@Z
	DD	01H
	DD	imagerel $tryMap$??$?6U?$char_traits@D@std@@@std@@YAAEAV?$basic_ostream@DU?$char_traits@D@std@@@0@AEAV10@D@Z
	DD	0dH
	DD	imagerel $ip2state$??$?6U?$char_traits@D@std@@@std@@YAAEAV?$basic_ostream@DU?$char_traits@D@std@@@0@AEAV10@D@Z
	DD	040H
	DD	00H
	DD	01H
CONST	ENDS
;	COMDAT xdata
xdata	SEGMENT
$unwind$??$?6U?$char_traits@D@std@@@std@@YAAEAV?$basic_ostream@DU?$char_traits@D@std@@@0@AEAV10@D@Z DD 0b2819H
	DD	0216428H
	DD	01f3424H
	DD	0180117H
	DD	0e00ef010H
	DD	0c00ad00cH
	DD	07008H
	DD	imagerel __CxxFrameHandler3
	DD	imagerel $cppxdata$??$?6U?$char_traits@D@std@@@std@@YAAEAV?$basic_ostream@DU?$char_traits@D@std@@@0@AEAV10@D@Z
xdata	ENDS
;	COMDAT xdata
xdata	SEGMENT
$ip2state$??$endl@DU?$char_traits@D@std@@@std@@YAAEAV?$basic_ostream@DU?$char_traits@D@std@@@0@AEAV10@@Z DD imagerel ??$endl@DU?$char_traits@D@std@@@std@@YAAEAV?$basic_ostream@DU?$char_traits@D@std@@@0@AEAV10@@Z
	DD	0ffffffffH
	DD	imagerel ??$endl@DU?$char_traits@D@std@@@std@@YAAEAV?$basic_ostream@DU?$char_traits@D@std@@@0@AEAV10@@Z+44
	DD	00H
	DD	imagerel ??$endl@DU?$char_traits@D@std@@@std@@YAAEAV?$basic_ostream@DU?$char_traits@D@std@@@0@AEAV10@@Z+55
	DD	01H
	DD	imagerel ??$endl@DU?$char_traits@D@std@@@std@@YAAEAV?$basic_ostream@DU?$char_traits@D@std@@@0@AEAV10@@Z+91
	DD	0ffffffffH
xdata	ENDS
;	COMDAT xdata
xdata	SEGMENT
$stateUnwindMap$??$endl@DU?$char_traits@D@std@@@std@@YAAEAV?$basic_ostream@DU?$char_traits@D@std@@@0@AEAV10@@Z DD 0ffffffffH
	DD	imagerel ?dtor$0@?0???$endl@DU?$char_traits@D@std@@@std@@YAAEAV?$basic_ostream@DU?$char_traits@D@std@@@0@AEAV10@@Z@4HA
	DD	0ffffffffH
	DD	imagerel __std_terminate
xdata	ENDS
;	COMDAT CONST
CONST	SEGMENT
$cppxdata$??$endl@DU?$char_traits@D@std@@@std@@YAAEAV?$basic_ostream@DU?$char_traits@D@std@@@0@AEAV10@@Z DD 019930522H
	DD	02H
	DD	imagerel $stateUnwindMap$??$endl@DU?$char_traits@D@std@@@std@@YAAEAV?$basic_ostream@DU?$char_traits@D@std@@@0@AEAV10@@Z
	DD	00H
	DD	00H
	DD	04H
	DD	imagerel $ip2state$??$endl@DU?$char_traits@D@std@@@std@@YAAEAV?$basic_ostream@DU?$char_traits@D@std@@@0@AEAV10@@Z
	DD	020H
	DD	00H
	DD	01H
CONST	ENDS
;	COMDAT xdata
xdata	SEGMENT
$unwind$??$endl@DU?$char_traits@D@std@@@std@@YAAEAV?$basic_ostream@DU?$char_traits@D@std@@@0@AEAV10@@Z DD 041411H
	DD	0a3414H
	DD	070027206H
	DD	imagerel __CxxFrameHandler3
	DD	imagerel $cppxdata$??$endl@DU?$char_traits@D@std@@@std@@YAAEAV?$basic_ostream@DU?$char_traits@D@std@@@0@AEAV10@@Z
xdata	ENDS
;	COMDAT xdata
xdata	SEGMENT
$unwind$?catch$18@?0???$?6_WU?$char_traits@_W@std@@@std@@YAAEAV?$basic_ostream@_WU?$char_traits@_W@std@@@0@AEAV10@PEBD@Z@4HA DD 020a19H
	DD	05006520aH
	DD	imagerel __CxxFrameHandler3
	DD	imagerel $cppxdata$??$?6_WU?$char_traits@_W@std@@@std@@YAAEAV?$basic_ostream@_WU?$char_traits@_W@std@@@0@AEAV10@PEBD@Z
xdata	ENDS
;	COMDAT xdata
xdata	SEGMENT
$ip2state$??$?6_WU?$char_traits@_W@std@@@std@@YAAEAV?$basic_ostream@_WU?$char_traits@_W@std@@@0@AEAV10@PEBD@Z DD imagerel ??$?6_WU?$char_traits@_W@std@@@std@@YAAEAV?$basic_ostream@_WU?$char_traits@_W@std@@@0@AEAV10@PEBD@Z
	DD	0ffffffffH
	DD	imagerel ??$?6_WU?$char_traits@_W@std@@@std@@YAAEAV?$basic_ostream@_WU?$char_traits@_W@std@@@0@AEAV10@PEBD@Z+140
	DD	00H
	DD	imagerel ??$?6_WU?$char_traits@_W@std@@@std@@YAAEAV?$basic_ostream@_WU?$char_traits@_W@std@@@0@AEAV10@PEBD@Z+194
	DD	01H
	DD	imagerel ??$?6_WU?$char_traits@_W@std@@@std@@YAAEAV?$basic_ostream@_WU?$char_traits@_W@std@@@0@AEAV10@PEBD@Z+208
	DD	02H
	DD	imagerel ??$?6_WU?$char_traits@_W@std@@@std@@YAAEAV?$basic_ostream@_WU?$char_traits@_W@std@@@0@AEAV10@PEBD@Z+222
	DD	03H
	DD	imagerel ??$?6_WU?$char_traits@_W@std@@@std@@YAAEAV?$basic_ostream@_WU?$char_traits@_W@std@@@0@AEAV10@PEBD@Z+233
	DD	04H
	DD	imagerel ??$?6_WU?$char_traits@_W@std@@@std@@YAAEAV?$basic_ostream@_WU?$char_traits@_W@std@@@0@AEAV10@PEBD@Z+269
	DD	02H
	DD	imagerel ??$?6_WU?$char_traits@_W@std@@@std@@YAAEAV?$basic_ostream@_WU?$char_traits@_W@std@@@0@AEAV10@PEBD@Z+749
	DD	01H
	DD	imagerel ??$?6_WU?$char_traits@_W@std@@@std@@YAAEAV?$basic_ostream@_WU?$char_traits@_W@std@@@0@AEAV10@PEBD@Z+986
	DD	06H
	DD	imagerel ??$?6_WU?$char_traits@_W@std@@@std@@YAAEAV?$basic_ostream@_WU?$char_traits@_W@std@@@0@AEAV10@PEBD@Z+1004
	DD	07H
	DD	imagerel ??$?6_WU?$char_traits@_W@std@@@std@@YAAEAV?$basic_ostream@_WU?$char_traits@_W@std@@@0@AEAV10@PEBD@Z+1028
	DD	0ffffffffH
	DD	imagerel ?catch$18@?0???$?6_WU?$char_traits@_W@std@@@std@@YAAEAV?$basic_ostream@_WU?$char_traits@_W@std@@@0@AEAV10@PEBD@Z@4HA
	DD	00H
	DD	imagerel ?catch$18@?0???$?6_WU?$char_traits@_W@std@@@std@@YAAEAV?$basic_ostream@_WU?$char_traits@_W@std@@@0@AEAV10@PEBD@Z@4HA+13
	DD	05H
	DD	imagerel ?catch$18@?0???$?6_WU?$char_traits@_W@std@@@std@@YAAEAV?$basic_ostream@_WU?$char_traits@_W@std@@@0@AEAV10@PEBD@Z@4HA+57
	DD	00H
	DD	imagerel ?catch$18@?0???$?6_WU?$char_traits@_W@std@@@std@@YAAEAV?$basic_ostream@_WU?$char_traits@_W@std@@@0@AEAV10@PEBD@Z@4HA+66
	DD	05H
	DD	imagerel ?catch$18@?0???$?6_WU?$char_traits@_W@std@@@std@@YAAEAV?$basic_ostream@_WU?$char_traits@_W@std@@@0@AEAV10@PEBD@Z@4HA+76
	DD	00H
xdata	ENDS
;	COMDAT xdata
xdata	SEGMENT
$handlerMap$0$??$?6_WU?$char_traits@_W@std@@@std@@YAAEAV?$basic_ostream@_WU?$char_traits@_W@std@@@0@AEAV10@PEBD@Z DD 040H
	DD	00H
	DD	00H
	DD	imagerel ?catch$18@?0???$?6_WU?$char_traits@_W@std@@@std@@YAAEAV?$basic_ostream@_WU?$char_traits@_W@std@@@0@AEAV10@PEBD@Z@4HA
	DD	048H
xdata	ENDS
;	COMDAT xdata
xdata	SEGMENT
$tryMap$??$?6_WU?$char_traits@_W@std@@@std@@YAAEAV?$basic_ostream@_WU?$char_traits@_W@std@@@0@AEAV10@PEBD@Z DD 02H
	DD	04H
	DD	05H
	DD	01H
	DD	imagerel $handlerMap$0$??$?6_WU?$char_traits@_W@std@@@std@@YAAEAV?$basic_ostream@_WU?$char_traits@_W@std@@@0@AEAV10@PEBD@Z
xdata	ENDS
;	COMDAT xdata
xdata	SEGMENT
$stateUnwindMap$??$?6_WU?$char_traits@_W@std@@@std@@YAAEAV?$basic_ostream@_WU?$char_traits@_W@std@@@0@AEAV10@PEBD@Z DD 0ffffffffH
	DD	imagerel ?dtor$2@?0???$?6_WU?$char_traits@_W@std@@@std@@YAAEAV?$basic_ostream@_WU?$char_traits@_W@std@@@0@AEAV10@PEBD@Z@4HA
	DD	0ffffffffH
	DD	imagerel ?dtor$0@?0???$?6_WU?$char_traits@_W@std@@@std@@YAAEAV?$basic_ostream@_WU?$char_traits@_W@std@@@0@AEAV10@PEBD@Z@4HA
	DD	01H
	DD	00H
	DD	02H
	DD	imagerel ?dtor$1@?0???$?6_WU?$char_traits@_W@std@@@std@@YAAEAV?$basic_ostream@_WU?$char_traits@_W@std@@@0@AEAV10@PEBD@Z@4HA
	DD	02H
	DD	imagerel __std_terminate
	DD	01H
	DD	00H
	DD	0ffffffffH
	DD	imagerel __std_terminate
	DD	06H
	DD	imagerel __std_terminate
xdata	ENDS
;	COMDAT CONST
CONST	SEGMENT
$cppxdata$??$?6_WU?$char_traits@_W@std@@@std@@YAAEAV?$basic_ostream@_WU?$char_traits@_W@std@@@0@AEAV10@PEBD@Z DD 019930522H
	DD	08H
	DD	imagerel $stateUnwindMap$??$?6_WU?$char_traits@_W@std@@@std@@YAAEAV?$basic_ostream@_WU?$char_traits@_W@std@@@0@AEAV10@PEBD@Z
	DD	01H
	DD	imagerel $tryMap$??$?6_WU?$char_traits@_W@std@@@std@@YAAEAV?$basic_ostream@_WU?$char_traits@_W@std@@@0@AEAV10@PEBD@Z
	DD	010H
	DD	imagerel $ip2state$??$?6_WU?$char_traits@_W@std@@@std@@YAAEAV?$basic_ostream@_WU?$char_traits@_W@std@@@0@AEAV10@PEBD@Z
	DD	058H
	DD	00H
	DD	01H
CONST	ENDS
;	COMDAT xdata
xdata	SEGMENT
$unwind$??$?6_WU?$char_traits@_W@std@@@std@@YAAEAV?$basic_ostream@_WU?$char_traits@_W@std@@@0@AEAV10@PEBD@Z DD 092519H
	DD	01c011cH
	DD	0e013f015H
	DD	0c00fd011H
	DD	0600c700dH
	DD	0300bH
	DD	imagerel __CxxFrameHandler3
	DD	imagerel $cppxdata$??$?6_WU?$char_traits@_W@std@@@std@@YAAEAV?$basic_ostream@_WU?$char_traits@_W@std@@@0@AEAV10@PEBD@Z
xdata	ENDS
;	COMDAT xdata
xdata	SEGMENT
$unwind$??$endl@_WU?$char_traits@_W@std@@@std@@YAAEAV?$basic_ostream@_WU?$char_traits@_W@std@@@0@AEAV10@@Z DD 020601H
	DD	030023206H
xdata	ENDS
;	COMDAT xdata
xdata	SEGMENT
$unwind$??0bad_cast@std@@QEAA@AEBV01@@Z DD 020601H
	DD	030023206H
xdata	ENDS
;	COMDAT xdata
xdata	SEGMENT
$ip2state$??1sentry@?$basic_ostream@_WU?$char_traits@_W@std@@@std@@QEAA@XZ DD imagerel ??1sentry@?$basic_ostream@_WU?$char_traits@_W@std@@@std@@QEAA@XZ
	DD	0ffffffffH
	DD	imagerel ??1sentry@?$basic_ostream@_WU?$char_traits@_W@std@@@std@@QEAA@XZ+37
	DD	00H
	DD	imagerel ??1sentry@?$basic_ostream@_WU?$char_traits@_W@std@@@std@@QEAA@XZ+64
	DD	0ffffffffH
xdata	ENDS
;	COMDAT xdata
xdata	SEGMENT
$stateUnwindMap$??1sentry@?$basic_ostream@_WU?$char_traits@_W@std@@@std@@QEAA@XZ DD 0ffffffffH
	DD	imagerel __std_terminate
xdata	ENDS
;	COMDAT CONST
CONST	SEGMENT
$cppxdata$??1sentry@?$basic_ostream@_WU?$char_traits@_W@std@@@std@@QEAA@XZ DD 019930522H
	DD	01H
	DD	imagerel $stateUnwindMap$??1sentry@?$basic_ostream@_WU?$char_traits@_W@std@@@std@@QEAA@XZ
	DD	00H
	DD	00H
	DD	03H
	DD	imagerel $ip2state$??1sentry@?$basic_ostream@_WU?$char_traits@_W@std@@@std@@QEAA@XZ
	DD	020H
	DD	00H
	DD	05H
CONST	ENDS
;	COMDAT xdata
xdata	SEGMENT
$unwind$??1sentry@?$basic_ostream@_WU?$char_traits@_W@std@@@std@@QEAA@XZ DD 020f19H
	DD	030025206H
	DD	imagerel __CxxFrameHandler3
	DD	imagerel $cppxdata$??1sentry@?$basic_ostream@_WU?$char_traits@_W@std@@@std@@QEAA@XZ
xdata	ENDS
;	COMDAT xdata
xdata	SEGMENT
$ip2state$??0sentry@?$basic_ostream@_WU?$char_traits@_W@std@@@std@@QEAA@AEAV12@@Z DD imagerel ??0sentry@?$basic_ostream@_WU?$char_traits@_W@std@@@std@@QEAA@AEAV12@@Z
	DD	0ffffffffH
	DD	imagerel ??0sentry@?$basic_ostream@_WU?$char_traits@_W@std@@@std@@QEAA@AEAV12@@Z+57
	DD	00H
	DD	imagerel ??0sentry@?$basic_ostream@_WU?$char_traits@_W@std@@@std@@QEAA@AEAV12@@Z+109
	DD	0ffffffffH
xdata	ENDS
;	COMDAT xdata
xdata	SEGMENT
$stateUnwindMap$??0sentry@?$basic_ostream@_WU?$char_traits@_W@std@@@std@@QEAA@AEAV12@@Z DD 0ffffffffH
	DD	imagerel ?dtor$0@?0???0sentry@?$basic_ostream@_WU?$char_traits@_W@std@@@std@@QEAA@AEAV12@@Z@4HA
xdata	ENDS
;	COMDAT CONST
CONST	SEGMENT
$cppxdata$??0sentry@?$basic_ostream@_WU?$char_traits@_W@std@@@std@@QEAA@AEAV12@@Z DD 019930522H
	DD	01H
	DD	imagerel $stateUnwindMap$??0sentry@?$basic_ostream@_WU?$char_traits@_W@std@@@std@@QEAA@AEAV12@@Z
	DD	00H
	DD	00H
	DD	03H
	DD	imagerel $ip2state$??0sentry@?$basic_ostream@_WU?$char_traits@_W@std@@@std@@QEAA@AEAV12@@Z
	DD	020H
	DD	00H
	DD	01H
CONST	ENDS
;	COMDAT xdata
xdata	SEGMENT
$unwind$??0sentry@?$basic_ostream@_WU?$char_traits@_W@std@@@std@@QEAA@AEAV12@@Z DD 041811H
	DD	093418H
	DD	07006520aH
	DD	imagerel __CxxFrameHandler3
	DD	imagerel $cppxdata$??0sentry@?$basic_ostream@_WU?$char_traits@_W@std@@@std@@QEAA@AEAV12@@Z
xdata	ENDS
;	COMDAT xdata
xdata	SEGMENT
$ip2state$??1sentry@?$basic_ostream@DU?$char_traits@D@std@@@std@@QEAA@XZ DD imagerel ??1sentry@?$basic_ostream@DU?$char_traits@D@std@@@std@@QEAA@XZ
	DD	0ffffffffH
	DD	imagerel ??1sentry@?$basic_ostream@DU?$char_traits@D@std@@@std@@QEAA@XZ+37
	DD	00H
	DD	imagerel ??1sentry@?$basic_ostream@DU?$char_traits@D@std@@@std@@QEAA@XZ+64
	DD	0ffffffffH
xdata	ENDS
;	COMDAT xdata
xdata	SEGMENT
$stateUnwindMap$??1sentry@?$basic_ostream@DU?$char_traits@D@std@@@std@@QEAA@XZ DD 0ffffffffH
	DD	imagerel __std_terminate
xdata	ENDS
;	COMDAT CONST
CONST	SEGMENT
$cppxdata$??1sentry@?$basic_ostream@DU?$char_traits@D@std@@@std@@QEAA@XZ DD 019930522H
	DD	01H
	DD	imagerel $stateUnwindMap$??1sentry@?$basic_ostream@DU?$char_traits@D@std@@@std@@QEAA@XZ
	DD	00H
	DD	00H
	DD	03H
	DD	imagerel $ip2state$??1sentry@?$basic_ostream@DU?$char_traits@D@std@@@std@@QEAA@XZ
	DD	020H
	DD	00H
	DD	05H
CONST	ENDS
;	COMDAT xdata
xdata	SEGMENT
$unwind$??1sentry@?$basic_ostream@DU?$char_traits@D@std@@@std@@QEAA@XZ DD 020f19H
	DD	030025206H
	DD	imagerel __CxxFrameHandler3
	DD	imagerel $cppxdata$??1sentry@?$basic_ostream@DU?$char_traits@D@std@@@std@@QEAA@XZ
xdata	ENDS
;	COMDAT xdata
xdata	SEGMENT
$ip2state$??0sentry@?$basic_ostream@DU?$char_traits@D@std@@@std@@QEAA@AEAV12@@Z DD imagerel ??0sentry@?$basic_ostream@DU?$char_traits@D@std@@@std@@QEAA@AEAV12@@Z
	DD	0ffffffffH
	DD	imagerel ??0sentry@?$basic_ostream@DU?$char_traits@D@std@@@std@@QEAA@AEAV12@@Z+57
	DD	00H
	DD	imagerel ??0sentry@?$basic_ostream@DU?$char_traits@D@std@@@std@@QEAA@AEAV12@@Z+109
	DD	0ffffffffH
xdata	ENDS
;	COMDAT xdata
xdata	SEGMENT
$stateUnwindMap$??0sentry@?$basic_ostream@DU?$char_traits@D@std@@@std@@QEAA@AEAV12@@Z DD 0ffffffffH
	DD	imagerel ?dtor$0@?0???0sentry@?$basic_ostream@DU?$char_traits@D@std@@@std@@QEAA@AEAV12@@Z@4HA
xdata	ENDS
;	COMDAT CONST
CONST	SEGMENT
$cppxdata$??0sentry@?$basic_ostream@DU?$char_traits@D@std@@@std@@QEAA@AEAV12@@Z DD 019930522H
	DD	01H
	DD	imagerel $stateUnwindMap$??0sentry@?$basic_ostream@DU?$char_traits@D@std@@@std@@QEAA@AEAV12@@Z
	DD	00H
	DD	00H
	DD	03H
	DD	imagerel $ip2state$??0sentry@?$basic_ostream@DU?$char_traits@D@std@@@std@@QEAA@AEAV12@@Z
	DD	020H
	DD	00H
	DD	01H
CONST	ENDS
;	COMDAT xdata
xdata	SEGMENT
$unwind$??0sentry@?$basic_ostream@DU?$char_traits@D@std@@@std@@QEAA@AEAV12@@Z DD 041811H
	DD	093418H
	DD	07006520aH
	DD	imagerel __CxxFrameHandler3
	DD	imagerel $cppxdata$??0sentry@?$basic_ostream@DU?$char_traits@D@std@@@std@@QEAA@AEAV12@@Z
xdata	ENDS
;	COMDAT xdata
xdata	SEGMENT
$unwind$?insert@?$basic_string@DU?$char_traits@D@std@@V?$allocator@D@2@@std@@QEAAAEAV12@_KAEBV12@@Z DD 010401H
	DD	06204H
xdata	ENDS
;	COMDAT xdata
xdata	SEGMENT
$ip2state$?flush@?$basic_ostream@_WU?$char_traits@_W@std@@@std@@QEAAAEAV12@XZ DD imagerel ?flush@?$basic_ostream@_WU?$char_traits@_W@std@@@std@@QEAAAEAV12@XZ
	DD	0ffffffffH
	DD	imagerel ?flush@?$basic_ostream@_WU?$char_traits@_W@std@@@std@@QEAAAEAV12@XZ+51
	DD	00H
	DD	imagerel ?flush@?$basic_ostream@_WU?$char_traits@_W@std@@@std@@QEAAAEAV12@XZ+281
	DD	01H
	DD	imagerel ?flush@?$basic_ostream@_WU?$char_traits@_W@std@@@std@@QEAAAEAV12@XZ+301
	DD	02H
	DD	imagerel ?flush@?$basic_ostream@_WU?$char_traits@_W@std@@@std@@QEAAAEAV12@XZ+330
	DD	0ffffffffH
xdata	ENDS
;	COMDAT xdata
xdata	SEGMENT
$stateUnwindMap$?flush@?$basic_ostream@_WU?$char_traits@_W@std@@@std@@QEAAAEAV12@XZ DD 0ffffffffH
	DD	imagerel ?dtor$0@?0??flush@?$basic_ostream@_WU?$char_traits@_W@std@@@std@@QEAAAEAV12@XZ@4HA
	DD	0ffffffffH
	DD	imagerel __std_terminate
	DD	01H
	DD	imagerel __std_terminate
xdata	ENDS
;	COMDAT CONST
CONST	SEGMENT
$cppxdata$?flush@?$basic_ostream@_WU?$char_traits@_W@std@@@std@@QEAAAEAV12@XZ DD 019930522H
	DD	03H
	DD	imagerel $stateUnwindMap$?flush@?$basic_ostream@_WU?$char_traits@_W@std@@@std@@QEAAAEAV12@XZ
	DD	00H
	DD	00H
	DD	05H
	DD	imagerel $ip2state$?flush@?$basic_ostream@_WU?$char_traits@_W@std@@@std@@QEAAAEAV12@XZ
	DD	020H
	DD	00H
	DD	01H
CONST	ENDS
;	COMDAT xdata
xdata	SEGMENT
$unwind$?flush@?$basic_ostream@_WU?$char_traits@_W@std@@@std@@QEAAAEAV12@XZ DD 020f11H
	DD	03002d206H
	DD	imagerel __CxxFrameHandler3
	DD	imagerel $cppxdata$?flush@?$basic_ostream@_WU?$char_traits@_W@std@@@std@@QEAAAEAV12@XZ
xdata	ENDS
;	COMDAT xdata
xdata	SEGMENT
$unwind$?catch$8@?0??put@?$basic_ostream@_WU?$char_traits@_W@std@@@std@@QEAAAEAV12@_W@Z@4HA DD 020a19H
	DD	05006320aH
	DD	imagerel __CxxFrameHandler3
	DD	imagerel $cppxdata$?put@?$basic_ostream@_WU?$char_traits@_W@std@@@std@@QEAAAEAV12@_W@Z
xdata	ENDS
;	COMDAT xdata
xdata	SEGMENT
$ip2state$?put@?$basic_ostream@_WU?$char_traits@_W@std@@@std@@QEAAAEAV12@_W@Z DD imagerel ?put@?$basic_ostream@_WU?$char_traits@_W@std@@@std@@QEAAAEAV12@_W@Z
	DD	0ffffffffH
	DD	imagerel ?put@?$basic_ostream@_WU?$char_traits@_W@std@@@std@@QEAAAEAV12@_W@Z+76
	DD	00H
	DD	imagerel ?put@?$basic_ostream@_WU?$char_traits@_W@std@@@std@@QEAAAEAV12@_W@Z+129
	DD	01H
	DD	imagerel ?put@?$basic_ostream@_WU?$char_traits@_W@std@@@std@@QEAAAEAV12@_W@Z+140
	DD	02H
	DD	imagerel ?put@?$basic_ostream@_WU?$char_traits@_W@std@@@std@@QEAAAEAV12@_W@Z+225
	DD	01H
	DD	imagerel ?put@?$basic_ostream@_WU?$char_traits@_W@std@@@std@@QEAAAEAV12@_W@Z+448
	DD	04H
	DD	imagerel ?put@?$basic_ostream@_WU?$char_traits@_W@std@@@std@@QEAAAEAV12@_W@Z+466
	DD	05H
	DD	imagerel ?put@?$basic_ostream@_WU?$char_traits@_W@std@@@std@@QEAAAEAV12@_W@Z+490
	DD	0ffffffffH
	DD	imagerel ?catch$8@?0??put@?$basic_ostream@_WU?$char_traits@_W@std@@@std@@QEAAAEAV12@_W@Z@4HA
	DD	00H
	DD	imagerel ?catch$8@?0??put@?$basic_ostream@_WU?$char_traits@_W@std@@@std@@QEAAAEAV12@_W@Z@4HA+13
	DD	03H
	DD	imagerel ?catch$8@?0??put@?$basic_ostream@_WU?$char_traits@_W@std@@@std@@QEAAAEAV12@_W@Z@4HA+57
	DD	00H
	DD	imagerel ?catch$8@?0??put@?$basic_ostream@_WU?$char_traits@_W@std@@@std@@QEAAAEAV12@_W@Z@4HA+66
	DD	03H
	DD	imagerel ?catch$8@?0??put@?$basic_ostream@_WU?$char_traits@_W@std@@@std@@QEAAAEAV12@_W@Z@4HA+76
	DD	00H
xdata	ENDS
;	COMDAT xdata
xdata	SEGMENT
$handlerMap$0$?put@?$basic_ostream@_WU?$char_traits@_W@std@@@std@@QEAAAEAV12@_W@Z DD 040H
	DD	00H
	DD	00H
	DD	imagerel ?catch$8@?0??put@?$basic_ostream@_WU?$char_traits@_W@std@@@std@@QEAAAEAV12@_W@Z@4HA
	DD	038H
xdata	ENDS
;	COMDAT xdata
xdata	SEGMENT
$tryMap$?put@?$basic_ostream@_WU?$char_traits@_W@std@@@std@@QEAAAEAV12@_W@Z DD 02H
	DD	02H
	DD	03H
	DD	01H
	DD	imagerel $handlerMap$0$?put@?$basic_ostream@_WU?$char_traits@_W@std@@@std@@QEAAAEAV12@_W@Z
xdata	ENDS
;	COMDAT xdata
xdata	SEGMENT
$stateUnwindMap$?put@?$basic_ostream@_WU?$char_traits@_W@std@@@std@@QEAAAEAV12@_W@Z DD 0ffffffffH
	DD	imagerel ?dtor$1@?0??put@?$basic_ostream@_WU?$char_traits@_W@std@@@std@@QEAAAEAV12@_W@Z@4HA
	DD	0ffffffffH
	DD	imagerel ?dtor$0@?0??put@?$basic_ostream@_WU?$char_traits@_W@std@@@std@@QEAAAEAV12@_W@Z@4HA
	DD	01H
	DD	00H
	DD	01H
	DD	00H
	DD	0ffffffffH
	DD	imagerel __std_terminate
	DD	04H
	DD	imagerel __std_terminate
xdata	ENDS
;	COMDAT CONST
CONST	SEGMENT
$cppxdata$?put@?$basic_ostream@_WU?$char_traits@_W@std@@@std@@QEAAAEAV12@_W@Z DD 019930522H
	DD	06H
	DD	imagerel $stateUnwindMap$?put@?$basic_ostream@_WU?$char_traits@_W@std@@@std@@QEAAAEAV12@_W@Z
	DD	01H
	DD	imagerel $tryMap$?put@?$basic_ostream@_WU?$char_traits@_W@std@@@std@@QEAAAEAV12@_W@Z
	DD	0dH
	DD	imagerel $ip2state$?put@?$basic_ostream@_WU?$char_traits@_W@std@@@std@@QEAAAEAV12@_W@Z
	DD	030H
	DD	00H
	DD	01H
CONST	ENDS
;	COMDAT xdata
xdata	SEGMENT
$unwind$?put@?$basic_ostream@_WU?$char_traits@_W@std@@@std@@QEAAAEAV12@_W@Z DD 072019H
	DD	01d6420H
	DD	01b341cH
	DD	018010fH
	DD	07008H
	DD	imagerel __CxxFrameHandler3
	DD	imagerel $cppxdata$?put@?$basic_ostream@_WU?$char_traits@_W@std@@@std@@QEAAAEAV12@_W@Z
xdata	ENDS
;	COMDAT xdata
xdata	SEGMENT
$ip2state$?widen@?$basic_ios@_WU?$char_traits@_W@std@@@std@@QEBA_WD@Z DD imagerel ?widen@?$basic_ios@_WU?$char_traits@_W@std@@@std@@QEBA_WD@Z
	DD	0ffffffffH
	DD	imagerel ?widen@?$basic_ios@_WU?$char_traits@_W@std@@@std@@QEBA_WD@Z+34
	DD	00H
	DD	imagerel ?widen@?$basic_ios@_WU?$char_traits@_W@std@@@std@@QEBA_WD@Z+45
	DD	01H
	DD	imagerel ?widen@?$basic_ios@_WU?$char_traits@_W@std@@@std@@QEBA_WD@Z+81
	DD	0ffffffffH
xdata	ENDS
;	COMDAT xdata
xdata	SEGMENT
$stateUnwindMap$?widen@?$basic_ios@_WU?$char_traits@_W@std@@@std@@QEBA_WD@Z DD 0ffffffffH
	DD	imagerel ?dtor$0@?0??widen@?$basic_ios@_WU?$char_traits@_W@std@@@std@@QEBA_WD@Z@4HA
	DD	0ffffffffH
	DD	imagerel __std_terminate
xdata	ENDS
;	COMDAT CONST
CONST	SEGMENT
$cppxdata$?widen@?$basic_ios@_WU?$char_traits@_W@std@@@std@@QEBA_WD@Z DD 019930522H
	DD	02H
	DD	imagerel $stateUnwindMap$?widen@?$basic_ios@_WU?$char_traits@_W@std@@@std@@QEBA_WD@Z
	DD	00H
	DD	00H
	DD	04H
	DD	imagerel $ip2state$?widen@?$basic_ios@_WU?$char_traits@_W@std@@@std@@QEBA_WD@Z
	DD	030H
	DD	00H
	DD	01H
CONST	ENDS
;	COMDAT xdata
xdata	SEGMENT
$unwind$?widen@?$basic_ios@_WU?$char_traits@_W@std@@@std@@QEBA_WD@Z DD 041411H
	DD	0c3414H
	DD	070029206H
	DD	imagerel __CxxFrameHandler3
	DD	imagerel $cppxdata$?widen@?$basic_ios@_WU?$char_traits@_W@std@@@std@@QEBA_WD@Z
xdata	ENDS
;	COMDAT xdata
xdata	SEGMENT
$ip2state$?flush@?$basic_ostream@DU?$char_traits@D@std@@@std@@QEAAAEAV12@XZ DD imagerel ?flush@?$basic_ostream@DU?$char_traits@D@std@@@std@@QEAAAEAV12@XZ
	DD	0ffffffffH
	DD	imagerel ?flush@?$basic_ostream@DU?$char_traits@D@std@@@std@@QEAAAEAV12@XZ+51
	DD	00H
	DD	imagerel ?flush@?$basic_ostream@DU?$char_traits@D@std@@@std@@QEAAAEAV12@XZ+281
	DD	01H
	DD	imagerel ?flush@?$basic_ostream@DU?$char_traits@D@std@@@std@@QEAAAEAV12@XZ+301
	DD	02H
	DD	imagerel ?flush@?$basic_ostream@DU?$char_traits@D@std@@@std@@QEAAAEAV12@XZ+330
	DD	0ffffffffH
xdata	ENDS
;	COMDAT xdata
xdata	SEGMENT
$stateUnwindMap$?flush@?$basic_ostream@DU?$char_traits@D@std@@@std@@QEAAAEAV12@XZ DD 0ffffffffH
	DD	imagerel ?dtor$0@?0??flush@?$basic_ostream@DU?$char_traits@D@std@@@std@@QEAAAEAV12@XZ@4HA
	DD	0ffffffffH
	DD	imagerel __std_terminate
	DD	01H
	DD	imagerel __std_terminate
xdata	ENDS
;	COMDAT CONST
CONST	SEGMENT
$cppxdata$?flush@?$basic_ostream@DU?$char_traits@D@std@@@std@@QEAAAEAV12@XZ DD 019930522H
	DD	03H
	DD	imagerel $stateUnwindMap$?flush@?$basic_ostream@DU?$char_traits@D@std@@@std@@QEAAAEAV12@XZ
	DD	00H
	DD	00H
	DD	05H
	DD	imagerel $ip2state$?flush@?$basic_ostream@DU?$char_traits@D@std@@@std@@QEAAAEAV12@XZ
	DD	020H
	DD	00H
	DD	01H
CONST	ENDS
;	COMDAT xdata
xdata	SEGMENT
$unwind$?flush@?$basic_ostream@DU?$char_traits@D@std@@@std@@QEAAAEAV12@XZ DD 020f11H
	DD	03002d206H
	DD	imagerel __CxxFrameHandler3
	DD	imagerel $cppxdata$?flush@?$basic_ostream@DU?$char_traits@D@std@@@std@@QEAAAEAV12@XZ
xdata	ENDS
;	COMDAT xdata
xdata	SEGMENT
$unwind$?catch$8@?0??put@?$basic_ostream@DU?$char_traits@D@std@@@std@@QEAAAEAV12@D@Z@4HA DD 020a19H
	DD	05006320aH
	DD	imagerel __CxxFrameHandler3
	DD	imagerel $cppxdata$?put@?$basic_ostream@DU?$char_traits@D@std@@@std@@QEAAAEAV12@D@Z
xdata	ENDS
;	COMDAT xdata
xdata	SEGMENT
$ip2state$?put@?$basic_ostream@DU?$char_traits@D@std@@@std@@QEAAAEAV12@D@Z DD imagerel ?put@?$basic_ostream@DU?$char_traits@D@std@@@std@@QEAAAEAV12@D@Z
	DD	0ffffffffH
	DD	imagerel ?put@?$basic_ostream@DU?$char_traits@D@std@@@std@@QEAAAEAV12@D@Z+76
	DD	00H
	DD	imagerel ?put@?$basic_ostream@DU?$char_traits@D@std@@@std@@QEAAAEAV12@D@Z+129
	DD	01H
	DD	imagerel ?put@?$basic_ostream@DU?$char_traits@D@std@@@std@@QEAAAEAV12@D@Z+140
	DD	02H
	DD	imagerel ?put@?$basic_ostream@DU?$char_traits@D@std@@@std@@QEAAAEAV12@D@Z+222
	DD	01H
	DD	imagerel ?put@?$basic_ostream@DU?$char_traits@D@std@@@std@@QEAAAEAV12@D@Z+445
	DD	04H
	DD	imagerel ?put@?$basic_ostream@DU?$char_traits@D@std@@@std@@QEAAAEAV12@D@Z+463
	DD	05H
	DD	imagerel ?put@?$basic_ostream@DU?$char_traits@D@std@@@std@@QEAAAEAV12@D@Z+487
	DD	0ffffffffH
	DD	imagerel ?catch$8@?0??put@?$basic_ostream@DU?$char_traits@D@std@@@std@@QEAAAEAV12@D@Z@4HA
	DD	00H
	DD	imagerel ?catch$8@?0??put@?$basic_ostream@DU?$char_traits@D@std@@@std@@QEAAAEAV12@D@Z@4HA+13
	DD	03H
	DD	imagerel ?catch$8@?0??put@?$basic_ostream@DU?$char_traits@D@std@@@std@@QEAAAEAV12@D@Z@4HA+57
	DD	00H
	DD	imagerel ?catch$8@?0??put@?$basic_ostream@DU?$char_traits@D@std@@@std@@QEAAAEAV12@D@Z@4HA+66
	DD	03H
	DD	imagerel ?catch$8@?0??put@?$basic_ostream@DU?$char_traits@D@std@@@std@@QEAAAEAV12@D@Z@4HA+76
	DD	00H
xdata	ENDS
;	COMDAT xdata
xdata	SEGMENT
$handlerMap$0$?put@?$basic_ostream@DU?$char_traits@D@std@@@std@@QEAAAEAV12@D@Z DD 040H
	DD	00H
	DD	00H
	DD	imagerel ?catch$8@?0??put@?$basic_ostream@DU?$char_traits@D@std@@@std@@QEAAAEAV12@D@Z@4HA
	DD	038H
xdata	ENDS
;	COMDAT xdata
xdata	SEGMENT
$tryMap$?put@?$basic_ostream@DU?$char_traits@D@std@@@std@@QEAAAEAV12@D@Z DD 02H
	DD	02H
	DD	03H
	DD	01H
	DD	imagerel $handlerMap$0$?put@?$basic_ostream@DU?$char_traits@D@std@@@std@@QEAAAEAV12@D@Z
xdata	ENDS
;	COMDAT xdata
xdata	SEGMENT
$stateUnwindMap$?put@?$basic_ostream@DU?$char_traits@D@std@@@std@@QEAAAEAV12@D@Z DD 0ffffffffH
	DD	imagerel ?dtor$1@?0??put@?$basic_ostream@DU?$char_traits@D@std@@@std@@QEAAAEAV12@D@Z@4HA
	DD	0ffffffffH
	DD	imagerel ?dtor$0@?0??put@?$basic_ostream@DU?$char_traits@D@std@@@std@@QEAAAEAV12@D@Z@4HA
	DD	01H
	DD	00H
	DD	01H
	DD	00H
	DD	0ffffffffH
	DD	imagerel __std_terminate
	DD	04H
	DD	imagerel __std_terminate
xdata	ENDS
;	COMDAT CONST
CONST	SEGMENT
$cppxdata$?put@?$basic_ostream@DU?$char_traits@D@std@@@std@@QEAAAEAV12@D@Z DD 019930522H
	DD	06H
	DD	imagerel $stateUnwindMap$?put@?$basic_ostream@DU?$char_traits@D@std@@@std@@QEAAAEAV12@D@Z
	DD	01H
	DD	imagerel $tryMap$?put@?$basic_ostream@DU?$char_traits@D@std@@@std@@QEAAAEAV12@D@Z
	DD	0dH
	DD	imagerel $ip2state$?put@?$basic_ostream@DU?$char_traits@D@std@@@std@@QEAAAEAV12@D@Z
	DD	030H
	DD	00H
	DD	01H
CONST	ENDS
;	COMDAT xdata
xdata	SEGMENT
$unwind$?put@?$basic_ostream@DU?$char_traits@D@std@@@std@@QEAAAEAV12@D@Z DD 072019H
	DD	01d6420H
	DD	01b341cH
	DD	018010fH
	DD	07008H
	DD	imagerel __CxxFrameHandler3
	DD	imagerel $cppxdata$?put@?$basic_ostream@DU?$char_traits@D@std@@@std@@QEAAAEAV12@D@Z
xdata	ENDS
;	COMDAT xdata
xdata	SEGMENT
$ip2state$?widen@?$basic_ios@DU?$char_traits@D@std@@@std@@QEBADD@Z DD imagerel ?widen@?$basic_ios@DU?$char_traits@D@std@@@std@@QEBADD@Z
	DD	0ffffffffH
	DD	imagerel ?widen@?$basic_ios@DU?$char_traits@D@std@@@std@@QEBADD@Z+34
	DD	00H
	DD	imagerel ?widen@?$basic_ios@DU?$char_traits@D@std@@@std@@QEBADD@Z+45
	DD	01H
	DD	imagerel ?widen@?$basic_ios@DU?$char_traits@D@std@@@std@@QEBADD@Z+81
	DD	0ffffffffH
xdata	ENDS
;	COMDAT xdata
xdata	SEGMENT
$stateUnwindMap$?widen@?$basic_ios@DU?$char_traits@D@std@@@std@@QEBADD@Z DD 0ffffffffH
	DD	imagerel ?dtor$0@?0??widen@?$basic_ios@DU?$char_traits@D@std@@@std@@QEBADD@Z@4HA
	DD	0ffffffffH
	DD	imagerel __std_terminate
xdata	ENDS
;	COMDAT CONST
CONST	SEGMENT
$cppxdata$?widen@?$basic_ios@DU?$char_traits@D@std@@@std@@QEBADD@Z DD 019930522H
	DD	02H
	DD	imagerel $stateUnwindMap$?widen@?$basic_ios@DU?$char_traits@D@std@@@std@@QEBADD@Z
	DD	00H
	DD	00H
	DD	04H
	DD	imagerel $ip2state$?widen@?$basic_ios@DU?$char_traits@D@std@@@std@@QEBADD@Z
	DD	020H
	DD	00H
	DD	01H
CONST	ENDS
;	COMDAT xdata
xdata	SEGMENT
$unwind$?widen@?$basic_ios@DU?$char_traits@D@std@@@std@@QEBADD@Z DD 041411H
	DD	0a3414H
	DD	070027206H
	DD	imagerel __CxxFrameHandler3
	DD	imagerel $cppxdata$?widen@?$basic_ios@DU?$char_traits@D@std@@@std@@QEBADD@Z
xdata	ENDS
;	COMDAT xdata
xdata	SEGMENT
$ip2state$??1_Sentry_base@?$basic_ostream@_WU?$char_traits@_W@std@@@std@@QEAA@XZ DD imagerel ??1_Sentry_base@?$basic_ostream@_WU?$char_traits@_W@std@@@std@@QEAA@XZ
	DD	0ffffffffH
xdata	ENDS
;	COMDAT CONST
CONST	SEGMENT
$cppxdata$??1_Sentry_base@?$basic_ostream@_WU?$char_traits@_W@std@@@std@@QEAA@XZ DD 019930522H
	DD	00H
	DD	00H
	DD	00H
	DD	00H
	DD	01H
	DD	imagerel $ip2state$??1_Sentry_base@?$basic_ostream@_WU?$char_traits@_W@std@@@std@@QEAA@XZ
	DD	020H
	DD	00H
	DD	05H
CONST	ENDS
;	COMDAT xdata
xdata	SEGMENT
$unwind$??1_Sentry_base@?$basic_ostream@_WU?$char_traits@_W@std@@@std@@QEAA@XZ DD 010d19H
	DD	06204H
	DD	imagerel __CxxFrameHandler3
	DD	imagerel $cppxdata$??1_Sentry_base@?$basic_ostream@_WU?$char_traits@_W@std@@@std@@QEAA@XZ
xdata	ENDS
;	COMDAT xdata
xdata	SEGMENT
$unwind$??0_Sentry_base@?$basic_ostream@_WU?$char_traits@_W@std@@@std@@QEAA@AEAV12@@Z DD 020601H
	DD	030023206H
xdata	ENDS
;	COMDAT xdata
xdata	SEGMENT
$ip2state$??1_Sentry_base@?$basic_ostream@DU?$char_traits@D@std@@@std@@QEAA@XZ DD imagerel ??1_Sentry_base@?$basic_ostream@DU?$char_traits@D@std@@@std@@QEAA@XZ
	DD	0ffffffffH
xdata	ENDS
;	COMDAT CONST
CONST	SEGMENT
$cppxdata$??1_Sentry_base@?$basic_ostream@DU?$char_traits@D@std@@@std@@QEAA@XZ DD 019930522H
	DD	00H
	DD	00H
	DD	00H
	DD	00H
	DD	01H
	DD	imagerel $ip2state$??1_Sentry_base@?$basic_ostream@DU?$char_traits@D@std@@@std@@QEAA@XZ
	DD	020H
	DD	00H
	DD	05H
CONST	ENDS
;	COMDAT xdata
xdata	SEGMENT
$unwind$??1_Sentry_base@?$basic_ostream@DU?$char_traits@D@std@@@std@@QEAA@XZ DD 010d19H
	DD	06204H
	DD	imagerel __CxxFrameHandler3
	DD	imagerel $cppxdata$??1_Sentry_base@?$basic_ostream@DU?$char_traits@D@std@@@std@@QEAA@XZ
xdata	ENDS
;	COMDAT xdata
xdata	SEGMENT
$unwind$??0_Sentry_base@?$basic_ostream@DU?$char_traits@D@std@@@std@@QEAA@AEAV12@@Z DD 020601H
	DD	030023206H
xdata	ENDS
;	COMDAT xdata
xdata	SEGMENT
$chain$1$?insert@?$basic_string@DU?$char_traits@D@std@@V?$allocator@D@2@@std@@QEAAAEAV12@_KQEBD0@Z DD 021H
	DD	imagerel $LN190
	DD	imagerel $LN190+122
	DD	imagerel $unwind$?insert@?$basic_string@DU?$char_traits@D@std@@V?$allocator@D@2@@std@@QEAAAEAV12@_KQEBD0@Z
xdata	ENDS
;	COMDAT xdata
xdata	SEGMENT
$chain$0$?insert@?$basic_string@DU?$char_traits@D@std@@V?$allocator@D@2@@std@@QEAAAEAV12@_KQEBD0@Z DD 020521H
	DD	087405H
	DD	imagerel $LN190
	DD	imagerel $LN190+122
	DD	imagerel $unwind$?insert@?$basic_string@DU?$char_traits@D@std@@V?$allocator@D@2@@std@@QEAAAEAV12@_KQEBD0@Z
xdata	ENDS
;	COMDAT xdata
xdata	SEGMENT
$unwind$?insert@?$basic_string@DU?$char_traits@D@std@@V?$allocator@D@2@@std@@QEAAAEAV12@_KQEBD0@Z DD 060f01H
	DD	0a540fH
	DD	09340fH
	DD	0600b520fH
xdata	ENDS
;	COMDAT xdata
xdata	SEGMENT
$chain$4$?insert@?$basic_string@DU?$char_traits@D@std@@V?$allocator@D@2@@std@@QEAAAEAV12@_KAEBV12@0_K@Z DD 020021H
	DD	065400H
	DD	imagerel $LN239
	DD	imagerel $LN239+45
	DD	imagerel $unwind$?insert@?$basic_string@DU?$char_traits@D@std@@V?$allocator@D@2@@std@@QEAAAEAV12@_KAEBV12@0_K@Z
xdata	ENDS
;	COMDAT xdata
xdata	SEGMENT
$chain$3$?insert@?$basic_string@DU?$char_traits@D@std@@V?$allocator@D@2@@std@@QEAAAEAV12@_KAEBV12@0_K@Z DD 021H
	DD	imagerel $LN239
	DD	imagerel $LN239+45
	DD	imagerel $unwind$?insert@?$basic_string@DU?$char_traits@D@std@@V?$allocator@D@2@@std@@QEAAAEAV12@_KAEBV12@0_K@Z
xdata	ENDS
;	COMDAT xdata
xdata	SEGMENT
$chain$1$?insert@?$basic_string@DU?$char_traits@D@std@@V?$allocator@D@2@@std@@QEAAAEAV12@_KAEBV12@0_K@Z DD 020521H
	DD	077405H
	DD	imagerel $LN239+45
	DD	imagerel $LN239+77
	DD	imagerel $chain$0$?insert@?$basic_string@DU?$char_traits@D@std@@V?$allocator@D@2@@std@@QEAAAEAV12@_KAEBV12@0_K@Z
xdata	ENDS
;	COMDAT xdata
xdata	SEGMENT
$chain$0$?insert@?$basic_string@DU?$char_traits@D@std@@V?$allocator@D@2@@std@@QEAAAEAV12@_KAEBV12@0_K@Z DD 020521H
	DD	065405H
	DD	imagerel $LN239
	DD	imagerel $LN239+45
	DD	imagerel $unwind$?insert@?$basic_string@DU?$char_traits@D@std@@V?$allocator@D@2@@std@@QEAAAEAV12@_KAEBV12@0_K@Z
xdata	ENDS
;	COMDAT xdata
xdata	SEGMENT
$unwind$?insert@?$basic_string@DU?$char_traits@D@std@@V?$allocator@D@2@@std@@QEAAAEAV12@_KAEBV12@0_K@Z DD 061001H
	DD	096410H
	DD	083410H
	DD	0e00c3210H
xdata	ENDS
;	COMDAT xdata
xdata	SEGMENT
$unwind$?catch$0@?0??_Osfx@?$basic_ostream@_WU?$char_traits@_W@std@@@std@@QEAAXXZ@4HA DD 020a19H
	DD	05006320aH
	DD	imagerel __CxxFrameHandler3
	DD	imagerel $cppxdata$?_Osfx@?$basic_ostream@_WU?$char_traits@_W@std@@@std@@QEAAXXZ
xdata	ENDS
;	COMDAT xdata
xdata	SEGMENT
$ip2state$?_Osfx@?$basic_ostream@_WU?$char_traits@_W@std@@@std@@QEAAXXZ DD imagerel ?_Osfx@?$basic_ostream@_WU?$char_traits@_W@std@@@std@@QEAAXXZ
	DD	0ffffffffH
	DD	imagerel ?_Osfx@?$basic_ostream@_WU?$char_traits@_W@std@@@std@@QEAAXXZ+21
	DD	00H
	DD	imagerel ?_Osfx@?$basic_ostream@_WU?$char_traits@_W@std@@@std@@QEAAXXZ+266
	DD	0ffffffffH
	DD	imagerel ?catch$0@?0??_Osfx@?$basic_ostream@_WU?$char_traits@_W@std@@@std@@QEAAXXZ@4HA
	DD	00H
xdata	ENDS
;	COMDAT xdata
xdata	SEGMENT
$handlerMap$0$?_Osfx@?$basic_ostream@_WU?$char_traits@_W@std@@@std@@QEAAXXZ DD 040H
	DD	00H
	DD	00H
	DD	imagerel ?catch$0@?0??_Osfx@?$basic_ostream@_WU?$char_traits@_W@std@@@std@@QEAAXXZ@4HA
	DD	038H
xdata	ENDS
;	COMDAT xdata
xdata	SEGMENT
$tryMap$?_Osfx@?$basic_ostream@_WU?$char_traits@_W@std@@@std@@QEAAXXZ DD 00H
	DD	00H
	DD	01H
	DD	01H
	DD	imagerel $handlerMap$0$?_Osfx@?$basic_ostream@_WU?$char_traits@_W@std@@@std@@QEAAXXZ
xdata	ENDS
;	COMDAT xdata
xdata	SEGMENT
$stateUnwindMap$?_Osfx@?$basic_ostream@_WU?$char_traits@_W@std@@@std@@QEAAXXZ DD 0ffffffffH
	DD	00H
	DD	0ffffffffH
	DD	00H
xdata	ENDS
;	COMDAT CONST
CONST	SEGMENT
$cppxdata$?_Osfx@?$basic_ostream@_WU?$char_traits@_W@std@@@std@@QEAAXXZ DD 019930522H
	DD	02H
	DD	imagerel $stateUnwindMap$?_Osfx@?$basic_ostream@_WU?$char_traits@_W@std@@@std@@QEAAXXZ
	DD	01H
	DD	imagerel $tryMap$?_Osfx@?$basic_ostream@_WU?$char_traits@_W@std@@@std@@QEAAXXZ
	DD	04H
	DD	imagerel $ip2state$?_Osfx@?$basic_ostream@_WU?$char_traits@_W@std@@@std@@QEAAXXZ
	DD	030H
	DD	00H
	DD	01H
CONST	ENDS
;	COMDAT xdata
xdata	SEGMENT
$unwind$?_Osfx@?$basic_ostream@_WU?$char_traits@_W@std@@@std@@QEAAXXZ DD 031219H
	DD	0160109H
	DD	03002H
	DD	imagerel __CxxFrameHandler3
	DD	imagerel $cppxdata$?_Osfx@?$basic_ostream@_WU?$char_traits@_W@std@@@std@@QEAAXXZ
xdata	ENDS
;	COMDAT xdata
xdata	SEGMENT
$unwind$?catch$0@?0??_Osfx@?$basic_ostream@DU?$char_traits@D@std@@@std@@QEAAXXZ@4HA DD 020a19H
	DD	05006320aH
	DD	imagerel __CxxFrameHandler3
	DD	imagerel $cppxdata$?_Osfx@?$basic_ostream@DU?$char_traits@D@std@@@std@@QEAAXXZ
xdata	ENDS
;	COMDAT xdata
xdata	SEGMENT
$ip2state$?_Osfx@?$basic_ostream@DU?$char_traits@D@std@@@std@@QEAAXXZ DD imagerel ?_Osfx@?$basic_ostream@DU?$char_traits@D@std@@@std@@QEAAXXZ
	DD	0ffffffffH
	DD	imagerel ?_Osfx@?$basic_ostream@DU?$char_traits@D@std@@@std@@QEAAXXZ+21
	DD	00H
	DD	imagerel ?_Osfx@?$basic_ostream@DU?$char_traits@D@std@@@std@@QEAAXXZ+266
	DD	0ffffffffH
	DD	imagerel ?catch$0@?0??_Osfx@?$basic_ostream@DU?$char_traits@D@std@@@std@@QEAAXXZ@4HA
	DD	00H
xdata	ENDS
;	COMDAT xdata
xdata	SEGMENT
$handlerMap$0$?_Osfx@?$basic_ostream@DU?$char_traits@D@std@@@std@@QEAAXXZ DD 040H
	DD	00H
	DD	00H
	DD	imagerel ?catch$0@?0??_Osfx@?$basic_ostream@DU?$char_traits@D@std@@@std@@QEAAXXZ@4HA
	DD	038H
xdata	ENDS
;	COMDAT xdata
xdata	SEGMENT
$tryMap$?_Osfx@?$basic_ostream@DU?$char_traits@D@std@@@std@@QEAAXXZ DD 00H
	DD	00H
	DD	01H
	DD	01H
	DD	imagerel $handlerMap$0$?_Osfx@?$basic_ostream@DU?$char_traits@D@std@@@std@@QEAAXXZ
xdata	ENDS
;	COMDAT xdata
xdata	SEGMENT
$stateUnwindMap$?_Osfx@?$basic_ostream@DU?$char_traits@D@std@@@std@@QEAAXXZ DD 0ffffffffH
	DD	00H
	DD	0ffffffffH
	DD	00H
xdata	ENDS
;	COMDAT CONST
CONST	SEGMENT
$cppxdata$?_Osfx@?$basic_ostream@DU?$char_traits@D@std@@@std@@QEAAXXZ DD 019930522H
	DD	02H
	DD	imagerel $stateUnwindMap$?_Osfx@?$basic_ostream@DU?$char_traits@D@std@@@std@@QEAAXXZ
	DD	01H
	DD	imagerel $tryMap$?_Osfx@?$basic_ostream@DU?$char_traits@D@std@@@std@@QEAAXXZ
	DD	04H
	DD	imagerel $ip2state$?_Osfx@?$basic_ostream@DU?$char_traits@D@std@@@std@@QEAAXXZ
	DD	030H
	DD	00H
	DD	01H
CONST	ENDS
;	COMDAT xdata
