; Listing generated by Microsoft (R) Optimizing Compiler Version 19.10.24629.0 

include listing.inc


PUBLIC	??_C@_0BC@EOODALEL@Unknown?5exception?$AA@	; `string'
PUBLIC	??_C@_08EPJLHIJG@bad?5cast?$AA@			; `string'
PUBLIC	??_C@_0BA@ELKIONDK@bad?5locale?5name?$AA@	; `string'
PUBLIC	??_C@_00CNPNBAHC@?$AA@				; `string'
PUBLIC	??_C@_02LMMGGCAJ@?3?5?$AA@			; `string'
PUBLIC	??_C@_07DCLBNMLN@generic?$AA@			; `string'
PUBLIC	??_C@_08LLGCOLLL@iostream?$AA@			; `string'
PUBLIC	??_C@_0BG@PADBLCHM@iostream?5stream?5error?$AA@	; `string'
PUBLIC	??_C@_0BF@PHHKMMFD@ios_base?3?3badbit?5set?$AA@	; `string'
PUBLIC	??_C@_0BG@FMKFHCIL@ios_base?3?3failbit?5set?$AA@ ; `string'
PUBLIC	??_C@_0BF@OOHOMBOF@ios_base?3?3eofbit?5set?$AA@	; `string'
PUBLIC	??_C@_0BA@JFNIOLAK@string?5too?5long?$AA@	; `string'
PUBLIC	??_C@_0BI@CFPLBAOH@invalid?5string?5position?$AA@ ; `string'
PUBLIC	??_C@_0BD@OLBABOEK@vector?$DMT?$DO?5too?5long?$AA@ ; `string'
PUBLIC	??_R0?AVfailure@ios_base@std@@@8		; std::ios_base::failure `RTTI Type Descriptor'
PUBLIC	??_R0?AVruntime_error@std@@@8			; std::runtime_error `RTTI Type Descriptor'
PUBLIC	??_R4exception@std@@6B@				; std::exception::`RTTI Complete Object Locator'
PUBLIC	??_R2system_error@std@@8			; std::system_error::`RTTI Base Class Array'
PUBLIC	??_R4facet@locale@std@@6B@			; std::locale::facet::`RTTI Complete Object Locator'
PUBLIC	??_R1A@?0A@EA@system_error@std@@8		; std::system_error::`RTTI Base Class Descriptor at (0,-1,0,64)'
PUBLIC	??_R3?$ctype@D@std@@8				; std::ctype<char>::`RTTI Class Hierarchy Descriptor'
PUBLIC	??_R1A@?0A@EA@_Iostream_error_category@std@@8	; std::_Iostream_error_category::`RTTI Base Class Descriptor at (0,-1,0,64)'
PUBLIC	_CT??_R0?AVexception@std@@@824
PUBLIC	??_7error_category@std@@6B@			; std::error_category::`vftable'
PUBLIC	??_R4runtime_error@std@@6B@			; std::runtime_error::`RTTI Complete Object Locator'
PUBLIC	??_R4_System_error@std@@6B@			; std::_System_error::`RTTI Complete Object Locator'
PUBLIC	??_R3_Facet_base@std@@8				; std::_Facet_base::`RTTI Class Hierarchy Descriptor'
PUBLIC	??_R1A@?0A@EA@bad_cast@std@@8			; std::bad_cast::`RTTI Base Class Descriptor at (0,-1,0,64)'
PUBLIC	??_R4_Generic_error_category@std@@6B@		; std::_Generic_error_category::`RTTI Complete Object Locator'
PUBLIC	??_7_Generic_error_category@std@@6B@		; std::_Generic_error_category::`vftable'
PUBLIC	_CT??_R0?AVfailure@ios_base@std@@@840
PUBLIC	??_7_Iostream_error_category@std@@6B@		; std::_Iostream_error_category::`vftable'
PUBLIC	??_R0?AVerror_category@std@@@8			; std::error_category `RTTI Type Descriptor'
PUBLIC	??_R0?AV?$ctype@D@std@@@8			; std::ctype<char> `RTTI Type Descriptor'
PUBLIC	??_R3_Crt_new_delete@std@@8			; std::_Crt_new_delete::`RTTI Class Hierarchy Descriptor'
PUBLIC	??_R1A@?0A@EA@runtime_error@std@@8		; std::runtime_error::`RTTI Base Class Descriptor at (0,-1,0,64)'
PUBLIC	??_R2_System_error@std@@8			; std::_System_error::`RTTI Base Class Array'
PUBLIC	??_R0?AVsystem_error@std@@@8			; std::system_error `RTTI Type Descriptor'
PUBLIC	??_R1A@?0A@EA@exception@std@@8			; std::exception::`RTTI Base Class Descriptor at (0,-1,0,64)'
PUBLIC	??_R4_Iostream_error_category@std@@6B@		; std::_Iostream_error_category::`RTTI Complete Object Locator'
PUBLIC	??_R4system_error@std@@6B@			; std::system_error::`RTTI Complete Object Locator'
PUBLIC	??_R1A@?0A@EA@_Generic_error_category@std@@8	; std::_Generic_error_category::`RTTI Base Class Descriptor at (0,-1,0,64)'
PUBLIC	??_R1A@?0A@EA@_Facet_base@std@@8		; std::_Facet_base::`RTTI Base Class Descriptor at (0,-1,0,64)'
PUBLIC	??_R0?AV_Facet_base@std@@@8			; std::_Facet_base `RTTI Type Descriptor'
PUBLIC	??_7ctype_base@std@@6B@				; std::ctype_base::`vftable'
PUBLIC	??_R3_System_error@std@@8			; std::_System_error::`RTTI Class Hierarchy Descriptor'
PUBLIC	??_R0?AV_Generic_error_category@std@@@8		; std::_Generic_error_category `RTTI Type Descriptor'
PUBLIC	??_R3_Iostream_error_category@std@@8		; std::_Iostream_error_category::`RTTI Class Hierarchy Descriptor'
PUBLIC	??_R0?AU_Crt_new_delete@std@@@8			; std::_Crt_new_delete `RTTI Type Descriptor'
PUBLIC	??_R17?0A@EA@_Crt_new_delete@std@@8		; std::_Crt_new_delete::`RTTI Base Class Descriptor at (8,-1,0,64)'
PUBLIC	??_R2bad_cast@std@@8				; std::bad_cast::`RTTI Base Class Array'
PUBLIC	??_R2exception@std@@8				; std::exception::`RTTI Base Class Array'
PUBLIC	??_R4failure@ios_base@std@@6B@			; std::ios_base::failure::`RTTI Complete Object Locator'
PUBLIC	??_7bad_cast@std@@6B@				; std::bad_cast::`vftable'
PUBLIC	_TI2?AVruntime_error@std@@
PUBLIC	??_R3_Generic_error_category@std@@8		; std::_Generic_error_category::`RTTI Class Hierarchy Descriptor'
PUBLIC	??_R2_Iostream_error_category@std@@8		; std::_Iostream_error_category::`RTTI Base Class Array'
PUBLIC	_CT??_R0?AVruntime_error@std@@@824
PUBLIC	_CT??_R0?AVbad_cast@std@@@824
PUBLIC	??_R2error_category@std@@8			; std::error_category::`RTTI Base Class Array'
PUBLIC	??_R1A@?0A@EA@facet@locale@std@@8		; std::locale::facet::`RTTI Base Class Descriptor at (0,-1,0,64)'
PUBLIC	??_R0?AV_Iostream_error_category@std@@@8	; std::_Iostream_error_category `RTTI Type Descriptor'
PUBLIC	??_R0?AVbad_cast@std@@@8			; std::bad_cast `RTTI Type Descriptor'
PUBLIC	??_7?$ctype@D@std@@6B@				; std::ctype<char>::`vftable'
PUBLIC	_CTA2?AVbad_cast@std@@
PUBLIC	??_R2failure@ios_base@std@@8			; std::ios_base::failure::`RTTI Base Class Array'
PUBLIC	??_R4error_category@std@@6B@			; std::error_category::`RTTI Complete Object Locator'
PUBLIC	??_R0?AUctype_base@std@@@8			; std::ctype_base `RTTI Type Descriptor'
PUBLIC	??_R3failure@ios_base@std@@8			; std::ios_base::failure::`RTTI Class Hierarchy Descriptor'
PUBLIC	??_7facet@locale@std@@6B@			; std::locale::facet::`vftable'
PUBLIC	??_7exception@std@@6B@				; std::exception::`vftable'
PUBLIC	_CTA5?AVfailure@ios_base@std@@
PUBLIC	_TI2?AVbad_cast@std@@
PUBLIC	??_R2?$ctype@D@std@@8				; std::ctype<char>::`RTTI Base Class Array'
PUBLIC	??_R3exception@std@@8				; std::exception::`RTTI Class Hierarchy Descriptor'
PUBLIC	??_7runtime_error@std@@6B@			; std::runtime_error::`vftable'
PUBLIC	??_7_System_error@std@@6B@			; std::_System_error::`vftable'
PUBLIC	??_R1A@?0A@EA@failure@ios_base@std@@8		; std::ios_base::failure::`RTTI Base Class Descriptor at (0,-1,0,64)'
PUBLIC	??_R0?AVfacet@locale@std@@@8			; std::locale::facet `RTTI Type Descriptor'
PUBLIC	??_R3facet@locale@std@@8			; std::locale::facet::`RTTI Class Hierarchy Descriptor'
PUBLIC	??_R3ctype_base@std@@8				; std::ctype_base::`RTTI Class Hierarchy Descriptor'
PUBLIC	?npos@?$basic_string@DU?$char_traits@D@std@@V?$allocator@D@2@@std@@2_KB ; std::basic_string<char,std::char_traits<char>,std::allocator<char> >::npos
PUBLIC	?_Psave@?$_Facetptr@V?$ctype@D@std@@@std@@2PEBVfacet@locale@2@EB ; std::_Facetptr<std::ctype<char> >::_Psave
PUBLIC	??_R2_Generic_error_category@std@@8		; std::_Generic_error_category::`RTTI Base Class Array'
PUBLIC	??_R1A@?0A@EA@_System_error@std@@8		; std::_System_error::`RTTI Base Class Descriptor at (0,-1,0,64)'
PUBLIC	??_R3bad_cast@std@@8				; std::bad_cast::`RTTI Class Hierarchy Descriptor'
PUBLIC	??_R3error_category@std@@8			; std::error_category::`RTTI Class Hierarchy Descriptor'
PUBLIC	??_R4ctype_base@std@@6B@			; std::ctype_base::`RTTI Complete Object Locator'
PUBLIC	??_R4bad_cast@std@@6B@				; std::bad_cast::`RTTI Complete Object Locator'
PUBLIC	??_R1A@?0A@EA@_Crt_new_delete@std@@8		; std::_Crt_new_delete::`RTTI Base Class Descriptor at (0,-1,0,64)'
PUBLIC	??_R4_Facet_base@std@@6B@			; std::_Facet_base::`RTTI Complete Object Locator'
PUBLIC	_CTA2?AVruntime_error@std@@
PUBLIC	??_R2runtime_error@std@@8			; std::runtime_error::`RTTI Base Class Array'
PUBLIC	_CT??_R0?AV_System_error@std@@@840
PUBLIC	??_7_Facet_base@std@@6B@			; std::_Facet_base::`vftable'
PUBLIC	_CT??_R0?AVsystem_error@std@@@840
PUBLIC	??_R1A@?0A@EA@ctype_base@std@@8			; std::ctype_base::`RTTI Base Class Descriptor at (0,-1,0,64)'
PUBLIC	??_R0?AV_System_error@std@@@8			; std::_System_error `RTTI Type Descriptor'
PUBLIC	??_R2_Crt_new_delete@std@@8			; std::_Crt_new_delete::`RTTI Base Class Array'
PUBLIC	??_R1A@?0A@EA@?$ctype@D@std@@8			; std::ctype<char>::`RTTI Base Class Descriptor at (0,-1,0,64)'
PUBLIC	_TI5?AVfailure@ios_base@std@@
PUBLIC	??_R3system_error@std@@8			; std::system_error::`RTTI Class Hierarchy Descriptor'
PUBLIC	??_R2_Facet_base@std@@8				; std::_Facet_base::`RTTI Base Class Array'
PUBLIC	??_R2facet@locale@std@@8			; std::locale::facet::`RTTI Base Class Array'
PUBLIC	??_R0?AVexception@std@@@8			; std::exception `RTTI Type Descriptor'
PUBLIC	??_R4?$ctype@D@std@@6B@				; std::ctype<char>::`RTTI Complete Object Locator'
PUBLIC	??_7system_error@std@@6B@			; std::system_error::`vftable'
PUBLIC	??_R3runtime_error@std@@8			; std::runtime_error::`RTTI Class Hierarchy Descriptor'
PUBLIC	??_R2ctype_base@std@@8				; std::ctype_base::`RTTI Base Class Array'
PUBLIC	??_7failure@ios_base@std@@6B@			; std::ios_base::failure::`vftable'
PUBLIC	??_R1A@?0A@EA@error_category@std@@8		; std::error_category::`RTTI Base Class Descriptor at (0,-1,0,64)'
EXTRN	_invalid_parameter_noinfo_noreturn:PROC
EXTRN	??_7type_info@@6B@:BYTE				; type_info::`vftable'
EXTRN	__std_terminate:PROC
EXTRN	free:PROC
EXTRN	_time64:PROC
EXTRN	_Toupper:PROC
EXTRN	_Init_thread_abort:PROC
EXTRN	_Init_thread_header:PROC
EXTRN	_purecall:PROC
EXTRN	_Tolower:PROC
EXTRN	??3@YAXPEAX_K@Z:PROC				; operator delete
EXTRN	??3@YAXPEAX@Z:PROC				; operator delete
EXTRN	_Getctype:PROC
EXTRN	atexit:PROC
EXTRN	rand:PROC
EXTRN	__std_exception_copy:PROC
EXTRN	_Init_thread_footer:PROC
EXTRN	?_Syserror_map@std@@YAPEBDH@Z:PROC		; std::_Syserror_map
EXTRN	?_Xlength_error@std@@YAXPEBD@Z:PROC		; std::_Xlength_error
EXTRN	?id@?$ctype@D@std@@2V0locale@2@A:QWORD		; std::ctype<char>::id
EXTRN	?_Facet_Register@std@@YAXPEAV_Facet_base@1@@Z:PROC ; std::_Facet_Register
EXTRN	?_Xout_of_range@std@@YAXPEBD@Z:PROC		; std::_Xout_of_range
EXTRN	?_Id_cnt@id@locale@std@@0HA:DWORD		; std::locale::id::_Id_cnt
EXTRN	?_Locinfo_ctor@_Locinfo@std@@SAXPEAV12@PEBD@Z:PROC ; std::_Locinfo::_Locinfo_ctor
EXTRN	?_Locinfo_dtor@_Locinfo@std@@SAXPEAV12@@Z:PROC	; std::_Locinfo::_Locinfo_dtor
EXTRN	?_Xbad_alloc@std@@YAXXZ:PROC			; std::_Xbad_alloc
EXTRN	?uncaught_exception@std@@YA_NXZ:PROC		; std::uncaught_exception
EXTRN	?_Getgloballocale@locale@std@@CAPEAV_Locimp@12@XZ:PROC ; std::locale::_Getgloballocale
EXTRN	?cout@std@@3V?$basic_ostream@DU?$char_traits@D@std@@@1@A:BYTE ; std::cout
EXTRN	??0_Lockit@std@@QEAA@H@Z:PROC			; std::_Lockit::_Lockit
EXTRN	??1_Lockit@std@@QEAA@XZ:PROC			; std::_Lockit::~_Lockit
EXTRN	??2@YAPEAX_K@Z:PROC				; operator new
EXTRN	srand:PROC
EXTRN	_Init_thread_epoch:DWORD
EXTRN	memmove:PROC
EXTRN	??_V@YAXPEAX@Z:PROC				; operator delete[]
EXTRN	__std_exception_destroy:PROC
EXTRN	__security_check_cookie:PROC
EXTRN	__CxxFrameHandler3:PROC
;	COMDAT ?_Psave@?$_Facetptr@V?$ctype@D@std@@@std@@2PEBVfacet@locale@2@EB
_BSS	SEGMENT
?_Psave@?$_Facetptr@V?$ctype@D@std@@@std@@2PEBVfacet@locale@2@EB DQ 01H DUP (?) ; std::_Facetptr<std::ctype<char> >::_Psave
_BSS	ENDS
;	COMDAT ??_R1A@?0A@EA@error_category@std@@8
rdata$r	SEGMENT
??_R1A@?0A@EA@error_category@std@@8 DD imagerel ??_R0?AVerror_category@std@@@8 ; std::error_category::`RTTI Base Class Descriptor at (0,-1,0,64)'
	DD	00H
	DD	00H
	DD	0ffffffffH
	DD	00H
	DD	040H
	DD	imagerel ??_R3error_category@std@@8
rdata$r	ENDS
;	COMDAT ??_7failure@ios_base@std@@6B@
CONST	SEGMENT
??_7failure@ios_base@std@@6B@ DQ FLAT:??_R4failure@ios_base@std@@6B@ ; std::ios_base::failure::`vftable'
	DQ	FLAT:??_Efailure@ios_base@std@@UEAAPEAXI@Z
	DQ	FLAT:?what@exception@std@@UEBAPEBDXZ
CONST	ENDS
;	COMDAT ??_R2ctype_base@std@@8
rdata$r	SEGMENT
??_R2ctype_base@std@@8 DD imagerel ??_R1A@?0A@EA@ctype_base@std@@8 ; std::ctype_base::`RTTI Base Class Array'
	DD	imagerel ??_R1A@?0A@EA@facet@locale@std@@8
	DD	imagerel ??_R1A@?0A@EA@_Facet_base@std@@8
	DD	imagerel ??_R17?0A@EA@_Crt_new_delete@std@@8
	ORG $+3
rdata$r	ENDS
;	COMDAT ??_R3runtime_error@std@@8
rdata$r	SEGMENT
??_R3runtime_error@std@@8 DD 00H			; std::runtime_error::`RTTI Class Hierarchy Descriptor'
	DD	00H
	DD	02H
	DD	imagerel ??_R2runtime_error@std@@8
rdata$r	ENDS
;	COMDAT ??_7system_error@std@@6B@
CONST	SEGMENT
??_7system_error@std@@6B@ DQ FLAT:??_R4system_error@std@@6B@ ; std::system_error::`vftable'
	DQ	FLAT:??_Esystem_error@std@@UEAAPEAXI@Z
	DQ	FLAT:?what@exception@std@@UEBAPEBDXZ
CONST	ENDS
;	COMDAT ??_R4?$ctype@D@std@@6B@
rdata$r	SEGMENT
??_R4?$ctype@D@std@@6B@ DD 01H				; std::ctype<char>::`RTTI Complete Object Locator'
	DD	00H
	DD	00H
	DD	imagerel ??_R0?AV?$ctype@D@std@@@8
	DD	imagerel ??_R3?$ctype@D@std@@8
	DD	imagerel ??_R4?$ctype@D@std@@6B@
rdata$r	ENDS
;	COMDAT ??_R0?AVexception@std@@@8
data$r	SEGMENT
??_R0?AVexception@std@@@8 DQ FLAT:??_7type_info@@6B@	; std::exception `RTTI Type Descriptor'
	DQ	0000000000000000H
	DB	'.?AVexception@std@@', 00H
data$r	ENDS
;	COMDAT ??_R2facet@locale@std@@8
rdata$r	SEGMENT
??_R2facet@locale@std@@8 DD imagerel ??_R1A@?0A@EA@facet@locale@std@@8 ; std::locale::facet::`RTTI Base Class Array'
	DD	imagerel ??_R1A@?0A@EA@_Facet_base@std@@8
	DD	imagerel ??_R17?0A@EA@_Crt_new_delete@std@@8
	ORG $+3
rdata$r	ENDS
;	COMDAT ??_R2_Facet_base@std@@8
rdata$r	SEGMENT
??_R2_Facet_base@std@@8 DD imagerel ??_R1A@?0A@EA@_Facet_base@std@@8 ; std::_Facet_base::`RTTI Base Class Array'
	ORG $+3
rdata$r	ENDS
;	COMDAT ??_R3system_error@std@@8
rdata$r	SEGMENT
??_R3system_error@std@@8 DD 00H				; std::system_error::`RTTI Class Hierarchy Descriptor'
	DD	00H
	DD	04H
	DD	imagerel ??_R2system_error@std@@8
rdata$r	ENDS
;	COMDAT _TI5?AVfailure@ios_base@std@@
xdata$x	SEGMENT
_TI5?AVfailure@ios_base@std@@ DD 00H
	DD	imagerel ??1failure@ios_base@std@@UEAA@XZ
	DD	00H
	DD	imagerel _CTA5?AVfailure@ios_base@std@@
xdata$x	ENDS
;	COMDAT ??_R1A@?0A@EA@?$ctype@D@std@@8
rdata$r	SEGMENT
??_R1A@?0A@EA@?$ctype@D@std@@8 DD imagerel ??_R0?AV?$ctype@D@std@@@8 ; std::ctype<char>::`RTTI Base Class Descriptor at (0,-1,0,64)'
	DD	04H
	DD	00H
	DD	0ffffffffH
	DD	00H
	DD	040H
	DD	imagerel ??_R3?$ctype@D@std@@8
rdata$r	ENDS
;	COMDAT ??_R2_Crt_new_delete@std@@8
rdata$r	SEGMENT
??_R2_Crt_new_delete@std@@8 DD imagerel ??_R1A@?0A@EA@_Crt_new_delete@std@@8 ; std::_Crt_new_delete::`RTTI Base Class Array'
	ORG $+3
rdata$r	ENDS
;	COMDAT ??_R0?AV_System_error@std@@@8
data$r	SEGMENT
??_R0?AV_System_error@std@@@8 DQ FLAT:??_7type_info@@6B@ ; std::_System_error `RTTI Type Descriptor'
	DQ	0000000000000000H
	DB	'.?AV_System_error@std@@', 00H
data$r	ENDS
;	COMDAT ??_R1A@?0A@EA@ctype_base@std@@8
rdata$r	SEGMENT
??_R1A@?0A@EA@ctype_base@std@@8 DD imagerel ??_R0?AUctype_base@std@@@8 ; std::ctype_base::`RTTI Base Class Descriptor at (0,-1,0,64)'
	DD	03H
	DD	00H
	DD	0ffffffffH
	DD	00H
	DD	040H
	DD	imagerel ??_R3ctype_base@std@@8
rdata$r	ENDS
;	COMDAT _CT??_R0?AVsystem_error@std@@@840
xdata$x	SEGMENT
_CT??_R0?AVsystem_error@std@@@840 DD 00H
	DD	imagerel ??_R0?AVsystem_error@std@@@8
	DD	00H
	DD	0ffffffffH
	ORG $+4
	DD	028H
	DD	imagerel ??0system_error@std@@QEAA@AEBV01@@Z
xdata$x	ENDS
;	COMDAT ??_7_Facet_base@std@@6B@
CONST	SEGMENT
??_7_Facet_base@std@@6B@ DQ FLAT:??_R4_Facet_base@std@@6B@ ; std::_Facet_base::`vftable'
	DQ	FLAT:??_E_Facet_base@std@@UEAAPEAXI@Z
	DQ	FLAT:_purecall
	DQ	FLAT:_purecall
CONST	ENDS
;	COMDAT _CT??_R0?AV_System_error@std@@@840
xdata$x	SEGMENT
_CT??_R0?AV_System_error@std@@@840 DD 00H
	DD	imagerel ??_R0?AV_System_error@std@@@8
	DD	00H
	DD	0ffffffffH
	ORG $+4
	DD	028H
	DD	imagerel ??0_System_error@std@@QEAA@AEBV01@@Z
xdata$x	ENDS
;	COMDAT ??_R2runtime_error@std@@8
rdata$r	SEGMENT
??_R2runtime_error@std@@8 DD imagerel ??_R1A@?0A@EA@runtime_error@std@@8 ; std::runtime_error::`RTTI Base Class Array'
	DD	imagerel ??_R1A@?0A@EA@exception@std@@8
	ORG $+3
rdata$r	ENDS
;	COMDAT _CTA2?AVruntime_error@std@@
xdata$x	SEGMENT
_CTA2?AVruntime_error@std@@ DD 02H
	DD	imagerel _CT??_R0?AVruntime_error@std@@@824
	DD	imagerel _CT??_R0?AVexception@std@@@824
xdata$x	ENDS
;	COMDAT ??_R4_Facet_base@std@@6B@
rdata$r	SEGMENT
??_R4_Facet_base@std@@6B@ DD 01H			; std::_Facet_base::`RTTI Complete Object Locator'
	DD	00H
	DD	00H
	DD	imagerel ??_R0?AV_Facet_base@std@@@8
	DD	imagerel ??_R3_Facet_base@std@@8
	DD	imagerel ??_R4_Facet_base@std@@6B@
rdata$r	ENDS
;	COMDAT ??_R1A@?0A@EA@_Crt_new_delete@std@@8
rdata$r	SEGMENT
??_R1A@?0A@EA@_Crt_new_delete@std@@8 DD imagerel ??_R0?AU_Crt_new_delete@std@@@8 ; std::_Crt_new_delete::`RTTI Base Class Descriptor at (0,-1,0,64)'
	DD	00H
	DD	00H
	DD	0ffffffffH
	DD	00H
	DD	040H
	DD	imagerel ??_R3_Crt_new_delete@std@@8
rdata$r	ENDS
;	COMDAT ??_R4bad_cast@std@@6B@
rdata$r	SEGMENT
??_R4bad_cast@std@@6B@ DD 01H				; std::bad_cast::`RTTI Complete Object Locator'
	DD	00H
	DD	00H
	DD	imagerel ??_R0?AVbad_cast@std@@@8
	DD	imagerel ??_R3bad_cast@std@@8
	DD	imagerel ??_R4bad_cast@std@@6B@
rdata$r	ENDS
;	COMDAT ??_R4ctype_base@std@@6B@
rdata$r	SEGMENT
??_R4ctype_base@std@@6B@ DD 01H				; std::ctype_base::`RTTI Complete Object Locator'
	DD	00H
	DD	00H
	DD	imagerel ??_R0?AUctype_base@std@@@8
	DD	imagerel ??_R3ctype_base@std@@8
	DD	imagerel ??_R4ctype_base@std@@6B@
rdata$r	ENDS
;	COMDAT ??_R3error_category@std@@8
rdata$r	SEGMENT
??_R3error_category@std@@8 DD 00H			; std::error_category::`RTTI Class Hierarchy Descriptor'
	DD	00H
	DD	01H
	DD	imagerel ??_R2error_category@std@@8
rdata$r	ENDS
;	COMDAT ??_R3bad_cast@std@@8
rdata$r	SEGMENT
??_R3bad_cast@std@@8 DD 00H				; std::bad_cast::`RTTI Class Hierarchy Descriptor'
	DD	00H
	DD	02H
	DD	imagerel ??_R2bad_cast@std@@8
rdata$r	ENDS
;	COMDAT ??_R1A@?0A@EA@_System_error@std@@8
rdata$r	SEGMENT
??_R1A@?0A@EA@_System_error@std@@8 DD imagerel ??_R0?AV_System_error@std@@@8 ; std::_System_error::`RTTI Base Class Descriptor at (0,-1,0,64)'
	DD	02H
	DD	00H
	DD	0ffffffffH
	DD	00H
	DD	040H
	DD	imagerel ??_R3_System_error@std@@8
rdata$r	ENDS
;	COMDAT ??_R2_Generic_error_category@std@@8
rdata$r	SEGMENT
??_R2_Generic_error_category@std@@8 DD imagerel ??_R1A@?0A@EA@_Generic_error_category@std@@8 ; std::_Generic_error_category::`RTTI Base Class Array'
	DD	imagerel ??_R1A@?0A@EA@error_category@std@@8
	ORG $+3
rdata$r	ENDS
;	COMDAT ?npos@?$basic_string@DU?$char_traits@D@std@@V?$allocator@D@2@@std@@2_KB
CONST	SEGMENT
?npos@?$basic_string@DU?$char_traits@D@std@@V?$allocator@D@2@@std@@2_KB DQ ffffffffffffffffH ; std::basic_string<char,std::char_traits<char>,std::allocator<char> >::npos
CONST	ENDS
;	COMDAT ??_R3ctype_base@std@@8
rdata$r	SEGMENT
??_R3ctype_base@std@@8 DD 00H				; std::ctype_base::`RTTI Class Hierarchy Descriptor'
	DD	01H
	DD	04H
	DD	imagerel ??_R2ctype_base@std@@8
rdata$r	ENDS
;	COMDAT ??_R3facet@locale@std@@8
rdata$r	SEGMENT
??_R3facet@locale@std@@8 DD 00H				; std::locale::facet::`RTTI Class Hierarchy Descriptor'
	DD	01H
	DD	03H
	DD	imagerel ??_R2facet@locale@std@@8
rdata$r	ENDS
;	COMDAT ??_R0?AVfacet@locale@std@@@8
data$r	SEGMENT
??_R0?AVfacet@locale@std@@@8 DQ FLAT:??_7type_info@@6B@	; std::locale::facet `RTTI Type Descriptor'
	DQ	0000000000000000H
	DB	'.?AVfacet@locale@std@@', 00H
data$r	ENDS
;	COMDAT ??_R1A@?0A@EA@failure@ios_base@std@@8
rdata$r	SEGMENT
??_R1A@?0A@EA@failure@ios_base@std@@8 DD imagerel ??_R0?AVfailure@ios_base@std@@@8 ; std::ios_base::failure::`RTTI Base Class Descriptor at (0,-1,0,64)'
	DD	04H
	DD	00H
	DD	0ffffffffH
	DD	00H
	DD	040H
	DD	imagerel ??_R3failure@ios_base@std@@8
rdata$r	ENDS
;	COMDAT ??_7_System_error@std@@6B@
CONST	SEGMENT
??_7_System_error@std@@6B@ DQ FLAT:??_R4_System_error@std@@6B@ ; std::_System_error::`vftable'
	DQ	FLAT:??_E_System_error@std@@UEAAPEAXI@Z
	DQ	FLAT:?what@exception@std@@UEBAPEBDXZ
CONST	ENDS
;	COMDAT ??_7runtime_error@std@@6B@
CONST	SEGMENT
??_7runtime_error@std@@6B@ DQ FLAT:??_R4runtime_error@std@@6B@ ; std::runtime_error::`vftable'
	DQ	FLAT:??_Eruntime_error@std@@UEAAPEAXI@Z
	DQ	FLAT:?what@exception@std@@UEBAPEBDXZ
CONST	ENDS
;	COMDAT ??_R3exception@std@@8
rdata$r	SEGMENT
??_R3exception@std@@8 DD 00H				; std::exception::`RTTI Class Hierarchy Descriptor'
	DD	00H
	DD	01H
	DD	imagerel ??_R2exception@std@@8
rdata$r	ENDS
;	COMDAT ??_R2?$ctype@D@std@@8
rdata$r	SEGMENT
??_R2?$ctype@D@std@@8 DD imagerel ??_R1A@?0A@EA@?$ctype@D@std@@8 ; std::ctype<char>::`RTTI Base Class Array'
	DD	imagerel ??_R1A@?0A@EA@ctype_base@std@@8
	DD	imagerel ??_R1A@?0A@EA@facet@locale@std@@8
	DD	imagerel ??_R1A@?0A@EA@_Facet_base@std@@8
	DD	imagerel ??_R17?0A@EA@_Crt_new_delete@std@@8
	ORG $+3
rdata$r	ENDS
;	COMDAT _TI2?AVbad_cast@std@@
xdata$x	SEGMENT
_TI2?AVbad_cast@std@@ DD 00H
	DD	imagerel ??1bad_cast@std@@UEAA@XZ
	DD	00H
	DD	imagerel _CTA2?AVbad_cast@std@@
xdata$x	ENDS
;	COMDAT _CTA5?AVfailure@ios_base@std@@
xdata$x	SEGMENT
_CTA5?AVfailure@ios_base@std@@ DD 05H
	DD	imagerel _CT??_R0?AVfailure@ios_base@std@@@840
	DD	imagerel _CT??_R0?AVsystem_error@std@@@840
	DD	imagerel _CT??_R0?AV_System_error@std@@@840
	DD	imagerel _CT??_R0?AVruntime_error@std@@@824
	DD	imagerel _CT??_R0?AVexception@std@@@824
xdata$x	ENDS
;	COMDAT ??_7exception@std@@6B@
CONST	SEGMENT
??_7exception@std@@6B@ DQ FLAT:??_R4exception@std@@6B@	; std::exception::`vftable'
	DQ	FLAT:??_Eexception@std@@UEAAPEAXI@Z
	DQ	FLAT:?what@exception@std@@UEBAPEBDXZ
CONST	ENDS
;	COMDAT ??_7facet@locale@std@@6B@
CONST	SEGMENT
??_7facet@locale@std@@6B@ DQ FLAT:??_R4facet@locale@std@@6B@ ; std::locale::facet::`vftable'
	DQ	FLAT:??_Efacet@locale@std@@MEAAPEAXI@Z
	DQ	FLAT:?_Incref@facet@locale@std@@UEAAXXZ
	DQ	FLAT:?_Decref@facet@locale@std@@UEAAPEAV_Facet_base@3@XZ
CONST	ENDS
;	COMDAT ??_R3failure@ios_base@std@@8
rdata$r	SEGMENT
??_R3failure@ios_base@std@@8 DD 00H			; std::ios_base::failure::`RTTI Class Hierarchy Descriptor'
	DD	00H
	DD	05H
	DD	imagerel ??_R2failure@ios_base@std@@8
rdata$r	ENDS
;	COMDAT ??_R0?AUctype_base@std@@@8
data$r	SEGMENT
??_R0?AUctype_base@std@@@8 DQ FLAT:??_7type_info@@6B@	; std::ctype_base `RTTI Type Descriptor'
	DQ	0000000000000000H
	DB	'.?AUctype_base@std@@', 00H
data$r	ENDS
;	COMDAT ??_R4error_category@std@@6B@
rdata$r	SEGMENT
??_R4error_category@std@@6B@ DD 01H			; std::error_category::`RTTI Complete Object Locator'
	DD	00H
	DD	00H
	DD	imagerel ??_R0?AVerror_category@std@@@8
	DD	imagerel ??_R3error_category@std@@8
	DD	imagerel ??_R4error_category@std@@6B@
rdata$r	ENDS
;	COMDAT ??_R2failure@ios_base@std@@8
rdata$r	SEGMENT
??_R2failure@ios_base@std@@8 DD imagerel ??_R1A@?0A@EA@failure@ios_base@std@@8 ; std::ios_base::failure::`RTTI Base Class Array'
	DD	imagerel ??_R1A@?0A@EA@system_error@std@@8
	DD	imagerel ??_R1A@?0A@EA@_System_error@std@@8
	DD	imagerel ??_R1A@?0A@EA@runtime_error@std@@8
	DD	imagerel ??_R1A@?0A@EA@exception@std@@8
	ORG $+3
rdata$r	ENDS
;	COMDAT _CTA2?AVbad_cast@std@@
xdata$x	SEGMENT
_CTA2?AVbad_cast@std@@ DD 02H
	DD	imagerel _CT??_R0?AVbad_cast@std@@@824
	DD	imagerel _CT??_R0?AVexception@std@@@824
xdata$x	ENDS
;	COMDAT ??_7?$ctype@D@std@@6B@
CONST	SEGMENT
??_7?$ctype@D@std@@6B@ DQ FLAT:??_R4?$ctype@D@std@@6B@	; std::ctype<char>::`vftable'
	DQ	FLAT:??_E?$ctype@D@std@@MEAAPEAXI@Z
	DQ	FLAT:?_Incref@facet@locale@std@@UEAAXXZ
	DQ	FLAT:?_Decref@facet@locale@std@@UEAAPEAV_Facet_base@3@XZ
	DQ	FLAT:?do_tolower@?$ctype@D@std@@MEBAPEBDPEADPEBD@Z
	DQ	FLAT:?do_tolower@?$ctype@D@std@@MEBADD@Z
	DQ	FLAT:?do_toupper@?$ctype@D@std@@MEBAPEBDPEADPEBD@Z
	DQ	FLAT:?do_toupper@?$ctype@D@std@@MEBADD@Z
	DQ	FLAT:?do_widen@?$ctype@D@std@@MEBAPEBDPEBD0PEAD@Z
	DQ	FLAT:?do_widen@?$ctype@D@std@@MEBADD@Z
	DQ	FLAT:?do_narrow@?$ctype@D@std@@MEBAPEBDPEBD0DPEAD@Z
	DQ	FLAT:?do_narrow@?$ctype@D@std@@MEBADDD@Z
CONST	ENDS
;	COMDAT ??_R0?AVbad_cast@std@@@8
data$r	SEGMENT
??_R0?AVbad_cast@std@@@8 DQ FLAT:??_7type_info@@6B@	; std::bad_cast `RTTI Type Descriptor'
	DQ	0000000000000000H
	DB	'.?AVbad_cast@std@@', 00H
data$r	ENDS
;	COMDAT ??_R0?AV_Iostream_error_category@std@@@8
data$r	SEGMENT
??_R0?AV_Iostream_error_category@std@@@8 DQ FLAT:??_7type_info@@6B@ ; std::_Iostream_error_category `RTTI Type Descriptor'
	DQ	0000000000000000H
	DB	'.?AV_Iostream_error_category@std@@', 00H
data$r	ENDS
;	COMDAT ??_R1A@?0A@EA@facet@locale@std@@8
rdata$r	SEGMENT
??_R1A@?0A@EA@facet@locale@std@@8 DD imagerel ??_R0?AVfacet@locale@std@@@8 ; std::locale::facet::`RTTI Base Class Descriptor at (0,-1,0,64)'
	DD	02H
	DD	00H
	DD	0ffffffffH
	DD	00H
	DD	040H
	DD	imagerel ??_R3facet@locale@std@@8
rdata$r	ENDS
;	COMDAT ??_R2error_category@std@@8
rdata$r	SEGMENT
??_R2error_category@std@@8 DD imagerel ??_R1A@?0A@EA@error_category@std@@8 ; std::error_category::`RTTI Base Class Array'
	ORG $+3
rdata$r	ENDS
;	COMDAT _CT??_R0?AVbad_cast@std@@@824
xdata$x	SEGMENT
_CT??_R0?AVbad_cast@std@@@824 DD 00H
	DD	imagerel ??_R0?AVbad_cast@std@@@8
	DD	00H
	DD	0ffffffffH
	ORG $+4
	DD	018H
	DD	imagerel ??0bad_cast@std@@QEAA@AEBV01@@Z
xdata$x	ENDS
;	COMDAT _CT??_R0?AVruntime_error@std@@@824
xdata$x	SEGMENT
_CT??_R0?AVruntime_error@std@@@824 DD 00H
	DD	imagerel ??_R0?AVruntime_error@std@@@8
	DD	00H
	DD	0ffffffffH
	ORG $+4
	DD	018H
	DD	imagerel ??0runtime_error@std@@QEAA@AEBV01@@Z
xdata$x	ENDS
;	COMDAT ??_R2_Iostream_error_category@std@@8
rdata$r	SEGMENT
??_R2_Iostream_error_category@std@@8 DD imagerel ??_R1A@?0A@EA@_Iostream_error_category@std@@8 ; std::_Iostream_error_category::`RTTI Base Class Array'
	DD	imagerel ??_R1A@?0A@EA@_Generic_error_category@std@@8
	DD	imagerel ??_R1A@?0A@EA@error_category@std@@8
	ORG $+3
rdata$r	ENDS
;	COMDAT ??_R3_Generic_error_category@std@@8
rdata$r	SEGMENT
??_R3_Generic_error_category@std@@8 DD 00H		; std::_Generic_error_category::`RTTI Class Hierarchy Descriptor'
	DD	00H
	DD	02H
	DD	imagerel ??_R2_Generic_error_category@std@@8
rdata$r	ENDS
;	COMDAT _TI2?AVruntime_error@std@@
xdata$x	SEGMENT
_TI2?AVruntime_error@std@@ DD 00H
	DD	imagerel ??1runtime_error@std@@UEAA@XZ
	DD	00H
	DD	imagerel _CTA2?AVruntime_error@std@@
xdata$x	ENDS
;	COMDAT ??_7bad_cast@std@@6B@
CONST	SEGMENT
??_7bad_cast@std@@6B@ DQ FLAT:??_R4bad_cast@std@@6B@	; std::bad_cast::`vftable'
	DQ	FLAT:??_Ebad_cast@std@@UEAAPEAXI@Z
	DQ	FLAT:?what@exception@std@@UEBAPEBDXZ
CONST	ENDS
;	COMDAT ??_R4failure@ios_base@std@@6B@
rdata$r	SEGMENT
??_R4failure@ios_base@std@@6B@ DD 01H			; std::ios_base::failure::`RTTI Complete Object Locator'
	DD	00H
	DD	00H
	DD	imagerel ??_R0?AVfailure@ios_base@std@@@8
	DD	imagerel ??_R3failure@ios_base@std@@8
	DD	imagerel ??_R4failure@ios_base@std@@6B@
rdata$r	ENDS
;	COMDAT ??_R2exception@std@@8
rdata$r	SEGMENT
??_R2exception@std@@8 DD imagerel ??_R1A@?0A@EA@exception@std@@8 ; std::exception::`RTTI Base Class Array'
	ORG $+3
rdata$r	ENDS
;	COMDAT ??_R2bad_cast@std@@8
rdata$r	SEGMENT
??_R2bad_cast@std@@8 DD imagerel ??_R1A@?0A@EA@bad_cast@std@@8 ; std::bad_cast::`RTTI Base Class Array'
	DD	imagerel ??_R1A@?0A@EA@exception@std@@8
	ORG $+3
rdata$r	ENDS
;	COMDAT ??_R17?0A@EA@_Crt_new_delete@std@@8
rdata$r	SEGMENT
??_R17?0A@EA@_Crt_new_delete@std@@8 DD imagerel ??_R0?AU_Crt_new_delete@std@@@8 ; std::_Crt_new_delete::`RTTI Base Class Descriptor at (8,-1,0,64)'
	DD	00H
	DD	08H
	DD	0ffffffffH
	DD	00H
	DD	040H
	DD	imagerel ??_R3_Crt_new_delete@std@@8
rdata$r	ENDS
;	COMDAT ??_R0?AU_Crt_new_delete@std@@@8
data$r	SEGMENT
??_R0?AU_Crt_new_delete@std@@@8 DQ FLAT:??_7type_info@@6B@ ; std::_Crt_new_delete `RTTI Type Descriptor'
	DQ	0000000000000000H
	DB	'.?AU_Crt_new_delete@std@@', 00H
data$r	ENDS
;	COMDAT ??_R3_Iostream_error_category@std@@8
rdata$r	SEGMENT
??_R3_Iostream_error_category@std@@8 DD 00H		; std::_Iostream_error_category::`RTTI Class Hierarchy Descriptor'
	DD	00H
	DD	03H
	DD	imagerel ??_R2_Iostream_error_category@std@@8
rdata$r	ENDS
;	COMDAT ??_R0?AV_Generic_error_category@std@@@8
data$r	SEGMENT
??_R0?AV_Generic_error_category@std@@@8 DQ FLAT:??_7type_info@@6B@ ; std::_Generic_error_category `RTTI Type Descriptor'
	DQ	0000000000000000H
	DB	'.?AV_Generic_error_category@std@@', 00H
data$r	ENDS
;	COMDAT ??_R3_System_error@std@@8
rdata$r	SEGMENT
??_R3_System_error@std@@8 DD 00H			; std::_System_error::`RTTI Class Hierarchy Descriptor'
	DD	00H
	DD	03H
	DD	imagerel ??_R2_System_error@std@@8
rdata$r	ENDS
;	COMDAT ??_7ctype_base@std@@6B@
CONST	SEGMENT
??_7ctype_base@std@@6B@ DQ FLAT:??_R4ctype_base@std@@6B@ ; std::ctype_base::`vftable'
	DQ	FLAT:??_Ectype_base@std@@UEAAPEAXI@Z
	DQ	FLAT:?_Incref@facet@locale@std@@UEAAXXZ
	DQ	FLAT:?_Decref@facet@locale@std@@UEAAPEAV_Facet_base@3@XZ
CONST	ENDS
;	COMDAT ??_R0?AV_Facet_base@std@@@8
data$r	SEGMENT
??_R0?AV_Facet_base@std@@@8 DQ FLAT:??_7type_info@@6B@	; std::_Facet_base `RTTI Type Descriptor'
	DQ	0000000000000000H
	DB	'.?AV_Facet_base@std@@', 00H
data$r	ENDS
;	COMDAT ??_R1A@?0A@EA@_Facet_base@std@@8
rdata$r	SEGMENT
??_R1A@?0A@EA@_Facet_base@std@@8 DD imagerel ??_R0?AV_Facet_base@std@@@8 ; std::_Facet_base::`RTTI Base Class Descriptor at (0,-1,0,64)'
	DD	00H
	DD	00H
	DD	0ffffffffH
	DD	00H
	DD	040H
	DD	imagerel ??_R3_Facet_base@std@@8
rdata$r	ENDS
;	COMDAT ??_R1A@?0A@EA@_Generic_error_category@std@@8
rdata$r	SEGMENT
??_R1A@?0A@EA@_Generic_error_category@std@@8 DD imagerel ??_R0?AV_Generic_error_category@std@@@8 ; std::_Generic_error_category::`RTTI Base Class Descriptor at (0,-1,0,64)'
	DD	01H
	DD	00H
	DD	0ffffffffH
	DD	00H
	DD	040H
	DD	imagerel ??_R3_Generic_error_category@std@@8
rdata$r	ENDS
;	COMDAT ??_R4system_error@std@@6B@
rdata$r	SEGMENT
??_R4system_error@std@@6B@ DD 01H			; std::system_error::`RTTI Complete Object Locator'
	DD	00H
	DD	00H
	DD	imagerel ??_R0?AVsystem_error@std@@@8
	DD	imagerel ??_R3system_error@std@@8
	DD	imagerel ??_R4system_error@std@@6B@
rdata$r	ENDS
;	COMDAT ??_R4_Iostream_error_category@std@@6B@
rdata$r	SEGMENT
??_R4_Iostream_error_category@std@@6B@ DD 01H		; std::_Iostream_error_category::`RTTI Complete Object Locator'
	DD	00H
	DD	00H
	DD	imagerel ??_R0?AV_Iostream_error_category@std@@@8
	DD	imagerel ??_R3_Iostream_error_category@std@@8
	DD	imagerel ??_R4_Iostream_error_category@std@@6B@
rdata$r	ENDS
;	COMDAT ??_R1A@?0A@EA@exception@std@@8
rdata$r	SEGMENT
??_R1A@?0A@EA@exception@std@@8 DD imagerel ??_R0?AVexception@std@@@8 ; std::exception::`RTTI Base Class Descriptor at (0,-1,0,64)'
	DD	00H
	DD	00H
	DD	0ffffffffH
	DD	00H
	DD	040H
	DD	imagerel ??_R3exception@std@@8
rdata$r	ENDS
;	COMDAT ??_R0?AVsystem_error@std@@@8
data$r	SEGMENT
??_R0?AVsystem_error@std@@@8 DQ FLAT:??_7type_info@@6B@	; std::system_error `RTTI Type Descriptor'
	DQ	0000000000000000H
	DB	'.?AVsystem_error@std@@', 00H
data$r	ENDS
;	COMDAT ??_R2_System_error@std@@8
rdata$r	SEGMENT
??_R2_System_error@std@@8 DD imagerel ??_R1A@?0A@EA@_System_error@std@@8 ; std::_System_error::`RTTI Base Class Array'
	DD	imagerel ??_R1A@?0A@EA@runtime_error@std@@8
	DD	imagerel ??_R1A@?0A@EA@exception@std@@8
	ORG $+3
rdata$r	ENDS
;	COMDAT ??_R1A@?0A@EA@runtime_error@std@@8
rdata$r	SEGMENT
??_R1A@?0A@EA@runtime_error@std@@8 DD imagerel ??_R0?AVruntime_error@std@@@8 ; std::runtime_error::`RTTI Base Class Descriptor at (0,-1,0,64)'
	DD	01H
	DD	00H
	DD	0ffffffffH
	DD	00H
	DD	040H
	DD	imagerel ??_R3runtime_error@std@@8
rdata$r	ENDS
;	COMDAT ??_R3_Crt_new_delete@std@@8
rdata$r	SEGMENT
??_R3_Crt_new_delete@std@@8 DD 00H			; std::_Crt_new_delete::`RTTI Class Hierarchy Descriptor'
	DD	00H
	DD	01H
	DD	imagerel ??_R2_Crt_new_delete@std@@8
rdata$r	ENDS
;	COMDAT ??_R0?AV?$ctype@D@std@@@8
data$r	SEGMENT
??_R0?AV?$ctype@D@std@@@8 DQ FLAT:??_7type_info@@6B@	; std::ctype<char> `RTTI Type Descriptor'
	DQ	0000000000000000H
	DB	'.?AV?$ctype@D@std@@', 00H
data$r	ENDS
;	COMDAT ??_R0?AVerror_category@std@@@8
data$r	SEGMENT
??_R0?AVerror_category@std@@@8 DQ FLAT:??_7type_info@@6B@ ; std::error_category `RTTI Type Descriptor'
	DQ	0000000000000000H
	DB	'.?AVerror_category@std@@', 00H
data$r	ENDS
;	COMDAT ??_7_Iostream_error_category@std@@6B@
CONST	SEGMENT
??_7_Iostream_error_category@std@@6B@ DQ FLAT:??_R4_Iostream_error_category@std@@6B@ ; std::_Iostream_error_category::`vftable'
	DQ	FLAT:??_E_Iostream_error_category@std@@UEAAPEAXI@Z
	DQ	FLAT:?name@_Iostream_error_category@std@@UEBAPEBDXZ
	DQ	FLAT:?message@_Iostream_error_category@std@@UEBA?AV?$basic_string@DU?$char_traits@D@std@@V?$allocator@D@2@@2@H@Z
	DQ	FLAT:?default_error_condition@error_category@std@@UEBA?AVerror_condition@2@H@Z
	DQ	FLAT:?equivalent@error_category@std@@UEBA_NAEBVerror_code@2@H@Z
	DQ	FLAT:?equivalent@error_category@std@@UEBA_NHAEBVerror_condition@2@@Z
CONST	ENDS
;	COMDAT _CT??_R0?AVfailure@ios_base@std@@@840
xdata$x	SEGMENT
_CT??_R0?AVfailure@ios_base@std@@@840 DD 00H
	DD	imagerel ??_R0?AVfailure@ios_base@std@@@8
	DD	00H
	DD	0ffffffffH
	ORG $+4
	DD	028H
	DD	imagerel ??0failure@ios_base@std@@QEAA@AEBV012@@Z
xdata$x	ENDS
;	COMDAT ??_7_Generic_error_category@std@@6B@
CONST	SEGMENT
??_7_Generic_error_category@std@@6B@ DQ FLAT:??_R4_Generic_error_category@std@@6B@ ; std::_Generic_error_category::`vftable'
	DQ	FLAT:??_E_Generic_error_category@std@@UEAAPEAXI@Z
	DQ	FLAT:?name@_Generic_error_category@std@@UEBAPEBDXZ
	DQ	FLAT:?message@_Generic_error_category@std@@UEBA?AV?$basic_string@DU?$char_traits@D@std@@V?$allocator@D@2@@2@H@Z
	DQ	FLAT:?default_error_condition@error_category@std@@UEBA?AVerror_condition@2@H@Z
	DQ	FLAT:?equivalent@error_category@std@@UEBA_NAEBVerror_code@2@H@Z
	DQ	FLAT:?equivalent@error_category@std@@UEBA_NHAEBVerror_condition@2@@Z
CONST	ENDS
;	COMDAT ??_R4_Generic_error_category@std@@6B@
rdata$r	SEGMENT
??_R4_Generic_error_category@std@@6B@ DD 01H		; std::_Generic_error_category::`RTTI Complete Object Locator'
	DD	00H
	DD	00H
	DD	imagerel ??_R0?AV_Generic_error_category@std@@@8
	DD	imagerel ??_R3_Generic_error_category@std@@8
	DD	imagerel ??_R4_Generic_error_category@std@@6B@
rdata$r	ENDS
;	COMDAT ??_R1A@?0A@EA@bad_cast@std@@8
rdata$r	SEGMENT
??_R1A@?0A@EA@bad_cast@std@@8 DD imagerel ??_R0?AVbad_cast@std@@@8 ; std::bad_cast::`RTTI Base Class Descriptor at (0,-1,0,64)'
	DD	01H
	DD	00H
	DD	0ffffffffH
	DD	00H
	DD	040H
	DD	imagerel ??_R3bad_cast@std@@8
rdata$r	ENDS
;	COMDAT ??_R3_Facet_base@std@@8
rdata$r	SEGMENT
??_R3_Facet_base@std@@8 DD 00H				; std::_Facet_base::`RTTI Class Hierarchy Descriptor'
	DD	00H
	DD	01H
	DD	imagerel ??_R2_Facet_base@std@@8
rdata$r	ENDS
;	COMDAT ??_R4_System_error@std@@6B@
rdata$r	SEGMENT
??_R4_System_error@std@@6B@ DD 01H			; std::_System_error::`RTTI Complete Object Locator'
	DD	00H
	DD	00H
	DD	imagerel ??_R0?AV_System_error@std@@@8
	DD	imagerel ??_R3_System_error@std@@8
	DD	imagerel ??_R4_System_error@std@@6B@
rdata$r	ENDS
;	COMDAT ??_R4runtime_error@std@@6B@
rdata$r	SEGMENT
??_R4runtime_error@std@@6B@ DD 01H			; std::runtime_error::`RTTI Complete Object Locator'
	DD	00H
	DD	00H
	DD	imagerel ??_R0?AVruntime_error@std@@@8
	DD	imagerel ??_R3runtime_error@std@@8
	DD	imagerel ??_R4runtime_error@std@@6B@
rdata$r	ENDS
;	COMDAT ??_7error_category@std@@6B@
CONST	SEGMENT
??_7error_category@std@@6B@ DQ FLAT:??_R4error_category@std@@6B@ ; std::error_category::`vftable'
	DQ	FLAT:??_Eerror_category@std@@UEAAPEAXI@Z
	DQ	FLAT:_purecall
	DQ	FLAT:_purecall
	DQ	FLAT:?default_error_condition@error_category@std@@UEBA?AVerror_condition@2@H@Z
	DQ	FLAT:?equivalent@error_category@std@@UEBA_NAEBVerror_code@2@H@Z
	DQ	FLAT:?equivalent@error_category@std@@UEBA_NHAEBVerror_condition@2@@Z
CONST	ENDS
;	COMDAT _CT??_R0?AVexception@std@@@824
xdata$x	SEGMENT
_CT??_R0?AVexception@std@@@824 DD 00H
	DD	imagerel ??_R0?AVexception@std@@@8
	DD	00H
	DD	0ffffffffH
	ORG $+4
	DD	018H
	DD	imagerel ??0exception@std@@QEAA@AEBV01@@Z
xdata$x	ENDS
;	COMDAT ??_R1A@?0A@EA@_Iostream_error_category@std@@8
rdata$r	SEGMENT
??_R1A@?0A@EA@_Iostream_error_category@std@@8 DD imagerel ??_R0?AV_Iostream_error_category@std@@@8 ; std::_Iostream_error_category::`RTTI Base Class Descriptor at (0,-1,0,64)'
	DD	02H
	DD	00H
	DD	0ffffffffH
	DD	00H
	DD	040H
	DD	imagerel ??_R3_Iostream_error_category@std@@8
rdata$r	ENDS
;	COMDAT ??_R3?$ctype@D@std@@8
rdata$r	SEGMENT
??_R3?$ctype@D@std@@8 DD 00H				; std::ctype<char>::`RTTI Class Hierarchy Descriptor'
	DD	01H
	DD	05H
	DD	imagerel ??_R2?$ctype@D@std@@8
rdata$r	ENDS
;	COMDAT ??_R1A@?0A@EA@system_error@std@@8
rdata$r	SEGMENT
??_R1A@?0A@EA@system_error@std@@8 DD imagerel ??_R0?AVsystem_error@std@@@8 ; std::system_error::`RTTI Base Class Descriptor at (0,-1,0,64)'
	DD	03H
	DD	00H
	DD	0ffffffffH
	DD	00H
	DD	040H
	DD	imagerel ??_R3system_error@std@@8
rdata$r	ENDS
;	COMDAT ??_R4facet@locale@std@@6B@
rdata$r	SEGMENT
??_R4facet@locale@std@@6B@ DD 01H			; std::locale::facet::`RTTI Complete Object Locator'
	DD	00H
	DD	00H
	DD	imagerel ??_R0?AVfacet@locale@std@@@8
	DD	imagerel ??_R3facet@locale@std@@8
	DD	imagerel ??_R4facet@locale@std@@6B@
rdata$r	ENDS
;	COMDAT ??_R2system_error@std@@8
rdata$r	SEGMENT
??_R2system_error@std@@8 DD imagerel ??_R1A@?0A@EA@system_error@std@@8 ; std::system_error::`RTTI Base Class Array'
	DD	imagerel ??_R1A@?0A@EA@_System_error@std@@8
	DD	imagerel ??_R1A@?0A@EA@runtime_error@std@@8
	DD	imagerel ??_R1A@?0A@EA@exception@std@@8
	ORG $+3
rdata$r	ENDS
;	COMDAT ??_R4exception@std@@6B@
rdata$r	SEGMENT
??_R4exception@std@@6B@ DD 01H				; std::exception::`RTTI Complete Object Locator'
	DD	00H
	DD	00H
	DD	imagerel ??_R0?AVexception@std@@@8
	DD	imagerel ??_R3exception@std@@8
	DD	imagerel ??_R4exception@std@@6B@
rdata$r	ENDS
;	COMDAT ??_R0?AVruntime_error@std@@@8
data$r	SEGMENT
??_R0?AVruntime_error@std@@@8 DQ FLAT:??_7type_info@@6B@ ; std::runtime_error `RTTI Type Descriptor'
	DQ	0000000000000000H
	DB	'.?AVruntime_error@std@@', 00H
data$r	ENDS
;	COMDAT ??_R0?AVfailure@ios_base@std@@@8
data$r	SEGMENT
??_R0?AVfailure@ios_base@std@@@8 DQ FLAT:??_7type_info@@6B@ ; std::ios_base::failure `RTTI Type Descriptor'
	DQ	0000000000000000H
	DB	'.?AVfailure@ios_base@std@@', 00H
data$r	ENDS
;	COMDAT ??_C@_0BD@OLBABOEK@vector?$DMT?$DO?5too?5long?$AA@
CONST	SEGMENT
??_C@_0BD@OLBABOEK@vector?$DMT?$DO?5too?5long?$AA@ DB 'vector<T> too long'
	DB	00H						; `string'
CONST	ENDS
;	COMDAT ??_C@_0BI@CFPLBAOH@invalid?5string?5position?$AA@
CONST	SEGMENT
??_C@_0BI@CFPLBAOH@invalid?5string?5position?$AA@ DB 'invalid string posi'
	DB	'tion', 00H					; `string'
CONST	ENDS
;	COMDAT ??_C@_0BA@JFNIOLAK@string?5too?5long?$AA@
CONST	SEGMENT
??_C@_0BA@JFNIOLAK@string?5too?5long?$AA@ DB 'string too long', 00H ; `string'
CONST	ENDS
;	COMDAT ??_C@_0BF@OOHOMBOF@ios_base?3?3eofbit?5set?$AA@
CONST	SEGMENT
??_C@_0BF@OOHOMBOF@ios_base?3?3eofbit?5set?$AA@ DB 'ios_base::eofbit set', 00H ; `string'
CONST	ENDS
;	COMDAT ??_C@_0BG@FMKFHCIL@ios_base?3?3failbit?5set?$AA@
CONST	SEGMENT
??_C@_0BG@FMKFHCIL@ios_base?3?3failbit?5set?$AA@ DB 'ios_base::failbit se'
	DB	't', 00H					; `string'
CONST	ENDS
;	COMDAT ??_C@_0BF@PHHKMMFD@ios_base?3?3badbit?5set?$AA@
CONST	SEGMENT
??_C@_0BF@PHHKMMFD@ios_base?3?3badbit?5set?$AA@ DB 'ios_base::badbit set', 00H ; `string'
CONST	ENDS
;	COMDAT ??_C@_0BG@PADBLCHM@iostream?5stream?5error?$AA@
CONST	SEGMENT
??_C@_0BG@PADBLCHM@iostream?5stream?5error?$AA@ DB 'iostream stream error'
	DB	00H						; `string'
CONST	ENDS
;	COMDAT ??_C@_08LLGCOLLL@iostream?$AA@
CONST	SEGMENT
??_C@_08LLGCOLLL@iostream?$AA@ DB 'iostream', 00H	; `string'
CONST	ENDS
;	COMDAT ??_C@_07DCLBNMLN@generic?$AA@
CONST	SEGMENT
??_C@_07DCLBNMLN@generic?$AA@ DB 'generic', 00H		; `string'
CONST	ENDS
;	COMDAT ??_C@_02LMMGGCAJ@?3?5?$AA@
CONST	SEGMENT
??_C@_02LMMGGCAJ@?3?5?$AA@ DB ': ', 00H			; `string'
CONST	ENDS
;	COMDAT ??_C@_00CNPNBAHC@?$AA@
CONST	SEGMENT
??_C@_00CNPNBAHC@?$AA@ DB 00H				; `string'
CONST	ENDS
;	COMDAT ??_C@_0BA@ELKIONDK@bad?5locale?5name?$AA@
CONST	SEGMENT
??_C@_0BA@ELKIONDK@bad?5locale?5name?$AA@ DB 'bad locale name', 00H ; `string'
CONST	ENDS
;	COMDAT ??_C@_08EPJLHIJG@bad?5cast?$AA@
CONST	SEGMENT
??_C@_08EPJLHIJG@bad?5cast?$AA@ DB 'bad cast', 00H	; `string'
CONST	ENDS
;	COMDAT ??_C@_0BC@EOODALEL@Unknown?5exception?$AA@
CONST	SEGMENT
??_C@_0BC@EOODALEL@Unknown?5exception?$AA@ DB 'Unknown exception', 00H ; `string'
CONST	ENDS
PUBLIC	??$_Copy_memmove@PEADPEAD@std@@YAPEADPEAD00@Z	; std::_Copy_memmove<char * __ptr64,char * __ptr64>
PUBLIC	??$_Uninitialized_move_al_unchecked1@DDV?$allocator@D@std@@@std@@YAPEADPEAD00AEAU?$_Wrap_alloc@V?$allocator@D@std@@@0@U_Really_trivial_ptr_iterator_tag@0@U?$integral_constant@_N$00@0@@Z ; std::_Uninitialized_move_al_unchecked1<char,char,std::allocator<char> >
PUBLIC	??$_Ptr_move_cat@DD@std@@YA?AU_Really_trivial_ptr_iterator_tag@0@AEBQEAD0@Z ; std::_Ptr_move_cat<char,char>
PUBLIC	??$_Rechecked@PEADPEAD@std@@YAAEAPEADAEAPEADPEAD@Z ; std::_Rechecked<char * __ptr64,char * __ptr64>
PUBLIC	??$_Uninitialized_move_al_unchecked@PEADPEADV?$allocator@D@std@@@std@@YAPEADPEAD00AEAU?$_Wrap_alloc@V?$allocator@D@std@@@0@@Z ; std::_Uninitialized_move_al_unchecked<char * __ptr64,char * __ptr64,std::allocator<char> >
PUBLIC	??$_Unchecked@PEAD@std@@YAPEADPEAD@Z		; std::_Unchecked<char * __ptr64>
PUBLIC	??$construct@PEADAEAPEAD@?$allocator@D@std@@QEAAXPEAPEADAEAPEAD@Z ; std::allocator<char>::construct<char * __ptr64,char * __ptr64 & __ptr64>
PUBLIC	??$destroy@PEAD@?$allocator@D@std@@QEAAXPEAPEAD@Z ; std::allocator<char>::destroy<char * __ptr64>
PUBLIC	??0?$_Wrap_alloc@V?$allocator@D@std@@@std@@QEAA@$$QEAU01@@Z ; std::_Wrap_alloc<std::allocator<char> >::_Wrap_alloc<std::allocator<char> >
PUBLIC	??$_Uninitialized_move@PEADPEADV?$allocator@D@std@@@std@@YAPEADPEAD00AEAU?$_Wrap_alloc@V?$allocator@D@std@@@0@@Z ; std::_Uninitialized_move<char * __ptr64,char * __ptr64,std::allocator<char> >
PUBLIC	??$_Destroy_range1@V?$allocator@D@std@@PEAD@std@@YAXPEAD0AEAU?$_Wrap_alloc@V?$allocator@D@std@@@0@U?$integral_constant@_N$00@0@@Z ; std::_Destroy_range1<std::allocator<char>,char * __ptr64>
PUBLIC	??$construct@PEADAEAPEAD@?$allocator_traits@V?$allocator@D@std@@@std@@SAXAEAV?$allocator@D@1@PEAPEADAEAPEAD@Z ; std::allocator_traits<std::allocator<char> >::construct<char * __ptr64,char * __ptr64 & __ptr64>
PUBLIC	??$forward@AEAPEAD@std@@YAAEAPEADAEAPEAD@Z	; std::forward<char * __ptr64 & __ptr64>
PUBLIC	??$destroy@PEAD@?$allocator_traits@V?$allocator@D@std@@@std@@SAXAEAV?$allocator@D@1@PEAPEAD@Z ; std::allocator_traits<std::allocator<char> >::destroy<char * __ptr64>
PUBLIC	??$forward@V?$allocator@D@std@@@std@@YA$$QEAV?$allocator@D@0@AEAV10@@Z ; std::forward<std::allocator<char> >
PUBLIC	??$_Uninitialized_default_fill_n1@PEAD_KV?$allocator@D@std@@@std@@YAPEADPEAD_KAEAU?$_Wrap_alloc@V?$allocator@D@std@@@0@U?$integral_constant@_N$00@0@@Z ; std::_Uninitialized_default_fill_n1<char * __ptr64,unsigned __int64,std::allocator<char> >
PUBLIC	??$?0U?$_Wrap_alloc@V?$allocator@D@std@@@std@@$$V@?$_Compressed_pair@U?$_Wrap_alloc@V?$allocator@D@std@@@std@@V?$_String_val@U?$_Simple_types@D@std@@@2@$00@std@@QEAA@U_One_then_variadic_args_t@1@$$QEAU?$_Wrap_alloc@V?$allocator@D@std@@@1@@Z ; std::_Compressed_pair<std::_Wrap_alloc<std::allocator<char> >,std::_String_val<std::_Simple_types<char> >,1>::_Compressed_pair<std::_Wrap_alloc<std::allocator<char> >,std::_String_val<std::_Simple_types<char> >,1><std::_Wrap_alloc<std::allocator<char> > >
PUBLIC	??$?0U?$_Wrap_alloc@V?$allocator@D@std@@@std@@$$V@?$_Compressed_pair@U?$_Wrap_alloc@V?$allocator@D@std@@@std@@V?$_Vector_val@U?$_Simple_types@D@std@@@2@$00@std@@QEAA@U_One_then_variadic_args_t@1@$$QEAU?$_Wrap_alloc@V?$allocator@D@std@@@1@@Z ; std::_Compressed_pair<std::_Wrap_alloc<std::allocator<char> >,std::_Vector_val<std::_Simple_types<char> >,1>::_Compressed_pair<std::_Wrap_alloc<std::allocator<char> >,std::_Vector_val<std::_Simple_types<char> >,1><std::_Wrap_alloc<std::allocator<char> > >
PUBLIC	??$forward@U?$_Wrap_alloc@V?$allocator@D@std@@@std@@@std@@YA$$QEAU?$_Wrap_alloc@V?$allocator@D@std@@@0@AEAU10@@Z ; std::forward<std::_Wrap_alloc<std::allocator<char> > >
PUBLIC	?_Get_first@?$_Compressed_pair@U?$_Wrap_alloc@V?$allocator@D@std@@@std@@V?$_Vector_val@U?$_Simple_types@D@std@@@2@$00@std@@QEBAAEBU?$_Wrap_alloc@V?$allocator@D@std@@@2@XZ ; std::_Compressed_pair<std::_Wrap_alloc<std::allocator<char> >,std::_Vector_val<std::_Simple_types<char> >,1>::_Get_first
PUBLIC	?clear@?$basic_ios@DU?$char_traits@D@std@@@std@@QEAAXH_N@Z ; std::basic_ios<char,std::char_traits<char> >::clear
PUBLIC	?tie@?$basic_ios@DU?$char_traits@D@std@@@std@@QEBAPEAV?$basic_ostream@DU?$char_traits@D@std@@@2@XZ ; std::basic_ios<char,std::char_traits<char> >::tie
PUBLIC	?pubsync@?$basic_streambuf@DU?$char_traits@D@std@@@std@@QEAAHXZ ; std::basic_streambuf<char,std::char_traits<char> >::pubsync
PUBLIC	?_Pninc@?$basic_streambuf@DU?$char_traits@D@std@@@std@@IEAAPEADXZ ; std::basic_streambuf<char,std::char_traits<char> >::_Pninc
PUBLIC	?_Pnavail@?$basic_streambuf@DU?$char_traits@D@std@@@std@@IEBA_JXZ ; std::basic_streambuf<char,std::char_traits<char> >::_Pnavail
PUBLIC	?_Osfx@?$basic_ostream@DU?$char_traits@D@std@@@std@@QEAAXXZ ; std::basic_ostream<char,std::char_traits<char> >::_Osfx
PUBLIC	??0?$allocator@D@std@@QEAA@XZ			; std::allocator<char>::allocator<char>
PUBLIC	??0_Bxty@?$_String_val@U?$_Simple_types@D@std@@@std@@QEAA@XZ ; std::_String_val<std::_Simple_types<char> >::_Bxty::_Bxty
PUBLIC	?_Umove_if_noexcept1@?$vector@DV?$allocator@D@std@@@std@@AEAAXPEAD00U?$integral_constant@_N$00@2@@Z ; std::vector<char,std::allocator<char> >::_Umove_if_noexcept1
PUBLIC	?_Getal@?$_Vector_alloc@U?$_Vec_base_types@DV?$allocator@D@std@@@std@@@std@@QEBAAEBU?$_Wrap_alloc@V?$allocator@D@std@@@2@XZ ; std::_Vector_alloc<std::_Vec_base_types<char,std::allocator<char> > >::_Getal
PUBLIC	?_Myend@?$_Vector_alloc@U?$_Vec_base_types@DV?$allocator@D@std@@@std@@@std@@QEBAAEBQEADXZ ; std::_Vector_alloc<std::_Vec_base_types<char,std::allocator<char> > >::_Myend
PUBLIC	??0_Sentry_base@?$basic_ostream@DU?$char_traits@D@std@@@std@@QEAA@AEAV12@@Z ; std::basic_ostream<char,std::char_traits<char> >::_Sentry_base::_Sentry_base
PUBLIC	??1_Sentry_base@?$basic_ostream@DU?$char_traits@D@std@@@std@@QEAA@XZ ; std::basic_ostream<char,std::char_traits<char> >::_Sentry_base::~_Sentry_base
PUBLIC	?setstate@?$basic_ios@DU?$char_traits@D@std@@@std@@QEAAXH_N@Z ; std::basic_ios<char,std::char_traits<char> >::setstate
PUBLIC	?rdbuf@?$basic_ios@DU?$char_traits@D@std@@@std@@QEBAPEAV?$basic_streambuf@DU?$char_traits@D@std@@@2@XZ ; std::basic_ios<char,std::char_traits<char> >::rdbuf
PUBLIC	?fill@?$basic_ios@DU?$char_traits@D@std@@@std@@QEBADXZ ; std::basic_ios<char,std::char_traits<char> >::fill
PUBLIC	?widen@?$basic_ios@DU?$char_traits@D@std@@@std@@QEBADD@Z ; std::basic_ios<char,std::char_traits<char> >::widen
PUBLIC	?sputc@?$basic_streambuf@DU?$char_traits@D@std@@@std@@QEAAHD@Z ; std::basic_streambuf<char,std::char_traits<char> >::sputc
PUBLIC	?put@?$basic_ostream@DU?$char_traits@D@std@@@std@@QEAAAEAV12@D@Z ; std::basic_ostream<char,std::char_traits<char> >::put
PUBLIC	?flush@?$basic_ostream@DU?$char_traits@D@std@@@std@@QEAAAEAV12@XZ ; std::basic_ostream<char,std::char_traits<char> >::flush
PUBLIC	??0?$_Wrap_alloc@V?$allocator@D@std@@@std@@QEAA@XZ ; std::_Wrap_alloc<std::allocator<char> >::_Wrap_alloc<std::allocator<char> >
PUBLIC	??0?$_String_val@U?$_Simple_types@D@std@@@std@@QEAA@XZ ; std::_String_val<std::_Simple_types<char> >::_String_val<std::_Simple_types<char> >
PUBLIC	?max_size@?$vector@DV?$allocator@D@std@@@std@@QEBA_KXZ ; std::vector<char,std::allocator<char> >::max_size
PUBLIC	?capacity@?$vector@DV?$allocator@D@std@@@std@@QEBA_KXZ ; std::vector<char,std::allocator<char> >::capacity
PUBLIC	?_Umove_if_noexcept@?$vector@DV?$allocator@D@std@@@std@@AEAAXPEAD00@Z ; std::vector<char,std::allocator<char> >::_Umove_if_noexcept
PUBLIC	?_Calculate_growth@?$vector@DV?$allocator@D@std@@@std@@AEBA_K_K@Z ; std::vector<char,std::allocator<char> >::_Calculate_growth
PUBLIC	?_Change_array@?$vector@DV?$allocator@D@std@@@std@@AEAAXQEAD_K1@Z ; std::vector<char,std::allocator<char> >::_Change_array
PUBLIC	?_Xlength@?$vector@DV?$allocator@D@std@@@std@@CAXXZ ; std::vector<char,std::allocator<char> >::_Xlength
PUBLIC	?_Orphan_range@?$vector@DV?$allocator@D@std@@@std@@AEBAXPEAD0@Z ; std::vector<char,std::allocator<char> >::_Orphan_range
PUBLIC	??0?$_Vector_val@U?$_Simple_types@D@std@@@std@@QEAA@XZ ; std::_Vector_val<std::_Simple_types<char> >::_Vector_val<std::_Simple_types<char> >
PUBLIC	??0sentry@?$basic_ostream@DU?$char_traits@D@std@@@std@@QEAA@AEAV12@@Z ; std::basic_ostream<char,std::char_traits<char> >::sentry::sentry
PUBLIC	??1sentry@?$basic_ostream@DU?$char_traits@D@std@@@std@@QEAA@XZ ; std::basic_ostream<char,std::char_traits<char> >::sentry::~sentry
PUBLIC	??Bsentry@?$basic_ostream@DU?$char_traits@D@std@@@std@@QEBA_NXZ ; std::basic_ostream<char,std::char_traits<char> >::sentry::operator bool
PUBLIC	??0?$_Immortalizer@V_Iostream_error_category@std@@@std@@QEAA@XZ ; std::_Immortalizer<std::_Iostream_error_category>::_Immortalizer<std::_Iostream_error_category>
PUBLIC	??1?$_Immortalizer@V_Iostream_error_category@std@@@std@@QEAA@XZ ; std::_Immortalizer<std::_Iostream_error_category>::~_Immortalizer<std::_Iostream_error_category>
PUBLIC	??0bad_cast@std@@QEAA@AEBV01@@Z			; std::bad_cast::bad_cast
PUBLIC	??__F_Static@?1???$_Immortalize@V_Iostream_error_category@std@@@std@@YAAEAV_Iostream_error_category@0@XZ@YAXXZ ; `std::_Immortalize<std::_Iostream_error_category>'::`2'::`dynamic atexit destructor for '_Static''
PUBLIC	??$_Min_value@_K@std@@YAAEB_KAEB_K0@Z		; std::_Min_value<unsigned __int64>
PUBLIC	??$_Unfancy@D@std@@YAPEADPEAD@Z			; std::_Unfancy<char>
PUBLIC	??$_Destroy_range@V?$allocator@D@std@@PEAD@std@@YAXPEAD0AEAU?$_Wrap_alloc@V?$allocator@D@std@@@0@@Z ; std::_Destroy_range<std::allocator<char>,char * __ptr64>
PUBLIC	??$construct@PEADAEAPEAD@?$_Wrap_alloc@V?$allocator@D@std@@@std@@QEAAXPEAPEADAEAPEAD@Z ; std::_Wrap_alloc<std::allocator<char> >::construct<char * __ptr64,char * __ptr64 & __ptr64>
PUBLIC	??$destroy@PEAD@?$_Wrap_alloc@V?$allocator@D@std@@@std@@QEAAXPEAPEAD@Z ; std::_Wrap_alloc<std::allocator<char> >::destroy<char * __ptr64>
PUBLIC	??$addressof@PEAD@std@@YAPEAPEADAEAPEAD@Z	; std::addressof<char * __ptr64>
PUBLIC	??$?0$$V@?$_Compressed_pair@U?$_Wrap_alloc@V?$allocator@D@std@@@std@@V?$_String_val@U?$_Simple_types@D@std@@@2@$00@std@@QEAA@U_Zero_then_variadic_args_t@1@@Z ; std::_Compressed_pair<std::_Wrap_alloc<std::allocator<char> >,std::_String_val<std::_Simple_types<char> >,1>::_Compressed_pair<std::_Wrap_alloc<std::allocator<char> >,std::_String_val<std::_Simple_types<char> >,1><>
PUBLIC	??$?0V?$allocator@D@std@@@?$_Wrap_alloc@V?$allocator@D@std@@@std@@QEAA@$$QEAV?$allocator@D@1@@Z ; std::_Wrap_alloc<std::allocator<char> >::_Wrap_alloc<std::allocator<char> ><std::allocator<char> >
PUBLIC	??$_Uninitialized_default_fill_n@PEAD_KV?$allocator@D@std@@@std@@YAPEADPEAD_KAEAU?$_Wrap_alloc@V?$allocator@D@std@@@0@@Z ; std::_Uninitialized_default_fill_n<char * __ptr64,unsigned __int64,std::allocator<char> >
PUBLIC	??$?0$$V@?$_Compressed_pair@U?$_Wrap_alloc@V?$allocator@D@std@@@std@@V?$_Vector_val@U?$_Simple_types@D@std@@@2@$00@std@@QEAA@U_Zero_then_variadic_args_t@1@@Z ; std::_Compressed_pair<std::_Wrap_alloc<std::allocator<char> >,std::_Vector_val<std::_Simple_types<char> >,1>::_Compressed_pair<std::_Wrap_alloc<std::allocator<char> >,std::_Vector_val<std::_Simple_types<char> >,1><>
PUBLIC	??$move@AEAV?$basic_string@DU?$char_traits@D@std@@V?$allocator@D@2@@std@@@std@@YA$$QEAV?$basic_string@DU?$char_traits@D@std@@V?$allocator@D@2@@0@AEAV10@@Z ; std::move<std::basic_string<char,std::char_traits<char>,std::allocator<char> > & __ptr64>
PUBLIC	??$?0U?$_Wrap_alloc@V?$allocator@D@std@@@std@@X@?$_String_alloc@U?$_String_base_types@DV?$allocator@D@std@@@std@@@std@@QEAA@$$QEAU?$_Wrap_alloc@V?$allocator@D@std@@@1@@Z ; std::_String_alloc<std::_String_base_types<char,std::allocator<char> > >::_String_alloc<std::_String_base_types<char,std::allocator<char> > ><std::_Wrap_alloc<std::allocator<char> >,void>
PUBLIC	??$move@AEAV?$vector@DV?$allocator@D@std@@@std@@@std@@YA$$QEAV?$vector@DV?$allocator@D@std@@@0@AEAV10@@Z ; std::move<std::vector<char,std::allocator<char> > & __ptr64>
PUBLIC	??$?0U?$_Wrap_alloc@V?$allocator@D@std@@@std@@X@?$_Vector_alloc@U?$_Vec_base_types@DV?$allocator@D@std@@@std@@@std@@QEAA@$$QEAU?$_Wrap_alloc@V?$allocator@D@std@@@1@@Z ; std::_Vector_alloc<std::_Vec_base_types<char,std::allocator<char> > >::_Vector_alloc<std::_Vec_base_types<char,std::allocator<char> > ><std::_Wrap_alloc<std::allocator<char> >,void>
PUBLIC	??$move@AEAU?$_Wrap_alloc@V?$allocator@D@std@@@std@@@std@@YA$$QEAU?$_Wrap_alloc@V?$allocator@D@std@@@0@AEAU10@@Z ; std::move<std::_Wrap_alloc<std::allocator<char> > & __ptr64>
PUBLIC	??$endl@DU?$char_traits@D@std@@@std@@YAAEAV?$basic_ostream@DU?$char_traits@D@std@@@0@AEAV10@@Z ; std::endl<char,std::char_traits<char> >
PUBLIC	??$?6U?$char_traits@D@std@@@std@@YAAEAV?$basic_ostream@DU?$char_traits@D@std@@@0@AEAV10@D@Z ; std::operator<<<std::char_traits<char> >
PUBLIC	??$_Immortalize@V_Iostream_error_category@std@@@std@@YAAEAV_Iostream_error_category@0@XZ ; std::_Immortalize<std::_Iostream_error_category>
PUBLIC	??$use_facet@V?$ctype@D@std@@@std@@YAAEBV?$ctype@D@0@AEBVlocale@0@@Z ; std::use_facet<std::ctype<char> >
PUBLIC	?max_size@?$allocator@D@std@@QEBA_KXZ		; std::allocator<char>::max_size
PUBLIC	?max_size@?$allocator_traits@V?$allocator@D@std@@@std@@SA_KAEBV?$allocator@D@2@@Z ; std::allocator_traits<std::allocator<char> >::max_size
PUBLIC	?allocate@?$allocator@D@std@@QEAAPEAD_K@Z	; std::allocator<char>::allocate
PUBLIC	?max_size@?$_Wrap_alloc@V?$allocator@D@std@@@std@@QEBA_KU_Nil@2@@Z ; std::_Wrap_alloc<std::allocator<char> >::max_size
PUBLIC	?max_size@?$basic_string@DU?$char_traits@D@std@@V?$allocator@D@2@@std@@QEBA_KXZ ; std::basic_string<char,std::char_traits<char>,std::allocator<char> >::max_size
PUBLIC	?allocate@?$_Wrap_alloc@V?$allocator@D@std@@@std@@QEAAPEAD_K@Z ; std::_Wrap_alloc<std::allocator<char> >::allocate
PUBLIC	??0?$allocator@D@std@@QEAA@AEBV01@@Z		; std::allocator<char>::allocator<char>
PUBLIC	?deallocate@?$allocator@D@std@@QEAAXPEAD_K@Z	; std::allocator<char>::deallocate
PUBLIC	?erase@?$basic_string@DU?$char_traits@D@std@@V?$allocator@D@2@@std@@QEAAAEAV12@_K@Z ; std::basic_string<char,std::char_traits<char>,std::allocator<char> >::erase
PUBLIC	?erase@?$basic_string@DU?$char_traits@D@std@@V?$allocator@D@2@@std@@QEAAAEAV12@_K0@Z ; std::basic_string<char,std::char_traits<char>,std::allocator<char> >::erase
PUBLIC	?_Copy@?$basic_string@DU?$char_traits@D@std@@V?$allocator@D@2@@std@@QEAAX_K@Z ; std::basic_string<char,std::char_traits<char>,std::allocator<char> >::_Copy
PUBLIC	?_Xran@?$basic_string@DU?$char_traits@D@std@@V?$allocator@D@2@@std@@SAXXZ ; std::basic_string<char,std::char_traits<char>,std::allocator<char> >::_Xran
PUBLIC	?_Orphan_all@?$_String_alloc@U?$_String_base_types@DV?$allocator@D@std@@@std@@@std@@QEAAXXZ ; std::_String_alloc<std::_String_base_types<char,std::allocator<char> > >::_Orphan_all
PUBLIC	?_Get_second@?$_Compressed_pair@U?$_Wrap_alloc@V?$allocator@D@std@@@std@@V?$_String_val@U?$_Simple_types@D@std@@@2@$00@std@@QEAAAEAV?$_String_val@U?$_Simple_types@D@std@@@2@XZ ; std::_Compressed_pair<std::_Wrap_alloc<std::allocator<char> >,std::_String_val<std::_Simple_types<char> >,1>::_Get_second
PUBLIC	?_Get_second@?$_Compressed_pair@U?$_Wrap_alloc@V?$allocator@D@std@@@std@@V?$_String_val@U?$_Simple_types@D@std@@@2@$00@std@@QEBAAEBV?$_String_val@U?$_Simple_types@D@std@@@2@XZ ; std::_Compressed_pair<std::_Wrap_alloc<std::allocator<char> >,std::_String_val<std::_Simple_types<char> >,1>::_Get_second
PUBLIC	?_Get_second@?$_Compressed_pair@U?$_Wrap_alloc@V?$allocator@D@std@@@std@@V?$_Vector_val@U?$_Simple_types@D@std@@@2@$00@std@@QEBAAEBV?$_Vector_val@U?$_Simple_types@D@std@@@2@XZ ; std::_Compressed_pair<std::_Wrap_alloc<std::allocator<char> >,std::_Vector_val<std::_Simple_types<char> >,1>::_Get_second
PUBLIC	?assign@?$basic_string@DU?$char_traits@D@std@@V?$allocator@D@2@@std@@QEAAAEAV12@AEBV12@_K_K@Z ; std::basic_string<char,std::char_traits<char>,std::allocator<char> >::assign
PUBLIC	?assign@?$basic_string@DU?$char_traits@D@std@@V?$allocator@D@2@@std@@QEAAAEAV12@QEBD_K@Z ; std::basic_string<char,std::char_traits<char>,std::allocator<char> >::assign
PUBLIC	?_Clamp_suffix_size@?$basic_string@DU?$char_traits@D@std@@V?$allocator@D@2@@std@@QEBA_K_K0@Z ; std::basic_string<char,std::char_traits<char>,std::allocator<char> >::_Clamp_suffix_size
PUBLIC	?_Eos@?$basic_string@DU?$char_traits@D@std@@V?$allocator@D@2@@std@@QEAAX_K@Z ; std::basic_string<char,std::char_traits<char>,std::allocator<char> >::_Eos
PUBLIC	?_Grow@?$basic_string@DU?$char_traits@D@std@@V?$allocator@D@2@@std@@QEAA_N_K@Z ; std::basic_string<char,std::char_traits<char>,std::allocator<char> >::_Grow
PUBLIC	?_Inside@?$basic_string@DU?$char_traits@D@std@@V?$allocator@D@2@@std@@QEBA_NQEBD@Z ; std::basic_string<char,std::char_traits<char>,std::allocator<char> >::_Inside
PUBLIC	?_Xlen@?$basic_string@DU?$char_traits@D@std@@V?$allocator@D@2@@std@@SAXXZ ; std::basic_string<char,std::char_traits<char>,std::allocator<char> >::_Xlen
PUBLIC	?_Check_offset@?$basic_string@DU?$char_traits@D@std@@V?$allocator@D@2@@std@@QEBAX_K@Z ; std::basic_string<char,std::char_traits<char>,std::allocator<char> >::_Check_offset
PUBLIC	?_Get_data@?$_String_alloc@U?$_String_base_types@DV?$allocator@D@std@@@std@@@std@@QEAAAEAV?$_String_val@U?$_Simple_types@D@std@@@2@XZ ; std::_String_alloc<std::_String_base_types<char,std::allocator<char> > >::_Get_data
PUBLIC	?_Get_data@?$_String_alloc@U?$_String_base_types@DV?$allocator@D@std@@@std@@@std@@QEBAAEBV?$_String_val@U?$_Simple_types@D@std@@@2@XZ ; std::_String_alloc<std::_String_base_types<char,std::allocator<char> > >::_Get_data
PUBLIC	?_Mysize@?$_String_alloc@U?$_String_base_types@DV?$allocator@D@std@@@std@@@std@@QEAAAEA_KXZ ; std::_String_alloc<std::_String_base_types<char,std::allocator<char> > >::_Mysize
PUBLIC	?_Myres@?$_String_alloc@U?$_String_base_types@DV?$allocator@D@std@@@std@@@std@@QEAAAEA_KXZ ; std::_String_alloc<std::_String_base_types<char,std::allocator<char> > >::_Myres
PUBLIC	?deallocate@?$_Wrap_alloc@V?$allocator@D@std@@@std@@QEAAXPEAD_K@Z ; std::_Wrap_alloc<std::allocator<char> >::deallocate
PUBLIC	?select_on_container_copy_construction@?$allocator_traits@V?$allocator@D@std@@@std@@SA?AV?$allocator@D@2@AEBV32@@Z ; std::allocator_traits<std::allocator<char> >::select_on_container_copy_construction
PUBLIC	?_Myptr@?$_String_val@U?$_Simple_types@D@std@@@std@@QEAAPEADXZ ; std::_String_val<std::_Simple_types<char> >::_Myptr
PUBLIC	?_Myptr@?$_String_val@U?$_Simple_types@D@std@@@std@@QEBAPEBDXZ ; std::_String_val<std::_Simple_types<char> >::_Myptr
PUBLIC	?_Large_string_engaged@?$_String_val@U?$_Simple_types@D@std@@@std@@QEBA_NXZ ; std::_String_val<std::_Simple_types<char> >::_Large_string_engaged
PUBLIC	?_Get_first@?$_Compressed_pair@U?$_Wrap_alloc@V?$allocator@D@std@@@std@@V?$_String_val@U?$_Simple_types@D@std@@@2@$00@std@@QEAAAEAU?$_Wrap_alloc@V?$allocator@D@std@@@2@XZ ; std::_Compressed_pair<std::_Wrap_alloc<std::allocator<char> >,std::_String_val<std::_Simple_types<char> >,1>::_Get_first
PUBLIC	?_Get_first@?$_Compressed_pair@U?$_Wrap_alloc@V?$allocator@D@std@@@std@@V?$_String_val@U?$_Simple_types@D@std@@@2@$00@std@@QEBAAEBU?$_Wrap_alloc@V?$allocator@D@std@@@2@XZ ; std::_Compressed_pair<std::_Wrap_alloc<std::allocator<char> >,std::_String_val<std::_Simple_types<char> >,1>::_Get_first
PUBLIC	?_Destroy@?$vector@DV?$allocator@D@std@@@std@@AEAAXPEAD0@Z ; std::vector<char,std::allocator<char> >::_Destroy
PUBLIC	?_Orphan_all@?$_Vector_alloc@U?$_Vec_base_types@DV?$allocator@D@std@@@std@@@std@@QEAAXXZ ; std::_Vector_alloc<std::_Vec_base_types<char,std::allocator<char> > >::_Orphan_all
PUBLIC	?_Swap_all@?$_Vector_alloc@U?$_Vec_base_types@DV?$allocator@D@std@@@std@@@std@@QEAAXAEAV12@@Z ; std::_Vector_alloc<std::_Vec_base_types<char,std::allocator<char> > >::_Swap_all
PUBLIC	?_Get_data@?$_Vector_alloc@U?$_Vec_base_types@DV?$allocator@D@std@@@std@@@std@@QEBAAEBV?$_Vector_val@U?$_Simple_types@D@std@@@2@XZ ; std::_Vector_alloc<std::_Vec_base_types<char,std::allocator<char> > >::_Get_data
PUBLIC	?_Myend@?$_Vector_alloc@U?$_Vec_base_types@DV?$allocator@D@std@@@std@@@std@@QEAAAEAPEADXZ ; std::_Vector_alloc<std::_Vec_base_types<char,std::allocator<char> > >::_Myend
PUBLIC	??0?$_Vector_const_iterator@V?$_Vector_val@U?$_Simple_types@D@std@@@std@@@std@@QEAA@PEADPEBU_Container_base0@1@@Z ; std::_Vector_const_iterator<std::_Vector_val<std::_Simple_types<char> > >::_Vector_const_iterator<std::_Vector_val<std::_Simple_types<char> > >
PUBLIC	?_Compat@?$_Vector_const_iterator@V?$_Vector_val@U?$_Simple_types@D@std@@@std@@@std@@QEBAXAEBV12@@Z ; std::_Vector_const_iterator<std::_Vector_val<std::_Simple_types<char> > >::_Compat
PUBLIC	?_Get_first@?$_Compressed_pair@U?$_Wrap_alloc@V?$allocator@D@std@@@std@@V?$_Vector_val@U?$_Simple_types@D@std@@@2@$00@std@@QEAAAEAU?$_Wrap_alloc@V?$allocator@D@std@@@2@XZ ; std::_Compressed_pair<std::_Wrap_alloc<std::allocator<char> >,std::_Vector_val<std::_Simple_types<char> >,1>::_Get_first
PUBLIC	?_Get_second@?$_Compressed_pair@U?$_Wrap_alloc@V?$allocator@D@std@@@std@@V?$_Vector_val@U?$_Simple_types@D@std@@@2@$00@std@@QEAAAEAV?$_Vector_val@U?$_Simple_types@D@std@@@2@XZ ; std::_Compressed_pair<std::_Wrap_alloc<std::allocator<char> >,std::_Vector_val<std::_Simple_types<char> >,1>::_Get_second
PUBLIC	?_Assign_rv_contents@?$basic_string@DU?$char_traits@D@std@@V?$allocator@D@2@@std@@QEAAX$$QEAV12@@Z ; std::basic_string<char,std::char_traits<char>,std::allocator<char> >::_Assign_rv_contents
PUBLIC	?_Assign_lv_contents@?$basic_string@DU?$char_traits@D@std@@V?$allocator@D@2@@std@@QEAAXAEBV12@@Z ; std::basic_string<char,std::char_traits<char>,std::allocator<char> >::_Assign_lv_contents
PUBLIC	?append@?$basic_string@DU?$char_traits@D@std@@V?$allocator@D@2@@std@@QEAAAEAV12@AEBV12@_K_K@Z ; std::basic_string<char,std::char_traits<char>,std::allocator<char> >::append
PUBLIC	?append@?$basic_string@DU?$char_traits@D@std@@V?$allocator@D@2@@std@@QEAAAEAV12@QEBD_K@Z ; std::basic_string<char,std::char_traits<char>,std::allocator<char> >::append
PUBLIC	?assign@?$basic_string@DU?$char_traits@D@std@@V?$allocator@D@2@@std@@QEAAAEAV12@QEBD@Z ; std::basic_string<char,std::char_traits<char>,std::allocator<char> >::assign
PUBLIC	?_Tidy_init@?$basic_string@DU?$char_traits@D@std@@V?$allocator@D@2@@std@@QEAAXXZ ; std::basic_string<char,std::char_traits<char>,std::allocator<char> >::_Tidy_init
PUBLIC	?_Tidy_deallocate_only@?$basic_string@DU?$char_traits@D@std@@V?$allocator@D@2@@std@@QEAAXXZ ; std::basic_string<char,std::char_traits<char>,std::allocator<char> >::_Tidy_deallocate_only
PUBLIC	?_Myptr@?$_String_alloc@U?$_String_base_types@DV?$allocator@D@std@@@std@@@std@@QEAAPEADXZ ; std::_String_alloc<std::_String_base_types<char,std::allocator<char> > >::_Myptr
PUBLIC	?_Myptr@?$_String_alloc@U?$_String_base_types@DV?$allocator@D@std@@@std@@@std@@QEBAPEBDXZ ; std::_String_alloc<std::_String_base_types<char,std::allocator<char> > >::_Myptr
PUBLIC	??0?$_String_alloc@U?$_String_base_types@DV?$allocator@D@std@@@std@@@std@@QEAA@XZ ; std::_String_alloc<std::_String_base_types<char,std::allocator<char> > >::_String_alloc<std::_String_base_types<char,std::allocator<char> > >
PUBLIC	?_Getal@?$_String_alloc@U?$_String_base_types@DV?$allocator@D@std@@@std@@@std@@QEAAAEAU?$_Wrap_alloc@V?$allocator@D@std@@@2@XZ ; std::_String_alloc<std::_String_base_types<char,std::allocator<char> > >::_Getal
PUBLIC	?_Getal@?$_String_alloc@U?$_String_base_types@DV?$allocator@D@std@@@std@@@std@@QEBAAEBU?$_Wrap_alloc@V?$allocator@D@std@@@2@XZ ; std::_String_alloc<std::_String_base_types<char,std::allocator<char> > >::_Getal
PUBLIC	?_Mysize@?$_String_alloc@U?$_String_base_types@DV?$allocator@D@std@@@std@@@std@@QEBAAEB_KXZ ; std::_String_alloc<std::_String_base_types<char,std::allocator<char> > >::_Mysize
PUBLIC	?select_on_container_copy_construction@?$_Wrap_alloc@V?$allocator@D@std@@@std@@QEBA?AU12@U_Nil@2@@Z ; std::_Wrap_alloc<std::allocator<char> >::select_on_container_copy_construction
PUBLIC	??1_Bxty@?$_String_val@U?$_Simple_types@D@std@@@std@@QEAA@XZ ; std::_String_val<std::_Simple_types<char> >::_Bxty::~_Bxty
PUBLIC	?_Tidy@?$_Yarn@D@std@@AEAAXXZ			; std::_Yarn<char>::_Tidy
PUBLIC	?_Tidy@?$_Yarn@_W@std@@AEAAXXZ			; std::_Yarn<wchar_t>::_Tidy
PUBLIC	?_Move_from@?$vector@DV?$allocator@D@std@@@std@@AEAAX$$QEAV12@U?$integral_constant@_N$00@2@@Z ; std::vector<char,std::allocator<char> >::_Move_from
PUBLIC	?_Udefault@?$vector@DV?$allocator@D@std@@@std@@AEAAPEADPEAD_K@Z ; std::vector<char,std::allocator<char> >::_Udefault
PUBLIC	?_Tidy@?$vector@DV?$allocator@D@std@@@std@@AEAAXXZ ; std::vector<char,std::allocator<char> >::_Tidy
PUBLIC	??0?$_Vector_alloc@U?$_Vec_base_types@DV?$allocator@D@std@@@std@@@std@@QEAA@XZ ; std::_Vector_alloc<std::_Vec_base_types<char,std::allocator<char> > >::_Vector_alloc<std::_Vec_base_types<char,std::allocator<char> > >
PUBLIC	?_Getal@?$_Vector_alloc@U?$_Vec_base_types@DV?$allocator@D@std@@@std@@@std@@QEAAAEAU?$_Wrap_alloc@V?$allocator@D@std@@@2@XZ ; std::_Vector_alloc<std::_Vec_base_types<char,std::allocator<char> > >::_Getal
PUBLIC	?_Get_data@?$_Vector_alloc@U?$_Vec_base_types@DV?$allocator@D@std@@@std@@@std@@QEAAAEAV?$_Vector_val@U?$_Simple_types@D@std@@@2@XZ ; std::_Vector_alloc<std::_Vec_base_types<char,std::allocator<char> > >::_Get_data
PUBLIC	?_Myfirst@?$_Vector_alloc@U?$_Vec_base_types@DV?$allocator@D@std@@@std@@@std@@QEAAAEAPEADXZ ; std::_Vector_alloc<std::_Vec_base_types<char,std::allocator<char> > >::_Myfirst
PUBLIC	?_Myfirst@?$_Vector_alloc@U?$_Vec_base_types@DV?$allocator@D@std@@@std@@@std@@QEBAAEBQEADXZ ; std::_Vector_alloc<std::_Vec_base_types<char,std::allocator<char> > >::_Myfirst
PUBLIC	?_Mylast@?$_Vector_alloc@U?$_Vec_base_types@DV?$allocator@D@std@@@std@@@std@@QEAAAEAPEADXZ ; std::_Vector_alloc<std::_Vec_base_types<char,std::allocator<char> > >::_Mylast
PUBLIC	?_Mylast@?$_Vector_alloc@U?$_Vec_base_types@DV?$allocator@D@std@@@std@@@std@@QEBAAEBQEADXZ ; std::_Vector_alloc<std::_Vec_base_types<char,std::allocator<char> > >::_Mylast
PUBLIC	??0?$_Vector_iterator@V?$_Vector_val@U?$_Simple_types@D@std@@@std@@@std@@QEAA@PEADPEBU_Container_base0@1@@Z ; std::_Vector_iterator<std::_Vector_val<std::_Simple_types<char> > >::_Vector_iterator<std::_Vector_val<std::_Simple_types<char> > >
PUBLIC	??D?$_Vector_const_iterator@V?$_Vector_val@U?$_Simple_types@D@std@@@std@@@std@@QEBAAEBDXZ ; std::_Vector_const_iterator<std::_Vector_val<std::_Simple_types<char> > >::operator*
PUBLIC	??E?$_Vector_const_iterator@V?$_Vector_val@U?$_Simple_types@D@std@@@std@@@std@@QEAAAEAV01@XZ ; std::_Vector_const_iterator<std::_Vector_val<std::_Simple_types<char> > >::operator++
PUBLIC	??8?$_Vector_const_iterator@V?$_Vector_val@U?$_Simple_types@D@std@@@std@@@std@@QEBA_NAEBV01@@Z ; std::_Vector_const_iterator<std::_Vector_val<std::_Simple_types<char> > >::operator==
PUBLIC	??1?$_String_val@U?$_Simple_types@D@std@@@std@@QEAA@XZ ; std::_String_val<std::_Simple_types<char> >::~_String_val<std::_Simple_types<char> >
PUBLIC	??1?$_Compressed_pair@U?$_Wrap_alloc@V?$allocator@D@std@@@std@@V?$_String_val@U?$_Simple_types@D@std@@@2@$00@std@@QEAA@XZ ; std::_Compressed_pair<std::_Wrap_alloc<std::allocator<char> >,std::_String_val<std::_Simple_types<char> >,1>::~_Compressed_pair<std::_Wrap_alloc<std::allocator<char> >,std::_String_val<std::_Simple_types<char> >,1>
PUBLIC	??1?$_String_alloc@U?$_String_base_types@DV?$allocator@D@std@@@std@@@std@@QEAA@XZ ; std::_String_alloc<std::_String_base_types<char,std::allocator<char> > >::~_String_alloc<std::_String_base_types<char,std::allocator<char> > >
PUBLIC	??6?$basic_ostream@DU?$char_traits@D@std@@@std@@QEAAAEAV01@P6AAEAV01@AEAV01@@Z@Z ; std::basic_ostream<char,std::char_traits<char> >::operator<<
PUBLIC	??0?$basic_string@DU?$char_traits@D@std@@V?$allocator@D@2@@std@@QEAA@AEBV01@@Z ; std::basic_string<char,std::char_traits<char>,std::allocator<char> >::basic_string<char,std::char_traits<char>,std::allocator<char> >
PUBLIC	??0?$basic_string@DU?$char_traits@D@std@@V?$allocator@D@2@@std@@QEAA@QEBD@Z ; std::basic_string<char,std::char_traits<char>,std::allocator<char> >::basic_string<char,std::char_traits<char>,std::allocator<char> >
PUBLIC	??0?$basic_string@DU?$char_traits@D@std@@V?$allocator@D@2@@std@@QEAA@$$QEAV01@@Z ; std::basic_string<char,std::char_traits<char>,std::allocator<char> >::basic_string<char,std::char_traits<char>,std::allocator<char> >
PUBLIC	??1?$basic_string@DU?$char_traits@D@std@@V?$allocator@D@2@@std@@QEAA@XZ ; std::basic_string<char,std::char_traits<char>,std::allocator<char> >::~basic_string<char,std::char_traits<char>,std::allocator<char> >
PUBLIC	?append@?$basic_string@DU?$char_traits@D@std@@V?$allocator@D@2@@std@@QEAAAEAV12@AEBV12@@Z ; std::basic_string<char,std::char_traits<char>,std::allocator<char> >::append
PUBLIC	?append@?$basic_string@DU?$char_traits@D@std@@V?$allocator@D@2@@std@@QEAAAEAV12@QEBD@Z ; std::basic_string<char,std::char_traits<char>,std::allocator<char> >::append
PUBLIC	?c_str@?$basic_string@DU?$char_traits@D@std@@V?$allocator@D@2@@std@@QEBAPEBDXZ ; std::basic_string<char,std::char_traits<char>,std::allocator<char> >::c_str
PUBLIC	?empty@?$basic_string@DU?$char_traits@D@std@@V?$allocator@D@2@@std@@QEBA_NXZ ; std::basic_string<char,std::char_traits<char>,std::allocator<char> >::empty
PUBLIC	??0?$_Yarn@D@std@@QEAA@XZ			; std::_Yarn<char>::_Yarn<char>
PUBLIC	??1?$_Yarn@D@std@@QEAA@XZ			; std::_Yarn<char>::~_Yarn<char>
PUBLIC	?c_str@?$_Yarn@D@std@@QEBAPEBDXZ		; std::_Yarn<char>::c_str
PUBLIC	??0?$_Yarn@_W@std@@QEAA@XZ			; std::_Yarn<wchar_t>::_Yarn<wchar_t>
PUBLIC	??1?$_Yarn@_W@std@@QEAA@XZ			; std::_Yarn<wchar_t>::~_Yarn<wchar_t>
PUBLIC	??0?$vector@DV?$allocator@D@std@@@std@@QEAA@XZ	; std::vector<char,std::allocator<char> >::vector<char,std::allocator<char> >
PUBLIC	??0?$vector@DV?$allocator@D@std@@@std@@QEAA@$$QEAV01@@Z ; std::vector<char,std::allocator<char> >::vector<char,std::allocator<char> >
PUBLIC	??1?$vector@DV?$allocator@D@std@@@std@@QEAA@XZ	; std::vector<char,std::allocator<char> >::~vector<char,std::allocator<char> >
PUBLIC	?resize@?$vector@DV?$allocator@D@std@@@std@@QEAAX_K@Z ; std::vector<char,std::allocator<char> >::resize
PUBLIC	?begin@?$vector@DV?$allocator@D@std@@@std@@QEAA?AV?$_Vector_iterator@V?$_Vector_val@U?$_Simple_types@D@std@@@std@@@2@XZ ; std::vector<char,std::allocator<char> >::begin
PUBLIC	?end@?$vector@DV?$allocator@D@std@@@std@@QEAA?AV?$_Vector_iterator@V?$_Vector_val@U?$_Simple_types@D@std@@@std@@@2@XZ ; std::vector<char,std::allocator<char> >::end
PUBLIC	?size@?$vector@DV?$allocator@D@std@@@std@@QEBA_KXZ ; std::vector<char,std::allocator<char> >::size
PUBLIC	??A?$vector@DV?$allocator@D@std@@@std@@QEAAAEAD_K@Z ; std::vector<char,std::allocator<char> >::operator[]
PUBLIC	??D?$_Vector_iterator@V?$_Vector_val@U?$_Simple_types@D@std@@@std@@@std@@QEBAAEADXZ ; std::_Vector_iterator<std::_Vector_val<std::_Simple_types<char> > >::operator*
PUBLIC	??E?$_Vector_iterator@V?$_Vector_val@U?$_Simple_types@D@std@@@std@@@std@@QEAAAEAV01@XZ ; std::_Vector_iterator<std::_Vector_val<std::_Simple_types<char> > >::operator++
PUBLIC	??9?$_Vector_const_iterator@V?$_Vector_val@U?$_Simple_types@D@std@@@std@@@std@@QEBA_NAEBV01@@Z ; std::_Vector_const_iterator<std::_Vector_val<std::_Simple_types<char> > >::operator!=
PUBLIC	main
PUBLIC	?setVector@@YA?AV?$vector@DV?$allocator@D@std@@@std@@D@Z ; setVector
PUBLIC	??0_System_error@std@@QEAA@AEBV01@@Z		; std::_System_error::_System_error
PUBLIC	??0system_error@std@@QEAA@AEBV01@@Z		; std::system_error::system_error
PUBLIC	??0failure@ios_base@std@@QEAA@AEBV012@@Z	; std::ios_base::failure::failure
PUBLIC	??1failure@ios_base@std@@UEAA@XZ		; std::ios_base::failure::~failure
PUBLIC	??_Gfailure@ios_base@std@@UEAAPEAXI@Z		; std::ios_base::failure::`scalar deleting destructor'
PUBLIC	?getloc@ios_base@std@@QEBA?AVlocale@2@XZ	; std::ios_base::getloc
PUBLIC	?width@ios_base@std@@QEAA_J_J@Z			; std::ios_base::width
PUBLIC	?width@ios_base@std@@QEBA_JXZ			; std::ios_base::width
PUBLIC	?flags@ios_base@std@@QEBAHXZ			; std::ios_base::flags
PUBLIC	?good@ios_base@std@@QEBA_NXZ			; std::ios_base::good
PUBLIC	?rdstate@ios_base@std@@QEBAHXZ			; std::ios_base::rdstate
PUBLIC	?clear@ios_base@std@@QEAAXH_N@Z			; std::ios_base::clear
PUBLIC	??0failure@ios_base@std@@QEAA@PEBDAEBVerror_code@2@@Z ; std::ios_base::failure::failure
PUBLIC	?iostream_category@std@@YAAEBVerror_category@1@XZ ; std::iostream_category
PUBLIC	??1_Iostream_error_category@std@@UEAA@XZ	; std::_Iostream_error_category::~_Iostream_error_category
PUBLIC	??_G_Iostream_error_category@std@@UEAAPEAXI@Z	; std::_Iostream_error_category::`scalar deleting destructor'
PUBLIC	?message@_Iostream_error_category@std@@UEBA?AV?$basic_string@DU?$char_traits@D@std@@V?$allocator@D@2@@2@H@Z ; std::_Iostream_error_category::message
PUBLIC	?name@_Iostream_error_category@std@@UEBAPEBDXZ	; std::_Iostream_error_category::name
PUBLIC	??0_Iostream_error_category@std@@QEAA@XZ	; std::_Iostream_error_category::_Iostream_error_category
PUBLIC	??1_Generic_error_category@std@@UEAA@XZ		; std::_Generic_error_category::~_Generic_error_category
PUBLIC	??_G_Generic_error_category@std@@UEAAPEAXI@Z	; std::_Generic_error_category::`scalar deleting destructor'
PUBLIC	?message@_Generic_error_category@std@@UEBA?AV?$basic_string@DU?$char_traits@D@std@@V?$allocator@D@2@@2@H@Z ; std::_Generic_error_category::message
PUBLIC	?name@_Generic_error_category@std@@UEBAPEBDXZ	; std::_Generic_error_category::name
PUBLIC	??0_Generic_error_category@std@@QEAA@XZ		; std::_Generic_error_category::_Generic_error_category
PUBLIC	??1system_error@std@@UEAA@XZ			; std::system_error::~system_error
PUBLIC	??_Gsystem_error@std@@UEAAPEAXI@Z		; std::system_error::`scalar deleting destructor'
PUBLIC	??0system_error@std@@QEAA@Verror_code@1@PEBD@Z	; std::system_error::system_error
PUBLIC	??1_System_error@std@@UEAA@XZ			; std::_System_error::~_System_error
PUBLIC	??_G_System_error@std@@UEAAPEAXI@Z		; std::_System_error::`scalar deleting destructor'
PUBLIC	??0_System_error@std@@IEAA@Verror_code@1@AEBV?$basic_string@DU?$char_traits@D@std@@V?$allocator@D@2@@1@@Z ; std::_System_error::_System_error
PUBLIC	?_Makestr@_System_error@std@@CA?AV?$basic_string@DU?$char_traits@D@std@@V?$allocator@D@2@@2@Verror_code@2@V32@@Z ; std::_System_error::_Makestr
PUBLIC	?make_error_code@std@@YA?AVerror_code@1@W4io_errc@1@@Z ; std::make_error_code
PUBLIC	?equivalent@error_category@std@@UEBA_NAEBVerror_code@2@H@Z ; std::error_category::equivalent
PUBLIC	?equivalent@error_category@std@@UEBA_NHAEBVerror_condition@2@@Z ; std::error_category::equivalent
PUBLIC	?default_error_condition@error_category@std@@UEBA?AVerror_condition@2@H@Z ; std::error_category::default_error_condition
PUBLIC	??8std@@YA_NAEBVerror_condition@0@0@Z		; std::operator==
PUBLIC	?category@error_condition@std@@QEBAAEBVerror_category@2@XZ ; std::error_condition::category
PUBLIC	?value@error_condition@std@@QEBAHXZ		; std::error_condition::value
PUBLIC	??0error_condition@std@@QEAA@HAEBVerror_category@1@@Z ; std::error_condition::error_condition
PUBLIC	?message@error_code@std@@QEBA?AV?$basic_string@DU?$char_traits@D@std@@V?$allocator@D@2@@2@XZ ; std::error_code::message
PUBLIC	?category@error_code@std@@QEBAAEBVerror_category@2@XZ ; std::error_code::category
PUBLIC	?value@error_code@std@@QEBAHXZ			; std::error_code::value
PUBLIC	??0error_code@std@@QEAA@HAEBVerror_category@1@@Z ; std::error_code::error_code
PUBLIC	??_Gerror_category@std@@UEAAPEAXI@Z		; std::error_category::`scalar deleting destructor'
PUBLIC	??8error_category@std@@QEBA_NAEBV01@@Z		; std::error_category::operator==
PUBLIC	??1error_category@std@@UEAA@XZ			; std::error_category::~error_category
PUBLIC	??0error_category@std@@QEAA@XZ			; std::error_category::error_category
PUBLIC	??_G?$ctype@D@std@@MEAAPEAXI@Z			; std::ctype<char>::`scalar deleting destructor'
PUBLIC	?do_narrow@?$ctype@D@std@@MEBAPEBDPEBD0DPEAD@Z	; std::ctype<char>::do_narrow
PUBLIC	?do_narrow@?$ctype@D@std@@MEBADDD@Z		; std::ctype<char>::do_narrow
PUBLIC	?do_widen@?$ctype@D@std@@MEBAPEBDPEBD0PEAD@Z	; std::ctype<char>::do_widen
PUBLIC	?do_widen@?$ctype@D@std@@MEBADD@Z		; std::ctype<char>::do_widen
PUBLIC	?do_toupper@?$ctype@D@std@@MEBAPEBDPEADPEBD@Z	; std::ctype<char>::do_toupper
PUBLIC	?do_toupper@?$ctype@D@std@@MEBADD@Z		; std::ctype<char>::do_toupper
PUBLIC	?do_tolower@?$ctype@D@std@@MEBAPEBDPEADPEBD@Z	; std::ctype<char>::do_tolower
PUBLIC	?do_tolower@?$ctype@D@std@@MEBADD@Z		; std::ctype<char>::do_tolower
PUBLIC	?_Tidy@?$ctype@D@std@@IEAAXXZ			; std::ctype<char>::_Tidy
PUBLIC	?_Init@?$ctype@D@std@@IEAAXAEBV_Locinfo@2@@Z	; std::ctype<char>::_Init
PUBLIC	??1?$ctype@D@std@@MEAA@XZ			; std::ctype<char>::~ctype<char>
PUBLIC	?_Getcat@?$ctype@D@std@@SA_KPEAPEBVfacet@locale@2@PEBV42@@Z ; std::ctype<char>::_Getcat
PUBLIC	??0?$ctype@D@std@@QEAA@AEBV_Locinfo@1@_K@Z	; std::ctype<char>::ctype<char>
PUBLIC	?widen@?$ctype@D@std@@QEBADD@Z			; std::ctype<char>::widen
PUBLIC	??_Gctype_base@std@@UEAAPEAXI@Z			; std::ctype_base::`scalar deleting destructor'
PUBLIC	??1ctype_base@std@@UEAA@XZ			; std::ctype_base::~ctype_base
PUBLIC	??0ctype_base@std@@QEAA@_K@Z			; std::ctype_base::ctype_base
PUBLIC	??0_Facet_base@std@@QEAA@XZ			; std::_Facet_base::_Facet_base
PUBLIC	??_Gfacet@locale@std@@MEAAPEAXI@Z		; std::locale::facet::`scalar deleting destructor'
PUBLIC	?_Getfacet@locale@std@@QEBAPEBVfacet@12@_K@Z	; std::locale::_Getfacet
PUBLIC	?c_str@locale@std@@QEBAPEBDXZ			; std::locale::c_str
PUBLIC	??1locale@std@@QEAA@XZ				; std::locale::~locale
PUBLIC	??0locale@std@@QEAA@AEBV01@@Z			; std::locale::locale
PUBLIC	??1facet@locale@std@@MEAA@XZ			; std::locale::facet::~facet
PUBLIC	??0facet@locale@std@@IEAA@_K@Z			; std::locale::facet::facet
PUBLIC	?_Decref@facet@locale@std@@UEAAPEAV_Facet_base@3@XZ ; std::locale::facet::_Decref
PUBLIC	?_Incref@facet@locale@std@@UEAAXXZ		; std::locale::facet::_Incref
PUBLIC	??Bid@locale@std@@QEAA_KXZ			; std::locale::id::operator unsigned __int64
PUBLIC	??_G_Facet_base@std@@UEAAPEAXI@Z		; std::_Facet_base::`scalar deleting destructor'
PUBLIC	??1_Facet_base@std@@UEAA@XZ			; std::_Facet_base::~_Facet_base
PUBLIC	??0runtime_error@std@@QEAA@AEBV01@@Z		; std::runtime_error::runtime_error
PUBLIC	?_Getctype@_Locinfo@std@@QEBA?AU_Ctypevec@@XZ	; std::_Locinfo::_Getctype
PUBLIC	??1_Locinfo@std@@QEAA@XZ			; std::_Locinfo::~_Locinfo
PUBLIC	??0_Locinfo@std@@QEAA@PEBD@Z			; std::_Locinfo::_Locinfo
PUBLIC	??1bad_cast@std@@UEAA@XZ			; std::bad_cast::~bad_cast
PUBLIC	??_Gbad_cast@std@@UEAAPEAXI@Z			; std::bad_cast::`scalar deleting destructor'
PUBLIC	??0bad_cast@std@@QEAA@XZ			; std::bad_cast::bad_cast
PUBLIC	??1runtime_error@std@@UEAA@XZ			; std::runtime_error::~runtime_error
PUBLIC	??_Gruntime_error@std@@UEAAPEAXI@Z		; std::runtime_error::`scalar deleting destructor'
PUBLIC	??0runtime_error@std@@QEAA@PEBD@Z		; std::runtime_error::runtime_error
PUBLIC	??0runtime_error@std@@QEAA@AEBV?$basic_string@DU?$char_traits@D@std@@V?$allocator@D@2@@1@@Z ; std::runtime_error::runtime_error
PUBLIC	?_Deallocate@std@@YAXPEAX_K1@Z			; std::_Deallocate
PUBLIC	?_Allocate@std@@YAPEAX_K0_N@Z			; std::_Allocate
PUBLIC	?_Adopt@_Iterator_base0@std@@QEAAXPEBX@Z	; std::_Iterator_base0::_Adopt
PUBLIC	?_Swap_all@_Container_base0@std@@QEAAXAEAU12@@Z	; std::_Container_base0::_Swap_all
PUBLIC	?_Orphan_all@_Container_base0@std@@QEAAXXZ	; std::_Container_base0::_Orphan_all
PUBLIC	?eof@?$char_traits@D@std@@SAHXZ			; std::char_traits<char>::eof
PUBLIC	?eq_int_type@?$char_traits@D@std@@SA_NAEBH0@Z	; std::char_traits<char>::eq_int_type
PUBLIC	?to_int_type@?$char_traits@D@std@@SAHAEBD@Z	; std::char_traits<char>::to_int_type
PUBLIC	?assign@?$char_traits@D@std@@SAXAEADAEBD@Z	; std::char_traits<char>::assign
PUBLIC	?move@?$char_traits@D@std@@SAPEADQEADQEBD_K@Z	; std::char_traits<char>::move
PUBLIC	?copy@?$char_traits@D@std@@SAPEADQEADQEBD_K@Z	; std::char_traits<char>::copy
PUBLIC	?length@?$char_traits@D@std@@SA_KQEBD@Z		; std::char_traits<char>::length
PUBLIC	??2@YAPEAX_KPEAX@Z				; operator new
PUBLIC	??_Gexception@std@@UEAAPEAXI@Z			; std::exception::`scalar deleting destructor'
PUBLIC	?what@exception@std@@UEBAPEBDXZ			; std::exception::what
PUBLIC	??1exception@std@@UEAA@XZ			; std::exception::~exception
PUBLIC	??0exception@std@@QEAA@AEBV01@@Z		; std::exception::exception
PUBLIC	??0exception@std@@QEAA@QEBDH@Z			; std::exception::exception
PUBLIC	??0exception@std@@QEAA@QEBD@Z			; std::exception::exception
PUBLIC	?$TSS0@?1???$_Immortalize@V_Iostream_error_category@std@@@std@@YAAEAV_Iostream_error_category@1@XZ@4HA ; TSS0<`template-parameter-2',unsigned int,std::V_Iostream_error_category::mortalize>
PUBLIC	?_Static@?1???$_Immortalize@V_Iostream_error_category@std@@@std@@YAAEAV_Iostream_error_category@1@XZ@4U?$_Immortalizer@V_Iostream_error_category@std@@@1@A ; `std::_Immortalize<std::_Iostream_error_category>'::`2'::_Static
EXTRN	??_Ebad_cast@std@@UEAAPEAXI@Z:PROC		; std::bad_cast::`vector deleting destructor'
EXTRN	??_Efacet@locale@std@@MEAAPEAXI@Z:PROC		; std::locale::facet::`vector deleting destructor'
EXTRN	??_E_System_error@std@@UEAAPEAXI@Z:PROC		; std::_System_error::`vector deleting destructor'
EXTRN	??_Eexception@std@@UEAAPEAXI@Z:PROC		; std::exception::`vector deleting destructor'
EXTRN	??_Efailure@ios_base@std@@UEAAPEAXI@Z:PROC	; std::ios_base::failure::`vector deleting destructor'
EXTRN	??_E?$ctype@D@std@@MEAAPEAXI@Z:PROC		; std::ctype<char>::`vector deleting destructor'
EXTRN	??_E_Iostream_error_category@std@@UEAAPEAXI@Z:PROC ; std::_Iostream_error_category::`vector deleting destructor'
EXTRN	??_Esystem_error@std@@UEAAPEAXI@Z:PROC		; std::system_error::`vector deleting destructor'
EXTRN	??_Eruntime_error@std@@UEAAPEAXI@Z:PROC		; std::runtime_error::`vector deleting destructor'
EXTRN	??_Ectype_base@std@@UEAAPEAXI@Z:PROC		; std::ctype_base::`vector deleting destructor'
EXTRN	??_Eerror_category@std@@UEAAPEAXI@Z:PROC	; std::error_category::`vector deleting destructor'
EXTRN	??_E_Facet_base@std@@UEAAPEAXI@Z:PROC		; std::_Facet_base::`vector deleting destructor'
EXTRN	??_E_Generic_error_category@std@@UEAAPEAXI@Z:PROC ; std::_Generic_error_category::`vector deleting destructor'
EXTRN	_CxxThrowException:PROC
EXTRN	__GSHandlerCheck:PROC
EXTRN	__GSHandlerCheck_EH:PROC
EXTRN	memcpy:PROC
EXTRN	memset:PROC
EXTRN	__security_cookie:QWORD
EXTRN	_tls_index:DWORD
;	COMDAT ?$TSS0@?1???$_Immortalize@V_Iostream_error_category@std@@@std@@YAAEAV_Iostream_error_category@1@XZ@4HA
_BSS	SEGMENT
?$TSS0@?1???$_Immortalize@V_Iostream_error_category@std@@@std@@YAAEAV_Iostream_error_category@1@XZ@4HA DD 01H DUP (?) ; TSS0<`template-parameter-2',unsigned int,std::V_Iostream_error_category::mortalize>
_BSS	ENDS
;	COMDAT ?_Static@?1???$_Immortalize@V_Iostream_error_category@std@@@std@@YAAEAV_Iostream_error_category@1@XZ@4U?$_Immortalizer@V_Iostream_error_category@std@@@1@A
_BSS	SEGMENT
?_Static@?1???$_Immortalize@V_Iostream_error_category@std@@@std@@YAAEAV_Iostream_error_category@1@XZ@4U?$_Immortalizer@V_Iostream_error_category@std@@@1@A DB 010H DUP (?) ; `std::_Immortalize<std::_Iostream_error_category>'::`2'::_Static
_BSS	ENDS
;	COMDAT pdata
pdata	SEGMENT
$pdata$??$_Copy_memmove@PEADPEAD@std@@YAPEADPEAD00@Z DD imagerel $LN4
	DD	imagerel $LN4+48
	DD	imagerel $unwind$??$_Copy_memmove@PEADPEAD@std@@YAPEADPEAD00@Z
pdata	ENDS
;	COMDAT pdata
pdata	SEGMENT
$pdata$??$_Uninitialized_move_al_unchecked1@DDV?$allocator@D@std@@@std@@YAPEADPEAD00AEAU?$_Wrap_alloc@V?$allocator@D@std@@@0@U_Really_trivial_ptr_iterator_tag@0@U?$integral_constant@_N$00@0@@Z DD imagerel $LN6
	DD	imagerel $LN6+48
	DD	imagerel $unwind$??$_Uninitialized_move_al_unchecked1@DDV?$allocator@D@std@@@std@@YAPEADPEAD00AEAU?$_Wrap_alloc@V?$allocator@D@std@@@0@U_Really_trivial_ptr_iterator_tag@0@U?$integral_constant@_N$00@0@@Z
pdata	ENDS
;	COMDAT pdata
pdata	SEGMENT
$pdata$??$_Uninitialized_move_al_unchecked@PEADPEADV?$allocator@D@std@@@std@@YAPEADPEAD00AEAU?$_Wrap_alloc@V?$allocator@D@std@@@0@@Z DD imagerel $LN10
	DD	imagerel $LN10+48
	DD	imagerel $unwind$??$_Uninitialized_move_al_unchecked@PEADPEADV?$allocator@D@std@@@std@@YAPEADPEAD00AEAU?$_Wrap_alloc@V?$allocator@D@std@@@0@@Z
pdata	ENDS
;	COMDAT pdata
pdata	SEGMENT
$pdata$??$_Uninitialized_move@PEADPEADV?$allocator@D@std@@@std@@YAPEADPEAD00AEAU?$_Wrap_alloc@V?$allocator@D@std@@@0@@Z DD imagerel $LN20
	DD	imagerel $LN20+48
	DD	imagerel $unwind$??$_Uninitialized_move@PEADPEADV?$allocator@D@std@@@std@@YAPEADPEAD00AEAU?$_Wrap_alloc@V?$allocator@D@std@@@0@@Z
pdata	ENDS
;	COMDAT pdata
pdata	SEGMENT
$pdata$??$_Uninitialized_default_fill_n1@PEAD_KV?$allocator@D@std@@@std@@YAPEADPEAD_KAEAU?$_Wrap_alloc@V?$allocator@D@std@@@0@U?$integral_constant@_N$00@0@@Z DD imagerel $LN4
	DD	imagerel $LN4+41
	DD	imagerel $unwind$??$_Uninitialized_default_fill_n1@PEAD_KV?$allocator@D@std@@@std@@YAPEADPEAD_KAEAU?$_Wrap_alloc@V?$allocator@D@std@@@0@U?$integral_constant@_N$00@0@@Z
pdata	ENDS
;	COMDAT pdata
pdata	SEGMENT
$pdata$?_Osfx@?$basic_ostream@DU?$char_traits@D@std@@@std@@QEAAXXZ DD imagerel $LN44
	DD	imagerel $LN44+275
	DD	imagerel $unwind$?_Osfx@?$basic_ostream@DU?$char_traits@D@std@@@std@@QEAAXXZ
pdata	ENDS
;	COMDAT pdata
pdata	SEGMENT
$pdata$?catch$0@?0??_Osfx@?$basic_ostream@DU?$char_traits@D@std@@@std@@QEAAXXZ@4HA DD imagerel ?catch$0@?0??_Osfx@?$basic_ostream@DU?$char_traits@D@std@@@std@@QEAAXXZ@4HA
	DD	imagerel ?catch$0@?0??_Osfx@?$basic_ostream@DU?$char_traits@D@std@@@std@@QEAAXXZ@4HA+27
	DD	imagerel $unwind$?catch$0@?0??_Osfx@?$basic_ostream@DU?$char_traits@D@std@@@std@@QEAAXXZ@4HA
pdata	ENDS
;	COMDAT pdata
pdata	SEGMENT
$pdata$??0_Sentry_base@?$basic_ostream@DU?$char_traits@D@std@@@std@@QEAA@AEAV12@@Z DD imagerel $LN10
	DD	imagerel $LN10+44
	DD	imagerel $unwind$??0_Sentry_base@?$basic_ostream@DU?$char_traits@D@std@@@std@@QEAA@AEAV12@@Z
pdata	ENDS
;	COMDAT pdata
pdata	SEGMENT
$pdata$??1_Sentry_base@?$basic_ostream@DU?$char_traits@D@std@@@std@@QEAA@XZ DD imagerel $LN8
	DD	imagerel $LN8+45
	DD	imagerel $unwind$??1_Sentry_base@?$basic_ostream@DU?$char_traits@D@std@@@std@@QEAA@XZ
pdata	ENDS
;	COMDAT pdata
pdata	SEGMENT
$pdata$?widen@?$basic_ios@DU?$char_traits@D@std@@@std@@QEBADD@Z DD imagerel $LN16
	DD	imagerel $LN16+121
	DD	imagerel $unwind$?widen@?$basic_ios@DU?$char_traits@D@std@@@std@@QEBADD@Z
pdata	ENDS
;	COMDAT pdata
pdata	SEGMENT
$pdata$?put@?$basic_ostream@DU?$char_traits@D@std@@@std@@QEAAAEAV12@D@Z DD imagerel $LN120
	DD	imagerel $LN120+511
	DD	imagerel $unwind$?put@?$basic_ostream@DU?$char_traits@D@std@@@std@@QEAAAEAV12@D@Z
pdata	ENDS
;	COMDAT pdata
pdata	SEGMENT
$pdata$?catch$8@?0??put@?$basic_ostream@DU?$char_traits@D@std@@@std@@QEAAAEAV12@D@Z@4HA DD imagerel ?catch$8@?0??put@?$basic_ostream@DU?$char_traits@D@std@@@std@@QEAAAEAV12@D@Z@4HA
	DD	imagerel ?catch$8@?0??put@?$basic_ostream@DU?$char_traits@D@std@@@std@@QEAAAEAV12@D@Z@4HA+83
	DD	imagerel $unwind$?catch$8@?0??put@?$basic_ostream@DU?$char_traits@D@std@@@std@@QEAAAEAV12@D@Z@4HA
pdata	ENDS
;	COMDAT pdata
pdata	SEGMENT
$pdata$?flush@?$basic_ostream@DU?$char_traits@D@std@@@std@@QEAAAEAV12@XZ DD imagerel $LN74
	DD	imagerel $LN74+339
	DD	imagerel $unwind$?flush@?$basic_ostream@DU?$char_traits@D@std@@@std@@QEAAAEAV12@XZ
pdata	ENDS
;	COMDAT pdata
pdata	SEGMENT
$pdata$?_Change_array@?$vector@DV?$allocator@D@std@@@std@@AEAAXQEAD_K1@Z DD imagerel $LN112
	DD	imagerel $LN112+146
	DD	imagerel $unwind$?_Change_array@?$vector@DV?$allocator@D@std@@@std@@AEAAXQEAD_K1@Z
pdata	ENDS
;	COMDAT pdata
pdata	SEGMENT
$pdata$?_Xlength@?$vector@DV?$allocator@D@std@@@std@@CAXXZ DD imagerel $LN4
	DD	imagerel $LN4+17
	DD	imagerel $unwind$?_Xlength@?$vector@DV?$allocator@D@std@@@std@@CAXXZ
pdata	ENDS
;	COMDAT pdata
pdata	SEGMENT
$pdata$??0sentry@?$basic_ostream@DU?$char_traits@D@std@@@std@@QEAA@AEAV12@@Z DD imagerel $LN26
	DD	imagerel $LN26+123
	DD	imagerel $unwind$??0sentry@?$basic_ostream@DU?$char_traits@D@std@@@std@@QEAA@AEAV12@@Z
pdata	ENDS
;	COMDAT pdata
pdata	SEGMENT
$pdata$??1sentry@?$basic_ostream@DU?$char_traits@D@std@@@std@@QEAA@XZ DD imagerel $LN13
	DD	imagerel $LN13+70
	DD	imagerel $unwind$??1sentry@?$basic_ostream@DU?$char_traits@D@std@@@std@@QEAA@XZ
pdata	ENDS
;	COMDAT pdata
pdata	SEGMENT
$pdata$??0bad_cast@std@@QEAA@AEBV01@@Z DD imagerel $LN6
	DD	imagerel $LN6+63
	DD	imagerel $unwind$??0bad_cast@std@@QEAA@AEBV01@@Z
pdata	ENDS
;	COMDAT pdata
pdata	SEGMENT
$pdata$??$_Uninitialized_default_fill_n@PEAD_KV?$allocator@D@std@@@std@@YAPEADPEAD_KAEAU?$_Wrap_alloc@V?$allocator@D@std@@@0@@Z DD imagerel $LN6
	DD	imagerel $LN6+41
	DD	imagerel $unwind$??$_Uninitialized_default_fill_n@PEAD_KV?$allocator@D@std@@@std@@YAPEADPEAD_KAEAU?$_Wrap_alloc@V?$allocator@D@std@@@0@@Z
pdata	ENDS
;	COMDAT pdata
pdata	SEGMENT
$pdata$??$_Resize@V<lambda_0965ae3a6f2eda0c9be18e4c004bd2c1>@@@?$vector@DV?$allocator@D@std@@@std@@AEAAX_KV<lambda_0965ae3a6f2eda0c9be18e4c004bd2c1>@@@Z DD imagerel ??$_Resize@V<lambda_0965ae3a6f2eda0c9be18e4c004bd2c1>@@@?$vector@DV?$allocator@D@std@@@std@@AEAAX_KV<lambda_0965ae3a6f2eda0c9be18e4c004bd2c1>@@@Z
	DD	imagerel ??$_Resize@V<lambda_0965ae3a6f2eda0c9be18e4c004bd2c1>@@@?$vector@DV?$allocator@D@std@@@std@@AEAAX_KV<lambda_0965ae3a6f2eda0c9be18e4c004bd2c1>@@@Z+61
	DD	imagerel $unwind$??$_Resize@V<lambda_0965ae3a6f2eda0c9be18e4c004bd2c1>@@@?$vector@DV?$allocator@D@std@@@std@@AEAAX_KV<lambda_0965ae3a6f2eda0c9be18e4c004bd2c1>@@@Z
pdata	ENDS
;	COMDAT pdata
pdata	SEGMENT
$pdata$0$??$_Resize@V<lambda_0965ae3a6f2eda0c9be18e4c004bd2c1>@@@?$vector@DV?$allocator@D@std@@@std@@AEAAX_KV<lambda_0965ae3a6f2eda0c9be18e4c004bd2c1>@@@Z DD imagerel ??$_Resize@V<lambda_0965ae3a6f2eda0c9be18e4c004bd2c1>@@@?$vector@DV?$allocator@D@std@@@std@@AEAAX_KV<lambda_0965ae3a6f2eda0c9be18e4c004bd2c1>@@@Z+61
	DD	imagerel ??$_Resize@V<lambda_0965ae3a6f2eda0c9be18e4c004bd2c1>@@@?$vector@DV?$allocator@D@std@@@std@@AEAAX_KV<lambda_0965ae3a6f2eda0c9be18e4c004bd2c1>@@@Z+213
	DD	imagerel $chain$0$??$_Resize@V<lambda_0965ae3a6f2eda0c9be18e4c004bd2c1>@@@?$vector@DV?$allocator@D@std@@@std@@AEAAX_KV<lambda_0965ae3a6f2eda0c9be18e4c004bd2c1>@@@Z
pdata	ENDS
;	COMDAT pdata
pdata	SEGMENT
$pdata$1$??$_Resize@V<lambda_0965ae3a6f2eda0c9be18e4c004bd2c1>@@@?$vector@DV?$allocator@D@std@@@std@@AEAAX_KV<lambda_0965ae3a6f2eda0c9be18e4c004bd2c1>@@@Z DD imagerel ??$_Resize@V<lambda_0965ae3a6f2eda0c9be18e4c004bd2c1>@@@?$vector@DV?$allocator@D@std@@@std@@AEAAX_KV<lambda_0965ae3a6f2eda0c9be18e4c004bd2c1>@@@Z+213
	DD	imagerel ??$_Resize@V<lambda_0965ae3a6f2eda0c9be18e4c004bd2c1>@@@?$vector@DV?$allocator@D@std@@@std@@AEAAX_KV<lambda_0965ae3a6f2eda0c9be18e4c004bd2c1>@@@Z+277
	DD	imagerel $chain$1$??$_Resize@V<lambda_0965ae3a6f2eda0c9be18e4c004bd2c1>@@@?$vector@DV?$allocator@D@std@@@std@@AEAAX_KV<lambda_0965ae3a6f2eda0c9be18e4c004bd2c1>@@@Z
pdata	ENDS
;	COMDAT pdata
pdata	SEGMENT
$pdata$2$??$_Resize@V<lambda_0965ae3a6f2eda0c9be18e4c004bd2c1>@@@?$vector@DV?$allocator@D@std@@@std@@AEAAX_KV<lambda_0965ae3a6f2eda0c9be18e4c004bd2c1>@@@Z DD imagerel ??$_Resize@V<lambda_0965ae3a6f2eda0c9be18e4c004bd2c1>@@@?$vector@DV?$allocator@D@std@@@std@@AEAAX_KV<lambda_0965ae3a6f2eda0c9be18e4c004bd2c1>@@@Z+277
	DD	imagerel ??$_Resize@V<lambda_0965ae3a6f2eda0c9be18e4c004bd2c1>@@@?$vector@DV?$allocator@D@std@@@std@@AEAAX_KV<lambda_0965ae3a6f2eda0c9be18e4c004bd2c1>@@@Z+283
	DD	imagerel $chain$2$??$_Resize@V<lambda_0965ae3a6f2eda0c9be18e4c004bd2c1>@@@?$vector@DV?$allocator@D@std@@@std@@AEAAX_KV<lambda_0965ae3a6f2eda0c9be18e4c004bd2c1>@@@Z
pdata	ENDS
;	COMDAT pdata
pdata	SEGMENT
$pdata$??$endl@DU?$char_traits@D@std@@@std@@YAAEAV?$basic_ostream@DU?$char_traits@D@std@@@0@AEAV10@@Z DD imagerel $LN18
	DD	imagerel $LN18+151
	DD	imagerel $unwind$??$endl@DU?$char_traits@D@std@@@std@@YAAEAV?$basic_ostream@DU?$char_traits@D@std@@@0@AEAV10@@Z
pdata	ENDS
;	COMDAT pdata
pdata	SEGMENT
$pdata$??$?6U?$char_traits@D@std@@@std@@YAAEAV?$basic_ostream@DU?$char_traits@D@std@@@0@AEAV10@D@Z DD imagerel $LN204
	DD	imagerel $LN204+826
	DD	imagerel $unwind$??$?6U?$char_traits@D@std@@@std@@YAAEAV?$basic_ostream@DU?$char_traits@D@std@@@0@AEAV10@D@Z
pdata	ENDS
;	COMDAT pdata
pdata	SEGMENT
$pdata$?catch$16@?0???$?6U?$char_traits@D@std@@@std@@YAAEAV?$basic_ostream@DU?$char_traits@D@std@@@0@AEAV10@D@Z@4HA DD imagerel ?catch$16@?0???$?6U?$char_traits@D@std@@@std@@YAAEAV?$basic_ostream@DU?$char_traits@D@std@@@0@AEAV10@D@Z@4HA
	DD	imagerel ?catch$16@?0???$?6U?$char_traits@D@std@@@std@@YAAEAV?$basic_ostream@DU?$char_traits@D@std@@@0@AEAV10@D@Z@4HA+83
	DD	imagerel $unwind$?catch$16@?0???$?6U?$char_traits@D@std@@@std@@YAAEAV?$basic_ostream@DU?$char_traits@D@std@@@0@AEAV10@D@Z@4HA
pdata	ENDS
;	COMDAT pdata
pdata	SEGMENT
$pdata$??$_Immortalize@V_Iostream_error_category@std@@@std@@YAAEAV_Iostream_error_category@0@XZ DD imagerel $LN23
	DD	imagerel $LN23+116
	DD	imagerel $unwind$??$_Immortalize@V_Iostream_error_category@std@@@std@@YAAEAV_Iostream_error_category@0@XZ
pdata	ENDS
;	COMDAT pdata
pdata	SEGMENT
$pdata$??$use_facet@V?$ctype@D@std@@@std@@YAAEBV?$ctype@D@0@AEBVlocale@0@@Z DD imagerel $LN32
	DD	imagerel $LN32+326
	DD	imagerel $unwind$??$use_facet@V?$ctype@D@std@@@std@@YAAEBV?$ctype@D@0@AEBVlocale@0@@Z
pdata	ENDS
;	COMDAT pdata
pdata	SEGMENT
$pdata$?allocate@?$allocator@D@std@@QEAAPEAD_K@Z DD imagerel $LN16
	DD	imagerel $LN16+83
	DD	imagerel $unwind$?allocate@?$allocator@D@std@@QEAAPEAD_K@Z
pdata	ENDS
;	COMDAT pdata
pdata	SEGMENT
$pdata$?allocate@?$_Wrap_alloc@V?$allocator@D@std@@@std@@QEAAPEAD_K@Z DD imagerel $LN19
	DD	imagerel $LN19+83
	DD	imagerel $unwind$?allocate@?$_Wrap_alloc@V?$allocator@D@std@@@std@@QEAAPEAD_K@Z
pdata	ENDS
;	COMDAT pdata
pdata	SEGMENT
$pdata$?deallocate@?$allocator@D@std@@QEAAXPEAD_K@Z DD imagerel $LN18
	DD	imagerel $LN18+81
	DD	imagerel $unwind$?deallocate@?$allocator@D@std@@QEAAXPEAD_K@Z
pdata	ENDS
;	COMDAT pdata
pdata	SEGMENT
$pdata$?erase@?$basic_string@DU?$char_traits@D@std@@V?$allocator@D@2@@std@@QEAAAEAV12@_K@Z DD imagerel $LN38
	DD	imagerel $LN38+54
	DD	imagerel $unwind$?erase@?$basic_string@DU?$char_traits@D@std@@V?$allocator@D@2@@std@@QEAAAEAV12@_K@Z
pdata	ENDS
;	COMDAT pdata
pdata	SEGMENT
$pdata$?erase@?$basic_string@DU?$char_traits@D@std@@V?$allocator@D@2@@std@@QEAAAEAV12@_K0@Z DD imagerel $LN97
	DD	imagerel $LN97+191
	DD	imagerel $unwind$?erase@?$basic_string@DU?$char_traits@D@std@@V?$allocator@D@2@@std@@QEAAAEAV12@_K0@Z
pdata	ENDS
;	COMDAT pdata
pdata	SEGMENT
$pdata$?_Copy@?$basic_string@DU?$char_traits@D@std@@V?$allocator@D@2@@std@@QEAAX_K@Z DD imagerel $LN118
	DD	imagerel $LN118+335
	DD	imagerel $unwind$?_Copy@?$basic_string@DU?$char_traits@D@std@@V?$allocator@D@2@@std@@QEAAX_K@Z
pdata	ENDS
;	COMDAT pdata
pdata	SEGMENT
$pdata$?catch$16@?0??_Copy@?$basic_string@DU?$char_traits@D@std@@V?$allocator@D@2@@std@@QEAAX_K@Z@4HA DD imagerel ?catch$16@?0??_Copy@?$basic_string@DU?$char_traits@D@std@@V?$allocator@D@2@@std@@QEAAX_K@Z@4HA
	DD	imagerel ?catch$16@?0??_Copy@?$basic_string@DU?$char_traits@D@std@@V?$allocator@D@2@@std@@QEAAX_K@Z@4HA+51
	DD	imagerel $unwind$?catch$16@?0??_Copy@?$basic_string@DU?$char_traits@D@std@@V?$allocator@D@2@@std@@QEAAX_K@Z@4HA
pdata	ENDS
;	COMDAT pdata
pdata	SEGMENT
$pdata$?_Xran@?$basic_string@DU?$char_traits@D@std@@V?$allocator@D@2@@std@@SAXXZ DD imagerel $LN4
	DD	imagerel $LN4+17
	DD	imagerel $unwind$?_Xran@?$basic_string@DU?$char_traits@D@std@@V?$allocator@D@2@@std@@SAXXZ
pdata	ENDS
;	COMDAT pdata
pdata	SEGMENT
$pdata$?assign@?$basic_string@DU?$char_traits@D@std@@V?$allocator@D@2@@std@@QEAAAEAV12@AEBV12@_K_K@Z DD imagerel $LN159
	DD	imagerel $LN159+248
	DD	imagerel $unwind$?assign@?$basic_string@DU?$char_traits@D@std@@V?$allocator@D@2@@std@@QEAAAEAV12@AEBV12@_K_K@Z
pdata	ENDS
;	COMDAT pdata
pdata	SEGMENT
$pdata$?assign@?$basic_string@DU?$char_traits@D@std@@V?$allocator@D@2@@std@@QEAAAEAV12@QEBD_K@Z DD imagerel $LN112
	DD	imagerel $LN112+246
	DD	imagerel $unwind$?assign@?$basic_string@DU?$char_traits@D@std@@V?$allocator@D@2@@std@@QEAAAEAV12@QEBD_K@Z
pdata	ENDS
;	COMDAT pdata
pdata	SEGMENT
$pdata$?_Grow@?$basic_string@DU?$char_traits@D@std@@V?$allocator@D@2@@std@@QEAA_N_K@Z DD imagerel $LN34
	DD	imagerel $LN34+51
	DD	imagerel $unwind$?_Grow@?$basic_string@DU?$char_traits@D@std@@V?$allocator@D@2@@std@@QEAA_N_K@Z
pdata	ENDS
;	COMDAT pdata
pdata	SEGMENT
$pdata$?_Xlen@?$basic_string@DU?$char_traits@D@std@@V?$allocator@D@2@@std@@SAXXZ DD imagerel $LN4
	DD	imagerel $LN4+17
	DD	imagerel $unwind$?_Xlen@?$basic_string@DU?$char_traits@D@std@@V?$allocator@D@2@@std@@SAXXZ
pdata	ENDS
;	COMDAT pdata
pdata	SEGMENT
$pdata$?_Check_offset@?$basic_string@DU?$char_traits@D@std@@V?$allocator@D@2@@std@@QEBAX_K@Z DD imagerel $LN16
	DD	imagerel $LN16+21
	DD	imagerel $unwind$?_Check_offset@?$basic_string@DU?$char_traits@D@std@@V?$allocator@D@2@@std@@QEBAX_K@Z
pdata	ENDS
;	COMDAT pdata
pdata	SEGMENT
$pdata$?deallocate@?$_Wrap_alloc@V?$allocator@D@std@@@std@@QEAAXPEAD_K@Z DD imagerel $LN21
	DD	imagerel $LN21+81
	DD	imagerel $unwind$?deallocate@?$_Wrap_alloc@V?$allocator@D@std@@@std@@QEAAXPEAD_K@Z
pdata	ENDS
;	COMDAT pdata
pdata	SEGMENT
$pdata$?_Assign_rv_contents@?$basic_string@DU?$char_traits@D@std@@V?$allocator@D@2@@std@@QEAAX$$QEAV12@@Z DD imagerel $LN62
	DD	imagerel $LN62+101
	DD	imagerel $unwind$?_Assign_rv_contents@?$basic_string@DU?$char_traits@D@std@@V?$allocator@D@2@@std@@QEAAX$$QEAV12@@Z
pdata	ENDS
;	COMDAT pdata
pdata	SEGMENT
$pdata$?append@?$basic_string@DU?$char_traits@D@std@@V?$allocator@D@2@@std@@QEAAAEAV12@AEBV12@_K_K@Z DD imagerel $LN151
	DD	imagerel $LN151+75
	DD	imagerel $unwind$?append@?$basic_string@DU?$char_traits@D@std@@V?$allocator@D@2@@std@@QEAAAEAV12@AEBV12@_K_K@Z
pdata	ENDS
;	COMDAT pdata
pdata	SEGMENT
$pdata$0$?append@?$basic_string@DU?$char_traits@D@std@@V?$allocator@D@2@@std@@QEAAAEAV12@AEBV12@_K_K@Z DD imagerel $LN151+75
	DD	imagerel $LN151+232
	DD	imagerel $chain$0$?append@?$basic_string@DU?$char_traits@D@std@@V?$allocator@D@2@@std@@QEAAAEAV12@AEBV12@_K_K@Z
pdata	ENDS
;	COMDAT pdata
pdata	SEGMENT
$pdata$1$?append@?$basic_string@DU?$char_traits@D@std@@V?$allocator@D@2@@std@@QEAAAEAV12@AEBV12@_K_K@Z DD imagerel $LN151+232
	DD	imagerel $LN151+244
	DD	imagerel $chain$1$?append@?$basic_string@DU?$char_traits@D@std@@V?$allocator@D@2@@std@@QEAAAEAV12@AEBV12@_K_K@Z
pdata	ENDS
;	COMDAT pdata
pdata	SEGMENT
$pdata$?append@?$basic_string@DU?$char_traits@D@std@@V?$allocator@D@2@@std@@QEAAAEAV12@QEBD_K@Z DD imagerel $LN142
	DD	imagerel $LN142+119
	DD	imagerel $unwind$?append@?$basic_string@DU?$char_traits@D@std@@V?$allocator@D@2@@std@@QEAAAEAV12@QEBD_K@Z
pdata	ENDS
;	COMDAT pdata
pdata	SEGMENT
$pdata$0$?append@?$basic_string@DU?$char_traits@D@std@@V?$allocator@D@2@@std@@QEAAAEAV12@QEBD_K@Z DD imagerel $LN142+119
	DD	imagerel $LN142+257
	DD	imagerel $chain$0$?append@?$basic_string@DU?$char_traits@D@std@@V?$allocator@D@2@@std@@QEAAAEAV12@QEBD_K@Z
pdata	ENDS
;	COMDAT pdata
pdata	SEGMENT
$pdata$1$?append@?$basic_string@DU?$char_traits@D@std@@V?$allocator@D@2@@std@@QEAAAEAV12@QEBD_K@Z DD imagerel $LN142+257
	DD	imagerel $LN142+263
	DD	imagerel $chain$1$?append@?$basic_string@DU?$char_traits@D@std@@V?$allocator@D@2@@std@@QEAAAEAV12@QEBD_K@Z
pdata	ENDS
;	COMDAT pdata
pdata	SEGMENT
$pdata$?_Tidy_deallocate_only@?$basic_string@DU?$char_traits@D@std@@V?$allocator@D@2@@std@@QEAAXXZ DD imagerel $LN42
	DD	imagerel $LN42+98
	DD	imagerel $unwind$?_Tidy_deallocate_only@?$basic_string@DU?$char_traits@D@std@@V?$allocator@D@2@@std@@QEAAXXZ
pdata	ENDS
;	COMDAT pdata
pdata	SEGMENT
$pdata$?_Tidy@?$_Yarn@D@std@@AEAAXXZ DD imagerel $LN6
	DD	imagerel $LN6+35
	DD	imagerel $unwind$?_Tidy@?$_Yarn@D@std@@AEAAXXZ
pdata	ENDS
;	COMDAT pdata
pdata	SEGMENT
$pdata$?_Tidy@?$_Yarn@_W@std@@AEAAXXZ DD imagerel $LN6
	DD	imagerel $LN6+35
	DD	imagerel $unwind$?_Tidy@?$_Yarn@_W@std@@AEAAXXZ
pdata	ENDS
;	COMDAT pdata
pdata	SEGMENT
$pdata$?_Udefault@?$vector@DV?$allocator@D@std@@@std@@AEAAPEADPEAD_K@Z DD imagerel $LN14
	DD	imagerel $LN14+41
	DD	imagerel $unwind$?_Udefault@?$vector@DV?$allocator@D@std@@@std@@AEAAPEADPEAD_K@Z
pdata	ENDS
;	COMDAT pdata
pdata	SEGMENT
$pdata$?_Tidy@?$vector@DV?$allocator@D@std@@@std@@AEAAXXZ DD imagerel $LN112
	DD	imagerel $LN112+112
	DD	imagerel $unwind$?_Tidy@?$vector@DV?$allocator@D@std@@@std@@AEAAXXZ
pdata	ENDS
;	COMDAT pdata
pdata	SEGMENT
$pdata$??0?$basic_string@DU?$char_traits@D@std@@V?$allocator@D@2@@std@@QEAA@AEBV01@@Z DD imagerel $LN42
	DD	imagerel $LN42+49
	DD	imagerel $unwind$??0?$basic_string@DU?$char_traits@D@std@@V?$allocator@D@2@@std@@QEAA@AEBV01@@Z
pdata	ENDS
;	COMDAT pdata
pdata	SEGMENT
$pdata$??0?$basic_string@DU?$char_traits@D@std@@V?$allocator@D@2@@std@@QEAA@QEBD@Z DD imagerel $LN27
	DD	imagerel $LN27+56
	DD	imagerel $unwind$??0?$basic_string@DU?$char_traits@D@std@@V?$allocator@D@2@@std@@QEAA@QEBD@Z
pdata	ENDS
;	COMDAT pdata
pdata	SEGMENT
$pdata$??0?$basic_string@DU?$char_traits@D@std@@V?$allocator@D@2@@std@@QEAA@$$QEAV01@@Z DD imagerel $LN99
	DD	imagerel $LN99+118
	DD	imagerel $unwind$??0?$basic_string@DU?$char_traits@D@std@@V?$allocator@D@2@@std@@QEAA@$$QEAV01@@Z
pdata	ENDS
;	COMDAT pdata
pdata	SEGMENT
$pdata$??1?$basic_string@DU?$char_traits@D@std@@V?$allocator@D@2@@std@@QEAA@XZ DD imagerel $LN45
	DD	imagerel $LN45+98
	DD	imagerel $unwind$??1?$basic_string@DU?$char_traits@D@std@@V?$allocator@D@2@@std@@QEAA@XZ
pdata	ENDS
;	COMDAT pdata
pdata	SEGMENT
$pdata$??1?$_Yarn@D@std@@QEAA@XZ DD imagerel $LN8
	DD	imagerel $LN8+35
	DD	imagerel $unwind$??1?$_Yarn@D@std@@QEAA@XZ
pdata	ENDS
;	COMDAT pdata
pdata	SEGMENT
$pdata$??1?$_Yarn@_W@std@@QEAA@XZ DD imagerel $LN8
	DD	imagerel $LN8+35
	DD	imagerel $unwind$??1?$_Yarn@_W@std@@QEAA@XZ
pdata	ENDS
;	COMDAT pdata
pdata	SEGMENT
$pdata$??1?$vector@DV?$allocator@D@std@@@std@@QEAA@XZ DD imagerel $LN115
	DD	imagerel $LN115+112
	DD	imagerel $unwind$??1?$vector@DV?$allocator@D@std@@@std@@QEAA@XZ
pdata	ENDS
;	COMDAT pdata
pdata	SEGMENT
$pdata$??R<lambda_0965ae3a6f2eda0c9be18e4c004bd2c1>@@QEBAPEADPEAD_K@Z DD imagerel ??R<lambda_0965ae3a6f2eda0c9be18e4c004bd2c1>@@QEBAPEADPEAD_K@Z
	DD	imagerel ??R<lambda_0965ae3a6f2eda0c9be18e4c004bd2c1>@@QEBAPEADPEAD_K@Z+41
	DD	imagerel $unwind$??R<lambda_0965ae3a6f2eda0c9be18e4c004bd2c1>@@QEBAPEADPEAD_K@Z
pdata	ENDS
pdata	SEGMENT
$pdata$main DD	imagerel $LN205
	DD	imagerel $LN205+382
	DD	imagerel $unwind$main
$pdata$?setVector@@YA?AV?$vector@DV?$allocator@D@std@@@std@@D@Z DD imagerel $LN58
	DD	imagerel $LN58+128
	DD	imagerel $unwind$?setVector@@YA?AV?$vector@DV?$allocator@D@std@@@std@@D@Z
pdata	ENDS
pdata	SEGMENT
$pdata$?dtor$0@?0??setVector@@YA?AV?$vector@DV?$allocator@D@std@@@std@@D@Z@4HA DD imagerel ?dtor$0@?0??setVector@@YA?AV?$vector@DV?$allocator@D@std@@@std@@D@Z@4HA
	DD	imagerel ?dtor$0@?0??setVector@@YA?AV?$vector@DV?$allocator@D@std@@@std@@D@Z@4HA+38
	DD	imagerel $unwind$?dtor$0@?0??setVector@@YA?AV?$vector@DV?$allocator@D@std@@@std@@D@Z@4HA
pdata	ENDS
;	COMDAT pdata
pdata	SEGMENT
$pdata$??0_System_error@std@@QEAA@AEBV01@@Z DD imagerel $LN9
	DD	imagerel $LN9+80
	DD	imagerel $unwind$??0_System_error@std@@QEAA@AEBV01@@Z
pdata	ENDS
;	COMDAT pdata
pdata	SEGMENT
$pdata$??0system_error@std@@QEAA@AEBV01@@Z DD imagerel $LN12
	DD	imagerel $LN12+90
	DD	imagerel $unwind$??0system_error@std@@QEAA@AEBV01@@Z
pdata	ENDS
;	COMDAT pdata
pdata	SEGMENT
$pdata$??0failure@ios_base@std@@QEAA@AEBV012@@Z DD imagerel $LN15
	DD	imagerel $LN15+90
	DD	imagerel $unwind$??0failure@ios_base@std@@QEAA@AEBV012@@Z
pdata	ENDS
;	COMDAT pdata
pdata	SEGMENT
$pdata$??_Gfailure@ios_base@std@@UEAAPEAXI@Z DD imagerel $LN20
	DD	imagerel $LN20+66
	DD	imagerel $unwind$??_Gfailure@ios_base@std@@UEAAPEAXI@Z
pdata	ENDS
;	COMDAT pdata
pdata	SEGMENT
$pdata$?getloc@ios_base@std@@QEBA?AVlocale@2@XZ DD imagerel $LN6
	DD	imagerel $LN6+46
	DD	imagerel $unwind$?getloc@ios_base@std@@QEBA?AVlocale@2@XZ
pdata	ENDS
;	COMDAT pdata
pdata	SEGMENT
$pdata$?clear@ios_base@std@@QEAAXH_N@Z DD imagerel $LN17
	DD	imagerel $LN17+186
	DD	imagerel $unwind$?clear@ios_base@std@@QEAAXH_N@Z
pdata	ENDS
;	COMDAT pdata
pdata	SEGMENT
$pdata$??0failure@ios_base@std@@QEAA@PEBDAEBVerror_code@2@@Z DD imagerel $LN5
	DD	imagerel $LN5+50
	DD	imagerel $unwind$??0failure@ios_base@std@@QEAA@PEBDAEBVerror_code@2@@Z
pdata	ENDS
;	COMDAT pdata
pdata	SEGMENT
$pdata$?iostream_category@std@@YAAEBVerror_category@1@XZ DD imagerel $LN25
	DD	imagerel $LN25+116
	DD	imagerel $unwind$?iostream_category@std@@YAAEBVerror_category@1@XZ
pdata	ENDS
;	COMDAT pdata
pdata	SEGMENT
$pdata$??_G_Iostream_error_category@std@@UEAAPEAXI@Z DD imagerel $LN15
	DD	imagerel $LN15+43
	DD	imagerel $unwind$??_G_Iostream_error_category@std@@UEAAPEAXI@Z
pdata	ENDS
;	COMDAT pdata
pdata	SEGMENT
$pdata$?message@_Iostream_error_category@std@@UEBA?AV?$basic_string@DU?$char_traits@D@std@@V?$allocator@D@2@@2@H@Z DD imagerel $LN33
	DD	imagerel $LN33+77
	DD	imagerel $unwind$?message@_Iostream_error_category@std@@UEBA?AV?$basic_string@DU?$char_traits@D@std@@V?$allocator@D@2@@2@H@Z
pdata	ENDS
;	COMDAT pdata
pdata	SEGMENT
$pdata$??_G_Generic_error_category@std@@UEAAPEAXI@Z DD imagerel $LN12
	DD	imagerel $LN12+43
	DD	imagerel $unwind$??_G_Generic_error_category@std@@UEAAPEAXI@Z
pdata	ENDS
;	COMDAT pdata
pdata	SEGMENT
$pdata$?message@_Generic_error_category@std@@UEBA?AV?$basic_string@DU?$char_traits@D@std@@V?$allocator@D@2@@2@H@Z DD imagerel $LN31
	DD	imagerel $LN31+78
	DD	imagerel $unwind$?message@_Generic_error_category@std@@UEBA?AV?$basic_string@DU?$char_traits@D@std@@V?$allocator@D@2@@2@H@Z
pdata	ENDS
;	COMDAT pdata
pdata	SEGMENT
$pdata$??_Gsystem_error@std@@UEAAPEAXI@Z DD imagerel $LN17
	DD	imagerel $LN17+66
	DD	imagerel $unwind$??_Gsystem_error@std@@UEAAPEAXI@Z
pdata	ENDS
;	COMDAT pdata
pdata	SEGMENT
$pdata$??0system_error@std@@QEAA@Verror_code@1@PEBD@Z DD imagerel $LN71
	DD	imagerel $LN71+248
	DD	imagerel $unwind$??0system_error@std@@QEAA@Verror_code@1@PEBD@Z
pdata	ENDS
;	COMDAT pdata
pdata	SEGMENT
$pdata$??_G_System_error@std@@UEAAPEAXI@Z DD imagerel $LN14
	DD	imagerel $LN14+66
	DD	imagerel $unwind$??_G_System_error@std@@UEAAPEAXI@Z
pdata	ENDS
;	COMDAT pdata
pdata	SEGMENT
$pdata$??0_System_error@std@@IEAA@Verror_code@1@AEBV?$basic_string@DU?$char_traits@D@std@@V?$allocator@D@2@@1@@Z DD imagerel $LN115
	DD	imagerel $LN115+309
	DD	imagerel $unwind$??0_System_error@std@@IEAA@Verror_code@1@AEBV?$basic_string@DU?$char_traits@D@std@@V?$allocator@D@2@@1@@Z
pdata	ENDS
;	COMDAT pdata
pdata	SEGMENT
$pdata$?_Makestr@_System_error@std@@CA?AV?$basic_string@DU?$char_traits@D@std@@V?$allocator@D@2@@2@Verror_code@2@V32@@Z DD imagerel $LN205
	DD	imagerel $LN205+405
	DD	imagerel $unwind$?_Makestr@_System_error@std@@CA?AV?$basic_string@DU?$char_traits@D@std@@V?$allocator@D@2@@2@Verror_code@2@V32@@Z
pdata	ENDS
;	COMDAT pdata
pdata	SEGMENT
$pdata$?make_error_code@std@@YA?AVerror_code@1@W4io_errc@1@@Z DD imagerel $LN29
	DD	imagerel $LN29+143
	DD	imagerel $unwind$?make_error_code@std@@YA?AVerror_code@1@W4io_errc@1@@Z
pdata	ENDS
;	COMDAT pdata
pdata	SEGMENT
$pdata$?equivalent@error_category@std@@UEBA_NHAEBVerror_condition@2@@Z DD imagerel $LN32
	DD	imagerel $LN32+95
	DD	imagerel $unwind$?equivalent@error_category@std@@UEBA_NHAEBVerror_condition@2@@Z
pdata	ENDS
;	COMDAT pdata
pdata	SEGMENT
$pdata$?message@error_code@std@@QEBA?AV?$basic_string@DU?$char_traits@D@std@@V?$allocator@D@2@@2@XZ DD imagerel $LN12
	DD	imagerel $LN12+39
	DD	imagerel $unwind$?message@error_code@std@@QEBA?AV?$basic_string@DU?$char_traits@D@std@@V?$allocator@D@2@@2@XZ
pdata	ENDS
;	COMDAT pdata
pdata	SEGMENT
$pdata$??_Gerror_category@std@@UEAAPEAXI@Z DD imagerel $LN9
	DD	imagerel $LN9+43
	DD	imagerel $unwind$??_Gerror_category@std@@UEAAPEAXI@Z
pdata	ENDS
;	COMDAT pdata
pdata	SEGMENT
$pdata$??_G?$ctype@D@std@@MEAAPEAXI@Z DD imagerel $LN24
	DD	imagerel $LN24+106
	DD	imagerel $unwind$??_G?$ctype@D@std@@MEAAPEAXI@Z
pdata	ENDS
;	COMDAT pdata
pdata	SEGMENT
$pdata$?do_narrow@?$ctype@D@std@@MEBAPEBDPEBD0DPEAD@Z DD imagerel $LN4
	DD	imagerel $LN4+31
	DD	imagerel $unwind$?do_narrow@?$ctype@D@std@@MEBAPEBDPEBD0DPEAD@Z
pdata	ENDS
;	COMDAT pdata
pdata	SEGMENT
$pdata$?do_widen@?$ctype@D@std@@MEBAPEBDPEBD0PEAD@Z DD imagerel $LN4
	DD	imagerel $LN4+29
	DD	imagerel $unwind$?do_widen@?$ctype@D@std@@MEBAPEBDPEBD0PEAD@Z
pdata	ENDS
;	COMDAT pdata
pdata	SEGMENT
$pdata$?do_toupper@?$ctype@D@std@@MEBAPEBDPEADPEBD@Z DD imagerel $LN12
	DD	imagerel $LN12+38
	DD	imagerel $unwind$?do_toupper@?$ctype@D@std@@MEBAPEBDPEADPEBD@Z
pdata	ENDS
;	COMDAT pdata
pdata	SEGMENT
$pdata$0$?do_toupper@?$ctype@D@std@@MEBAPEBDPEADPEBD@Z DD imagerel $LN12+38
	DD	imagerel $LN12+77
	DD	imagerel $chain$0$?do_toupper@?$ctype@D@std@@MEBAPEBDPEADPEBD@Z
pdata	ENDS
;	COMDAT pdata
pdata	SEGMENT
$pdata$1$?do_toupper@?$ctype@D@std@@MEBAPEBDPEADPEBD@Z DD imagerel $LN12+77
	DD	imagerel $LN12+96
	DD	imagerel $chain$1$?do_toupper@?$ctype@D@std@@MEBAPEBDPEADPEBD@Z
pdata	ENDS
;	COMDAT pdata
pdata	SEGMENT
$pdata$?do_tolower@?$ctype@D@std@@MEBAPEBDPEADPEBD@Z DD imagerel $LN12
	DD	imagerel $LN12+38
	DD	imagerel $unwind$?do_tolower@?$ctype@D@std@@MEBAPEBDPEADPEBD@Z
pdata	ENDS
;	COMDAT pdata
pdata	SEGMENT
$pdata$0$?do_tolower@?$ctype@D@std@@MEBAPEBDPEADPEBD@Z DD imagerel $LN12+38
	DD	imagerel $LN12+77
	DD	imagerel $chain$0$?do_tolower@?$ctype@D@std@@MEBAPEBDPEADPEBD@Z
pdata	ENDS
;	COMDAT pdata
pdata	SEGMENT
$pdata$1$?do_tolower@?$ctype@D@std@@MEBAPEBDPEADPEBD@Z DD imagerel $LN12+77
	DD	imagerel $LN12+96
	DD	imagerel $chain$1$?do_tolower@?$ctype@D@std@@MEBAPEBDPEADPEBD@Z
pdata	ENDS
;	COMDAT pdata
pdata	SEGMENT
$pdata$?_Tidy@?$ctype@D@std@@IEAAXXZ DD imagerel $LN8
	DD	imagerel $LN8+64
	DD	imagerel $unwind$?_Tidy@?$ctype@D@std@@IEAAXXZ
pdata	ENDS
;	COMDAT pdata
pdata	SEGMENT
$pdata$?_Init@?$ctype@D@std@@IEAAXAEBV_Locinfo@2@@Z DD imagerel $LN6
	DD	imagerel $LN6+40
	DD	imagerel $unwind$?_Init@?$ctype@D@std@@IEAAXAEBV_Locinfo@2@@Z
pdata	ENDS
;	COMDAT pdata
pdata	SEGMENT
$pdata$??1?$ctype@D@std@@MEAA@XZ DD imagerel $LN19
	DD	imagerel $LN19+73
	DD	imagerel $unwind$??1?$ctype@D@std@@MEAA@XZ
pdata	ENDS
;	COMDAT pdata
pdata	SEGMENT
$pdata$?_Getcat@?$ctype@D@std@@SA_KPEAPEBVfacet@locale@2@PEBV42@@Z DD imagerel $LN55
	DD	imagerel $LN55+334
	DD	imagerel $unwind$?_Getcat@?$ctype@D@std@@SA_KPEAPEBVfacet@locale@2@PEBV42@@Z
pdata	ENDS
;	COMDAT pdata
pdata	SEGMENT
$pdata$?dtor$0@?0??_Getcat@?$ctype@D@std@@SA_KPEAPEBVfacet@locale@2@PEBV42@@Z@4HA DD imagerel ?dtor$0@?0??_Getcat@?$ctype@D@std@@SA_KPEAPEBVfacet@locale@2@PEBV42@@Z@4HA
	DD	imagerel ?dtor$0@?0??_Getcat@?$ctype@D@std@@SA_KPEAPEBVfacet@locale@2@PEBV42@@Z@4HA+32
	DD	imagerel $unwind$?dtor$0@?0??_Getcat@?$ctype@D@std@@SA_KPEAPEBVfacet@locale@2@PEBV42@@Z@4HA
pdata	ENDS
;	COMDAT pdata
pdata	SEGMENT
$pdata$??0?$ctype@D@std@@QEAA@AEBV_Locinfo@1@_K@Z DD imagerel $LN15
	DD	imagerel $LN15+57
	DD	imagerel $unwind$??0?$ctype@D@std@@QEAA@AEBV_Locinfo@1@_K@Z
pdata	ENDS
;	COMDAT pdata
pdata	SEGMENT
$pdata$?widen@?$ctype@D@std@@QEBADD@Z DD imagerel $LN8
	DD	imagerel $LN8+37
	DD	imagerel $unwind$?widen@?$ctype@D@std@@QEBADD@Z
pdata	ENDS
;	COMDAT pdata
pdata	SEGMENT
$pdata$??_Gctype_base@std@@UEAAPEAXI@Z DD imagerel $LN15
	DD	imagerel $LN15+43
	DD	imagerel $unwind$??_Gctype_base@std@@UEAAPEAXI@Z
pdata	ENDS
;	COMDAT pdata
pdata	SEGMENT
$pdata$??_Gfacet@locale@std@@MEAAPEAXI@Z DD imagerel $LN12
	DD	imagerel $LN12+43
	DD	imagerel $unwind$??_Gfacet@locale@std@@MEAAPEAXI@Z
pdata	ENDS
;	COMDAT pdata
pdata	SEGMENT
$pdata$?_Getfacet@locale@std@@QEBAPEBVfacet@12@_K@Z DD imagerel $LN12
	DD	imagerel $LN12+82
	DD	imagerel $unwind$?_Getfacet@locale@std@@QEBAPEBVfacet@12@_K@Z
pdata	ENDS
;	COMDAT pdata
pdata	SEGMENT
$pdata$??1locale@std@@QEAA@XZ DD imagerel $LN6
	DD	imagerel $LN6+57
	DD	imagerel $unwind$??1locale@std@@QEAA@XZ
pdata	ENDS
;	COMDAT pdata
pdata	SEGMENT
$pdata$??0locale@std@@QEAA@AEBV01@@Z DD imagerel $LN3
	DD	imagerel $LN3+42
	DD	imagerel $unwind$??0locale@std@@QEAA@AEBV01@@Z
pdata	ENDS
;	COMDAT pdata
pdata	SEGMENT
$pdata$??Bid@locale@std@@QEAA_KXZ DD imagerel $LN8
	DD	imagerel $LN8+80
	DD	imagerel $unwind$??Bid@locale@std@@QEAA_KXZ
pdata	ENDS
;	COMDAT pdata
pdata	SEGMENT
$pdata$??_G_Facet_base@std@@UEAAPEAXI@Z DD imagerel $LN9
	DD	imagerel $LN9+43
	DD	imagerel $unwind$??_G_Facet_base@std@@UEAAPEAXI@Z
pdata	ENDS
;	COMDAT pdata
pdata	SEGMENT
$pdata$??0runtime_error@std@@QEAA@AEBV01@@Z DD imagerel $LN6
	DD	imagerel $LN6+63
	DD	imagerel $unwind$??0runtime_error@std@@QEAA@AEBV01@@Z
pdata	ENDS
;	COMDAT pdata
pdata	SEGMENT
$pdata$?_Getctype@_Locinfo@std@@QEBA?AU_Ctypevec@@XZ DD imagerel $LN4
	DD	imagerel $LN4+42
	DD	imagerel $unwind$?_Getctype@_Locinfo@std@@QEBA?AU_Ctypevec@@XZ
pdata	ENDS
;	COMDAT pdata
pdata	SEGMENT
$pdata$??1_Locinfo@std@@QEAA@XZ DD imagerel $LN39
	DD	imagerel $LN39+163
	DD	imagerel $unwind$??1_Locinfo@std@@QEAA@XZ
pdata	ENDS
;	COMDAT pdata
pdata	SEGMENT
$pdata$??0_Locinfo@std@@QEAA@PEBD@Z DD imagerel $LN24
	DD	imagerel $LN24+150
	DD	imagerel $unwind$??0_Locinfo@std@@QEAA@PEBD@Z
pdata	ENDS
;	COMDAT pdata
pdata	SEGMENT
$pdata$??_Gbad_cast@std@@UEAAPEAXI@Z DD imagerel $LN11
	DD	imagerel $LN11+66
	DD	imagerel $unwind$??_Gbad_cast@std@@UEAAPEAXI@Z
pdata	ENDS
;	COMDAT pdata
pdata	SEGMENT
$pdata$??_Gruntime_error@std@@UEAAPEAXI@Z DD imagerel $LN11
	DD	imagerel $LN11+66
	DD	imagerel $unwind$??_Gruntime_error@std@@UEAAPEAXI@Z
pdata	ENDS
;	COMDAT pdata
pdata	SEGMENT
$pdata$??0runtime_error@std@@QEAA@PEBD@Z DD imagerel $LN6
	DD	imagerel $LN6+74
	DD	imagerel $unwind$??0runtime_error@std@@QEAA@PEBD@Z
pdata	ENDS
;	COMDAT pdata
pdata	SEGMENT
$pdata$??0runtime_error@std@@QEAA@AEBV?$basic_string@DU?$char_traits@D@std@@V?$allocator@D@2@@1@@Z DD imagerel $LN25
	DD	imagerel $LN25+84
	DD	imagerel $unwind$??0runtime_error@std@@QEAA@AEBV?$basic_string@DU?$char_traits@D@std@@V?$allocator@D@2@@1@@Z
pdata	ENDS
;	COMDAT pdata
pdata	SEGMENT
$pdata$?_Deallocate@std@@YAXPEAX_K1@Z DD imagerel $LN16
	DD	imagerel $LN16+105
	DD	imagerel $unwind$?_Deallocate@std@@YAXPEAX_K1@Z
pdata	ENDS
;	COMDAT pdata
pdata	SEGMENT
$pdata$?_Allocate@std@@YAPEAX_K0_N@Z DD imagerel $LN14
	DD	imagerel $LN14+113
	DD	imagerel $unwind$?_Allocate@std@@YAPEAX_K0_N@Z
pdata	ENDS
;	COMDAT pdata
pdata	SEGMENT
$pdata$?copy@?$char_traits@D@std@@SAPEADQEADQEBD_K@Z DD imagerel $LN4
	DD	imagerel $LN4+23
	DD	imagerel $unwind$?copy@?$char_traits@D@std@@SAPEADQEADQEBD_K@Z
pdata	ENDS
;	COMDAT pdata
pdata	SEGMENT
$pdata$??_Gexception@std@@UEAAPEAXI@Z DD imagerel $LN8
	DD	imagerel $LN8+66
	DD	imagerel $unwind$??_Gexception@std@@UEAAPEAXI@Z
pdata	ENDS
;	COMDAT pdata
pdata	SEGMENT
$pdata$??0exception@std@@QEAA@AEBV01@@Z DD imagerel $LN4
	DD	imagerel $LN4+53
	DD	imagerel $unwind$??0exception@std@@QEAA@AEBV01@@Z
pdata	ENDS
;	COMDAT pdata
pdata	SEGMENT
$pdata$??0exception@std@@QEAA@QEBD@Z DD imagerel $LN4
	DD	imagerel $LN4+64
	DD	imagerel $unwind$??0exception@std@@QEAA@QEBD@Z
pdata	ENDS
;	COMDAT xdata
xdata	SEGMENT
$unwind$??0exception@std@@QEAA@QEBD@Z DD 020601H
	DD	030025206H
xdata	ENDS
;	COMDAT xdata
xdata	SEGMENT
$unwind$??0exception@std@@QEAA@AEBV01@@Z DD 020601H
	DD	030023206H
xdata	ENDS
;	COMDAT xdata
xdata	SEGMENT
$unwind$??_Gexception@std@@UEAAPEAXI@Z DD 040a01H
	DD	06340aH
	DD	07006320aH
xdata	ENDS
;	COMDAT xdata
xdata	SEGMENT
$unwind$?copy@?$char_traits@D@std@@SAPEADQEADQEBD_K@Z DD 020601H
	DD	030023206H
xdata	ENDS
;	COMDAT xdata
xdata	SEGMENT
$unwind$?_Allocate@std@@YAPEAX_K0_N@Z DD 010401H
	DD	04204H
xdata	ENDS
;	COMDAT xdata
xdata	SEGMENT
$unwind$?_Deallocate@std@@YAXPEAX_K1@Z DD 010401H
	DD	04204H
xdata	ENDS
;	COMDAT xdata
xdata	SEGMENT
$unwind$??0runtime_error@std@@QEAA@AEBV?$basic_string@DU?$char_traits@D@std@@V?$allocator@D@2@@1@@Z DD 020601H
	DD	030025206H
xdata	ENDS
;	COMDAT xdata
xdata	SEGMENT
$unwind$??0runtime_error@std@@QEAA@PEBD@Z DD 020601H
	DD	030025206H
xdata	ENDS
;	COMDAT xdata
xdata	SEGMENT
$unwind$??_Gruntime_error@std@@UEAAPEAXI@Z DD 040a01H
	DD	06340aH
	DD	07006320aH
xdata	ENDS
;	COMDAT xdata
xdata	SEGMENT
$unwind$??_Gbad_cast@std@@UEAAPEAXI@Z DD 040a01H
	DD	06340aH
	DD	07006320aH
xdata	ENDS
;	COMDAT xdata
xdata	SEGMENT
$ip2state$??0_Locinfo@std@@QEAA@PEBD@Z DD imagerel ??0_Locinfo@std@@QEAA@PEBD@Z
	DD	0ffffffffH
	DD	imagerel ??0_Locinfo@std@@QEAA@PEBD@Z+38
	DD	00H
	DD	imagerel ??0_Locinfo@std@@QEAA@PEBD@Z+47
	DD	01H
	DD	imagerel ??0_Locinfo@std@@QEAA@PEBD@Z+54
	DD	02H
	DD	imagerel ??0_Locinfo@std@@QEAA@PEBD@Z+62
	DD	03H
	DD	imagerel ??0_Locinfo@std@@QEAA@PEBD@Z+70
	DD	04H
	DD	imagerel ??0_Locinfo@std@@QEAA@PEBD@Z+77
	DD	05H
	DD	imagerel ??0_Locinfo@std@@QEAA@PEBD@Z+84
	DD	06H
	DD	imagerel ??0_Locinfo@std@@QEAA@PEBD@Z+136
	DD	0ffffffffH
xdata	ENDS
;	COMDAT xdata
xdata	SEGMENT
$stateUnwindMap$??0_Locinfo@std@@QEAA@PEBD@Z DD 0ffffffffH
	DD	imagerel ?dtor$0@?0???0_Locinfo@std@@QEAA@PEBD@Z@4HA
	DD	00H
	DD	imagerel ?dtor$1@?0???0_Locinfo@std@@QEAA@PEBD@Z@4HA
	DD	01H
	DD	imagerel ?dtor$2@?0???0_Locinfo@std@@QEAA@PEBD@Z@4HA
	DD	02H
	DD	imagerel ?dtor$3@?0???0_Locinfo@std@@QEAA@PEBD@Z@4HA
	DD	03H
	DD	imagerel ?dtor$4@?0???0_Locinfo@std@@QEAA@PEBD@Z@4HA
	DD	04H
	DD	imagerel ?dtor$5@?0???0_Locinfo@std@@QEAA@PEBD@Z@4HA
	DD	05H
	DD	imagerel ?dtor$6@?0???0_Locinfo@std@@QEAA@PEBD@Z@4HA
xdata	ENDS
;	COMDAT CONST
CONST	SEGMENT
$cppxdata$??0_Locinfo@std@@QEAA@PEBD@Z DD 019930522H
	DD	07H
	DD	imagerel $stateUnwindMap$??0_Locinfo@std@@QEAA@PEBD@Z
	DD	00H
	DD	00H
	DD	09H
	DD	imagerel $ip2state$??0_Locinfo@std@@QEAA@PEBD@Z
	DD	020H
	DD	00H
	DD	01H
CONST	ENDS
;	COMDAT xdata
xdata	SEGMENT
$unwind$??0_Locinfo@std@@QEAA@PEBD@Z DD 041811H
	DD	0b3418H
	DD	07006720aH
	DD	imagerel __CxxFrameHandler3
	DD	imagerel $cppxdata$??0_Locinfo@std@@QEAA@PEBD@Z
xdata	ENDS
;	COMDAT xdata
xdata	SEGMENT
$ip2state$??1_Locinfo@std@@QEAA@XZ DD imagerel ??1_Locinfo@std@@QEAA@XZ
	DD	0ffffffffH
xdata	ENDS
;	COMDAT CONST
CONST	SEGMENT
$cppxdata$??1_Locinfo@std@@QEAA@XZ DD 019930522H
	DD	00H
	DD	00H
	DD	00H
	DD	00H
	DD	01H
	DD	imagerel $ip2state$??1_Locinfo@std@@QEAA@XZ
	DD	020H
	DD	00H
	DD	05H
CONST	ENDS
;	COMDAT xdata
xdata	SEGMENT
$unwind$??1_Locinfo@std@@QEAA@XZ DD 041419H
	DD	083414H
	DD	070025206H
	DD	imagerel __CxxFrameHandler3
	DD	imagerel $cppxdata$??1_Locinfo@std@@QEAA@XZ
xdata	ENDS
;	COMDAT xdata
xdata	SEGMENT
$unwind$?_Getctype@_Locinfo@std@@QEBA?AU_Ctypevec@@XZ DD 020601H
	DD	030027206H
xdata	ENDS
;	COMDAT xdata
xdata	SEGMENT
$unwind$??0runtime_error@std@@QEAA@AEBV01@@Z DD 020601H
	DD	030023206H
xdata	ENDS
;	COMDAT xdata
xdata	SEGMENT
$unwind$??_G_Facet_base@std@@UEAAPEAXI@Z DD 020601H
	DD	030023206H
xdata	ENDS
;	COMDAT xdata
xdata	SEGMENT
$unwind$??Bid@locale@std@@QEAA_KXZ DD 020601H
	DD	030023206H
xdata	ENDS
;	COMDAT xdata
xdata	SEGMENT
$ip2state$??0locale@std@@QEAA@AEBV01@@Z DD imagerel ??0locale@std@@QEAA@AEBV01@@Z
	DD	0ffffffffH
xdata	ENDS
;	COMDAT CONST
CONST	SEGMENT
$cppxdata$??0locale@std@@QEAA@AEBV01@@Z DD 019930522H
	DD	00H
	DD	00H
	DD	00H
	DD	00H
	DD	01H
	DD	imagerel $ip2state$??0locale@std@@QEAA@AEBV01@@Z
	DD	020H
	DD	00H
	DD	05H
CONST	ENDS
;	COMDAT xdata
xdata	SEGMENT
$unwind$??0locale@std@@QEAA@AEBV01@@Z DD 020f19H
	DD	030025206H
	DD	imagerel __CxxFrameHandler3
	DD	imagerel $cppxdata$??0locale@std@@QEAA@AEBV01@@Z
xdata	ENDS
;	COMDAT xdata
xdata	SEGMENT
$ip2state$??1locale@std@@QEAA@XZ DD imagerel ??1locale@std@@QEAA@XZ
	DD	0ffffffffH
xdata	ENDS
;	COMDAT CONST
CONST	SEGMENT
$cppxdata$??1locale@std@@QEAA@XZ DD 019930522H
	DD	00H
	DD	00H
	DD	00H
	DD	00H
	DD	01H
	DD	imagerel $ip2state$??1locale@std@@QEAA@XZ
	DD	020H
	DD	00H
	DD	05H
CONST	ENDS
;	COMDAT xdata
xdata	SEGMENT
$unwind$??1locale@std@@QEAA@XZ DD 010d19H
	DD	06204H
	DD	imagerel __CxxFrameHandler3
	DD	imagerel $cppxdata$??1locale@std@@QEAA@XZ
xdata	ENDS
;	COMDAT xdata
xdata	SEGMENT
$unwind$?_Getfacet@locale@std@@QEBAPEBVfacet@12@_K@Z DD 040a01H
	DD	06340aH
	DD	07006320aH
xdata	ENDS
;	COMDAT xdata
xdata	SEGMENT
$unwind$??_Gfacet@locale@std@@MEAAPEAXI@Z DD 020601H
	DD	030023206H
xdata	ENDS
;	COMDAT xdata
xdata	SEGMENT
$unwind$??_Gctype_base@std@@UEAAPEAXI@Z DD 020601H
	DD	030023206H
xdata	ENDS
;	COMDAT xdata
xdata	SEGMENT
$unwind$?widen@?$ctype@D@std@@QEBADD@Z DD 010401H
	DD	04204H
xdata	ENDS
;	COMDAT xdata
xdata	SEGMENT
$unwind$??0?$ctype@D@std@@QEAA@AEBV_Locinfo@1@_K@Z DD 020601H
	DD	030027206H
xdata	ENDS
;	COMDAT xdata
xdata	SEGMENT
$unwind$?dtor$0@?0??_Getcat@?$ctype@D@std@@SA_KPEAPEBVfacet@locale@2@PEBV42@@Z@4HA DD 020601H
	DD	050023206H
xdata	ENDS
;	COMDAT xdata
xdata	SEGMENT
$ip2state$?_Getcat@?$ctype@D@std@@SA_KPEAPEBVfacet@locale@2@PEBV42@@Z DD imagerel ?_Getcat@?$ctype@D@std@@SA_KPEAPEBVfacet@locale@2@PEBV42@@Z
	DD	0ffffffffH
	DD	imagerel ?_Getcat@?$ctype@D@std@@SA_KPEAPEBVfacet@locale@2@PEBV42@@Z+83
	DD	00H
	DD	imagerel ?_Getcat@?$ctype@D@std@@SA_KPEAPEBVfacet@locale@2@PEBV42@@Z+127
	DD	01H
	DD	imagerel ?_Getcat@?$ctype@D@std@@SA_KPEAPEBVfacet@locale@2@PEBV42@@Z+137
	DD	02H
	DD	imagerel ?_Getcat@?$ctype@D@std@@SA_KPEAPEBVfacet@locale@2@PEBV42@@Z+147
	DD	03H
	DD	imagerel ?_Getcat@?$ctype@D@std@@SA_KPEAPEBVfacet@locale@2@PEBV42@@Z+157
	DD	04H
	DD	imagerel ?_Getcat@?$ctype@D@std@@SA_KPEAPEBVfacet@locale@2@PEBV42@@Z+167
	DD	05H
	DD	imagerel ?_Getcat@?$ctype@D@std@@SA_KPEAPEBVfacet@locale@2@PEBV42@@Z+177
	DD	06H
	DD	imagerel ?_Getcat@?$ctype@D@std@@SA_KPEAPEBVfacet@locale@2@PEBV42@@Z+190
	DD	07H
	DD	imagerel ?_Getcat@?$ctype@D@std@@SA_KPEAPEBVfacet@locale@2@PEBV42@@Z+250
	DD	00H
	DD	imagerel ?_Getcat@?$ctype@D@std@@SA_KPEAPEBVfacet@locale@2@PEBV42@@Z+291
	DD	0ffffffffH
xdata	ENDS
;	COMDAT xdata
xdata	SEGMENT
$stateUnwindMap$?_Getcat@?$ctype@D@std@@SA_KPEAPEBVfacet@locale@2@PEBV42@@Z DD 0ffffffffH
	DD	imagerel ?dtor$0@?0??_Getcat@?$ctype@D@std@@SA_KPEAPEBVfacet@locale@2@PEBV42@@Z@4HA
	DD	00H
	DD	imagerel ?dtor$2@?0??_Getcat@?$ctype@D@std@@SA_KPEAPEBVfacet@locale@2@PEBV42@@Z@4HA
	DD	01H
	DD	imagerel ?dtor$3@?0??_Getcat@?$ctype@D@std@@SA_KPEAPEBVfacet@locale@2@PEBV42@@Z@4HA
	DD	02H
	DD	imagerel ?dtor$4@?0??_Getcat@?$ctype@D@std@@SA_KPEAPEBVfacet@locale@2@PEBV42@@Z@4HA
	DD	03H
	DD	imagerel ?dtor$5@?0??_Getcat@?$ctype@D@std@@SA_KPEAPEBVfacet@locale@2@PEBV42@@Z@4HA
	DD	04H
	DD	imagerel ?dtor$6@?0??_Getcat@?$ctype@D@std@@SA_KPEAPEBVfacet@locale@2@PEBV42@@Z@4HA
	DD	05H
	DD	imagerel ?dtor$7@?0??_Getcat@?$ctype@D@std@@SA_KPEAPEBVfacet@locale@2@PEBV42@@Z@4HA
	DD	06H
	DD	imagerel ?dtor$8@?0??_Getcat@?$ctype@D@std@@SA_KPEAPEBVfacet@locale@2@PEBV42@@Z@4HA
xdata	ENDS
;	COMDAT CONST
CONST	SEGMENT
$cppxdata$?_Getcat@?$ctype@D@std@@SA_KPEAPEBVfacet@locale@2@PEBV42@@Z DD 019930522H
	DD	08H
	DD	imagerel $stateUnwindMap$?_Getcat@?$ctype@D@std@@SA_KPEAPEBVfacet@locale@2@PEBV42@@Z
	DD	00H
	DD	00H
	DD	0bH
	DD	imagerel $ip2state$?_Getcat@?$ctype@D@std@@SA_KPEAPEBVfacet@locale@2@PEBV42@@Z
	DD	088H
	DD	00H
	DD	01H
CONST	ENDS
;	COMDAT xdata
xdata	SEGMENT
$unwind$?_Getcat@?$ctype@D@std@@SA_KPEAPEBVfacet@locale@2@PEBV42@@Z DD 091f11H
	DD	01b641fH
	DD	01a541bH
	DD	0193417H
	DD	016010bH
	DD	07004H
	DD	imagerel __CxxFrameHandler3
	DD	imagerel $cppxdata$?_Getcat@?$ctype@D@std@@SA_KPEAPEBVfacet@locale@2@PEBV42@@Z
xdata	ENDS
;	COMDAT xdata
xdata	SEGMENT
$unwind$??1?$ctype@D@std@@MEAA@XZ DD 020601H
	DD	030023206H
xdata	ENDS
;	COMDAT xdata
xdata	SEGMENT
$unwind$?_Init@?$ctype@D@std@@IEAAXAEBV_Locinfo@2@@Z DD 020601H
	DD	030027206H
xdata	ENDS
;	COMDAT xdata
xdata	SEGMENT
$unwind$?_Tidy@?$ctype@D@std@@IEAAXXZ DD 020601H
	DD	030023206H
xdata	ENDS
;	COMDAT xdata
xdata	SEGMENT
$chain$1$?do_tolower@?$ctype@D@std@@MEBAPEBDPEADPEBD@Z DD 021H
	DD	imagerel $LN12
	DD	imagerel $LN12+38
	DD	imagerel $unwind$?do_tolower@?$ctype@D@std@@MEBAPEBDPEADPEBD@Z
xdata	ENDS
;	COMDAT xdata
xdata	SEGMENT
$chain$0$?do_tolower@?$ctype@D@std@@MEBAPEBDPEADPEBD@Z DD 020521H
	DD	065405H
	DD	imagerel $LN12
	DD	imagerel $LN12+38
	DD	imagerel $unwind$?do_tolower@?$ctype@D@std@@MEBAPEBDPEADPEBD@Z
xdata	ENDS
;	COMDAT xdata
xdata	SEGMENT
$unwind$?do_tolower@?$ctype@D@std@@MEBAPEBDPEADPEBD@Z DD 060f01H
	DD	08640fH
	DD	07340fH
	DD	0700b320fH
xdata	ENDS
;	COMDAT xdata
xdata	SEGMENT
$chain$1$?do_toupper@?$ctype@D@std@@MEBAPEBDPEADPEBD@Z DD 021H
	DD	imagerel $LN12
	DD	imagerel $LN12+38
	DD	imagerel $unwind$?do_toupper@?$ctype@D@std@@MEBAPEBDPEADPEBD@Z
xdata	ENDS
;	COMDAT xdata
xdata	SEGMENT
$chain$0$?do_toupper@?$ctype@D@std@@MEBAPEBDPEADPEBD@Z DD 020521H
	DD	065405H
	DD	imagerel $LN12
	DD	imagerel $LN12+38
	DD	imagerel $unwind$?do_toupper@?$ctype@D@std@@MEBAPEBDPEADPEBD@Z
xdata	ENDS
;	COMDAT xdata
xdata	SEGMENT
$unwind$?do_toupper@?$ctype@D@std@@MEBAPEBDPEADPEBD@Z DD 060f01H
	DD	08640fH
	DD	07340fH
	DD	0700b320fH
xdata	ENDS
;	COMDAT xdata
xdata	SEGMENT
$unwind$?do_widen@?$ctype@D@std@@MEBAPEBDPEBD0PEAD@Z DD 020601H
	DD	030023206H
xdata	ENDS
;	COMDAT xdata
xdata	SEGMENT
$unwind$?do_narrow@?$ctype@D@std@@MEBAPEBDPEBD0DPEAD@Z DD 020601H
	DD	030023206H
xdata	ENDS
;	COMDAT xdata
xdata	SEGMENT
$unwind$??_G?$ctype@D@std@@MEAAPEAXI@Z DD 040a01H
	DD	06340aH
	DD	07006320aH
xdata	ENDS
;	COMDAT xdata
xdata	SEGMENT
$unwind$??_Gerror_category@std@@UEAAPEAXI@Z DD 020601H
	DD	030023206H
xdata	ENDS
;	COMDAT xdata
xdata	SEGMENT
$unwind$?message@error_code@std@@QEBA?AV?$basic_string@DU?$char_traits@D@std@@V?$allocator@D@2@@2@XZ DD 020601H
	DD	030025206H
xdata	ENDS
;	COMDAT xdata
xdata	SEGMENT
$unwind$?equivalent@error_category@std@@UEBA_NHAEBVerror_condition@2@@Z DD 020601H
	DD	030025206H
xdata	ENDS
;	COMDAT xdata
xdata	SEGMENT
$unwind$?make_error_code@std@@YA?AVerror_code@1@W4io_errc@1@@Z DD 040a01H
	DD	06340aH
	DD	07006320aH
xdata	ENDS
;	COMDAT xdata
xdata	SEGMENT
$ip2state$?_Makestr@_System_error@std@@CA?AV?$basic_string@DU?$char_traits@D@std@@V?$allocator@D@2@@2@Verror_code@2@V32@@Z DD imagerel ?_Makestr@_System_error@std@@CA?AV?$basic_string@DU?$char_traits@D@std@@V?$allocator@D@2@@2@Verror_code@2@V32@@Z
	DD	0ffffffffH
	DD	imagerel ?_Makestr@_System_error@std@@CA?AV?$basic_string@DU?$char_traits@D@std@@V?$allocator@D@2@@2@Verror_code@2@V32@@Z+60
	DD	00H
	DD	imagerel ?_Makestr@_System_error@std@@CA?AV?$basic_string@DU?$char_traits@D@std@@V?$allocator@D@2@@2@Verror_code@2@V32@@Z+99
	DD	01H
	DD	imagerel ?_Makestr@_System_error@std@@CA?AV?$basic_string@DU?$char_traits@D@std@@V?$allocator@D@2@@2@Verror_code@2@V32@@Z+118
	DD	00H
	DD	imagerel ?_Makestr@_System_error@std@@CA?AV?$basic_string@DU?$char_traits@D@std@@V?$allocator@D@2@@2@Verror_code@2@V32@@Z+288
	DD	0ffffffffH
xdata	ENDS
;	COMDAT xdata
xdata	SEGMENT
$stateUnwindMap$?_Makestr@_System_error@std@@CA?AV?$basic_string@DU?$char_traits@D@std@@V?$allocator@D@2@@2@Verror_code@2@V32@@Z DD 0ffffffffH
	DD	imagerel ?dtor$0@?0??_Makestr@_System_error@std@@CA?AV?$basic_string@DU?$char_traits@D@std@@V?$allocator@D@2@@2@Verror_code@2@V32@@Z@4HA
	DD	00H
	DD	imagerel ?dtor$1@?0??_Makestr@_System_error@std@@CA?AV?$basic_string@DU?$char_traits@D@std@@V?$allocator@D@2@@2@Verror_code@2@V32@@Z@4HA
xdata	ENDS
;	COMDAT CONST
CONST	SEGMENT
$cppxdata$?_Makestr@_System_error@std@@CA?AV?$basic_string@DU?$char_traits@D@std@@V?$allocator@D@2@@2@Verror_code@2@V32@@Z DD 019930522H
	DD	02H
	DD	imagerel $stateUnwindMap$?_Makestr@_System_error@std@@CA?AV?$basic_string@DU?$char_traits@D@std@@V?$allocator@D@2@@2@Verror_code@2@V32@@Z
	DD	00H
	DD	00H
	DD	05H
	DD	imagerel $ip2state$?_Makestr@_System_error@std@@CA?AV?$basic_string@DU?$char_traits@D@std@@V?$allocator@D@2@@2@Verror_code@2@V32@@Z
	DD	028H
	DD	00H
	DD	01H
CONST	ENDS
;	COMDAT xdata
xdata	SEGMENT
$unwind$?_Makestr@_System_error@std@@CA?AV?$basic_string@DU?$char_traits@D@std@@V?$allocator@D@2@@2@Verror_code@2@V32@@Z DD 062819H
	DD	0133419H
	DD	07004b208H
	DD	050026003H
	DD	imagerel __GSHandlerCheck_EH
	DD	imagerel $cppxdata$?_Makestr@_System_error@std@@CA?AV?$basic_string@DU?$char_traits@D@std@@V?$allocator@D@2@@2@Verror_code@2@V32@@Z
	DD	05aH
xdata	ENDS
;	COMDAT xdata
xdata	SEGMENT
$unwind$??0_System_error@std@@IEAA@Verror_code@1@AEBV?$basic_string@DU?$char_traits@D@std@@V?$allocator@D@2@@1@@Z DD 041c19H
	DD	015340dH
	DD	07006f20dH
	DD	imagerel __GSHandlerCheck
	DD	070H
xdata	ENDS
;	COMDAT xdata
xdata	SEGMENT
$unwind$??_G_System_error@std@@UEAAPEAXI@Z DD 040a01H
	DD	06340aH
	DD	07006320aH
xdata	ENDS
;	COMDAT xdata
xdata	SEGMENT
$ip2state$??0system_error@std@@QEAA@Verror_code@1@PEBD@Z DD imagerel ??0system_error@std@@QEAA@Verror_code@1@PEBD@Z
	DD	0ffffffffH
	DD	imagerel ??0system_error@std@@QEAA@Verror_code@1@PEBD@Z+93
	DD	00H
	DD	imagerel ??0system_error@std@@QEAA@Verror_code@1@PEBD@Z+120
	DD	0ffffffffH
xdata	ENDS
;	COMDAT xdata
xdata	SEGMENT
$stateUnwindMap$??0system_error@std@@QEAA@Verror_code@1@PEBD@Z DD 0ffffffffH
	DD	imagerel ?dtor$0@?0???0system_error@std@@QEAA@Verror_code@1@PEBD@Z@4HA
xdata	ENDS
;	COMDAT CONST
CONST	SEGMENT
$cppxdata$??0system_error@std@@QEAA@Verror_code@1@PEBD@Z DD 019930522H
	DD	01H
	DD	imagerel $stateUnwindMap$??0system_error@std@@QEAA@Verror_code@1@PEBD@Z
	DD	00H
	DD	00H
	DD	03H
	DD	imagerel $ip2state$??0system_error@std@@QEAA@Verror_code@1@PEBD@Z
	DD	020H
	DD	00H
	DD	01H
CONST	ENDS
;	COMDAT xdata
xdata	SEGMENT
$unwind$??0system_error@std@@QEAA@Verror_code@1@PEBD@Z DD 042319H
	DD	0133414H
	DD	07004d208H
	DD	imagerel __GSHandlerCheck_EH
	DD	imagerel $cppxdata$??0system_error@std@@QEAA@Verror_code@1@PEBD@Z
	DD	062H
xdata	ENDS
;	COMDAT xdata
xdata	SEGMENT
$unwind$??_Gsystem_error@std@@UEAAPEAXI@Z DD 040a01H
	DD	06340aH
	DD	07006320aH
xdata	ENDS
;	COMDAT xdata
xdata	SEGMENT
$unwind$?message@_Generic_error_category@std@@UEBA?AV?$basic_string@DU?$char_traits@D@std@@V?$allocator@D@2@@2@H@Z DD 020601H
	DD	030025206H
xdata	ENDS
;	COMDAT xdata
xdata	SEGMENT
$unwind$??_G_Generic_error_category@std@@UEAAPEAXI@Z DD 020601H
	DD	030023206H
xdata	ENDS
;	COMDAT xdata
xdata	SEGMENT
$unwind$?message@_Iostream_error_category@std@@UEBA?AV?$basic_string@DU?$char_traits@D@std@@V?$allocator@D@2@@2@H@Z DD 020601H
	DD	030025206H
xdata	ENDS
;	COMDAT xdata
xdata	SEGMENT
$unwind$??_G_Iostream_error_category@std@@UEAAPEAXI@Z DD 020601H
	DD	030023206H
xdata	ENDS
;	COMDAT xdata
xdata	SEGMENT
$unwind$?iostream_category@std@@YAAEBVerror_category@1@XZ DD 010401H
	DD	04204H
xdata	ENDS
;	COMDAT xdata
xdata	SEGMENT
$unwind$??0failure@ios_base@std@@QEAA@PEBDAEBVerror_code@2@@Z DD 020601H
	DD	030025206H
xdata	ENDS
;	COMDAT xdata
xdata	SEGMENT
$unwind$?clear@ios_base@std@@QEAAXH_N@Z DD 010401H
	DD	0c204H
xdata	ENDS
;	COMDAT xdata
xdata	SEGMENT
$ip2state$?getloc@ios_base@std@@QEBA?AVlocale@2@XZ DD imagerel ?getloc@ios_base@std@@QEBA?AVlocale@2@XZ
	DD	0ffffffffH
	DD	imagerel ?getloc@ios_base@std@@QEBA?AVlocale@2@XZ+22
	DD	00H
	DD	imagerel ?getloc@ios_base@std@@QEBA?AVlocale@2@XZ+37
	DD	0ffffffffH
xdata	ENDS
;	COMDAT xdata
xdata	SEGMENT
$stateUnwindMap$?getloc@ios_base@std@@QEBA?AVlocale@2@XZ DD 0ffffffffH
	DD	imagerel __std_terminate
xdata	ENDS
;	COMDAT CONST
CONST	SEGMENT
$cppxdata$?getloc@ios_base@std@@QEBA?AVlocale@2@XZ DD 019930522H
	DD	01H
	DD	imagerel $stateUnwindMap$?getloc@ios_base@std@@QEBA?AVlocale@2@XZ
	DD	00H
	DD	00H
	DD	03H
	DD	imagerel $ip2state$?getloc@ios_base@std@@QEBA?AVlocale@2@XZ
	DD	020H
	DD	00H
	DD	01H
CONST	ENDS
;	COMDAT xdata
xdata	SEGMENT
$unwind$?getloc@ios_base@std@@QEBA?AVlocale@2@XZ DD 020f11H
	DD	030025206H
	DD	imagerel __CxxFrameHandler3
	DD	imagerel $cppxdata$?getloc@ios_base@std@@QEBA?AVlocale@2@XZ
xdata	ENDS
;	COMDAT xdata
xdata	SEGMENT
$unwind$??_Gfailure@ios_base@std@@UEAAPEAXI@Z DD 040a01H
	DD	06340aH
	DD	07006320aH
xdata	ENDS
;	COMDAT xdata
xdata	SEGMENT
$unwind$??0failure@ios_base@std@@QEAA@AEBV012@@Z DD 040a01H
	DD	06340aH
	DD	07006320aH
xdata	ENDS
;	COMDAT xdata
xdata	SEGMENT
$unwind$??0system_error@std@@QEAA@AEBV01@@Z DD 040a01H
	DD	06340aH
	DD	07006320aH
xdata	ENDS
;	COMDAT xdata
xdata	SEGMENT
$unwind$??0_System_error@std@@QEAA@AEBV01@@Z DD 040a01H
	DD	06340aH
	DD	07006320aH
$cppxdata$main DD 019930522H
	DD	03H
	DD	imagerel $stateUnwindMap$main
	DD	00H
	DD	00H
	DD	06H
	DD	imagerel $ip2state$main
	DD	020H
	DD	00H
	DD	01H
$cppxdata$?setVector@@YA?AV?$vector@DV?$allocator@D@std@@@std@@D@Z DD 019930522H
	DD	01H
	DD	imagerel $stateUnwindMap$?setVector@@YA?AV?$vector@DV?$allocator@D@std@@@std@@D@Z
	DD	00H
	DD	00H
	DD	02H
	DD	imagerel $ip2state$?setVector@@YA?AV?$vector@DV?$allocator@D@std@@@std@@D@Z
	DD	028H
	DD	00H
	DD	01H
CONST	ENDS
xdata	SEGMENT
$unwind$main DD	0a2311H
	DD	0f7423H
	DD	0e641eH
	DD	0d5419H
	DD	0c3414H
	DD	0e0029206H
	DD	imagerel __CxxFrameHandler3
	DD	imagerel $cppxdata$main
$stateUnwindMap$main DD 0ffffffffH
	DD	imagerel main$dtor$0
	DD	00H
	DD	imagerel main$dtor$13
	DD	00H
	DD	imagerel __std_terminate
$ip2state$main DD imagerel main
	DD	0ffffffffH
	DD	imagerel main+97
	DD	00H
	DD	imagerel main+160
	DD	01H
	DD	imagerel main+171
	DD	02H
	DD	imagerel main+207
	DD	00H
	DD	imagerel main+267
	DD	0ffffffffH
$unwind$?setVector@@YA?AV?$vector@DV?$allocator@D@std@@@std@@D@Z DD 061d11H
	DD	0a641dH
	DD	093418H
	DD	07006520aH
	DD	imagerel __CxxFrameHandler3
	DD	imagerel $cppxdata$?setVector@@YA?AV?$vector@DV?$allocator@D@std@@@std@@D@Z
$stateUnwindMap$?setVector@@YA?AV?$vector@DV?$allocator@D@std@@@std@@D@Z DD 0ffffffffH
	DD	imagerel ?dtor$0@?0??setVector@@YA?AV?$vector@DV?$allocator@D@std@@@std@@D@Z@4HA
$ip2state$?setVector@@YA?AV?$vector@DV?$allocator@D@std@@@std@@D@Z DD imagerel ?setVector@@YA?AV?$vector@DV?$allocator@D@std@@@std@@D@Z
	DD	0ffffffffH
	DD	imagerel ?setVector@@YA?AV?$vector@DV?$allocator@D@std@@@std@@D@Z+35
	DD	00H
$unwind$?dtor$0@?0??setVector@@YA?AV?$vector@DV?$allocator@D@std@@@std@@D@Z@4HA DD 020601H
	DD	050023206H
xdata	ENDS
;	COMDAT xdata
xdata	SEGMENT
$unwind$??R<lambda_0965ae3a6f2eda0c9be18e4c004bd2c1>@@QEBAPEADPEAD_K@Z DD 040a01H
	DD	06340aH
	DD	07006320aH
xdata	ENDS
;	COMDAT xdata
xdata	SEGMENT
$unwind$??1?$vector@DV?$allocator@D@std@@@std@@QEAA@XZ DD 020601H
	DD	030023206H
xdata	ENDS
;	COMDAT xdata
xdata	SEGMENT
$unwind$??1?$_Yarn@_W@std@@QEAA@XZ DD 020601H
	DD	030023206H
xdata	ENDS
;	COMDAT xdata
xdata	SEGMENT
$unwind$??1?$_Yarn@D@std@@QEAA@XZ DD 020601H
	DD	030023206H
xdata	ENDS
;	COMDAT xdata
xdata	SEGMENT
$unwind$??1?$basic_string@DU?$char_traits@D@std@@V?$allocator@D@2@@std@@QEAA@XZ DD 010401H
	DD	04204H
xdata	ENDS
;	COMDAT xdata
xdata	SEGMENT
$unwind$??0?$basic_string@DU?$char_traits@D@std@@V?$allocator@D@2@@std@@QEAA@$$QEAV01@@Z DD 040a01H
	DD	06340aH
	DD	07006320aH
xdata	ENDS
;	COMDAT xdata
xdata	SEGMENT
$unwind$??0?$basic_string@DU?$char_traits@D@std@@V?$allocator@D@2@@std@@QEAA@QEBD@Z DD 020601H
	DD	030023206H
xdata	ENDS
;	COMDAT xdata
xdata	SEGMENT
$unwind$??0?$basic_string@DU?$char_traits@D@std@@V?$allocator@D@2@@std@@QEAA@AEBV01@@Z DD 020601H
	DD	030023206H
xdata	ENDS
;	COMDAT xdata
xdata	SEGMENT
$unwind$?_Tidy@?$vector@DV?$allocator@D@std@@@std@@AEAAXXZ DD 020601H
	DD	030023206H
xdata	ENDS
;	COMDAT xdata
xdata	SEGMENT
$unwind$?_Udefault@?$vector@DV?$allocator@D@std@@@std@@AEAAPEADPEAD_K@Z DD 040a01H
	DD	06340aH
	DD	07006320aH
xdata	ENDS
;	COMDAT xdata
xdata	SEGMENT
$unwind$?_Tidy@?$_Yarn@_W@std@@AEAAXXZ DD 020601H
	DD	030023206H
xdata	ENDS
;	COMDAT xdata
xdata	SEGMENT
$unwind$?_Tidy@?$_Yarn@D@std@@AEAAXXZ DD 020601H
	DD	030023206H
xdata	ENDS
;	COMDAT xdata
xdata	SEGMENT
$unwind$?_Tidy_deallocate_only@?$basic_string@DU?$char_traits@D@std@@V?$allocator@D@2@@std@@QEAAXXZ DD 010401H
	DD	04204H
xdata	ENDS
;	COMDAT xdata
xdata	SEGMENT
$chain$1$?append@?$basic_string@DU?$char_traits@D@std@@V?$allocator@D@2@@std@@QEAAAEAV12@QEBD_K@Z DD 021H
	DD	imagerel $LN142
	DD	imagerel $LN142+119
	DD	imagerel $unwind$?append@?$basic_string@DU?$char_traits@D@std@@V?$allocator@D@2@@std@@QEAAAEAV12@QEBD_K@Z
xdata	ENDS
;	COMDAT xdata
xdata	SEGMENT
$chain$0$?append@?$basic_string@DU?$char_traits@D@std@@V?$allocator@D@2@@std@@QEAAAEAV12@QEBD_K@Z DD 020521H
	DD	067405H
	DD	imagerel $LN142
	DD	imagerel $LN142+119
	DD	imagerel $unwind$?append@?$basic_string@DU?$char_traits@D@std@@V?$allocator@D@2@@std@@QEAAAEAV12@QEBD_K@Z
xdata	ENDS
;	COMDAT xdata
xdata	SEGMENT
$unwind$?append@?$basic_string@DU?$char_traits@D@std@@V?$allocator@D@2@@std@@QEAAAEAV12@QEBD_K@Z DD 060f01H
	DD	08540fH
	DD	07340fH
	DD	0600b320fH
xdata	ENDS
;	COMDAT xdata
xdata	SEGMENT
$chain$1$?append@?$basic_string@DU?$char_traits@D@std@@V?$allocator@D@2@@std@@QEAAAEAV12@AEBV12@_K_K@Z DD 021H
	DD	imagerel $LN151
	DD	imagerel $LN151+75
	DD	imagerel $unwind$?append@?$basic_string@DU?$char_traits@D@std@@V?$allocator@D@2@@std@@QEAAAEAV12@AEBV12@_K_K@Z
xdata	ENDS
;	COMDAT xdata
xdata	SEGMENT
$chain$0$?append@?$basic_string@DU?$char_traits@D@std@@V?$allocator@D@2@@std@@QEAAAEAV12@AEBV12@_K_K@Z DD 020521H
	DD	067405H
	DD	imagerel $LN151
	DD	imagerel $LN151+75
	DD	imagerel $unwind$?append@?$basic_string@DU?$char_traits@D@std@@V?$allocator@D@2@@std@@QEAAAEAV12@AEBV12@_K_K@Z
xdata	ENDS
;	COMDAT xdata
xdata	SEGMENT
$unwind$?append@?$basic_string@DU?$char_traits@D@std@@V?$allocator@D@2@@std@@QEAAAEAV12@AEBV12@_K_K@Z DD 081501H
	DD	096415H
	DD	085415H
	DD	073415H
	DD	0e0113215H
xdata	ENDS
;	COMDAT xdata
xdata	SEGMENT
$unwind$?_Assign_rv_contents@?$basic_string@DU?$char_traits@D@std@@V?$allocator@D@2@@std@@QEAAX$$QEAV12@@Z DD 040a01H
	DD	06340aH
	DD	07006320aH
xdata	ENDS
;	COMDAT xdata
xdata	SEGMENT
$unwind$?deallocate@?$_Wrap_alloc@V?$allocator@D@std@@@std@@QEAAXPEAD_K@Z DD 010401H
	DD	04204H
xdata	ENDS
;	COMDAT xdata
xdata	SEGMENT
$unwind$?_Check_offset@?$basic_string@DU?$char_traits@D@std@@V?$allocator@D@2@@std@@QEBAX_K@Z DD 010401H
	DD	04204H
xdata	ENDS
;	COMDAT xdata
xdata	SEGMENT
$unwind$?_Xlen@?$basic_string@DU?$char_traits@D@std@@V?$allocator@D@2@@std@@SAXXZ DD 010401H
	DD	04204H
xdata	ENDS
;	COMDAT xdata
xdata	SEGMENT
$unwind$?_Grow@?$basic_string@DU?$char_traits@D@std@@V?$allocator@D@2@@std@@QEAA_N_K@Z DD 010401H
	DD	04204H
xdata	ENDS
;	COMDAT xdata
xdata	SEGMENT
$unwind$?assign@?$basic_string@DU?$char_traits@D@std@@V?$allocator@D@2@@std@@QEAAAEAV12@QEBD_K@Z DD 060f01H
	DD	07640fH
	DD	06340fH
	DD	0700b320fH
xdata	ENDS
;	COMDAT xdata
xdata	SEGMENT
$unwind$?assign@?$basic_string@DU?$char_traits@D@std@@V?$allocator@D@2@@std@@QEAAAEAV12@AEBV12@_K_K@Z DD 081501H
	DD	087415H
	DD	076415H
	DD	063415H
	DD	0e0113215H
xdata	ENDS
;	COMDAT xdata
xdata	SEGMENT
$unwind$?_Xran@?$basic_string@DU?$char_traits@D@std@@V?$allocator@D@2@@std@@SAXXZ DD 010401H
	DD	04204H
xdata	ENDS
;	COMDAT xdata
xdata	SEGMENT
$unwind$?catch$16@?0??_Copy@?$basic_string@DU?$char_traits@D@std@@V?$allocator@D@2@@std@@QEAAX_K@Z@4HA DD 020a19H
	DD	05006320aH
	DD	imagerel __CxxFrameHandler3
	DD	imagerel $cppxdata$?_Copy@?$basic_string@DU?$char_traits@D@std@@V?$allocator@D@2@@std@@QEAAX_K@Z
xdata	ENDS
;	COMDAT xdata
xdata	SEGMENT
$ip2state$?_Copy@?$basic_string@DU?$char_traits@D@std@@V?$allocator@D@2@@std@@QEAAX_K@Z DD imagerel ?_Copy@?$basic_string@DU?$char_traits@D@std@@V?$allocator@D@2@@std@@QEAAX_K@Z
	DD	0ffffffffH
	DD	imagerel ?_Copy@?$basic_string@DU?$char_traits@D@std@@V?$allocator@D@2@@std@@QEAAX_K@Z+119
	DD	00H
	DD	imagerel ?_Copy@?$basic_string@DU?$char_traits@D@std@@V?$allocator@D@2@@std@@QEAAX_K@Z+185
	DD	0ffffffffH
	DD	imagerel ?catch$16@?0??_Copy@?$basic_string@DU?$char_traits@D@std@@V?$allocator@D@2@@std@@QEAAX_K@Z@4HA
	DD	00H
	DD	imagerel ?catch$16@?0??_Copy@?$basic_string@DU?$char_traits@D@std@@V?$allocator@D@2@@std@@QEAAX_K@Z@4HA+13
	DD	01H
	DD	imagerel ?catch$16@?0??_Copy@?$basic_string@DU?$char_traits@D@std@@V?$allocator@D@2@@std@@QEAAX_K@Z@4HA+37
	DD	00H
xdata	ENDS
;	COMDAT xdata
xdata	SEGMENT
$handlerMap$0$?_Copy@?$basic_string@DU?$char_traits@D@std@@V?$allocator@D@2@@std@@QEAAX_K@Z DD 040H
	DD	00H
	DD	00H
	DD	imagerel ?catch$16@?0??_Copy@?$basic_string@DU?$char_traits@D@std@@V?$allocator@D@2@@std@@QEAAX_K@Z@4HA
	DD	038H
xdata	ENDS
;	COMDAT xdata
xdata	SEGMENT
$tryMap$?_Copy@?$basic_string@DU?$char_traits@D@std@@V?$allocator@D@2@@std@@QEAAX_K@Z DD 00H
	DD	00H
	DD	01H
	DD	01H
	DD	imagerel $handlerMap$0$?_Copy@?$basic_string@DU?$char_traits@D@std@@V?$allocator@D@2@@std@@QEAAX_K@Z
xdata	ENDS
;	COMDAT xdata
xdata	SEGMENT
$stateUnwindMap$?_Copy@?$basic_string@DU?$char_traits@D@std@@V?$allocator@D@2@@std@@QEAAX_K@Z DD 0ffffffffH
	DD	00H
	DD	0ffffffffH
	DD	00H
xdata	ENDS
;	COMDAT CONST
CONST	SEGMENT
$cppxdata$?_Copy@?$basic_string@DU?$char_traits@D@std@@V?$allocator@D@2@@std@@QEAAX_K@Z DD 019930522H
	DD	02H
	DD	imagerel $stateUnwindMap$?_Copy@?$basic_string@DU?$char_traits@D@std@@V?$allocator@D@2@@std@@QEAAX_K@Z
	DD	01H
	DD	imagerel $tryMap$?_Copy@?$basic_string@DU?$char_traits@D@std@@V?$allocator@D@2@@std@@QEAAX_K@Z
	DD	06H
	DD	imagerel $ip2state$?_Copy@?$basic_string@DU?$char_traits@D@std@@V?$allocator@D@2@@std@@QEAAX_K@Z
	DD	020H
	DD	00H
	DD	01H
CONST	ENDS
;	COMDAT xdata
xdata	SEGMENT
$unwind$?_Copy@?$basic_string@DU?$char_traits@D@std@@V?$allocator@D@2@@std@@QEAAX_K@Z DD 051c19H
	DD	0e00f6213H
	DD	0600c700dH
	DD	0300bH
	DD	imagerel __CxxFrameHandler3
	DD	imagerel $cppxdata$?_Copy@?$basic_string@DU?$char_traits@D@std@@V?$allocator@D@2@@std@@QEAAX_K@Z
xdata	ENDS
;	COMDAT xdata
xdata	SEGMENT
$unwind$?erase@?$basic_string@DU?$char_traits@D@std@@V?$allocator@D@2@@std@@QEAAAEAV12@_K0@Z DD 040a01H
	DD	06340aH
	DD	07006320aH
xdata	ENDS
;	COMDAT xdata
xdata	SEGMENT
$unwind$?erase@?$basic_string@DU?$char_traits@D@std@@V?$allocator@D@2@@std@@QEAAAEAV12@_K@Z DD 010401H
	DD	04204H
xdata	ENDS
;	COMDAT xdata
xdata	SEGMENT
$unwind$?deallocate@?$allocator@D@std@@QEAAXPEAD_K@Z DD 010401H
	DD	04204H
xdata	ENDS
;	COMDAT xdata
xdata	SEGMENT
$unwind$?allocate@?$_Wrap_alloc@V?$allocator@D@std@@@std@@QEAAPEAD_K@Z DD 010401H
	DD	04204H
xdata	ENDS
;	COMDAT xdata
xdata	SEGMENT
$unwind$?allocate@?$allocator@D@std@@QEAAPEAD_K@Z DD 010401H
	DD	04204H
xdata	ENDS
;	COMDAT xdata
xdata	SEGMENT
$ip2state$??$use_facet@V?$ctype@D@std@@@std@@YAAEBV?$ctype@D@0@AEBVlocale@0@@Z DD imagerel ??$use_facet@V?$ctype@D@std@@@std@@YAAEBV?$ctype@D@0@AEBVlocale@0@@Z
	DD	0ffffffffH
	DD	imagerel ??$use_facet@V?$ctype@D@std@@@std@@YAAEBV?$ctype@D@0@AEBVlocale@0@@Z+38
	DD	00H
	DD	imagerel ??$use_facet@V?$ctype@D@std@@@std@@YAAEBV?$ctype@D@0@AEBVlocale@0@@Z+300
	DD	0ffffffffH
xdata	ENDS
;	COMDAT xdata
xdata	SEGMENT
$stateUnwindMap$??$use_facet@V?$ctype@D@std@@@std@@YAAEBV?$ctype@D@0@AEBVlocale@0@@Z DD 0ffffffffH
	DD	imagerel ?dtor$0@?0???$use_facet@V?$ctype@D@std@@@std@@YAAEBV?$ctype@D@0@AEBVlocale@0@@Z@4HA
xdata	ENDS
;	COMDAT CONST
CONST	SEGMENT
$cppxdata$??$use_facet@V?$ctype@D@std@@@std@@YAAEBV?$ctype@D@0@AEBVlocale@0@@Z DD 019930522H
	DD	01H
	DD	imagerel $stateUnwindMap$??$use_facet@V?$ctype@D@std@@@std@@YAAEBV?$ctype@D@0@AEBVlocale@0@@Z
	DD	00H
	DD	00H
	DD	03H
	DD	imagerel $ip2state$??$use_facet@V?$ctype@D@std@@@std@@YAAEBV?$ctype@D@0@AEBVlocale@0@@Z
	DD	020H
	DD	00H
	DD	01H
CONST	ENDS
;	COMDAT xdata
xdata	SEGMENT
$unwind$??$use_facet@V?$ctype@D@std@@@std@@YAAEBV?$ctype@D@0@AEBVlocale@0@@Z DD 061611H
	DD	0f3416H
	DD	070047208H
	DD	050026003H
	DD	imagerel __CxxFrameHandler3
	DD	imagerel $cppxdata$??$use_facet@V?$ctype@D@std@@@std@@YAAEBV?$ctype@D@0@AEBVlocale@0@@Z
xdata	ENDS
;	COMDAT xdata
xdata	SEGMENT
$unwind$??$_Immortalize@V_Iostream_error_category@std@@@std@@YAAEAV_Iostream_error_category@0@XZ DD 010401H
	DD	04204H
xdata	ENDS
;	COMDAT xdata
xdata	SEGMENT
$unwind$?catch$16@?0???$?6U?$char_traits@D@std@@@std@@YAAEAV?$basic_ostream@DU?$char_traits@D@std@@@0@AEAV10@D@Z@4HA DD 020a19H
	DD	05006320aH
	DD	imagerel __CxxFrameHandler3
	DD	imagerel $cppxdata$??$?6U?$char_traits@D@std@@@std@@YAAEAV?$basic_ostream@DU?$char_traits@D@std@@@0@AEAV10@D@Z
xdata	ENDS
;	COMDAT xdata
xdata	SEGMENT
$ip2state$??$?6U?$char_traits@D@std@@@std@@YAAEAV?$basic_ostream@DU?$char_traits@D@std@@@0@AEAV10@D@Z DD imagerel ??$?6U?$char_traits@D@std@@@std@@YAAEAV?$basic_ostream@DU?$char_traits@D@std@@@0@AEAV10@D@Z
	DD	0ffffffffH
	DD	imagerel ??$?6U?$char_traits@D@std@@@std@@YAAEAV?$basic_ostream@DU?$char_traits@D@std@@@0@AEAV10@D@Z+109
	DD	00H
	DD	imagerel ??$?6U?$char_traits@D@std@@@std@@YAAEAV?$basic_ostream@DU?$char_traits@D@std@@@0@AEAV10@D@Z+163
	DD	01H
	DD	imagerel ??$?6U?$char_traits@D@std@@@std@@YAAEAV?$basic_ostream@DU?$char_traits@D@std@@@0@AEAV10@D@Z+190
	DD	02H
	DD	imagerel ??$?6U?$char_traits@D@std@@@std@@YAAEAV?$basic_ostream@DU?$char_traits@D@std@@@0@AEAV10@D@Z+509
	DD	01H
	DD	imagerel ??$?6U?$char_traits@D@std@@@std@@YAAEAV?$basic_ostream@DU?$char_traits@D@std@@@0@AEAV10@D@Z+761
	DD	04H
	DD	imagerel ??$?6U?$char_traits@D@std@@@std@@YAAEAV?$basic_ostream@DU?$char_traits@D@std@@@0@AEAV10@D@Z+779
	DD	05H
	DD	imagerel ??$?6U?$char_traits@D@std@@@std@@YAAEAV?$basic_ostream@DU?$char_traits@D@std@@@0@AEAV10@D@Z+804
	DD	0ffffffffH
	DD	imagerel ?catch$16@?0???$?6U?$char_traits@D@std@@@std@@YAAEAV?$basic_ostream@DU?$char_traits@D@std@@@0@AEAV10@D@Z@4HA
	DD	00H
	DD	imagerel ?catch$16@?0???$?6U?$char_traits@D@std@@@std@@YAAEAV?$basic_ostream@DU?$char_traits@D@std@@@0@AEAV10@D@Z@4HA+13
	DD	03H
	DD	imagerel ?catch$16@?0???$?6U?$char_traits@D@std@@@std@@YAAEAV?$basic_ostream@DU?$char_traits@D@std@@@0@AEAV10@D@Z@4HA+57
	DD	00H
	DD	imagerel ?catch$16@?0???$?6U?$char_traits@D@std@@@std@@YAAEAV?$basic_ostream@DU?$char_traits@D@std@@@0@AEAV10@D@Z@4HA+66
	DD	03H
	DD	imagerel ?catch$16@?0???$?6U?$char_traits@D@std@@@std@@YAAEAV?$basic_ostream@DU?$char_traits@D@std@@@0@AEAV10@D@Z@4HA+76
	DD	00H
xdata	ENDS
;	COMDAT xdata
xdata	SEGMENT
$handlerMap$0$??$?6U?$char_traits@D@std@@@std@@YAAEAV?$basic_ostream@DU?$char_traits@D@std@@@0@AEAV10@D@Z DD 040H
	DD	00H
	DD	00H
	DD	imagerel ?catch$16@?0???$?6U?$char_traits@D@std@@@std@@YAAEAV?$basic_ostream@DU?$char_traits@D@std@@@0@AEAV10@D@Z@4HA
	DD	038H
xdata	ENDS
;	COMDAT xdata
xdata	SEGMENT
$tryMap$??$?6U?$char_traits@D@std@@@std@@YAAEAV?$basic_ostream@DU?$char_traits@D@std@@@0@AEAV10@D@Z DD 02H
	DD	02H
	DD	03H
	DD	01H
	DD	imagerel $handlerMap$0$??$?6U?$char_traits@D@std@@@std@@YAAEAV?$basic_ostream@DU?$char_traits@D@std@@@0@AEAV10@D@Z
xdata	ENDS
;	COMDAT xdata
xdata	SEGMENT
$stateUnwindMap$??$?6U?$char_traits@D@std@@@std@@YAAEAV?$basic_ostream@DU?$char_traits@D@std@@@0@AEAV10@D@Z DD 0ffffffffH
	DD	imagerel ?dtor$1@?0???$?6U?$char_traits@D@std@@@std@@YAAEAV?$basic_ostream@DU?$char_traits@D@std@@@0@AEAV10@D@Z@4HA
	DD	0ffffffffH
	DD	imagerel ?dtor$0@?0???$?6U?$char_traits@D@std@@@std@@YAAEAV?$basic_ostream@DU?$char_traits@D@std@@@0@AEAV10@D@Z@4HA
	DD	01H
	DD	00H
	DD	01H
	DD	00H
	DD	0ffffffffH
	DD	imagerel __std_terminate
	DD	04H
	DD	imagerel __std_terminate
xdata	ENDS
;	COMDAT CONST
CONST	SEGMENT
$cppxdata$??$?6U?$char_traits@D@std@@@std@@YAAEAV?$basic_ostream@DU?$char_traits@D@std@@@0@AEAV10@D@Z DD 019930522H
	DD	06H
	DD	imagerel $stateUnwindMap$??$?6U?$char_traits@D@std@@@std@@YAAEAV?$basic_ostream@DU?$char_traits@D@std@@@0@AEAV10@D@Z
	DD	01H
	DD	imagerel $tryMap$??$?6U?$char_traits@D@std@@@std@@YAAEAV?$basic_ostream@DU?$char_traits@D@std@@@0@AEAV10@D@Z
	DD	0dH
	DD	imagerel $ip2state$??$?6U?$char_traits@D@std@@@std@@YAAEAV?$basic_ostream@DU?$char_traits@D@std@@@0@AEAV10@D@Z
	DD	040H
	DD	00H
	DD	01H
CONST	ENDS
;	COMDAT xdata
xdata	SEGMENT
$unwind$??$?6U?$char_traits@D@std@@@std@@YAAEAV?$basic_ostream@DU?$char_traits@D@std@@@0@AEAV10@D@Z DD 092419H
	DD	018011bH
	DD	0e012f014H
	DD	0c00ed010H
	DD	0600b700cH
	DD	0300aH
	DD	imagerel __CxxFrameHandler3
	DD	imagerel $cppxdata$??$?6U?$char_traits@D@std@@@std@@YAAEAV?$basic_ostream@DU?$char_traits@D@std@@@0@AEAV10@D@Z
xdata	ENDS
;	COMDAT xdata
xdata	SEGMENT
$ip2state$??$endl@DU?$char_traits@D@std@@@std@@YAAEAV?$basic_ostream@DU?$char_traits@D@std@@@0@AEAV10@@Z DD imagerel ??$endl@DU?$char_traits@D@std@@@std@@YAAEAV?$basic_ostream@DU?$char_traits@D@std@@@0@AEAV10@@Z
	DD	0ffffffffH
	DD	imagerel ??$endl@DU?$char_traits@D@std@@@std@@YAAEAV?$basic_ostream@DU?$char_traits@D@std@@@0@AEAV10@@Z+44
	DD	00H
	DD	imagerel ??$endl@DU?$char_traits@D@std@@@std@@YAAEAV?$basic_ostream@DU?$char_traits@D@std@@@0@AEAV10@@Z+55
	DD	01H
	DD	imagerel ??$endl@DU?$char_traits@D@std@@@std@@YAAEAV?$basic_ostream@DU?$char_traits@D@std@@@0@AEAV10@@Z+91
	DD	0ffffffffH
xdata	ENDS
;	COMDAT xdata
xdata	SEGMENT
$stateUnwindMap$??$endl@DU?$char_traits@D@std@@@std@@YAAEAV?$basic_ostream@DU?$char_traits@D@std@@@0@AEAV10@@Z DD 0ffffffffH
	DD	imagerel ?dtor$0@?0???$endl@DU?$char_traits@D@std@@@std@@YAAEAV?$basic_ostream@DU?$char_traits@D@std@@@0@AEAV10@@Z@4HA
	DD	0ffffffffH
	DD	imagerel __std_terminate
xdata	ENDS
;	COMDAT CONST
CONST	SEGMENT
$cppxdata$??$endl@DU?$char_traits@D@std@@@std@@YAAEAV?$basic_ostream@DU?$char_traits@D@std@@@0@AEAV10@@Z DD 019930522H
	DD	02H
	DD	imagerel $stateUnwindMap$??$endl@DU?$char_traits@D@std@@@std@@YAAEAV?$basic_ostream@DU?$char_traits@D@std@@@0@AEAV10@@Z
	DD	00H
	DD	00H
	DD	04H
	DD	imagerel $ip2state$??$endl@DU?$char_traits@D@std@@@std@@YAAEAV?$basic_ostream@DU?$char_traits@D@std@@@0@AEAV10@@Z
	DD	020H
	DD	00H
	DD	01H
CONST	ENDS
;	COMDAT xdata
xdata	SEGMENT
$unwind$??$endl@DU?$char_traits@D@std@@@std@@YAAEAV?$basic_ostream@DU?$char_traits@D@std@@@0@AEAV10@@Z DD 041411H
	DD	0a3414H
	DD	070027206H
	DD	imagerel __CxxFrameHandler3
	DD	imagerel $cppxdata$??$endl@DU?$char_traits@D@std@@@std@@YAAEAV?$basic_ostream@DU?$char_traits@D@std@@@0@AEAV10@@Z
xdata	ENDS
;	COMDAT xdata
xdata	SEGMENT
$chain$2$??$_Resize@V<lambda_0965ae3a6f2eda0c9be18e4c004bd2c1>@@@?$vector@DV?$allocator@D@std@@@std@@AEAAX_KV<lambda_0965ae3a6f2eda0c9be18e4c004bd2c1>@@@Z DD 020021H
	DD	066400H
	DD	imagerel ??$_Resize@V<lambda_0965ae3a6f2eda0c9be18e4c004bd2c1>@@@?$vector@DV?$allocator@D@std@@@std@@AEAAX_KV<lambda_0965ae3a6f2eda0c9be18e4c004bd2c1>@@@Z
	DD	imagerel ??$_Resize@V<lambda_0965ae3a6f2eda0c9be18e4c004bd2c1>@@@?$vector@DV?$allocator@D@std@@@std@@AEAAX_KV<lambda_0965ae3a6f2eda0c9be18e4c004bd2c1>@@@Z+61
	DD	imagerel $unwind$??$_Resize@V<lambda_0965ae3a6f2eda0c9be18e4c004bd2c1>@@@?$vector@DV?$allocator@D@std@@@std@@AEAAX_KV<lambda_0965ae3a6f2eda0c9be18e4c004bd2c1>@@@Z
xdata	ENDS
;	COMDAT xdata
xdata	SEGMENT
$chain$1$??$_Resize@V<lambda_0965ae3a6f2eda0c9be18e4c004bd2c1>@@@?$vector@DV?$allocator@D@std@@@std@@AEAAX_KV<lambda_0965ae3a6f2eda0c9be18e4c004bd2c1>@@@Z DD 021H
	DD	imagerel ??$_Resize@V<lambda_0965ae3a6f2eda0c9be18e4c004bd2c1>@@@?$vector@DV?$allocator@D@std@@@std@@AEAAX_KV<lambda_0965ae3a6f2eda0c9be18e4c004bd2c1>@@@Z
	DD	imagerel ??$_Resize@V<lambda_0965ae3a6f2eda0c9be18e4c004bd2c1>@@@?$vector@DV?$allocator@D@std@@@std@@AEAAX_KV<lambda_0965ae3a6f2eda0c9be18e4c004bd2c1>@@@Z+61
	DD	imagerel $unwind$??$_Resize@V<lambda_0965ae3a6f2eda0c9be18e4c004bd2c1>@@@?$vector@DV?$allocator@D@std@@@std@@AEAAX_KV<lambda_0965ae3a6f2eda0c9be18e4c004bd2c1>@@@Z
xdata	ENDS
;	COMDAT xdata
xdata	SEGMENT
$chain$0$??$_Resize@V<lambda_0965ae3a6f2eda0c9be18e4c004bd2c1>@@@?$vector@DV?$allocator@D@std@@@std@@AEAAX_KV<lambda_0965ae3a6f2eda0c9be18e4c004bd2c1>@@@Z DD 020521H
	DD	066405H
	DD	imagerel ??$_Resize@V<lambda_0965ae3a6f2eda0c9be18e4c004bd2c1>@@@?$vector@DV?$allocator@D@std@@@std@@AEAAX_KV<lambda_0965ae3a6f2eda0c9be18e4c004bd2c1>@@@Z
	DD	imagerel ??$_Resize@V<lambda_0965ae3a6f2eda0c9be18e4c004bd2c1>@@@?$vector@DV?$allocator@D@std@@@std@@AEAAX_KV<lambda_0965ae3a6f2eda0c9be18e4c004bd2c1>@@@Z+61
	DD	imagerel $unwind$??$_Resize@V<lambda_0965ae3a6f2eda0c9be18e4c004bd2c1>@@@?$vector@DV?$allocator@D@std@@@std@@AEAAX_KV<lambda_0965ae3a6f2eda0c9be18e4c004bd2c1>@@@Z
xdata	ENDS
;	COMDAT xdata
xdata	SEGMENT
$unwind$??$_Resize@V<lambda_0965ae3a6f2eda0c9be18e4c004bd2c1>@@@?$vector@DV?$allocator@D@std@@@std@@AEAAX_KV<lambda_0965ae3a6f2eda0c9be18e4c004bd2c1>@@@Z DD 081501H
	DD	097415H
	DD	085415H
	DD	073415H
	DD	0e0113215H
xdata	ENDS
;	COMDAT xdata
xdata	SEGMENT
$unwind$??$_Uninitialized_default_fill_n@PEAD_KV?$allocator@D@std@@@std@@YAPEADPEAD_KAEAU?$_Wrap_alloc@V?$allocator@D@std@@@0@@Z DD 040a01H
	DD	06340aH
	DD	07006320aH
xdata	ENDS
;	COMDAT xdata
xdata	SEGMENT
$unwind$??0bad_cast@std@@QEAA@AEBV01@@Z DD 020601H
	DD	030023206H
xdata	ENDS
;	COMDAT xdata
xdata	SEGMENT
$ip2state$??1sentry@?$basic_ostream@DU?$char_traits@D@std@@@std@@QEAA@XZ DD imagerel ??1sentry@?$basic_ostream@DU?$char_traits@D@std@@@std@@QEAA@XZ
	DD	0ffffffffH
	DD	imagerel ??1sentry@?$basic_ostream@DU?$char_traits@D@std@@@std@@QEAA@XZ+37
	DD	00H
	DD	imagerel ??1sentry@?$basic_ostream@DU?$char_traits@D@std@@@std@@QEAA@XZ+64
	DD	0ffffffffH
xdata	ENDS
;	COMDAT xdata
xdata	SEGMENT
$stateUnwindMap$??1sentry@?$basic_ostream@DU?$char_traits@D@std@@@std@@QEAA@XZ DD 0ffffffffH
	DD	imagerel __std_terminate
xdata	ENDS
;	COMDAT CONST
CONST	SEGMENT
$cppxdata$??1sentry@?$basic_ostream@DU?$char_traits@D@std@@@std@@QEAA@XZ DD 019930522H
	DD	01H
	DD	imagerel $stateUnwindMap$??1sentry@?$basic_ostream@DU?$char_traits@D@std@@@std@@QEAA@XZ
	DD	00H
	DD	00H
	DD	03H
	DD	imagerel $ip2state$??1sentry@?$basic_ostream@DU?$char_traits@D@std@@@std@@QEAA@XZ
	DD	020H
	DD	00H
	DD	05H
CONST	ENDS
;	COMDAT xdata
xdata	SEGMENT
$unwind$??1sentry@?$basic_ostream@DU?$char_traits@D@std@@@std@@QEAA@XZ DD 020f19H
	DD	030025206H
	DD	imagerel __CxxFrameHandler3
	DD	imagerel $cppxdata$??1sentry@?$basic_ostream@DU?$char_traits@D@std@@@std@@QEAA@XZ
xdata	ENDS
;	COMDAT xdata
xdata	SEGMENT
$ip2state$??0sentry@?$basic_ostream@DU?$char_traits@D@std@@@std@@QEAA@AEAV12@@Z DD imagerel ??0sentry@?$basic_ostream@DU?$char_traits@D@std@@@std@@QEAA@AEAV12@@Z
	DD	0ffffffffH
	DD	imagerel ??0sentry@?$basic_ostream@DU?$char_traits@D@std@@@std@@QEAA@AEAV12@@Z+57
	DD	00H
	DD	imagerel ??0sentry@?$basic_ostream@DU?$char_traits@D@std@@@std@@QEAA@AEAV12@@Z+109
	DD	0ffffffffH
xdata	ENDS
;	COMDAT xdata
xdata	SEGMENT
$stateUnwindMap$??0sentry@?$basic_ostream@DU?$char_traits@D@std@@@std@@QEAA@AEAV12@@Z DD 0ffffffffH
	DD	imagerel ?dtor$0@?0???0sentry@?$basic_ostream@DU?$char_traits@D@std@@@std@@QEAA@AEAV12@@Z@4HA
xdata	ENDS
;	COMDAT CONST
CONST	SEGMENT
$cppxdata$??0sentry@?$basic_ostream@DU?$char_traits@D@std@@@std@@QEAA@AEAV12@@Z DD 019930522H
	DD	01H
	DD	imagerel $stateUnwindMap$??0sentry@?$basic_ostream@DU?$char_traits@D@std@@@std@@QEAA@AEAV12@@Z
	DD	00H
	DD	00H
	DD	03H
	DD	imagerel $ip2state$??0sentry@?$basic_ostream@DU?$char_traits@D@std@@@std@@QEAA@AEAV12@@Z
	DD	020H
	DD	00H
	DD	01H
CONST	ENDS
;	COMDAT xdata
xdata	SEGMENT
$unwind$??0sentry@?$basic_ostream@DU?$char_traits@D@std@@@std@@QEAA@AEAV12@@Z DD 041811H
	DD	093418H
	DD	07006520aH
	DD	imagerel __CxxFrameHandler3
	DD	imagerel $cppxdata$??0sentry@?$basic_ostream@DU?$char_traits@D@std@@@std@@QEAA@AEAV12@@Z
xdata	ENDS
;	COMDAT xdata
xdata	SEGMENT
$unwind$?_Xlength@?$vector@DV?$allocator@D@std@@@std@@CAXXZ DD 010401H
	DD	04204H
xdata	ENDS
;	COMDAT xdata
xdata	SEGMENT
$unwind$?_Change_array@?$vector@DV?$allocator@D@std@@@std@@AEAAXQEAD_K1@Z DD 060f01H
	DD	07640fH
	DD	06340fH
	DD	0700b320fH
xdata	ENDS
;	COMDAT xdata
xdata	SEGMENT
$ip2state$?flush@?$basic_ostream@DU?$char_traits@D@std@@@std@@QEAAAEAV12@XZ DD imagerel ?flush@?$basic_ostream@DU?$char_traits@D@std@@@std@@QEAAAEAV12@XZ
	DD	0ffffffffH
	DD	imagerel ?flush@?$basic_ostream@DU?$char_traits@D@std@@@std@@QEAAAEAV12@XZ+51
	DD	00H
	DD	imagerel ?flush@?$basic_ostream@DU?$char_traits@D@std@@@std@@QEAAAEAV12@XZ+281
	DD	01H
	DD	imagerel ?flush@?$basic_ostream@DU?$char_traits@D@std@@@std@@QEAAAEAV12@XZ+301
	DD	02H
	DD	imagerel ?flush@?$basic_ostream@DU?$char_traits@D@std@@@std@@QEAAAEAV12@XZ+330
	DD	0ffffffffH
xdata	ENDS
;	COMDAT xdata
xdata	SEGMENT
$stateUnwindMap$?flush@?$basic_ostream@DU?$char_traits@D@std@@@std@@QEAAAEAV12@XZ DD 0ffffffffH
	DD	imagerel ?dtor$0@?0??flush@?$basic_ostream@DU?$char_traits@D@std@@@std@@QEAAAEAV12@XZ@4HA
	DD	0ffffffffH
	DD	imagerel __std_terminate
	DD	01H
	DD	imagerel __std_terminate
xdata	ENDS
;	COMDAT CONST
CONST	SEGMENT
$cppxdata$?flush@?$basic_ostream@DU?$char_traits@D@std@@@std@@QEAAAEAV12@XZ DD 019930522H
	DD	03H
	DD	imagerel $stateUnwindMap$?flush@?$basic_ostream@DU?$char_traits@D@std@@@std@@QEAAAEAV12@XZ
	DD	00H
	DD	00H
	DD	05H
	DD	imagerel $ip2state$?flush@?$basic_ostream@DU?$char_traits@D@std@@@std@@QEAAAEAV12@XZ
	DD	020H
	DD	00H
	DD	01H
CONST	ENDS
;	COMDAT xdata
xdata	SEGMENT
$unwind$?flush@?$basic_ostream@DU?$char_traits@D@std@@@std@@QEAAAEAV12@XZ DD 020f11H
	DD	03002d206H
	DD	imagerel __CxxFrameHandler3
	DD	imagerel $cppxdata$?flush@?$basic_ostream@DU?$char_traits@D@std@@@std@@QEAAAEAV12@XZ
xdata	ENDS
;	COMDAT xdata
xdata	SEGMENT
$unwind$?catch$8@?0??put@?$basic_ostream@DU?$char_traits@D@std@@@std@@QEAAAEAV12@D@Z@4HA DD 020a19H
	DD	05006320aH
	DD	imagerel __CxxFrameHandler3
	DD	imagerel $cppxdata$?put@?$basic_ostream@DU?$char_traits@D@std@@@std@@QEAAAEAV12@D@Z
xdata	ENDS
;	COMDAT xdata
xdata	SEGMENT
$ip2state$?put@?$basic_ostream@DU?$char_traits@D@std@@@std@@QEAAAEAV12@D@Z DD imagerel ?put@?$basic_ostream@DU?$char_traits@D@std@@@std@@QEAAAEAV12@D@Z
	DD	0ffffffffH
	DD	imagerel ?put@?$basic_ostream@DU?$char_traits@D@std@@@std@@QEAAAEAV12@D@Z+76
	DD	00H
	DD	imagerel ?put@?$basic_ostream@DU?$char_traits@D@std@@@std@@QEAAAEAV12@D@Z+129
	DD	01H
	DD	imagerel ?put@?$basic_ostream@DU?$char_traits@D@std@@@std@@QEAAAEAV12@D@Z+140
	DD	02H
	DD	imagerel ?put@?$basic_ostream@DU?$char_traits@D@std@@@std@@QEAAAEAV12@D@Z+222
	DD	01H
	DD	imagerel ?put@?$basic_ostream@DU?$char_traits@D@std@@@std@@QEAAAEAV12@D@Z+445
	DD	04H
	DD	imagerel ?put@?$basic_ostream@DU?$char_traits@D@std@@@std@@QEAAAEAV12@D@Z+463
	DD	05H
	DD	imagerel ?put@?$basic_ostream@DU?$char_traits@D@std@@@std@@QEAAAEAV12@D@Z+487
	DD	0ffffffffH
	DD	imagerel ?catch$8@?0??put@?$basic_ostream@DU?$char_traits@D@std@@@std@@QEAAAEAV12@D@Z@4HA
	DD	00H
	DD	imagerel ?catch$8@?0??put@?$basic_ostream@DU?$char_traits@D@std@@@std@@QEAAAEAV12@D@Z@4HA+13
	DD	03H
	DD	imagerel ?catch$8@?0??put@?$basic_ostream@DU?$char_traits@D@std@@@std@@QEAAAEAV12@D@Z@4HA+57
	DD	00H
	DD	imagerel ?catch$8@?0??put@?$basic_ostream@DU?$char_traits@D@std@@@std@@QEAAAEAV12@D@Z@4HA+66
	DD	03H
	DD	imagerel ?catch$8@?0??put@?$basic_ostream@DU?$char_traits@D@std@@@std@@QEAAAEAV12@D@Z@4HA+76
	DD	00H
xdata	ENDS
;	COMDAT xdata
xdata	SEGMENT
$handlerMap$0$?put@?$basic_ostream@DU?$char_traits@D@std@@@std@@QEAAAEAV12@D@Z DD 040H
	DD	00H
	DD	00H
	DD	imagerel ?catch$8@?0??put@?$basic_ostream@DU?$char_traits@D@std@@@std@@QEAAAEAV12@D@Z@4HA
	DD	038H
xdata	ENDS
;	COMDAT xdata
xdata	SEGMENT
$tryMap$?put@?$basic_ostream@DU?$char_traits@D@std@@@std@@QEAAAEAV12@D@Z DD 02H
	DD	02H
	DD	03H
	DD	01H
	DD	imagerel $handlerMap$0$?put@?$basic_ostream@DU?$char_traits@D@std@@@std@@QEAAAEAV12@D@Z
xdata	ENDS
;	COMDAT xdata
xdata	SEGMENT
$stateUnwindMap$?put@?$basic_ostream@DU?$char_traits@D@std@@@std@@QEAAAEAV12@D@Z DD 0ffffffffH
	DD	imagerel ?dtor$1@?0??put@?$basic_ostream@DU?$char_traits@D@std@@@std@@QEAAAEAV12@D@Z@4HA
	DD	0ffffffffH
	DD	imagerel ?dtor$0@?0??put@?$basic_ostream@DU?$char_traits@D@std@@@std@@QEAAAEAV12@D@Z@4HA
	DD	01H
	DD	00H
	DD	01H
	DD	00H
	DD	0ffffffffH
	DD	imagerel __std_terminate
	DD	04H
	DD	imagerel __std_terminate
xdata	ENDS
;	COMDAT CONST
CONST	SEGMENT
$cppxdata$?put@?$basic_ostream@DU?$char_traits@D@std@@@std@@QEAAAEAV12@D@Z DD 019930522H
	DD	06H
	DD	imagerel $stateUnwindMap$?put@?$basic_ostream@DU?$char_traits@D@std@@@std@@QEAAAEAV12@D@Z
	DD	01H
	DD	imagerel $tryMap$?put@?$basic_ostream@DU?$char_traits@D@std@@@std@@QEAAAEAV12@D@Z
	DD	0dH
	DD	imagerel $ip2state$?put@?$basic_ostream@DU?$char_traits@D@std@@@std@@QEAAAEAV12@D@Z
	DD	030H
	DD	00H
	DD	01H
CONST	ENDS
;	COMDAT xdata
xdata	SEGMENT
$unwind$?put@?$basic_ostream@DU?$char_traits@D@std@@@std@@QEAAAEAV12@D@Z DD 072019H
	DD	01d6420H
	DD	01b341cH
	DD	018010fH
	DD	07008H
	DD	imagerel __CxxFrameHandler3
	DD	imagerel $cppxdata$?put@?$basic_ostream@DU?$char_traits@D@std@@@std@@QEAAAEAV12@D@Z
xdata	ENDS
;	COMDAT xdata
xdata	SEGMENT
$ip2state$?widen@?$basic_ios@DU?$char_traits@D@std@@@std@@QEBADD@Z DD imagerel ?widen@?$basic_ios@DU?$char_traits@D@std@@@std@@QEBADD@Z
	DD	0ffffffffH
	DD	imagerel ?widen@?$basic_ios@DU?$char_traits@D@std@@@std@@QEBADD@Z+34
	DD	00H
	DD	imagerel ?widen@?$basic_ios@DU?$char_traits@D@std@@@std@@QEBADD@Z+45
	DD	01H
	DD	imagerel ?widen@?$basic_ios@DU?$char_traits@D@std@@@std@@QEBADD@Z+81
	DD	0ffffffffH
xdata	ENDS
;	COMDAT xdata
xdata	SEGMENT
$stateUnwindMap$?widen@?$basic_ios@DU?$char_traits@D@std@@@std@@QEBADD@Z DD 0ffffffffH
	DD	imagerel ?dtor$0@?0??widen@?$basic_ios@DU?$char_traits@D@std@@@std@@QEBADD@Z@4HA
	DD	0ffffffffH
	DD	imagerel __std_terminate
xdata	ENDS
;	COMDAT CONST
CONST	SEGMENT
$cppxdata$?widen@?$basic_ios@DU?$char_traits@D@std@@@std@@QEBADD@Z DD 019930522H
	DD	02H
	DD	imagerel $stateUnwindMap$?widen@?$basic_ios@DU?$char_traits@D@std@@@std@@QEBADD@Z
	DD	00H
	DD	00H
	DD	04H
	DD	imagerel $ip2state$?widen@?$basic_ios@DU?$char_traits@D@std@@@std@@QEBADD@Z
	DD	020H
	DD	00H
	DD	01H
CONST	ENDS
;	COMDAT xdata
xdata	SEGMENT
$unwind$?widen@?$basic_ios@DU?$char_traits@D@std@@@std@@QEBADD@Z DD 041411H
	DD	0a3414H
	DD	070027206H
	DD	imagerel __CxxFrameHandler3
	DD	imagerel $cppxdata$?widen@?$basic_ios@DU?$char_traits@D@std@@@std@@QEBADD@Z
xdata	ENDS
;	COMDAT xdata
xdata	SEGMENT
$ip2state$??1_Sentry_base@?$basic_ostream@DU?$char_traits@D@std@@@std@@QEAA@XZ DD imagerel ??1_Sentry_base@?$basic_ostream@DU?$char_traits@D@std@@@std@@QEAA@XZ
	DD	0ffffffffH
xdata	ENDS
;	COMDAT CONST
CONST	SEGMENT
$cppxdata$??1_Sentry_base@?$basic_ostream@DU?$char_traits@D@std@@@std@@QEAA@XZ DD 019930522H
	DD	00H
	DD	00H
	DD	00H
	DD	00H
	DD	01H
	DD	imagerel $ip2state$??1_Sentry_base@?$basic_ostream@DU?$char_traits@D@std@@@std@@QEAA@XZ
	DD	020H
	DD	00H
	DD	05H
CONST	ENDS
;	COMDAT xdata
xdata	SEGMENT
$unwind$??1_Sentry_base@?$basic_ostream@DU?$char_traits@D@std@@@std@@QEAA@XZ DD 010d19H
	DD	06204H
	DD	imagerel __CxxFrameHandler3
	DD	imagerel $cppxdata$??1_Sentry_base@?$basic_ostream@DU?$char_traits@D@std@@@std@@QEAA@XZ
xdata	ENDS
;	COMDAT xdata
xdata	SEGMENT
$unwind$??0_Sentry_base@?$basic_ostream@DU?$char_traits@D@std@@@std@@QEAA@AEAV12@@Z DD 020601H
	DD	030023206H
xdata	ENDS
;	COMDAT xdata
xdata	SEGMENT
$unwind$?catch$0@?0??_Osfx@?$basic_ostream@DU?$char_traits@D@std@@@std@@QEAAXXZ@4HA DD 020a19H
	DD	05006320aH
	DD	imagerel __CxxFrameHandler3
	DD	imagerel $cppxdata$?_Osfx@?$basic_ostream@DU?$char_traits@D@std@@@std@@QEAAXXZ
xdata	ENDS
;	COMDAT xdata
xdata	SEGMENT
$ip2state$?_Osfx@?$basic_ostream@DU?$char_traits@D@std@@@std@@QEAAXXZ DD imagerel ?_Osfx@?$basic_ostream@DU?$char_traits@D@std@@@std@@QEAAXXZ
	DD	0ffffffffH
	DD	imagerel ?_Osfx@?$basic_ostream@DU?$char_traits@D@std@@@std@@QEAAXXZ+21
	DD	00H
	DD	imagerel ?_Osfx@?$basic_ostream@DU?$char_traits@D@std@@@std@@QEAAXXZ+266
	DD	0ffffffffH
	DD	imagerel ?catch$0@?0??_Osfx@?$basic_ostream@DU?$char_traits@D@std@@@std@@QEAAXXZ@4HA
	DD	00H
xdata	ENDS
;	COMDAT xdata
xdata	SEGMENT
$handlerMap$0$?_Osfx@?$basic_ostream@DU?$char_traits@D@std@@@std@@QEAAXXZ DD 040H
	DD	00H
	DD	00H
	DD	imagerel ?catch$0@?0??_Osfx@?$basic_ostream@DU?$char_traits@D@std@@@std@@QEAAXXZ@4HA
	DD	038H
xdata	ENDS
;	COMDAT xdata
xdata	SEGMENT
$tryMap$?_Osfx@?$basic_ostream@DU?$char_traits@D@std@@@std@@QEAAXXZ DD 00H
	DD	00H
	DD	01H
	DD	01H
	DD	imagerel $handlerMap$0$?_Osfx@?$basic_ostream@DU?$char_traits@D@std@@@std@@QEAAXXZ
xdata	ENDS
;	COMDAT xdata
xdata	SEGMENT
$stateUnwindMap$?_Osfx@?$basic_ostream@DU?$char_traits@D@std@@@std@@QEAAXXZ DD 0ffffffffH
	DD	00H
	DD	0ffffffffH
	DD	00H
xdata	ENDS
;	COMDAT CONST
CONST	SEGMENT
$cppxdata$?_Osfx@?$basic_ostream@DU?$char_traits@D@std@@@std@@QEAAXXZ DD 019930522H
	DD	02H
	DD	imagerel $stateUnwindMap$?_Osfx@?$basic_ostream@DU?$char_traits@D@std@@@std@@QEAAXXZ
	DD	01H
	DD	imagerel $tryMap$?_Osfx@?$basic_ostream@DU?$char_traits@D@std@@@std@@QEAAXXZ
	DD	04H
	DD	imagerel $ip2state$?_Osfx@?$basic_ostream@DU?$char_traits@D@std@@@std@@QEAAXXZ
	DD	030H
	DD	00H
	DD	01H
CONST	ENDS
;	COMDAT xdata
xdata	SEGMENT
$unwind$?_Osfx@?$basic_ostream@DU?$char_traits@D@std@@@std@@QEAAXXZ DD 031219H
	DD	0160109H
	DD	03002H
	DD	imagerel __CxxFrameHandler3
	DD	imagerel $cppxdata$?_Osfx@?$basic_ostream@DU?$char_traits@D@std@@@std@@QEAAXXZ
xdata	ENDS
;	COMDAT xdata
xdata	SEGMENT
$unwind$??$_Uninitialized_default_fill_n1@PEAD_KV?$allocator@D@std@@@std@@YAPEADPEAD_KAEAU?$_Wrap_alloc@V?$allocator@D@std@@@0@U?$integral_constant@_N$00@0@@Z DD 040a01H
	DD	06340aH
	DD	07006320aH
xdata	ENDS
;	COMDAT xdata
xdata	SEGMENT
$unwind$??$_Uninitialized_move@PEADPEADV?$allocator@D@std@@@std@@YAPEADPEAD00AEAU?$_Wrap_alloc@V?$allocator@D@std@@@0@@Z DD 040a01H
	DD	06340aH
	DD	07006320aH
xdata	ENDS
;	COMDAT xdata
xdata	SEGMENT
$unwind$??$_Uninitialized_move_al_unchecked@PEADPEADV?$allocator@D@std@@@std@@YAPEADPEAD00AEAU?$_Wrap_alloc@V?$allocator@D@std@@@0@@Z DD 040a01H
	DD	06340aH
	DD	07006320aH
xdata	ENDS
;	COMDAT xdata
xdata	SEGMENT
$unwind$??$_Uninitialized_move_al_unchecked1@DDV?$allocator@D@std@@@std@@YAPEADPEAD00AEAU?$_Wrap_alloc@V?$allocator@D@std@@@0@U_Really_trivial_ptr_iterator_tag@0@U?$integral_constant@_N$00@0@@Z DD 040a01H
	DD	06340aH
	DD	07006320aH
xdata	ENDS
;	COMDAT xdata
xdata	SEGMENT
$unwind$??$_Copy_memmove@PEADPEAD@std@@YAPEADPEAD00@Z DD 040a01H
	DD	06340aH
	DD	07006320aH
xdata	ENDS
; Function compile flags: /Ogtpy
; File c:\users\alist_000\cppmisc\packages\visualcpptools.14.0.24629\lib\native\include\vcruntime_exception.h
;	COMDAT ??0exception@std@@QEAA@QEBD@Z
_TEXT	SEGMENT
_InitData$ = 32
this$ = 64
_Message$ = 72
??0exception@std@@QEAA@QEBD@Z PROC			; std::exception::exception, COMDAT

; 53   :     {

$LN4:
  00000	40 53		 push	 rbx
  00002	48 83 ec 30	 sub	 rsp, 48			; 00000030H
  00006	48 8b d9	 mov	 rbx, rcx

; 54   :         __std_exception_data _InitData = { _Message, true };

  00009	c6 44 24 28 01	 mov	 BYTE PTR _InitData$[rsp+8], 1
  0000e	48 8b c2	 mov	 rax, rdx
  00011	48 8d 0d 00 00
	00 00		 lea	 rcx, OFFSET FLAT:??_7exception@std@@6B@
  00018	48 8d 53 08	 lea	 rdx, QWORD PTR [rbx+8]
  0001c	48 89 44 24 20	 mov	 QWORD PTR _InitData$[rsp], rax
  00021	48 89 0b	 mov	 QWORD PTR [rbx], rcx
  00024	33 c9		 xor	 ecx, ecx
  00026	48 89 0a	 mov	 QWORD PTR [rdx], rcx
  00029	48 89 4a 08	 mov	 QWORD PTR [rdx+8], rcx

; 55   :         __std_exception_copy(&_InitData, &_Data);

  0002d	48 8d 4c 24 20	 lea	 rcx, QWORD PTR _InitData$[rsp]
  00032	e8 00 00 00 00	 call	 __std_exception_copy

; 56   :     }

  00037	48 8b c3	 mov	 rax, rbx
  0003a	48 83 c4 30	 add	 rsp, 48			; 00000030H
  0003e	5b		 pop	 rbx
  0003f	c3		 ret	 0
??0exception@std@@QEAA@QEBD@Z ENDP			; std::exception::exception
_TEXT	ENDS
; Function compile flags: /Ogtpy
; File c:\users\alist_000\cppmisc\packages\visualcpptools.14.0.24629\lib\native\include\vcruntime_exception.h
;	COMDAT ??0exception@std@@QEAA@QEBDH@Z
_TEXT	SEGMENT
this$ = 8
_Message$ = 16
__formal$ = 24
??0exception@std@@QEAA@QEBDH@Z PROC			; std::exception::exception, COMDAT

; 60   :     {

  00000	48 8d 05 00 00
	00 00		 lea	 rax, OFFSET FLAT:??_7exception@std@@6B@
  00007	48 89 01	 mov	 QWORD PTR [rcx], rax
  0000a	33 c0		 xor	 eax, eax
  0000c	48 89 41 10	 mov	 QWORD PTR [rcx+16], rax

; 61   :         _Data._What = _Message;
; 62   :     }

  00010	48 8b c1	 mov	 rax, rcx
  00013	48 89 51 08	 mov	 QWORD PTR [rcx+8], rdx
  00017	c3		 ret	 0
??0exception@std@@QEAA@QEBDH@Z ENDP			; std::exception::exception
_TEXT	ENDS
; Function compile flags: /Ogtpy
; File c:\users\alist_000\cppmisc\packages\visualcpptools.14.0.24629\lib\native\include\vcruntime_exception.h
;	COMDAT ??0exception@std@@QEAA@AEBV01@@Z
_TEXT	SEGMENT
this$ = 48
_Other$ = 56
??0exception@std@@QEAA@AEBV01@@Z PROC			; std::exception::exception, COMDAT

; 66   :     {

$LN4:
  00000	40 53		 push	 rbx
  00002	48 83 ec 20	 sub	 rsp, 32			; 00000020H
  00006	48 8b d9	 mov	 rbx, rcx
  00009	48 8b c2	 mov	 rax, rdx
  0000c	48 8d 53 08	 lea	 rdx, QWORD PTR [rbx+8]
  00010	48 8d 0d 00 00
	00 00		 lea	 rcx, OFFSET FLAT:??_7exception@std@@6B@
  00017	48 89 0b	 mov	 QWORD PTR [rbx], rcx
  0001a	33 c9		 xor	 ecx, ecx
  0001c	48 89 0a	 mov	 QWORD PTR [rdx], rcx
  0001f	48 89 4a 08	 mov	 QWORD PTR [rdx+8], rcx

; 67   :         __std_exception_copy(&_Other._Data, &_Data);

  00023	48 8d 48 08	 lea	 rcx, QWORD PTR [rax+8]
  00027	e8 00 00 00 00	 call	 __std_exception_copy

; 68   :     }

  0002c	48 8b c3	 mov	 rax, rbx
  0002f	48 83 c4 20	 add	 rsp, 32			; 00000020H
  00033	5b		 pop	 rbx
  00034	c3		 ret	 0
??0exception@std@@QEAA@AEBV01@@Z ENDP			; std::exception::exception
_TEXT	ENDS
; Function compile flags: /Ogtpy
; File c:\users\alist_000\cppmisc\packages\visualcpptools.14.0.24629\lib\native\include\vcruntime_exception.h
;	COMDAT ??1exception@std@@UEAA@XZ
_TEXT	SEGMENT
this$ = 8
??1exception@std@@UEAA@XZ PROC				; std::exception::~exception, COMDAT

; 83   :     {

  00000	48 8d 05 00 00
	00 00		 lea	 rax, OFFSET FLAT:??_7exception@std@@6B@
  00007	48 89 01	 mov	 QWORD PTR [rcx], rax

; 84   :         __std_exception_destroy(&_Data);

  0000a	48 83 c1 08	 add	 rcx, 8
  0000e	e9 00 00 00 00	 jmp	 __std_exception_destroy
??1exception@std@@UEAA@XZ ENDP				; std::exception::~exception
_TEXT	ENDS
; Function compile flags: /Ogtpy
; File c:\users\alist_000\cppmisc\packages\visualcpptools.14.0.24629\lib\native\include\vcruntime_exception.h
;	COMDAT ?what@exception@std@@UEBAPEBDXZ
_TEXT	SEGMENT
this$ = 8
?what@exception@std@@UEBAPEBDXZ PROC			; std::exception::what, COMDAT

; 89   :         return _Data._What ? _Data._What : "Unknown exception";

  00000	48 8b 51 08	 mov	 rdx, QWORD PTR [rcx+8]
  00004	48 8d 05 00 00
	00 00		 lea	 rax, OFFSET FLAT:??_C@_0BC@EOODALEL@Unknown?5exception?$AA@
  0000b	48 85 d2	 test	 rdx, rdx
  0000e	48 0f 45 c2	 cmovne	 rax, rdx

; 90   :     }

  00012	c3		 ret	 0
?what@exception@std@@UEBAPEBDXZ ENDP			; std::exception::what
_TEXT	ENDS
; Function compile flags: /Ogtpy
; File c:\users\alist_000\cppmisc\packages\visualcpptools.14.0.24629\lib\native\include\vcruntime_exception.h
;	COMDAT ??_Gexception@std@@UEAAPEAXI@Z
_TEXT	SEGMENT
this$ = 48
__flags$ = 56
??_Gexception@std@@UEAAPEAXI@Z PROC			; std::exception::`scalar deleting destructor', COMDAT
$LN8:
  00000	48 89 5c 24 08	 mov	 QWORD PTR [rsp+8], rbx
  00005	57		 push	 rdi
  00006	48 83 ec 20	 sub	 rsp, 32			; 00000020H

; 83   :     {

  0000a	48 8d 05 00 00
	00 00		 lea	 rax, OFFSET FLAT:??_7exception@std@@6B@
  00011	48 8b f9	 mov	 rdi, rcx
  00014	48 89 01	 mov	 QWORD PTR [rcx], rax
  00017	8b da		 mov	 ebx, edx

; 84   :         __std_exception_destroy(&_Data);

  00019	48 83 c1 08	 add	 rcx, 8
  0001d	e8 00 00 00 00	 call	 __std_exception_destroy
  00022	f6 c3 01	 test	 bl, 1
  00025	74 0d		 je	 SHORT $LN6@scalar
  00027	ba 18 00 00 00	 mov	 edx, 24
  0002c	48 8b cf	 mov	 rcx, rdi
  0002f	e8 00 00 00 00	 call	 ??3@YAXPEAX_K@Z		; operator delete
$LN6@scalar:
  00034	48 8b c7	 mov	 rax, rdi
  00037	48 8b 5c 24 30	 mov	 rbx, QWORD PTR [rsp+48]
  0003c	48 83 c4 20	 add	 rsp, 32			; 00000020H
  00040	5f		 pop	 rdi
  00041	c3		 ret	 0
??_Gexception@std@@UEAAPEAXI@Z ENDP			; std::exception::`scalar deleting destructor'
_TEXT	ENDS
; Function compile flags: /Ogtpy
; File c:\users\alist_000\cppmisc\packages\visualcpptools.14.0.24629\lib\native\include\vcruntime_new.h
;	COMDAT ??2@YAPEAX_KPEAX@Z
_TEXT	SEGMENT
_Size$ = 8
_Where$ = 16
??2@YAPEAX_KPEAX@Z PROC					; operator new, COMDAT

; 92   :         (void)_Size;
; 93   :         return _Where;

  00000	48 8b c2	 mov	 rax, rdx

; 94   :     }

  00003	c3		 ret	 0
??2@YAPEAX_KPEAX@Z ENDP					; operator new
_TEXT	ENDS
; Function compile flags: /Ogtpy
; File c:\users\alist_000\cppmisc\packages\visualcpptools.14.0.24629\lib\native\include\iosfwd
;	COMDAT ?length@?$char_traits@D@std@@SA_KQEBD@Z
_TEXT	SEGMENT
_First$ = 8
?length@?$char_traits@D@std@@SA_KQEBD@Z PROC		; std::char_traits<char>::length, COMDAT

; 479  : 		return (_CSTD strlen(_First));

  00000	48 83 c8 ff	 or	 rax, -1
$LL3@length:
  00004	48 ff c0	 inc	 rax
  00007	80 3c 01 00	 cmp	 BYTE PTR [rcx+rax], 0
  0000b	75 f7		 jne	 SHORT $LL3@length

; 480  : 		}

  0000d	c3		 ret	 0
?length@?$char_traits@D@std@@SA_KQEBD@Z ENDP		; std::char_traits<char>::length
_TEXT	ENDS
; Function compile flags: /Ogtpy
; File c:\users\alist_000\cppmisc\packages\visualcpptools.14.0.24629\lib\native\include\iosfwd
;	COMDAT ?copy@?$char_traits@D@std@@SAPEADQEADQEBD_K@Z
_TEXT	SEGMENT
_First1$ = 48
_First2$ = 56
_Count$ = 64
?copy@?$char_traits@D@std@@SAPEADQEADQEBD_K@Z PROC	; std::char_traits<char>::copy, COMDAT

; 484  : 		{	// copy [_First2, _First2 + _Count) to [_First1, ...)

$LN4:
  00000	40 53		 push	 rbx
  00002	48 83 ec 20	 sub	 rsp, 32			; 00000020H
  00006	48 8b d9	 mov	 rbx, rcx

; 485  : 		return ((_Elem *)_CSTD memcpy(_First1, _First2, _Count));

  00009	e8 00 00 00 00	 call	 memcpy
  0000e	48 8b c3	 mov	 rax, rbx

; 486  : 		}

  00011	48 83 c4 20	 add	 rsp, 32			; 00000020H
  00015	5b		 pop	 rbx
  00016	c3		 ret	 0
?copy@?$char_traits@D@std@@SAPEADQEADQEBD_K@Z ENDP	; std::char_traits<char>::copy
_TEXT	ENDS
; Function compile flags: /Ogtpy
; File c:\users\alist_000\cppmisc\packages\visualcpptools.14.0.24629\lib\native\include\iosfwd
;	COMDAT ?move@?$char_traits@D@std@@SAPEADQEADQEBD_K@Z
_TEXT	SEGMENT
_First1$ = 8
_First2$ = 16
_Count$ = 24
?move@?$char_traits@D@std@@SAPEADQEADQEBD_K@Z PROC	; std::char_traits<char>::move, COMDAT

; 505  : 		return ((_Elem *)_CSTD memmove(_First1, _First2, _Count));

  00000	e9 00 00 00 00	 jmp	 memmove
?move@?$char_traits@D@std@@SAPEADQEADQEBD_K@Z ENDP	; std::char_traits<char>::move
_TEXT	ENDS
; Function compile flags: /Ogtpy
; File c:\users\alist_000\cppmisc\packages\visualcpptools.14.0.24629\lib\native\include\iosfwd
;	COMDAT ?assign@?$char_traits@D@std@@SAXAEADAEBD@Z
_TEXT	SEGMENT
_Left$ = 8
_Right$ = 16
?assign@?$char_traits@D@std@@SAXAEADAEBD@Z PROC		; std::char_traits<char>::assign, COMDAT

; 516  : 		_Left = _Right;

  00000	0f b6 02	 movzx	 eax, BYTE PTR [rdx]
  00003	88 01		 mov	 BYTE PTR [rcx], al

; 517  : 		}

  00005	c3		 ret	 0
?assign@?$char_traits@D@std@@SAXAEADAEBD@Z ENDP		; std::char_traits<char>::assign
_TEXT	ENDS
; Function compile flags: /Ogtpy
; File c:\users\alist_000\cppmisc\packages\visualcpptools.14.0.24629\lib\native\include\iosfwd
;	COMDAT ?to_int_type@?$char_traits@D@std@@SAHAEBD@Z
_TEXT	SEGMENT
_Ch$ = 8
?to_int_type@?$char_traits@D@std@@SAHAEBD@Z PROC	; std::char_traits<char>::to_int_type, COMDAT

; 536  : 		return ((unsigned char)_Ch);

  00000	0f b6 01	 movzx	 eax, BYTE PTR [rcx]

; 537  : 		}

  00003	c3		 ret	 0
?to_int_type@?$char_traits@D@std@@SAHAEBD@Z ENDP	; std::char_traits<char>::to_int_type
_TEXT	ENDS
; Function compile flags: /Ogtpy
; File c:\users\alist_000\cppmisc\packages\visualcpptools.14.0.24629\lib\native\include\iosfwd
;	COMDAT ?eq_int_type@?$char_traits@D@std@@SA_NAEBH0@Z
_TEXT	SEGMENT
_Left$ = 8
_Right$ = 16
?eq_int_type@?$char_traits@D@std@@SA_NAEBH0@Z PROC	; std::char_traits<char>::eq_int_type, COMDAT

; 540  : 		{	// test for metacharacter equality

  00000	8b 02		 mov	 eax, DWORD PTR [rdx]
  00002	39 01		 cmp	 DWORD PTR [rcx], eax
  00004	0f 94 c0	 sete	 al

; 541  : 		return (_Left == _Right);
; 542  : 		}

  00007	c3		 ret	 0
?eq_int_type@?$char_traits@D@std@@SA_NAEBH0@Z ENDP	; std::char_traits<char>::eq_int_type
_TEXT	ENDS
; Function compile flags: /Ogtpy
; File c:\users\alist_000\cppmisc\packages\visualcpptools.14.0.24629\lib\native\include\iosfwd
;	COMDAT ?eof@?$char_traits@D@std@@SAHXZ
_TEXT	SEGMENT
?eof@?$char_traits@D@std@@SAHXZ PROC			; std::char_traits<char>::eof, COMDAT

; 551  : 		return (EOF);

  00000	83 c8 ff	 or	 eax, -1

; 552  : 		}

  00003	c3		 ret	 0
?eof@?$char_traits@D@std@@SAHXZ ENDP			; std::char_traits<char>::eof
_TEXT	ENDS
; Function compile flags: /Ogtpy
; File c:\users\alist_000\cppmisc\packages\visualcpptools.14.0.24629\lib\native\include\xutility
;	COMDAT ?_Orphan_all@_Container_base0@std@@QEAAXXZ
_TEXT	SEGMENT
this$ = 8
?_Orphan_all@_Container_base0@std@@QEAAXXZ PROC		; std::_Container_base0::_Orphan_all, COMDAT

; 55   : 		}

  00000	c2 00 00	 ret	 0
?_Orphan_all@_Container_base0@std@@QEAAXXZ ENDP		; std::_Container_base0::_Orphan_all
_TEXT	ENDS
; Function compile flags: /Ogtpy
; File c:\users\alist_000\cppmisc\packages\visualcpptools.14.0.24629\lib\native\include\xutility
;	COMDAT ?_Swap_all@_Container_base0@std@@QEAAXAEAU12@@Z
_TEXT	SEGMENT
this$dead$ = 8
__formal$dead$ = 16
?_Swap_all@_Container_base0@std@@QEAAXAEAU12@@Z PROC	; std::_Container_base0::_Swap_all, COMDAT

; 59   : 		}

  00000	c2 00 00	 ret	 0
?_Swap_all@_Container_base0@std@@QEAAXAEAU12@@Z ENDP	; std::_Container_base0::_Swap_all
_TEXT	ENDS
; Function compile flags: /Ogtpy
; File c:\users\alist_000\cppmisc\packages\visualcpptools.14.0.24629\lib\native\include\xutility
;	COMDAT ?_Adopt@_Iterator_base0@std@@QEAAXPEBX@Z
_TEXT	SEGMENT
this$ = 8
__formal$ = 16
?_Adopt@_Iterator_base0@std@@QEAAXPEBX@Z PROC		; std::_Iterator_base0::_Adopt, COMDAT

; 66   : 		}

  00000	c2 00 00	 ret	 0
?_Adopt@_Iterator_base0@std@@QEAAXPEBX@Z ENDP		; std::_Iterator_base0::_Adopt
_TEXT	ENDS
; Function compile flags: /Ogtpy
; File c:\users\alist_000\cppmisc\packages\visualcpptools.14.0.24629\lib\native\include\xmemory0
;	COMDAT ?_Allocate@std@@YAPEAX_K0_N@Z
_TEXT	SEGMENT
_Count$ = 48
_Sz$ = 56
_Try_aligned_allocation$ = 64
?_Allocate@std@@YAPEAX_K0_N@Z PROC			; std::_Allocate, COMDAT

; 50   : 	{	// allocate storage for _Count elements of size _Sz

$LN14:
  00000	48 83 ec 28	 sub	 rsp, 40			; 00000028H
  00004	4c 8b ca	 mov	 r9, rdx

; 51   : 	void *_Ptr = 0;
; 52   : 
; 53   : 	if (_Count == 0)

  00007	48 85 c9	 test	 rcx, rcx
  0000a	75 07		 jne	 SHORT $LN2@Allocate

; 54   : 		return (_Ptr);

  0000c	33 c0		 xor	 eax, eax

; 89   : 	}

  0000e	48 83 c4 28	 add	 rsp, 40			; 00000028H
  00012	c3		 ret	 0
$LN2@Allocate:

; 55   : 
; 56   : 	// check overflow of multiply
; 57   : 	if ((size_t)(-1) / _Sz < _Count)

  00013	33 d2		 xor	 edx, edx
  00015	48 83 c8 ff	 or	 rax, -1
  00019	49 f7 f1	 div	 r9
  0001c	48 3b c1	 cmp	 rax, rcx
  0001f	72 44		 jb	 SHORT $LN11@Allocate

; 59   : 	const size_t _User_size = _Count * _Sz;

  00021	49 0f af c9	 imul	 rcx, r9

; 60   : 
; 61   :  #if defined(_M_IX86) || defined(_M_X64)
; 62   : 	if (_Try_aligned_allocation
; 63   : 		&& _BIG_ALLOCATION_THRESHOLD <= _User_size)

  00025	45 84 c0	 test	 r8b, r8b
  00028	74 2e		 je	 SHORT $LN4@Allocate
  0002a	48 81 f9 00 10
	00 00		 cmp	 rcx, 4096		; 00001000H
  00031	72 25		 jb	 SHORT $LN4@Allocate

; 64   : 		{	// allocate large block
; 65   : 		static_assert(sizeof (void *) < _BIG_ALLOCATION_ALIGNMENT,
; 66   : 			"Big allocations should at least match vector register size");
; 67   : 		const size_t _Block_size = _NON_USER_SIZE + _User_size;

  00033	48 8d 41 27	 lea	 rax, QWORD PTR [rcx+39]

; 68   : 		if (_Block_size <= _User_size)

  00037	48 3b c1	 cmp	 rax, rcx
  0003a	76 2f		 jbe	 SHORT $LN13@Allocate

; 70   : 		const uintptr_t _Ptr_container =
; 71   : 			reinterpret_cast<uintptr_t>(::operator new(_Block_size));

  0003c	48 8b c8	 mov	 rcx, rax
  0003f	e8 00 00 00 00	 call	 ??2@YAPEAX_K@Z		; operator new

; 72   : 		_SCL_SECURE_ALWAYS_VALIDATE(_Ptr_container != 0);
; 73   : 		_Ptr = reinterpret_cast<void *>((_Ptr_container + _NON_USER_SIZE)

  00044	48 8d 48 27	 lea	 rcx, QWORD PTR [rax+39]
  00048	48 83 e1 e0	 and	 rcx, -32		; ffffffffffffffe0H

; 74   : 			& ~(_BIG_ALLOCATION_ALIGNMENT - 1));
; 75   : 		static_cast<uintptr_t *>(_Ptr)[-1] = _Ptr_container;

  0004c	48 89 41 f8	 mov	 QWORD PTR [rcx-8], rax

; 86   : 		_SCL_SECURE_ALWAYS_VALIDATE(_Ptr != 0);
; 87   : 		}
; 88   : 	return (_Ptr);

  00050	48 8b c1	 mov	 rax, rcx

; 89   : 	}

  00053	48 83 c4 28	 add	 rsp, 40			; 00000028H
  00057	c3		 ret	 0
$LN4@Allocate:

; 76   : 
; 77   :  #ifdef _DEBUG
; 78   : 		static_cast<uintptr_t *>(_Ptr)[-2] = _BIG_ALLOCATION_SENTINEL;
; 79   :  #endif /* _DEBUG */
; 80   : 		}
; 81   : 	else
; 82   :  #endif /* defined(_M_IX86) || defined(_M_X64) */
; 83   : 
; 84   : 		{	// allocate normal block
; 85   : 		_Ptr = ::operator new(_User_size);

  00058	e8 00 00 00 00	 call	 ??2@YAPEAX_K@Z		; operator new
  0005d	48 8b c8	 mov	 rcx, rax

; 89   : 	}

  00060	48 83 c4 28	 add	 rsp, 40			; 00000028H
  00064	c3		 ret	 0
$LN11@Allocate:

; 58   : 		_Xbad_alloc();	// report no memory

  00065	e8 00 00 00 00	 call	 ?_Xbad_alloc@std@@YAXXZ	; std::_Xbad_alloc
  0006a	cc		 int	 3
$LN13@Allocate:

; 69   : 			_Xbad_alloc();	// report no memory

  0006b	e8 00 00 00 00	 call	 ?_Xbad_alloc@std@@YAXXZ	; std::_Xbad_alloc
  00070	cc		 int	 3
$LN10@Allocate:
?_Allocate@std@@YAPEAX_K0_N@Z ENDP			; std::_Allocate
_TEXT	ENDS
; Function compile flags: /Ogtpy
; File c:\users\alist_000\cppmisc\packages\visualcpptools.14.0.24629\lib\native\include\xmemory0
;	COMDAT ?_Deallocate@std@@YAXPEAX_K1@Z
_TEXT	SEGMENT
_Ptr$ = 48
_Count$ = 56
_Sz$ = 64
?_Deallocate@std@@YAXPEAX_K1@Z PROC			; std::_Deallocate, COMDAT

; 94   : 	{	// deallocate storage for _Count elements of size _Sz

$LN16:
  00000	48 83 ec 28	 sub	 rsp, 40			; 00000028H
  00004	4c 8b ca	 mov	 r9, rdx

; 95   :  #if defined(_M_IX86) || defined(_M_X64)
; 96   : 	_SCL_SECURE_ALWAYS_VALIDATE(_Count <= (size_t)(-1) / _Sz);

  00007	48 83 c8 ff	 or	 rax, -1
  0000b	33 d2		 xor	 edx, edx
  0000d	49 f7 f0	 div	 r8
  00010	4c 3b c8	 cmp	 r9, rax
  00013	77 36		 ja	 SHORT $LN10@Deallocate

; 97   : 	const size_t _User_size = _Count * _Sz;

  00015	4d 0f af c8	 imul	 r9, r8

; 98   : 	if (_BIG_ALLOCATION_THRESHOLD <= _User_size)

  00019	49 81 f9 00 10
	00 00		 cmp	 r9, 4096		; 00001000H
  00020	72 20		 jb	 SHORT $LN3@Deallocate

; 99   : 		{	// deallocate large block
; 100  : 		const uintptr_t _Ptr_user = reinterpret_cast<uintptr_t>(_Ptr);
; 101  : 		_SCL_SECURE_ALWAYS_VALIDATE(

  00022	f6 c1 1f	 test	 cl, 31
  00025	75 2a		 jne	 SHORT $LN12@Deallocate

; 102  : 			(_Ptr_user & (_BIG_ALLOCATION_ALIGNMENT - 1)) == 0);
; 103  : 		const uintptr_t _Ptr_ptr = _Ptr_user - sizeof(void *);
; 104  : 		const uintptr_t _Ptr_container =
; 105  : 			*reinterpret_cast<uintptr_t *>(_Ptr_ptr);

  00027	48 8b 41 f8	 mov	 rax, QWORD PTR [rcx-8]

; 106  : 
; 107  :  #ifdef _DEBUG
; 108  : 		// If the following asserts, it likely means that we are performing
; 109  : 		// an aligned delete on memory coming from an unaligned allocation.
; 110  : 		_SCL_SECURE_ALWAYS_VALIDATE(
; 111  : 			reinterpret_cast<uintptr_t *>(_Ptr_ptr)[-1] ==
; 112  : 				_BIG_ALLOCATION_SENTINEL);
; 113  :  #endif /* _DEBUG */
; 114  : 
; 115  : 		// Extra paranoia on aligned allocation/deallocation
; 116  : 		_SCL_SECURE_ALWAYS_VALIDATE(_Ptr_container < _Ptr_user);

  0002b	48 3b c1	 cmp	 rax, rcx
  0002e	73 27		 jae	 SHORT $LN13@Deallocate

; 117  : 
; 118  :  #ifdef _DEBUG
; 119  : 		_SCL_SECURE_ALWAYS_VALIDATE(2 * sizeof(void *)
; 120  : 			<= _Ptr_user - _Ptr_container);
; 121  : 
; 122  :  #else /* _DEBUG */
; 123  : 		_SCL_SECURE_ALWAYS_VALIDATE(sizeof(void *)

  00030	48 2b c8	 sub	 rcx, rax
  00033	48 83 f9 08	 cmp	 rcx, 8
  00037	72 24		 jb	 SHORT $LN14@Deallocate

; 124  : 			<= _Ptr_user - _Ptr_container);
; 125  :  #endif /* _DEBUG */
; 126  : 
; 127  : 		_SCL_SECURE_ALWAYS_VALIDATE(_Ptr_user - _Ptr_container

  00039	48 83 f9 27	 cmp	 rcx, 39			; 00000027H
  0003d	77 24		 ja	 SHORT $LN15@Deallocate

; 128  : 			<= _NON_USER_SIZE);
; 129  : 
; 130  : 		_Ptr = reinterpret_cast<void *>(_Ptr_container);

  0003f	48 8b c8	 mov	 rcx, rax
$LN3@Deallocate:

; 135  : 	}

  00042	48 83 c4 28	 add	 rsp, 40			; 00000028H

; 131  : 		}
; 132  :  #endif /* defined(_M_IX86) || defined(_M_X64) */
; 133  : 
; 134  : 	::operator delete(_Ptr);

  00046	e9 00 00 00 00	 jmp	 ??3@YAXPEAX@Z		; operator delete
$LN10@Deallocate:

; 95   :  #if defined(_M_IX86) || defined(_M_X64)
; 96   : 	_SCL_SECURE_ALWAYS_VALIDATE(_Count <= (size_t)(-1) / _Sz);

  0004b	e8 00 00 00 00	 call	 _invalid_parameter_noinfo_noreturn
  00050	cc		 int	 3
$LN12@Deallocate:

; 99   : 		{	// deallocate large block
; 100  : 		const uintptr_t _Ptr_user = reinterpret_cast<uintptr_t>(_Ptr);
; 101  : 		_SCL_SECURE_ALWAYS_VALIDATE(

  00051	e8 00 00 00 00	 call	 _invalid_parameter_noinfo_noreturn
  00056	cc		 int	 3
$LN13@Deallocate:

; 106  : 
; 107  :  #ifdef _DEBUG
; 108  : 		// If the following asserts, it likely means that we are performing
; 109  : 		// an aligned delete on memory coming from an unaligned allocation.
; 110  : 		_SCL_SECURE_ALWAYS_VALIDATE(
; 111  : 			reinterpret_cast<uintptr_t *>(_Ptr_ptr)[-1] ==
; 112  : 				_BIG_ALLOCATION_SENTINEL);
; 113  :  #endif /* _DEBUG */
; 114  : 
; 115  : 		// Extra paranoia on aligned allocation/deallocation
; 116  : 		_SCL_SECURE_ALWAYS_VALIDATE(_Ptr_container < _Ptr_user);

  00057	e8 00 00 00 00	 call	 _invalid_parameter_noinfo_noreturn
  0005c	cc		 int	 3
$LN14@Deallocate:

; 117  : 
; 118  :  #ifdef _DEBUG
; 119  : 		_SCL_SECURE_ALWAYS_VALIDATE(2 * sizeof(void *)
; 120  : 			<= _Ptr_user - _Ptr_container);
; 121  : 
; 122  :  #else /* _DEBUG */
; 123  : 		_SCL_SECURE_ALWAYS_VALIDATE(sizeof(void *)

  0005d	e8 00 00 00 00	 call	 _invalid_parameter_noinfo_noreturn
  00062	cc		 int	 3
$LN15@Deallocate:

; 124  : 			<= _Ptr_user - _Ptr_container);
; 125  :  #endif /* _DEBUG */
; 126  : 
; 127  : 		_SCL_SECURE_ALWAYS_VALIDATE(_Ptr_user - _Ptr_container

  00063	e8 00 00 00 00	 call	 _invalid_parameter_noinfo_noreturn
  00068	cc		 int	 3
$LN9@Deallocate:
?_Deallocate@std@@YAXPEAX_K1@Z ENDP			; std::_Deallocate
_TEXT	ENDS
; Function compile flags: /Ogtpy
; File c:\users\alist_000\cppmisc\packages\visualcpptools.14.0.24629\lib\native\include\stdexcept
; File c:\users\alist_000\cppmisc\packages\visualcpptools.14.0.24629\lib\native\include\xstring
; File c:\users\alist_000\cppmisc\packages\visualcpptools.14.0.24629\lib\native\include\stdexcept
; File c:\users\alist_000\cppmisc\packages\visualcpptools.14.0.24629\lib\native\include\xstring
; File c:\users\alist_000\cppmisc\packages\visualcpptools.14.0.24629\lib\native\include\xstddef
; File c:\users\alist_000\cppmisc\packages\visualcpptools.14.0.24629\lib\native\include\vcruntime_exception.h
; File c:\users\alist_000\cppmisc\packages\visualcpptools.14.0.24629\lib\native\include\stdexcept
;	COMDAT ??0runtime_error@std@@QEAA@AEBV?$basic_string@DU?$char_traits@D@std@@V?$allocator@D@2@@1@@Z
_TEXT	SEGMENT
_InitData$1 = 32
this$ = 64
_Message$ = 72
??0runtime_error@std@@QEAA@AEBV?$basic_string@DU?$char_traits@D@std@@V?$allocator@D@2@@1@@Z PROC ; std::runtime_error::runtime_error, COMDAT

; 163  : 		{	// construct from message string

$LN25:
  00000	40 53		 push	 rbx
  00002	48 83 ec 30	 sub	 rsp, 48			; 00000030H
; File c:\users\alist_000\cppmisc\packages\visualcpptools.14.0.24629\lib\native\include\xstring

; 1638 : 		return (this->_BUF_SIZE <= _Myres);

  00006	48 83 7a 18 10	 cmp	 QWORD PTR [rdx+24], 16
; File c:\users\alist_000\cppmisc\packages\visualcpptools.14.0.24629\lib\native\include\stdexcept

; 163  : 		{	// construct from message string

  0000b	48 8b c2	 mov	 rax, rdx
  0000e	48 8b d9	 mov	 rbx, rcx
; File c:\users\alist_000\cppmisc\packages\visualcpptools.14.0.24629\lib\native\include\xstring

; 1631 : 		return (_Large_string_engaged()

  00011	72 03		 jb	 SHORT $LN16@runtime_er
; File c:\users\alist_000\cppmisc\packages\visualcpptools.14.0.24629\lib\native\include\xstddef

; 642  : 	return (_Ptr);

  00013	48 8b 02	 mov	 rax, QWORD PTR [rdx]
$LN16@runtime_er:
; File c:\users\alist_000\cppmisc\packages\visualcpptools.14.0.24629\lib\native\include\vcruntime_exception.h

; 52   :         : _Data()

  00016	48 8d 53 08	 lea	 rdx, QWORD PTR [rbx+8]

; 53   :     {
; 54   :         __std_exception_data _InitData = { _Message, true };

  0001a	48 89 44 24 20	 mov	 QWORD PTR _InitData$1[rsp], rax
  0001f	48 8d 0d 00 00
	00 00		 lea	 rcx, OFFSET FLAT:??_7exception@std@@6B@
  00026	c6 44 24 28 01	 mov	 BYTE PTR _InitData$1[rsp+8], 1
  0002b	48 89 0b	 mov	 QWORD PTR [rbx], rcx
  0002e	33 c9		 xor	 ecx, ecx
  00030	48 89 0a	 mov	 QWORD PTR [rdx], rcx
  00033	48 89 4a 08	 mov	 QWORD PTR [rdx+8], rcx

; 55   :         __std_exception_copy(&_InitData, &_Data);

  00037	48 8d 4c 24 20	 lea	 rcx, QWORD PTR _InitData$1[rsp]
  0003c	e8 00 00 00 00	 call	 __std_exception_copy
; File c:\users\alist_000\cppmisc\packages\visualcpptools.14.0.24629\lib\native\include\stdexcept

; 163  : 		{	// construct from message string

  00041	48 8d 05 00 00
	00 00		 lea	 rax, OFFSET FLAT:??_7runtime_error@std@@6B@
  00048	48 89 03	 mov	 QWORD PTR [rbx], rax

; 164  : 		}

  0004b	48 8b c3	 mov	 rax, rbx
  0004e	48 83 c4 30	 add	 rsp, 48			; 00000030H
  00052	5b		 pop	 rbx
  00053	c3		 ret	 0
??0runtime_error@std@@QEAA@AEBV?$basic_string@DU?$char_traits@D@std@@V?$allocator@D@2@@1@@Z ENDP ; std::runtime_error::runtime_error
_TEXT	ENDS
; Function compile flags: /Ogtpy
; File c:\users\alist_000\cppmisc\packages\visualcpptools.14.0.24629\lib\native\include\stdexcept
; File c:\users\alist_000\cppmisc\packages\visualcpptools.14.0.24629\lib\native\include\vcruntime_exception.h
; File c:\users\alist_000\cppmisc\packages\visualcpptools.14.0.24629\lib\native\include\stdexcept
; File c:\users\alist_000\cppmisc\packages\visualcpptools.14.0.24629\lib\native\include\vcruntime_exception.h
; File c:\users\alist_000\cppmisc\packages\visualcpptools.14.0.24629\lib\native\include\stdexcept
;	COMDAT ??0runtime_error@std@@QEAA@PEBD@Z
_TEXT	SEGMENT
_InitData$1 = 32
this$ = 64
_Message$ = 72
??0runtime_error@std@@QEAA@PEBD@Z PROC			; std::runtime_error::runtime_error, COMDAT

; 168  : 		{	// construct from message string

$LN6:
  00000	40 53		 push	 rbx
  00002	48 83 ec 30	 sub	 rsp, 48			; 00000030H
  00006	48 8b d9	 mov	 rbx, rcx
; File c:\users\alist_000\cppmisc\packages\visualcpptools.14.0.24629\lib\native\include\vcruntime_exception.h

; 54   :         __std_exception_data _InitData = { _Message, true };

  00009	c6 44 24 28 01	 mov	 BYTE PTR _InitData$1[rsp+8], 1
; File c:\users\alist_000\cppmisc\packages\visualcpptools.14.0.24629\lib\native\include\stdexcept

; 168  : 		{	// construct from message string

  0000e	48 8b c2	 mov	 rax, rdx
; File c:\users\alist_000\cppmisc\packages\visualcpptools.14.0.24629\lib\native\include\vcruntime_exception.h

; 53   :     {

  00011	48 8d 0d 00 00
	00 00		 lea	 rcx, OFFSET FLAT:??_7exception@std@@6B@
  00018	48 8d 53 08	 lea	 rdx, QWORD PTR [rbx+8]

; 54   :         __std_exception_data _InitData = { _Message, true };

  0001c	48 89 44 24 20	 mov	 QWORD PTR _InitData$1[rsp], rax
  00021	48 89 0b	 mov	 QWORD PTR [rbx], rcx
  00024	33 c9		 xor	 ecx, ecx
  00026	48 89 0a	 mov	 QWORD PTR [rdx], rcx
  00029	48 89 4a 08	 mov	 QWORD PTR [rdx+8], rcx

; 55   :         __std_exception_copy(&_InitData, &_Data);

  0002d	48 8d 4c 24 20	 lea	 rcx, QWORD PTR _InitData$1[rsp]
  00032	e8 00 00 00 00	 call	 __std_exception_copy
; File c:\users\alist_000\cppmisc\packages\visualcpptools.14.0.24629\lib\native\include\stdexcept

; 168  : 		{	// construct from message string

  00037	48 8d 05 00 00
	00 00		 lea	 rax, OFFSET FLAT:??_7runtime_error@std@@6B@
  0003e	48 89 03	 mov	 QWORD PTR [rbx], rax

; 169  : 		}

  00041	48 8b c3	 mov	 rax, rbx
  00044	48 83 c4 30	 add	 rsp, 48			; 00000030H
  00048	5b		 pop	 rbx
  00049	c3		 ret	 0
??0runtime_error@std@@QEAA@PEBD@Z ENDP			; std::runtime_error::runtime_error
_TEXT	ENDS
; Function compile flags: /Ogtpy
; File c:\users\alist_000\cppmisc\packages\visualcpptools.14.0.24629\lib\native\include\vcruntime_exception.h
;	COMDAT ??_Gruntime_error@std@@UEAAPEAXI@Z
_TEXT	SEGMENT
this$ = 48
__flags$ = 56
??_Gruntime_error@std@@UEAAPEAXI@Z PROC			; std::runtime_error::`scalar deleting destructor', COMDAT
$LN11:
  00000	48 89 5c 24 08	 mov	 QWORD PTR [rsp+8], rbx
  00005	57		 push	 rdi
  00006	48 83 ec 20	 sub	 rsp, 32			; 00000020H

; 83   :     {

  0000a	48 8d 05 00 00
	00 00		 lea	 rax, OFFSET FLAT:??_7exception@std@@6B@
  00011	48 8b f9	 mov	 rdi, rcx
  00014	48 89 01	 mov	 QWORD PTR [rcx], rax
  00017	8b da		 mov	 ebx, edx

; 84   :         __std_exception_destroy(&_Data);

  00019	48 83 c1 08	 add	 rcx, 8
  0001d	e8 00 00 00 00	 call	 __std_exception_destroy
  00022	f6 c3 01	 test	 bl, 1
  00025	74 0d		 je	 SHORT $LN9@scalar
  00027	ba 18 00 00 00	 mov	 edx, 24
  0002c	48 8b cf	 mov	 rcx, rdi
  0002f	e8 00 00 00 00	 call	 ??3@YAXPEAX_K@Z		; operator delete
$LN9@scalar:
  00034	48 8b c7	 mov	 rax, rdi
  00037	48 8b 5c 24 30	 mov	 rbx, QWORD PTR [rsp+48]
  0003c	48 83 c4 20	 add	 rsp, 32			; 00000020H
  00040	5f		 pop	 rdi
  00041	c3		 ret	 0
??_Gruntime_error@std@@UEAAPEAXI@Z ENDP			; std::runtime_error::`scalar deleting destructor'
_TEXT	ENDS
; Function compile flags: /Ogtpy
; File c:\users\alist_000\cppmisc\packages\visualcpptools.14.0.24629\lib\native\include\vcruntime_exception.h
;	COMDAT ??1runtime_error@std@@UEAA@XZ
_TEXT	SEGMENT
this$ = 8
??1runtime_error@std@@UEAA@XZ PROC			; std::runtime_error::~runtime_error, COMDAT

; 83   :     {

  00000	48 8d 05 00 00
	00 00		 lea	 rax, OFFSET FLAT:??_7exception@std@@6B@
  00007	48 89 01	 mov	 QWORD PTR [rcx], rax

; 84   :         __std_exception_destroy(&_Data);

  0000a	48 83 c1 08	 add	 rcx, 8
  0000e	e9 00 00 00 00	 jmp	 __std_exception_destroy
??1runtime_error@std@@UEAA@XZ ENDP			; std::runtime_error::~runtime_error
_TEXT	ENDS
; Function compile flags: /Ogtpy
; File c:\users\alist_000\cppmisc\packages\visualcpptools.14.0.24629\lib\native\include\vcruntime_typeinfo.h
; File c:\users\alist_000\cppmisc\packages\visualcpptools.14.0.24629\lib\native\include\vcruntime_exception.h
; File c:\users\alist_000\cppmisc\packages\visualcpptools.14.0.24629\lib\native\include\vcruntime_typeinfo.h
;	COMDAT ??0bad_cast@std@@QEAA@XZ
_TEXT	SEGMENT
this$ = 8
??0bad_cast@std@@QEAA@XZ PROC				; std::bad_cast::bad_cast, COMDAT
; File c:\users\alist_000\cppmisc\packages\visualcpptools.14.0.24629\lib\native\include\vcruntime_exception.h

; 59   :         : _Data()

  00000	33 c0		 xor	 eax, eax
  00002	48 89 41 10	 mov	 QWORD PTR [rcx+16], rax

; 60   :     {
; 61   :         _Data._What = _Message;

  00006	48 8d 05 00 00
	00 00		 lea	 rax, OFFSET FLAT:??_C@_08EPJLHIJG@bad?5cast?$AA@
  0000d	48 89 41 08	 mov	 QWORD PTR [rcx+8], rax
; File c:\users\alist_000\cppmisc\packages\visualcpptools.14.0.24629\lib\native\include\vcruntime_typeinfo.h

; 125  :     {

  00011	48 8d 05 00 00
	00 00		 lea	 rax, OFFSET FLAT:??_7bad_cast@std@@6B@
  00018	48 89 01	 mov	 QWORD PTR [rcx], rax

; 126  :     }

  0001b	48 8b c1	 mov	 rax, rcx
  0001e	c3		 ret	 0
??0bad_cast@std@@QEAA@XZ ENDP				; std::bad_cast::bad_cast
_TEXT	ENDS
; Function compile flags: /Ogtpy
; File c:\users\alist_000\cppmisc\packages\visualcpptools.14.0.24629\lib\native\include\vcruntime_exception.h
;	COMDAT ??_Gbad_cast@std@@UEAAPEAXI@Z
_TEXT	SEGMENT
this$ = 48
__flags$ = 56
??_Gbad_cast@std@@UEAAPEAXI@Z PROC			; std::bad_cast::`scalar deleting destructor', COMDAT
$LN11:
  00000	48 89 5c 24 08	 mov	 QWORD PTR [rsp+8], rbx
  00005	57		 push	 rdi
  00006	48 83 ec 20	 sub	 rsp, 32			; 00000020H

; 83   :     {

  0000a	48 8d 05 00 00
	00 00		 lea	 rax, OFFSET FLAT:??_7exception@std@@6B@
  00011	48 8b f9	 mov	 rdi, rcx
  00014	48 89 01	 mov	 QWORD PTR [rcx], rax
  00017	8b da		 mov	 ebx, edx

; 84   :         __std_exception_destroy(&_Data);

  00019	48 83 c1 08	 add	 rcx, 8
  0001d	e8 00 00 00 00	 call	 __std_exception_destroy
  00022	f6 c3 01	 test	 bl, 1
  00025	74 0d		 je	 SHORT $LN9@scalar
  00027	ba 18 00 00 00	 mov	 edx, 24
  0002c	48 8b cf	 mov	 rcx, rdi
  0002f	e8 00 00 00 00	 call	 ??3@YAXPEAX_K@Z		; operator delete
$LN9@scalar:
  00034	48 8b c7	 mov	 rax, rdi
  00037	48 8b 5c 24 30	 mov	 rbx, QWORD PTR [rsp+48]
  0003c	48 83 c4 20	 add	 rsp, 32			; 00000020H
  00040	5f		 pop	 rdi
  00041	c3		 ret	 0
??_Gbad_cast@std@@UEAAPEAXI@Z ENDP			; std::bad_cast::`scalar deleting destructor'
_TEXT	ENDS
; Function compile flags: /Ogtpy
; File c:\users\alist_000\cppmisc\packages\visualcpptools.14.0.24629\lib\native\include\vcruntime_exception.h
;	COMDAT ??1bad_cast@std@@UEAA@XZ
_TEXT	SEGMENT
this$ = 8
??1bad_cast@std@@UEAA@XZ PROC				; std::bad_cast::~bad_cast, COMDAT

; 83   :     {

  00000	48 8d 05 00 00
	00 00		 lea	 rax, OFFSET FLAT:??_7exception@std@@6B@
  00007	48 89 01	 mov	 QWORD PTR [rcx], rax

; 84   :         __std_exception_destroy(&_Data);

  0000a	48 83 c1 08	 add	 rcx, 8
  0000e	e9 00 00 00 00	 jmp	 __std_exception_destroy
??1bad_cast@std@@UEAA@XZ ENDP				; std::bad_cast::~bad_cast
_TEXT	ENDS
; Function compile flags: /Ogtpy
; File c:\users\alist_000\cppmisc\packages\visualcpptools.14.0.24629\lib\native\include\xlocinfo
; File c:\users\alist_000\cppmisc\packages\visualcpptools.14.0.24629\lib\native\include\xutility
; File c:\users\alist_000\cppmisc\packages\visualcpptools.14.0.24629\lib\native\include\xlocinfo
;	COMDAT ??0_Locinfo@std@@QEAA@PEBD@Z
_TEXT	SEGMENT
$T1 = 32
$T2 = 40
this$ = 80
_Pch$ = 88
??0_Locinfo@std@@QEAA@PEBD@Z PROC			; std::_Locinfo::_Locinfo, COMDAT

; 76   : 		{	// construct from NTBS

$LN24:
  00000	48 89 4c 24 08	 mov	 QWORD PTR [rsp+8], rcx
  00005	57		 push	 rdi
  00006	48 83 ec 40	 sub	 rsp, 64			; 00000040H
  0000a	48 c7 44 24 20
	fe ff ff ff	 mov	 QWORD PTR $T1[rsp], -2
  00013	48 89 5c 24 58	 mov	 QWORD PTR [rsp+88], rbx
  00018	48 8b fa	 mov	 rdi, rdx
  0001b	48 8b d9	 mov	 rbx, rcx

; 73   : 		: _Lock(_LOCK_LOCALE)

  0001e	33 d2		 xor	 edx, edx
  00020	e8 00 00 00 00	 call	 ??0_Lockit@std@@QEAA@H@Z ; std::_Lockit::_Lockit
  00025	90		 npad	 1
; File c:\users\alist_000\cppmisc\packages\visualcpptools.14.0.24629\lib\native\include\xutility

; 3639 : 		: _Myptr(0), _Nul(0)

  00026	33 c0		 xor	 eax, eax
  00028	48 89 43 08	 mov	 QWORD PTR [rbx+8], rax
  0002c	88 43 10	 mov	 BYTE PTR [rbx+16], al
  0002f	48 89 43 18	 mov	 QWORD PTR [rbx+24], rax
  00033	88 43 20	 mov	 BYTE PTR [rbx+32], al
  00036	48 89 43 28	 mov	 QWORD PTR [rbx+40], rax
  0003a	66 89 43 30	 mov	 WORD PTR [rbx+48], ax
  0003e	48 89 43 38	 mov	 QWORD PTR [rbx+56], rax
  00042	66 89 43 40	 mov	 WORD PTR [rbx+64], ax
  00046	48 89 43 48	 mov	 QWORD PTR [rbx+72], rax
  0004a	88 43 50	 mov	 BYTE PTR [rbx+80], al
  0004d	48 89 43 58	 mov	 QWORD PTR [rbx+88], rax
  00051	88 43 60	 mov	 BYTE PTR [rbx+96], al
; File c:\users\alist_000\cppmisc\packages\visualcpptools.14.0.24629\lib\native\include\xlocinfo

; 77   : 		if (_Pch == 0)

  00054	48 85 ff	 test	 rdi, rdi
  00057	75 23		 jne	 SHORT $LN2@Locinfo

; 78   : 			_THROW_NCEE(runtime_error, "bad locale name");

  00059	48 8d 15 00 00
	00 00		 lea	 rdx, OFFSET FLAT:??_C@_0BA@ELKIONDK@bad?5locale?5name?$AA@
  00060	48 8d 4c 24 28	 lea	 rcx, QWORD PTR $T2[rsp]
  00065	e8 00 00 00 00	 call	 ??0runtime_error@std@@QEAA@PEBD@Z ; std::runtime_error::runtime_error
  0006a	48 8d 15 00 00
	00 00		 lea	 rdx, OFFSET FLAT:_TI2?AVruntime_error@std@@
  00071	48 8d 4c 24 28	 lea	 rcx, QWORD PTR $T2[rsp]
  00076	e8 00 00 00 00	 call	 _CxxThrowException
  0007b	cc		 int	 3
$LN2@Locinfo:

; 79   : 		_Locinfo_ctor(this, _Pch);

  0007c	48 8b d7	 mov	 rdx, rdi
  0007f	48 8b cb	 mov	 rcx, rbx
  00082	e8 00 00 00 00	 call	 ?_Locinfo_ctor@_Locinfo@std@@SAXPEAV12@PEBD@Z ; std::_Locinfo::_Locinfo_ctor
  00087	90		 npad	 1

; 80   : 		}

  00088	48 8b c3	 mov	 rax, rbx
  0008b	48 8b 5c 24 58	 mov	 rbx, QWORD PTR [rsp+88]
  00090	48 83 c4 40	 add	 rsp, 64			; 00000040H
  00094	5f		 pop	 rdi
  00095	c3		 ret	 0
$LN23@Locinfo:
??0_Locinfo@std@@QEAA@PEBD@Z ENDP			; std::_Locinfo::_Locinfo
_TEXT	ENDS
;	COMDAT text$x
text$x	SEGMENT
$T1 = 32
$T2 = 40
this$ = 80
_Pch$ = 88
?dtor$0@?0???0_Locinfo@std@@QEAA@PEBD@Z@4HA PROC	; `std::_Locinfo::_Locinfo'::`1'::dtor$0
  00000	48 8b 8a 50 00
	00 00		 mov	 rcx, QWORD PTR this$[rdx]
  00007	e9 00 00 00 00	 jmp	 ??1_Lockit@std@@QEAA@XZ	; std::_Lockit::~_Lockit
?dtor$0@?0???0_Locinfo@std@@QEAA@PEBD@Z@4HA ENDP	; `std::_Locinfo::_Locinfo'::`1'::dtor$0
$T1 = 32
$T2 = 40
this$ = 80
_Pch$ = 88
?dtor$1@?0???0_Locinfo@std@@QEAA@PEBD@Z@4HA PROC	; `std::_Locinfo::_Locinfo'::`1'::dtor$1
  0000c	48 8b 8a 50 00
	00 00		 mov	 rcx, QWORD PTR this$[rdx]
  00013	48 83 c1 08	 add	 rcx, 8
  00017	e9 00 00 00 00	 jmp	 ??1?$_Yarn@D@std@@QEAA@XZ ; std::_Yarn<char>::~_Yarn<char>
?dtor$1@?0???0_Locinfo@std@@QEAA@PEBD@Z@4HA ENDP	; `std::_Locinfo::_Locinfo'::`1'::dtor$1
$T1 = 32
$T2 = 40
this$ = 80
_Pch$ = 88
?dtor$2@?0???0_Locinfo@std@@QEAA@PEBD@Z@4HA PROC	; `std::_Locinfo::_Locinfo'::`1'::dtor$2
  0001c	48 8b 8a 50 00
	00 00		 mov	 rcx, QWORD PTR this$[rdx]
  00023	48 83 c1 18	 add	 rcx, 24
  00027	e9 00 00 00 00	 jmp	 ??1?$_Yarn@D@std@@QEAA@XZ ; std::_Yarn<char>::~_Yarn<char>
?dtor$2@?0???0_Locinfo@std@@QEAA@PEBD@Z@4HA ENDP	; `std::_Locinfo::_Locinfo'::`1'::dtor$2
$T1 = 32
$T2 = 40
this$ = 80
_Pch$ = 88
?dtor$3@?0???0_Locinfo@std@@QEAA@PEBD@Z@4HA PROC	; `std::_Locinfo::_Locinfo'::`1'::dtor$3
  0002c	48 8b 8a 50 00
	00 00		 mov	 rcx, QWORD PTR this$[rdx]
  00033	48 83 c1 28	 add	 rcx, 40			; 00000028H
  00037	e9 00 00 00 00	 jmp	 ??1?$_Yarn@_W@std@@QEAA@XZ ; std::_Yarn<wchar_t>::~_Yarn<wchar_t>
?dtor$3@?0???0_Locinfo@std@@QEAA@PEBD@Z@4HA ENDP	; `std::_Locinfo::_Locinfo'::`1'::dtor$3
$T1 = 32
$T2 = 40
this$ = 80
_Pch$ = 88
?dtor$4@?0???0_Locinfo@std@@QEAA@PEBD@Z@4HA PROC	; `std::_Locinfo::_Locinfo'::`1'::dtor$4
  0003c	48 8b 8a 50 00
	00 00		 mov	 rcx, QWORD PTR this$[rdx]
  00043	48 83 c1 38	 add	 rcx, 56			; 00000038H
  00047	e9 00 00 00 00	 jmp	 ??1?$_Yarn@_W@std@@QEAA@XZ ; std::_Yarn<wchar_t>::~_Yarn<wchar_t>
?dtor$4@?0???0_Locinfo@std@@QEAA@PEBD@Z@4HA ENDP	; `std::_Locinfo::_Locinfo'::`1'::dtor$4
$T1 = 32
$T2 = 40
this$ = 80
_Pch$ = 88
?dtor$5@?0???0_Locinfo@std@@QEAA@PEBD@Z@4HA PROC	; `std::_Locinfo::_Locinfo'::`1'::dtor$5
  0004c	48 8b 8a 50 00
	00 00		 mov	 rcx, QWORD PTR this$[rdx]
  00053	48 83 c1 48	 add	 rcx, 72			; 00000048H
  00057	e9 00 00 00 00	 jmp	 ??1?$_Yarn@D@std@@QEAA@XZ ; std::_Yarn<char>::~_Yarn<char>
?dtor$5@?0???0_Locinfo@std@@QEAA@PEBD@Z@4HA ENDP	; `std::_Locinfo::_Locinfo'::`1'::dtor$5
$T1 = 32
$T2 = 40
this$ = 80
_Pch$ = 88
?dtor$6@?0???0_Locinfo@std@@QEAA@PEBD@Z@4HA PROC	; `std::_Locinfo::_Locinfo'::`1'::dtor$6
  0005c	48 8b 8a 50 00
	00 00		 mov	 rcx, QWORD PTR this$[rdx]
  00063	48 83 c1 58	 add	 rcx, 88			; 00000058H
  00067	e9 00 00 00 00	 jmp	 ??1?$_Yarn@D@std@@QEAA@XZ ; std::_Yarn<char>::~_Yarn<char>
?dtor$6@?0???0_Locinfo@std@@QEAA@PEBD@Z@4HA ENDP	; `std::_Locinfo::_Locinfo'::`1'::dtor$6
text$x	ENDS
; Function compile flags: /Ogtpy
;	COMDAT text$x
text$x	SEGMENT
$T1 = 32
$T2 = 40
this$ = 80
_Pch$ = 88
?dtor$0@?0???0_Locinfo@std@@QEAA@PEBD@Z@4HA PROC	; `std::_Locinfo::_Locinfo'::`1'::dtor$0
  00000	48 8b 8a 50 00
	00 00		 mov	 rcx, QWORD PTR this$[rdx]
  00007	e9 00 00 00 00	 jmp	 ??1_Lockit@std@@QEAA@XZ	; std::_Lockit::~_Lockit
?dtor$0@?0???0_Locinfo@std@@QEAA@PEBD@Z@4HA ENDP	; `std::_Locinfo::_Locinfo'::`1'::dtor$0
text$x	ENDS
; Function compile flags: /Ogtpy
;	COMDAT text$x
text$x	SEGMENT
$T1 = 32
$T2 = 40
this$ = 80
_Pch$ = 88
?dtor$1@?0???0_Locinfo@std@@QEAA@PEBD@Z@4HA PROC	; `std::_Locinfo::_Locinfo'::`1'::dtor$1
  0000c	48 8b 8a 50 00
	00 00		 mov	 rcx, QWORD PTR this$[rdx]
  00013	48 83 c1 08	 add	 rcx, 8
  00017	e9 00 00 00 00	 jmp	 ??1?$_Yarn@D@std@@QEAA@XZ ; std::_Yarn<char>::~_Yarn<char>
?dtor$1@?0???0_Locinfo@std@@QEAA@PEBD@Z@4HA ENDP	; `std::_Locinfo::_Locinfo'::`1'::dtor$1
text$x	ENDS
; Function compile flags: /Ogtpy
;	COMDAT text$x
text$x	SEGMENT
$T1 = 32
$T2 = 40
this$ = 80
_Pch$ = 88
?dtor$2@?0???0_Locinfo@std@@QEAA@PEBD@Z@4HA PROC	; `std::_Locinfo::_Locinfo'::`1'::dtor$2
  0001c	48 8b 8a 50 00
	00 00		 mov	 rcx, QWORD PTR this$[rdx]
  00023	48 83 c1 18	 add	 rcx, 24
  00027	e9 00 00 00 00	 jmp	 ??1?$_Yarn@D@std@@QEAA@XZ ; std::_Yarn<char>::~_Yarn<char>
?dtor$2@?0???0_Locinfo@std@@QEAA@PEBD@Z@4HA ENDP	; `std::_Locinfo::_Locinfo'::`1'::dtor$2
text$x	ENDS
; Function compile flags: /Ogtpy
;	COMDAT text$x
text$x	SEGMENT
$T1 = 32
$T2 = 40
this$ = 80
_Pch$ = 88
?dtor$3@?0???0_Locinfo@std@@QEAA@PEBD@Z@4HA PROC	; `std::_Locinfo::_Locinfo'::`1'::dtor$3
  0002c	48 8b 8a 50 00
	00 00		 mov	 rcx, QWORD PTR this$[rdx]
  00033	48 83 c1 28	 add	 rcx, 40			; 00000028H
  00037	e9 00 00 00 00	 jmp	 ??1?$_Yarn@_W@std@@QEAA@XZ ; std::_Yarn<wchar_t>::~_Yarn<wchar_t>
?dtor$3@?0???0_Locinfo@std@@QEAA@PEBD@Z@4HA ENDP	; `std::_Locinfo::_Locinfo'::`1'::dtor$3
text$x	ENDS
; Function compile flags: /Ogtpy
;	COMDAT text$x
text$x	SEGMENT
$T1 = 32
$T2 = 40
this$ = 80
_Pch$ = 88
?dtor$4@?0???0_Locinfo@std@@QEAA@PEBD@Z@4HA PROC	; `std::_Locinfo::_Locinfo'::`1'::dtor$4
  0003c	48 8b 8a 50 00
	00 00		 mov	 rcx, QWORD PTR this$[rdx]
  00043	48 83 c1 38	 add	 rcx, 56			; 00000038H
  00047	e9 00 00 00 00	 jmp	 ??1?$_Yarn@_W@std@@QEAA@XZ ; std::_Yarn<wchar_t>::~_Yarn<wchar_t>
?dtor$4@?0???0_Locinfo@std@@QEAA@PEBD@Z@4HA ENDP	; `std::_Locinfo::_Locinfo'::`1'::dtor$4
text$x	ENDS
; Function compile flags: /Ogtpy
;	COMDAT text$x
text$x	SEGMENT
$T1 = 32
$T2 = 40
this$ = 80
_Pch$ = 88
?dtor$5@?0???0_Locinfo@std@@QEAA@PEBD@Z@4HA PROC	; `std::_Locinfo::_Locinfo'::`1'::dtor$5
  0004c	48 8b 8a 50 00
	00 00		 mov	 rcx, QWORD PTR this$[rdx]
  00053	48 83 c1 48	 add	 rcx, 72			; 00000048H
  00057	e9 00 00 00 00	 jmp	 ??1?$_Yarn@D@std@@QEAA@XZ ; std::_Yarn<char>::~_Yarn<char>
?dtor$5@?0???0_Locinfo@std@@QEAA@PEBD@Z@4HA ENDP	; `std::_Locinfo::_Locinfo'::`1'::dtor$5
text$x	ENDS
; Function compile flags: /Ogtpy
;	COMDAT text$x
text$x	SEGMENT
$T1 = 32
$T2 = 40
this$ = 80
_Pch$ = 88
?dtor$6@?0???0_Locinfo@std@@QEAA@PEBD@Z@4HA PROC	; `std::_Locinfo::_Locinfo'::`1'::dtor$6
  0005c	48 8b 8a 50 00
	00 00		 mov	 rcx, QWORD PTR this$[rdx]
  00063	48 83 c1 58	 add	 rcx, 88			; 00000058H
  00067	e9 00 00 00 00	 jmp	 ??1?$_Yarn@D@std@@QEAA@XZ ; std::_Yarn<char>::~_Yarn<char>
?dtor$6@?0???0_Locinfo@std@@QEAA@PEBD@Z@4HA ENDP	; `std::_Locinfo::_Locinfo'::`1'::dtor$6
text$x	ENDS
; Function compile flags: /Ogtpy
; File c:\users\alist_000\cppmisc\packages\visualcpptools.14.0.24629\lib\native\include\xlocinfo
; File c:\users\alist_000\cppmisc\packages\visualcpptools.14.0.24629\lib\native\include\xutility
; File c:\users\alist_000\cppmisc\packages\visualcpptools.14.0.24629\lib\native\include\xlocinfo
;	COMDAT ??1_Locinfo@std@@QEAA@XZ
_TEXT	SEGMENT
$T1 = 32
this$ = 64
??1_Locinfo@std@@QEAA@XZ PROC				; std::_Locinfo::~_Locinfo, COMDAT

; 94   : 		{	// destroy the object

$LN39:
  00000	40 57		 push	 rdi
  00002	48 83 ec 30	 sub	 rsp, 48			; 00000030H
  00006	48 c7 44 24 20
	fe ff ff ff	 mov	 QWORD PTR $T1[rsp], -2
  0000f	48 89 5c 24 40	 mov	 QWORD PTR [rsp+64], rbx
  00014	48 8b d9	 mov	 rbx, rcx

; 95   : 		_Locinfo_dtor(this);

  00017	e8 00 00 00 00	 call	 ?_Locinfo_dtor@_Locinfo@std@@SAXPEAV12@@Z ; std::_Locinfo::_Locinfo_dtor
  0001c	90		 npad	 1
; File c:\users\alist_000\cppmisc\packages\visualcpptools.14.0.24629\lib\native\include\xutility

; 3717 : 		if (_Myptr != 0)

  0001d	48 8b 4b 58	 mov	 rcx, QWORD PTR [rbx+88]
  00021	48 85 c9	 test	 rcx, rcx
  00024	74 06		 je	 SHORT $LN7@Locinfo

; 3718 : 
; 3719 :  #ifdef _DEBUG
; 3720 : 			_free_dbg(_Myptr, _CRT_BLOCK);
; 3721 : 
; 3722 :  #else /* _DEBUG */
; 3723 : 			_CSTD free(_Myptr);

  00026	e8 00 00 00 00	 call	 free
  0002b	90		 npad	 1
$LN7@Locinfo:

; 3724 :  #endif /* _DEBUG */
; 3725 : 
; 3726 : 		_Myptr = 0;

  0002c	33 ff		 xor	 edi, edi
  0002e	48 89 7b 58	 mov	 QWORD PTR [rbx+88], rdi

; 3717 : 		if (_Myptr != 0)

  00032	48 8b 4b 48	 mov	 rcx, QWORD PTR [rbx+72]
  00036	48 85 c9	 test	 rcx, rcx
  00039	74 06		 je	 SHORT $LN13@Locinfo

; 3718 : 
; 3719 :  #ifdef _DEBUG
; 3720 : 			_free_dbg(_Myptr, _CRT_BLOCK);
; 3721 : 
; 3722 :  #else /* _DEBUG */
; 3723 : 			_CSTD free(_Myptr);

  0003b	e8 00 00 00 00	 call	 free
  00040	90		 npad	 1
$LN13@Locinfo:

; 3724 :  #endif /* _DEBUG */
; 3725 : 
; 3726 : 		_Myptr = 0;

  00041	48 89 7b 48	 mov	 QWORD PTR [rbx+72], rdi

; 3717 : 		if (_Myptr != 0)

  00045	48 8b 4b 38	 mov	 rcx, QWORD PTR [rbx+56]
  00049	48 85 c9	 test	 rcx, rcx
  0004c	74 06		 je	 SHORT $LN19@Locinfo

; 3718 : 
; 3719 :  #ifdef _DEBUG
; 3720 : 			_free_dbg(_Myptr, _CRT_BLOCK);
; 3721 : 
; 3722 :  #else /* _DEBUG */
; 3723 : 			_CSTD free(_Myptr);

  0004e	e8 00 00 00 00	 call	 free
  00053	90		 npad	 1
$LN19@Locinfo:

; 3724 :  #endif /* _DEBUG */
; 3725 : 
; 3726 : 		_Myptr = 0;

  00054	48 89 7b 38	 mov	 QWORD PTR [rbx+56], rdi

; 3717 : 		if (_Myptr != 0)

  00058	48 8b 4b 28	 mov	 rcx, QWORD PTR [rbx+40]
  0005c	48 85 c9	 test	 rcx, rcx
  0005f	74 06		 je	 SHORT $LN25@Locinfo

; 3718 : 
; 3719 :  #ifdef _DEBUG
; 3720 : 			_free_dbg(_Myptr, _CRT_BLOCK);
; 3721 : 
; 3722 :  #else /* _DEBUG */
; 3723 : 			_CSTD free(_Myptr);

  00061	e8 00 00 00 00	 call	 free
  00066	90		 npad	 1
$LN25@Locinfo:

; 3724 :  #endif /* _DEBUG */
; 3725 : 
; 3726 : 		_Myptr = 0;

  00067	48 89 7b 28	 mov	 QWORD PTR [rbx+40], rdi

; 3717 : 		if (_Myptr != 0)

  0006b	48 8b 4b 18	 mov	 rcx, QWORD PTR [rbx+24]
  0006f	48 85 c9	 test	 rcx, rcx
  00072	74 06		 je	 SHORT $LN31@Locinfo

; 3718 : 
; 3719 :  #ifdef _DEBUG
; 3720 : 			_free_dbg(_Myptr, _CRT_BLOCK);
; 3721 : 
; 3722 :  #else /* _DEBUG */
; 3723 : 			_CSTD free(_Myptr);

  00074	e8 00 00 00 00	 call	 free
  00079	90		 npad	 1
$LN31@Locinfo:

; 3724 :  #endif /* _DEBUG */
; 3725 : 
; 3726 : 		_Myptr = 0;

  0007a	48 89 7b 18	 mov	 QWORD PTR [rbx+24], rdi

; 3717 : 		if (_Myptr != 0)

  0007e	48 8b 4b 08	 mov	 rcx, QWORD PTR [rbx+8]
  00082	48 85 c9	 test	 rcx, rcx
  00085	74 06		 je	 SHORT $LN37@Locinfo

; 3718 : 
; 3719 :  #ifdef _DEBUG
; 3720 : 			_free_dbg(_Myptr, _CRT_BLOCK);
; 3721 : 
; 3722 :  #else /* _DEBUG */
; 3723 : 			_CSTD free(_Myptr);

  00087	e8 00 00 00 00	 call	 free
  0008c	90		 npad	 1
$LN37@Locinfo:

; 3724 :  #endif /* _DEBUG */
; 3725 : 
; 3726 : 		_Myptr = 0;

  0008d	48 89 7b 08	 mov	 QWORD PTR [rbx+8], rdi
; File c:\users\alist_000\cppmisc\packages\visualcpptools.14.0.24629\lib\native\include\xlocinfo

; 96   : 		}

  00091	48 8b cb	 mov	 rcx, rbx
  00094	48 8b 5c 24 40	 mov	 rbx, QWORD PTR [rsp+64]
  00099	48 83 c4 30	 add	 rsp, 48			; 00000030H
  0009d	5f		 pop	 rdi
  0009e	e9 00 00 00 00	 jmp	 ??1_Lockit@std@@QEAA@XZ	; std::_Lockit::~_Lockit
??1_Locinfo@std@@QEAA@XZ ENDP				; std::_Locinfo::~_Locinfo
_TEXT	ENDS
; Function compile flags: /Ogtpy
; File c:\users\alist_000\cppmisc\packages\visualcpptools.14.0.24629\lib\native\include\xlocinfo
;	COMDAT ?_Getctype@_Locinfo@std@@QEBA?AU_Ctypevec@@XZ
_TEXT	SEGMENT
$T1 = 32
this$ = 80
__$ReturnUdt$ = 88
?_Getctype@_Locinfo@std@@QEBA?AU_Ctypevec@@XZ PROC	; std::_Locinfo::_Getctype, COMDAT

; 116  : 		{	// return ctype stuff

$LN4:
  00000	40 53		 push	 rbx
  00002	48 83 ec 40	 sub	 rsp, 64			; 00000040H

; 117  : 		return (::_Getctype());

  00006	48 8d 4c 24 20	 lea	 rcx, QWORD PTR $T1[rsp]
  0000b	48 8b da	 mov	 rbx, rdx
  0000e	e8 00 00 00 00	 call	 _Getctype
  00013	0f 10 00	 movups	 xmm0, XMMWORD PTR [rax]
  00016	0f 10 48 10	 movups	 xmm1, XMMWORD PTR [rax+16]
  0001a	48 8b c3	 mov	 rax, rbx
  0001d	0f 11 03	 movups	 XMMWORD PTR [rbx], xmm0
  00020	0f 11 4b 10	 movups	 XMMWORD PTR [rbx+16], xmm1

; 118  : 		}

  00024	48 83 c4 40	 add	 rsp, 64			; 00000040H
  00028	5b		 pop	 rbx
  00029	c3		 ret	 0
?_Getctype@_Locinfo@std@@QEBA?AU_Ctypevec@@XZ ENDP	; std::_Locinfo::_Getctype
_TEXT	ENDS
; Function compile flags: /Ogtpy
; File c:\users\alist_000\cppmisc\packages\visualcpptools.14.0.24629\lib\native\include\vcruntime_exception.h
;	COMDAT ??0runtime_error@std@@QEAA@AEBV01@@Z
_TEXT	SEGMENT
this$ = 48
__that$ = 56
??0runtime_error@std@@QEAA@AEBV01@@Z PROC		; std::runtime_error::runtime_error, COMDAT
$LN6:
  00000	40 53		 push	 rbx
  00002	48 83 ec 20	 sub	 rsp, 32			; 00000020H
  00006	48 8b d9	 mov	 rbx, rcx
  00009	48 8b c2	 mov	 rax, rdx

; 65   :         : _Data()

  0000c	48 8d 53 08	 lea	 rdx, QWORD PTR [rbx+8]

; 66   :     {

  00010	48 8d 0d 00 00
	00 00		 lea	 rcx, OFFSET FLAT:??_7exception@std@@6B@
  00017	48 89 0b	 mov	 QWORD PTR [rbx], rcx
  0001a	33 c9		 xor	 ecx, ecx
  0001c	48 89 0a	 mov	 QWORD PTR [rdx], rcx
  0001f	48 89 4a 08	 mov	 QWORD PTR [rdx+8], rcx

; 67   :         __std_exception_copy(&_Other._Data, &_Data);

  00023	48 8d 48 08	 lea	 rcx, QWORD PTR [rax+8]
  00027	e8 00 00 00 00	 call	 __std_exception_copy
  0002c	48 8d 05 00 00
	00 00		 lea	 rax, OFFSET FLAT:??_7runtime_error@std@@6B@
  00033	48 89 03	 mov	 QWORD PTR [rbx], rax
  00036	48 8b c3	 mov	 rax, rbx
  00039	48 83 c4 20	 add	 rsp, 32			; 00000020H
  0003d	5b		 pop	 rbx
  0003e	c3		 ret	 0
??0runtime_error@std@@QEAA@AEBV01@@Z ENDP		; std::runtime_error::runtime_error
_TEXT	ENDS
; Function compile flags: /Ogtpy
; File c:\users\alist_000\cppmisc\packages\visualcpptools.14.0.24629\lib\native\include\xfacet
;	COMDAT ??1_Facet_base@std@@UEAA@XZ
_TEXT	SEGMENT
this$ = 8
??1_Facet_base@std@@UEAA@XZ PROC			; std::_Facet_base::~_Facet_base, COMDAT

; 24   : 		{	// ensure that derived classes can be destroyed properly

  00000	48 8d 05 00 00
	00 00		 lea	 rax, OFFSET FLAT:??_7_Facet_base@std@@6B@
  00007	48 89 01	 mov	 QWORD PTR [rcx], rax

; 25   : 		}

  0000a	c3		 ret	 0
??1_Facet_base@std@@UEAA@XZ ENDP			; std::_Facet_base::~_Facet_base
_TEXT	ENDS
; Function compile flags: /Ogtpy
; File c:\users\alist_000\cppmisc\packages\visualcpptools.14.0.24629\lib\native\include\xfacet
;	COMDAT ??_G_Facet_base@std@@UEAAPEAXI@Z
_TEXT	SEGMENT
this$ = 48
__flags$ = 56
??_G_Facet_base@std@@UEAAPEAXI@Z PROC			; std::_Facet_base::`scalar deleting destructor', COMDAT
$LN9:
  00000	40 53		 push	 rbx
  00002	48 83 ec 20	 sub	 rsp, 32			; 00000020H

; 24   : 		{	// ensure that derived classes can be destroyed properly

  00006	48 8d 05 00 00
	00 00		 lea	 rax, OFFSET FLAT:??_7_Facet_base@std@@6B@
  0000d	48 8b d9	 mov	 rbx, rcx
  00010	48 89 01	 mov	 QWORD PTR [rcx], rax
  00013	f6 c2 01	 test	 dl, 1
  00016	74 0a		 je	 SHORT $LN7@scalar
  00018	ba 08 00 00 00	 mov	 edx, 8
  0001d	e8 00 00 00 00	 call	 ??3@YAXPEAX_K@Z		; operator delete
$LN7@scalar:
  00022	48 8b c3	 mov	 rax, rbx
  00025	48 83 c4 20	 add	 rsp, 32			; 00000020H
  00029	5b		 pop	 rbx
  0002a	c3		 ret	 0
??_G_Facet_base@std@@UEAAPEAXI@Z ENDP			; std::_Facet_base::`scalar deleting destructor'
_TEXT	ENDS
; Function compile flags: /Ogtpy
; File c:\users\alist_000\cppmisc\packages\visualcpptools.14.0.24629\lib\native\include\xlocale
;	COMDAT ??Bid@locale@std@@QEAA_KXZ
_TEXT	SEGMENT
_Lock$1 = 48
this$ = 48
??Bid@locale@std@@QEAA_KXZ PROC				; std::locale::id::operator unsigned __int64, COMDAT

; 114  : 			{	// get stamp, with lazy allocation

$LN8:
  00000	40 53		 push	 rbx
  00002	48 83 ec 20	 sub	 rsp, 32			; 00000020H

; 115  : 			if (_Id == 0)

  00006	48 83 39 00	 cmp	 QWORD PTR [rcx], 0
  0000a	48 8b d9	 mov	 rbx, rcx
  0000d	75 38		 jne	 SHORT $LN6@operator

; 116  : 				{	// still zero, allocate stamp
; 117  : 				_BEGIN_LOCK(_LOCK_LOCALE)

  0000f	33 d2		 xor	 edx, edx
  00011	48 8d 4c 24 30	 lea	 rcx, QWORD PTR _Lock$1[rsp]
  00016	e8 00 00 00 00	 call	 ??0_Lockit@std@@QEAA@H@Z ; std::_Lockit::_Lockit

; 118  : 					if (_Id == 0)

  0001b	48 83 3b 00	 cmp	 QWORD PTR [rbx], 0
  0001f	75 13		 jne	 SHORT $LN3@operator

; 119  : 						_Id = ++_Id_cnt;

  00021	8b 05 00 00 00
	00		 mov	 eax, DWORD PTR ?_Id_cnt@id@locale@std@@0HA ; std::locale::id::_Id_cnt
  00027	ff c0		 inc	 eax
  00029	89 05 00 00 00
	00		 mov	 DWORD PTR ?_Id_cnt@id@locale@std@@0HA, eax ; std::locale::id::_Id_cnt
  0002f	48 98		 cdqe
  00031	48 89 03	 mov	 QWORD PTR [rbx], rax
$LN3@operator:

; 120  : 				_END_LOCK()

  00034	48 8d 4c 24 30	 lea	 rcx, QWORD PTR _Lock$1[rsp]
  00039	e8 00 00 00 00	 call	 ??1_Lockit@std@@QEAA@XZ	; std::_Lockit::~_Lockit

; 121  : 				}
; 122  : 			return (_Id);

  0003e	48 8b 03	 mov	 rax, QWORD PTR [rbx]

; 123  : 			}

  00041	48 83 c4 20	 add	 rsp, 32			; 00000020H
  00045	5b		 pop	 rbx
  00046	c3		 ret	 0
$LN6@operator:

; 121  : 				}
; 122  : 			return (_Id);

  00047	48 8b 01	 mov	 rax, QWORD PTR [rcx]

; 123  : 			}

  0004a	48 83 c4 20	 add	 rsp, 32			; 00000020H
  0004e	5b		 pop	 rbx
  0004f	c3		 ret	 0
??Bid@locale@std@@QEAA_KXZ ENDP				; std::locale::id::operator unsigned __int64
_TEXT	ENDS
; Function compile flags: /Ogtpy
; File c:\users\alist_000\cppmisc\packages\visualcpptools.14.0.24629\lib\native\include\xlocale
;	COMDAT ?_Incref@facet@locale@std@@UEAAXXZ
_TEXT	SEGMENT
this$ = 8
?_Incref@facet@locale@std@@UEAAXXZ PROC			; std::locale::facet::_Incref, COMDAT

; 150  : 			_MT_INCR(_Myrefs);

  00000	f0 ff 41 08	 lock inc DWORD PTR [rcx+8]

; 151  : 			}

  00004	c3		 ret	 0
?_Incref@facet@locale@std@@UEAAXXZ ENDP			; std::locale::facet::_Incref
_TEXT	ENDS
; Function compile flags: /Ogtpy
; File c:\users\alist_000\cppmisc\packages\visualcpptools.14.0.24629\lib\native\include\xlocale
;	COMDAT ?_Decref@facet@locale@std@@UEAAPEAV_Facet_base@3@XZ
_TEXT	SEGMENT
this$ = 8
?_Decref@facet@locale@std@@UEAAPEAV_Facet_base@3@XZ PROC ; std::locale::facet::_Decref, COMDAT

; 155  : 			if (_MT_DECR(_Myrefs) == 0)

  00000	f0 83 41 08 ff	 lock add DWORD PTR [rcx+8], -1
  00005	b8 00 00 00 00	 mov	 eax, 0
  0000a	48 0f 44 c1	 cmove	 rax, rcx

; 156  : 				return (this);
; 157  : 			else
; 158  : 				return (0);
; 159  : 			}

  0000e	c3		 ret	 0
?_Decref@facet@locale@std@@UEAAPEAV_Facet_base@3@XZ ENDP ; std::locale::facet::_Decref
_TEXT	ENDS
; Function compile flags: /Ogtpy
; File c:\users\alist_000\cppmisc\packages\visualcpptools.14.0.24629\lib\native\include\xlocale
;	COMDAT ??0facet@locale@std@@IEAA@_K@Z
_TEXT	SEGMENT
this$ = 8
_Initrefs$ = 16
??0facet@locale@std@@IEAA@_K@Z PROC			; std::locale::facet::facet, COMDAT

; 167  : 			{	// construct with initial reference count

  00000	48 8d 05 00 00
	00 00		 lea	 rax, OFFSET FLAT:??_7facet@locale@std@@6B@

; 166  : 			: _Myrefs(static_cast<_Atomic_integral_t>(_Initrefs))	// non-atomic initialization

  00007	89 51 08	 mov	 DWORD PTR [rcx+8], edx
  0000a	48 89 01	 mov	 QWORD PTR [rcx], rax

; 168  : 			}

  0000d	48 8b c1	 mov	 rax, rcx
  00010	c3		 ret	 0
??0facet@locale@std@@IEAA@_K@Z ENDP			; std::locale::facet::facet
_TEXT	ENDS
; Function compile flags: /Ogtpy
; File c:\users\alist_000\cppmisc\packages\visualcpptools.14.0.24629\lib\native\include\xlocale
; File c:\users\alist_000\cppmisc\packages\visualcpptools.14.0.24629\lib\native\include\xfacet
; File c:\users\alist_000\cppmisc\packages\visualcpptools.14.0.24629\lib\native\include\xlocale
;	COMDAT ??1facet@locale@std@@MEAA@XZ
_TEXT	SEGMENT
this$ = 8
??1facet@locale@std@@MEAA@XZ PROC			; std::locale::facet::~facet, COMDAT
; File c:\users\alist_000\cppmisc\packages\visualcpptools.14.0.24629\lib\native\include\xfacet

; 24   : 		{	// ensure that derived classes can be destroyed properly

  00000	48 8d 05 00 00
	00 00		 lea	 rax, OFFSET FLAT:??_7_Facet_base@std@@6B@
  00007	48 89 01	 mov	 QWORD PTR [rcx], rax
; File c:\users\alist_000\cppmisc\packages\visualcpptools.14.0.24629\lib\native\include\xlocale

; 172  : 			}

  0000a	c3		 ret	 0
??1facet@locale@std@@MEAA@XZ ENDP			; std::locale::facet::~facet
_TEXT	ENDS
; Function compile flags: /Ogtpy
; File c:\users\alist_000\cppmisc\packages\visualcpptools.14.0.24629\lib\native\include\xlocale
;	COMDAT ??0locale@std@@QEAA@AEBV01@@Z
_TEXT	SEGMENT
$T1 = 32
this$ = 64
_Right$ = 72
??0locale@std@@QEAA@AEBV01@@Z PROC			; std::locale::locale, COMDAT

; 304  : 		{	// construct by copying

$LN3:
  00000	40 53		 push	 rbx
  00002	48 83 ec 30	 sub	 rsp, 48			; 00000030H
  00006	48 c7 44 24 20
	fe ff ff ff	 mov	 QWORD PTR $T1[rsp], -2
  0000f	48 8b d9	 mov	 rbx, rcx

; 303  : 		: _Ptr(_Right._Ptr)

  00012	48 8b 4a 08	 mov	 rcx, QWORD PTR [rdx+8]
  00016	48 89 4b 08	 mov	 QWORD PTR [rbx+8], rcx

; 305  : 		_Ptr->_Incref();

  0001a	48 8b 01	 mov	 rax, QWORD PTR [rcx]
  0001d	ff 50 08	 call	 QWORD PTR [rax+8]
  00020	90		 npad	 1

; 306  : 		}

  00021	48 8b c3	 mov	 rax, rbx
  00024	48 83 c4 30	 add	 rsp, 48			; 00000030H
  00028	5b		 pop	 rbx
  00029	c3		 ret	 0
??0locale@std@@QEAA@AEBV01@@Z ENDP			; std::locale::locale
_TEXT	ENDS
; Function compile flags: /Ogtpy
; File c:\users\alist_000\cppmisc\packages\visualcpptools.14.0.24629\lib\native\include\xlocale
;	COMDAT ??1locale@std@@QEAA@XZ
_TEXT	SEGMENT
$T1 = 32
this$ = 64
??1locale@std@@QEAA@XZ PROC				; std::locale::~locale, COMDAT

; 409  : 		{	// destroy the object

$LN6:
  00000	48 83 ec 38	 sub	 rsp, 56			; 00000038H
  00004	48 c7 44 24 20
	fe ff ff ff	 mov	 QWORD PTR $T1[rsp], -2

; 410  : 		if (_Ptr != 0)

  0000d	48 8b 49 08	 mov	 rcx, QWORD PTR [rcx+8]
  00011	48 85 c9	 test	 rcx, rcx
  00014	74 1e		 je	 SHORT $LN4@locale

; 411  : 			delete _Ptr->_Decref();

  00016	48 8b 01	 mov	 rax, QWORD PTR [rcx]
  00019	ff 50 10	 call	 QWORD PTR [rax+16]
  0001c	90		 npad	 1
  0001d	48 85 c0	 test	 rax, rax
  00020	74 12		 je	 SHORT $LN4@locale
  00022	4c 8b 00	 mov	 r8, QWORD PTR [rax]
  00025	ba 01 00 00 00	 mov	 edx, 1
  0002a	48 8b c8	 mov	 rcx, rax

; 412  : 		}

  0002d	48 83 c4 38	 add	 rsp, 56			; 00000038H

; 411  : 			delete _Ptr->_Decref();

  00031	49 ff 20	 rex_jmp QWORD PTR [r8]
$LN4@locale:

; 412  : 		}

  00034	48 83 c4 38	 add	 rsp, 56			; 00000038H
  00038	c3		 ret	 0
??1locale@std@@QEAA@XZ ENDP				; std::locale::~locale
_TEXT	ENDS
; Function compile flags: /Ogtpy
; File c:\users\alist_000\cppmisc\packages\visualcpptools.14.0.24629\lib\native\include\xlocale
; File c:\users\alist_000\cppmisc\packages\visualcpptools.14.0.24629\lib\native\include\xutility
; File c:\users\alist_000\cppmisc\packages\visualcpptools.14.0.24629\lib\native\include\xlocale
; File c:\users\alist_000\cppmisc\packages\visualcpptools.14.0.24629\lib\native\include\xutility
; File c:\users\alist_000\cppmisc\packages\visualcpptools.14.0.24629\lib\native\include\xlocale
;	COMDAT ?c_str@locale@std@@QEBAPEBDXZ
_TEXT	SEGMENT
this$ = 8
?c_str@locale@std@@QEBAPEBDXZ PROC			; std::locale::c_str, COMDAT

; 432  : 		return (_Ptr == 0 ? "" : _Ptr->_Name.c_str());

  00000	48 8b 41 08	 mov	 rax, QWORD PTR [rcx+8]
  00004	48 85 c0	 test	 rax, rax
  00007	75 08		 jne	 SHORT $LN3@c_str
  00009	48 8d 05 00 00
	00 00		 lea	 rax, OFFSET FLAT:??_C@_00CNPNBAHC@?$AA@

; 433  : 		}

  00010	c3		 ret	 0
$LN3@c_str:
; File c:\users\alist_000\cppmisc\packages\visualcpptools.14.0.24629\lib\native\include\xutility

; 3701 : 		return (_Myptr != 0 ? _Myptr : &_Nul);

  00011	48 8b 48 28	 mov	 rcx, QWORD PTR [rax+40]
  00015	48 85 c9	 test	 rcx, rcx
  00018	74 04		 je	 SHORT $LN7@c_str
; File c:\users\alist_000\cppmisc\packages\visualcpptools.14.0.24629\lib\native\include\xlocale

; 432  : 		return (_Ptr == 0 ? "" : _Ptr->_Name.c_str());

  0001a	48 8b c1	 mov	 rax, rcx

; 433  : 		}

  0001d	c3		 ret	 0
$LN7@c_str:
; File c:\users\alist_000\cppmisc\packages\visualcpptools.14.0.24629\lib\native\include\xutility

; 3701 : 		return (_Myptr != 0 ? _Myptr : &_Nul);

  0001e	48 83 c0 30	 add	 rax, 48			; 00000030H
; File c:\users\alist_000\cppmisc\packages\visualcpptools.14.0.24629\lib\native\include\xlocale

; 433  : 		}

  00022	c3		 ret	 0
?c_str@locale@std@@QEBAPEBDXZ ENDP			; std::locale::c_str
_TEXT	ENDS
; Function compile flags: /Ogtpy
; File c:\users\alist_000\cppmisc\packages\visualcpptools.14.0.24629\lib\native\include\xlocale
;	COMDAT ?_Getfacet@locale@std@@QEBAPEBVfacet@12@_K@Z
_TEXT	SEGMENT
this$ = 48
_Id$ = 56
?_Getfacet@locale@std@@QEBAPEBVfacet@12@_K@Z PROC	; std::locale::_Getfacet, COMDAT

; 436  : 		{	// look up a facet in locale object

$LN12:
  00000	48 89 5c 24 08	 mov	 QWORD PTR [rsp+8], rbx
  00005	57		 push	 rdi
  00006	48 83 ec 20	 sub	 rsp, 32			; 00000020H
  0000a	48 8b da	 mov	 rbx, rdx

; 437  : 		const facet *_Facptr = _Id < _Ptr->_Facetcount

  0000d	33 ff		 xor	 edi, edi
  0000f	48 8b 51 08	 mov	 rdx, QWORD PTR [rcx+8]
  00013	48 3b 5a 18	 cmp	 rbx, QWORD PTR [rdx+24]
  00017	73 0f		 jae	 SHORT $LN6@Getfacet
  00019	48 8b 42 10	 mov	 rax, QWORD PTR [rdx+16]
  0001d	48 8b 04 d8	 mov	 rax, QWORD PTR [rax+rbx*8]

; 438  : 			? _Ptr->_Facetvec[_Id] : 0;	// null if id off end
; 439  : 		if (_Facptr != 0 || !_Ptr->_Xparent)

  00021	48 85 c0	 test	 rax, rax
  00024	75 21		 jne	 SHORT $LN4@Getfacet
  00026	eb 03		 jmp	 SHORT $LN10@Getfacet
$LN6@Getfacet:

; 437  : 		const facet *_Facptr = _Id < _Ptr->_Facetcount

  00028	48 8b c7	 mov	 rax, rdi
$LN10@Getfacet:

; 438  : 			? _Ptr->_Facetvec[_Id] : 0;	// null if id off end
; 439  : 		if (_Facptr != 0 || !_Ptr->_Xparent)

  0002b	40 38 7a 24	 cmp	 BYTE PTR [rdx+36], dil
  0002f	74 16		 je	 SHORT $LN4@Getfacet

; 440  : 			return (_Facptr);	// found facet or not transparent
; 441  : 		else
; 442  : 			{	// look in current locale
; 443  : 			locale::_Locimp *_Ptr0 = _Getgloballocale();

  00031	e8 00 00 00 00	 call	 ?_Getgloballocale@locale@std@@CAPEAV_Locimp@12@XZ ; std::locale::_Getgloballocale

; 444  : 			return (_Id < _Ptr0->_Facetcount

  00036	48 3b 58 18	 cmp	 rbx, QWORD PTR [rax+24]
  0003a	73 08		 jae	 SHORT $LN8@Getfacet
  0003c	48 8b 40 10	 mov	 rax, QWORD PTR [rax+16]
  00040	48 8b 3c d8	 mov	 rdi, QWORD PTR [rax+rbx*8]
$LN8@Getfacet:
  00044	48 8b c7	 mov	 rax, rdi
$LN4@Getfacet:

; 445  : 				? _Ptr0->_Facetvec[_Id]	// get from current locale
; 446  : 				: 0);	// no entry in current locale
; 447  : 			}
; 448  : 		}

  00047	48 8b 5c 24 30	 mov	 rbx, QWORD PTR [rsp+48]
  0004c	48 83 c4 20	 add	 rsp, 32			; 00000020H
  00050	5f		 pop	 rdi
  00051	c3		 ret	 0
?_Getfacet@locale@std@@QEBAPEBVfacet@12@_K@Z ENDP	; std::locale::_Getfacet
_TEXT	ENDS
; Function compile flags: /Ogtpy
; File c:\users\alist_000\cppmisc\packages\visualcpptools.14.0.24629\lib\native\include\xfacet
;	COMDAT ??_Gfacet@locale@std@@MEAAPEAXI@Z
_TEXT	SEGMENT
this$ = 48
__flags$ = 56
??_Gfacet@locale@std@@MEAAPEAXI@Z PROC			; std::locale::facet::`scalar deleting destructor', COMDAT
$LN12:
  00000	40 53		 push	 rbx
  00002	48 83 ec 20	 sub	 rsp, 32			; 00000020H

; 24   : 		{	// ensure that derived classes can be destroyed properly

  00006	48 8d 05 00 00
	00 00		 lea	 rax, OFFSET FLAT:??_7_Facet_base@std@@6B@
  0000d	48 8b d9	 mov	 rbx, rcx
  00010	48 89 01	 mov	 QWORD PTR [rcx], rax
  00013	f6 c2 01	 test	 dl, 1
  00016	74 0a		 je	 SHORT $LN10@scalar
  00018	ba 10 00 00 00	 mov	 edx, 16
  0001d	e8 00 00 00 00	 call	 ??3@YAXPEAX_K@Z		; operator delete
$LN10@scalar:
  00022	48 8b c3	 mov	 rax, rbx
  00025	48 83 c4 20	 add	 rsp, 32			; 00000020H
  00029	5b		 pop	 rbx
  0002a	c3		 ret	 0
??_Gfacet@locale@std@@MEAAPEAXI@Z ENDP			; std::locale::facet::`scalar deleting destructor'
_TEXT	ENDS
; Function compile flags: /Ogtpy
;	COMDAT ??0_Facet_base@std@@QEAA@XZ
_TEXT	SEGMENT
this$ = 8
??0_Facet_base@std@@QEAA@XZ PROC			; std::_Facet_base::_Facet_base, COMDAT
  00000	48 8d 05 00 00
	00 00		 lea	 rax, OFFSET FLAT:??_7_Facet_base@std@@6B@
  00007	48 89 01	 mov	 QWORD PTR [rcx], rax
  0000a	48 8b c1	 mov	 rax, rcx
  0000d	c3		 ret	 0
??0_Facet_base@std@@QEAA@XZ ENDP			; std::_Facet_base::_Facet_base
_TEXT	ENDS
; Function compile flags: /Ogtpy
; File c:\users\alist_000\cppmisc\packages\visualcpptools.14.0.24629\lib\native\include\xlocale
;	COMDAT ??0ctype_base@std@@QEAA@_K@Z
_TEXT	SEGMENT
this$ = 8
_Refs$ = 16
??0ctype_base@std@@QEAA@_K@Z PROC			; std::ctype_base::ctype_base, COMDAT

; 2055 : 		{	// default constructor

  00000	48 8d 05 00 00
	00 00		 lea	 rax, OFFSET FLAT:??_7ctype_base@std@@6B@

; 166  : 			: _Myrefs(static_cast<_Atomic_integral_t>(_Initrefs))	// non-atomic initialization

  00007	89 51 08	 mov	 DWORD PTR [rcx+8], edx

; 2055 : 		{	// default constructor

  0000a	48 89 01	 mov	 QWORD PTR [rcx], rax

; 2056 : 		}

  0000d	48 8b c1	 mov	 rax, rcx
  00010	c3		 ret	 0
??0ctype_base@std@@QEAA@_K@Z ENDP			; std::ctype_base::ctype_base
_TEXT	ENDS
; Function compile flags: /Ogtpy
; File c:\users\alist_000\cppmisc\packages\visualcpptools.14.0.24629\lib\native\include\xlocale
; File c:\users\alist_000\cppmisc\packages\visualcpptools.14.0.24629\lib\native\include\xfacet
; File c:\users\alist_000\cppmisc\packages\visualcpptools.14.0.24629\lib\native\include\xlocale
;	COMDAT ??1ctype_base@std@@UEAA@XZ
_TEXT	SEGMENT
this$ = 8
??1ctype_base@std@@UEAA@XZ PROC				; std::ctype_base::~ctype_base, COMDAT
; File c:\users\alist_000\cppmisc\packages\visualcpptools.14.0.24629\lib\native\include\xfacet

; 24   : 		{	// ensure that derived classes can be destroyed properly

  00000	48 8d 05 00 00
	00 00		 lea	 rax, OFFSET FLAT:??_7_Facet_base@std@@6B@
  00007	48 89 01	 mov	 QWORD PTR [rcx], rax
; File c:\users\alist_000\cppmisc\packages\visualcpptools.14.0.24629\lib\native\include\xlocale

; 2060 : 		}

  0000a	c3		 ret	 0
??1ctype_base@std@@UEAA@XZ ENDP				; std::ctype_base::~ctype_base
_TEXT	ENDS
; Function compile flags: /Ogtpy
; File c:\users\alist_000\cppmisc\packages\visualcpptools.14.0.24629\lib\native\include\xfacet
;	COMDAT ??_Gctype_base@std@@UEAAPEAXI@Z
_TEXT	SEGMENT
this$ = 48
__flags$ = 56
??_Gctype_base@std@@UEAAPEAXI@Z PROC			; std::ctype_base::`scalar deleting destructor', COMDAT
$LN15:
  00000	40 53		 push	 rbx
  00002	48 83 ec 20	 sub	 rsp, 32			; 00000020H

; 24   : 		{	// ensure that derived classes can be destroyed properly

  00006	48 8d 05 00 00
	00 00		 lea	 rax, OFFSET FLAT:??_7_Facet_base@std@@6B@
  0000d	48 8b d9	 mov	 rbx, rcx
  00010	48 89 01	 mov	 QWORD PTR [rcx], rax
  00013	f6 c2 01	 test	 dl, 1
  00016	74 0a		 je	 SHORT $LN13@scalar
  00018	ba 10 00 00 00	 mov	 edx, 16
  0001d	e8 00 00 00 00	 call	 ??3@YAXPEAX_K@Z		; operator delete
$LN13@scalar:
  00022	48 8b c3	 mov	 rax, rbx
  00025	48 83 c4 20	 add	 rsp, 32			; 00000020H
  00029	5b		 pop	 rbx
  0002a	c3		 ret	 0
??_Gctype_base@std@@UEAAPEAXI@Z ENDP			; std::ctype_base::`scalar deleting destructor'
_TEXT	ENDS
; Function compile flags: /Ogtpy
; File c:\users\alist_000\cppmisc\packages\visualcpptools.14.0.24629\lib\native\include\xlocale
;	COMDAT ?widen@?$ctype@D@std@@QEBADD@Z
_TEXT	SEGMENT
this$ = 48
_Byte$ = 56
?widen@?$ctype@D@std@@QEBADD@Z PROC			; std::ctype<char>::widen, COMDAT

; 2367 : 		{	// widen char

$LN8:
  00000	48 83 ec 28	 sub	 rsp, 40			; 00000028H
  00004	48 8b 01	 mov	 rax, QWORD PTR [rcx]
  00007	4c 8d 05 00 00
	00 00		 lea	 r8, OFFSET FLAT:??_7?$ctype@D@std@@6B@
  0000e	49 3b c0	 cmp	 rax, r8
  00011	75 0d		 jne	 SHORT $LN7@widen

; 2368 : 		return (do_widen(_Byte));

  00013	0f b6 c2	 movzx	 eax, dl

; 2369 : 		}

  00016	48 83 c4 28	 add	 rsp, 40			; 00000028H
  0001a	c3		 ret	 0
$LN3@widen:
  0001b	48 83 c4 28	 add	 rsp, 40			; 00000028H
  0001f	c3		 ret	 0
$LN7@widen:

; 2368 : 		return (do_widen(_Byte));

  00020	ff 50 40	 call	 QWORD PTR [rax+64]
  00023	eb f6		 jmp	 SHORT $LN3@widen
?widen@?$ctype@D@std@@QEBADD@Z ENDP			; std::ctype<char>::widen
_TEXT	ENDS
; Function compile flags: /Ogtpy
; File c:\users\alist_000\cppmisc\packages\visualcpptools.14.0.24629\lib\native\include\xlocale
; File c:\users\alist_000\cppmisc\packages\visualcpptools.14.0.24629\lib\native\include\xlocinfo
; File c:\users\alist_000\cppmisc\packages\visualcpptools.14.0.24629\lib\native\include\xlocale
;	COMDAT ??0?$ctype@D@std@@QEAA@AEBV_Locinfo@1@_K@Z
_TEXT	SEGMENT
$T1 = 32
this$ = 80
_Lobj$ = 88
_Refs$ = 96
??0?$ctype@D@std@@QEAA@AEBV_Locinfo@1@_K@Z PROC		; std::ctype<char>::ctype<char>, COMDAT

; 2414 : 		{	// construct from current locale

$LN15:
  00000	40 53		 push	 rbx
  00002	48 83 ec 40	 sub	 rsp, 64			; 00000040H
  00006	48 8d 05 00 00
	00 00		 lea	 rax, OFFSET FLAT:??_7?$ctype@D@std@@6B@

; 166  : 			: _Myrefs(static_cast<_Atomic_integral_t>(_Initrefs))	// non-atomic initialization

  0000d	44 89 41 08	 mov	 DWORD PTR [rcx+8], r8d

; 2414 : 		{	// construct from current locale

  00011	48 89 01	 mov	 QWORD PTR [rcx], rax
  00014	48 8b d9	 mov	 rbx, rcx
; File c:\users\alist_000\cppmisc\packages\visualcpptools.14.0.24629\lib\native\include\xlocinfo

; 117  : 		return (::_Getctype());

  00017	48 8d 4c 24 20	 lea	 rcx, QWORD PTR $T1[rsp]
  0001c	e8 00 00 00 00	 call	 _Getctype
; File c:\users\alist_000\cppmisc\packages\visualcpptools.14.0.24629\lib\native\include\xlocale

; 2449 : 		_Ctype = _Lobj._Getctype();

  00021	0f 10 00	 movups	 xmm0, XMMWORD PTR [rax]
  00024	0f 11 43 10	 movups	 XMMWORD PTR [rbx+16], xmm0
  00028	0f 10 48 10	 movups	 xmm1, XMMWORD PTR [rax+16]

; 2415 : 		_Init(_Lobj);
; 2416 : 		}

  0002c	48 8b c3	 mov	 rax, rbx

; 2449 : 		_Ctype = _Lobj._Getctype();

  0002f	0f 11 4b 20	 movups	 XMMWORD PTR [rbx+32], xmm1

; 2415 : 		_Init(_Lobj);
; 2416 : 		}

  00033	48 83 c4 40	 add	 rsp, 64			; 00000040H
  00037	5b		 pop	 rbx
  00038	c3		 ret	 0
??0?$ctype@D@std@@QEAA@AEBV_Locinfo@1@_K@Z ENDP		; std::ctype<char>::ctype<char>
_TEXT	ENDS
; Function compile flags: /Ogtpy
; File c:\users\alist_000\cppmisc\packages\visualcpptools.14.0.24629\lib\native\include\xlocale
; File c:\users\alist_000\cppmisc\packages\visualcpptools.14.0.24629\lib\native\include\xutility
; File c:\users\alist_000\cppmisc\packages\visualcpptools.14.0.24629\lib\native\include\xlocinfo
; File c:\users\alist_000\cppmisc\packages\visualcpptools.14.0.24629\lib\native\include\xutility
; File c:\users\alist_000\cppmisc\packages\visualcpptools.14.0.24629\lib\native\include\xlocinfo
; File c:\users\alist_000\cppmisc\packages\visualcpptools.14.0.24629\lib\native\include\xlocale
; File c:\users\alist_000\cppmisc\packages\visualcpptools.14.0.24629\lib\native\include\xlocinfo
; File c:\users\alist_000\cppmisc\packages\visualcpptools.14.0.24629\lib\native\include\xlocale
;	COMDAT ?_Getcat@?$ctype@D@std@@SA_KPEAPEBVfacet@locale@2@PEBV42@@Z
_TEXT	SEGMENT
$T1 = 32
$T2 = 144
$T3 = 144
$T4 = 192
$T5 = 192
_Ppf$ = 192
_Ploc$ = 200
?_Getcat@?$ctype@D@std@@SA_KPEAPEBVfacet@locale@2@PEBV42@@Z PROC ; std::ctype<char>::_Getcat, COMDAT

; 2420 : 		{	// return locale category mask and construct standard facet

$LN55:
  00000	48 8b c4	 mov	 rax, rsp
  00003	57		 push	 rdi
  00004	48 81 ec b0 00
	00 00		 sub	 rsp, 176		; 000000b0H
  0000b	48 c7 40 d0 fe
	ff ff ff	 mov	 QWORD PTR [rax-48], -2
  00013	48 89 58 10	 mov	 QWORD PTR [rax+16], rbx
  00017	48 89 68 18	 mov	 QWORD PTR [rax+24], rbp
  0001b	48 89 70 20	 mov	 QWORD PTR [rax+32], rsi
  0001f	48 8b da	 mov	 rbx, rdx
  00022	48 8b f9	 mov	 rdi, rcx
  00025	33 ed		 xor	 ebp, ebp
  00027	89 ac 24 c0 00
	00 00		 mov	 DWORD PTR $T4[rsp], ebp

; 2421 : 		if (_Ppf != 0 && *_Ppf == 0)

  0002e	48 85 c9	 test	 rcx, rcx
  00031	0f 84 f9 00 00
	00		 je	 $LN9@Getcat
  00037	48 39 29	 cmp	 QWORD PTR [rcx], rbp
  0003a	0f 85 f0 00 00
	00		 jne	 $LN9@Getcat

; 2422 : 			*_Ppf = new ctype<_Elem>(

  00040	8d 4d 30	 lea	 ecx, QWORD PTR [rbp+48]
  00043	e8 00 00 00 00	 call	 ??2@YAPEAX_K@Z		; operator new
  00048	48 8b f0	 mov	 rsi, rax
  0004b	48 89 84 24 c0
	00 00 00	 mov	 QWORD PTR $T5[rsp], rax

; 432  : 		return (_Ptr == 0 ? "" : _Ptr->_Name.c_str());

  00053	48 8b 4b 08	 mov	 rcx, QWORD PTR [rbx+8]
  00057	48 85 c9	 test	 rcx, rcx
  0005a	75 09		 jne	 SHORT $LN12@Getcat
  0005c	48 8d 1d 00 00
	00 00		 lea	 rbx, OFFSET FLAT:??_C@_00CNPNBAHC@?$AA@
  00063	eb 0d		 jmp	 SHORT $LN17@Getcat
$LN12@Getcat:
; File c:\users\alist_000\cppmisc\packages\visualcpptools.14.0.24629\lib\native\include\xutility

; 3701 : 		return (_Myptr != 0 ? _Myptr : &_Nul);

  00065	48 8b 59 28	 mov	 rbx, QWORD PTR [rcx+40]
  00069	48 85 db	 test	 rbx, rbx
  0006c	75 04		 jne	 SHORT $LN17@Getcat
  0006e	48 8d 59 30	 lea	 rbx, QWORD PTR [rcx+48]
$LN17@Getcat:
; File c:\users\alist_000\cppmisc\packages\visualcpptools.14.0.24629\lib\native\include\xlocinfo

; 73   : 		: _Lock(_LOCK_LOCALE)

  00072	33 d2		 xor	 edx, edx
  00074	48 8d 4c 24 20	 lea	 rcx, QWORD PTR $T1[rsp]
  00079	e8 00 00 00 00	 call	 ??0_Lockit@std@@QEAA@H@Z ; std::_Lockit::_Lockit
  0007e	90		 npad	 1
; File c:\users\alist_000\cppmisc\packages\visualcpptools.14.0.24629\lib\native\include\xutility

; 3639 : 		: _Myptr(0), _Nul(0)

  0007f	48 89 6c 24 28	 mov	 QWORD PTR $T1[rsp+8], rbp
  00084	c6 44 24 30 00	 mov	 BYTE PTR $T1[rsp+16], 0
  00089	48 89 6c 24 38	 mov	 QWORD PTR $T1[rsp+24], rbp
  0008e	c6 44 24 40 00	 mov	 BYTE PTR $T1[rsp+32], 0
  00093	48 89 6c 24 48	 mov	 QWORD PTR $T1[rsp+40], rbp
  00098	66 89 6c 24 50	 mov	 WORD PTR $T1[rsp+48], bp
  0009d	48 89 6c 24 58	 mov	 QWORD PTR $T1[rsp+56], rbp
  000a2	66 89 6c 24 60	 mov	 WORD PTR $T1[rsp+64], bp
  000a7	48 89 6c 24 68	 mov	 QWORD PTR $T1[rsp+72], rbp
  000ac	c6 44 24 70 00	 mov	 BYTE PTR $T1[rsp+80], 0
  000b1	48 89 6c 24 78	 mov	 QWORD PTR $T1[rsp+88], rbp
  000b6	c6 84 24 80 00
	00 00 00	 mov	 BYTE PTR $T1[rsp+96], 0
; File c:\users\alist_000\cppmisc\packages\visualcpptools.14.0.24629\lib\native\include\xlocinfo

; 77   : 		if (_Pch == 0)

  000be	48 85 db	 test	 rbx, rbx
  000c1	75 29		 jne	 SHORT $LN19@Getcat

; 78   : 			_THROW_NCEE(runtime_error, "bad locale name");

  000c3	48 8d 15 00 00
	00 00		 lea	 rdx, OFFSET FLAT:??_C@_0BA@ELKIONDK@bad?5locale?5name?$AA@
  000ca	48 8d 8c 24 90
	00 00 00	 lea	 rcx, QWORD PTR $T3[rsp]
  000d2	e8 00 00 00 00	 call	 ??0runtime_error@std@@QEAA@PEBD@Z ; std::runtime_error::runtime_error
  000d7	48 8d 15 00 00
	00 00		 lea	 rdx, OFFSET FLAT:_TI2?AVruntime_error@std@@
  000de	48 8d 8c 24 90
	00 00 00	 lea	 rcx, QWORD PTR $T3[rsp]
  000e6	e8 00 00 00 00	 call	 _CxxThrowException
  000eb	cc		 int	 3
$LN19@Getcat:

; 79   : 		_Locinfo_ctor(this, _Pch);

  000ec	48 8b d3	 mov	 rdx, rbx
  000ef	48 8d 4c 24 20	 lea	 rcx, QWORD PTR $T1[rsp]
  000f4	e8 00 00 00 00	 call	 ?_Locinfo_ctor@_Locinfo@std@@SAXPEAV12@PEBD@Z ; std::_Locinfo::_Locinfo_ctor
  000f9	90		 npad	 1
; File c:\users\alist_000\cppmisc\packages\visualcpptools.14.0.24629\lib\native\include\xlocale

; 166  : 			: _Myrefs(static_cast<_Atomic_integral_t>(_Initrefs))	// non-atomic initialization

  000fa	89 6e 08	 mov	 DWORD PTR [rsi+8], ebp

; 2414 : 		{	// construct from current locale

  000fd	48 8d 05 00 00
	00 00		 lea	 rax, OFFSET FLAT:??_7?$ctype@D@std@@6B@
  00104	48 89 06	 mov	 QWORD PTR [rsi], rax
; File c:\users\alist_000\cppmisc\packages\visualcpptools.14.0.24629\lib\native\include\xlocinfo

; 117  : 		return (::_Getctype());

  00107	48 8d 8c 24 90
	00 00 00	 lea	 rcx, QWORD PTR $T2[rsp]
  0010f	e8 00 00 00 00	 call	 _Getctype
; File c:\users\alist_000\cppmisc\packages\visualcpptools.14.0.24629\lib\native\include\xlocale

; 2449 : 		_Ctype = _Lobj._Getctype();

  00114	0f 10 00	 movups	 xmm0, XMMWORD PTR [rax]
  00117	0f 11 46 10	 movups	 XMMWORD PTR [rsi+16], xmm0
  0011b	0f 10 48 10	 movups	 xmm1, XMMWORD PTR [rax+16]
  0011f	0f 11 4e 20	 movups	 XMMWORD PTR [rsi+32], xmm1

; 2422 : 			*_Ppf = new ctype<_Elem>(

  00123	48 89 37	 mov	 QWORD PTR [rdi], rsi
  00126	48 8d 4c 24 20	 lea	 rcx, QWORD PTR $T1[rsp]
  0012b	e8 00 00 00 00	 call	 ??1_Locinfo@std@@QEAA@XZ ; std::_Locinfo::~_Locinfo
$LN9@Getcat:

; 2423 : 				_Locinfo(_Ploc->c_str()));
; 2424 : 		return (_X_CTYPE);

  00130	b8 02 00 00 00	 mov	 eax, 2

; 2425 : 		}

  00135	4c 8d 9c 24 b0
	00 00 00	 lea	 r11, QWORD PTR [rsp+176]
  0013d	49 8b 5b 18	 mov	 rbx, QWORD PTR [r11+24]
  00141	49 8b 6b 20	 mov	 rbp, QWORD PTR [r11+32]
  00145	49 8b 73 28	 mov	 rsi, QWORD PTR [r11+40]
  00149	49 8b e3	 mov	 rsp, r11
  0014c	5f		 pop	 rdi
  0014d	c3		 ret	 0
$LN54@Getcat:
?_Getcat@?$ctype@D@std@@SA_KPEAPEBVfacet@locale@2@PEBV42@@Z ENDP ; std::ctype<char>::_Getcat
_TEXT	ENDS
;	COMDAT text$x
text$x	SEGMENT
$T1 = 32
$T2 = 144
$T3 = 144
$T4 = 192
$T5 = 192
_Ppf$ = 192
_Ploc$ = 200
?dtor$0@?0??_Getcat@?$ctype@D@std@@SA_KPEAPEBVfacet@locale@2@PEBV42@@Z@4HA PROC ; `std::ctype<char>::_Getcat'::`1'::dtor$0
  00000	40 55		 push	 rbp
  00002	48 83 ec 20	 sub	 rsp, 32			; 00000020H
  00006	48 8b ea	 mov	 rbp, rdx
  00009	ba 30 00 00 00	 mov	 edx, 48			; 00000030H
  0000e	48 8b 8d c0 00
	00 00		 mov	 rcx, QWORD PTR $T5[rbp]
  00015	e8 00 00 00 00	 call	 ??3@YAXPEAX_K@Z		; operator delete
  0001a	48 83 c4 20	 add	 rsp, 32			; 00000020H
  0001e	5d		 pop	 rbp
  0001f	c3		 ret	 0
?dtor$0@?0??_Getcat@?$ctype@D@std@@SA_KPEAPEBVfacet@locale@2@PEBV42@@Z@4HA ENDP ; `std::ctype<char>::_Getcat'::`1'::dtor$0
$T1 = 32
$T2 = 144
$T3 = 144
$T4 = 192
$T5 = 192
_Ppf$ = 192
_Ploc$ = 200
?dtor$2@?0??_Getcat@?$ctype@D@std@@SA_KPEAPEBVfacet@locale@2@PEBV42@@Z@4HA PROC ; `std::ctype<char>::_Getcat'::`1'::dtor$2
  00020	48 8d 8a 20 00
	00 00		 lea	 rcx, QWORD PTR $T1[rdx]
  00027	e9 00 00 00 00	 jmp	 ??1_Lockit@std@@QEAA@XZ	; std::_Lockit::~_Lockit
?dtor$2@?0??_Getcat@?$ctype@D@std@@SA_KPEAPEBVfacet@locale@2@PEBV42@@Z@4HA ENDP ; `std::ctype<char>::_Getcat'::`1'::dtor$2
$T1 = 32
$T2 = 144
$T3 = 144
$T4 = 192
$T5 = 192
_Ppf$ = 192
_Ploc$ = 200
?dtor$3@?0??_Getcat@?$ctype@D@std@@SA_KPEAPEBVfacet@locale@2@PEBV42@@Z@4HA PROC ; `std::ctype<char>::_Getcat'::`1'::dtor$3
  0002c	48 8d 8a 20 00
	00 00		 lea	 rcx, QWORD PTR $T1[rdx]
  00033	48 83 c1 08	 add	 rcx, 8
  00037	e9 00 00 00 00	 jmp	 ??1?$_Yarn@D@std@@QEAA@XZ ; std::_Yarn<char>::~_Yarn<char>
?dtor$3@?0??_Getcat@?$ctype@D@std@@SA_KPEAPEBVfacet@locale@2@PEBV42@@Z@4HA ENDP ; `std::ctype<char>::_Getcat'::`1'::dtor$3
$T1 = 32
$T2 = 144
$T3 = 144
$T4 = 192
$T5 = 192
_Ppf$ = 192
_Ploc$ = 200
?dtor$4@?0??_Getcat@?$ctype@D@std@@SA_KPEAPEBVfacet@locale@2@PEBV42@@Z@4HA PROC ; `std::ctype<char>::_Getcat'::`1'::dtor$4
  0003c	48 8d 8a 20 00
	00 00		 lea	 rcx, QWORD PTR $T1[rdx]
  00043	48 83 c1 18	 add	 rcx, 24
  00047	e9 00 00 00 00	 jmp	 ??1?$_Yarn@D@std@@QEAA@XZ ; std::_Yarn<char>::~_Yarn<char>
?dtor$4@?0??_Getcat@?$ctype@D@std@@SA_KPEAPEBVfacet@locale@2@PEBV42@@Z@4HA ENDP ; `std::ctype<char>::_Getcat'::`1'::dtor$4
$T1 = 32
$T2 = 144
$T3 = 144
$T4 = 192
$T5 = 192
_Ppf$ = 192
_Ploc$ = 200
?dtor$5@?0??_Getcat@?$ctype@D@std@@SA_KPEAPEBVfacet@locale@2@PEBV42@@Z@4HA PROC ; `std::ctype<char>::_Getcat'::`1'::dtor$5
  0004c	48 8d 8a 20 00
	00 00		 lea	 rcx, QWORD PTR $T1[rdx]
  00053	48 83 c1 28	 add	 rcx, 40			; 00000028H
  00057	e9 00 00 00 00	 jmp	 ??1?$_Yarn@_W@std@@QEAA@XZ ; std::_Yarn<wchar_t>::~_Yarn<wchar_t>
?dtor$5@?0??_Getcat@?$ctype@D@std@@SA_KPEAPEBVfacet@locale@2@PEBV42@@Z@4HA ENDP ; `std::ctype<char>::_Getcat'::`1'::dtor$5
$T1 = 32
$T2 = 144
$T3 = 144
$T4 = 192
$T5 = 192
_Ppf$ = 192
_Ploc$ = 200
?dtor$6@?0??_Getcat@?$ctype@D@std@@SA_KPEAPEBVfacet@locale@2@PEBV42@@Z@4HA PROC ; `std::ctype<char>::_Getcat'::`1'::dtor$6
  0005c	48 8d 8a 20 00
	00 00		 lea	 rcx, QWORD PTR $T1[rdx]
  00063	48 83 c1 38	 add	 rcx, 56			; 00000038H
  00067	e9 00 00 00 00	 jmp	 ??1?$_Yarn@_W@std@@QEAA@XZ ; std::_Yarn<wchar_t>::~_Yarn<wchar_t>
?dtor$6@?0??_Getcat@?$ctype@D@std@@SA_KPEAPEBVfacet@locale@2@PEBV42@@Z@4HA ENDP ; `std::ctype<char>::_Getcat'::`1'::dtor$6
$T1 = 32
$T2 = 144
$T3 = 144
$T4 = 192
$T5 = 192
_Ppf$ = 192
_Ploc$ = 200
?dtor$7@?0??_Getcat@?$ctype@D@std@@SA_KPEAPEBVfacet@locale@2@PEBV42@@Z@4HA PROC ; `std::ctype<char>::_Getcat'::`1'::dtor$7
  0006c	48 8d 8a 20 00
	00 00		 lea	 rcx, QWORD PTR $T1[rdx]
  00073	48 83 c1 48	 add	 rcx, 72			; 00000048H
  00077	e9 00 00 00 00	 jmp	 ??1?$_Yarn@D@std@@QEAA@XZ ; std::_Yarn<char>::~_Yarn<char>
?dtor$7@?0??_Getcat@?$ctype@D@std@@SA_KPEAPEBVfacet@locale@2@PEBV42@@Z@4HA ENDP ; `std::ctype<char>::_Getcat'::`1'::dtor$7
$T1 = 32
$T2 = 144
$T3 = 144
$T4 = 192
$T5 = 192
_Ppf$ = 192
_Ploc$ = 200
?dtor$8@?0??_Getcat@?$ctype@D@std@@SA_KPEAPEBVfacet@locale@2@PEBV42@@Z@4HA PROC ; `std::ctype<char>::_Getcat'::`1'::dtor$8
  0007c	48 8d 8a 20 00
	00 00		 lea	 rcx, QWORD PTR $T1[rdx]
  00083	48 83 c1 58	 add	 rcx, 88			; 00000058H
  00087	e9 00 00 00 00	 jmp	 ??1?$_Yarn@D@std@@QEAA@XZ ; std::_Yarn<char>::~_Yarn<char>
?dtor$8@?0??_Getcat@?$ctype@D@std@@SA_KPEAPEBVfacet@locale@2@PEBV42@@Z@4HA ENDP ; `std::ctype<char>::_Getcat'::`1'::dtor$8
text$x	ENDS
; Function compile flags: /Ogtpy
;	COMDAT text$x
text$x	SEGMENT
$T1 = 32
$T2 = 144
$T3 = 144
$T4 = 192
$T5 = 192
_Ppf$ = 192
_Ploc$ = 200
?dtor$0@?0??_Getcat@?$ctype@D@std@@SA_KPEAPEBVfacet@locale@2@PEBV42@@Z@4HA PROC ; `std::ctype<char>::_Getcat'::`1'::dtor$0
  00000	40 55		 push	 rbp
  00002	48 83 ec 20	 sub	 rsp, 32			; 00000020H
  00006	48 8b ea	 mov	 rbp, rdx
  00009	ba 30 00 00 00	 mov	 edx, 48			; 00000030H
  0000e	48 8b 8d c0 00
	00 00		 mov	 rcx, QWORD PTR $T5[rbp]
  00015	e8 00 00 00 00	 call	 ??3@YAXPEAX_K@Z		; operator delete
  0001a	48 83 c4 20	 add	 rsp, 32			; 00000020H
  0001e	5d		 pop	 rbp
  0001f	c3		 ret	 0
?dtor$0@?0??_Getcat@?$ctype@D@std@@SA_KPEAPEBVfacet@locale@2@PEBV42@@Z@4HA ENDP ; `std::ctype<char>::_Getcat'::`1'::dtor$0
text$x	ENDS
; Function compile flags: /Ogtpy
;	COMDAT text$x
text$x	SEGMENT
$T1 = 32
$T2 = 144
$T3 = 144
$T4 = 192
$T5 = 192
_Ppf$ = 192
_Ploc$ = 200
?dtor$2@?0??_Getcat@?$ctype@D@std@@SA_KPEAPEBVfacet@locale@2@PEBV42@@Z@4HA PROC ; `std::ctype<char>::_Getcat'::`1'::dtor$2
  00020	48 8d 8a 20 00
	00 00		 lea	 rcx, QWORD PTR $T1[rdx]
  00027	e9 00 00 00 00	 jmp	 ??1_Lockit@std@@QEAA@XZ	; std::_Lockit::~_Lockit
?dtor$2@?0??_Getcat@?$ctype@D@std@@SA_KPEAPEBVfacet@locale@2@PEBV42@@Z@4HA ENDP ; `std::ctype<char>::_Getcat'::`1'::dtor$2
text$x	ENDS
; Function compile flags: /Ogtpy
;	COMDAT text$x
text$x	SEGMENT
$T1 = 32
$T2 = 144
$T3 = 144
$T4 = 192
$T5 = 192
_Ppf$ = 192
_Ploc$ = 200
?dtor$3@?0??_Getcat@?$ctype@D@std@@SA_KPEAPEBVfacet@locale@2@PEBV42@@Z@4HA PROC ; `std::ctype<char>::_Getcat'::`1'::dtor$3
  0002c	48 8d 8a 20 00
	00 00		 lea	 rcx, QWORD PTR $T1[rdx]
  00033	48 83 c1 08	 add	 rcx, 8
  00037	e9 00 00 00 00	 jmp	 ??1?$_Yarn@D@std@@QEAA@XZ ; std::_Yarn<char>::~_Yarn<char>
?dtor$3@?0??_Getcat@?$ctype@D@std@@SA_KPEAPEBVfacet@locale@2@PEBV42@@Z@4HA ENDP ; `std::ctype<char>::_Getcat'::`1'::dtor$3
text$x	ENDS
; Function compile flags: /Ogtpy
;	COMDAT text$x
text$x	SEGMENT
$T1 = 32
$T2 = 144
$T3 = 144
$T4 = 192
$T5 = 192
_Ppf$ = 192
_Ploc$ = 200
?dtor$4@?0??_Getcat@?$ctype@D@std@@SA_KPEAPEBVfacet@locale@2@PEBV42@@Z@4HA PROC ; `std::ctype<char>::_Getcat'::`1'::dtor$4
  0003c	48 8d 8a 20 00
	00 00		 lea	 rcx, QWORD PTR $T1[rdx]
  00043	48 83 c1 18	 add	 rcx, 24
  00047	e9 00 00 00 00	 jmp	 ??1?$_Yarn@D@std@@QEAA@XZ ; std::_Yarn<char>::~_Yarn<char>
?dtor$4@?0??_Getcat@?$ctype@D@std@@SA_KPEAPEBVfacet@locale@2@PEBV42@@Z@4HA ENDP ; `std::ctype<char>::_Getcat'::`1'::dtor$4
text$x	ENDS
; Function compile flags: /Ogtpy
;	COMDAT text$x
text$x	SEGMENT
$T1 = 32
$T2 = 144
$T3 = 144
$T4 = 192
$T5 = 192
_Ppf$ = 192
_Ploc$ = 200
?dtor$5@?0??_Getcat@?$ctype@D@std@@SA_KPEAPEBVfacet@locale@2@PEBV42@@Z@4HA PROC ; `std::ctype<char>::_Getcat'::`1'::dtor$5
  0004c	48 8d 8a 20 00
	00 00		 lea	 rcx, QWORD PTR $T1[rdx]
  00053	48 83 c1 28	 add	 rcx, 40			; 00000028H
  00057	e9 00 00 00 00	 jmp	 ??1?$_Yarn@_W@std@@QEAA@XZ ; std::_Yarn<wchar_t>::~_Yarn<wchar_t>
?dtor$5@?0??_Getcat@?$ctype@D@std@@SA_KPEAPEBVfacet@locale@2@PEBV42@@Z@4HA ENDP ; `std::ctype<char>::_Getcat'::`1'::dtor$5
text$x	ENDS
; Function compile flags: /Ogtpy
;	COMDAT text$x
text$x	SEGMENT
$T1 = 32
$T2 = 144
$T3 = 144
$T4 = 192
$T5 = 192
_Ppf$ = 192
_Ploc$ = 200
?dtor$6@?0??_Getcat@?$ctype@D@std@@SA_KPEAPEBVfacet@locale@2@PEBV42@@Z@4HA PROC ; `std::ctype<char>::_Getcat'::`1'::dtor$6
  0005c	48 8d 8a 20 00
	00 00		 lea	 rcx, QWORD PTR $T1[rdx]
  00063	48 83 c1 38	 add	 rcx, 56			; 00000038H
  00067	e9 00 00 00 00	 jmp	 ??1?$_Yarn@_W@std@@QEAA@XZ ; std::_Yarn<wchar_t>::~_Yarn<wchar_t>
?dtor$6@?0??_Getcat@?$ctype@D@std@@SA_KPEAPEBVfacet@locale@2@PEBV42@@Z@4HA ENDP ; `std::ctype<char>::_Getcat'::`1'::dtor$6
text$x	ENDS
; Function compile flags: /Ogtpy
;	COMDAT text$x
text$x	SEGMENT
$T1 = 32
$T2 = 144
$T3 = 144
$T4 = 192
$T5 = 192
_Ppf$ = 192
_Ploc$ = 200
?dtor$7@?0??_Getcat@?$ctype@D@std@@SA_KPEAPEBVfacet@locale@2@PEBV42@@Z@4HA PROC ; `std::ctype<char>::_Getcat'::`1'::dtor$7
  0006c	48 8d 8a 20 00
	00 00		 lea	 rcx, QWORD PTR $T1[rdx]
  00073	48 83 c1 48	 add	 rcx, 72			; 00000048H
  00077	e9 00 00 00 00	 jmp	 ??1?$_Yarn@D@std@@QEAA@XZ ; std::_Yarn<char>::~_Yarn<char>
?dtor$7@?0??_Getcat@?$ctype@D@std@@SA_KPEAPEBVfacet@locale@2@PEBV42@@Z@4HA ENDP ; `std::ctype<char>::_Getcat'::`1'::dtor$7
text$x	ENDS
; Function compile flags: /Ogtpy
;	COMDAT text$x
text$x	SEGMENT
$T1 = 32
$T2 = 144
$T3 = 144
$T4 = 192
$T5 = 192
_Ppf$ = 192
_Ploc$ = 200
?dtor$8@?0??_Getcat@?$ctype@D@std@@SA_KPEAPEBVfacet@locale@2@PEBV42@@Z@4HA PROC ; `std::ctype<char>::_Getcat'::`1'::dtor$8
  0007c	48 8d 8a 20 00
	00 00		 lea	 rcx, QWORD PTR $T1[rdx]
  00083	48 83 c1 58	 add	 rcx, 88			; 00000058H
  00087	e9 00 00 00 00	 jmp	 ??1?$_Yarn@D@std@@QEAA@XZ ; std::_Yarn<char>::~_Yarn<char>
?dtor$8@?0??_Getcat@?$ctype@D@std@@SA_KPEAPEBVfacet@locale@2@PEBV42@@Z@4HA ENDP ; `std::ctype<char>::_Getcat'::`1'::dtor$8
text$x	ENDS
; Function compile flags: /Ogtpy
; File c:\users\alist_000\cppmisc\packages\visualcpptools.14.0.24629\lib\native\include\xlocale
; File c:\users\alist_000\cppmisc\packages\visualcpptools.14.0.24629\lib\native\include\xfacet
; File c:\users\alist_000\cppmisc\packages\visualcpptools.14.0.24629\lib\native\include\xlocale
;	COMDAT ??1?$ctype@D@std@@MEAA@XZ
_TEXT	SEGMENT
this$ = 48
??1?$ctype@D@std@@MEAA@XZ PROC				; std::ctype<char>::~ctype<char>, COMDAT

; 2443 : 		{	// destroy the object

$LN19:
  00000	40 53		 push	 rbx
  00002	48 83 ec 20	 sub	 rsp, 32			; 00000020H
  00006	48 8d 05 00 00
	00 00		 lea	 rax, OFFSET FLAT:??_7?$ctype@D@std@@6B@
  0000d	48 8b d9	 mov	 rbx, rcx
  00010	48 89 01	 mov	 QWORD PTR [rcx], rax

; 2454 : 		if (0 < _Ctype._Delfl)

  00013	8b 41 20	 mov	 eax, DWORD PTR [rcx+32]
  00016	85 c0		 test	 eax, eax
  00018	7e 0b		 jle	 SHORT $LN17@ctype

; 2455 : 			_CSTD free((void *)_Ctype._Table);

  0001a	48 8b 49 18	 mov	 rcx, QWORD PTR [rcx+24]
  0001e	e8 00 00 00 00	 call	 free
  00023	eb 0b		 jmp	 SHORT $LN6@ctype
$LN17@ctype:

; 2456 : 		else if (_Ctype._Delfl < 0)

  00025	79 09		 jns	 SHORT $LN6@ctype

; 2457 : 			delete[] _Ctype._Table;

  00027	48 8b 49 18	 mov	 rcx, QWORD PTR [rcx+24]
  0002b	e8 00 00 00 00	 call	 ??_V@YAXPEAX@Z		; operator delete[]
$LN6@ctype:

; 2458 : 
; 2459 : 		_CSTD free(_Ctype._LocaleName);

  00030	48 8b 4b 28	 mov	 rcx, QWORD PTR [rbx+40]
  00034	e8 00 00 00 00	 call	 free
; File c:\users\alist_000\cppmisc\packages\visualcpptools.14.0.24629\lib\native\include\xfacet

; 24   : 		{	// ensure that derived classes can be destroyed properly

  00039	48 8d 05 00 00
	00 00		 lea	 rax, OFFSET FLAT:??_7_Facet_base@std@@6B@
  00040	48 89 03	 mov	 QWORD PTR [rbx], rax
; File c:\users\alist_000\cppmisc\packages\visualcpptools.14.0.24629\lib\native\include\xlocale

; 2445 : 		}

  00043	48 83 c4 20	 add	 rsp, 32			; 00000020H
  00047	5b		 pop	 rbx
  00048	c3		 ret	 0
??1?$ctype@D@std@@MEAA@XZ ENDP				; std::ctype<char>::~ctype<char>
_TEXT	ENDS
; Function compile flags: /Ogtpy
; File c:\users\alist_000\cppmisc\packages\visualcpptools.14.0.24629\lib\native\include\xlocale
; File c:\users\alist_000\cppmisc\packages\visualcpptools.14.0.24629\lib\native\include\xlocinfo
; File c:\users\alist_000\cppmisc\packages\visualcpptools.14.0.24629\lib\native\include\xlocale
;	COMDAT ?_Init@?$ctype@D@std@@IEAAXAEBV_Locinfo@2@@Z
_TEXT	SEGMENT
$T1 = 32
this$ = 80
_Lobj$ = 88
?_Init@?$ctype@D@std@@IEAAXAEBV_Locinfo@2@@Z PROC	; std::ctype<char>::_Init, COMDAT

; 2448 : 		{	// initialize from _Lobj

$LN6:
  00000	40 53		 push	 rbx
  00002	48 83 ec 40	 sub	 rsp, 64			; 00000040H
  00006	48 8b d9	 mov	 rbx, rcx
; File c:\users\alist_000\cppmisc\packages\visualcpptools.14.0.24629\lib\native\include\xlocinfo

; 117  : 		return (::_Getctype());

  00009	48 8d 4c 24 20	 lea	 rcx, QWORD PTR $T1[rsp]
  0000e	e8 00 00 00 00	 call	 _Getctype
; File c:\users\alist_000\cppmisc\packages\visualcpptools.14.0.24629\lib\native\include\xlocale

; 2449 : 		_Ctype = _Lobj._Getctype();

  00013	0f 10 00	 movups	 xmm0, XMMWORD PTR [rax]
  00016	0f 11 43 10	 movups	 XMMWORD PTR [rbx+16], xmm0
  0001a	0f 10 48 10	 movups	 xmm1, XMMWORD PTR [rax+16]
  0001e	0f 11 4b 20	 movups	 XMMWORD PTR [rbx+32], xmm1

; 2450 : 		}

  00022	48 83 c4 40	 add	 rsp, 64			; 00000040H
  00026	5b		 pop	 rbx
  00027	c3		 ret	 0
?_Init@?$ctype@D@std@@IEAAXAEBV_Locinfo@2@@Z ENDP	; std::ctype<char>::_Init
_TEXT	ENDS
; Function compile flags: /Ogtpy
; File c:\users\alist_000\cppmisc\packages\visualcpptools.14.0.24629\lib\native\include\xlocale
;	COMDAT ?_Tidy@?$ctype@D@std@@IEAAXXZ
_TEXT	SEGMENT
this$ = 48
?_Tidy@?$ctype@D@std@@IEAAXXZ PROC			; std::ctype<char>::_Tidy, COMDAT

; 2453 : 		{	// free any allocated storage

$LN8:
  00000	40 53		 push	 rbx
  00002	48 83 ec 20	 sub	 rsp, 32			; 00000020H

; 2454 : 		if (0 < _Ctype._Delfl)

  00006	8b 41 20	 mov	 eax, DWORD PTR [rcx+32]
  00009	48 8b d9	 mov	 rbx, rcx
  0000c	85 c0		 test	 eax, eax
  0000e	7e 17		 jle	 SHORT $LN6@Tidy

; 2455 : 			_CSTD free((void *)_Ctype._Table);

  00010	48 8b 49 18	 mov	 rcx, QWORD PTR [rcx+24]
  00014	e8 00 00 00 00	 call	 free

; 2458 : 
; 2459 : 		_CSTD free(_Ctype._LocaleName);

  00019	48 8b 4b 28	 mov	 rcx, QWORD PTR [rbx+40]

; 2460 : 		}

  0001d	48 83 c4 20	 add	 rsp, 32			; 00000020H
  00021	5b		 pop	 rbx

; 2458 : 
; 2459 : 		_CSTD free(_Ctype._LocaleName);

  00022	e9 00 00 00 00	 jmp	 free
$LN6@Tidy:

; 2456 : 		else if (_Ctype._Delfl < 0)

  00027	79 09		 jns	 SHORT $LN4@Tidy

; 2457 : 			delete[] _Ctype._Table;

  00029	48 8b 49 18	 mov	 rcx, QWORD PTR [rcx+24]
  0002d	e8 00 00 00 00	 call	 ??_V@YAXPEAX@Z		; operator delete[]
$LN4@Tidy:

; 2458 : 
; 2459 : 		_CSTD free(_Ctype._LocaleName);

  00032	48 8b 4b 28	 mov	 rcx, QWORD PTR [rbx+40]

; 2460 : 		}

  00036	48 83 c4 20	 add	 rsp, 32			; 00000020H
  0003a	5b		 pop	 rbx

; 2458 : 
