; Listing generated by Microsoft (R) Optimizing Compiler Version 19.10.24629.0 

include listing.inc


PUBLIC	??_C@_0BC@EOODALEL@Unknown?5exception?$AA@	; `string'
PUBLIC	??_C@_08EPJLHIJG@bad?5cast?$AA@			; `string'
PUBLIC	??_C@_0BA@ELKIONDK@bad?5locale?5name?$AA@	; `string'
PUBLIC	??_C@_00CNPNBAHC@?$AA@				; `string'
PUBLIC	??_C@_02LMMGGCAJ@?3?5?$AA@			; `string'
PUBLIC	??_C@_07DCLBNMLN@generic?$AA@			; `string'
PUBLIC	??_C@_08LLGCOLLL@iostream?$AA@			; `string'
PUBLIC	??_C@_0BG@PADBLCHM@iostream?5stream?5error?$AA@	; `string'
PUBLIC	??_C@_0BF@PHHKMMFD@ios_base?3?3badbit?5set?$AA@	; `string'
PUBLIC	??_C@_0BG@FMKFHCIL@ios_base?3?3failbit?5set?$AA@ ; `string'
PUBLIC	??_C@_0BF@OOHOMBOF@ios_base?3?3eofbit?5set?$AA@	; `string'
PUBLIC	??_C@_0BA@JFNIOLAK@string?5too?5long?$AA@	; `string'
PUBLIC	??_C@_0BI@CFPLBAOH@invalid?5string?5position?$AA@ ; `string'
PUBLIC	??_C@_0BD@OLBABOEK@vector?$DMT?$DO?5too?5long?$AA@ ; `string'
PUBLIC	??_R0?AVfailure@ios_base@std@@@8		; std::ios_base::failure `RTTI Type Descriptor'
PUBLIC	??_R0?AVruntime_error@std@@@8			; std::runtime_error `RTTI Type Descriptor'
PUBLIC	??_R4exception@std@@6B@				; std::exception::`RTTI Complete Object Locator'
PUBLIC	??_R2system_error@std@@8			; std::system_error::`RTTI Base Class Array'
PUBLIC	??_R4facet@locale@std@@6B@			; std::locale::facet::`RTTI Complete Object Locator'
PUBLIC	??_R1A@?0A@EA@system_error@std@@8		; std::system_error::`RTTI Base Class Descriptor at (0,-1,0,64)'
PUBLIC	??_R3?$ctype@D@std@@8				; std::ctype<char>::`RTTI Class Hierarchy Descriptor'
PUBLIC	??_R1A@?0A@EA@_Iostream_error_category@std@@8	; std::_Iostream_error_category::`RTTI Base Class Descriptor at (0,-1,0,64)'
PUBLIC	_CT??_R0?AVexception@std@@@824
PUBLIC	??_7error_category@std@@6B@			; std::error_category::`vftable'
PUBLIC	??_R4runtime_error@std@@6B@			; std::runtime_error::`RTTI Complete Object Locator'
PUBLIC	??_R4_System_error@std@@6B@			; std::_System_error::`RTTI Complete Object Locator'
PUBLIC	??_R3_Facet_base@std@@8				; std::_Facet_base::`RTTI Class Hierarchy Descriptor'
PUBLIC	??_R1A@?0A@EA@bad_cast@std@@8			; std::bad_cast::`RTTI Base Class Descriptor at (0,-1,0,64)'
PUBLIC	??_R4_Generic_error_category@std@@6B@		; std::_Generic_error_category::`RTTI Complete Object Locator'
PUBLIC	??_7_Generic_error_category@std@@6B@		; std::_Generic_error_category::`vftable'
PUBLIC	_CT??_R0?AVfailure@ios_base@std@@@840
PUBLIC	??_7_Iostream_error_category@std@@6B@		; std::_Iostream_error_category::`vftable'
PUBLIC	??_R0?AVerror_category@std@@@8			; std::error_category `RTTI Type Descriptor'
PUBLIC	??_R0?AV?$ctype@D@std@@@8			; std::ctype<char> `RTTI Type Descriptor'
PUBLIC	??_R3_Crt_new_delete@std@@8			; std::_Crt_new_delete::`RTTI Class Hierarchy Descriptor'
PUBLIC	??_R1A@?0A@EA@runtime_error@std@@8		; std::runtime_error::`RTTI Base Class Descriptor at (0,-1,0,64)'
PUBLIC	??_R2_System_error@std@@8			; std::_System_error::`RTTI Base Class Array'
PUBLIC	??_R0?AVsystem_error@std@@@8			; std::system_error `RTTI Type Descriptor'
PUBLIC	??_R1A@?0A@EA@exception@std@@8			; std::exception::`RTTI Base Class Descriptor at (0,-1,0,64)'
PUBLIC	??_R4_Iostream_error_category@std@@6B@		; std::_Iostream_error_category::`RTTI Complete Object Locator'
PUBLIC	??_R4system_error@std@@6B@			; std::system_error::`RTTI Complete Object Locator'
PUBLIC	??_R1A@?0A@EA@_Generic_error_category@std@@8	; std::_Generic_error_category::`RTTI Base Class Descriptor at (0,-1,0,64)'
PUBLIC	??_R1A@?0A@EA@_Facet_base@std@@8		; std::_Facet_base::`RTTI Base Class Descriptor at (0,-1,0,64)'
PUBLIC	??_R0?AV_Facet_base@std@@@8			; std::_Facet_base `RTTI Type Descriptor'
PUBLIC	??_7ctype_base@std@@6B@				; std::ctype_base::`vftable'
PUBLIC	??_R3_System_error@std@@8			; std::_System_error::`RTTI Class Hierarchy Descriptor'
PUBLIC	??_R0?AV_Generic_error_category@std@@@8		; std::_Generic_error_category `RTTI Type Descriptor'
PUBLIC	??_R3_Iostream_error_category@std@@8		; std::_Iostream_error_category::`RTTI Class Hierarchy Descriptor'
PUBLIC	??_R0?AU_Crt_new_delete@std@@@8			; std::_Crt_new_delete `RTTI Type Descriptor'
PUBLIC	??_R17?0A@EA@_Crt_new_delete@std@@8		; std::_Crt_new_delete::`RTTI Base Class Descriptor at (8,-1,0,64)'
PUBLIC	??_R2bad_cast@std@@8				; std::bad_cast::`RTTI Base Class Array'
PUBLIC	??_R2exception@std@@8				; std::exception::`RTTI Base Class Array'
PUBLIC	??_R4failure@ios_base@std@@6B@			; std::ios_base::failure::`RTTI Complete Object Locator'
PUBLIC	??_7bad_cast@std@@6B@				; std::bad_cast::`vftable'
PUBLIC	_TI2?AVruntime_error@std@@
PUBLIC	??_R3_Generic_error_category@std@@8		; std::_Generic_error_category::`RTTI Class Hierarchy Descriptor'
PUBLIC	??_R2_Iostream_error_category@std@@8		; std::_Iostream_error_category::`RTTI Base Class Array'
PUBLIC	_CT??_R0?AVruntime_error@std@@@824
PUBLIC	_CT??_R0?AVbad_cast@std@@@824
PUBLIC	??_R2error_category@std@@8			; std::error_category::`RTTI Base Class Array'
PUBLIC	??_R1A@?0A@EA@facet@locale@std@@8		; std::locale::facet::`RTTI Base Class Descriptor at (0,-1,0,64)'
PUBLIC	??_R0?AV_Iostream_error_category@std@@@8	; std::_Iostream_error_category `RTTI Type Descriptor'
PUBLIC	??_R0?AVbad_cast@std@@@8			; std::bad_cast `RTTI Type Descriptor'
PUBLIC	??_7?$ctype@D@std@@6B@				; std::ctype<char>::`vftable'
PUBLIC	_CTA2?AVbad_cast@std@@
PUBLIC	??_R2failure@ios_base@std@@8			; std::ios_base::failure::`RTTI Base Class Array'
PUBLIC	??_R4error_category@std@@6B@			; std::error_category::`RTTI Complete Object Locator'
PUBLIC	??_R0?AUctype_base@std@@@8			; std::ctype_base `RTTI Type Descriptor'
PUBLIC	??_R3failure@ios_base@std@@8			; std::ios_base::failure::`RTTI Class Hierarchy Descriptor'
PUBLIC	??_7facet@locale@std@@6B@			; std::locale::facet::`vftable'
PUBLIC	??_7exception@std@@6B@				; std::exception::`vftable'
PUBLIC	_CTA5?AVfailure@ios_base@std@@
PUBLIC	_TI2?AVbad_cast@std@@
PUBLIC	??_R2?$ctype@D@std@@8				; std::ctype<char>::`RTTI Base Class Array'
PUBLIC	??_R3exception@std@@8				; std::exception::`RTTI Class Hierarchy Descriptor'
PUBLIC	??_7runtime_error@std@@6B@			; std::runtime_error::`vftable'
PUBLIC	??_7_System_error@std@@6B@			; std::_System_error::`vftable'
PUBLIC	??_R1A@?0A@EA@failure@ios_base@std@@8		; std::ios_base::failure::`RTTI Base Class Descriptor at (0,-1,0,64)'
PUBLIC	??_R0?AVfacet@locale@std@@@8			; std::locale::facet `RTTI Type Descriptor'
PUBLIC	??_R3facet@locale@std@@8			; std::locale::facet::`RTTI Class Hierarchy Descriptor'
PUBLIC	??_R3ctype_base@std@@8				; std::ctype_base::`RTTI Class Hierarchy Descriptor'
PUBLIC	?npos@?$basic_string@DU?$char_traits@D@std@@V?$allocator@D@2@@std@@2_KB ; std::basic_string<char,std::char_traits<char>,std::allocator<char> >::npos
PUBLIC	?_Psave@?$_Facetptr@V?$ctype@D@std@@@std@@2PEBVfacet@locale@2@EB ; std::_Facetptr<std::ctype<char> >::_Psave
PUBLIC	??_R2_Generic_error_category@std@@8		; std::_Generic_error_category::`RTTI Base Class Array'
PUBLIC	??_R1A@?0A@EA@_System_error@std@@8		; std::_System_error::`RTTI Base Class Descriptor at (0,-1,0,64)'
PUBLIC	??_R3bad_cast@std@@8				; std::bad_cast::`RTTI Class Hierarchy Descriptor'
PUBLIC	??_R3error_category@std@@8			; std::error_category::`RTTI Class Hierarchy Descriptor'
PUBLIC	??_R4ctype_base@std@@6B@			; std::ctype_base::`RTTI Complete Object Locator'
PUBLIC	??_R4bad_cast@std@@6B@				; std::bad_cast::`RTTI Complete Object Locator'
PUBLIC	??_R1A@?0A@EA@_Crt_new_delete@std@@8		; std::_Crt_new_delete::`RTTI Base Class Descriptor at (0,-1,0,64)'
PUBLIC	??_R4_Facet_base@std@@6B@			; std::_Facet_base::`RTTI Complete Object Locator'
PUBLIC	_CTA2?AVruntime_error@std@@
PUBLIC	??_R2runtime_error@std@@8			; std::runtime_error::`RTTI Base Class Array'
PUBLIC	_CT??_R0?AV_System_error@std@@@840
PUBLIC	??_7_Facet_base@std@@6B@			; std::_Facet_base::`vftable'
PUBLIC	_CT??_R0?AVsystem_error@std@@@840
PUBLIC	??_R1A@?0A@EA@ctype_base@std@@8			; std::ctype_base::`RTTI Base Class Descriptor at (0,-1,0,64)'
PUBLIC	??_R0?AV_System_error@std@@@8			; std::_System_error `RTTI Type Descriptor'
PUBLIC	??_R2_Crt_new_delete@std@@8			; std::_Crt_new_delete::`RTTI Base Class Array'
PUBLIC	??_R1A@?0A@EA@?$ctype@D@std@@8			; std::ctype<char>::`RTTI Base Class Descriptor at (0,-1,0,64)'
PUBLIC	_TI5?AVfailure@ios_base@std@@
PUBLIC	??_R3system_error@std@@8			; std::system_error::`RTTI Class Hierarchy Descriptor'
PUBLIC	??_R2_Facet_base@std@@8				; std::_Facet_base::`RTTI Base Class Array'
PUBLIC	??_R2facet@locale@std@@8			; std::locale::facet::`RTTI Base Class Array'
PUBLIC	??_R0?AVexception@std@@@8			; std::exception `RTTI Type Descriptor'
PUBLIC	??_R4?$ctype@D@std@@6B@				; std::ctype<char>::`RTTI Complete Object Locator'
PUBLIC	??_7system_error@std@@6B@			; std::system_error::`vftable'
PUBLIC	??_R3runtime_error@std@@8			; std::runtime_error::`RTTI Class Hierarchy Descriptor'
PUBLIC	??_R2ctype_base@std@@8				; std::ctype_base::`RTTI Base Class Array'
PUBLIC	??_7failure@ios_base@std@@6B@			; std::ios_base::failure::`vftable'
PUBLIC	??_R1A@?0A@EA@error_category@std@@8		; std::error_category::`RTTI Base Class Descriptor at (0,-1,0,64)'
EXTRN	_invalid_parameter_noinfo_noreturn:PROC
EXTRN	??_7type_info@@6B@:BYTE				; type_info::`vftable'
EXTRN	__std_terminate:PROC
EXTRN	free:PROC
EXTRN	_time64:PROC
EXTRN	_Toupper:PROC
EXTRN	_Init_thread_abort:PROC
EXTRN	_Init_thread_header:PROC
EXTRN	_purecall:PROC
EXTRN	_Tolower:PROC
EXTRN	??3@YAXPEAX_K@Z:PROC				; operator delete
EXTRN	??3@YAXPEAX@Z:PROC				; operator delete
EXTRN	_Getctype:PROC
EXTRN	atexit:PROC
EXTRN	rand:PROC
EXTRN	__std_exception_copy:PROC
EXTRN	_Init_thread_footer:PROC
EXTRN	?_Syserror_map@std@@YAPEBDH@Z:PROC		; std::_Syserror_map
EXTRN	?_Xlength_error@std@@YAXPEBD@Z:PROC		; std::_Xlength_error
EXTRN	?id@?$ctype@D@std@@2V0locale@2@A:QWORD		; std::ctype<char>::id
EXTRN	?_Facet_Register@std@@YAXPEAV_Facet_base@1@@Z:PROC ; std::_Facet_Register
EXTRN	?_Xout_of_range@std@@YAXPEBD@Z:PROC		; std::_Xout_of_range
EXTRN	?_Id_cnt@id@locale@std@@0HA:DWORD		; std::locale::id::_Id_cnt
EXTRN	?_Locinfo_ctor@_Locinfo@std@@SAXPEAV12@PEBD@Z:PROC ; std::_Locinfo::_Locinfo_ctor
EXTRN	?_Locinfo_dtor@_Locinfo@std@@SAXPEAV12@@Z:PROC	; std::_Locinfo::_Locinfo_dtor
EXTRN	?_Xbad_alloc@std@@YAXXZ:PROC			; std::_Xbad_alloc
EXTRN	?uncaught_exception@std@@YA_NXZ:PROC		; std::uncaught_exception
EXTRN	?_Getgloballocale@locale@std@@CAPEAV_Locimp@12@XZ:PROC ; std::locale::_Getgloballocale
EXTRN	?cout@std@@3V?$basic_ostream@DU?$char_traits@D@std@@@1@A:BYTE ; std::cout
EXTRN	??0_Lockit@std@@QEAA@H@Z:PROC			; std::_Lockit::_Lockit
EXTRN	??1_Lockit@std@@QEAA@XZ:PROC			; std::_Lockit::~_Lockit
EXTRN	??2@YAPEAX_K@Z:PROC				; operator new
EXTRN	srand:PROC
EXTRN	_Init_thread_epoch:DWORD
EXTRN	memmove:PROC
EXTRN	??_V@YAXPEAX@Z:PROC				; operator delete[]
EXTRN	__std_exception_destroy:PROC
EXTRN	__security_check_cookie:PROC
EXTRN	__CxxFrameHandler3:PROC
;	COMDAT ?_Psave@?$_Facetptr@V?$ctype@D@std@@@std@@2PEBVfacet@locale@2@EB
_BSS	SEGMENT
?_Psave@?$_Facetptr@V?$ctype@D@std@@@std@@2PEBVfacet@locale@2@EB DQ 01H DUP (?) ; std::_Facetptr<std::ctype<char> >::_Psave
_BSS	ENDS
;	COMDAT ??_R1A@?0A@EA@error_category@std@@8
rdata$r	SEGMENT
??_R1A@?0A@EA@error_category@std@@8 DD imagerel ??_R0?AVerror_category@std@@@8 ; std::error_category::`RTTI Base Class Descriptor at (0,-1,0,64)'
	DD	00H
	DD	00H
	DD	0ffffffffH
	DD	00H
	DD	040H
	DD	imagerel ??_R3error_category@std@@8
rdata$r	ENDS
;	COMDAT ??_7failure@ios_base@std@@6B@
CONST	SEGMENT
??_7failure@ios_base@std@@6B@ DQ FLAT:??_R4failure@ios_base@std@@6B@ ; std::ios_base::failure::`vftable'
	DQ	FLAT:??_Efailure@ios_base@std@@UEAAPEAXI@Z
	DQ	FLAT:?what@exception@std@@UEBAPEBDXZ
CONST	ENDS
;	COMDAT ??_R2ctype_base@std@@8
rdata$r	SEGMENT
??_R2ctype_base@std@@8 DD imagerel ??_R1A@?0A@EA@ctype_base@std@@8 ; std::ctype_base::`RTTI Base Class Array'
	DD	imagerel ??_R1A@?0A@EA@facet@locale@std@@8
	DD	imagerel ??_R1A@?0A@EA@_Facet_base@std@@8
	DD	imagerel ??_R17?0A@EA@_Crt_new_delete@std@@8
	ORG $+3
rdata$r	ENDS
;	COMDAT ??_R3runtime_error@std@@8
rdata$r	SEGMENT
??_R3runtime_error@std@@8 DD 00H			; std::runtime_error::`RTTI Class Hierarchy Descriptor'
	DD	00H
	DD	02H
	DD	imagerel ??_R2runtime_error@std@@8
rdata$r	ENDS
;	COMDAT ??_7system_error@std@@6B@
CONST	SEGMENT
??_7system_error@std@@6B@ DQ FLAT:??_R4system_error@std@@6B@ ; std::system_error::`vftable'
	DQ	FLAT:??_Esystem_error@std@@UEAAPEAXI@Z
	DQ	FLAT:?what@exception@std@@UEBAPEBDXZ
CONST	ENDS
;	COMDAT ??_R4?$ctype@D@std@@6B@
rdata$r	SEGMENT
??_R4?$ctype@D@std@@6B@ DD 01H				; std::ctype<char>::`RTTI Complete Object Locator'
	DD	00H
	DD	00H
	DD	imagerel ??_R0?AV?$ctype@D@std@@@8
	DD	imagerel ??_R3?$ctype@D@std@@8
	DD	imagerel ??_R4?$ctype@D@std@@6B@
rdata$r	ENDS
;	COMDAT ??_R0?AVexception@std@@@8
data$r	SEGMENT
??_R0?AVexception@std@@@8 DQ FLAT:??_7type_info@@6B@	; std::exception `RTTI Type Descriptor'
	DQ	0000000000000000H
	DB	'.?AVexception@std@@', 00H
data$r	ENDS
;	COMDAT ??_R2facet@locale@std@@8
rdata$r	SEGMENT
??_R2facet@locale@std@@8 DD imagerel ??_R1A@?0A@EA@facet@locale@std@@8 ; std::locale::facet::`RTTI Base Class Array'
	DD	imagerel ??_R1A@?0A@EA@_Facet_base@std@@8
	DD	imagerel ??_R17?0A@EA@_Crt_new_delete@std@@8
	ORG $+3
rdata$r	ENDS
;	COMDAT ??_R2_Facet_base@std@@8
rdata$r	SEGMENT
??_R2_Facet_base@std@@8 DD imagerel ??_R1A@?0A@EA@_Facet_base@std@@8 ; std::_Facet_base::`RTTI Base Class Array'
	ORG $+3
rdata$r	ENDS
;	COMDAT ??_R3system_error@std@@8
rdata$r	SEGMENT
??_R3system_error@std@@8 DD 00H				; std::system_error::`RTTI Class Hierarchy Descriptor'
	DD	00H
	DD	04H
	DD	imagerel ??_R2system_error@std@@8
rdata$r	ENDS
;	COMDAT _TI5?AVfailure@ios_base@std@@
xdata$x	SEGMENT
_TI5?AVfailure@ios_base@std@@ DD 00H
	DD	imagerel ??1failure@ios_base@std@@UEAA@XZ
	DD	00H
	DD	imagerel _CTA5?AVfailure@ios_base@std@@
xdata$x	ENDS
;	COMDAT ??_R1A@?0A@EA@?$ctype@D@std@@8
rdata$r	SEGMENT
??_R1A@?0A@EA@?$ctype@D@std@@8 DD imagerel ??_R0?AV?$ctype@D@std@@@8 ; std::ctype<char>::`RTTI Base Class Descriptor at (0,-1,0,64)'
	DD	04H
	DD	00H
	DD	0ffffffffH
	DD	00H
	DD	040H
	DD	imagerel ??_R3?$ctype@D@std@@8
rdata$r	ENDS
;	COMDAT ??_R2_Crt_new_delete@std@@8
rdata$r	SEGMENT
??_R2_Crt_new_delete@std@@8 DD imagerel ??_R1A@?0A@EA@_Crt_new_delete@std@@8 ; std::_Crt_new_delete::`RTTI Base Class Array'
	ORG $+3
rdata$r	ENDS
;	COMDAT ??_R0?AV_System_error@std@@@8
data$r	SEGMENT
??_R0?AV_System_error@std@@@8 DQ FLAT:??_7type_info@@6B@ ; std::_System_error `RTTI Type Descriptor'
	DQ	0000000000000000H
	DB	'.?AV_System_error@std@@', 00H
data$r	ENDS
;	COMDAT ??_R1A@?0A@EA@ctype_base@std@@8
rdata$r	SEGMENT
??_R1A@?0A@EA@ctype_base@std@@8 DD imagerel ??_R0?AUctype_base@std@@@8 ; std::ctype_base::`RTTI Base Class Descriptor at (0,-1,0,64)'
	DD	03H
	DD	00H
	DD	0ffffffffH
	DD	00H
	DD	040H
	DD	imagerel ??_R3ctype_base@std@@8
rdata$r	ENDS
;	COMDAT _CT??_R0?AVsystem_error@std@@@840
xdata$x	SEGMENT
_CT??_R0?AVsystem_error@std@@@840 DD 00H
	DD	imagerel ??_R0?AVsystem_error@std@@@8
	DD	00H
	DD	0ffffffffH
	ORG $+4
	DD	028H
	DD	imagerel ??0system_error@std@@QEAA@AEBV01@@Z
xdata$x	ENDS
;	COMDAT ??_7_Facet_base@std@@6B@
CONST	SEGMENT
??_7_Facet_base@std@@6B@ DQ FLAT:??_R4_Facet_base@std@@6B@ ; std::_Facet_base::`vftable'
	DQ	FLAT:??_E_Facet_base@std@@UEAAPEAXI@Z
	DQ	FLAT:_purecall
	DQ	FLAT:_purecall
CONST	ENDS
;	COMDAT _CT??_R0?AV_System_error@std@@@840
xdata$x	SEGMENT
_CT??_R0?AV_System_error@std@@@840 DD 00H
	DD	imagerel ??_R0?AV_System_error@std@@@8
	DD	00H
	DD	0ffffffffH
	ORG $+4
	DD	028H
	DD	imagerel ??0_System_error@std@@QEAA@AEBV01@@Z
xdata$x	ENDS
;	COMDAT ??_R2runtime_error@std@@8
rdata$r	SEGMENT
??_R2runtime_error@std@@8 DD imagerel ??_R1A@?0A@EA@runtime_error@std@@8 ; std::runtime_error::`RTTI Base Class Array'
	DD	imagerel ??_R1A@?0A@EA@exception@std@@8
	ORG $+3
rdata$r	ENDS
;	COMDAT _CTA2?AVruntime_error@std@@
xdata$x	SEGMENT
_CTA2?AVruntime_error@std@@ DD 02H
	DD	imagerel _CT??_R0?AVruntime_error@std@@@824
	DD	imagerel _CT??_R0?AVexception@std@@@824
xdata$x	ENDS
;	COMDAT ??_R4_Facet_base@std@@6B@
rdata$r	SEGMENT
??_R4_Facet_base@std@@6B@ DD 01H			; std::_Facet_base::`RTTI Complete Object Locator'
	DD	00H
	DD	00H
	DD	imagerel ??_R0?AV_Facet_base@std@@@8
	DD	imagerel ??_R3_Facet_base@std@@8
	DD	imagerel ??_R4_Facet_base@std@@6B@
rdata$r	ENDS
;	COMDAT ??_R1A@?0A@EA@_Crt_new_delete@std@@8
rdata$r	SEGMENT
??_R1A@?0A@EA@_Crt_new_delete@std@@8 DD imagerel ??_R0?AU_Crt_new_delete@std@@@8 ; std::_Crt_new_delete::`RTTI Base Class Descriptor at (0,-1,0,64)'
	DD	00H
	DD	00H
	DD	0ffffffffH
	DD	00H
	DD	040H
	DD	imagerel ??_R3_Crt_new_delete@std@@8
rdata$r	ENDS
;	COMDAT ??_R4bad_cast@std@@6B@
rdata$r	SEGMENT
??_R4bad_cast@std@@6B@ DD 01H				; std::bad_cast::`RTTI Complete Object Locator'
	DD	00H
	DD	00H
	DD	imagerel ??_R0?AVbad_cast@std@@@8
	DD	imagerel ??_R3bad_cast@std@@8
	DD	imagerel ??_R4bad_cast@std@@6B@
rdata$r	ENDS
;	COMDAT ??_R4ctype_base@std@@6B@
rdata$r	SEGMENT
??_R4ctype_base@std@@6B@ DD 01H				; std::ctype_base::`RTTI Complete Object Locator'
	DD	00H
	DD	00H
	DD	imagerel ??_R0?AUctype_base@std@@@8
	DD	imagerel ??_R3ctype_base@std@@8
	DD	imagerel ??_R4ctype_base@std@@6B@
rdata$r	ENDS
;	COMDAT ??_R3error_category@std@@8
rdata$r	SEGMENT
??_R3error_category@std@@8 DD 00H			; std::error_category::`RTTI Class Hierarchy Descriptor'
	DD	00H
	DD	01H
	DD	imagerel ??_R2error_category@std@@8
rdata$r	ENDS
;	COMDAT ??_R3bad_cast@std@@8
rdata$r	SEGMENT
??_R3bad_cast@std@@8 DD 00H				; std::bad_cast::`RTTI Class Hierarchy Descriptor'
	DD	00H
	DD	02H
	DD	imagerel ??_R2bad_cast@std@@8
rdata$r	ENDS
;	COMDAT ??_R1A@?0A@EA@_System_error@std@@8
rdata$r	SEGMENT
??_R1A@?0A@EA@_System_error@std@@8 DD imagerel ??_R0?AV_System_error@std@@@8 ; std::_System_error::`RTTI Base Class Descriptor at (0,-1,0,64)'
	DD	02H
	DD	00H
	DD	0ffffffffH
	DD	00H
	DD	040H
	DD	imagerel ??_R3_System_error@std@@8
rdata$r	ENDS
;	COMDAT ??_R2_Generic_error_category@std@@8
rdata$r	SEGMENT
??_R2_Generic_error_category@std@@8 DD imagerel ??_R1A@?0A@EA@_Generic_error_category@std@@8 ; std::_Generic_error_category::`RTTI Base Class Array'
	DD	imagerel ??_R1A@?0A@EA@error_category@std@@8
	ORG $+3
rdata$r	ENDS
;	COMDAT ?npos@?$basic_string@DU?$char_traits@D@std@@V?$allocator@D@2@@std@@2_KB
CONST	SEGMENT
?npos@?$basic_string@DU?$char_traits@D@std@@V?$allocator@D@2@@std@@2_KB DQ ffffffffffffffffH ; std::basic_string<char,std::char_traits<char>,std::allocator<char> >::npos
CONST	ENDS
;	COMDAT ??_R3ctype_base@std@@8
rdata$r	SEGMENT
??_R3ctype_base@std@@8 DD 00H				; std::ctype_base::`RTTI Class Hierarchy Descriptor'
	DD	01H
	DD	04H
	DD	imagerel ??_R2ctype_base@std@@8
rdata$r	ENDS
;	COMDAT ??_R3facet@locale@std@@8
rdata$r	SEGMENT
??_R3facet@locale@std@@8 DD 00H				; std::locale::facet::`RTTI Class Hierarchy Descriptor'
	DD	01H
	DD	03H
	DD	imagerel ??_R2facet@locale@std@@8
rdata$r	ENDS
;	COMDAT ??_R0?AVfacet@locale@std@@@8
data$r	SEGMENT
??_R0?AVfacet@locale@std@@@8 DQ FLAT:??_7type_info@@6B@	; std::locale::facet `RTTI Type Descriptor'
	DQ	0000000000000000H
	DB	'.?AVfacet@locale@std@@', 00H
data$r	ENDS
;	COMDAT ??_R1A@?0A@EA@failure@ios_base@std@@8
rdata$r	SEGMENT
??_R1A@?0A@EA@failure@ios_base@std@@8 DD imagerel ??_R0?AVfailure@ios_base@std@@@8 ; std::ios_base::failure::`RTTI Base Class Descriptor at (0,-1,0,64)'
	DD	04H
	DD	00H
	DD	0ffffffffH
	DD	00H
	DD	040H
	DD	imagerel ??_R3failure@ios_base@std@@8
rdata$r	ENDS
;	COMDAT ??_7_System_error@std@@6B@
CONST	SEGMENT
??_7_System_error@std@@6B@ DQ FLAT:??_R4_System_error@std@@6B@ ; std::_System_error::`vftable'
	DQ	FLAT:??_E_System_error@std@@UEAAPEAXI@Z
	DQ	FLAT:?what@exception@std@@UEBAPEBDXZ
CONST	ENDS
;	COMDAT ??_7runtime_error@std@@6B@
CONST	SEGMENT
??_7runtime_error@std@@6B@ DQ FLAT:??_R4runtime_error@std@@6B@ ; std::runtime_error::`vftable'
	DQ	FLAT:??_Eruntime_error@std@@UEAAPEAXI@Z
	DQ	FLAT:?what@exception@std@@UEBAPEBDXZ
CONST	ENDS
;	COMDAT ??_R3exception@std@@8
rdata$r	SEGMENT
??_R3exception@std@@8 DD 00H				; std::exception::`RTTI Class Hierarchy Descriptor'
	DD	00H
	DD	01H
	DD	imagerel ??_R2exception@std@@8
rdata$r	ENDS
;	COMDAT ??_R2?$ctype@D@std@@8
rdata$r	SEGMENT
??_R2?$ctype@D@std@@8 DD imagerel ??_R1A@?0A@EA@?$ctype@D@std@@8 ; std::ctype<char>::`RTTI Base Class Array'
	DD	imagerel ??_R1A@?0A@EA@ctype_base@std@@8
	DD	imagerel ??_R1A@?0A@EA@facet@locale@std@@8
	DD	imagerel ??_R1A@?0A@EA@_Facet_base@std@@8
	DD	imagerel ??_R17?0A@EA@_Crt_new_delete@std@@8
	ORG $+3
rdata$r	ENDS
;	COMDAT _TI2?AVbad_cast@std@@
xdata$x	SEGMENT
_TI2?AVbad_cast@std@@ DD 00H
	DD	imagerel ??1bad_cast@std@@UEAA@XZ
	DD	00H
	DD	imagerel _CTA2?AVbad_cast@std@@
xdata$x	ENDS
;	COMDAT _CTA5?AVfailure@ios_base@std@@
xdata$x	SEGMENT
_CTA5?AVfailure@ios_base@std@@ DD 05H
	DD	imagerel _CT??_R0?AVfailure@ios_base@std@@@840
	DD	imagerel _CT??_R0?AVsystem_error@std@@@840
	DD	imagerel _CT??_R0?AV_System_error@std@@@840
	DD	imagerel _CT??_R0?AVruntime_error@std@@@824
	DD	imagerel _CT??_R0?AVexception@std@@@824
xdata$x	ENDS
;	COMDAT ??_7exception@std@@6B@
CONST	SEGMENT
??_7exception@std@@6B@ DQ FLAT:??_R4exception@std@@6B@	; std::exception::`vftable'
	DQ	FLAT:??_Eexception@std@@UEAAPEAXI@Z
	DQ	FLAT:?what@exception@std@@UEBAPEBDXZ
CONST	ENDS
;	COMDAT ??_7facet@locale@std@@6B@
CONST	SEGMENT
??_7facet@locale@std@@6B@ DQ FLAT:??_R4facet@locale@std@@6B@ ; std::locale::facet::`vftable'
	DQ	FLAT:??_Efacet@locale@std@@MEAAPEAXI@Z
	DQ	FLAT:?_Incref@facet@locale@std@@UEAAXXZ
	DQ	FLAT:?_Decref@facet@locale@std@@UEAAPEAV_Facet_base@3@XZ
CONST	ENDS
;	COMDAT ??_R3failure@ios_base@std@@8
rdata$r	SEGMENT
??_R3failure@ios_base@std@@8 DD 00H			; std::ios_base::failure::`RTTI Class Hierarchy Descriptor'
	DD	00H
	DD	05H
	DD	imagerel ??_R2failure@ios_base@std@@8
rdata$r	ENDS
;	COMDAT ??_R0?AUctype_base@std@@@8
data$r	SEGMENT
??_R0?AUctype_base@std@@@8 DQ FLAT:??_7type_info@@6B@	; std::ctype_base `RTTI Type Descriptor'
	DQ	0000000000000000H
	DB	'.?AUctype_base@std@@', 00H
data$r	ENDS
;	COMDAT ??_R4error_category@std@@6B@
rdata$r	SEGMENT
??_R4error_category@std@@6B@ DD 01H			; std::error_category::`RTTI Complete Object Locator'
	DD	00H
	DD	00H
	DD	imagerel ??_R0?AVerror_category@std@@@8
	DD	imagerel ??_R3error_category@std@@8
	DD	imagerel ??_R4error_category@std@@6B@
rdata$r	ENDS
;	COMDAT ??_R2failure@ios_base@std@@8
rdata$r	SEGMENT
??_R2failure@ios_base@std@@8 DD imagerel ??_R1A@?0A@EA@failure@ios_base@std@@8 ; std::ios_base::failure::`RTTI Base Class Array'
	DD	imagerel ??_R1A@?0A@EA@system_error@std@@8
	DD	imagerel ??_R1A@?0A@EA@_System_error@std@@8
	DD	imagerel ??_R1A@?0A@EA@runtime_error@std@@8
	DD	imagerel ??_R1A@?0A@EA@exception@std@@8
	ORG $+3
rdata$r	ENDS
;	COMDAT _CTA2?AVbad_cast@std@@
xdata$x	SEGMENT
_CTA2?AVbad_cast@std@@ DD 02H
	DD	imagerel _CT??_R0?AVbad_cast@std@@@824
	DD	imagerel _CT??_R0?AVexception@std@@@824
xdata$x	ENDS
;	COMDAT ??_7?$ctype@D@std@@6B@
CONST	SEGMENT
??_7?$ctype@D@std@@6B@ DQ FLAT:??_R4?$ctype@D@std@@6B@	; std::ctype<char>::`vftable'
	DQ	FLAT:??_E?$ctype@D@std@@MEAAPEAXI@Z
	DQ	FLAT:?_Incref@facet@locale@std@@UEAAXXZ
	DQ	FLAT:?_Decref@facet@locale@std@@UEAAPEAV_Facet_base@3@XZ
	DQ	FLAT:?do_tolower@?$ctype@D@std@@MEBAPEBDPEADPEBD@Z
	DQ	FLAT:?do_tolower@?$ctype@D@std@@MEBADD@Z
	DQ	FLAT:?do_toupper@?$ctype@D@std@@MEBAPEBDPEADPEBD@Z
	DQ	FLAT:?do_toupper@?$ctype@D@std@@MEBADD@Z
	DQ	FLAT:?do_widen@?$ctype@D@std@@MEBAPEBDPEBD0PEAD@Z
	DQ	FLAT:?do_widen@?$ctype@D@std@@MEBADD@Z
	DQ	FLAT:?do_narrow@?$ctype@D@std@@MEBAPEBDPEBD0DPEAD@Z
	DQ	FLAT:?do_narrow@?$ctype@D@std@@MEBADDD@Z
CONST	ENDS
;	COMDAT ??_R0?AVbad_cast@std@@@8
data$r	SEGMENT
??_R0?AVbad_cast@std@@@8 DQ FLAT:??_7type_info@@6B@	; std::bad_cast `RTTI Type Descriptor'
	DQ	0000000000000000H
	DB	'.?AVbad_cast@std@@', 00H
data$r	ENDS
;	COMDAT ??_R0?AV_Iostream_error_category@std@@@8
data$r	SEGMENT
??_R0?AV_Iostream_error_category@std@@@8 DQ FLAT:??_7type_info@@6B@ ; std::_Iostream_error_category `RTTI Type Descriptor'
	DQ	0000000000000000H
	DB	'.?AV_Iostream_error_category@std@@', 00H
data$r	ENDS
;	COMDAT ??_R1A@?0A@EA@facet@locale@std@@8
rdata$r	SEGMENT
??_R1A@?0A@EA@facet@locale@std@@8 DD imagerel ??_R0?AVfacet@locale@std@@@8 ; std::locale::facet::`RTTI Base Class Descriptor at (0,-1,0,64)'
	DD	02H
	DD	00H
	DD	0ffffffffH
	DD	00H
	DD	040H
	DD	imagerel ??_R3facet@locale@std@@8
rdata$r	ENDS
;	COMDAT ??_R2error_category@std@@8
rdata$r	SEGMENT
??_R2error_category@std@@8 DD imagerel ??_R1A@?0A@EA@error_category@std@@8 ; std::error_category::`RTTI Base Class Array'
	ORG $+3
rdata$r	ENDS
;	COMDAT _CT??_R0?AVbad_cast@std@@@824
xdata$x	SEGMENT
_CT??_R0?AVbad_cast@std@@@824 DD 00H
	DD	imagerel ??_R0?AVbad_cast@std@@@8
	DD	00H
	DD	0ffffffffH
	ORG $+4
	DD	018H
	DD	imagerel ??0bad_cast@std@@QEAA@AEBV01@@Z
xdata$x	ENDS
;	COMDAT _CT??_R0?AVruntime_error@std@@@824
xdata$x	SEGMENT
_CT??_R0?AVruntime_error@std@@@824 DD 00H
	DD	imagerel ??_R0?AVruntime_error@std@@@8
	DD	00H
	DD	0ffffffffH
	ORG $+4
	DD	018H
	DD	imagerel ??0runtime_error@std@@QEAA@AEBV01@@Z
xdata$x	ENDS
;	COMDAT ??_R2_Iostream_error_category@std@@8
rdata$r	SEGMENT
??_R2_Iostream_error_category@std@@8 DD imagerel ??_R1A@?0A@EA@_Iostream_error_category@std@@8 ; std::_Iostream_error_category::`RTTI Base Class Array'
	DD	imagerel ??_R1A@?0A@EA@_Generic_error_category@std@@8
	DD	imagerel ??_R1A@?0A@EA@error_category@std@@8
	ORG $+3
rdata$r	ENDS
;	COMDAT ??_R3_Generic_error_category@std@@8
rdata$r	SEGMENT
??_R3_Generic_error_category@std@@8 DD 00H		; std::_Generic_error_category::`RTTI Class Hierarchy Descriptor'
	DD	00H
	DD	02H
	DD	imagerel ??_R2_Generic_error_category@std@@8
rdata$r	ENDS
;	COMDAT _TI2?AVruntime_error@std@@
xdata$x	SEGMENT
_TI2?AVruntime_error@std@@ DD 00H
	DD	imagerel ??1runtime_error@std@@UEAA@XZ
	DD	00H
	DD	imagerel _CTA2?AVruntime_error@std@@
xdata$x	ENDS
;	COMDAT ??_7bad_cast@std@@6B@
CONST	SEGMENT
??_7bad_cast@std@@6B@ DQ FLAT:??_R4bad_cast@std@@6B@	; std::bad_cast::`vftable'
	DQ	FLAT:??_Ebad_cast@std@@UEAAPEAXI@Z
	DQ	FLAT:?what@exception@std@@UEBAPEBDXZ
CONST	ENDS
;	COMDAT ??_R4failure@ios_base@std@@6B@
rdata$r	SEGMENT
??_R4failure@ios_base@std@@6B@ DD 01H			; std::ios_base::failure::`RTTI Complete Object Locator'
	DD	00H
	DD	00H
	DD	imagerel ??_R0?AVfailure@ios_base@std@@@8
	DD	imagerel ??_R3failure@ios_base@std@@8
	DD	imagerel ??_R4failure@ios_base@std@@6B@
rdata$r	ENDS
;	COMDAT ??_R2exception@std@@8
rdata$r	SEGMENT
??_R2exception@std@@8 DD imagerel ??_R1A@?0A@EA@exception@std@@8 ; std::exception::`RTTI Base Class Array'
	ORG $+3
rdata$r	ENDS
;	COMDAT ??_R2bad_cast@std@@8
rdata$r	SEGMENT
??_R2bad_cast@std@@8 DD imagerel ??_R1A@?0A@EA@bad_cast@std@@8 ; std::bad_cast::`RTTI Base Class Array'
	DD	imagerel ??_R1A@?0A@EA@exception@std@@8
	ORG $+3
rdata$r	ENDS
;	COMDAT ??_R17?0A@EA@_Crt_new_delete@std@@8
rdata$r	SEGMENT
??_R17?0A@EA@_Crt_new_delete@std@@8 DD imagerel ??_R0?AU_Crt_new_delete@std@@@8 ; std::_Crt_new_delete::`RTTI Base Class Descriptor at (8,-1,0,64)'
	DD	00H
	DD	08H
	DD	0ffffffffH
	DD	00H
	DD	040H
	DD	imagerel ??_R3_Crt_new_delete@std@@8
rdata$r	ENDS
;	COMDAT ??_R0?AU_Crt_new_delete@std@@@8
data$r	SEGMENT
??_R0?AU_Crt_new_delete@std@@@8 DQ FLAT:??_7type_info@@6B@ ; std::_Crt_new_delete `RTTI Type Descriptor'
	DQ	0000000000000000H
	DB	'.?AU_Crt_new_delete@std@@', 00H
data$r	ENDS
;	COMDAT ??_R3_Iostream_error_category@std@@8
rdata$r	SEGMENT
??_R3_Iostream_error_category@std@@8 DD 00H		; std::_Iostream_error_category::`RTTI Class Hierarchy Descriptor'
	DD	00H
	DD	03H
	DD	imagerel ??_R2_Iostream_error_category@std@@8
rdata$r	ENDS
;	COMDAT ??_R0?AV_Generic_error_category@std@@@8
data$r	SEGMENT
??_R0?AV_Generic_error_category@std@@@8 DQ FLAT:??_7type_info@@6B@ ; std::_Generic_error_category `RTTI Type Descriptor'
	DQ	0000000000000000H
	DB	'.?AV_Generic_error_category@std@@', 00H
data$r	ENDS
;	COMDAT ??_R3_System_error@std@@8
rdata$r	SEGMENT
??_R3_System_error@std@@8 DD 00H			; std::_System_error::`RTTI Class Hierarchy Descriptor'
	DD	00H
	DD	03H
	DD	imagerel ??_R2_System_error@std@@8
rdata$r	ENDS
;	COMDAT ??_7ctype_base@std@@6B@
CONST	SEGMENT
??_7ctype_base@std@@6B@ DQ FLAT:??_R4ctype_base@std@@6B@ ; std::ctype_base::`vftable'
	DQ	FLAT:??_Ectype_base@std@@UEAAPEAXI@Z
	DQ	FLAT:?_Incref@facet@locale@std@@UEAAXXZ
	DQ	FLAT:?_Decref@facet@locale@std@@UEAAPEAV_Facet_base@3@XZ
CONST	ENDS
;	COMDAT ??_R0?AV_Facet_base@std@@@8
data$r	SEGMENT
??_R0?AV_Facet_base@std@@@8 DQ FLAT:??_7type_info@@6B@	; std::_Facet_base `RTTI Type Descriptor'
	DQ	0000000000000000H
	DB	'.?AV_Facet_base@std@@', 00H
data$r	ENDS
;	COMDAT ??_R1A@?0A@EA@_Facet_base@std@@8
rdata$r	SEGMENT
??_R1A@?0A@EA@_Facet_base@std@@8 DD imagerel ??_R0?AV_Facet_base@std@@@8 ; std::_Facet_base::`RTTI Base Class Descriptor at (0,-1,0,64)'
	DD	00H
	DD	00H
	DD	0ffffffffH
	DD	00H
	DD	040H
	DD	imagerel ??_R3_Facet_base@std@@8
rdata$r	ENDS
;	COMDAT ??_R1A@?0A@EA@_Generic_error_category@std@@8
rdata$r	SEGMENT
??_R1A@?0A@EA@_Generic_error_category@std@@8 DD imagerel ??_R0?AV_Generic_error_category@std@@@8 ; std::_Generic_error_category::`RTTI Base Class Descriptor at (0,-1,0,64)'
	DD	01H
	DD	00H
	DD	0ffffffffH
	DD	00H
	DD	040H
	DD	imagerel ??_R3_Generic_error_category@std@@8
rdata$r	ENDS
;	COMDAT ??_R4system_error@std@@6B@
rdata$r	SEGMENT
??_R4system_error@std@@6B@ DD 01H			; std::system_error::`RTTI Complete Object Locator'
	DD	00H
	DD	00H
	DD	imagerel ??_R0?AVsystem_error@std@@@8
	DD	imagerel ??_R3system_error@std@@8
	DD	imagerel ??_R4system_error@std@@6B@
rdata$r	ENDS
;	COMDAT ??_R4_Iostream_error_category@std@@6B@
rdata$r	SEGMENT
??_R4_Iostream_error_category@std@@6B@ DD 01H		; std::_Iostream_error_category::`RTTI Complete Object Locator'
	DD	00H
	DD	00H
	DD	imagerel ??_R0?AV_Iostream_error_category@std@@@8
	DD	imagerel ??_R3_Iostream_error_category@std@@8
	DD	imagerel ??_R4_Iostream_error_category@std@@6B@
rdata$r	ENDS
;	COMDAT ??_R1A@?0A@EA@exception@std@@8
rdata$r	SEGMENT
??_R1A@?0A@EA@exception@std@@8 DD imagerel ??_R0?AVexception@std@@@8 ; std::exception::`RTTI Base Class Descriptor at (0,-1,0,64)'
	DD	00H
	DD	00H
	DD	0ffffffffH
	DD	00H
	DD	040H
	DD	imagerel ??_R3exception@std@@8
rdata$r	ENDS
;	COMDAT ??_R0?AVsystem_error@std@@@8
data$r	SEGMENT
??_R0?AVsystem_error@std@@@8 DQ FLAT:??_7type_info@@6B@	; std::system_error `RTTI Type Descriptor'
	DQ	0000000000000000H
	DB	'.?AVsystem_error@std@@', 00H
data$r	ENDS
;	COMDAT ??_R2_System_error@std@@8
rdata$r	SEGMENT
??_R2_System_error@std@@8 DD imagerel ??_R1A@?0A@EA@_System_error@std@@8 ; std::_System_error::`RTTI Base Class Array'
	DD	imagerel ??_R1A@?0A@EA@runtime_error@std@@8
	DD	imagerel ??_R1A@?0A@EA@exception@std@@8
	ORG $+3
rdata$r	ENDS
;	COMDAT ??_R1A@?0A@EA@runtime_error@std@@8
rdata$r	SEGMENT
??_R1A@?0A@EA@runtime_error@std@@8 DD imagerel ??_R0?AVruntime_error@std@@@8 ; std::runtime_error::`RTTI Base Class Descriptor at (0,-1,0,64)'
	DD	01H
	DD	00H
	DD	0ffffffffH
	DD	00H
	DD	040H
	DD	imagerel ??_R3runtime_error@std@@8
rdata$r	ENDS
;	COMDAT ??_R3_Crt_new_delete@std@@8
rdata$r	SEGMENT
??_R3_Crt_new_delete@std@@8 DD 00H			; std::_Crt_new_delete::`RTTI Class Hierarchy Descriptor'
	DD	00H
	DD	01H
	DD	imagerel ??_R2_Crt_new_delete@std@@8
rdata$r	ENDS
;	COMDAT ??_R0?AV?$ctype@D@std@@@8
data$r	SEGMENT
??_R0?AV?$ctype@D@std@@@8 DQ FLAT:??_7type_info@@6B@	; std::ctype<char> `RTTI Type Descriptor'
	DQ	0000000000000000H
	DB	'.?AV?$ctype@D@std@@', 00H
data$r	ENDS
;	COMDAT ??_R0?AVerror_category@std@@@8
data$r	SEGMENT
??_R0?AVerror_category@std@@@8 DQ FLAT:??_7type_info@@6B@ ; std::error_category `RTTI Type Descriptor'
	DQ	0000000000000000H
	DB	'.?AVerror_category@std@@', 00H
data$r	ENDS
;	COMDAT ??_7_Iostream_error_category@std@@6B@
CONST	SEGMENT
??_7_Iostream_error_category@std@@6B@ DQ FLAT:??_R4_Iostream_error_category@std@@6B@ ; std::_Iostream_error_category::`vftable'
	DQ	FLAT:??_E_Iostream_error_category@std@@UEAAPEAXI@Z
	DQ	FLAT:?name@_Iostream_error_category@std@@UEBAPEBDXZ
	DQ	FLAT:?message@_Iostream_error_category@std@@UEBA?AV?$basic_string@DU?$char_traits@D@std@@V?$allocator@D@2@@2@H@Z
	DQ	FLAT:?default_error_condition@error_category@std@@UEBA?AVerror_condition@2@H@Z
	DQ	FLAT:?equivalent@error_category@std@@UEBA_NAEBVerror_code@2@H@Z
	DQ	FLAT:?equivalent@error_category@std@@UEBA_NHAEBVerror_condition@2@@Z
CONST	ENDS
;	COMDAT _CT??_R0?AVfailure@ios_base@std@@@840
xdata$x	SEGMENT
_CT??_R0?AVfailure@ios_base@std@@@840 DD 00H
	DD	imagerel ??_R0?AVfailure@ios_base@std@@@8
	DD	00H
	DD	0ffffffffH
	ORG $+4
	DD	028H
	DD	imagerel ??0failure@ios_base@std@@QEAA@AEBV012@@Z
xdata$x	ENDS
;	COMDAT ??_7_Generic_error_category@std@@6B@
CONST	SEGMENT
??_7_Generic_error_category@std@@6B@ DQ FLAT:??_R4_Generic_error_category@std@@6B@ ; std::_Generic_error_category::`vftable'
	DQ	FLAT:??_E_Generic_error_category@std@@UEAAPEAXI@Z
	DQ	FLAT:?name@_Generic_error_category@std@@UEBAPEBDXZ
	DQ	FLAT:?message@_Generic_error_category@std@@UEBA?AV?$basic_string@DU?$char_traits@D@std@@V?$allocator@D@2@@2@H@Z
	DQ	FLAT:?default_error_condition@error_category@std@@UEBA?AVerror_condition@2@H@Z
	DQ	FLAT:?equivalent@error_category@std@@UEBA_NAEBVerror_code@2@H@Z
	DQ	FLAT:?equivalent@error_category@std@@UEBA_NHAEBVerror_condition@2@@Z
CONST	ENDS
;	COMDAT ??_R4_Generic_error_category@std@@6B@
rdata$r	SEGMENT
??_R4_Generic_error_category@std@@6B@ DD 01H		; std::_Generic_error_category::`RTTI Complete Object Locator'
	DD	00H
	DD	00H
	DD	imagerel ??_R0?AV_Generic_error_category@std@@@8
	DD	imagerel ??_R3_Generic_error_category@std@@8
	DD	imagerel ??_R4_Generic_error_category@std@@6B@
rdata$r	ENDS
;	COMDAT ??_R1A@?0A@EA@bad_cast@std@@8
rdata$r	SEGMENT
??_R1A@?0A@EA@bad_cast@std@@8 DD imagerel ??_R0?AVbad_cast@std@@@8 ; std::bad_cast::`RTTI Base Class Descriptor at (0,-1,0,64)'
	DD	01H
	DD	00H
	DD	0ffffffffH
	DD	00H
	DD	040H
	DD	imagerel ??_R3bad_cast@std@@8
rdata$r	ENDS
;	COMDAT ??_R3_Facet_base@std@@8
rdata$r	SEGMENT
??_R3_Facet_base@std@@8 DD 00H				; std::_Facet_base::`RTTI Class Hierarchy Descriptor'
	DD	00H
	DD	01H
	DD	imagerel ??_R2_Facet_base@std@@8
rdata$r	ENDS
;	COMDAT ??_R4_System_error@std@@6B@
rdata$r	SEGMENT
??_R4_System_error@std@@6B@ DD 01H			; std::_System_error::`RTTI Complete Object Locator'
	DD	00H
	DD	00H
	DD	imagerel ??_R0?AV_System_error@std@@@8
	DD	imagerel ??_R3_System_error@std@@8
	DD	imagerel ??_R4_System_error@std@@6B@
rdata$r	ENDS
;	COMDAT ??_R4runtime_error@std@@6B@
rdata$r	SEGMENT
??_R4runtime_error@std@@6B@ DD 01H			; std::runtime_error::`RTTI Complete Object Locator'
	DD	00H
	DD	00H
	DD	imagerel ??_R0?AVruntime_error@std@@@8
	DD	imagerel ??_R3runtime_error@std@@8
	DD	imagerel ??_R4runtime_error@std@@6B@
rdata$r	ENDS
;	COMDAT ??_7error_category@std@@6B@
CONST	SEGMENT
??_7error_category@std@@6B@ DQ FLAT:??_R4error_category@std@@6B@ ; std::error_category::`vftable'
	DQ	FLAT:??_Eerror_category@std@@UEAAPEAXI@Z
	DQ	FLAT:_purecall
	DQ	FLAT:_purecall
	DQ	FLAT:?default_error_condition@error_category@std@@UEBA?AVerror_condition@2@H@Z
	DQ	FLAT:?equivalent@error_category@std@@UEBA_NAEBVerror_code@2@H@Z
	DQ	FLAT:?equivalent@error_category@std@@UEBA_NHAEBVerror_condition@2@@Z
CONST	ENDS
;	COMDAT _CT??_R0?AVexception@std@@@824
xdata$x	SEGMENT
_CT??_R0?AVexception@std@@@824 DD 00H
	DD	imagerel ??_R0?AVexception@std@@@8
	DD	00H
	DD	0ffffffffH
	ORG $+4
	DD	018H
	DD	imagerel ??0exception@std@@QEAA@AEBV01@@Z
xdata$x	ENDS
;	COMDAT ??_R1A@?0A@EA@_Iostream_error_category@std@@8
rdata$r	SEGMENT
??_R1A@?0A@EA@_Iostream_error_category@std@@8 DD imagerel ??_R0?AV_Iostream_error_category@std@@@8 ; std::_Iostream_error_category::`RTTI Base Class Descriptor at (0,-1,0,64)'
	DD	02H
	DD	00H
	DD	0ffffffffH
	DD	00H
	DD	040H
	DD	imagerel ??_R3_Iostream_error_category@std@@8
rdata$r	ENDS
;	COMDAT ??_R3?$ctype@D@std@@8
rdata$r	SEGMENT
??_R3?$ctype@D@std@@8 DD 00H				; std::ctype<char>::`RTTI Class Hierarchy Descriptor'
	DD	01H
	DD	05H
	DD	imagerel ??_R2?$ctype@D@std@@8
rdata$r	ENDS
;	COMDAT ??_R1A@?0A@EA@system_error@std@@8
rdata$r	SEGMENT
??_R1A@?0A@EA@system_error@std@@8 DD imagerel ??_R0?AVsystem_error@std@@@8 ; std::system_error::`RTTI Base Class Descriptor at (0,-1,0,64)'
	DD	03H
	DD	00H
	DD	0ffffffffH
	DD	00H
	DD	040H
	DD	imagerel ??_R3system_error@std@@8
rdata$r	ENDS
;	COMDAT ??_R4facet@locale@std@@6B@
rdata$r	SEGMENT
??_R4facet@locale@std@@6B@ DD 01H			; std::locale::facet::`RTTI Complete Object Locator'
	DD	00H
	DD	00H
	DD	imagerel ??_R0?AVfacet@locale@std@@@8
	DD	imagerel ??_R3facet@locale@std@@8
	DD	imagerel ??_R4facet@locale@std@@6B@
rdata$r	ENDS
;	COMDAT ??_R2system_error@std@@8
rdata$r	SEGMENT
??_R2system_error@std@@8 DD imagerel ??_R1A@?0A@EA@system_error@std@@8 ; std::system_error::`RTTI Base Class Array'
	DD	imagerel ??_R1A@?0A@EA@_System_error@std@@8
	DD	imagerel ??_R1A@?0A@EA@runtime_error@std@@8
	DD	imagerel ??_R1A@?0A@EA@exception@std@@8
	ORG $+3
rdata$r	ENDS
;	COMDAT ??_R4exception@std@@6B@
rdata$r	SEGMENT
??_R4exception@std@@6B@ DD 01H				; std::exception::`RTTI Complete Object Locator'
	DD	00H
	DD	00H
	DD	imagerel ??_R0?AVexception@std@@@8
	DD	imagerel ??_R3exception@std@@8
	DD	imagerel ??_R4exception@std@@6B@
rdata$r	ENDS
;	COMDAT ??_R0?AVruntime_error@std@@@8
data$r	SEGMENT
??_R0?AVruntime_error@std@@@8 DQ FLAT:??_7type_info@@6B@ ; std::runtime_error `RTTI Type Descriptor'
	DQ	0000000000000000H
	DB	'.?AVruntime_error@std@@', 00H
data$r	ENDS
;	COMDAT ??_R0?AVfailure@ios_base@std@@@8
data$r	SEGMENT
??_R0?AVfailure@ios_base@std@@@8 DQ FLAT:??_7type_info@@6B@ ; std::ios_base::failure `RTTI Type Descriptor'
	DQ	0000000000000000H
	DB	'.?AVfailure@ios_base@std@@', 00H
data$r	ENDS
;	COMDAT ??_C@_0BD@OLBABOEK@vector?$DMT?$DO?5too?5long?$AA@
CONST	SEGMENT
??_C@_0BD@OLBABOEK@vector?$DMT?$DO?5too?5long?$AA@ DB 'vector<T> too long'
	DB	00H						; `string'
CONST	ENDS
;	COMDAT ??_C@_0BI@CFPLBAOH@invalid?5string?5position?$AA@
CONST	SEGMENT
??_C@_0BI@CFPLBAOH@invalid?5string?5position?$AA@ DB 'invalid string posi'
	DB	'tion', 00H					; `string'
CONST	ENDS
;	COMDAT ??_C@_0BA@JFNIOLAK@string?5too?5long?$AA@
CONST	SEGMENT
??_C@_0BA@JFNIOLAK@string?5too?5long?$AA@ DB 'string too long', 00H ; `string'
CONST	ENDS
;	COMDAT ??_C@_0BF@OOHOMBOF@ios_base?3?3eofbit?5set?$AA@
CONST	SEGMENT
??_C@_0BF@OOHOMBOF@ios_base?3?3eofbit?5set?$AA@ DB 'ios_base::eofbit set', 00H ; `string'
CONST	ENDS
;	COMDAT ??_C@_0BG@FMKFHCIL@ios_base?3?3failbit?5set?$AA@
CONST	SEGMENT
??_C@_0BG@FMKFHCIL@ios_base?3?3failbit?5set?$AA@ DB 'ios_base::failbit se'
	DB	't', 00H					; `string'
CONST	ENDS
;	COMDAT ??_C@_0BF@PHHKMMFD@ios_base?3?3badbit?5set?$AA@
CONST	SEGMENT
??_C@_0BF@PHHKMMFD@ios_base?3?3badbit?5set?$AA@ DB 'ios_base::badbit set', 00H ; `string'
CONST	ENDS
;	COMDAT ??_C@_0BG@PADBLCHM@iostream?5stream?5error?$AA@
CONST	SEGMENT
??_C@_0BG@PADBLCHM@iostream?5stream?5error?$AA@ DB 'iostream stream error'
	DB	00H						; `string'
CONST	ENDS
;	COMDAT ??_C@_08LLGCOLLL@iostream?$AA@
CONST	SEGMENT
??_C@_08LLGCOLLL@iostream?$AA@ DB 'iostream', 00H	; `string'
CONST	ENDS
;	COMDAT ??_C@_07DCLBNMLN@generic?$AA@
CONST	SEGMENT
??_C@_07DCLBNMLN@generic?$AA@ DB 'generic', 00H		; `string'
CONST	ENDS
;	COMDAT ??_C@_02LMMGGCAJ@?3?5?$AA@
CONST	SEGMENT
??_C@_02LMMGGCAJ@?3?5?$AA@ DB ': ', 00H			; `string'
CONST	ENDS
;	COMDAT ??_C@_00CNPNBAHC@?$AA@
CONST	SEGMENT
??_C@_00CNPNBAHC@?$AA@ DB 00H				; `string'
CONST	ENDS
;	COMDAT ??_C@_0BA@ELKIONDK@bad?5locale?5name?$AA@
CONST	SEGMENT
??_C@_0BA@ELKIONDK@bad?5locale?5name?$AA@ DB 'bad locale name', 00H ; `string'
CONST	ENDS
;	COMDAT ??_C@_08EPJLHIJG@bad?5cast?$AA@
CONST	SEGMENT
??_C@_08EPJLHIJG@bad?5cast?$AA@ DB 'bad cast', 00H	; `string'
CONST	ENDS
;	COMDAT ??_C@_0BC@EOODALEL@Unknown?5exception?$AA@
CONST	SEGMENT
??_C@_0BC@EOODALEL@Unknown?5exception?$AA@ DB 'Unknown exception', 00H ; `string'
CONST	ENDS
PUBLIC	??$_Copy_memmove@PEADPEAD@std@@YAPEADPEAD00@Z	; std::_Copy_memmove<char * __ptr64,char * __ptr64>
PUBLIC	??$_Uninitialized_move_al_unchecked1@DDV?$allocator@D@std@@@std@@YAPEADPEAD00AEAU?$_Wrap_alloc@V?$allocator@D@std@@@0@U_Really_trivial_ptr_iterator_tag@0@U?$integral_constant@_N$00@0@@Z ; std::_Uninitialized_move_al_unchecked1<char,char,std::allocator<char> >
PUBLIC	??$_Ptr_move_cat@DD@std@@YA?AU_Really_trivial_ptr_iterator_tag@0@AEBQEAD0@Z ; std::_Ptr_move_cat<char,char>
PUBLIC	??$_Rechecked@PEADPEAD@std@@YAAEAPEADAEAPEADPEAD@Z ; std::_Rechecked<char * __ptr64,char * __ptr64>
PUBLIC	??$_Uninitialized_move_al_unchecked@PEADPEADV?$allocator@D@std@@@std@@YAPEADPEAD00AEAU?$_Wrap_alloc@V?$allocator@D@std@@@0@@Z ; std::_Uninitialized_move_al_unchecked<char * __ptr64,char * __ptr64,std::allocator<char> >
PUBLIC	??$_Unchecked@PEAD@std@@YAPEADPEAD@Z		; std::_Unchecked<char * __ptr64>
PUBLIC	??$construct@PEADAEAPEAD@?$allocator@D@std@@QEAAXPEAPEADAEAPEAD@Z ; std::allocator<char>::construct<char * __ptr64,char * __ptr64 & __ptr64>
PUBLIC	??$destroy@PEAD@?$allocator@D@std@@QEAAXPEAPEAD@Z ; std::allocator<char>::destroy<char * __ptr64>
PUBLIC	??0?$_Wrap_alloc@V?$allocator@D@std@@@std@@QEAA@$$QEAU01@@Z ; std::_Wrap_alloc<std::allocator<char> >::_Wrap_alloc<std::allocator<char> >
PUBLIC	??$_Uninitialized_move@PEADPEADV?$allocator@D@std@@@std@@YAPEADPEAD00AEAU?$_Wrap_alloc@V?$allocator@D@std@@@0@@Z ; std::_Uninitialized_move<char * __ptr64,char * __ptr64,std::allocator<char> >
PUBLIC	??$_Destroy_range1@V?$allocator@D@std@@PEAD@std@@YAXPEAD0AEAU?$_Wrap_alloc@V?$allocator@D@std@@@0@U?$integral_constant@_N$00@0@@Z ; std::_Destroy_range1<std::allocator<char>,char * __ptr64>
PUBLIC	??$construct@PEADAEAPEAD@?$allocator_traits@V?$allocator@D@std@@@std@@SAXAEAV?$allocator@D@1@PEAPEADAEAPEAD@Z ; std::allocator_traits<std::allocator<char> >::construct<char * __ptr64,char * __ptr64 & __ptr64>
PUBLIC	??$forward@AEAPEAD@std@@YAAEAPEADAEAPEAD@Z	; std::forward<char * __ptr64 & __ptr64>
PUBLIC	??$destroy@PEAD@?$allocator_traits@V?$allocator@D@std@@@std@@SAXAEAV?$allocator@D@1@PEAPEAD@Z ; std::allocator_traits<std::allocator<char> >::destroy<char * __ptr64>
PUBLIC	??$forward@V?$allocator@D@std@@@std@@YA$$QEAV?$allocator@D@0@AEAV10@@Z ; std::forward<std::allocator<char> >
PUBLIC	??$_Uninitialized_default_fill_n1@PEAD_KV?$allocator@D@std@@@std@@YAPEADPEAD_KAEAU?$_Wrap_alloc@V?$allocator@D@std@@@0@U?$integral_constant@_N$00@0@@Z ; std::_Uninitialized_default_fill_n1<char * __ptr64,unsigned __int64,std::allocator<char> >
PUBLIC	??$?0U?$_Wrap_alloc@V?$allocator@D@std@@@std@@$$V@?$_Compressed_pair@U?$_Wrap_alloc@V?$allocator@D@std@@@std@@V?$_String_val@U?$_Simple_types@D@std@@@2@$00@std@@QEAA@U_One_then_variadic_args_t@1@$$QEAU?$_Wrap_alloc@V?$allocator@D@std@@@1@@Z ; std::_Compressed_pair<std::_Wrap_alloc<std::allocator<char> >,std::_String_val<std::_Simple_types<char> >,1>::_Compressed_pair<std::_Wrap_alloc<std::allocator<char> >,std::_String_val<std::_Simple_types<char> >,1><std::_Wrap_alloc<std::allocator<char> > >
PUBLIC	??$?0U?$_Wrap_alloc@V?$allocator@D@std@@@std@@$$V@?$_Compressed_pair@U?$_Wrap_alloc@V?$allocator@D@std@@@std@@V?$_Vector_val@U?$_Simple_types@D@std@@@2@$00@std@@QEAA@U_One_then_variadic_args_t@1@$$QEAU?$_Wrap_alloc@V?$allocator@D@std@@@1@@Z ; std::_Compressed_pair<std::_Wrap_alloc<std::allocator<char> >,std::_Vector_val<std::_Simple_types<char> >,1>::_Compressed_pair<std::_Wrap_alloc<std::allocator<char> >,std::_Vector_val<std::_Simple_types<char> >,1><std::_Wrap_alloc<std::allocator<char> > >
PUBLIC	??$forward@U?$_Wrap_alloc@V?$allocator@D@std@@@std@@@std@@YA$$QEAU?$_Wrap_alloc@V?$allocator@D@std@@@0@AEAU10@@Z ; std::forward<std::_Wrap_alloc<std::allocator<char> > >
PUBLIC	?_Get_first@?$_Compressed_pair@U?$_Wrap_alloc@V?$allocator@D@std@@@std@@V?$_Vector_val@U?$_Simple_types@D@std@@@2@$00@std@@QEBAAEBU?$_Wrap_alloc@V?$allocator@D@std@@@2@XZ ; std::_Compressed_pair<std::_Wrap_alloc<std::allocator<char> >,std::_Vector_val<std::_Simple_types<char> >,1>::_Get_first
PUBLIC	?clear@?$basic_ios@DU?$char_traits@D@std@@@std@@QEAAXH_N@Z ; std::basic_ios<char,std::char_traits<char> >::clear
PUBLIC	?tie@?$basic_ios@DU?$char_traits@D@std@@@std@@QEBAPEAV?$basic_ostream@DU?$char_traits@D@std@@@2@XZ ; std::basic_ios<char,std::char_traits<char> >::tie
PUBLIC	?pubsync@?$basic_streambuf@DU?$char_traits@D@std@@@std@@QEAAHXZ ; std::basic_streambuf<char,std::char_traits<char> >::pubsync
PUBLIC	?_Pninc@?$basic_streambuf@DU?$char_traits@D@std@@@std@@IEAAPEADXZ ; std::basic_streambuf<char,std::char_traits<char> >::_Pninc
PUBLIC	?_Pnavail@?$basic_streambuf@DU?$char_traits@D@std@@@std@@IEBA_JXZ ; std::basic_streambuf<char,std::char_traits<char> >::_Pnavail
PUBLIC	?_Osfx@?$basic_ostream@DU?$char_traits@D@std@@@std@@QEAAXXZ ; std::basic_ostream<char,std::char_traits<char> >::_Osfx
PUBLIC	??0?$allocator@D@std@@QEAA@XZ			; std::allocator<char>::allocator<char>
PUBLIC	??0_Bxty@?$_String_val@U?$_Simple_types@D@std@@@std@@QEAA@XZ ; std::_String_val<std::_Simple_types<char> >::_Bxty::_Bxty
PUBLIC	?_Umove_if_noexcept1@?$vector@DV?$allocator@D@std@@@std@@AEAAXPEAD00U?$integral_constant@_N$00@2@@Z ; std::vector<char,std::allocator<char> >::_Umove_if_noexcept1
PUBLIC	?_Getal@?$_Vector_alloc@U?$_Vec_base_types@DV?$allocator@D@std@@@std@@@std@@QEBAAEBU?$_Wrap_alloc@V?$allocator@D@std@@@2@XZ ; std::_Vector_alloc<std::_Vec_base_types<char,std::allocator<char> > >::_Getal
PUBLIC	?_Myend@?$_Vector_alloc@U?$_Vec_base_types@DV?$allocator@D@std@@@std@@@std@@QEBAAEBQEADXZ ; std::_Vector_alloc<std::_Vec_base_types<char,std::allocator<char> > >::_Myend
PUBLIC	??0_Sentry_base@?$basic_ostream@DU?$char_traits@D@std@@@std@@QEAA@AEAV12@@Z ; std::basic_ostream<char,std::char_traits<char> >::_Sentry_base::_Sentry_base
PUBLIC	??1_Sentry_base@?$basic_ostream@DU?$char_traits@D@std@@@std@@QEAA@XZ ; std::basic_ostream<char,std::char_traits<char> >::_Sentry_base::~_Sentry_base
PUBLIC	?setstate@?$basic_ios@DU?$char_traits@D@std@@@std@@QEAAXH_N@Z ; std::basic_ios<char,std::char_traits<char> >::setstate
PUBLIC	?rdbuf@?$basic_ios@DU?$char_traits@D@std@@@std@@QEBAPEAV?$basic_streambuf@DU?$char_traits@D@std@@@2@XZ ; std::basic_ios<char,std::char_traits<char> >::rdbuf
PUBLIC	?fill@?$basic_ios@DU?$char_traits@D@std@@@std@@QEBADXZ ; std::basic_ios<char,std::char_traits<char> >::fill
PUBLIC	?widen@?$basic_ios@DU?$char_traits@D@std@@@std@@QEBADD@Z ; std::basic_ios<char,std::char_traits<char> >::widen
PUBLIC	?sputc@?$basic_streambuf@DU?$char_traits@D@std@@@std@@QEAAHD@Z ; std::basic_streambuf<char,std::char_traits<char> >::sputc
PUBLIC	?put@?$basic_ostream@DU?$char_traits@D@std@@@std@@QEAAAEAV12@D@Z ; std::basic_ostream<char,std::char_traits<char> >::put
PUBLIC	?flush@?$basic_ostream@DU?$char_traits@D@std@@@std@@QEAAAEAV12@XZ ; std::basic_ostream<char,std::char_traits<char> >::flush
PUBLIC	??0?$_Wrap_alloc@V?$allocator@D@std@@@std@@QEAA@XZ ; std::_Wrap_alloc<std::allocator<char> >::_Wrap_alloc<std::allocator<char> >
PUBLIC	??0?$_String_val@U?$_Simple_types@D@std@@@std@@QEAA@XZ ; std::_String_val<std::_Simple_types<char> >::_String_val<std::_Simple_types<char> >
PUBLIC	?max_size@?$vector@DV?$allocator@D@std@@@std@@QEBA_KXZ ; std::vector<char,std::allocator<char> >::max_size
PUBLIC	?capacity@?$vector@DV?$allocator@D@std@@@std@@QEBA_KXZ ; std::vector<char,std::allocator<char> >::capacity
PUBLIC	?_Umove_if_noexcept@?$vector@DV?$allocator@D@std@@@std@@AEAAXPEAD00@Z ; std::vector<char,std::allocator<char> >::_Umove_if_noexcept
PUBLIC	?_Calculate_growth@?$vector@DV?$allocator@D@std@@@std@@AEBA_K_K@Z ; std::vector<char,std::allocator<char> >::_Calculate_growth
PUBLIC	?_Change_array@?$vector@DV?$allocator@D@std@@@std@@AEAAXQEAD_K1@Z ; std::vector<char,std::allocator<char> >::_Change_array
PUBLIC	?_Xlength@?$vector@DV?$allocator@D@std@@@std@@CAXXZ ; std::vector<char,std::allocator<char> >::_Xlength
PUBLIC	?_Orphan_range@?$vector@DV?$allocator@D@std@@@std@@AEBAXPEAD0@Z ; std::vector<char,std::allocator<char> >::_Orphan_range
PUBLIC	??0?$_Vector_val@U?$_Simple_types@D@std@@@std@@QEAA@XZ ; std::_Vector_val<std::_Simple_types<char> >::_Vector_val<std::_Simple_types<char> >
PUBLIC	??0sentry@?$basic_ostream@DU?$char_traits@D@std@@@std@@QEAA@AEAV12@@Z ; std::basic_ostream<char,std::char_traits<char> >::sentry::sentry
PUBLIC	??1sentry@?$basic_ostream@DU?$char_traits@D@std@@@std@@QEAA@XZ ; std::basic_ostream<char,std::char_traits<char> >::sentry::~sentry
PUBLIC	??Bsentry@?$basic_ostream@DU?$char_traits@D@std@@@std@@QEBA_NXZ ; std::basic_ostream<char,std::char_traits<char> >::sentry::operator bool
PUBLIC	??0?$_Immortalizer@V_Iostream_error_category@std@@@std@@QEAA@XZ ; std::_Immortalizer<std::_Iostream_error_category>::_Immortalizer<std::_Iostream_error_category>
PUBLIC	??1?$_Immortalizer@V_Iostream_error_category@std@@@std@@QEAA@XZ ; std::_Immortalizer<std::_Iostream_error_category>::~_Immortalizer<std::_Iostream_error_category>
PUBLIC	??0bad_cast@std@@QEAA@AEBV01@@Z			; std::bad_cast::bad_cast
PUBLIC	??__F_Static@?1???$_Immortalize@V_Iostream_error_category@std@@@std@@YAAEAV_Iostream_error_category@0@XZ@YAXXZ ; `std::_Immortalize<std::_Iostream_error_category>'::`2'::`dynamic atexit destructor for '_Static''
PUBLIC	??$_Min_value@_K@std@@YAAEB_KAEB_K0@Z		; std::_Min_value<unsigned __int64>
PUBLIC	??$_Unfancy@D@std@@YAPEADPEAD@Z			; std::_Unfancy<char>
PUBLIC	??$_Destroy_range@V?$allocator@D@std@@PEAD@std@@YAXPEAD0AEAU?$_Wrap_alloc@V?$allocator@D@std@@@0@@Z ; std::_Destroy_range<std::allocator<char>,char * __ptr64>
PUBLIC	??$construct@PEADAEAPEAD@?$_Wrap_alloc@V?$allocator@D@std@@@std@@QEAAXPEAPEADAEAPEAD@Z ; std::_Wrap_alloc<std::allocator<char> >::construct<char * __ptr64,char * __ptr64 & __ptr64>
PUBLIC	??$destroy@PEAD@?$_Wrap_alloc@V?$allocator@D@std@@@std@@QEAAXPEAPEAD@Z ; std::_Wrap_alloc<std::allocator<char> >::destroy<char * __ptr64>
PUBLIC	??$addressof@PEAD@std@@YAPEAPEADAEAPEAD@Z	; std::addressof<char * __ptr64>
PUBLIC	??$?0$$V@?$_Compressed_pair@U?$_Wrap_alloc@V?$allocator@D@std@@@std@@V?$_String_val@U?$_Simple_types@D@std@@@2@$00@std@@QEAA@U_Zero_then_variadic_args_t@1@@Z ; std::_Compressed_pair<std::_Wrap_alloc<std::allocator<char> >,std::_String_val<std::_Simple_types<char> >,1>::_Compressed_pair<std::_Wrap_alloc<std::allocator<char> >,std::_String_val<std::_Simple_types<char> >,1><>
PUBLIC	??$?0V?$allocator@D@std@@@?$_Wrap_alloc@V?$allocator@D@std@@@std@@QEAA@$$QEAV?$allocator@D@1@@Z ; std::_Wrap_alloc<std::allocator<char> >::_Wrap_alloc<std::allocator<char> ><std::allocator<char> >
PUBLIC	??$_Uninitialized_default_fill_n@PEAD_KV?$allocator@D@std@@@std@@YAPEADPEAD_KAEAU?$_Wrap_alloc@V?$allocator@D@std@@@0@@Z ; std::_Uninitialized_default_fill_n<char * __ptr64,unsigned __int64,std::allocator<char> >
PUBLIC	??$?0$$V@?$_Compressed_pair@U?$_Wrap_alloc@V?$allocator@D@std@@@std@@V?$_Vector_val@U?$_Simple_types@D@std@@@2@$00@std@@QEAA@U_Zero_then_variadic_args_t@1@@Z ; std::_Compressed_pair<std::_Wrap_alloc<std::allocator<char> >,std::_Vector_val<std::_Simple_types<char> >,1>::_Compressed_pair<std::_Wrap_alloc<std::allocator<char> >,std::_Vector_val<std::_Simple_types<char> >,1><>
PUBLIC	??$move@AEAV?$basic_string@DU?$char_traits@D@std@@V?$allocator@D@2@@std@@@std@@YA$$QEAV?$basic_string@DU?$char_traits@D@std@@V?$allocator@D@2@@0@AEAV10@@Z ; std::move<std::basic_string<char,std::char_traits<char>,std::allocator<char> > & __ptr64>
PUBLIC	??$?0U?$_Wrap_alloc@V?$allocator@D@std@@@std@@X@?$_String_alloc@U?$_String_base_types@DV?$allocator@D@std@@@std@@@std@@QEAA@$$QEAU?$_Wrap_alloc@V?$allocator@D@std@@@1@@Z ; std::_String_alloc<std::_String_base_types<char,std::allocator<char> > >::_String_alloc<std::_String_base_types<char,std::allocator<char> > ><std::_Wrap_alloc<std::allocator<char> >,void>
PUBLIC	??$move@AEAV?$vector@DV?$allocator@D@std@@@std@@@std@@YA$$QEAV?$vector@DV?$allocator@D@std@@@0@AEAV10@@Z ; std::move<std::vector<char,std::allocator<char> > & __ptr64>
PUBLIC	??$?0U?$_Wrap_alloc@V?$allocator@D@std@@@std@@X@?$_Vector_alloc@U?$_Vec_base_types@DV?$allocator@D@std@@@std@@@std@@QEAA@$$QEAU?$_Wrap_alloc@V?$allocator@D@std@@@1@@Z ; std::_Vector_alloc<std::_Vec_base_types<char,std::allocator<char> > >::_Vector_alloc<std::_Vec_base_types<char,std::allocator<char> > ><std::_Wrap_alloc<std::allocator<char> >,void>
PUBLIC	??$move@AEAU?$_Wrap_alloc@V?$allocator@D@std@@@std@@@std@@YA$$QEAU?$_Wrap_alloc@V?$allocator@D@std@@@0@AEAU10@@Z ; std::move<std::_Wrap_alloc<std::allocator<char> > & __ptr64>
PUBLIC	??$endl@DU?$char_traits@D@std@@@std@@YAAEAV?$basic_ostream@DU?$char_traits@D@std@@@0@AEAV10@@Z ; std::endl<char,std::char_traits<char> >
PUBLIC	??$?6U?$char_traits@D@std@@@std@@YAAEAV?$basic_ostream@DU?$char_traits@D@std@@@0@AEAV10@D@Z ; std::operator<<<std::char_traits<char> >
PUBLIC	??$_Immortalize@V_Iostream_error_category@std@@@std@@YAAEAV_Iostream_error_category@0@XZ ; std::_Immortalize<std::_Iostream_error_category>
PUBLIC	??$use_facet@V?$ctype@D@std@@@std@@YAAEBV?$ctype@D@0@AEBVlocale@0@@Z ; std::use_facet<std::ctype<char> >
PUBLIC	?max_size@?$allocator@D@std@@QEBA_KXZ		; std::allocator<char>::max_size
PUBLIC	?max_size@?$allocator_traits@V?$allocator@D@std@@@std@@SA_KAEBV?$allocator@D@2@@Z ; std::allocator_traits<std::allocator<char> >::max_size
PUBLIC	?allocate@?$allocator@D@std@@QEAAPEAD_K@Z	; std::allocator<char>::allocate
PUBLIC	?max_size@?$_Wrap_alloc@V?$allocator@D@std@@@std@@QEBA_KU_Nil@2@@Z ; std::_Wrap_alloc<std::allocator<char> >::max_size
PUBLIC	?max_size@?$basic_string@DU?$char_traits@D@std@@V?$allocator@D@2@@std@@QEBA_KXZ ; std::basic_string<char,std::char_traits<char>,std::allocator<char> >::max_size
PUBLIC	?allocate@?$_Wrap_alloc@V?$allocator@D@std@@@std@@QEAAPEAD_K@Z ; std::_Wrap_alloc<std::allocator<char> >::allocate
PUBLIC	??0?$allocator@D@std@@QEAA@AEBV01@@Z		; std::allocator<char>::allocator<char>
PUBLIC	?deallocate@?$allocator@D@std@@QEAAXPEAD_K@Z	; std::allocator<char>::deallocate
PUBLIC	?erase@?$basic_string@DU?$char_traits@D@std@@V?$allocator@D@2@@std@@QEAAAEAV12@_K@Z ; std::basic_string<char,std::char_traits<char>,std::allocator<char> >::erase
PUBLIC	?erase@?$basic_string@DU?$char_traits@D@std@@V?$allocator@D@2@@std@@QEAAAEAV12@_K0@Z ; std::basic_string<char,std::char_traits<char>,std::allocator<char> >::erase
PUBLIC	?_Copy@?$basic_string@DU?$char_traits@D@std@@V?$allocator@D@2@@std@@QEAAX_K@Z ; std::basic_string<char,std::char_traits<char>,std::allocator<char> >::_Copy
PUBLIC	?_Xran@?$basic_string@DU?$char_traits@D@std@@V?$allocator@D@2@@std@@SAXXZ ; std::basic_string<char,std::char_traits<char>,std::allocator<char> >::_Xran
PUBLIC	?_Orphan_all@?$_String_alloc@U?$_String_base_types@DV?$allocator@D@std@@@std@@@std@@QEAAXXZ ; std::_String_alloc<std::_String_base_types<char,std::allocator<char> > >::_Orphan_all
PUBLIC	?_Get_second@?$_Compressed_pair@U?$_Wrap_alloc@V?$allocator@D@std@@@std@@V?$_String_val@U?$_Simple_types@D@std@@@2@$00@std@@QEAAAEAV?$_String_val@U?$_Simple_types@D@std@@@2@XZ ; std::_Compressed_pair<std::_Wrap_alloc<std::allocator<char> >,std::_String_val<std::_Simple_types<char> >,1>::_Get_second
PUBLIC	?_Get_second@?$_Compressed_pair@U?$_Wrap_alloc@V?$allocator@D@std@@@std@@V?$_String_val@U?$_Simple_types@D@std@@@2@$00@std@@QEBAAEBV?$_String_val@U?$_Simple_types@D@std@@@2@XZ ; std::_Compressed_pair<std::_Wrap_alloc<std::allocator<char> >,std::_String_val<std::_Simple_types<char> >,1>::_Get_second
PUBLIC	?_Get_second@?$_Compressed_pair@U?$_Wrap_alloc@V?$allocator@D@std@@@std@@V?$_Vector_val@U?$_Simple_types@D@std@@@2@$00@std@@QEBAAEBV?$_Vector_val@U?$_Simple_types@D@std@@@2@XZ ; std::_Compressed_pair<std::_Wrap_alloc<std::allocator<char> >,std::_Vector_val<std::_Simple_types<char> >,1>::_Get_second
PUBLIC	?assign@?$basic_string@DU?$char_traits@D@std@@V?$allocator@D@2@@std@@QEAAAEAV12@AEBV12@_K_K@Z ; std::basic_string<char,std::char_traits<char>,std::allocator<char> >::assign
PUBLIC	?assign@?$basic_string@DU?$char_traits@D@std@@V?$allocator@D@2@@std@@QEAAAEAV12@QEBD_K@Z ; std::basic_string<char,std::char_traits<char>,std::allocator<char> >::assign
PUBLIC	?_Clamp_suffix_size@?$basic_string@DU?$char_traits@D@std@@V?$allocator@D@2@@std@@QEBA_K_K0@Z ; std::basic_string<char,std::char_traits<char>,std::allocator<char> >::_Clamp_suffix_size
PUBLIC	?_Eos@?$basic_string@DU?$char_traits@D@std@@V?$allocator@D@2@@std@@QEAAX_K@Z ; std::basic_string<char,std::char_traits<char>,std::allocator<char> >::_Eos
PUBLIC	?_Grow@?$basic_string@DU?$char_traits@D@std@@V?$allocator@D@2@@std@@QEAA_N_K@Z ; std::basic_string<char,std::char_traits<char>,std::allocator<char> >::_Grow
PUBLIC	?_Inside@?$basic_string@DU?$char_traits@D@std@@V?$allocator@D@2@@std@@QEBA_NQEBD@Z ; std::basic_string<char,std::char_traits<char>,std::allocator<char> >::_Inside
PUBLIC	?_Xlen@?$basic_string@DU?$char_traits@D@std@@V?$allocator@D@2@@std@@SAXXZ ; std::basic_string<char,std::char_traits<char>,std::allocator<char> >::_Xlen
PUBLIC	?_Check_offset@?$basic_string@DU?$char_traits@D@std@@V?$allocator@D@2@@std@@QEBAX_K@Z ; std::basic_string<char,std::char_traits<char>,std::allocator<char> >::_Check_offset
PUBLIC	?_Get_data@?$_String_alloc@U?$_String_base_types@DV?$allocator@D@std@@@std@@@std@@QEAAAEAV?$_String_val@U?$_Simple_types@D@std@@@2@XZ ; std::_String_alloc<std::_String_base_types<char,std::allocator<char> > >::_Get_data
PUBLIC	?_Get_data@?$_String_alloc@U?$_String_base_types@DV?$allocator@D@std@@@std@@@std@@QEBAAEBV?$_String_val@U?$_Simple_types@D@std@@@2@XZ ; std::_String_alloc<std::_String_base_types<char,std::allocator<char> > >::_Get_data
PUBLIC	?_Mysize@?$_String_alloc@U?$_String_base_types@DV?$allocator@D@std@@@std@@@std@@QEAAAEA_KXZ ; std::_String_alloc<std::_String_base_types<char,std::allocator<char> > >::_Mysize
PUBLIC	?_Myres@?$_String_alloc@U?$_String_base_types@DV?$allocator@D@std@@@std@@@std@@QEAAAEA_KXZ ; std::_String_alloc<std::_String_base_types<char,std::allocator<char> > >::_Myres
PUBLIC	?deallocate@?$_Wrap_alloc@V?$allocator@D@std@@@std@@QEAAXPEAD_K@Z ; std::_Wrap_alloc<std::allocator<char> >::deallocate
PUBLIC	?select_on_container_copy_construction@?$allocator_traits@V?$allocator@D@std@@@std@@SA?AV?$allocator@D@2@AEBV32@@Z ; std::allocator_traits<std::allocator<char> >::select_on_container_copy_construction
PUBLIC	?_Myptr@?$_String_val@U?$_Simple_types@D@std@@@std@@QEAAPEADXZ ; std::_String_val<std::_Simple_types<char> >::_Myptr
PUBLIC	?_Myptr@?$_String_val@U?$_Simple_types@D@std@@@std@@QEBAPEBDXZ ; std::_String_val<std::_Simple_types<char> >::_Myptr
PUBLIC	?_Large_string_engaged@?$_String_val@U?$_Simple_types@D@std@@@std@@QEBA_NXZ ; std::_String_val<std::_Simple_types<char> >::_Large_string_engaged
PUBLIC	?_Get_first@?$_Compressed_pair@U?$_Wrap_alloc@V?$allocator@D@std@@@std@@V?$_String_val@U?$_Simple_types@D@std@@@2@$00@std@@QEAAAEAU?$_Wrap_alloc@V?$allocator@D@std@@@2@XZ ; std::_Compressed_pair<std::_Wrap_alloc<std::allocator<char> >,std::_String_val<std::_Simple_types<char> >,1>::_Get_first
PUBLIC	?_Get_first@?$_Compressed_pair@U?$_Wrap_alloc@V?$allocator@D@std@@@std@@V?$_String_val@U?$_Simple_types@D@std@@@2@$00@std@@QEBAAEBU?$_Wrap_alloc@V?$allocator@D@std@@@2@XZ ; std::_Compressed_pair<std::_Wrap_alloc<std::allocator<char> >,std::_String_val<std::_Simple_types<char> >,1>::_Get_first
PUBLIC	?_Destroy@?$vector@DV?$allocator@D@std@@@std@@AEAAXPEAD0@Z ; std::vector<char,std::allocator<char> >::_Destroy
PUBLIC	?_Orphan_all@?$_Vector_alloc@U?$_Vec_base_types@DV?$allocator@D@std@@@std@@@std@@QEAAXXZ ; std::_Vector_alloc<std::_Vec_base_types<char,std::allocator<char> > >::_Orphan_all
PUBLIC	?_Swap_all@?$_Vector_alloc@U?$_Vec_base_types@DV?$allocator@D@std@@@std@@@std@@QEAAXAEAV12@@Z ; std::_Vector_alloc<std::_Vec_base_types<char,std::allocator<char> > >::_Swap_all
PUBLIC	?_Get_data@?$_Vector_alloc@U?$_Vec_base_types@DV?$allocator@D@std@@@std@@@std@@QEBAAEBV?$_Vector_val@U?$_Simple_types@D@std@@@2@XZ ; std::_Vector_alloc<std::_Vec_base_types<char,std::allocator<char> > >::_Get_data
PUBLIC	?_Myend@?$_Vector_alloc@U?$_Vec_base_types@DV?$allocator@D@std@@@std@@@std@@QEAAAEAPEADXZ ; std::_Vector_alloc<std::_Vec_base_types<char,std::allocator<char> > >::_Myend
PUBLIC	??0?$_Vector_const_iterator@V?$_Vector_val@U?$_Simple_types@D@std@@@std@@@std@@QEAA@PEADPEBU_Container_base0@1@@Z ; std::_Vector_const_iterator<std::_Vector_val<std::_Simple_types<char> > >::_Vector_const_iterator<std::_Vector_val<std::_Simple_types<char> > >
PUBLIC	?_Compat@?$_Vector_const_iterator@V?$_Vector_val@U?$_Simple_types@D@std@@@std@@@std@@QEBAXAEBV12@@Z ; std::_Vector_const_iterator<std::_Vector_val<std::_Simple_types<char> > >::_Compat
PUBLIC	?_Get_first@?$_Compressed_pair@U?$_Wrap_alloc@V?$allocator@D@std@@@std@@V?$_Vector_val@U?$_Simple_types@D@std@@@2@$00@std@@QEAAAEAU?$_Wrap_alloc@V?$allocator@D@std@@@2@XZ ; std::_Compressed_pair<std::_Wrap_alloc<std::allocator<char> >,std::_Vector_val<std::_Simple_types<char> >,1>::_Get_first
PUBLIC	?_Get_second@?$_Compressed_pair@U?$_Wrap_alloc@V?$allocator@D@std@@@std@@V?$_Vector_val@U?$_Simple_types@D@std@@@2@$00@std@@QEAAAEAV?$_Vector_val@U?$_Simple_types@D@std@@@2@XZ ; std::_Compressed_pair<std::_Wrap_alloc<std::allocator<char> >,std::_Vector_val<std::_Simple_types<char> >,1>::_Get_second
PUBLIC	?_Assign_rv_contents@?$basic_string@DU?$char_traits@D@std@@V?$allocator@D@2@@std@@QEAAX$$QEAV12@@Z ; std::basic_string<char,std::char_traits<char>,std::allocator<char> >::_Assign_rv_contents
PUBLIC	?_Assign_lv_contents@?$basic_string@DU?$char_traits@D@std@@V?$allocator@D@2@@std@@QEAAXAEBV12@@Z ; std::basic_string<char,std::char_traits<char>,std::allocator<char> >::_Assign_lv_contents
PUBLIC	?append@?$basic_string@DU?$char_traits@D@std@@V?$allocator@D@2@@std@@QEAAAEAV12@AEBV12@_K_K@Z ; std::basic_string<char,std::char_traits<char>,std::allocator<char> >::append
PUBLIC	?append@?$basic_string@DU?$char_traits@D@std@@V?$allocator@D@2@@std@@QEAAAEAV12@QEBD_K@Z ; std::basic_string<char,std::char_traits<char>,std::allocator<char> >::append
PUBLIC	?assign@?$basic_string@DU?$char_traits@D@std@@V?$allocator@D@2@@std@@QEAAAEAV12@QEBD@Z ; std::basic_string<char,std::char_traits<char>,std::allocator<char> >::assign
PUBLIC	?_Tidy_init@?$basic_string@DU?$char_traits@D@std@@V?$allocator@D@2@@std@@QEAAXXZ ; std::basic_string<char,std::char_traits<char>,std::allocator<char> >::_Tidy_init
PUBLIC	?_Tidy_deallocate_only@?$basic_string@DU?$char_traits@D@std@@V?$allocator@D@2@@std@@QEAAXXZ ; std::basic_string<char,std::char_traits<char>,std::allocator<char> >::_Tidy_deallocate_only
PUBLIC	?_Myptr@?$_String_alloc@U?$_String_base_types@DV?$allocator@D@std@@@std@@@std@@QEAAPEADXZ ; std::_String_alloc<std::_String_base_types<char,std::allocator<char> > >::_Myptr
PUBLIC	?_Myptr@?$_String_alloc@U?$_String_base_types@DV?$allocator@D@std@@@std@@@std@@QEBAPEBDXZ ; std::_String_alloc<std::_String_base_types<char,std::allocator<char> > >::_Myptr
PUBLIC	??0?$_String_alloc@U?$_String_base_types@DV?$allocator@D@std@@@std@@@std@@QEAA@XZ ; std::_String_alloc<std::_String_base_types<char,std::allocator<char> > >::_String_alloc<std::_String_base_types<char,std::allocator<char> > >
PUBLIC	?_Getal@?$_String_alloc@U?$_String_base_types@DV?$allocator@D@std@@@std@@@std@@QEAAAEAU?$_Wrap_alloc@V?$allocator@D@std@@@2@XZ ; std::_String_alloc<std::_String_base_types<char,std::allocator<char> > >::_Getal
PUBLIC	?_Getal@?$_String_alloc@U?$_String_base_types@DV?$allocator@D@std@@@std@@@std@@QEBAAEBU?$_Wrap_alloc@V?$allocator@D@std@@@2@XZ ; std::_String_alloc<std::_String_base_types<char,std::allocator<char> > >::_Getal
PUBLIC	?_Mysize@?$_String_alloc@U?$_String_base_types@DV?$allocator@D@std@@@std@@@std@@QEBAAEB_KXZ ; std::_String_alloc<std::_String_base_types<char,std::allocator<char> > >::_Mysize
PUBLIC	?select_on_container_copy_construction@?$_Wrap_alloc@V?$allocator@D@std@@@std@@QEBA?AU12@U_Nil@2@@Z ; std::_Wrap_alloc<std::allocator<char> >::select_on_container_copy_construction
PUBLIC	??1_Bxty@?$_String_val@U?$_Simple_types@D@std@@@std@@QEAA@XZ ; std::_String_val<std::_Simple_types<char> >::_Bxty::~_Bxty
PUBLIC	?_Tidy@?$_Yarn@D@std@@AEAAXXZ			; std::_Yarn<char>::_Tidy
PUBLIC	?_Tidy@?$_Yarn@_W@std@@AEAAXXZ			; std::_Yarn<wchar_t>::_Tidy
PUBLIC	?_Move_from@?$vector@DV?$allocator@D@std@@@std@@AEAAX$$QEAV12@U?$integral_constant@_N$00@2@@Z ; std::vector<char,std::allocator<char> >::_Move_from
PUBLIC	?_Udefault@?$vector@DV?$allocator@D@std@@@std@@AEAAPEADPEAD_K@Z ; std::vector<char,std::allocator<char> >::_Udefault
PUBLIC	?_Tidy@?$vector@DV?$allocator@D@std@@@std@@AEAAXXZ ; std::vector<char,std::allocator<char> >::_Tidy
PUBLIC	??0?$_Vector_alloc@U?$_Vec_base_types@DV?$allocator@D@std@@@std@@@std@@QEAA@XZ ; std::_Vector_alloc<std::_Vec_base_types<char,std::allocator<char> > >::_Vector_alloc<std::_Vec_base_types<char,std::allocator<char> > >
PUBLIC	?_Getal@?$_Vector_alloc@U?$_Vec_base_types@DV?$allocator@D@std@@@std@@@std@@QEAAAEAU?$_Wrap_alloc@V?$allocator@D@std@@@2@XZ ; std::_Vector_alloc<std::_Vec_base_types<char,std::allocator<char> > >::_Getal
PUBLIC	?_Get_data@?$_Vector_alloc@U?$_Vec_base_types@DV?$allocator@D@std@@@std@@@std@@QEAAAEAV?$_Vector_val@U?$_Simple_types@D@std@@@2@XZ ; std::_Vector_alloc<std::_Vec_base_types<char,std::allocator<char> > >::_Get_data
PUBLIC	?_Myfirst@?$_Vector_alloc@U?$_Vec_base_types@DV?$allocator@D@std@@@std@@@std@@QEAAAEAPEADXZ ; std::_Vector_alloc<std::_Vec_base_types<char,std::allocator<char> > >::_Myfirst
PUBLIC	?_Myfirst@?$_Vector_alloc@U?$_Vec_base_types@DV?$allocator@D@std@@@std@@@std@@QEBAAEBQEADXZ ; std::_Vector_alloc<std::_Vec_base_types<char,std::allocator<char> > >::_Myfirst
PUBLIC	?_Mylast@?$_Vector_alloc@U?$_Vec_base_types@DV?$allocator@D@std@@@std@@@std@@QEAAAEAPEADXZ ; std::_Vector_alloc<std::_Vec_base_types<char,std::allocator<char> > >::_Mylast
PUBLIC	?_Mylast@?$_Vector_alloc@U?$_Vec_base_types@DV?$allocator@D@std@@@std@@@std@@QEBAAEBQEADXZ ; std::_Vector_alloc<std::_Vec_base_types<char,std::allocator<char> > >::_Mylast
PUBLIC	??0?$_Vector_iterator@V?$_Vector_val@U?$_Simple_types@D@std@@@std@@@std@@QEAA@PEADPEBU_Container_base0@1@@Z ; std::_Vector_iterator<std::_Vector_val<std::_Simple_types<char> > >::_Vector_iterator<std::_Vector_val<std::_Simple_types<char> > >
PUBLIC	??D?$_Vector_const_iterator@V?$_Vector_val@U?$_Simple_types@D@std@@@std@@@std@@QEBAAEBDXZ ; std::_Vector_const_iterator<std::_Vector_val<std::_Simple_types<char> > >::operator*
PUBLIC	??E?$_Vector_const_iterator@V?$_Vector_val@U?$_Simple_types@D@std@@@std@@@std@@QEAAAEAV01@XZ ; std::_Vector_const_iterator<std::_Vector_val<std::_Simple_types<char> > >::operator++
PUBLIC	??8?$_Vector_const_iterator@V?$_Vector_val@U?$_Simple_types@D@std@@@std@@@std@@QEBA_NAEBV01@@Z ; std::_Vector_const_iterator<std::_Vector_val<std::_Simple_types<char> > >::operator==
PUBLIC	??1?$_String_val@U?$_Simple_types@D@std@@@std@@QEAA@XZ ; std::_String_val<std::_Simple_types<char> >::~_String_val<std::_Simple_types<char> >
PUBLIC	??1?$_Compressed_pair@U?$_Wrap_alloc@V?$allocator@D@std@@@std@@V?$_String_val@U?$_Simple_types@D@std@@@2@$00@std@@QEAA@XZ ; std::_Compressed_pair<std::_Wrap_alloc<std::allocator<char> >,std::_String_val<std::_Simple_types<char> >,1>::~_Compressed_pair<std::_Wrap_alloc<std::allocator<char> >,std::_String_val<std::_Simple_types<char> >,1>
PUBLIC	??1?$_String_alloc@U?$_String_base_types@DV?$allocator@D@std@@@std@@@std@@QEAA@XZ ; std::_String_alloc<std::_String_base_types<char,std::allocator<char> > >::~_String_alloc<std::_String_base_types<char,std::allocator<char> > >
PUBLIC	??6?$basic_ostream@DU?$char_traits@D@std@@@std@@QEAAAEAV01@P6AAEAV01@AEAV01@@Z@Z ; std::basic_ostream<char,std::char_traits<char> >::operator<<
PUBLIC	??0?$basic_string@DU?$char_traits@D@std@@V?$allocator@D@2@@std@@QEAA@AEBV01@@Z ; std::basic_string<char,std::char_traits<char>,std::allocator<char> >::basic_string<char,std::char_traits<char>,std::allocator<char> >
PUBLIC	??0?$basic_string@DU?$char_traits@D@std@@V?$allocator@D@2@@std@@QEAA@QEBD@Z ; std::basic_string<char,std::char_traits<char>,std::allocator<char> >::basic_string<char,std::char_traits<char>,std::allocator<char> >
PUBLIC	??0?$basic_string@DU?$char_traits@D@std@@V?$allocator@D@2@@std@@QEAA@$$QEAV01@@Z ; std::basic_string<char,std::char_traits<char>,std::allocator<char> >::basic_string<char,std::char_traits<char>,std::allocator<char> >
PUBLIC	??1?$basic_string@DU?$char_traits@D@std@@V?$allocator@D@2@@std@@QEAA@XZ ; std::basic_string<char,std::char_traits<char>,std::allocator<char> >::~basic_string<char,std::char_traits<char>,std::allocator<char> >
PUBLIC	?append@?$basic_string@DU?$char_traits@D@std@@V?$allocator@D@2@@std@@QEAAAEAV12@AEBV12@@Z ; std::basic_string<char,std::char_traits<char>,std::allocator<char> >::append
PUBLIC	?append@?$basic_string@DU?$char_traits@D@std@@V?$allocator@D@2@@std@@QEAAAEAV12@QEBD@Z ; std::basic_string<char,std::char_traits<char>,std::allocator<char> >::append
PUBLIC	?c_str@?$basic_string@DU?$char_traits@D@std@@V?$allocator@D@2@@std@@QEBAPEBDXZ ; std::basic_string<char,std::char_traits<char>,std::allocator<char> >::c_str
PUBLIC	?empty@?$basic_string@DU?$char_traits@D@std@@V?$allocator@D@2@@std@@QEBA_NXZ ; std::basic_string<char,std::char_traits<char>,std::allocator<char> >::empty
PUBLIC	??0?$_Yarn@D@std@@QEAA@XZ			; std::_Yarn<char>::_Yarn<char>
PUBLIC	??1?$_Yarn@D@std@@QEAA@XZ			; std::_Yarn<char>::~_Yarn<char>
PUBLIC	?c_str@?$_Yarn@D@std@@QEBAPEBDXZ		; std::_Yarn<char>::c_str
PUBLIC	??0?$_Yarn@_W@std@@QEAA@XZ			; std::_Yarn<wchar_t>::_Yarn<wchar_t>
PUBLIC	??1?$_Yarn@_W@std@@QEAA@XZ			; std::_Yarn<wchar_t>::~_Yarn<wchar_t>
PUBLIC	??0?$vector@DV?$allocator@D@std@@@std@@QEAA@XZ	; std::vector<char,std::allocator<char> >::vector<char,std::allocator<char> >
PUBLIC	??0?$vector@DV?$allocator@D@std@@@std@@QEAA@$$QEAV01@@Z ; std::vector<char,std::allocator<char> >::vector<char,std::allocator<char> >
PUBLIC	??1?$vector@DV?$allocator@D@std@@@std@@QEAA@XZ	; std::vector<char,std::allocator<char> >::~vector<char,std::allocator<char> >
PUBLIC	?resize@?$vector@DV?$allocator@D@std@@@std@@QEAAX_K@Z ; std::vector<char,std::allocator<char> >::resize
PUBLIC	?begin@?$vector@DV?$allocator@D@std@@@std@@QEAA?AV?$_Vector_iterator@V?$_Vector_val@U?$_Simple_types@D@std@@@std@@@2@XZ ; std::vector<char,std::allocator<char> >::begin
PUBLIC	?end@?$vector@DV?$allocator@D@std@@@std@@QEAA?AV?$_Vector_iterator@V?$_Vector_val@U?$_Simple_types@D@std@@@std@@@2@XZ ; std::vector<char,std::allocator<char> >::end
PUBLIC	?size@?$vector@DV?$allocator@D@std@@@std@@QEBA_KXZ ; std::vector<char,std::allocator<char> >::size
PUBLIC	??A?$vector@DV?$allocator@D@std@@@std@@QEAAAEAD_K@Z ; std::vector<char,std::allocator<char> >::operator[]
PUBLIC	??D?$_Vector_iterator@V?$_Vector_val@U?$_Simple_types@D@std@@@std@@@std@@QEBAAEADXZ ; std::_Vector_iterator<std::_Vector_val<std::_Simple_types<char> > >::operator*
PUBLIC	??E?$_Vector_iterator@V?$_Vector_val@U?$_Simple_types@D@std@@@std@@@std@@QEAAAEAV01@XZ ; std::_Vector_iterator<std::_Vector_val<std::_Simple_types<char> > >::operator++
PUBLIC	??9?$_Vector_const_iterator@V?$_Vector_val@U?$_Simple_types@D@std@@@std@@@std@@QEBA_NAEBV01@@Z ; std::_Vector_const_iterator<std::_Vector_val<std::_Simple_types<char> > >::operator!=
PUBLIC	main
PUBLIC	?setVector@@YA?AV?$vector@DV?$allocator@D@std@@@std@@D@Z ; setVector
PUBLIC	??0_System_error@std@@QEAA@AEBV01@@Z		; std::_System_error::_System_error
PUBLIC	??0system_error@std@@QEAA@AEBV01@@Z		; std::system_error::system_error
PUBLIC	??0failure@ios_base@std@@QEAA@AEBV012@@Z	; std::ios_base::failure::failure
PUBLIC	??1failure@ios_base@std@@UEAA@XZ		; std::ios_base::failure::~failure
PUBLIC	??_Gfailure@ios_base@std@@UEAAPEAXI@Z		; std::ios_base::failure::`scalar deleting destructor'
PUBLIC	?getloc@ios_base@std@@QEBA?AVlocale@2@XZ	; std::ios_base::getloc
PUBLIC	?width@ios_base@std@@QEAA_J_J@Z			; std::ios_base::width
PUBLIC	?width@ios_base@std@@QEBA_JXZ			; std::ios_base::width
PUBLIC	?flags@ios_base@std@@QEBAHXZ			; std::ios_base::flags
PUBLIC	?good@ios_base@std@@QEBA_NXZ			; std::ios_base::good
PUBLIC	?rdstate@ios_base@std@@QEBAHXZ			; std::ios_base::rdstate
PUBLIC	?clear@ios_base@std@@QEAAXH_N@Z			; std::ios_base::clear
PUBLIC	??0failure@ios_base@std@@QEAA@PEBDAEBVerror_code@2@@Z ; std::ios_base::failure::failure
PUBLIC	?iostream_category@std@@YAAEBVerror_category@1@XZ ; std::iostream_category
PUBLIC	??1_Iostream_error_category@std@@UEAA@XZ	; std::_Iostream_error_category::~_Iostream_error_category
PUBLIC	??_G_Iostream_error_category@std@@UEAAPEAXI@Z	; std::_Iostream_error_category::`scalar deleting destructor'
PUBLIC	?message@_Iostream_error_category@std@@UEBA?AV?$basic_string@DU?$char_traits@D@std@@V?$allocator@D@2@@2@H@Z ; std::_Iostream_error_category::message
PUBLIC	?name@_Iostream_error_category@std@@UEBAPEBDXZ	; std::_Iostream_error_category::name
PUBLIC	??0_Iostream_error_category@std@@QEAA@XZ	; std::_Iostream_error_category::_Iostream_error_category
PUBLIC	??1_Generic_error_category@std@@UEAA@XZ		; std::_Generic_error_category::~_Generic_error_category
PUBLIC	??_G_Generic_error_category@std@@UEAAPEAXI@Z	; std::_Generic_error_category::`scalar deleting destructor'
PUBLIC	?message@_Generic_error_category@std@@UEBA?AV?$basic_string@DU?$char_traits@D@std@@V?$allocator@D@2@@2@H@Z ; std::_Generic_error_category::message
PUBLIC	?name@_Generic_error_category@std@@UEBAPEBDXZ	; std::_Generic_error_category::name
PUBLIC	??0_Generic_error_category@std@@QEAA@XZ		; std::_Generic_error_category::_Generic_error_category
PUBLIC	??1system_error@std@@UEAA@XZ			; std::system_error::~system_error
PUBLIC	??_Gsystem_error@std@@UEAAPEAXI@Z		; std::system_error::`scalar deleting destructor'
PUBLIC	??0system_error@std@@QEAA@Verror_code@1@PEBD@Z	; std::system_error::system_error
PUBLIC	??1_System_error@std@@UEAA@XZ			; std::_System_error::~_System_error
PUBLIC	??_G_System_error@std@@UEAAPEAXI@Z		; std::_System_error::`scalar deleting destructor'
PUBLIC	??0_System_error@std@@IEAA@Verror_code@1@AEBV?$basic_string@DU?$char_traits@D@std@@V?$allocator@D@2@@1@@Z ; std::_System_error::_System_error
PUBLIC	?_Makestr@_System_error@std@@CA?AV?$basic_string@DU?$char_traits@D@std@@V?$allocator@D@2@@2@Verror_code@2@V32@@Z ; std::_System_error::_Makestr
PUBLIC	?make_error_code@std@@YA?AVerror_code@1@W4io_errc@1@@Z ; std::make_error_code
PUBLIC	?equivalent@error_category@std@@UEBA_NAEBVerror_code@2@H@Z ; std::error_category::equivalent
PUBLIC	?equivalent@error_category@std@@UEBA_NHAEBVerror_condition@2@@Z ; std::error_category::equivalent
PUBLIC	?default_error_condition@error_category@std@@UEBA?AVerror_condition@2@H@Z ; std::error_category::default_error_condition
PUBLIC	??8std@@YA_NAEBVerror_condition@0@0@Z		; std::operator==
PUBLIC	?category@error_condition@std@@QEBAAEBVerror_category@2@XZ ; std::error_condition::category
PUBLIC	?value@error_condition@std@@QEBAHXZ		; std::error_condition::value
PUBLIC	??0error_condition@std@@QEAA@HAEBVerror_category@1@@Z ; std::error_condition::error_condition
PUBLIC	?message@error_code@std@@QEBA?AV?$basic_string@DU?$char_traits@D@std@@V?$allocator@D@2@@2@XZ ; std::error_code::message
PUBLIC	?category@error_code@std@@QEBAAEBVerror_category@2@XZ ; std::error_code::category
PUBLIC	?value@error_code@std@@QEBAHXZ			; std::error_code::value
PUBLIC	??0error_code@std@@QEAA@HAEBVerror_category@1@@Z ; std::error_code::error_code
PUBLIC	??_Gerror_category@std@@UEAAPEAXI@Z		; std::error_category::`scalar deleting destructor'
PUBLIC	??8error_category@std@@QEBA_NAEBV01@@Z		; std::error_category::operator==
PUBLIC	??1error_category@std@@UEAA@XZ			; std::error_category::~error_category
PUBLIC	??0error_category@std@@QEAA@XZ			; std::error_category::error_category
PUBLIC	??_G?$ctype@D@std@@MEAAPEAXI@Z			; std::ctype<char>::`scalar deleting destructor'
PUBLIC	?do_narrow@?$ctype@D@std@@MEBAPEBDPEBD0DPEAD@Z	; std::ctype<char>::do_narrow
PUBLIC	?do_narrow@?$ctype@D@std@@MEBADDD@Z		; std::ctype<char>::do_narrow
PUBLIC	?do_widen@?$ctype@D@std@@MEBAPEBDPEBD0PEAD@Z	; std::ctype<char>::do_widen
PUBLIC	?do_widen@?$ctype@D@std@@MEBADD@Z		; std::ctype<char>::do_widen
PUBLIC	?do_toupper@?$ctype@D@std@@MEBAPEBDPEADPEBD@Z	; std::ctype<char>::do_toupper
PUBLIC	?do_toupper@?$ctype@D@std@@MEBADD@Z		; std::ctype<char>::do_toupper
PUBLIC	?do_tolower@?$ctype@D@std@@MEBAPEBDPEADPEBD@Z	; std::ctype<char>::do_tolower
PUBLIC	?do_tolower@?$ctype@D@std@@MEBADD@Z		; std::ctype<char>::do_tolower
PUBLIC	?_Tidy@?$ctype@D@std@@IEAAXXZ			; std::ctype<char>::_Tidy
PUBLIC	?_Init@?$ctype@D@std@@IEAAXAEBV_Locinfo@2@@Z	; std::ctype<char>::_Init
PUBLIC	??1?$ctype@D@std@@MEAA@XZ			; std::ctype<char>::~ctype<char>
PUBLIC	?_Getcat@?$ctype@D@std@@SA_KPEAPEBVfacet@locale@2@PEBV42@@Z ; std::ctype<char>::_Getcat
PUBLIC	??0?$ctype@D@std@@QEAA@AEBV_Locinfo@1@_K@Z	; std::ctype<char>::ctype<char>
PUBLIC	?widen@?$ctype@D@std@@QEBADD@Z			; std::ctype<char>::widen
PUBLIC	??_Gctype_base@std@@UEAAPEAXI@Z			; std::ctype_base::`scalar deleting destructor'
PUBLIC	??1ctype_base@std@@UEAA@XZ			; std::ctype_base::~ctype_base
PUBLIC	??0ctype_base@std@@QEAA@_K@Z			; std::ctype_base::ctype_base
PUBLIC	??0_Facet_base@std@@QEAA@XZ			; std::_Facet_base::_Facet_base
PUBLIC	??_Gfacet@locale@std@@MEAAPEAXI@Z		; std::locale::facet::`scalar deleting destructor'
PUBLIC	?_Getfacet@locale@std@@QEBAPEBVfacet@12@_K@Z	; std::locale::_Getfacet
PUBLIC	?c_str@locale@std@@QEBAPEBDXZ			; std::locale::c_str
PUBLIC	??1locale@std@@QEAA@XZ				; std::locale::~locale
PUBLIC	??0locale@std@@QEAA@AEBV01@@Z			; std::locale::locale
PUBLIC	??1facet@locale@std@@MEAA@XZ			; std::locale::facet::~facet
PUBLIC	??0facet@locale@std@@IEAA@_K@Z			; std::locale::facet::facet
PUBLIC	?_Decref@facet@locale@std@@UEAAPEAV_Facet_base@3@XZ ; std::locale::facet::_Decref
PUBLIC	?_Incref@facet@locale@std@@UEAAXXZ		; std::locale::facet::_Incref
PUBLIC	??Bid@locale@std@@QEAA_KXZ			; std::locale::id::operator unsigned __int64
PUBLIC	??_G_Facet_base@std@@UEAAPEAXI@Z		; std::_Facet_base::`scalar deleting destructor'
PUBLIC	??1_Facet_base@std@@UEAA@XZ			; std::_Facet_base::~_Facet_base
PUBLIC	??0runtime_error@std@@QEAA@AEBV01@@Z		; std::runtime_error::runtime_error
PUBLIC	?_Getctype@_Locinfo@std@@QEBA?AU_Ctypevec@@XZ	; std::_Locinfo::_Getctype
PUBLIC	??1_Locinfo@std@@QEAA@XZ			; std::_Locinfo::~_Locinfo
PUBLIC	??0_Locinfo@std@@QEAA@PEBD@Z			; std::_Locinfo::_Locinfo
PUBLIC	??1bad_cast@std@@UEAA@XZ			; std::bad_cast::~bad_cast
PUBLIC	??_Gbad_cast@std@@UEAAPEAXI@Z			; std::bad_cast::`scalar deleting destructor'
PUBLIC	??0bad_cast@std@@QEAA@XZ			; std::bad_cast::bad_cast
PUBLIC	??1runtime_error@std@@UEAA@XZ			; std::runtime_error::~runtime_error
PUBLIC	??_Gruntime_error@std@@UEAAPEAXI@Z		; std::runtime_error::`scalar deleting destructor'
PUBLIC	??0runtime_error@std@@QEAA@PEBD@Z		; std::runtime_error::runtime_error
PUBLIC	??0runtime_error@std@@QEAA@AEBV?$basic_string@DU?$char_traits@D@std@@V?$allocator@D@2@@1@@Z ; std::runtime_error::runtime_error
PUBLIC	?_Deallocate@std@@YAXPEAX_K1@Z			; std::_Deallocate
PUBLIC	?_Allocate@std@@YAPEAX_K0_N@Z			; std::_Allocate
PUBLIC	?_Adopt@_Iterator_base0@std@@QEAAXPEBX@Z	; std::_Iterator_base0::_Adopt
PUBLIC	?_Swap_all@_Container_base0@std@@QEAAXAEAU12@@Z	; std::_Container_base0::_Swap_all
PUBLIC	?_Orphan_all@_Container_base0@std@@QEAAXXZ	; std::_Container_base0::_Orphan_all
PUBLIC	?eof@?$char_traits@D@std@@SAHXZ			; std::char_traits<char>::eof
PUBLIC	?eq_int_type@?$char_traits@D@std@@SA_NAEBH0@Z	; std::char_traits<char>::eq_int_type
PUBLIC	?to_int_type@?$char_traits@D@std@@SAHAEBD@Z	; std::char_traits<char>::to_int_type
PUBLIC	?assign@?$char_traits@D@std@@SAXAEADAEBD@Z	; std::char_traits<char>::assign
PUBLIC	?move@?$char_traits@D@std@@SAPEADQEADQEBD_K@Z	; std::char_traits<char>::move
PUBLIC	?copy@?$char_traits@D@std@@SAPEADQEADQEBD_K@Z	; std::char_traits<char>::copy
PUBLIC	?length@?$char_traits@D@std@@SA_KQEBD@Z		; std::char_traits<char>::length
PUBLIC	??2@YAPEAX_KPEAX@Z				; operator new
PUBLIC	??_Gexception@std@@UEAAPEAXI@Z			; std::exception::`scalar deleting destructor'
PUBLIC	?what@exception@std@@UEBAPEBDXZ			; std::exception::what
PUBLIC	??1exception@std@@UEAA@XZ			; std::exception::~exception
PUBLIC	??0exception@std@@QEAA@AEBV01@@Z		; std::exception::exception
PUBLIC	??0exception@std@@QEAA@QEBDH@Z			; std::exception::exception
PUBLIC	??0exception@std@@QEAA@QEBD@Z			; std::exception::exception
PUBLIC	?$TSS0@?1???$_Immortalize@V_Iostream_error_category@std@@@std@@YAAEAV_Iostream_error_category@1@XZ@4HA ; TSS0<`template-parameter-2',unsigned int,std::V_Iostream_error_category::mortalize>
PUBLIC	?_Static@?1???$_Immortalize@V_Iostream_error_category@std@@@std@@YAAEAV_Iostream_error_category@1@XZ@4U?$_Immortalizer@V_Iostream_error_category@std@@@1@A ; `std::_Immortalize<std::_Iostream_error_category>'::`2'::_Static
EXTRN	??_Ebad_cast@std@@UEAAPEAXI@Z:PROC		; std::bad_cast::`vector deleting destructor'
EXTRN	??_Efacet@locale@std@@MEAAPEAXI@Z:PROC		; std::locale::facet::`vector deleting destructor'
EXTRN	??_E_System_error@std@@UEAAPEAXI@Z:PROC		; std::_System_error::`vector deleting destructor'
EXTRN	??_Eexception@std@@UEAAPEAXI@Z:PROC		; std::exception::`vector deleting destructor'
EXTRN	??_Efailure@ios_base@std@@UEAAPEAXI@Z:PROC	; std::ios_base::failure::`vector deleting destructor'
EXTRN	??_E?$ctype@D@std@@MEAAPEAXI@Z:PROC		; std::ctype<char>::`vector deleting destructor'
EXTRN	??_E_Iostream_error_category@std@@UEAAPEAXI@Z:PROC ; std::_Iostream_error_category::`vector deleting destructor'
EXTRN	??_Esystem_error@std@@UEAAPEAXI@Z:PROC		; std::system_error::`vector deleting destructor'
EXTRN	??_Eruntime_error@std@@UEAAPEAXI@Z:PROC		; std::runtime_error::`vector deleting destructor'
EXTRN	??_Ectype_base@std@@UEAAPEAXI@Z:PROC		; std::ctype_base::`vector deleting destructor'
EXTRN	??_Eerror_category@std@@UEAAPEAXI@Z:PROC	; std::error_category::`vector deleting destructor'
EXTRN	??_E_Facet_base@std@@UEAAPEAXI@Z:PROC		; std::_Facet_base::`vector deleting destructor'
EXTRN	??_E_Generic_error_category@std@@UEAAPEAXI@Z:PROC ; std::_Generic_error_category::`vector deleting destructor'
EXTRN	_CxxThrowException:PROC
EXTRN	__GSHandlerCheck:PROC
EXTRN	__GSHandlerCheck_EH:PROC
EXTRN	memcpy:PROC
EXTRN	memset:PROC
EXTRN	__security_cookie:QWORD
EXTRN	_tls_index:DWORD
;	COMDAT ?$TSS0@?1???$_Immortalize@V_Iostream_error_category@std@@@std@@YAAEAV_Iostream_error_category@1@XZ@4HA
_BSS	SEGMENT
?$TSS0@?1???$_Immortalize@V_Iostream_error_category@std@@@std@@YAAEAV_Iostream_error_category@1@XZ@4HA DD 01H DUP (?) ; TSS0<`template-parameter-2',unsigned int,std::V_Iostream_error_category::mortalize>
_BSS	ENDS
;	COMDAT ?_Static@?1???$_Immortalize@V_Iostream_error_category@std@@@std@@YAAEAV_Iostream_error_category@1@XZ@4U?$_Immortalizer@V_Iostream_error_category@std@@@1@A
_BSS	SEGMENT
?_Static@?1???$_Immortalize@V_Iostream_error_category@std@@@std@@YAAEAV_Iostream_error_category@1@XZ@4U?$_Immortalizer@V_Iostream_error_category@std@@@1@A DB 010H DUP (?) ; `std::_Immortalize<std::_Iostream_error_category>'::`2'::_Static
_BSS	ENDS
;	COMDAT pdata
pdata	SEGMENT
$pdata$??$_Copy_memmove@PEADPEAD@std@@YAPEADPEAD00@Z DD imagerel $LN4
	DD	imagerel $LN4+48
	DD	imagerel $unwind$??$_Copy_memmove@PEADPEAD@std@@YAPEADPEAD00@Z
pdata	ENDS
;	COMDAT pdata
pdata	SEGMENT
$pdata$??$_Uninitialized_move_al_unchecked1@DDV?$allocator@D@std@@@std@@YAPEADPEAD00AEAU?$_Wrap_alloc@V?$allocator@D@std@@@0@U_Really_trivial_ptr_iterator_tag@0@U?$integral_constant@_N$00@0@@Z DD imagerel $LN6
	DD	imagerel $LN6+48
	DD	imagerel $unwind$??$_Uninitialized_move_al_unchecked1@DDV?$allocator@D@std@@@std@@YAPEADPEAD00AEAU?$_Wrap_alloc@V?$allocator@D@std@@@0@U_Really_trivial_ptr_iterator_tag@0@U?$integral_constant@_N$00@0@@Z
pdata	ENDS
;	COMDAT pdata
pdata	SEGMENT
$pdata$??$_Uninitialized_move_al_unchecked@PEADPEADV?$allocator@D@std@@@std@@YAPEADPEAD00AEAU?$_Wrap_alloc@V?$allocator@D@std@@@0@@Z DD imagerel $LN10
	DD	imagerel $LN10+48
	DD	imagerel $unwind$??$_Uninitialized_move_al_unchecked@PEADPEADV?$allocator@D@std@@@std@@YAPEADPEAD00AEAU?$_Wrap_alloc@V?$allocator@D@std@@@0@@Z
pdata	ENDS
;	COMDAT pdata
pdata	SEGMENT
$pdata$??$_Uninitialized_move@PEADPEADV?$allocator@D@std@@@std@@YAPEADPEAD00AEAU?$_Wrap_alloc@V?$allocator@D@std@@@0@@Z DD imagerel $LN20
	DD	imagerel $LN20+48
	DD	imagerel $unwind$??$_Uninitialized_move@PEADPEADV?$allocator@D@std@@@std@@YAPEADPEAD00AEAU?$_Wrap_alloc@V?$allocator@D@std@@@0@@Z
pdata	ENDS
;	COMDAT pdata
pdata	SEGMENT
$pdata$??$_Uninitialized_default_fill_n1@PEAD_KV?$allocator@D@std@@@std@@YAPEADPEAD_KAEAU?$_Wrap_alloc@V?$allocator@D@std@@@0@U?$integral_constant@_N$00@0@@Z DD imagerel $LN4
	DD	imagerel $LN4+41
	DD	imagerel $unwind$??$_Uninitialized_default_fill_n1@PEAD_KV?$allocator@D@std@@@std@@YAPEADPEAD_KAEAU?$_Wrap_alloc@V?$allocator@D@std@@@0@U?$integral_constant@_N$00@0@@Z
pdata	ENDS
;	COMDAT pdata
pdata	SEGMENT
$pdata$?_Osfx@?$basic_ostream@DU?$char_traits@D@std@@@std@@QEAAXXZ DD imagerel $LN44
	DD	imagerel $LN44+275
	DD	imagerel $unwind$?_Osfx@?$basic_ostream@DU?$char_traits@D@std@@@std@@QEAAXXZ
pdata	ENDS
;	COMDAT pdata
pdata	SEGMENT
$pdata$?catch$0@?0??_Osfx@?$basic_ostream@DU?$char_traits@D@std@@@std@@QEAAXXZ@4HA DD imagerel ?catch$0@?0??_Osfx@?$basic_ostream@DU?$char_traits@D@std@@@std@@QEAAXXZ@4HA
	DD	imagerel ?catch$0@?0??_Osfx@?$basic_ostream@DU?$char_traits@D@std@@@std@@QEAAXXZ@4HA+27
	DD	imagerel $unwind$?catch$0@?0??_Osfx@?$basic_ostream@DU?$char_traits@D@std@@@std@@QEAAXXZ@4HA
pdata	ENDS
;	COMDAT pdata
pdata	SEGMENT
$pdata$??0_Sentry_base@?$basic_ostream@DU?$char_traits@D@std@@@std@@QEAA@AEAV12@@Z DD imagerel $LN10
	DD	imagerel $LN10+44
	DD	imagerel $unwind$??0_Sentry_base@?$basic_ostream@DU?$char_traits@D@std@@@std@@QEAA@AEAV12@@Z
pdata	ENDS
;	COMDAT pdata
pdata	SEGMENT
$pdata$??1_Sentry_base@?$basic_ostream@DU?$char_traits@D@std@@@std@@QEAA@XZ DD imagerel $LN8
	DD	imagerel $LN8+45
	DD	imagerel $unwind$??1_Sentry_base@?$basic_ostream@DU?$char_traits@D@std@@@std@@QEAA@XZ
pdata	ENDS
;	COMDAT pdata
pdata	SEGMENT
$pdata$?widen@?$basic_ios@DU?$char_traits@D@std@@@std@@QEBADD@Z DD imagerel $LN16
	DD	imagerel $LN16+121
	DD	imagerel $unwind$?widen@?$basic_ios@DU?$char_traits@D@std@@@std@@QEBADD@Z
pdata	ENDS
;	COMDAT pdata
pdata	SEGMENT
$pdata$?put@?$basic_ostream@DU?$char_traits@D@std@@@std@@QEAAAEAV12@D@Z DD imagerel $LN120
	DD	imagerel $LN120+511
	DD	imagerel $unwind$?put@?$basic_ostream@DU?$char_traits@D@std@@@std@@QEAAAEAV12@D@Z
pdata	ENDS
;	COMDAT pdata
pdata	SEGMENT
$pdata$?catch$8@?0??put@?$basic_ostream@DU?$char_traits@D@std@@@std@@QEAAAEAV12@D@Z@4HA DD imagerel ?catch$8@?0??put@?$basic_ostream@DU?$char_traits@D@std@@@std@@QEAAAEAV12@D@Z@4HA
	DD	imagerel ?catch$8@?0??put@?$basic_ostream@DU?$char_traits@D@std@@@std@@QEAAAEAV12@D@Z@4HA+83
	DD	imagerel $unwind$?catch$8@?0??put@?$basic_ostream@DU?$char_traits@D@std@@@std@@QEAAAEAV12@D@Z@4HA
pdata	ENDS
;	COMDAT pdata
pdata	SEGMENT
$pdata$?flush@?$basic_ostream@DU?$char_traits@D@std@@@std@@QEAAAEAV12@XZ DD imagerel $LN74
	DD	imagerel $LN74+339
	DD	imagerel $unwind$?flush@?$basic_ostream@DU?$char_traits@D@std@@@std@@QEAAAEAV12@XZ
pdata	ENDS
;	COMDAT pdata
pdata	SEGMENT
$pdata$?_Change_array@?$vector@DV?$allocator@D@std@@@std@@AEAAXQEAD_K1@Z DD imagerel $LN112
	DD	imagerel $LN112+146
	DD	imagerel $unwind$?_Change_array@?$vector@DV?$allocator@D@std@@@std@@AEAAXQEAD_K1@Z
pdata	ENDS
;	COMDAT pdata
pdata	SEGMENT
$pdata$?_Xlength@?$vector@DV?$allocator@D@std@@@std@@CAXXZ DD imagerel $LN4
	DD	imagerel $LN4+17
	DD	imagerel $unwind$?_Xlength@?$vector@DV?$allocator@D@std@@@std@@CAXXZ
pdata	ENDS
;	COMDAT pdata
pdata	SEGMENT
$pdata$??0sentry@?$basic_ostream@DU?$char_traits@D@std@@@std@@QEAA@AEAV12@@Z DD imagerel $LN26
	DD	imagerel $LN26+123
	DD	imagerel $unwind$??0sentry@?$basic_ostream@DU?$char_traits@D@std@@@std@@QEAA@AEAV12@@Z
pdata	ENDS
;	COMDAT pdata
pdata	SEGMENT
$pdata$??1sentry@?$basic_ostream@DU?$char_traits@D@std@@@std@@QEAA@XZ DD imagerel $LN13
	DD	imagerel $LN13+70
	DD	imagerel $unwind$??1sentry@?$basic_ostream@DU?$char_traits@D@std@@@std@@QEAA@XZ
pdata	ENDS
;	COMDAT pdata
pdata	SEGMENT
$pdata$??0bad_cast@std@@QEAA@AEBV01@@Z DD imagerel $LN6
	DD	imagerel $LN6+63
	DD	imagerel $unwind$??0bad_cast@std@@QEAA@AEBV01@@Z
pdata	ENDS
;	COMDAT pdata
pdata	SEGMENT
$pdata$??$_Uninitialized_default_fill_n@PEAD_KV?$allocator@D@std@@@std@@YAPEADPEAD_KAEAU?$_Wrap_alloc@V?$allocator@D@std@@@0@@Z DD imagerel $LN6
	DD	imagerel $LN6+41
	DD	imagerel $unwind$??$_Uninitialized_default_fill_n@PEAD_KV?$allocator@D@std@@@std@@YAPEADPEAD_KAEAU?$_Wrap_alloc@V?$allocator@D@std@@@0@@Z
pdata	ENDS
;	COMDAT pdata
pdata	SEGMENT
$pdata$??$_Resize@V<lambda_0965ae3a6f2eda0c9be18e4c004bd2c1>@@@?$vector@DV?$allocator@D@std@@@std@@AEAAX_KV<lambda_0965ae3a6f2eda0c9be18e4c004bd2c1>@@@Z DD imagerel ??$_Resize@V<lambda_0965ae3a6f2eda0c9be18e4c004bd2c1>@@@?$vector@DV?$allocator@D@std@@@std@@AEAAX_KV<lambda_0965ae3a6f2eda0c9be18e4c004bd2c1>@@@Z
	DD	imagerel ??$_Resize@V<lambda_0965ae3a6f2eda0c9be18e4c004bd2c1>@@@?$vector@DV?$allocator@D@std@@@std@@AEAAX_KV<lambda_0965ae3a6f2eda0c9be18e4c004bd2c1>@@@Z+61
	DD	imagerel $unwind$??$_Resize@V<lambda_0965ae3a6f2eda0c9be18e4c004bd2c1>@@@?$vector@DV?$allocator@D@std@@@std@@AEAAX_KV<lambda_0965ae3a6f2eda0c9be18e4c004bd2c1>@@@Z
pdata	ENDS
;	COMDAT pdata
pdata	SEGMENT
$pdata$0$??$_Resize@V<lambda_0965ae3a6f2eda0c9be18e4c004bd2c1>@@@?$vector@DV?$allocator@D@std@@@std@@AEAAX_KV<lambda_0965ae3a6f2eda0c9be18e4c004bd2c1>@@@Z DD imagerel ??$_Resize@V<lambda_0965ae3a6f2eda0c9be18e4c004bd2c1>@@@?$vector@DV?$allocator@D@std@@@std@@AEAAX_KV<lambda_0965ae3a6f2eda0c9be18e4c004bd2c1>@@@Z+61
	DD	imagerel ??$_Resize@V<lambda_0965ae3a6f2eda0c9be18e4c004bd2c1>@@@?$vector@DV?$allocator@D@std@@@std@@AEAAX_KV<lambda_0965ae3a6f2eda0c9be18e4c004bd2c1>@@@Z+213
	DD	imagerel $chain$0$??$_Resize@V<lambda_0965ae3a6f2eda0c9be18e4c004bd2c1>@@@?$vector@DV?$allocator@D@std@@@std@@AEAAX_KV<lambda_0965ae3a6f2eda0c9be18e4c004bd2c1>@@@Z
pdata	ENDS
;	COMDAT pdata
pdata	SEGMENT
$pdata$1$??$_Resize@V<lambda_0965ae3a6f2eda0c9be18e4c004bd2c1>@@@?$vector@DV?$allocator@D@std@@@std@@AEAAX_KV<lambda_0965ae3a6f2eda0c9be18e4c004bd2c1>@@@Z DD imagerel ??$_Resize@V<lambda_0965ae3a6f2eda0c9be18e4c004bd2c1>@@@?$vector@DV?$allocator@D@std@@@std@@AEAAX_KV<lambda_0965ae3a6f2eda0c9be18e4c004bd2c1>@@@Z+213
	DD	imagerel ??$_Resize@V<lambda_0965ae3a6f2eda0c9be18e4c004bd2c1>@@@?$vector@DV?$allocator@D@std@@@std@@AEAAX_KV<lambda_0965ae3a6f2eda0c9be18e4c004bd2c1>@@@Z+277
	DD	imagerel $chain$1$??$_Resize@V<lambda_0965ae3a6f2eda0c9be18e4c004bd2c1>@@@?$vector@DV?$allocator@D@std@@@std@@AEAAX_KV<lambda_0965ae3a6f2eda0c9be18e4c004bd2c1>@@@Z
pdata	ENDS
;	COMDAT pdata
pdata	SEGMENT
$pdata$2$??$_Resize@V<lambda_0965ae3a6f2eda0c9be18e4c004bd2c1>@@@?$vector@DV?$allocator@D@std@@@std@@AEAAX_KV<lambda_0965ae3a6f2eda0c9be18e4c004bd2c1>@@@Z DD imagerel ??$_Resize@V<lambda_0965ae3a6f2eda0c9be18e4c004bd2c1>@@@?$vector@DV?$allocator@D@std@@@std@@AEAAX_KV<lambda_0965ae3a6f2eda0c9be18e4c004bd2c1>@@@Z+277
	DD	imagerel ??$_Resize@V<lambda_0965ae3a6f2eda0c9be18e4c004bd2c1>@@@?$vector@DV?$allocator@D@std@@@std@@AEAAX_KV<lambda_0965ae3a6f2eda0c9be18e4c004bd2c1>@@@Z+283
	DD	imagerel $chain$2$??$_Resize@V<lambda_0965ae3a6f2eda0c9be18e4c004bd2c1>@@@?$vector@DV?$allocator@D@std@@@std@@AEAAX_KV<lambda_0965ae3a6f2eda0c9be18e4c004bd2c1>@@@Z
pdata	ENDS
;	COMDAT pdata
pdata	SEGMENT
$pdata$??$endl@DU?$char_traits@D@std@@@std@@YAAEAV?$basic_ostream@DU?$char_traits@D@std@@@0@AEAV10@@Z DD imagerel $LN18
	DD	imagerel $LN18+151
	DD	imagerel $unwind$??$endl@DU?$char_traits@D@std@@@std@@YAAEAV?$basic_ostream@DU?$char_traits@D@std@@@0@AEAV10@@Z
pdata	ENDS
;	COMDAT pdata
pdata	SEGMENT
$pdata$??$?6U?$char_traits@D@std@@@std@@YAAEAV?$basic_ostream@DU?$char_traits@D@std@@@0@AEAV10@D@Z DD imagerel $LN204
	DD	imagerel $LN204+826
	DD	imagerel $unwind$??$?6U?$char_traits@D@std@@@std@@YAAEAV?$basic_ostream@DU?$char_traits@D@std@@@0@AEAV10@D@Z
pdata	ENDS
;	COMDAT pdata
pdata	SEGMENT
$pdata$?catch$16@?0???$?6U?$char_traits@D@std@@@std@@YAAEAV?$basic_ostream@DU?$char_traits@D@std@@@0@AEAV10@D@Z@4HA DD imagerel ?catch$16@?0???$?6U?$char_traits@D@std@@@std@@YAAEAV?$basic_ostream@DU?$char_traits@D@std@@@0@AEAV10@D@Z@4HA
	DD	imagerel ?catch$16@?0???$?6U?$char_traits@D@std@@@std@@YAAEAV?$basic_ostream@DU?$char_traits@D@std@@@0@AEAV10@D@Z@4HA+83
	DD	imagerel $unwind$?catch$16@?0???$?6U?$char_traits@D@std@@@std@@YAAEAV?$basic_ostream@DU?$char_traits@D@std@@@0@AEAV10@D@Z@4HA
pdata	ENDS
;	COMDAT pdata
pdata	SEGMENT
$pdata$??$_Immortalize@V_Iostream_error_category@std@@@std@@YAAEAV_Iostream_error_category@0@XZ DD imagerel $LN23
	DD	imagerel $LN23+116
	DD	imagerel $unwind$??$_Immortalize@V_Iostream_error_category@std@@@std@@YAAEAV_Iostream_error_category@0@XZ
pdata	ENDS
;	COMDAT pdata
pdata	SEGMENT
$pdata$??$use_facet@V?$ctype@D@std@@@std@@YAAEBV?$ctype@D@0@AEBVlocale@0@@Z DD imagerel $LN32
	DD	imagerel $LN32+326
	DD	imagerel $unwind$??$use_facet@V?$ctype@D@std@@@std@@YAAEBV?$ctype@D@0@AEBVlocale@0@@Z
pdata	ENDS
;	COMDAT pdata
pdata	SEGMENT
$pdata$?allocate@?$allocator@D@std@@QEAAPEAD_K@Z DD imagerel $LN16
	DD	imagerel $LN16+83
	DD	imagerel $unwind$?allocate@?$allocator@D@std@@QEAAPEAD_K@Z
pdata	ENDS
;	COMDAT pdata
pdata	SEGMENT
$pdata$?allocate@?$_Wrap_alloc@V?$allocator@D@std@@@std@@QEAAPEAD_K@Z DD imagerel $LN19
	DD	imagerel $LN19+83
	DD	imagerel $unwind$?allocate@?$_Wrap_alloc@V?$allocator@D@std@@@std@@QEAAPEAD_K@Z
pdata	ENDS
;	COMDAT pdata
pdata	SEGMENT
$pdata$?deallocate@?$allocator@D@std@@QEAAXPEAD_K@Z DD imagerel $LN18
	DD	imagerel $LN18+81
	DD	imagerel $unwind$?deallocate@?$allocator@D@std@@QEAAXPEAD_K@Z
pdata	ENDS
;	COMDAT pdata
pdata	SEGMENT
$pdata$?erase@?$basic_string@DU?$char_traits@D@std@@V?$allocator@D@2@@std@@QEAAAEAV12@_K@Z DD imagerel $LN38
	DD	imagerel $LN38+54
	DD	imagerel $unwind$?erase@?$basic_string@DU?$char_traits@D@std@@V?$allocator@D@2@@std@@QEAAAEAV12@_K@Z
pdata	ENDS
;	COMDAT pdata
pdata	SEGMENT
$pdata$?erase@?$basic_string@DU?$char_traits@D@std@@V?$allocator@D@2@@std@@QEAAAEAV12@_K0@Z DD imagerel $LN97
	DD	imagerel $LN97+191
	DD	imagerel $unwind$?erase@?$basic_string@DU?$char_traits@D@std@@V?$allocator@D@2@@std@@QEAAAEAV12@_K0@Z
pdata	ENDS
;	COMDAT pdata
pdata	SEGMENT
$pdata$?_Copy@?$basic_string@DU?$char_traits@D@std@@V?$allocator@D@2@@std@@QEAAX_K@Z DD imagerel $LN118
	DD	imagerel $LN118+335
	DD	imagerel $unwind$?_Copy@?$basic_string@DU?$char_traits@D@std@@V?$allocator@D@2@@std@@QEAAX_K@Z
pdata	ENDS
;	COMDAT pdata
pdata	SEGMENT
$pdata$?catch$16@?0??_Copy@?$basic_string@DU?$char_traits@D@std@@V?$allocator@D@2@@std@@QEAAX_K@Z@4HA DD imagerel ?catch$16@?0??_Copy@?$basic_string@DU?$char_traits@D@std@@V?$allocator@D@2@@std@@QEAAX_K@Z@4HA
	DD	imagerel ?catch$16@?0??_Copy@?$basic_string@DU?$char_traits@D@std@@V?$allocator@D@2@@std@@QEAAX_K@Z@4HA+51
	DD	imagerel $unwind$?catch$16@?0??_Copy@?$basic_string@DU?$char_traits@D@std@@V?$allocator@D@2@@std@@QEAAX_K@Z@4HA
pdata	ENDS
;	COMDAT pdata
pdata	SEGMENT
$pdata$?_Xran@?$basic_string@DU?$char_traits@D@std@@V?$allocator@D@2@@std@@SAXXZ DD imagerel $LN4
	DD	imagerel $LN4+17
	DD	imagerel $unwind$?_Xran@?$basic_string@DU?$char_traits@D@std@@V?$allocator@D@2@@std@@SAXXZ
pdata	ENDS
;	COMDAT pdata
pdata	SEGMENT
$pdata$?assign@?$basic_string@DU?$char_traits@D@std@@V?$allocator@D@2@@std@@QEAAAEAV12@AEBV12@_K_K@Z DD imagerel $LN159
	DD	imagerel $LN159+248
	DD	imagerel $unwind$?assign@?$basic_string@DU?$char_traits@D@std@@V?$allocator@D@2@@std@@QEAAAEAV12@AEBV12@_K_K@Z
pdata	ENDS
;	COMDAT pdata
pdata	SEGMENT
$pdata$?assign@?$basic_string@DU?$char_traits@D@std@@V?$allocator@D@2@@std@@QEAAAEAV12@QEBD_K@Z DD imagerel $LN112
	DD	imagerel $LN112+246
	DD	imagerel $unwind$?assign@?$basic_string@DU?$char_traits@D@std@@V?$allocator@D@2@@std@@QEAAAEAV12@QEBD_K@Z
pdata	ENDS
;	COMDAT pdata
pdata	SEGMENT
$pdata$?_Grow@?$basic_string@DU?$char_traits@D@std@@V?$allocator@D@2@@std@@QEAA_N_K@Z DD imagerel $LN34
	DD	imagerel $LN34+51
	DD	imagerel $unwind$?_Grow@?$basic_string@DU?$char_traits@D@std@@V?$allocator@D@2@@std@@QEAA_N_K@Z
pdata	ENDS
;	COMDAT pdata
pdata	SEGMENT
$pdata$?_Xlen@?$basic_string@DU?$char_traits@D@std@@V?$allocator@D@2@@std@@SAXXZ DD imagerel $LN4
	DD	imagerel $LN4+17
	DD	imagerel $unwind$?_Xlen@?$basic_string@DU?$char_traits@D@std@@V?$allocator@D@2@@std@@SAXXZ
pdata	ENDS
;	COMDAT pdata
pdata	SEGMENT
$pdata$?_Check_offset@?$basic_string@DU?$char_traits@D@std@@V?$allocator@D@2@@std@@QEBAX_K@Z DD imagerel $LN16
	DD	imagerel $LN16+21
	DD	imagerel $unwind$?_Check_offset@?$basic_string@DU?$char_traits@D@std@@V?$allocator@D@2@@std@@QEBAX_K@Z
pdata	ENDS
;	COMDAT pdata
pdata	SEGMENT
$pdata$?deallocate@?$_Wrap_alloc@V?$allocator@D@std@@@std@@QEAAXPEAD_K@Z DD imagerel $LN21
	DD	imagerel $LN21+81
	DD	imagerel $unwind$?deallocate@?$_Wrap_alloc@V?$allocator@D@std@@@std@@QEAAXPEAD_K@Z
pdata	ENDS
;	COMDAT pdata
pdata	SEGMENT
$pdata$?_Assign_rv_contents@?$basic_string@DU?$char_traits@D@std@@V?$allocator@D@2@@std@@QEAAX$$QEAV12@@Z DD imagerel $LN62
	DD	imagerel $LN62+101
	DD	imagerel $unwind$?_Assign_rv_contents@?$basic_string@DU?$char_traits@D@std@@V?$allocator@D@2@@std@@QEAAX$$QEAV12@@Z
pdata	ENDS
;	COMDAT pdata
pdata	SEGMENT
$pdata$?append@?$basic_string@DU?$char_traits@D@std@@V?$allocator@D@2@@std@@QEAAAEAV12@AEBV12@_K_K@Z DD imagerel $LN151
	DD	imagerel $LN151+75
	DD	imagerel $unwind$?append@?$basic_string@DU?$char_traits@D@std@@V?$allocator@D@2@@std@@QEAAAEAV12@AEBV12@_K_K@Z
pdata	ENDS
;	COMDAT pdata
pdata	SEGMENT
$pdata$0$?append@?$basic_string@DU?$char_traits@D@std@@V?$allocator@D@2@@std@@QEAAAEAV12@AEBV12@_K_K@Z DD imagerel $LN151+75
	DD	imagerel $LN151+232
	DD	imagerel $chain$0$?append@?$basic_string@DU?$char_traits@D@std@@V?$allocator@D@2@@std@@QEAAAEAV12@AEBV12@_K_K@Z
pdata	ENDS
;	COMDAT pdata
pdata	SEGMENT
$pdata$1$?append@?$basic_string@DU?$char_traits@D@std@@V?$allocator@D@2@@std@@QEAAAEAV12@AEBV12@_K_K@Z DD imagerel $LN151+232
	DD	imagerel $LN151+244
	DD	imagerel $chain$1$?append@?$basic_string@DU?$char_traits@D@std@@V?$allocator@D@2@@std@@QEAAAEAV12@AEBV12@_K_K@Z
pdata	ENDS
;	COMDAT pdata
pdata	SEGMENT
$pdata$?append@?$basic_string@DU?$char_traits@D@std@@V?$allocator@D@2@@std@@QEAAAEAV12@QEBD_K@Z DD imagerel $LN142
	DD	imagerel $LN142+119
	DD	imagerel $unwind$?append@?$basic_string@DU?$char_traits@D@std@@V?$allocator@D@2@@std@@QEAAAEAV12@QEBD_K@Z
pdata	ENDS
;	COMDAT pdata
pdata	SEGMENT
$pdata$0$?append@?$basic_string@DU?$char_traits@D@std@@V?$allocator@D@2@@std@@QEAAAEAV12@QEBD_K@Z DD imagerel $LN142+119
	DD	imagerel $LN142+257
	DD	imagerel $chain$0$?append@?$basic_string@DU?$char_traits@D@std@@V?$allocator@D@2@@std@@QEAAAEAV12@QEBD_K@Z
pdata	ENDS
;	COMDAT pdata
pdata	SEGMENT
$pdata$1$?append@?$basic_string@DU?$char_traits@D@std@@V?$allocator@D@2@@std@@QEAAAEAV12@QEBD_K@Z DD imagerel $LN142+257
	DD	imagerel $LN142+263
	DD	imagerel $chain$1$?append@?$basic_string@DU?$char_traits@D@std@@V?$allocator@D@2@@std@@QEAAAEAV12@QEBD_K@Z
pdata	ENDS
;	COMDAT pdata
pdata	SEGMENT
$pdata$?_Tidy_deallocate_only@?$basic_string@DU?$char_traits@D@std@@V?$allocator@D@2@@std@@QEAAXXZ DD imagerel $LN42
	DD	imagerel $LN42+98
	DD	imagerel $unwind$?_Tidy_deallocate_only@?$basic_string@DU?$char_traits@D@std@@V?$allocator@D@2@@std@@QEAAXXZ
pdata	ENDS
;	COMDAT pdata
pdata	SEGMENT
$pdata$?_Tidy@?$_Yarn@D@std@@AEAAXXZ DD imagerel $LN6
	DD	imagerel $LN6+35
	DD	imagerel $unwind$?_Tidy@?$_Yarn@D@std@@AEAAXXZ
pdata	ENDS
;	COMDAT pdata
pdata	SEGMENT
$pdata$?_Tidy@?$_Yarn@_W@std@@AEAAXXZ DD imagerel $LN6
	DD	imagerel $LN6+35
	DD	imagerel $unwind$?_Tidy@?$_Yarn@_W@std@@AEAAXXZ
pdata	ENDS
;	COMDAT pdata
pdata	SEGMENT
$pdata$?_Udefault@?$vector@DV?$allocator@D@std@@@std@@AEAAPEADPEAD_K@Z DD imagerel $LN14
	DD	imagerel $LN14+41
	DD	imagerel $unwind$?_Udefault@?$vector@DV?$allocator@D@std@@@std@@AEAAPEADPEAD_K@Z
pdata	ENDS
;	COMDAT pdata
pdata	SEGMENT
$pdata$?_Tidy@?$vector@DV?$allocator@D@std@@@std@@AEAAXXZ DD imagerel $LN112
	DD	imagerel $LN112+112
	DD	imagerel $unwind$?_Tidy@?$vector@DV?$allocator@D@std@@@std@@AEAAXXZ
pdata	ENDS
;	COMDAT pdata
pdata	SEGMENT
$pdata$??0?$basic_string@DU?$char_traits@D@std@@V?$allocator@D@2@@std@@QEAA@AEBV01@@Z DD imagerel $LN42
	DD	imagerel $LN42+49
	DD	imagerel $unwind$??0?$basic_string@DU?$char_traits@D@std@@V?$allocator@D@2@@std@@QEAA@AEBV01@@Z
pdata	ENDS
;	COMDAT pdata
pdata	SEGMENT
$pdata$??0?$basic_string@DU?$char_traits@D@std@@V?$allocator@D@2@@std@@QEAA@QEBD@Z DD imagerel $LN27
	DD	imagerel $LN27+56
	DD	imagerel $unwind$??0?$basic_string@DU?$char_traits@D@std@@V?$allocator@D@2@@std@@QEAA@QEBD@Z
pdata	ENDS
;	COMDAT pdata
pdata	SEGMENT
$pdata$??0?$basic_string@DU?$char_traits@D@std@@V?$allocator@D@2@@std@@QEAA@$$QEAV01@@Z DD imagerel $LN99
	DD	imagerel $LN99+118
	DD	imagerel $unwind$??0?$basic_string@DU?$char_traits@D@std@@V?$allocator@D@2@@std@@QEAA@$$QEAV01@@Z
pdata	ENDS
;	COMDAT pdata
pdata	SEGMENT
$pdata$??1?$basic_string@DU?$char_traits@D@std@@V?$allocator@D@2@@std@@QEAA@XZ DD imagerel $LN45
	DD	imagerel $LN45+98
	DD	imagerel $unwind$??1?$basic_string@DU?$char_traits@D@std@@V?$allocator@D@2@@std@@QEAA@XZ
pdata	ENDS
;	COMDAT pdata
pdata	SEGMENT
$pdata$??1?$_Yarn@D@std@@QEAA@XZ DD imagerel $LN8
	DD	imagerel $LN8+35
	DD	imagerel $unwind$??1?$_Yarn@D@std@@QEAA@XZ
pdata	ENDS
;	COMDAT pdata
pdata	SEGMENT
$pdata$??1?$_Yarn@_W@std@@QEAA@XZ DD imagerel $LN8
	DD	imagerel $LN8+35
	DD	imagerel $unwind$??1?$_Yarn@_W@std@@QEAA@XZ
pdata	ENDS
;	COMDAT pdata
pdata	SEGMENT
$pdata$??1?$vector@DV?$allocator@D@std@@@std@@QEAA@XZ DD imagerel $LN115
	DD	imagerel $LN115+112
	DD	imagerel $unwind$??1?$vector@DV?$allocator@D@std@@@std@@QEAA@XZ
pdata	ENDS
;	COMDAT pdata
pdata	SEGMENT
$pdata$??R<lambda_0965ae3a6f2eda0c9be18e4c004bd2c1>@@QEBAPEADPEAD_K@Z DD imagerel ??R<lambda_0965ae3a6f2eda0c9be18e4c004bd2c1>@@QEBAPEADPEAD_K@Z
	DD	imagerel ??R<lambda_0965ae3a6f2eda0c9be18e4c004bd2c1>@@QEBAPEADPEAD_K@Z+41
	DD	imagerel $unwind$??R<lambda_0965ae3a6f2eda0c9be18e4c004bd2c1>@@QEBAPEADPEAD_K@Z
pdata	ENDS
pdata	SEGMENT
$pdata$main DD	imagerel $LN205
	DD	imagerel $LN205+382
	DD	imagerel $unwind$main
$pdata$?setVector@@YA?AV?$vector@DV?$allocator@D@std@@@std@@D@Z DD imagerel $LN58
	DD	imagerel $LN58+128
	DD	imagerel $unwind$?setVector@@YA?AV?$vector@DV?$allocator@D@std@@@std@@D@Z
pdata	ENDS
pdata	SEGMENT
$pdata$?dtor$0@?0??setVector@@YA?AV?$vector@DV?$allocator@D@std@@@std@@D@Z@4HA DD imagerel ?dtor$0@?0??setVector@@YA?AV?$vector@DV?$allocator@D@std@@@std@@D@Z@4HA
	DD	imagerel ?dtor$0@?0??setVector@@YA?AV?$vector@DV?$allocator@D@std@@@std@@D@Z@4HA+38
	DD	imagerel $unwind$?dtor$0@?0??setVector@@YA?AV?$vector@DV?$allocator@D@std@@@std@@D@Z@4HA
pdata	ENDS
;	COMDAT pdata
pdata	SEGMENT
$pdata$??0_System_error@std@@QEAA@AEBV01@@Z DD imagerel $LN9
	DD	imagerel $LN9+80
	DD	imagerel $unwind$??0_System_error@std@@QEAA@AEBV01@@Z
pdata	ENDS
;	COMDAT pdata
pdata	SEGMENT
$pdata$??0system_error@std@@QEAA@AEBV01@@Z DD imagerel $LN12
	DD	imagerel $LN12+90
	DD	imagerel $unwind$??0system_error@std@@QEAA@AEBV01@@Z
pdata	ENDS
;	COMDAT pdata
pdata	SEGMENT
$pdata$??0failure@ios_base@std@@QEAA@AEBV012@@Z DD imagerel $LN15
	DD	imagerel $LN15+90
	DD	imagerel $unwind$??0failure@ios_base@std@@QEAA@AEBV012@@Z
pdata	ENDS
;	COMDAT pdata
pdata	SEGMENT
$pdata$??_Gfailure@ios_base@std@@UEAAPEAXI@Z DD imagerel $LN20
	DD	imagerel $LN20+66
	DD	imagerel $unwind$??_Gfailure@ios_base@std@@UEAAPEAXI@Z
pdata	ENDS
;	COMDAT pdata
pdata	SEGMENT
$pdata$?getloc@ios_base@std@@QEBA?AVlocale@2@XZ DD imagerel $LN6
	DD	imagerel $LN6+46
	DD	imagerel $unwind$?getloc@ios_base@std@@QEBA?AVlocale@2@XZ
pdata	ENDS
;	COMDAT pdata
pdata	SEGMENT
$pdata$?clear@ios_base@std@@QEAAXH_N@Z DD imagerel $LN17
	DD	imagerel $LN17+186
	DD	imagerel $unwind$?clear@ios_base@std@@QEAAXH_N@Z
pdata	ENDS
;	COMDAT pdata
pdata	SEGMENT
$pdata$??0failure@ios_base@std@@QEAA@PEBDAEBVerror_code@2@@Z DD imagerel $LN5
	DD	imagerel $LN5+50
	DD	imagerel $unwind$??0failure@ios_base@std@@QEAA@PEBDAEBVerror_code@2@@Z
pdata	ENDS
;	COMDAT pdata
pdata	SEGMENT
$pdata$?iostream_category@std@@YAAEBVerror_category@1@XZ DD imagerel $LN25
	DD	imagerel $LN25+116
	DD	imagerel $unwind$?iostream_category@std@@YAAEBVerror_category@1@XZ
pdata	ENDS
;	COMDAT pdata
pdata	SEGMENT
$pdata$??_G_Iostream_error_category@std@@UEAAPEAXI@Z DD imagerel $LN15
	DD	imagerel $LN15+43
	DD	imagerel $unwind$??_G_Iostream_error_category@std@@UEAAPEAXI@Z
pdata	ENDS
;	COMDAT pdata
pdata	SEGMENT
$pdata$?message@_Iostream_error_category@std@@UEBA?AV?$basic_string@DU?$char_traits@D@std@@V?$allocator@D@2@@2@H@Z DD imagerel $LN33
	DD	imagerel $LN33+77
	DD	imagerel $unwind$?message@_Iostream_error_category@std@@UEBA?AV?$basic_string@DU?$char_traits@D@std@@V?$allocator@D@2@@2@H@Z
pdata	ENDS
;	COMDAT pdata
pdata	SEGMENT
$pdata$??_G_Generic_error_category@std@@UEAAPEAXI@Z DD imagerel $LN12
	DD	imagerel $LN12+43
	DD	imagerel $unwind$??_G_Generic_error_category@std@@UEAAPEAXI@Z
pdata	ENDS
;	COMDAT pdata
pdata	SEGMENT
$pdata$?message@_Generic_error_category@std@@UEBA?AV?$basic_string@DU?$char_traits@D@std@@V?$allocator@D@2@@2@H@Z DD imagerel $LN31
	DD	imagerel $LN31+78
	DD	imagerel $unwind$?message@_Generic_error_category@std@@UEBA?AV?$basic_string@DU?$char_traits@D@std@@V?$allocator@D@2@@2@H@Z
pdata	ENDS
;	COMDAT pdata
pdata	SEGMENT
$pdata$??_Gsystem_error@std@@UEAAPEAXI@Z DD imagerel $LN17
	DD	imagerel $LN17+66
	DD	imagerel $unwind$??_Gsystem_error@std@@UEAAPEAXI@Z
pdata	ENDS
;	COMDAT pdata
pdata	SEGMENT
$pdata$??0system_error@std@@QEAA@Verror_code@1@PEBD@Z DD imagerel $LN71
	DD	imagerel $LN71+248
	DD	imagerel $unwind$??0system_error@std@@QEAA@Verror_code@1@PEBD@Z
pdata	ENDS
;	COMDAT pdata
pdata	SEGMENT
$pdata$??_G_System_error@std@@UEAAPEAXI@Z DD imagerel $LN14
	DD	imagerel $LN14+66
	DD	imagerel $unwind$??_G_System_error@std@@UEAAPEAXI@Z
pdata	ENDS
;	COMDAT pdata
pdata	SEGMENT
$pdata$??0_System_error@std@@IEAA@Verror_code@1@AEBV?$basic_string@DU?$char_traits@D@std@@V?$allocator@D@2@@1@@Z DD imagerel $LN115
	DD	imagerel $LN115+309
	DD	imagerel $unwind$??0_System_error@std@@IEAA@Verror_code@1@AEBV?$basic_string@DU?$char_traits@D@std@@V?$allocator@D@2@@1@@Z
pdata	ENDS
;	COMDAT pdata
pdata	SEGMENT
$pdata$?_Makestr@_System_error@std@@CA?AV?$basic_string@DU?$char_traits@D@std@@V?$allocator@D@2@@2@Verror_code@2@V32@@Z DD imagerel $LN205
	DD	imagerel $LN205+405
	DD	imagerel $unwind$?_Makestr@_System_error@std@@CA?AV?$basic_string@DU?$char_traits@D@std@@V?$allocator@D@2@@2@Verror_code@2@V32@@Z
pdata	ENDS
;	COMDAT pdata
pdata	SEGMENT
$pdata$?make_error_code@std@@YA?AVerror_code@1@W4io_errc@1@@Z DD imagerel $LN29
	DD	imagerel $LN29+143
	DD	imagerel $unwind$?make_error_code@std@@YA?AVerror_code@1@W4io_errc@1@@Z
pdata	ENDS
;	COMDAT pdata
pdata	SEGMENT
$pdata$?equivalent@error_category@std@@UEBA_NHAEBVerror_condition@2@@Z DD imagerel $LN32
	DD	imagerel $LN32+95
	DD	imagerel $unwind$?equivalent@error_category@std@@UEBA_NHAEBVerror_condition@2@@Z
pdata	ENDS
;	COMDAT pdata
pdata	SEGMENT
$pdata$?message@error_code@std@@QEBA?AV?$basic_string@DU?$char_traits@D@std@@V?$allocator@D@2@@2@XZ DD imagerel $LN12
	DD	imagerel $LN12+39
	DD	imagerel $unwind$?message@error_code@std@@QEBA?AV?$basic_string@DU?$char_traits@D@std@@V?$allocator@D@2@@2@XZ
pdata	ENDS
;	COMDAT pdata
pdata	SEGMENT
$pdata$??_Gerror_category@std@@UEAAPEAXI@Z DD imagerel $LN9
	DD	imagerel $LN9+43
	DD	imagerel $unwind$??_Gerror_category@std@@UEAAPEAXI@Z
pdata	ENDS
;	COMDAT pdata
pdata	SEGMENT
$pdata$??_G?$ctype@D@std@@MEAAPEAXI@Z DD imagerel $LN24
	DD	imagerel $LN24+106
	DD	imagerel $unwind$??_G?$ctype@D@std@@MEAAPEAXI@Z
pdata	ENDS
;	COMDAT pdata
pdata	SEGMENT
$pdata$?do_narrow@?$ctype@D@std@@MEBAPEBDPEBD0DPEAD@Z DD imagerel $LN4
	DD	imagerel $LN4+31
	DD	imagerel $unwind$?do_narrow@?$ctype@D@std@@MEBAPEBDPEBD0DPEAD@Z
pdata	ENDS
;	COMDAT pdata
pdata	SEGMENT
$pdata$?do_widen@?$ctype@D@std@@MEBAPEBDPEBD0PEAD@Z DD imagerel $LN4
	DD	imagerel $LN4+29
	DD	imagerel $unwind$?do_widen@?$ctype@D@std@@MEBAPEBDPEBD0PEAD@Z
pdata	ENDS
;	COMDAT pdata
pdata	SEGMENT
$pdata$?do_toupper@?$ctype@D@std@@MEBAPEBDPEADPEBD@Z DD imagerel $LN12
	DD	imagerel $LN12+38
	DD	imagerel $unwind$?do_toupper@?$ctype@D@std@@MEBAPEBDPEADPEBD@Z
pdata	ENDS
;	COMDAT pdata
pdata	SEGMENT
$pdata$0$?do_toupper@?$ctype@D@std@@MEBAPEBDPEADPEBD@Z DD imagerel $LN12+38
	DD	imagerel $LN12+77
	DD	imagerel $chain$0$?do_toupper@?$ctype@D@std@@MEBAPEBDPEADPEBD@Z
pdata	ENDS
;	COMDAT pdata
pdata	SEGMENT
$pdata$1$?do_toupper@?$ctype@D@std@@MEBAPEBDPEADPEBD@Z DD imagerel $LN12+77
	DD	imagerel $LN12+96
	DD	imagerel $chain$1$?do_toupper@?$ctype@D@std@@MEBAPEBDPEADPEBD@Z
pdata	ENDS
;	COMDAT pdata
pdata	SEGMENT
$pdata$?do_tolower@?$ctype@D@std@@MEBAPEBDPEADPEBD@Z DD imagerel $LN12
	DD	imagerel $LN12+38
	DD	imagerel $unwind$?do_tolower@?$ctype@D@std@@MEBAPEBDPEADPEBD@Z
pdata	ENDS
;	COMDAT pdata
pdata	SEGMENT
$pdata$0$?do_tolower@?$ctype@D@std@@MEBAPEBDPEADPEBD@Z DD imagerel $LN12+38
	DD	imagerel $LN12+77
	DD	imagerel $chain$0$?do_tolower@?$ctype@D@std@@MEBAPEBDPEADPEBD@Z
pdata	ENDS
;	COMDAT pdata
pdata	SEGMENT
$pdata$1$?do_tolower@?$ctype@D@std@@MEBAPEBDPEADPEBD@Z DD imagerel $LN12+77
	DD	imagerel $LN12+96
	DD	imagerel $chain$1$?do_tolower@?$ctype@D@std@@MEBAPEBDPEADPEBD@Z
pdata	ENDS
;	COMDAT pdata
pdata	SEGMENT
$pdata$?_Tidy@?$ctype@D@std@@IEAAXXZ DD imagerel $LN8
	DD	imagerel $LN8+64
	DD	imagerel $unwind$?_Tidy@?$ctype@D@std@@IEAAXXZ
pdata	ENDS
;	COMDAT pdata
pdata	SEGMENT
$pdata$?_Init@?$ctype@D@std@@IEAAXAEBV_Locinfo@2@@Z DD imagerel $LN6
	DD	imagerel $LN6+40
	DD	imagerel $unwind$?_Init@?$ctype@D@std@@IEAAXAEBV_Locinfo@2@@Z
pdata	ENDS
;	COMDAT pdata
pdata	SEGMENT
$pdata$??1?$ctype@D@std@@MEAA@XZ DD imagerel $LN19
	DD	imagerel $LN19+73
	DD	imagerel $unwind$??1?$ctype@D@std@@MEAA@XZ
pdata	ENDS
;	COMDAT pdata
pdata	SEGMENT
$pdata$?_Getcat@?$ctype@D@std@@SA_KPEAPEBVfacet@locale@2@PEBV42@@Z DD imagerel $LN55
	DD	imagerel $LN55+334
	DD	imagerel $unwind$?_Getcat@?$ctype@D@std@@SA_KPEAPEBVfacet@locale@2@PEBV42@@Z
pdata	ENDS
;	COMDAT pdata
pdata	SEGMENT
$pdata$?dtor$0@?0??_Getcat@?$ctype@D@std@@SA_KPEAPEBVfacet@locale@2@PEBV42@@Z@4HA DD imagerel ?dtor$0@?0??_Getcat@?$ctype@D@std@@SA_KPEAPEBVfacet@locale@2@PEBV42@@Z@4HA
	DD	imagerel ?dtor$0@?0??_Getcat@?$ctype@D@std@@SA_KPEAPEBVfacet@locale@2@PEBV42@@Z@4HA+32
	DD	imagerel $unwind$?dtor$0@?0??_Getcat@?$ctype@D@std@@SA_KPEAPEBVfacet@locale@2@PEBV42@@Z@4HA
pdata	ENDS
;	COMDAT pdata
pdata	SEGMENT
$pdata$??0?$ctype@D@std@@QEAA@AEBV_Locinfo@1@_K@Z DD imagerel $LN15
	DD	imagerel $LN15+57
	DD	imagerel $unwind$??0?$ctype@D@std@@QEAA@AEBV_Locinfo@1@_K@Z
pdata	ENDS
;	COMDAT pdata
pdata	SEGMENT
$pdata$?widen@?$ctype@D@std@@QEBADD@Z DD imagerel $LN8
	DD	imagerel $LN8+37
	DD	imagerel $unwind$?widen@?$ctype@D@std@@QEBADD@Z
pdata	ENDS
;	COMDAT pdata
pdata	SEGMENT
$pdata$??_Gctype_base@std@@UEAAPEAXI@Z DD imagerel $LN15
	DD	imagerel $LN15+43
	DD	imagerel $unwind$??_Gctype_base@std@@UEAAPEAXI@Z
pdata	ENDS
;	COMDAT pdata
pdata	SEGMENT
$pdata$??_Gfacet@locale@std@@MEAAPEAXI@Z DD imagerel $LN12
	DD	imagerel $LN12+43
	DD	imagerel $unwind$??_Gfacet@locale@std@@MEAAPEAXI@Z
pdata	ENDS
;	COMDAT pdata
pdata	SEGMENT
$pdata$?_Getfacet@locale@std@@QEBAPEBVfacet@12@_K@Z DD imagerel $LN12
	DD	imagerel $LN12+82
	DD	imagerel $unwind$?_Getfacet@locale@std@@QEBAPEBVfacet@12@_K@Z
pdata	ENDS
;	COMDAT pdata
pdata	SEGMENT
$pdata$??1locale@std@@QEAA@XZ DD imagerel $LN6
	DD	imagerel $LN6+57
	DD	imagerel $unwind$??1locale@std@@QEAA@XZ
pdata	ENDS
;	COMDAT pdata
pdata	SEGMENT
$pdata$??0locale@std@@QEAA@AEBV01@@Z DD imagerel $LN3
	DD	imagerel $LN3+42
	DD	imagerel $unwind$??0locale@std@@QEAA@AEBV01@@Z
pdata	ENDS
;	COMDAT pdata
pdata	SEGMENT
$pdata$??Bid@locale@std@@QEAA_KXZ DD imagerel $LN8
	DD	imagerel $LN8+80
	DD	imagerel $unwind$??Bid@locale@std@@QEAA_KXZ
pdata	ENDS
;	COMDAT pdata
pdata	SEGMENT
$pdata$??_G_Facet_base@std@@UEAAPEAXI@Z DD imagerel $LN9
	DD	imagerel $LN9+43
	DD	imagerel $unwind$??_G_Facet_base@std@@UEAAPEAXI@Z
pdata	ENDS
;	COMDAT pdata
pdata	SEGMENT
$pdata$??0runtime_error@std@@QEAA@AEBV01@@Z DD imagerel $LN6
	DD	imagerel $LN6+63
	DD	imagerel $unwind$??0runtime_error@std@@QEAA@AEBV01@@Z
pdata	ENDS
;	COMDAT pdata
pdata	SEGMENT
$pdata$?_Getctype@_Locinfo@std@@QEBA?AU_Ctypevec@@XZ DD imagerel $LN4
	DD	imagerel $LN4+42
	DD	imagerel $unwind$?_Getctype@_Locinfo@std@@QEBA?AU_Ctypevec@@XZ
pdata	ENDS
;	COMDAT pdata
pdata	SEGMENT
$pdata$??1_Locinfo@std@@QEAA@XZ DD imagerel $LN39
	DD	imagerel $LN39+163
	DD	imagerel $unwind$??1_Locinfo@std@@QEAA@XZ
pdata	ENDS
;	COMDAT pdata
pdata	SEGMENT
$pdata$??0_Locinfo@std@@QEAA@PEBD@Z DD imagerel $LN24
	DD	imagerel $LN24+150
	DD	imagerel $unwind$??0_Locinfo@std@@QEAA@PEBD@Z
pdata	ENDS
;	COMDAT pdata
pdata	SEGMENT
$pdata$??_Gbad_cast@std@@UEAAPEAXI@Z DD imagerel $LN11
	DD	imagerel $LN11+66
	DD	imagerel $unwind$??_Gbad_cast@std@@UEAAPEAXI@Z
pdata	ENDS
;	COMDAT pdata
pdata	SEGMENT
$pdata$??_Gruntime_error@std@@UEAAPEAXI@Z DD imagerel $LN11
	DD	imagerel $LN11+66
	DD	imagerel $unwind$??_Gruntime_error@std@@UEAAPEAXI@Z
pdata	ENDS
;	COMDAT pdata
pdata	SEGMENT
$pdata$??0runtime_error@std@@QEAA@PEBD@Z DD imagerel $LN6
	DD	imagerel $LN6+74
	DD	imagerel $unwind$??0runtime_error@std@@QEAA@PEBD@Z
pdata	ENDS
;	COMDAT pdata
pdata	SEGMENT
$pdata$??0runtime_error@std@@QEAA@AEBV?$basic_string@DU?$char_traits@D@std@@V?$allocator@D@2@@1@@Z DD imagerel $LN25
	DD	imagerel $LN25+84
	DD	imagerel $unwind$??0runtime_error@std@@QEAA@AEBV?$basic_string@DU?$char_traits@D@std@@V?$allocator@D@2@@1@@Z
pdata	ENDS
;	COMDAT pdata
pdata	SEGMENT
$pdata$?_Deallocate@std@@YAXPEAX_K1@Z DD imagerel $LN16
	DD	imagerel $LN16+105
	DD	imagerel $unwind$?_Deallocate@std@@YAXPEAX_K1@Z
pdata	ENDS
;	COMDAT pdata
pdata	SEGMENT
$pdata$?_Allocate@std@@YAPEAX_K0_N@Z DD imagerel $LN14
	DD	imagerel $LN14+113
	DD	imagerel $unwind$?_Allocate@std@@YAPEAX_K0_N@Z
pdata	ENDS
;	COMDAT pdata
pdata	SEGMENT
$pdata$?copy@?$char_traits@D@std@@SAPEADQEADQEBD_K@Z DD imagerel $LN4
	DD	imagerel $LN4+23
	DD	imagerel $unwind$?copy@?$char_traits@D@std@@SAPEADQEADQEBD_K@Z
pdata	ENDS
;	COMDAT pdata
pdata	SEGMENT
$pdata$??_Gexception@std@@UEAAPEAXI@Z DD imagerel $LN8
	DD	imagerel $LN8+66
	DD	imagerel $unwind$??_Gexception@std@@UEAAPEAXI@Z
pdata	ENDS
;	COMDAT pdata
pdata	SEGMENT
$pdata$??0exception@std@@QEAA@AEBV01@@Z DD imagerel $LN4
	DD	imagerel $LN4+53
	DD	imagerel $unwind$??0exception@std@@QEAA@AEBV01@@Z
pdata	ENDS
;	COMDAT pdata
pdata	SEGMENT
$pdata$??0exception@std@@QEAA@QEBD@Z DD imagerel $LN4
	DD	imagerel $LN4+64
	DD	imagerel $unwind$??0exception@std@@QEAA@QEBD@Z
pdata	ENDS
;	COMDAT xdata
xdata	SEGMENT
$unwind$??0exception@std@@QEAA@QEBD@Z DD 020601H
	DD	030025206H
xdata	ENDS
;	COMDAT xdata
xdata	SEGMENT
$unwind$??0exception@std@@QEAA@AEBV01@@Z DD 020601H
	DD	030023206H
xdata	ENDS
;	COMDAT xdata
xdata	SEGMENT
$unwind$??_Gexception@std@@UEAAPEAXI@Z DD 040a01H
	DD	06340aH
	DD	07006320aH
xdata	ENDS
;	COMDAT xdata
xdata	SEGMENT
$unwind$?copy@?$char_traits@D@std@@SAPEADQEADQEBD_K@Z DD 020601H
	DD	030023206H
xdata	ENDS
;	COMDAT xdata
xdata	SEGMENT
$unwind$?_Allocate@std@@YAPEAX_K0_N@Z DD 010401H
	DD	04204H
xdata	ENDS
;	COMDAT xdata
xdata	SEGMENT
$unwind$?_Deallocate@std@@YAXPEAX_K1@Z DD 010401H
	DD	04204H
xdata	ENDS
;	COMDAT xdata
xdata	SEGMENT
$unwind$??0runtime_error@std@@QEAA@AEBV?$basic_string@DU?$char_traits@D@std@@V?$allocator@D@2@@1@@Z DD 020601H
	DD	030025206H
xdata	ENDS
;	COMDAT xdata
xdata	SEGMENT
$unwind$??0runtime_error@std@@QEAA@PEBD@Z DD 020601H
	DD	030025206H
xdata	ENDS
;	COMDAT xdata
xdata	SEGMENT
$unwind$??_Gruntime_error@std@@UEAAPEAXI@Z DD 040a01H
	DD	06340aH
	DD	07006320aH
xdata	ENDS
;	COMDAT xdata
xdata	SEGMENT
$unwind$??_Gbad_cast@std@@UEAAPEAXI@Z DD 040a01H
	DD	06340aH
	DD	07006320aH
xdata	ENDS
;	COMDAT xdata
xdata	SEGMENT
$ip2state$??0_Locinfo@std@@QEAA@PEBD@Z DD imagerel ??0_Locinfo@std@@QEAA@PEBD@Z
	DD	0ffffffffH
	DD	imagerel ??0_Locinfo@std@@QEAA@PEBD@Z+38
	DD	00H
	DD	imagerel ??0_Locinfo@std@@QEAA@PEBD@Z+47
	DD	01H
	DD	imagerel ??0_Locinfo@std@@QEAA@PEBD@Z+54
	DD	02H
	DD	imagerel ??0_Locinfo@std@@QEAA@PEBD@Z+62
	DD	03H
	DD	imagerel ??0_Locinfo@std@@QEAA@PEBD@Z+70
	DD	04H
	DD	imagerel ??0_Locinfo@std@@QEAA@PEBD@Z+77
	DD	05H
	DD	imagerel ??0_Locinfo@std@@QEAA@PEBD@Z+84
	DD	06H
	DD	imagerel ??0_Locinfo@std@@QEAA@PEBD@Z+136
	DD	0ffffffffH
xdata	ENDS
;	COMDAT xdata
xdata	SEGMENT
$stateUnwindMap$??0_Locinfo@std@@QEAA@PEBD@Z DD 0ffffffffH
	DD	imagerel ?dtor$0@?0???0_Locinfo@std@@QEAA@PEBD@Z@4HA
	DD	00H
	DD	imagerel ?dtor$1@?0???0_Locinfo@std@@QEAA@PEBD@Z@4HA
	DD	01H
	DD	imagerel ?dtor$2@?0???0_Locinfo@std@@QEAA@PEBD@Z@4HA
	DD	02H
	DD	imagerel ?dtor$3@?0???0_Locinfo@std@@QEAA@PEBD@Z@4HA
	DD	03H
	DD	imagerel ?dtor$4@?0???0_Locinfo@std@@QEAA@PEBD@Z@4HA
	DD	04H
	DD	imagerel ?dtor$5@?0???0_Locinfo@std@@QEAA@PEBD@Z@4HA
	DD	05H
	DD	imagerel ?dtor$6@?0???0_Locinfo@std@@QEAA@PEBD@Z@4HA
xdata	ENDS
;	COMDAT CONST
CONST	SEGMENT
$cppxdata$??0_Locinfo@std@@QEAA@PEBD@Z DD 019930522H
	DD	07H
	DD	imagerel $stateUnwindMap$??0_Locinfo@std@@QEAA@PEBD@Z
	DD	00H
	DD	00H
	DD	09H
	DD	imagerel $ip2state$??0_Locinfo@std@@QEAA@PEBD@Z
	DD	020H
	DD	00H
	DD	01H
CONST	ENDS
;	COMDAT xdata
xdata	SEGMENT
$unwind$??0_Locinfo@std@@QEAA@PEBD@Z DD 041811H
	DD	0b3418H
	DD	07006720aH
	DD	imagerel __CxxFrameHandler3
	DD	imagerel $cppxdata$??0_Locinfo@std@@QEAA@PEBD@Z
xdata	ENDS
;	COMDAT xdata
xdata	SEGMENT
$ip2state$??1_Locinfo@std@@QEAA@XZ DD imagerel ??1_Locinfo@std@@QEAA@XZ
	DD	0ffffffffH
xdata	ENDS
;	COMDAT CONST
CONST	SEGMENT
$cppxdata$??1_Locinfo@std@@QEAA@XZ DD 019930522H
	DD	00H
	DD	00H
	DD	00H
	DD	00H
	DD	01H
	DD	imagerel $ip2state$??1_Locinfo@std@@QEAA@XZ
	DD	020H
	DD	00H
	DD	05H
CONST	ENDS
;	COMDAT xdata
xdata	SEGMENT
$unwind$??1_Locinfo@std@@QEAA@XZ DD 041419H
	DD	083414H
	DD	070025206H
	DD	imagerel __CxxFrameHandler3
	DD	imagerel $cppxdata$??1_Locinfo@std@@QEAA@XZ
xdata	ENDS
;	COMDAT xdata
xdata	SEGMENT
$unwind$?_Getctype@_Locinfo@std@@QEBA?AU_Ctypevec@@XZ DD 020601H
	DD	030027206H
xdata	ENDS
;	COMDAT xdata
xdata	SEGMENT
$unwind$??0runtime_error@std@@QEAA@AEBV01@@Z DD 020601H
	DD	030023206H
xdata	ENDS
;	COMDAT xdata
xdata	SEGMENT
$unwind$??_G_Facet_base@std@@UEAAPEAXI@Z DD 020601H
	DD	030023206H
xdata	ENDS
;	COMDAT xdata
xdata	SEGMENT
$unwind$??Bid@locale@std@@QEAA_KXZ DD 020601H
	DD	030023206H
xdata	ENDS
;	COMDAT xdata
xdata	SEGMENT
$ip2state$??0locale@std@@QEAA@AEBV01@@Z DD imagerel ??0locale@std@@QEAA@AEBV01@@Z
	DD	0ffffffffH
xdata	ENDS
;	COMDAT CONST
CONST	SEGMENT
$cppxdata$??0locale@std@@QEAA@AEBV01@@Z DD 019930522H
	DD	00H
	DD	00H
	DD	00H
	DD	00H
	DD	01H
	DD	imagerel $ip2state$??0locale@std@@QEAA@AEBV01@@Z
	DD	020H
	DD	00H
	DD	05H
CONST	ENDS
;	COMDAT xdata
xdata	SEGMENT
$unwind$??0locale@std@@QEAA@AEBV01@@Z DD 020f19H
	DD	030025206H
	DD	imagerel __CxxFrameHandler3
	DD	imagerel $cppxdata$??0locale@std@@QEAA@AEBV01@@Z
xdata	ENDS
;	COMDAT xdata
xdata	SEGMENT
$ip2state$??1locale@std@@QEAA@XZ DD imagerel ??1locale@std@@QEAA@XZ
	DD	0ffffffffH
xdata	ENDS
;	COMDAT CONST
CONST	SEGMENT
$cppxdata$??1locale@std@@QEAA@XZ DD 019930522H
	DD	00H
	DD	00H
	DD	00H
	DD	00H
	DD	01H
	DD	imagerel $ip2state$??1locale@std@@QEAA@XZ
	DD	020H
	DD	00H
	DD	05H
CONST	ENDS
;	COMDAT xdata
xdata	SEGMENT
$unwind$??1locale@std@@QEAA@XZ DD 010d19H
	DD	06204H
	DD	imagerel __CxxFrameHandler3
	DD	imagerel $cppxdata$??1locale@std@@QEAA@XZ
xdata	ENDS
;	COMDAT xdata
xdata	SEGMENT
$unwind$?_Getfacet@locale@std@@QEBAPEBVfacet@12@_K@Z DD 040a01H
	DD	06340aH
	DD	07006320aH
xdata	ENDS
;	COMDAT xdata
xdata	SEGMENT
$unwind$??_Gfacet@locale@std@@MEAAPEAXI@Z DD 020601H
	DD	030023206H
xdata	ENDS
;	COMDAT xdata
xdata	SEGMENT
$unwind$??_Gctype_base@std@@UEAAPEAXI@Z DD 020601H
	DD	030023206H
xdata	ENDS
;	COMDAT xdata
xdata	SEGMENT
$unwind$?widen@?$ctype@D@std@@QEBADD@Z DD 010401H
	DD	04204H
xdata	ENDS
;	COMDAT xdata
xdata	SEGMENT
$unwind$??0?$ctype@D@std@@QEAA@AEBV_Locinfo@1@_K@Z DD 020601H
	DD	030027206H
xdata	ENDS
;	COMDAT xdata
xdata	SEGMENT
$unwind$?dtor$0@?0??_Getcat@?$ctype@D@std@@SA_KPEAPEBVfacet@locale@2@PEBV42@@Z@4HA DD 020601H
	DD	050023206H
xdata	ENDS
;	COMDAT xdata
xdata	SEGMENT
$ip2state$?_Getcat@?$ctype@D@std@@SA_KPEAPEBVfacet@locale@2@PEBV42@@Z DD imagerel ?_Getcat@?$ctype@D@std@@SA_KPEAPEBVfacet@locale@2@PEBV42@@Z
	DD	0ffffffffH
	DD	imagerel ?_Getcat@?$ctype@D@std@@SA_KPEAPEBVfacet@locale@2@PEBV42@@Z+83
	DD	00H
	DD	imagerel ?_Getcat@?$ctype@D@std@@SA_KPEAPEBVfacet@locale@2@PEBV42@@Z+127
	DD	01H
	DD	imagerel ?_Getcat@?$ctype@D@std@@SA_KPEAPEBVfacet@locale@2@PEBV42@@Z+137
	DD	02H
	DD	imagerel ?_Getcat@?$ctype@D@std@@SA_KPEAPEBVfacet@locale@2@PEBV42@@Z+147
	DD	03H
	DD	imagerel ?_Getcat@?$ctype@D@std@@SA_KPEAPEBVfacet@locale@2@PEBV42@@Z+157
	DD	04H
	DD	imagerel ?_Getcat@?$ctype@D@std@@SA_KPEAPEBVfacet@locale@2@PEBV42@@Z+167
	DD	05H
	DD	imagerel ?_Getcat@?$ctype@D@std@@SA_KPEAPEBVfacet@locale@2@PEBV42@@Z+177
	DD	06H
	DD	imagerel ?_Getcat@?$ctype@D@std@@SA_KPEAPEBVfacet@locale@2@PEBV42@@Z+190
	DD	07H
	DD	imagerel ?_Getcat@?$ctype@D@std@@SA_KPEAPEBVfacet@locale@2@PEBV42@@Z+250
	DD	00H
	DD	imagerel ?_Getcat@?$ctype@D@std@@SA_KPEAPEBVfacet@locale@2@PEBV42@@Z+291
	DD	0ffffffffH
xdata	ENDS
;	COMDAT xdata
xdata	SEGMENT
$stateUnwindMap$?_Getcat@?$ctype@D@std@@SA_KPEAPEBVfacet@locale@2@PEBV42@@Z DD 0ffffffffH
	DD	imagerel ?dtor$0@?0??_Getcat@?$ctype@D@std@@SA_KPEAPEBVfacet@locale@2@PEBV42@@Z@4HA
	DD	00H
	DD	imagerel ?dtor$2@?0??_Getcat@?$ctype@D@std@@SA_KPEAPEBVfacet@locale@2@PEBV42@@Z@4HA
	DD	01H
	DD	imagerel ?dtor$3@?0??_Getcat@?$ctype@D@std@@SA_KPEAPEBVfacet@locale@2@PEBV42@@Z@4HA
	DD	02H
	DD	imagerel ?dtor$4@?0??_Getcat@?$ctype@D@std@@SA_KPEAPEBVfacet@locale@2@PEBV42@@Z@4HA
	DD	03H
	DD	imagerel ?dtor$5@?0??_Getcat@?$ctype@D@std@@SA_KPEAPEBVfacet@locale@2@PEBV42@@Z@4HA
	DD	04H
	DD	imagerel ?dtor$6@?0??_Getcat@?$ctype@D@std@@SA_KPEAPEBVfacet@locale@2@PEBV42@@Z@4HA
	DD	05H
	DD	imagerel ?dtor$7@?0??_Getcat@?$ctype@D@std@@SA_KPEAPEBVfacet@locale@2@PEBV42@@Z@4HA
	DD	06H
	DD	imagerel ?dtor$8@?0??_Getcat@?$ctype@D@std@@SA_KPEAPEBVfacet@locale@2@PEBV42@@Z@4HA
xdata	ENDS
;	COMDAT CONST
CONST	SEGMENT
$cppxdata$?_Getcat@?$ctype@D@std@@SA_KPEAPEBVfacet@locale@2@PEBV42@@Z DD 019930522H
	DD	08H
	DD	imagerel $stateUnwindMap$?_Getcat@?$ctype@D@std@@SA_KPEAPEBVfacet@locale@2@PEBV42@@Z
	DD	00H
	DD	00H
	DD	0bH
	DD	imagerel $ip2state$?_Getcat@?$ctype@D@std@@SA_KPEAPEBVfacet@locale@2@PEBV42@@Z
	DD	088H
	DD	00H
	DD	01H
CONST	ENDS
;	COMDAT xdata
xdata	SEGMENT
$unwind$?_Getcat@?$ctype@D@std@@SA_KPEAPEBVfacet@locale@2@PEBV42@@Z DD 091f11H
	DD	01b641fH
	DD	01a541bH
	DD	0193417H
	DD	016010bH
	DD	07004H
	DD	imagerel __CxxFrameHandler3
	DD	imagerel $cppxdata$?_Getcat@?$ctype@D@std@@SA_KPEAPEBVfacet@locale@2@PEBV42@@Z
xdata	ENDS
;	COMDAT xdata
xdata	SEGMENT
$unwind$??1?$ctype@D@std@@MEAA@XZ DD 020601H
	DD	030023206H
xdata	ENDS
;	COMDAT xdata
xdata	SEGMENT
$unwind$?_Init@?$ctype@D@std@@IEAAXAEBV_Locinfo@2@@Z DD 020601H
	DD	030027206H
xdata	ENDS
;	COMDAT xdata
xdata	SEGMENT
$unwind$?_Tidy@?$ctype@D@std@@IEAAXXZ DD 020601H
	DD	030023206H
xdata	ENDS
;	COMDAT xdata
xdata	SEGMENT
$chain$1$?do_tolower@?$ctype@D@std@@MEBAPEBDPEADPEBD@Z DD 021H
	DD	imagerel $LN12
	DD	imagerel $LN12+38
	DD	imagerel $unwind$?do_tolower@?$ctype@D@std@@MEBAPEBDPEADPEBD@Z
xdata	ENDS
;	COMDAT xdata
xdata	SEGMENT
$chain$0$?do_tolower@?$ctype@D@std@@MEBAPEBDPEADPEBD@Z DD 020521H
	DD	065405H
	DD	imagerel $LN12
	DD	imagerel $LN12+38
	DD	imagerel $unwind$?do_tolower@?$ctype@D@std@@MEBAPEBDPEADPEBD@Z
xdata	ENDS
;	COMDAT xdata
xdata	SEGMENT
$unwind$?do_tolower@?$ctype@D@std@@MEBAPEBDPEADPEBD@Z DD 060f01H
	DD	08640fH
	DD	07340fH
	DD	0700b320fH
xdata	ENDS
;	COMDAT xdata
xdata	SEGMENT
$chain$1$?do_toupper@?$ctype@D@std@@MEBAPEBDPEADPEBD@Z DD 021H
	DD	imagerel $LN12
	DD	imagerel $LN12+38
	DD	imagerel $unwind$?do_toupper@?$ctype@D@std@@MEBAPEBDPEADPEBD@Z
xdata	ENDS
;	COMDAT xdata
xdata	SEGMENT
$chain$0$?do_toupper@?$ctype@D@std@@MEBAPEBDPEADPEBD@Z DD 020521H
	DD	065405H
	DD	imagerel $LN12
	DD	imagerel $LN12+38
	DD	imagerel $unwind$?do_toupper@?$ctype@D@std@@MEBAPEBDPEADPEBD@Z
xdata	ENDS
;	COMDAT xdata
xdata	SEGMENT
$unwind$?do_toupper@?$ctype@D@std@@MEBAPEBDPEADPEBD@Z DD 060f01H
	DD	08640fH
	DD	07340fH
	DD	0700b320fH
xdata	ENDS
;	COMDAT xdata
xdata	SEGMENT
$unwind$?do_widen@?$ctype@D@std@@MEBAPEBDPEBD0PEAD@Z DD 020601H
	DD	030023206H
xdata	ENDS
;	COMDAT xdata
xdata	SEGMENT
$unwind$?do_narrow@?$ctype@D@std@@MEBAPEBDPEBD0DPEAD@Z DD 020601H
	DD	030023206H
xdata	ENDS
;	COMDAT xdata
xdata	SEGMENT
$unwind$??_G?$ctype@D@std@@MEAAPEAXI@Z DD 040a01H
	DD	06340aH
	DD	07006320aH
xdata	ENDS
;	COMDAT xdata
xdata	SEGMENT
$unwind$??_Gerror_category@std@@UEAAPEAXI@Z DD 020601H
	DD	030023206H
xdata	ENDS
;	COMDAT xdata
xdata	SEGMENT
$unwind$?message@error_code@std@@QEBA?AV?$basic_string@DU?$char_traits@D@std@@V?$allocator@D@2@@2@XZ DD 020601H
	DD	030025206H
xdata	ENDS
;	COMDAT xdata
xdata	SEGMENT
$unwind$?equivalent@error_category@std@@UEBA_NHAEBVerror_condition@2@@Z DD 020601H
	DD	030025206H
xdata	ENDS
;	COMDAT xdata
xdata	SEGMENT
$unwind$?make_error_code@std@@YA?AVerror_code@1@W4io_errc@1@@Z DD 040a01H
	DD	06340aH
	DD	07006320aH
xdata	ENDS
;	COMDAT xdata
xdata	SEGMENT
$ip2state$?_Makestr@_System_error@std@@CA?AV?$basic_string@DU?$char_traits@D@std@@V?$allocator@D@2@@2@Verror_code@2@V32@@Z DD imagerel ?_Makestr@_System_error@std@@CA?AV?$basic_string@DU?$char_traits@D@std@@V?$allocator@D@2@@2@Verror_code@2@V32@@Z
	DD	0ffffffffH
	DD	imagerel ?_Makestr@_System_error@std@@CA?AV?$basic_string@DU?$char_traits@D@std@@V?$allocator@D@2@@2@Verror_code@2@V32@@Z+60
	DD	00H
	DD	imagerel ?_Makestr@_System_error@std@@CA?AV?$basic_string@DU?$char_traits@D@std@@V?$allocator@D@2@@2@Verror_code@2@V32@@Z+99
	DD	01H
	DD	imagerel ?_Makestr@_System_error@std@@CA?AV?$basic_string@DU?$char_traits@D@std@@V?$allocator@D@2@@2@Verror_code@2@V32@@Z+118
	DD	00H
	DD	imagerel ?_Makestr@_System_error@std@@CA?AV?$basic_string@DU?$char_traits@D@std@@V?$allocator@D@2@@2@Verror_code@2@V32@@Z+288
	DD	0ffffffffH
xdata	ENDS
;	COMDAT xdata
xdata	SEGMENT
$stateUnwindMap$?_Makestr@_System_error@std@@CA?AV?$basic_string@DU?$char_traits@D@std@@V?$allocator@D@2@@2@Verror_code@2@V32@@Z DD 0ffffffffH
	DD	imagerel ?dtor$0@?0??_Makestr@_System_error@std@@CA?AV?$basic_string@DU?$char_traits@D@std@@V?$allocator@D@2@@2@Verror_code@2@V32@@Z@4HA
	DD	00H
	DD	imagerel ?dtor$1@?0??_Makestr@_System_error@std@@CA?AV?$basic_string@DU?$char_traits@D@std@@V?$allocator@D@2@@2@Verror_code@2@V32@@Z@4HA
xdata	ENDS
;	COMDAT CONST
CONST	SEGMENT
$cppxdata$?_Makestr@_System_error@std@@CA?AV?$basic_string@DU?$char_traits@D@std@@V?$allocator@D@2@@2@Verror_code@2@V32@@Z DD 019930522H
	DD	02H
	DD	imagerel $stateUnwindMap$?_Makestr@_System_error@std@@CA?AV?$basic_string@DU?$char_traits@D@std@@V?$allocator@D@2@@2@Verror_code@2@V32@@Z
	DD	00H
	DD	00H
	DD	05H
	DD	imagerel $ip2state$?_Makestr@_System_error@std@@CA?AV?$basic_string@DU?$char_traits@D@std@@V?$allocator@D@2@@2@Verror_code@2@V32@@Z
	DD	028H
	DD	00H
	DD	01H
CONST	ENDS
;	COMDAT xdata
xdata	SEGMENT
$unwind$?_Makestr@_System_error@std@@CA?AV?$basic_string@DU?$char_traits@D@std@@V?$allocator@D@2@@2@Verror_code@2@V32@@Z DD 062819H
	DD	0133419H
	DD	07004b208H
	DD	050026003H
	DD	imagerel __GSHandlerCheck_EH
	DD	imagerel $cppxdata$?_Makestr@_System_error@std@@CA?AV?$basic_string@DU?$char_traits@D@std@@V?$allocator@D@2@@2@Verror_code@2@V32@@Z
	DD	05aH
xdata	ENDS
;	COMDAT xdata
xdata	SEGMENT
$unwind$??0_System_error@std@@IEAA@Verror_code@1@AEBV?$basic_string@DU?$char_traits@D@std@@V?$allocator@D@2@@1@@Z DD 041c19H
	DD	015340dH
	DD	07006f20dH
	DD	imagerel __GSHandlerCheck
	DD	070H
xdata	ENDS
;	COMDAT xdata
xdata	SEGMENT
$unwind$??_G_System_error@std@@UEAAPEAXI@Z DD 040a01H
	DD	06340aH
	DD	07006320aH
xdata	ENDS
;	COMDAT xdata
xdata	SEGMENT
$ip2state$??0system_error@std@@QEAA@Verror_code@1@PEBD@Z DD imagerel ??0system_error@std@@QEAA@Verror_code@1@PEBD@Z
	DD	0ffffffffH
	DD	imagerel ??0system_error@std@@QEAA@Verror_code@1@PEBD@Z+93
	DD	00H
	DD	imagerel ??0system_error@std@@QEAA@Verror_code@1@PEBD@Z+120
	DD	0ffffffffH
xdata	ENDS
;	COMDAT xdata
xdata	SEGMENT
$stateUnwindMap$??0system_error@std@@QEAA@Verror_code@1@PEBD@Z DD 0ffffffffH
	DD	imagerel ?dtor$0@?0???0system_error@std@@QEAA@Verror_code@1@PEBD@Z@4HA
xdata	ENDS
;	COMDAT CONST
CONST	SEGMENT
$cppxdata$??0system_error@std@@QEAA@Verror_code@1@PEBD@Z DD 019930522H
	DD	01H
	DD	imagerel $stateUnwindMap$??0system_error@std@@QEAA@Verror_code@1@PEBD@Z
	DD	00H
	DD	00H
	DD	03H
	DD	imagerel $ip2state$??0system_error@std@@QEAA@Verror_code@1@PEBD@Z
	DD	020H
	DD	00H
	DD	01H
CONST	ENDS
;	COMDAT xdata
xdata	SEGMENT
$unwind$??0system_error@std@@QEAA@Verror_code@1@PEBD@Z DD 042319H
	DD	0133414H
	DD	07004d208H
	DD	imagerel __GSHandlerCheck_EH
	DD	imagerel $cppxdata$??0system_error@std@@QEAA@Verror_code@1@PEBD@Z
	DD	062H
xdata	ENDS
;	COMDAT xdata
xdata	SEGMENT
$unwind$??_Gsystem_error@std@@UEAAPEAXI@Z DD 040a01H
	DD	06340aH
	DD	07006320aH
xdata	ENDS
;	COMDAT xdata
xdata	SEGMENT
$unwind$?message@_Generic_error_category@std@@UEBA?AV?$basic_string@DU?$char_traits@D@std@@V?$allocator@D@2@@2@H@Z DD 020601H
	DD	030025206H
xdata	ENDS
;	COMDAT xdata
xdata	SEGMENT
$unwind$??_G_Generic_error_category@std@@UEAAPEAXI@Z DD 020601H
	DD	030023206H
xdata	ENDS
;	COMDAT xdata
xdata	SEGMENT
$unwind$?message@_Iostream_error_category@std@@UEBA?AV?$basic_string@DU?$char_traits@D@std@@V?$allocator@D@2@@2@H@Z DD 020601H
	DD	030025206H
xdata	ENDS
;	COMDAT xdata
xdata	SEGMENT
$unwind$??_G_Iostream_error_category@std@@UEAAPEAXI@Z DD 020601H
	DD	030023206H
xdata	ENDS
;	COMDAT xdata
xdata	SEGMENT
$unwind$?iostream_category@std@@YAAEBVerror_category@1@XZ DD 010401H
	DD	04204H
xdata	ENDS
;	COMDAT xdata
xdata	SEGMENT
$unwind$??0failure@ios_base@std@@QEAA@PEBDAEBVerror_code@2@@Z DD 020601H
	DD	030025206H
xdata	ENDS
;	COMDAT xdata
xdata	SEGMENT
$unwind$?clear@ios_base@std@@QEAAXH_N@Z DD 010401H
	DD	0c204H
xdata	ENDS
;	COMDAT xdata
xdata	SEGMENT
$ip2state$?getloc@ios_base@std@@QEBA?AVlocale@2@XZ DD imagerel ?getloc@ios_base@std@@QEBA?AVlocale@2@XZ
	DD	0ffffffffH
	DD	imagerel ?getloc@ios_base@std@@QEBA?AVlocale@2@XZ+22
	DD	00H
	DD	imagerel ?getloc@ios_base@std@@QEBA?AVlocale@2@XZ+37
	DD	0ffffffffH
xdata	ENDS
;	COMDAT xdata
xdata	SEGMENT
$stateUnwindMap$?getloc@ios_base@std@@QEBA?AVlocale@2@XZ DD 0ffffffffH
	DD	imagerel __std_terminate
xdata	ENDS
;	COMDAT CONST
CONST	SEGMENT
$cppxdata$?getloc@ios_base@std@@QEBA?AVlocale@2@XZ DD 019930522H
	DD	01H
	DD	imagerel $stateUnwindMap$?getloc@ios_base@std@@QEBA?AVlocale@2@XZ
	DD	00H
	DD	00H
	DD	03H
	DD	imagerel $ip2state$?getloc@ios_base@std@@QEBA?AVlocale@2@XZ
	DD	020H
	DD	00H
	DD	01H
CONST	ENDS
;	COMDAT xdata
xdata	SEGMENT
$unwind$?getloc@ios_base@std@@QEBA?AVlocale@2@XZ DD 020f11H
	DD	030025206H
	DD	imagerel __CxxFrameHandler3
	DD	imagerel $cppxdata$?getloc@ios_base@std@@QEBA?AVlocale@2@XZ
xdata	ENDS
;	COMDAT xdata
xdata	SEGMENT
$unwind$??_Gfailure@ios_base@std@@UEAAPEAXI@Z DD 040a01H
	DD	06340aH
	DD	07006320aH
xdata	ENDS
;	COMDAT xdata
xdata	SEGMENT
$unwind$??0failure@ios_base@std@@QEAA@AEBV012@@Z DD 040a01H
	DD	06340aH
	DD	07006320aH
xdata	ENDS
;	COMDAT xdata
xdata	SEGMENT
$unwind$??0system_error@std@@QEAA@AEBV01@@Z DD 040a01H
	DD	06340aH
	DD	07006320aH
xdata	ENDS
;	COMDAT xdata
xdata	SEGMENT
$unwind$??0_System_error@std@@QEAA@AEBV01@@Z DD 040a01H
	DD	06340aH
	DD	07006320aH
$cppxdata$main DD 019930522H
	DD	03H
	DD	imagerel $stateUnwindMap$main
	DD	00H
	DD	00H
	DD	06H
	DD	imagerel $ip2state$main
	DD	020H
	DD	00H
	DD	01H
$cppxdata$?setVector@@YA?AV?$vector@DV?$allocator@D@std@@@std@@D@Z DD 019930522H
	DD	01H
	DD	imagerel $stateUnwindMap$?setVector@@YA?AV?$vector@DV?$allocator@D@std@@@std@@D@Z
	DD	00H
	DD	00H
	DD	02H
	DD	imagerel $ip2state$?setVector@@YA?AV?$vector@DV?$allocator@D@std@@@std@@D@Z
	DD	028H
	DD	00H
	DD	01H
CONST	ENDS
xdata	SEGMENT
$unwind$main DD	0a2311H
	DD	0f7423H
	DD	0e641eH
	DD	0d5419H
	DD	0c3414H
	DD	0e0029206H
	DD	imagerel __CxxFrameHandler3
	DD	imagerel $cppxdata$main
$stateUnwindMap$main DD 0ffffffffH
	DD	imagerel main$dtor$0
	DD	00H
	DD	imagerel main$dtor$13
	DD	00H
	DD	imagerel __std_terminate
$ip2state$main DD imagerel main
	DD	0ffffffffH
	DD	imagerel main+97
	DD	00H
	DD	imagerel main+160
	DD	01H
	DD	imagerel main+171
	DD	02H
	DD	imagerel main+207
	DD	00H
	DD	imagerel main+267
	DD	0ffffffffH
$unwind$?setVector@@YA?AV?$vector@DV?$allocator@D@std@@@std@@D@Z DD 061d11H
	DD	0a641dH
	DD	093418H
	DD	07006520aH
	DD	imagerel __CxxFrameHandler3
	DD	imagerel $cppxdata$?setVector@@YA?AV?$vector@DV?$allocator@D@std@@@std@@D@Z
$stateUnwindMap$?setVector@@YA?AV?$vector@DV?$allocator@D@std@@@std@@D@Z DD 0ffffffffH
	DD	imagerel ?dtor$0@?0??setVector@@YA?AV?$vector@DV?$allocator@D@std@@@std@@D@Z@4HA
$ip2state$?setVector@@YA?AV?$vector@DV?$allocator@D@std@@@std@@D@Z DD imagerel ?setVector@@YA?AV?$vector@DV?$allocator@D@std@@@std@@D@Z
	DD	0ffffffffH
	DD	imagerel ?setVector@@YA?AV?$vector@DV?$allocator@D@std@@@std@@D@Z+35
	DD	00H
$unwind$?dtor$0@?0??setVector@@YA?AV?$vector@DV?$allocator@D@std@@@std@@D@Z@4HA DD 020601H
	DD	050023206H
xdata	ENDS
;	COMDAT xdata
xdata	SEGMENT
$unwind$??R<lambda_0965ae3a6f2eda0c9be18e4c004bd2c1>@@QEBAPEADPEAD_K@Z DD 040a01H
	DD	06340aH
	DD	07006320aH
xdata	ENDS
;	COMDAT xdata
xdata	SEGMENT
$unwind$??1?$vector@DV?$allocator@D@std@@@std@@QEAA@XZ DD 020601H
	DD	030023206H
xdata	ENDS
;	COMDAT xdata
xdata	SEGMENT
$unwind$??1?$_Yarn@_W@std@@QEAA@XZ DD 020601H
	DD	030023206H
xdata	ENDS
;	COMDAT xdata
xdata	SEGMENT
$unwind$??1?$_Yarn@D@std@@QEAA@XZ DD 020601H
	DD	030023206H
xdata	ENDS
;	COMDAT xdata
xdata	SEGMENT
$unwind$??1?$basic_string@DU?$char_traits@D@std@@V?$allocator@D@2@@std@@QEAA@XZ DD 010401H
	DD	04204H
xdata	ENDS
;	COMDAT xdata
xdata	SEGMENT
$unwind$??0?$basic_string@DU?$char_traits@D@std@@V?$allocator@D@2@@std@@QEAA@$$QEAV01@@Z DD 040a01H
	DD	06340aH
	DD	07006320aH
xdata	ENDS
;	COMDAT xdata
xdata	SEGMENT
$unwind$??0?$basic_string@DU?$char_traits@D@std@@V?$allocator@D@2@@std@@QEAA@QEBD@Z DD 020601H
	DD	030023206H
xdata	ENDS
;	COMDAT xdata
xdata	SEGMENT
$unwind$??0?$basic_string@DU?$char_traits@D@std@@V?$allocator@D@2@@std@@QEAA@AEBV01@@Z DD 020601H
	DD	030023206H
xdata	ENDS
;	COMDAT xdata
xdata	SEGMENT
$unwind$?_Tidy@?$vector@DV?$allocator@D@std@@@std@@AEAAXXZ DD 020601H
	DD	030023206H
xdata	ENDS
;	COMDAT xdata
xdata	SEGMENT
$unwind$?_Udefault@?$vector@DV?$allocator@D@std@@@std@@AEAAPEADPEAD_K@Z DD 040a01H
	DD	06340aH
	DD	07006320aH
xdata	ENDS
;	COMDAT xdata
xdata	SEGMENT
$unwind$?_Tidy@?$_Yarn@_W@std@@AEAAXXZ DD 020601H
	DD	030023206H
xdata	ENDS
;	COMDAT xdata
xdata	SEGMENT
$unwind$?_Tidy@?$_Yarn@D@std@@AEAAXXZ DD 020601H
	DD	030023206H
xdata	ENDS
;	COMDAT xdata
xdata	SEGMENT
$unwind$?_Tidy_deallocate_only@?$basic_string@DU?$char_traits@D@std@@V?$allocator@D@2@@std@@QEAAXXZ DD 010401H
	DD	04204H
xdata	ENDS
;	COMDAT xdata
xdata	SEGMENT
$chain$1$?append@?$basic_string@DU?$char_traits@D@std@@V?$allocator@D@2@@std@@QEAAAEAV12@QEBD_K@Z DD 021H
	DD	imagerel $LN142
	DD	imagerel $LN142+119
	DD	imagerel $unwind$?append@?$basic_string@DU?$char_traits@D@std@@V?$allocator@D@2@@std@@QEAAAEAV12@QEBD_K@Z
xdata	ENDS
;	COMDAT xdata
xdata	SEGMENT
$chain$0$?append@?$basic_string@DU?$char_traits@D@std@@V?$allocator@D@2@@std@@QEAAAEAV12@QEBD_K@Z DD 020521H
	DD	067405H
	DD	imagerel $LN142
	DD	imagerel $LN142+119
	DD	imagerel $unwind$?append@?$basic_string@DU?$char_traits@D@std@@V?$allocator@D@2@@std@@QEAAAEAV12@QEBD_K@Z
xdata	ENDS
;	COMDAT xdata
xdata	SEGMENT
$unwind$?append@?$basic_string@DU?$char_traits@D@std@@V?$allocator@D@2@@std@@QEAAAEAV12@QEBD_K@Z DD 060f01H
	DD	08540fH
	DD	07340fH
	DD	0600b320fH
xdata	ENDS
;	COMDAT xdata
xdata	SEGMENT
$chain$1$?append@?$basic_string@DU?$char_traits@D@std@@V?$allocator@D@2@@std@@QEAAAEAV12@AEBV12@_K_K@Z DD 021H
	DD	imagerel $LN151
	DD	imagerel $LN151+75
	DD	imagerel $unwind$?append@?$basic_string@DU?$char_traits@D@std@@V?$allocator@D@2@@std@@QEAAAEAV12@AEBV12@_K_K@Z
xdata	ENDS
;	COMDAT xdata
xdata	SEGMENT
$chain$0$?append@?$basic_string@DU?$char_traits@D@std@@V?$allocator@D@2@@std@@QEAAAEAV12@AEBV12@_K_K@Z DD 020521H
	DD	067405H
	DD	imagerel $LN151
	DD	imagerel $LN151+75
	DD	imagerel $unwind$?append@?$basic_string@DU?$char_traits@D@std@@V?$allocator@D@2@@std@@QEAAAEAV12@AEBV12@_K_K@Z
xdata	ENDS
;	COMDAT xdata
xdata	SEGMENT
$unwind$?append@?$basic_string@DU?$char_traits@D@std@@V?$allocator@D@2@@std@@QEAAAEAV12@AEBV12@_K_K@Z DD 081501H
	DD	096415H
	DD	085415H
	DD	073415H
	DD	0e0113215H
xdata	ENDS
;	COMDAT xdata
xdata	SEGMENT
$unwind$?_Assign_rv_contents@?$basic_string@DU?$char_traits@D@std@@V?$allocator@D@2@@std@@QEAAX$$QEAV12@@Z DD 040a01H
	DD	06340aH
	DD	07006320aH
xdata	ENDS
;	COMDAT xdata
xdata	SEGMENT
$unwind$?deallocate@?$_Wrap_alloc@V?$allocator@D@std@@@std@@QEAAXPEAD_K@Z DD 010401H
	DD	04204H
xdata	ENDS
;	COMDAT xdata
xdata	SEGMENT
$unwind$?_Check_offset@?$basic_string@DU?$char_traits@D@std@@V?$allocator@D@2@@std@@QEBAX_K@Z DD 010401H
	DD	04204H
xdata	ENDS
;	COMDAT xdata
xdata	SEGMENT
$unwind$?_Xlen@?$basic_string@DU?$char_traits@D@std@@V?$allocator@D@2@@std@@SAXXZ DD 010401H
	DD	04204H
xdata	ENDS
;	COMDAT xdata
xdata	SEGMENT
$unwind$?_Grow@?$basic_string@DU?$char_traits@D@std@@V?$allocator@D@2@@std@@QEAA_N_K@Z DD 010401H
	DD	04204H
xdata	ENDS
;	COMDAT xdata
xdata	SEGMENT
$unwind$?assign@?$basic_string@DU?$char_traits@D@std@@V?$allocator@D@2@@std@@QEAAAEAV12@QEBD_K@Z DD 060f01H
	DD	07640fH
	DD	06340fH
	DD	0700b320fH
xdata	ENDS
;	COMDAT xdata
xdata	SEGMENT
$unwind$?assign@?$basic_string@DU?$char_traits@D@std@@V?$allocator@D@2@@std@@QEAAAEAV12@AEBV12@_K_K@Z DD 081501H
	DD	087415H
	DD	076415H
	DD	063415H
	DD	0e0113215H
xdata	ENDS
;	COMDAT xdata
xdata	SEGMENT
$unwind$?_Xran@?$basic_string@DU?$char_traits@D@std@@V?$allocator@D@2@@std@@SAXXZ DD 010401H
	DD	04204H
xdata	ENDS
;	COMDAT xdata
xdata	SEGMENT
$unwind$?catch$16@?0??_Copy@?$basic_string@DU?$char_traits@D@std@@V?$allocator@D@2@@std@@QEAAX_K@Z@4HA DD 020a19H
	DD	05006320aH
	DD	imagerel __CxxFrameHandler3
	DD	imagerel $cppxdata$?_Copy@?$basic_string@DU?$char_traits@D@std@@V?$allocator@D@2@@std@@QEAAX_K@Z
xdata	ENDS
;	COMDAT xdata
xdata	SEGMENT
$ip2state$?_Copy@?$basic_string@DU?$char_traits@D@std@@V?$allocator@D@2@@std@@QEAAX_K@Z DD imagerel ?_Copy@?$basic_string@DU?$char_traits@D@std@@V?$allocator@D@2@@std@@QEAAX_K@Z
	DD	0ffffffffH
	DD	imagerel ?_Copy@?$basic_string@DU?$char_traits@D@std@@V?$allocator@D@2@@std@@QEAAX_K@Z+119
	DD	00H
	DD	imagerel ?_Copy@?$basic_string@DU?$char_traits@D@std@@V?$allocator@D@2@@std@@QEAAX_K@Z+185
	DD	0ffffffffH
	DD	imagerel ?catch$16@?0??_Copy@?$basic_string@DU?$char_traits@D@std@@V?$allocator@D@2@@std@@QEAAX_K@Z@4HA
	DD	00H
	DD	imagerel ?catch$16@?0??_Copy@?$basic_string@DU?$char_traits@D@std@@V?$allocator@D@2@@std@@QEAAX_K@Z@4HA+13
	DD	01H
	DD	imagerel ?catch$16@?0??_Copy@?$basic_string@DU?$char_traits@D@std@@V?$allocator@D@2@@std@@QEAAX_K@Z@4HA+37
	DD	00H
xdata	ENDS
;	COMDAT xdata
xdata	SEGMENT
$handlerMap$0$?_Copy@?$basic_string@DU?$char_traits@D@std@@V?$allocator@D@2@@std@@QEAAX_K@Z DD 040H
	DD	00H
	DD	00H
	DD	imagerel ?catch$16@?0??_Copy@?$basic_string@DU?$char_traits@D@std@@V?$allocator@D@2@@std@@QEAAX_K@Z@4HA
	DD	038H
xdata	ENDS
;	COMDAT xdata
xdata	SEGMENT
$tryMap$?_Copy@?$basic_string@DU?$char_traits@D@std@@V?$allocator@D@2@@std@@QEAAX_K@Z DD 00H
	DD	00H
	DD	01H
	DD	01H
	DD	imagerel $handlerMap$0$?_Copy@?$basic_string@DU?$char_traits@D@std@@V?$allocator@D@2@@std@@QEAAX_K@Z
xdata	ENDS
;	COMDAT xdata
xdata	SEGMENT
$stateUnwindMap$?_Copy@?$basic_string@DU?$char_traits@D@std@@V?$allocator@D@2@@std@@QEAAX_K@Z DD 0ffffffffH
	DD	00H
	DD	0ffffffffH
	DD	00H
xdata	ENDS
;	COMDAT CONST
CONST	SEGMENT
$cppxdata$?_Copy@?$basic_string@DU?$char_traits@D@std@@V?$allocator@D@2@@std@@QEAAX_K@Z DD 019930522H
	DD	02H
	DD	imagerel $stateUnwindMap$?_Copy@?$basic_string@DU?$char_traits@D@std@@V?$allocator@D@2@@std@@QEAAX_K@Z
	DD	01H
	DD	imagerel $tryMap$?_Copy@?$basic_string@DU?$char_traits@D@std@@V?$allocator@D@2@@std@@QEAAX_K@Z
	DD	06H
	DD	imagerel $ip2state$?_Copy@?$basic_string@DU?$char_traits@D@std@@V?$allocator@D@2@@std@@QEAAX_K@Z
	DD	020H
	DD	00H
	DD	01H
CONST	ENDS
;	COMDAT xdata
xdata	SEGMENT
$unwind$?_Copy@?$basic_string@DU?$char_traits@D@std@@V?$allocator@D@2@@std@@QEAAX_K@Z DD 051c19H
	DD	0e00f6213H
	DD	0600c700dH
	DD	0300bH
	DD	imagerel __CxxFrameHandler3
	DD	imagerel $cppxdata$?_Copy@?$basic_string@DU?$char_traits@D@std@@V?$allocator@D@2@@std@@QEAAX_K@Z
xdata	ENDS
;	COMDAT xdata
xdata	SEGMENT
$unwind$?erase@?$basic_string@DU?$char_traits@D@std@@V?$allocator@D@2@@std@@QEAAAEAV12@_K0@Z DD 040a01H
	DD	06340aH
	DD	07006320aH
xdata	ENDS
;	COMDAT xdata
xdata	SEGMENT
$unwind$?erase@?$basic_string@DU?$char_traits@D@std@@V?$allocator@D@2@@std@@QEAAAEAV12@_K@Z DD 010401H
	DD	04204H
xdata	ENDS
;	COMDAT xdata
xdata	SEGMENT
$unwind$?deallocate@?$allocator@D@std@@QEAAXPEAD_K@Z DD 010401H
	DD	04204H
xdata	ENDS
;	COMDAT xdata
xdata	SEGMENT
$unwind$?allocate@?$_Wrap_alloc@V?$allocator@D@std@@@std@@QEAAPEAD_K@Z DD 010401H
	DD	04204H
xdata	ENDS
;	COMDAT xdata
xdata	SEGMENT
$unwind$?allocate@?$allocator@D@std@@QEAAPEAD_K@Z DD 010401H
	DD	04204H
xdata	ENDS
;	COMDAT xdata
xdata	SEGMENT
$ip2state$??$use_facet@V?$ctype@D@std@@@std@@YAAEBV?$ctype@D@0@AEBVlocale@0@@Z DD imagerel ??$use_facet@V?$ctype@D@std@@@std@@YAAEBV?$ctype@D@0@AEBVlocale@0@@Z
	DD	0ffffffffH
	DD	imagerel ??$use_facet@V?$ctype@D@std@@@std@@YAAEBV?$ctype@D@0@AEBVlocale@0@@Z+38
	DD	00H
	DD	imagerel ??$use_facet@V?$ctype@D@std@@@std@@YAAEBV?$ctype@D@0@AEBVlocale@0@@Z+300
	DD	0ffffffffH
xdata	ENDS
;	COMDAT xdata
xdata	SEGMENT
$stateUnwindMap$??$use_facet@V?$ctype@D@std@@@std@@YAAEBV?$ctype@D@0@AEBVlocale@0@@Z DD 0ffffffffH
	DD	imagerel ?dtor$0@?0???$use_facet@V?$ctype@D@std@@@std@@YAAEBV?$ctype@D@0@AEBVlocale@0@@Z@4HA
xdata	ENDS
;	COMDAT CONST
CONST	SEGMENT
$cppxdata$??$use_facet@V?$ctype@D@std@@@std@@YAAEBV?$ctype@D@0@AEBVlocale@0@@Z DD 019930522H
	DD	01H
	DD	imagerel $stateUnwindMap$??$use_facet@V?$ctype@D@std@@@std@@YAAEBV?$ctype@D@0@AEBVlocale@0@@Z
	DD	00H
	DD	00H
	DD	03H
	DD	imagerel $ip2state$??$use_facet@V?$ctype@D@std@@@std@@YAAEBV?$ctype@D@0@AEBVlocale@0@@Z
	DD	020H
	DD	00H
	DD	01H
CONST	ENDS
;	COMDAT xdata
xdata	SEGMENT
$unwind$??$use_facet@V?$ctype@D@std@@@std@@YAAEBV?$ctype@D@0@AEBVlocale@0@@Z DD 061611H
	DD	0f3416H
	DD	070047208H
	DD	050026003H
	DD	imagerel __CxxFrameHandler3
	DD	imagerel $cppxdata$??$use_facet@V?$ctype@D@std@@@std@@YAAEBV?$ctype@D@0@AEBVlocale@0@@Z
xdata	ENDS
;	COMDAT xdata
xdata	SEGMENT
$unwind$??$_Immortalize@V_Iostream_error_category@std@@@std@@YAAEAV_Iostream_error_category@0@XZ DD 010401H
	DD	04204H
xdata	ENDS
;	COMDAT xdata
xdata	SEGMENT
$unwind$?catch$16@?0???$?6U?$char_traits@D@std@@@std@@YAAEAV?$basic_ostream@DU?$char_traits@D@std@@@0@AEAV10@D@Z@4HA DD 020a19H
	DD	05006320aH
	DD	imagerel __CxxFrameHandler3
	DD	imagerel $cppxdata$??$?6U?$char_traits@D@std@@@std@@YAAEAV?$basic_ostream@DU?$char_traits@D@std@@@0@AEAV10@D@Z
xdata	ENDS
;	COMDAT xdata
xdata	SEGMENT
$ip2state$??$?6U?$char_traits@D@std@@@std@@YAAEAV?$basic_ostream@DU?$char_traits@D@std@@@0@AEAV10@D@Z DD imagerel ??$?6U?$char_traits@D@std@@@std@@YAAEAV?$basic_ostream@DU?$char_traits@D@std@@@0@AEAV10@D@Z
	DD	0ffffffffH
	DD	imagerel ??$?6U?$char_traits@D@std@@@std@@YAAEAV?$basic_ostream@DU?$char_traits@D@std@@@0@AEAV10@D@Z+109
	DD	00H
	DD	imagerel ??$?6U?$char_traits@D@std@@@std@@YAAEAV?$basic_ostream@DU?$char_traits@D@std@@@0@AEAV10@D@Z+163
	DD	01H
	DD	imagerel ??$?6U?$char_traits@D@std@@@std@@YAAEAV?$basic_ostream@DU?$char_traits@D@std@@@0@AEAV10@D@Z+190
	DD	02H
	DD	imagerel ??$?6U?$char_traits@D@std@@@std@@YAAEAV?$basic_ostream@DU?$char_traits@D@std@@@0@AEAV10@D@Z+509
	DD	01H
	DD	imagerel ??$?6U?$char_traits@D@std@@@std@@YAAEAV?$basic_ostream@DU?$char_traits@D@std@@@0@AEAV10@D@Z+761
	DD	04H
	DD	imagerel ??$?6U?$char_traits@D@std@@@std@@YAAEAV?$basic_ostream@DU?$char_traits@D@std@@@0@AEAV10@D@Z+779
	DD	05H
	DD	imagerel ??$?6U?$char_traits@D@std@@@std@@YAAEAV?$basic_ostream@DU?$char_traits@D@std@@@0@AEAV10@D@Z+804
	DD	0ffffffffH
	DD	imagerel ?catch$16@?0???$?6U?$char_traits@D@std@@@std@@YAAEAV?$basic_ostream@DU?$char_traits@D@std@@@0@AEAV10@D@Z@4HA
	DD	00H
	DD	imagerel ?catch$16@?0???$?6U?$char_traits@D@std@@@std@@YAAEAV?$basic_ostream@DU?$char_traits@D@std@@@0@AEAV10@D@Z@4HA+13
	DD	03H
	DD	imagerel ?catch$16@?0???$?6U?$char_traits@D@std@@@std@@YAAEAV?$basic_ostream@DU?$char_traits@D@std@@@0@AEAV10@D@Z@4HA+57
	DD	00H
	DD	imagerel ?catch$16@?0???$?6U?$char_traits@D@std@@@std@@YAAEAV?$basic_ostream@DU?$char_traits@D@std@@@0@AEAV10@D@Z@4HA+66
	DD	03H
	DD	imagerel ?catch$16@?0???$?6U?$char_traits@D@std@@@std@@YAAEAV?$basic_ostream@DU?$char_traits@D@std@@@0@AEAV10@D@Z@4HA+76
	DD	00H
xdata	ENDS
;	COMDAT xdata
xdata	SEGMENT
$handlerMap$0$??$?6U?$char_traits@D@std@@@std@@YAAEAV?$basic_ostream@DU?$char_traits@D@std@@@0@AEAV10@D@Z DD 040H
	DD	00H
	DD	00H
	DD	imagerel ?catch$16@?0???$?6U?$char_traits@D@std@@@std@@YAAEAV?$basic_ostream@DU?$char_traits@D@std@@@0@AEAV10@D@Z@4HA
	DD	038H
xdata	ENDS
;	COMDAT xdata
xdata	SEGMENT
$tryMap$??$?6U?$char_traits@D@std@@@std@@YAAEAV?$basic_ostream@DU?$char_traits@D@std@@@0@AEAV10@D@Z DD 02H
	DD	02H
	DD	03H
	DD	01H
	DD	imagerel $handlerMap$0$??$?6U?$char_traits@D@std@@@std@@YAAEAV?$basic_ostream@DU?$char_traits@D@std@@@0@AEAV10@D@Z
xdata	ENDS
;	COMDAT xdata
xdata	SEGMENT
$stateUnwindMap$??$?6U?$char_traits@D@std@@@std@@YAAEAV?$basic_ostream@DU?$char_traits@D@std@@@0@AEAV10@D@Z DD 0ffffffffH
	DD	imagerel ?dtor$1@?0???$?6U?$char_traits@D@std@@@std@@YAAEAV?$basic_ostream@DU?$char_traits@D@std@@@0@AEAV10@D@Z@4HA
	DD	0ffffffffH
	DD	imagerel ?dtor$0@?0???$?6U?$char_traits@D@std@@@std@@YAAEAV?$basic_ostream@DU?$char_traits@D@std@@@0@AEAV10@D@Z@4HA
	DD	01H
	DD	00H
	DD	01H
	DD	00H
	DD	0ffffffffH
	DD	imagerel __std_terminate
	DD	04H
	DD	imagerel __std_terminate
xdata	ENDS
;	COMDAT CONST
CONST	SEGMENT
$cppxdata$??$?6U?$char_traits@D@std@@@std@@YAAEAV?$basic_ostream@DU?$char_traits@D@std@@@0@AEAV10@D@Z DD 019930522H
	DD	06H
	DD	imagerel $stateUnwindMap$??$?6U?$char_traits@D@std@@@std@@YAAEAV?$basic_ostream@DU?$char_traits@D@std@@@0@AEAV10@D@Z
	DD	01H
	DD	imagerel $tryMap$??$?6U?$char_traits@D@std@@@std@@YAAEAV?$basic_ostream@DU?$char_traits@D@std@@@0@AEAV10@D@Z
	DD	0dH
	DD	imagerel $ip2state$??$?6U?$char_traits@D@std@@@std@@YAAEAV?$basic_ostream@DU?$char_traits@D@std@@@0@AEAV10@D@Z
	DD	040H
	DD	00H
	DD	01H
CONST	ENDS
;	COMDAT xdata
xdata	SEGMENT
$unwind$??$?6U?$char_traits@D@std@@@std@@YAAEAV?$basic_ostream@DU?$char_traits@D@std@@@0@AEAV10@D@Z DD 092419H
	DD	018011bH
	DD	0e012f014H
	DD	0c00ed010H
	DD	0600b700cH
	DD	0300aH
	DD	imagerel __CxxFrameHandler3
	DD	imagerel $cppxdata$??$?6U?$char_traits@D@std@@@std@@YAAEAV?$basic_ostream@DU?$char_traits@D@std@@@0@AEAV10@D@Z
xdata	ENDS
;	COMDAT xdata
xdata	SEGMENT
$ip2state$??$endl@DU?$char_traits@D@std@@@std@@YAAEAV?$basic_ostream@DU?$char_traits@D@std@@@0@AEAV10@@Z DD imagerel ??$endl@DU?$char_traits@D@std@@@std@@YAAEAV?$basic_ostream@DU?$char_traits@D@std@@@0@AEAV10@@Z
	DD	0ffffffffH
	DD	imagerel ??$endl@DU?$char_traits@D@std@@@std@@YAAEAV?$basic_ostream@DU?$char_traits@D@std@@@0@AEAV10@@Z+44
	DD	00H
	DD	imagerel ??$endl@DU?$char_traits@D@std@@@std@@YAAEAV?$basic_ostream@DU?$char_traits@D@std@@@0@AEAV10@@Z+55
	DD	01H
	DD	imagerel ??$endl@DU?$char_traits@D@std@@@std@@YAAEAV?$basic_ostream@DU?$char_traits@D@std@@@0@AEAV10@@Z+91
	DD	0ffffffffH
xdata	ENDS
;	COMDAT xdata
xdata	SEGMENT
$stateUnwindMap$??$endl@DU?$char_traits@D@std@@@std@@YAAEAV?$basic_ostream@DU?$char_traits@D@std@@@0@AEAV10@@Z DD 0ffffffffH
	DD	imagerel ?dtor$0@?0???$endl@DU?$char_traits@D@std@@@std@@YAAEAV?$basic_ostream@DU?$char_traits@D@std@@@0@AEAV10@@Z@4HA
	DD	0ffffffffH
	DD	imagerel __std_terminate
xdata	ENDS
;	COMDAT CONST
CONST	SEGMENT
$cppxdata$??$endl@DU?$char_traits@D@std@@@std@@YAAEAV?$basic_ostream@DU?$char_traits@D@std@@@0@AEAV10@@Z DD 019930522H
	DD	02H
	DD	imagerel $stateUnwindMap$??$endl@DU?$char_traits@D@std@@@std@@YAAEAV?$basic_ostream@DU?$char_traits@D@std@@@0@AEAV10@@Z
	DD	00H
	DD	00H
	DD	04H
	DD	imagerel $ip2state$??$endl@DU?$char_traits@D@std@@@std@@YAAEAV?$basic_ostream@DU?$char_traits@D@std@@@0@AEAV10@@Z
	DD	020H
	DD	00H
	DD	01H
CONST	ENDS
;	COMDAT xdata
xdata	SEGMENT
$unwind$??$endl@DU?$char_traits@D@std@@@std@@YAAEAV?$basic_ostream@DU?$char_traits@D@std@@@0@AEAV10@@Z DD 041411H
	DD	0a3414H
	DD	070027206H
	DD	imagerel __CxxFrameHandler3
	DD	imagerel $cppxdata$??$endl@DU?$char_traits@D@std@@@std@@YAAEAV?$basic_ostream@DU?$char_traits@D@std@@@0@AEAV10@@Z
xdata	ENDS
;	COMDAT xdata
xdata	SEGMENT
$chain$2$??$_Resize@V<lambda_0965ae3a6f2eda0c9be18e4c004bd2c1>@@@?$vector@DV?$allocator@D@std@@@std@@AEAAX_KV<lambda_0965ae3a6f2eda0c9be18e4c004bd2c1>@@@Z DD 020021H
	DD	066400H
	DD	imagerel ??$_Resize@V<lambda_0965ae3a6f2eda0c9be18e4c004bd2c1>@@@?$vector@DV?$allocator@D@std@@@std@@AEAAX_KV<lambda_0965ae3a6f2eda0c9be18e4c004bd2c1>@@@Z
	DD	imagerel ??$_Resize@V<lambda_0965ae3a6f2eda0c9be18e4c004bd2c1>@@@?$vector@DV?$allocator@D@std@@@std@@AEAAX_KV<lambda_0965ae3a6f2eda0c9be18e4c004bd2c1>@@@Z+61
	DD	imagerel $unwind$??$_Resize@V<lambda_0965ae3a6f2eda0c9be18e4c004bd2c1>@@@?$vector@DV?$allocator@D@std@@@std@@AEAAX_KV<lambda_0965ae3a6f2eda0c9be18e4c004bd2c1>@@@Z
xdata	ENDS
;	COMDAT xdata
xdata	SEGMENT
$chain$1$??$_Resize@V<lambda_0965ae3a6f2eda0c9be18e4c004bd2c1>@@@?$vector@DV?$allocator@D@std@@@std@@AEAAX_KV<lambda_0965ae3a6f2eda0c9be18e4c004bd2c1>@@@Z DD 021H
	DD	imagerel ??$_Resize@V<lambda_0965ae3a6f2eda0c9be18e4c004bd2c1>@@@?$vector@DV?$allocator@D@std@@@std@@AEAAX_KV<lambda_0965ae3a6f2eda0c9be18e4c004bd2c1>@@@Z
	DD	imagerel ??$_Resize@V<lambda_0965ae3a6f2eda0c9be18e4c004bd2c1>@@@?$vector@DV?$allocator@D@std@@@std@@AEAAX_KV<lambda_0965ae3a6f2eda0c9be18e4c004bd2c1>@@@Z+61
	DD	imagerel $unwind$??$_Resize@V<lambda_0965ae3a6f2eda0c9be18e4c004bd2c1>@@@?$vector@DV?$allocator@D@std@@@std@@AEAAX_KV<lambda_0965ae3a6f2eda0c9be18e4c004bd2c1>@@@Z
xdata	ENDS
;	COMDAT xdata
xdata	SEGMENT
$chain$0$??$_Resize@V<lambda_0965ae3a6f2eda0c9be18e4c004bd2c1>@@@?$vector@DV?$allocator@D@std@@@std@@AEAAX_KV<lambda_0965ae3a6f2eda0c9be18e4c004bd2c1>@@@Z DD 020521H
	DD	066405H
	DD	imagerel ??$_Resize@V<lambda_0965ae3a6f2eda0c9be18e4c004bd2c1>@@@?$vector@DV?$allocator@D@std@@@std@@AEAAX_KV<lambda_0965ae3a6f2eda0c9be18e4c004bd2c1>@@@Z
	DD	imagerel ??$_Resize@V<lambda_0965ae3a6f2eda0c9be18e4c004bd2c1>@@@?$vector@DV?$allocator@D@std@@@std@@AEAAX_KV<lambda_0965ae3a6f2eda0c9be18e4c004bd2c1>@@@Z+61
	DD	imagerel $unwind$??$_Resize@V<lambda_0965ae3a6f2eda0c9be18e4c004bd2c1>@@@?$vector@DV?$allocator@D@std@@@std@@AEAAX_KV<lambda_0965ae3a6f2eda0c9be18e4c004bd2c1>@@@Z
xdata	ENDS
;	COMDAT xdata
xdata	SEGMENT
$unwind$??$_Resize@V<lambda_0965ae3a6f2eda0c9be18e4c004bd2c1>@@@?$vector@DV?$allocator@D@std@@@std@@AEAAX_KV<lambda_0965ae3a6f2eda0c9be18e4c004bd2c1>@@@Z DD 081501H
	DD	097415H
	DD	085415H
	DD	073415H
	DD	0e0113215H
xdata	ENDS
;	COMDAT xdata
xdata	SEGMENT
$unwind$??$_Uninitialized_default_fill_n@PEAD_KV?$allocator@D@std@@@std@@YAPEADPEAD_KAEAU?$_Wrap_alloc@V?$allocator@D@std@@@0@@Z DD 040a01H
	DD	06340aH
	DD	07006320aH
xdata	ENDS
;	COMDAT xdata
xdata	SEGMENT
$unwind$??0bad_cast@std@@QEAA@AEBV01@@Z DD 020601H
	DD	030023206H
xdata	ENDS
;	COMDAT xdata
xdata	SEGMENT
$ip2state$??1sentry@?$basic_ostream@DU?$char_traits@D@std@@@std@@QEAA@XZ DD imagerel ??1sentry@?$basic_ostream@DU?$char_traits@D@std@@@std@@QEAA@XZ
	DD	0ffffffffH
	DD	imagerel ??1sentry@?$basic_ostream@DU?$char_traits@D@std@@@std@@QEAA@XZ+37
	DD	00H
	DD	imagerel ??1sentry@?$basic_ostream@DU?$char_traits@D@std@@@std@@QEAA@XZ+64
	DD	0ffffffffH
xdata	ENDS
;	COMDAT xdata
xdata	SEGMENT
$stateUnwindMap$??1sentry@?$basic_ostream@DU?$char_traits@D@std@@@std@@QEAA@XZ DD 0ffffffffH
	DD	imagerel __std_terminate
xdata	ENDS
;	COMDAT CONST
CONST	SEGMENT
$cppxdata$??1sentry@?$basic_ostream@DU?$char_traits@D@std@@@std@@QEAA@XZ DD 019930522H
	DD	01H
	DD	imagerel $stateUnwindMap$??1sentry@?$basic_ostream@DU?$char_traits@D@std@@@std@@QEAA@XZ
	DD	00H
	DD	00H
	DD	03H
	DD	imagerel $ip2state$??1sentry@?$basic_ostream@DU?$char_traits@D@std@@@std@@QEAA@XZ
	DD	020H
	DD	00H
	DD	05H
CONST	ENDS
;	COMDAT xdata
xdata	SEGMENT
$unwind$??1sentry@?$basic_ostream@DU?$char_traits@D@std@@@std@@QEAA@XZ DD 020f19H
	DD	030025206H
	DD	imagerel __CxxFrameHandler3
	DD	imagerel $cppxdata$??1sentry@?$basic_ostream@DU?$char_traits@D@std@@@std@@QEAA@XZ
xdata	ENDS
;	COMDAT xdata
xdata	SEGMENT
$ip2state$??0sentry@?$basic_ostream@DU?$char_traits@D@std@@@std@@QEAA@AEAV12@@Z DD imagerel ??0sentry@?$basic_ostream@DU?$char_traits@D@std@@@std@@QEAA@AEAV12@@Z
	DD	0ffffffffH
	DD	imagerel ??0sentry@?$basic_ostream@DU?$char_traits@D@std@@@std@@QEAA@AEAV12@@Z+57
	DD	00H
	DD	imagerel ??0sentry@?$basic_ostream@DU?$char_traits@D@std@@@std@@QEAA@AEAV12@@Z+109
	DD	0ffffffffH
xdata	ENDS
;	COMDAT xdata
xdata	SEGMENT
$stateUnwindMap$??0sentry@?$basic_ostream@DU?$char_traits@D@std@@@std@@QEAA@AEAV12@@Z DD 0ffffffffH
	DD	imagerel ?dtor$0@?0???0sentry@?$basic_ostream@DU?$char_traits@D@std@@@std@@QEAA@AEAV12@@Z@4HA
xdata	ENDS
;	COMDAT CONST
CONST	SEGMENT
$cppxdata$??0sentry@?$basic_ostream@DU?$char_traits@D@std@@@std@@QEAA@AEAV12@@Z DD 019930522H
	DD	01H
	DD	imagerel $stateUnwindMap$??0sentry@?$basic_ostream@DU?$char_traits@D@std@@@std@@QEAA@AEAV12@@Z
	DD	00H
	DD	00H
	DD	03H
	DD	imagerel $ip2state$??0sentry@?$basic_ostream@DU?$char_traits@D@std@@@std@@QEAA@AEAV12@@Z
	DD	020H
	DD	00H
	DD	01H
CONST	ENDS
;	COMDAT xdata
xdata	SEGMENT
$unwind$??0sentry@?$basic_ostream@DU?$char_traits@D@std@@@std@@QEAA@AEAV12@@Z DD 041811H
	DD	093418H
	DD	07006520aH
	DD	imagerel __CxxFrameHandler3
	DD	imagerel $cppxdata$??0sentry@?$basic_ostream@DU?$char_traits@D@std@@@std@@QEAA@AEAV12@@Z
xdata	ENDS
;	COMDAT xdata
xdata	SEGMENT
$unwind$?_Xlength@?$vector@DV?$allocator@D@std@@@std@@CAXXZ DD 010401H
	DD	04204H
xdata	ENDS
;	COMDAT xdata
xdata	SEGMENT
$unwind$?_Change_array@?$vector@DV?$allocator@D@std@@@std@@AEAAXQEAD_K1@Z DD 060f01H
	DD	07640fH
	DD	06340fH
	DD	0700b320fH
xdata	ENDS
;	COMDAT xdata
xdata	SEGMENT
$ip2state$?flush@?$basic_ostream@DU?$char_traits@D@std@@@std@@QEAAAEAV12@XZ DD imagerel ?flush@?$basic_ostream@DU?$char_traits@D@std@@@std@@QEAAAEAV12@XZ
	DD	0ffffffffH
	DD	imagerel ?flush@?$basic_ostream@DU?$char_traits@D@std@@@std@@QEAAAEAV12@XZ+51
	DD	00H
	DD	imagerel ?flush@?$basic_ostream@DU?$char_traits@D@std@@@std@@QEAAAEAV12@XZ+281
	DD	01H
	DD	imagerel ?flush@?$basic_ostream@DU?$char_traits@D@std@@@std@@QEAAAEAV12@XZ+301
	DD	02H
	DD	imagerel ?flush@?$basic_ostream@DU?$char_traits@D@std@@@std@@QEAAAEAV12@XZ+330
	DD	0ffffffffH
xdata	ENDS
;	COMDAT xdata
xdata	SEGMENT
$stateUnwindMap$?flush@?$basic_ostream@DU?$char_traits@D@std@@@std@@QEAAAEAV12@XZ DD 0ffffffffH
	DD	imagerel ?dtor$0@?0??flush@?$basic_ostream@DU?$char_traits@D@std@@@std@@QEAAAEAV12@XZ@4HA
	DD	0ffffffffH
	DD	imagerel __std_terminate
	DD	01H
	DD	imagerel __std_terminate
xdata	ENDS
;	COMDAT CONST
CONST	SEGMENT
$cppxdata$?flush@?$basic_ostream@DU?$char_traits@D@std@@@std@@QEAAAEAV12@XZ DD 019930522H
	DD	03H
	DD	imagerel $stateUnwindMap$?flush@?$basic_ostream@DU?$char_traits@D@std@@@std@@QEAAAEAV12@XZ
	DD	00H
	DD	00H
	DD	05H
	DD	imagerel $ip2state$?flush@?$basic_ostream@DU?$char_traits@D@std@@@std@@QEAAAEAV12@XZ
	DD	020H
	DD	00H
	DD	01H
CONST	ENDS
;	COMDAT xdata
xdata	SEGMENT
$unwind$?flush@?$basic_ostream@DU?$char_traits@D@std@@@std@@QEAAAEAV12@XZ DD 020f11H
	DD	03002d206H
	DD	imagerel __CxxFrameHandler3
	DD	imagerel $cppxdata$?flush@?$basic_ostream@DU?$char_traits@D@std@@@std@@QEAAAEAV12@XZ
xdata	ENDS
;	COMDAT xdata
xdata	SEGMENT
$unwind$?catch$8@?0??put@?$basic_ostream@DU?$char_traits@D@std@@@std@@QEAAAEAV12@D@Z@4HA DD 020a19H
	DD	05006320aH
	DD	imagerel __CxxFrameHandler3
	DD	imagerel $cppxdata$?put@?$basic_ostream@DU?$char_traits@D@std@@@std@@QEAAAEAV12@D@Z
xdata	ENDS
;	COMDAT xdata
xdata	SEGMENT
$ip2state$?put@?$basic_ostream@DU?$char_traits@D@std@@@std@@QEAAAEAV12@D@Z DD imagerel ?put@?$basic_ostream@DU?$char_traits@D@std@@@std@@QEAAAEAV12@D@Z
	DD	0ffffffffH
	DD	imagerel ?put@?$basic_ostream@DU?$char_traits@D@std@@@std@@QEAAAEAV12@D@Z+76
	DD	00H
	DD	imagerel ?put@?$basic_ostream@DU?$char_traits@D@std@@@std@@QEAAAEAV12@D@Z+129
	DD	01H
	DD	imagerel ?put@?$basic_ostream@DU?$char_traits@D@std@@@std@@QEAAAEAV12@D@Z+140
	DD	02H
	DD	imagerel ?put@?$basic_ostream@DU?$char_traits@D@std@@@std@@QEAAAEAV12@D@Z+222
	DD	01H
	DD	imagerel ?put@?$basic_ostream@DU?$char_traits@D@std@@@std@@QEAAAEAV12@D@Z+445
	DD	04H
	DD	imagerel ?put@?$basic_ostream@DU?$char_traits@D@std@@@std@@QEAAAEAV12@D@Z+463
	DD	05H
	DD	imagerel ?put@?$basic_ostream@DU?$char_traits@D@std@@@std@@QEAAAEAV12@D@Z+487
	DD	0ffffffffH
	DD	imagerel ?catch$8@?0??put@?$basic_ostream@DU?$char_traits@D@std@@@std@@QEAAAEAV12@D@Z@4HA
	DD	00H
	DD	imagerel ?catch$8@?0??put@?$basic_ostream@DU?$char_traits@D@std@@@std@@QEAAAEAV12@D@Z@4HA+13
	DD	03H
	DD	imagerel ?catch$8@?0??put@?$basic_ostream@DU?$char_traits@D@std@@@std@@QEAAAEAV12@D@Z@4HA+57
	DD	00H
	DD	imagerel ?catch$8@?0??put@?$basic_ostream@DU?$char_traits@D@std@@@std@@QEAAAEAV12@D@Z@4HA+66
	DD	03H
	DD	imagerel ?catch$8@?0??put@?$basic_ostream@DU?$char_traits@D@std@@@std@@QEAAAEAV12@D@Z@4HA+76
	DD	00H
xdata	ENDS
;	COMDAT xdata
xdata	SEGMENT
$handlerMap$0$?put@?$basic_ostream@DU?$char_traits@D@std@@@std@@QEAAAEAV12@D@Z DD 040H
	DD	00H
	DD	00H
	DD	imagerel ?catch$8@?0??put@?$basic_ostream@DU?$char_traits@D@std@@@std@@QEAAAEAV12@D@Z@4HA
	DD	038H
xdata	ENDS
;	COMDAT xdata
xdata	SEGMENT
$tryMap$?put@?$basic_ostream@DU?$char_traits@D@std@@@std@@QEAAAEAV12@D@Z DD 02H
	DD	02H
	DD	03H
	DD	01H
	DD	imagerel $handlerMap$0$?put@?$basic_ostream@DU?$char_traits@D@std@@@std@@QEAAAEAV12@D@Z
xdata	ENDS
;	COMDAT xdata
xdata	SEGMENT
$stateUnwindMap$?put@?$basic_ostream@DU?$char_traits@D@std@@@std@@QEAAAEAV12@D@Z DD 0ffffffffH
	DD	imagerel ?dtor$1@?0??put@?$basic_ostream@DU?$char_traits@D@std@@@std@@QEAAAEAV12@D@Z@4HA
	DD	0ffffffffH
	DD	imagerel ?dtor$0@?0??put@?$basic_ostream@DU?$char_traits@D@std@@@std@@QEAAAEAV12@D@Z@4HA
	DD	01H
	DD	00H
	DD	01H
	DD	00H
	DD	0ffffffffH
	DD	imagerel __std_terminate
	DD	04H
	DD	imagerel __std_terminate
xdata	ENDS
;	COMDAT CONST
CONST	SEGMENT
$cppxdata$?put@?$basic_ostream@DU?$char_traits@D@std@@@std@@QEAAAEAV12@D@Z DD 019930522H
	DD	06H
	DD	imagerel $stateUnwindMap$?put@?$basic_ostream@DU?$char_traits@D@std@@@std@@QEAAAEAV12@D@Z
	DD	01H
	DD	imagerel $tryMap$?put@?$basic_ostream@DU?$char_traits@D@std@@@std@@QEAAAEAV12@D@Z
	DD	0dH
	DD	imagerel $ip2state$?put@?$basic_ostream@DU?$char_traits@D@std@@@std@@QEAAAEAV12@D@Z
	DD	030H
	DD	00H
	DD	01H
CONST	ENDS
;	COMDAT xdata
xdata	SEGMENT
$unwind$?put@?$basic_ostream@DU?$char_traits@D@std@@@std@@QEAAAEAV12@D@Z DD 072019H
	DD	01d6420H
	DD	01b341cH
	DD	018010fH
	DD	07008H
	DD	imagerel __CxxFrameHandler3
	DD	imagerel $cppxdata$?put@?$basic_ostream@DU?$char_traits@D@std@@@std@@QEAAAEAV12@D@Z
xdata	ENDS
;	COMDAT xdata
xdata	SEGMENT
$ip2state$?widen@?$basic_ios@DU?$char_traits@D@std@@@std@@QEBADD@Z DD imagerel ?widen@?$basic_ios@DU?$char_traits@D@std@@@std@@QEBADD@Z
	DD	0ffffffffH
	DD	imagerel ?widen@?$basic_ios@DU?$char_traits@D@std@@@std@@QEBADD@Z+34
	DD	00H
	DD	imagerel ?widen@?$basic_ios@DU?$char_traits@D@std@@@std@@QEBADD@Z+45
	DD	01H
	DD	imagerel ?widen@?$basic_ios@DU?$char_traits@D@std@@@std@@QEBADD@Z+81
	DD	0ffffffffH
xdata	ENDS
;	COMDAT xdata
xdata	SEGMENT
$stateUnwindMap$?widen@?$basic_ios@DU?$char_traits@D@std@@@std@@QEBADD@Z DD 0ffffffffH
	DD	imagerel ?dtor$0@?0??widen@?$basic_ios@DU?$char_traits@D@std@@@std@@QEBADD@Z@4HA
	DD	0ffffffffH
	DD	imagerel __std_terminate
xdata	ENDS
;	COMDAT CONST
CONST	SEGMENT
$cppxdata$?widen@?$basic_ios@DU?$char_traits@D@std@@@std@@QEBADD@Z DD 019930522H
	DD	02H
	DD	imagerel $stateUnwindMap$?widen@?$basic_ios@DU?$char_traits@D@std@@@std@@QEBADD@Z
	DD	00H
	DD	00H
	DD	04H
	DD	imagerel $ip2state$?widen@?$basic_ios@DU?$char_traits@D@std@@@std@@QEBADD@Z
	DD	020H
	DD	00H
	DD	01H
CONST	ENDS
;	COMDAT xdata
xdata	SEGMENT
$unwind$?widen@?$basic_ios@DU?$char_traits@D@std@@@std@@QEBADD@Z DD 041411H
	DD	0a3414H
	DD	070027206H
	DD	imagerel __CxxFrameHandler3
	DD	imagerel $cppxdata$?widen@?$basic_ios@DU?$char_traits@D@std@@@std@@QEBADD@Z
xdata	ENDS
;	COMDAT xdata
xdata	SEGMENT
$ip2state$??1_Sentry_base@?$basic_ostream@DU?$char_traits@D@std@@@std@@QEAA@XZ DD imagerel ??1_Sentry_base@?$basic_ostream@DU?$char_traits@D@std@@@std@@QEAA@XZ
	DD	0ffffffffH
xdata	ENDS
;	COMDAT CONST
CONST	SEGMENT
$cppxdata$??1_Sentry_base@?$basic_ostream@DU?$char_traits@D@std@@@std@@QEAA@XZ DD 019930522H
	DD	00H
	DD	00H
	DD	00H
	DD	00H
	DD	01H
	DD	imagerel $ip2state$??1_Sentry_base@?$basic_ostream@DU?$char_traits@D@std@@@std@@QEAA@XZ
	DD	020H
	DD	00H
	DD	05H
CONST	ENDS
;	COMDAT xdata
xdata	SEGMENT
$unwind$??1_Sentry_base@?$basic_ostream@DU?$char_traits@D@std@@@std@@QEAA@XZ DD 010d19H
	DD	06204H
	DD	imagerel __CxxFrameHandler3
	DD	imagerel $cppxdata$??1_Sentry_base@?$basic_ostream@DU?$char_traits@D@std@@@std@@QEAA@XZ
xdata	ENDS
;	COMDAT xdata
xdata	SEGMENT
$unwind$??0_Sentry_base@?$basic_ostream@DU?$char_traits@D@std@@@std@@QEAA@AEAV12@@Z DD 020601H
	DD	030023206H
xdata	ENDS
;	COMDAT xdata
xdata	SEGMENT
$unwind$?catch$0@?0??_Osfx@?$basic_ostream@DU?$char_traits@D@std@@@std@@QEAAXXZ@4HA DD 020a19H
	DD	05006320aH
	DD	imagerel __CxxFrameHandler3
	DD	imagerel $cppxdata$?_Osfx@?$basic_ostream@DU?$char_traits@D@std@@@std@@QEAAXXZ
xdata	ENDS
;	COMDAT xdata
xdata	SEGMENT
$ip2state$?_Osfx@?$basic_ostream@DU?$char_traits@D@std@@@std@@QEAAXXZ DD imagerel ?_Osfx@?$basic_ostream@DU?$char_traits@D@std@@@std@@QEAAXXZ
	DD	0ffffffffH
	DD	imagerel ?_Osfx@?$basic_ostream@DU?$char_traits@D@std@@@std@@QEAAXXZ+21
	DD	00H
	DD	imagerel ?_Osfx@?$basic_ostream@DU?$char_traits@D@std@@@std@@QEAAXXZ+266
	DD	0ffffffffH
	DD	imagerel ?catch$0@?0??_Osfx@?$basic_ostream@DU?$char_traits@D@std@@@std@@QEAAXXZ@4HA
	DD	00H
xdata	ENDS
;	COMDAT xdata
xdata	SEGMENT
$handlerMap$0$?_Osfx@?$basic_ostream@DU?$char_traits@D@std@@@std@@QEAAXXZ DD 040H
	DD	00H
	DD	00H
	DD	imagerel ?catch$0@?0??_Osfx@?$basic_ostream@DU?$char_traits@D@std@@@std@@QEAAXXZ@4HA
	DD	038H
xdata	ENDS
;	COMDAT xdata
xdata	SEGMENT
$tryMap$?_Osfx@?$basic_ostream@DU?$char_traits@D@std@@@std@@QEAAXXZ DD 00H
	DD	00H
	DD	01H
	DD	01H
	DD	imagerel $handlerMap$0$?_Osfx@?$basic_ostream@DU?$char_traits@D@std@@@std@@QEAAXXZ
xdata	ENDS
;	COMDAT xdata
xdata	SEGMENT
$stateUnwindMap$?_Osfx@?$basic_ostream@DU?$char_traits@D@std@@@std@@QEAAXXZ DD 0ffffffffH
	DD	00H
	DD	0ffffffffH
	DD	00H
xdata	ENDS
;	COMDAT CONST
CONST	SEGMENT
$cppxdata$?_Osfx@?$basic_ostream@DU?$char_traits@D@std@@@std@@QEAAXXZ DD 019930522H
	DD	02H
	DD	imagerel $stateUnwindMap$?_Osfx@?$basic_ostream@DU?$char_traits@D@std@@@std@@QEAAXXZ
	DD	01H
	DD	imagerel $tryMap$?_Osfx@?$basic_ostream@DU?$char_traits@D@std@@@std@@QEAAXXZ
	DD	04H
	DD	imagerel $ip2state$?_Osfx@?$basic_ostream@DU?$char_traits@D@std@@@std@@QEAAXXZ
	DD	030H
	DD	00H
	DD	01H
CONST	ENDS
;	COMDAT xdata
xdata	SEGMENT
$unwind$?_Osfx@?$basic_ostream@DU?$char_traits@D@std@@@std@@QEAAXXZ DD 031219H
	DD	0160109H
	DD	03002H
	DD	imagerel __CxxFrameHandler3
	DD	imagerel $cppxdata$?_Osfx@?$basic_ostream@DU?$char_traits@D@std@@@std@@QEAAXXZ
xdata	ENDS
;	COMDAT xdata
xdata	SEGMENT
$unwind$??$_Uninitialized_default_fill_n1@PEAD_KV?$allocator@D@std@@@std@@YAPEADPEAD_KAEAU?$_Wrap_alloc@V?$allocator@D@std@@@0@U?$integral_constant@_N$00@0@@Z DD 040a01H
	DD	06340aH
	DD	07006320aH
xdata	ENDS
;	COMDAT xdata
xdata	SEGMENT
$unwind$??$_Uninitialized_move@PEADPEADV?$allocator@D@std@@@std@@YAPEADPEAD00AEAU?$_Wrap_alloc@V?$allocator@D@std@@@0@@Z DD 040a01H
	DD	06340aH
	DD	07006320aH
xdata	ENDS
;	COMDAT xdata
xdata	SEGMENT
$unwind$??$_Uninitialized_move_al_unchecked@PEADPEADV?$allocator@D@std@@@std@@YAPEADPEAD00AEAU?$_Wrap_alloc@V?$allocator@D@std@@@0@@Z DD 040a01H
	DD	06340aH
	DD	07006320aH
xdata	ENDS
;	COMDAT xdata
xdata	SEGMENT
$unwind$??$_Uninitialized_move_al_unchecked1@DDV?$allocator@D@std@@@std@@YAPEADPEAD00AEAU?$_Wrap_alloc@V?$allocator@D@std@@@0@U_Really_trivial_ptr_iterator_tag@0@U?$integral_constant@_N$00@0@@Z DD 040a01H
	DD	06340aH
	DD	07006320aH
xdata	ENDS
;	COMDAT xdata
xdata	SEGMENT
$unwind$??$_Copy_memmove@PEADPEAD@std@@YAPEADPEAD00@Z DD 040a01H
	DD	06340aH
	DD	07006320aH
xdata	ENDS
; Function compile flags: /Ogtpy
; File c:\users\alist_000\cppmisc\packages\visualcpptools.14.0.24629\lib\native\include\vcruntime_exception.h
;	COMDAT ??0exception@std@@QEAA@QEBD@Z
_TEXT	SEGMENT
_InitData$ = 32
this$ = 64
_Message$ = 72
??0exception@std@@QEAA@QEBD@Z PROC			; std::exception::exception, COMDAT

; 53   :     {

$LN4:
  00000	40 53		 push	 rbx
  00002	48 83 ec 30	 sub	 rsp, 48			; 00000030H
  00006	48 8b d9	 mov	 rbx, rcx

; 54   :         __std_exception_data _InitData = { _Message, true };

  00009	c6 44 24 28 01	 mov	 BYTE PTR _InitData$[rsp+8], 1
  0000e	48 8b c2	 mov	 rax, rdx
  00011	48 8d 0d 00 00
	00 00		 lea	 rcx, OFFSET FLAT:??_7exception@std@@6B@
  00018	48 8d 53 08	 lea	 rdx, QWORD PTR [rbx+8]
  0001c	48 89 44 24 20	 mov	 QWORD PTR _InitData$[rsp], rax
  00021	48 89 0b	 mov	 QWORD PTR [rbx], rcx
  00024	33 c9		 xor	 ecx, ecx
  00026	48 89 0a	 mov	 QWORD PTR [rdx], rcx
  00029	48 89 4a 08	 mov	 QWORD PTR [rdx+8], rcx

; 55   :         __std_exception_copy(&_InitData, &_Data);

  0002d	48 8d 4c 24 20	 lea	 rcx, QWORD PTR _InitData$[rsp]
  00032	e8 00 00 00 00	 call	 __std_exception_copy

; 56   :     }

  00037	48 8b c3	 mov	 rax, rbx
  0003a	48 83 c4 30	 add	 rsp, 48			; 00000030H
  0003e	5b		 pop	 rbx
  0003f	c3		 ret	 0
??0exception@std@@QEAA@QEBD@Z ENDP			; std::exception::exception
_TEXT	ENDS
; Function compile flags: /Ogtpy
; File c:\users\alist_000\cppmisc\packages\visualcpptools.14.0.24629\lib\native\include\vcruntime_exception.h
;	COMDAT ??0exception@std@@QEAA@QEBDH@Z
_TEXT	SEGMENT
this$ = 8
_Message$ = 16
__formal$ = 24
??0exception@std@@QEAA@QEBDH@Z PROC			; std::exception::exception, COMDAT

; 60   :     {

  00000	48 8d 05 00 00
	00 00		 lea	 rax, OFFSET FLAT:??_7exception@std@@6B@
  00007	48 89 01	 mov	 QWORD PTR [rcx], rax
  0000a	33 c0		 xor	 eax, eax
  0000c	48 89 41 10	 mov	 QWORD PTR [rcx+16], rax

; 61   :         _Data._What = _Message;
; 62   :     }

  00010	48 8b c1	 mov	 rax, rcx
  00013	48 89 51 08	 mov	 QWORD PTR [rcx+8], rdx
  00017	c3		 ret	 0
??0exception@std@@QEAA@QEBDH@Z ENDP			; std::exception::exception
_TEXT	ENDS
; Function compile flags: /Ogtpy
; File c:\users\alist_000\cppmisc\packages\visualcpptools.14.0.24629\lib\native\include\vcruntime_exception.h
;	COMDAT ??0exception@std@@QEAA@AEBV01@@Z
_TEXT	SEGMENT
this$ = 48
_Other$ = 56
??0exception@std@@QEAA@AEBV01@@Z PROC			; std::exception::exception, COMDAT

; 66   :     {

$LN4:
  00000	40 53		 push	 rbx
  00002	48 83 ec 20	 sub	 rsp, 32			; 00000020H
  00006	48 8b d9	 mov	 rbx, rcx
  00009	48 8b c2	 mov	 rax, rdx
  0000c	48 8d 53 08	 lea	 rdx, QWORD PTR [rbx+8]
  00010	48 8d 0d 00 00
	00 00		 lea	 rcx, OFFSET FLAT:??_7exception@std@@6B@
  00017	48 89 0b	 mov	 QWORD PTR [rbx], rcx
  0001a	33 c9		 xor	 ecx, ecx
  0001c	48 89 0a	 mov	 QWORD PTR [rdx], rcx
  0001f	48 89 4a 08	 mov	 QWORD PTR [rdx+8], rcx

; 67   :         __std_exception_copy(&_Other._Data, &_Data);

  00023	48 8d 48 08	 lea	 rcx, QWORD PTR [rax+8]
  00027	e8 00 00 00 00	 call	 __std_exception_copy

; 68   :     }

  0002c	48 8b c3	 mov	 rax, rbx
  0002f	48 83 c4 20	 add	 rsp, 32			; 00000020H
  00033	5b		 pop	 rbx
  00034	c3		 ret	 0
??0exception@std@@QEAA@AEBV01@@Z ENDP			; std::exception::exception
_TEXT	ENDS
; Function compile flags: /Ogtpy
; File c:\users\alist_000\cppmisc\packages\visualcpptools.14.0.24629\lib\native\include\vcruntime_exception.h
;	COMDAT ??1exception@std@@UEAA@XZ
_TEXT	SEGMENT
this$ = 8
??1exception@std@@UEAA@XZ PROC				; std::exception::~exception, COMDAT

; 83   :     {

  00000	48 8d 05 00 00
	00 00		 lea	 rax, OFFSET FLAT:??_7exception@std@@6B@
  00007	48 89 01	 mov	 QWORD PTR [rcx], rax

; 84   :         __std_exception_destroy(&_Data);

  0000a	48 83 c1 08	 add	 rcx, 8
  0000e	e9 00 00 00 00	 jmp	 __std_exception_destroy
??1exception@std@@UEAA@XZ ENDP				; std::exception::~exception
_TEXT	ENDS
; Function compile flags: /Ogtpy
; File c:\users\alist_000\cppmisc\packages\visualcpptools.14.0.24629\lib\native\include\vcruntime_exception.h
;	COMDAT ?what@exception@std@@UEBAPEBDXZ
_TEXT	SEGMENT
this$ = 8
?what@exception@std@@UEBAPEBDXZ PROC			; std::exception::what, COMDAT

; 89   :         return _Data._What ? _Data._What : "Unknown exception";

  00000	48 8b 51 08	 mov	 rdx, QWORD PTR [rcx+8]
  00004	48 8d 05 00 00
	00 00		 lea	 rax, OFFSET FLAT:??_C@_0BC@EOODALEL@Unknown?5exception?$AA@
  0000b	48 85 d2	 test	 rdx, rdx
  0000e	48 0f 45 c2	 cmovne	 rax, rdx

; 90   :     }

  00012	c3		 ret	 0
?what@exception@std@@UEBAPEBDXZ ENDP			; std::exception::what
_TEXT	ENDS
; Function compile flags: /Ogtpy
; File c:\users\alist_000\cppmisc\packages\visualcpptools.14.0.24629\lib\native\include\vcruntime_exception.h
;	COMDAT ??_Gexception@std@@UEAAPEAXI@Z
_TEXT	SEGMENT
this$ = 48
__flags$ = 56
??_Gexception@std@@UEAAPEAXI@Z PROC			; std::exception::`scalar deleting destructor', COMDAT
$LN8:
  00000	48 89 5c 24 08	 mov	 QWORD PTR [rsp+8], rbx
  00005	57		 push	 rdi
  00006	48 83 ec 20	 sub	 rsp, 32			; 00000020H

; 83   :     {

  0000a	48 8d 05 00 00
	00 00		 lea	 rax, OFFSET FLAT:??_7exception@std@@6B@
  00011	48 8b f9	 mov	 rdi, rcx
  00014	48 89 01	 mov	 QWORD PTR [rcx], rax
  00017	8b da		 mov	 ebx, edx

; 84   :         __std_exception_destroy(&_Data);

  00019	48 83 c1 08	 add	 rcx, 8
  0001d	e8 00 00 00 00	 call	 __std_exception_destroy
  00022	f6 c3 01	 test	 bl, 1
  00025	74 0d		 je	 SHORT $LN6@scalar
  00027	ba 18 00 00 00	 mov	 edx, 24
  0002c	48 8b cf	 mov	 rcx, rdi
  0002f	e8 00 00 00 00	 call	 ??3@YAXPEAX_K@Z		; operator delete
$LN6@scalar:
  00034	48 8b c7	 mov	 rax, rdi
  00037	48 8b 5c 24 30	 mov	 rbx, QWORD PTR [rsp+48]
  0003c	48 83 c4 20	 add	 rsp, 32			; 00000020H
  00040	5f		 pop	 rdi
  00041	c3		 ret	 0
??_Gexception@std@@UEAAPEAXI@Z ENDP			; std::exception::`scalar deleting destructor'
_TEXT	ENDS
; Function compile flags: /Ogtpy
; File c:\users\alist_000\cppmisc\packages\visualcpptools.14.0.24629\lib\native\include\vcruntime_new.h
;	COMDAT ??2@YAPEAX_KPEAX@Z
_TEXT	SEGMENT
_Size$ = 8
_Where$ = 16
??2@YAPEAX_KPEAX@Z PROC					; operator new, COMDAT

; 92   :         (void)_Size;
; 93   :         return _Where;

  00000	48 8b c2	 mov	 rax, rdx

; 94   :     }

  00003	c3		 ret	 0
??2@YAPEAX_KPEAX@Z ENDP					; operator new
_TEXT	ENDS
; Function compile flags: /Ogtpy
; File c:\users\alist_000\cppmisc\packages\visualcpptools.14.0.24629\lib\native\include\iosfwd
;	COMDAT ?length@?$char_traits@D@std@@SA_KQEBD@Z
_TEXT	SEGMENT
_First$ = 8
?length@?$char_traits@D@std@@SA_KQEBD@Z PROC		; std::char_traits<char>::length, COMDAT

; 479  : 		return (_CSTD strlen(_First));

  00000	48 83 c8 ff	 or	 rax, -1
$LL3@length:
  00004	48 ff c0	 inc	 rax
  00007	80 3c 01 00	 cmp	 BYTE PTR [rcx+rax], 0
  0000b	75 f7		 jne	 SHORT $LL3@length

; 480  : 		}

  0000d	c3		 ret	 0
?length@?$char_traits@D@std@@SA_KQEBD@Z ENDP		; std::char_traits<char>::length
_TEXT	ENDS
; Function compile flags: /Ogtpy
; File c:\users\alist_000\cppmisc\packages\visualcpptools.14.0.24629\lib\native\include\iosfwd
;	COMDAT ?copy@?$char_traits@D@std@@SAPEADQEADQEBD_K@Z
_TEXT	SEGMENT
_First1$ = 48
_First2$ = 56
_Count$ = 64
?copy@?$char_traits@D@std@@SAPEADQEADQEBD_K@Z PROC	; std::char_traits<char>::copy, COMDAT

; 484  : 		{	// copy [_First2, _First2 + _Count) to [_First1, ...)

$LN4:
  00000	40 53		 push	 rbx
  00002	48 83 ec 20	 sub	 rsp, 32			; 00000020H
  00006	48 8b d9	 mov	 rbx, rcx

; 485  : 		return ((_Elem *)_CSTD memcpy(_First1, _First2, _Count));

  00009	e8 00 00 00 00	 call	 memcpy
  0000e	48 8b c3	 mov	 rax, rbx

; 486  : 		}

  00011	48 83 c4 20	 add	 rsp, 32			; 00000020H
  00015	5b		 pop	 rbx
  00016	c3		 ret	 0
?copy@?$char_traits@D@std@@SAPEADQEADQEBD_K@Z ENDP	; std::char_traits<char>::copy
_TEXT	ENDS
; Function compile flags: /Ogtpy
; File c:\users\alist_000\cppmisc\packages\visualcpptools.14.0.24629\lib\native\include\iosfwd
;	COMDAT ?move@?$char_traits@D@std@@SAPEADQEADQEBD_K@Z
_TEXT	SEGMENT
_First1$ = 8
_First2$ = 16
_Count$ = 24
?move@?$char_traits@D@std@@SAPEADQEADQEBD_K@Z PROC	; std::char_traits<char>::move, COMDAT

; 505  : 		return ((_Elem *)_CSTD memmove(_First1, _First2, _Count));

  00000	e9 00 00 00 00	 jmp	 memmove
?move@?$char_traits@D@std@@SAPEADQEADQEBD_K@Z ENDP	; std::char_traits<char>::move
_TEXT	ENDS
; Function compile flags: /Ogtpy
; File c:\users\alist_000\cppmisc\packages\visualcpptools.14.0.24629\lib\native\include\iosfwd
;	COMDAT ?assign@?$char_traits@D@std@@SAXAEADAEBD@Z
_TEXT	SEGMENT
_Left$ = 8
_Right$ = 16
?assign@?$char_traits@D@std@@SAXAEADAEBD@Z PROC		; std::char_traits<char>::assign, COMDAT

; 516  : 		_Left = _Right;

  00000	0f b6 02	 movzx	 eax, BYTE PTR [rdx]
  00003	88 01		 mov	 BYTE PTR [rcx], al

; 517  : 		}

  00005	c3		 ret	 0
?assign@?$char_traits@D@std@@SAXAEADAEBD@Z ENDP		; std::char_traits<char>::assign
_TEXT	ENDS
; Function compile flags: /Ogtpy
; File c:\users\alist_000\cppmisc\packages\visualcpptools.14.0.24629\lib\native\include\iosfwd
;	COMDAT ?to_int_type@?$char_traits@D@std@@SAHAEBD@Z
_TEXT	SEGMENT
_Ch$ = 8
?to_int_type@?$char_traits@D@std@@SAHAEBD@Z PROC	; std::char_traits<char>::to_int_type, COMDAT

; 536  : 		return ((unsigned char)_Ch);

  00000	0f b6 01	 movzx	 eax, BYTE PTR [rcx]

; 537  : 		}

  00003	c3		 ret	 0
?to_int_type@?$char_traits@D@std@@SAHAEBD@Z ENDP	; std::char_traits<char>::to_int_type
_TEXT	ENDS
; Function compile flags: /Ogtpy
; File c:\users\alist_000\cppmisc\packages\visualcpptools.14.0.24629\lib\native\include\iosfwd
;	COMDAT ?eq_int_type@?$char_traits@D@std@@SA_NAEBH0@Z
_TEXT	SEGMENT
_Left$ = 8
_Right$ = 16
?eq_int_type@?$char_traits@D@std@@SA_NAEBH0@Z PROC	; std::char_traits<char>::eq_int_type, COMDAT

; 540  : 		{	// test for metacharacter equality

  00000	8b 02		 mov	 eax, DWORD PTR [rdx]
  00002	39 01		 cmp	 DWORD PTR [rcx], eax
  00004	0f 94 c0	 sete	 al

; 541  : 		return (_Left == _Right);
; 542  : 		}

  00007	c3		 ret	 0
?eq_int_type@?$char_traits@D@std@@SA_NAEBH0@Z ENDP	; std::char_traits<char>::eq_int_type
_TEXT	ENDS
; Function compile flags: /Ogtpy
; File c:\users\alist_000\cppmisc\packages\visualcpptools.14.0.24629\lib\native\include\iosfwd
;	COMDAT ?eof@?$char_traits@D@std@@SAHXZ
_TEXT	SEGMENT
?eof@?$char_traits@D@std@@SAHXZ PROC			; std::char_traits<char>::eof, COMDAT

; 551  : 		return (EOF);

  00000	83 c8 ff	 or	 eax, -1

; 552  : 		}

  00003	c3		 ret	 0
?eof@?$char_traits@D@std@@SAHXZ ENDP			; std::char_traits<char>::eof
_TEXT	ENDS
; Function compile flags: /Ogtpy
; File c:\users\alist_000\cppmisc\packages\visualcpptools.14.0.24629\lib\native\include\xutility
;	COMDAT ?_Orphan_all@_Container_base0@std@@QEAAXXZ
_TEXT	SEGMENT
this$ = 8
?_Orphan_all@_Container_base0@std@@QEAAXXZ PROC		; std::_Container_base0::_Orphan_all, COMDAT

; 55   : 		}

  00000	c2 00 00	 ret	 0
?_Orphan_all@_Container_base0@std@@QEAAXXZ ENDP		; std::_Container_base0::_Orphan_all
_TEXT	ENDS
; Function compile flags: /Ogtpy
; File c:\users\alist_000\cppmisc\packages\visualcpptools.14.0.24629\lib\native\include\xutility
;	COMDAT ?_Swap_all@_Container_base0@std@@QEAAXAEAU12@@Z
_TEXT	SEGMENT
this$dead$ = 8
__formal$dead$ = 16
?_Swap_all@_Container_base0@std@@QEAAXAEAU12@@Z PROC	; std::_Container_base0::_Swap_all, COMDAT

; 59   : 		}

  00000	c2 00 00	 ret	 0
?_Swap_all@_Container_base0@std@@QEAAXAEAU12@@Z ENDP	; std::_Container_base0::_Swap_all
_TEXT	ENDS
; Function compile flags: /Ogtpy
; File c:\users\alist_000\cppmisc\packages\visualcpptools.14.0.24629\lib\native\include\xutility
;	COMDAT ?_Adopt@_Iterator_base0@std@@QEAAXPEBX@Z
_TEXT	SEGMENT
this$ = 8
__formal$ = 16
?_Adopt@_Iterator_base0@std@@QEAAXPEBX@Z PROC		; std::_Iterator_base0::_Adopt, COMDAT

; 66   : 		}

  00000	c2 00 00	 ret	 0
?_Adopt@_Iterator_base0@std@@QEAAXPEBX@Z ENDP		; std::_Iterator_base0::_Adopt
_TEXT	ENDS
; Function compile flags: /Ogtpy
; File c:\users\alist_000\cppmisc\packages\visualcpptools.14.0.24629\lib\native\include\xmemory0
;	COMDAT ?_Allocate@std@@YAPEAX_K0_N@Z
_TEXT	SEGMENT
_Count$ = 48
_Sz$ = 56
_Try_aligned_allocation$ = 64
?_Allocate@std@@YAPEAX_K0_N@Z PROC			; std::_Allocate, COMDAT

; 50   : 	{	// allocate storage for _Count elements of size _Sz

$LN14:
  00000	48 83 ec 28	 sub	 rsp, 40			; 00000028H
  00004	4c 8b ca	 mov	 r9, rdx

; 51   : 	void *_Ptr = 0;
; 52   : 
; 53   : 	if (_Count == 0)

  00007	48 85 c9	 test	 rcx, rcx
  0000a	75 07		 jne	 SHORT $LN2@Allocate

; 54   : 		return (_Ptr);

  0000c	33 c0		 xor	 eax, eax

; 89   : 	}

  0000e	48 83 c4 28	 add	 rsp, 40			; 00000028H
  00012	c3		 ret	 0
$LN2@Allocate:

; 55   : 
; 56   : 	// check overflow of multiply
; 57   : 	if ((size_t)(-1) / _Sz < _Count)

  00013	33 d2		 xor	 edx, edx
  00015	48 83 c8 ff	 or	 rax, -1
  00019	49 f7 f1	 div	 r9
  0001c	48 3b c1	 cmp	 rax, rcx
  0001f	72 44		 jb	 SHORT $LN11@Allocate

; 59   : 	const size_t _User_size = _Count * _Sz;

  00021	49 0f af c9	 imul	 rcx, r9

; 60   : 
; 61   :  #if defined(_M_IX86) || defined(_M_X64)
; 62   : 	if (_Try_aligned_allocation
; 63   : 		&& _BIG_ALLOCATION_THRESHOLD <= _User_size)

  00025	45 84 c0	 test	 r8b, r8b
  00028	74 2e		 je	 SHORT $LN4@Allocate
  0002a	48 81 f9 00 10
	00 00		 cmp	 rcx, 4096		; 00001000H
  00031	72 25		 jb	 SHORT $LN4@Allocate

; 64   : 		{	// allocate large block
; 65   : 		static_assert(sizeof (void *) < _BIG_ALLOCATION_ALIGNMENT,
; 66   : 			"Big allocations should at least match vector register size");
; 67   : 		const size_t _Block_size = _NON_USER_SIZE + _User_size;

  00033	48 8d 41 27	 lea	 rax, QWORD PTR [rcx+39]

; 68   : 		if (_Block_size <= _User_size)

  00037	48 3b c1	 cmp	 rax, rcx
  0003a	76 2f		 jbe	 SHORT $LN13@Allocate

; 70   : 		const uintptr_t _Ptr_container =
; 71   : 			reinterpret_cast<uintptr_t>(::operator new(_Block_size));

  0003c	48 8b c8	 mov	 rcx, rax
  0003f	e8 00 00 00 00	 call	 ??2@YAPEAX_K@Z		; operator new

; 72   : 		_SCL_SECURE_ALWAYS_VALIDATE(_Ptr_container != 0);
; 73   : 		_Ptr = reinterpret_cast<void *>((_Ptr_container + _NON_USER_SIZE)

  00044	48 8d 48 27	 lea	 rcx, QWORD PTR [rax+39]
  00048	48 83 e1 e0	 and	 rcx, -32		; ffffffffffffffe0H

; 74   : 			& ~(_BIG_ALLOCATION_ALIGNMENT - 1));
; 75   : 		static_cast<uintptr_t *>(_Ptr)[-1] = _Ptr_container;

  0004c	48 89 41 f8	 mov	 QWORD PTR [rcx-8], rax

; 86   : 		_SCL_SECURE_ALWAYS_VALIDATE(_Ptr != 0);
; 87   : 		}
; 88   : 	return (_Ptr);

  00050	48 8b c1	 mov	 rax, rcx

; 89   : 	}

  00053	48 83 c4 28	 add	 rsp, 40			; 00000028H
  00057	c3		 ret	 0
$LN4@Allocate:

; 76   : 
; 77   :  #ifdef _DEBUG
; 78   : 		static_cast<uintptr_t *>(_Ptr)[-2] = _BIG_ALLOCATION_SENTINEL;
; 79   :  #endif /* _DEBUG */
; 80   : 		}
; 81   : 	else
; 82   :  #endif /* defined(_M_IX86) || defined(_M_X64) */
; 83   : 
; 84   : 		{	// allocate normal block
; 85   : 		_Ptr = ::operator new(_User_size);

  00058	e8 00 00 00 00	 call	 ??2@YAPEAX_K@Z		; operator new
  0005d	48 8b c8	 mov	 rcx, rax

; 89   : 	}

  00060	48 83 c4 28	 add	 rsp, 40			; 00000028H
  00064	c3		 ret	 0
$LN11@Allocate:

; 58   : 		_Xbad_alloc();	// report no memory

  00065	e8 00 00 00 00	 call	 ?_Xbad_alloc@std@@YAXXZ	; std::_Xbad_alloc
  0006a	cc		 int	 3
$LN13@Allocate:

; 69   : 			_Xbad_alloc();	// report no memory

  0006b	e8 00 00 00 00	 call	 ?_Xbad_alloc@std@@YAXXZ	; std::_Xbad_alloc
  00070	cc		 int	 3
$LN10@Allocate:
?_Allocate@std@@YAPEAX_K0_N@Z ENDP			; std::_Allocate
_TEXT	ENDS
; Function compile flags: /Ogtpy
; File c:\users\alist_000\cppmisc\packages\visualcpptools.14.0.24629\lib\native\include\xmemory0
;	COMDAT ?_Deallocate@std@@YAXPEAX_K1@Z
_TEXT	SEGMENT
_Ptr$ = 48
_Count$ = 56
_Sz$ = 64
?_Deallocate@std@@YAXPEAX_K1@Z PROC			; std::_Deallocate, COMDAT

; 94   : 	{	// deallocate storage for _Count elements of size _Sz

$LN16:
  00000	48 83 ec 28	 sub	 rsp, 40			; 00000028H
  00004	4c 8b ca	 mov	 r9, rdx

; 95   :  #if defined(_M_IX86) || defined(_M_X64)
; 96   : 	_SCL_SECURE_ALWAYS_VALIDATE(_Count <= (size_t)(-1) / _Sz);

  00007	48 83 c8 ff	 or	 rax, -1
  0000b	33 d2		 xor	 edx, edx
  0000d	49 f7 f0	 div	 r8
  00010	4c 3b c8	 cmp	 r9, rax
  00013	77 36		 ja	 SHORT $LN10@Deallocate

; 97   : 	const size_t _User_size = _Count * _Sz;

  00015	4d 0f af c8	 imul	 r9, r8

; 98   : 	if (_BIG_ALLOCATION_THRESHOLD <= _User_size)

  00019	49 81 f9 00 10
	00 00		 cmp	 r9, 4096		; 00001000H
  00020	72 20		 jb	 SHORT $LN3@Deallocate

; 99   : 		{	// deallocate large block
; 100  : 		const uintptr_t _Ptr_user = reinterpret_cast<uintptr_t>(_Ptr);
; 101  : 		_SCL_SECURE_ALWAYS_VALIDATE(

  00022	f6 c1 1f	 test	 cl, 31
  00025	75 2a		 jne	 SHORT $LN12@Deallocate

; 102  : 			(_Ptr_user & (_BIG_ALLOCATION_ALIGNMENT - 1)) == 0);
; 103  : 		const uintptr_t _Ptr_ptr = _Ptr_user - sizeof(void *);
; 104  : 		const uintptr_t _Ptr_container =
; 105  : 			*reinterpret_cast<uintptr_t *>(_Ptr_ptr);

  00027	48 8b 41 f8	 mov	 rax, QWORD PTR [rcx-8]

; 106  : 
; 107  :  #ifdef _DEBUG
; 108  : 		// If the following asserts, it likely means that we are performing
; 109  : 		// an aligned delete on memory coming from an unaligned allocation.
; 110  : 		_SCL_SECURE_ALWAYS_VALIDATE(
; 111  : 			reinterpret_cast<uintptr_t *>(_Ptr_ptr)[-1] ==
; 112  : 				_BIG_ALLOCATION_SENTINEL);
; 113  :  #endif /* _DEBUG */
; 114  : 
; 115  : 		// Extra paranoia on aligned allocation/deallocation
; 116  : 		_SCL_SECURE_ALWAYS_VALIDATE(_Ptr_container < _Ptr_user);

  0002b	48 3b c1	 cmp	 rax, rcx
  0002e	73 27		 jae	 SHORT $LN13@Deallocate

; 117  : 
; 118  :  #ifdef _DEBUG
; 119  : 		_SCL_SECURE_ALWAYS_VALIDATE(2 * sizeof(void *)
; 120  : 			<= _Ptr_user - _Ptr_container);
; 121  : 
; 122  :  #else /* _DEBUG */
; 123  : 		_SCL_SECURE_ALWAYS_VALIDATE(sizeof(void *)

  00030	48 2b c8	 sub	 rcx, rax
  00033	48 83 f9 08	 cmp	 rcx, 8
  00037	72 24		 jb	 SHORT $LN14@Deallocate

; 124  : 			<= _Ptr_user - _Ptr_container);
; 125  :  #endif /* _DEBUG */
; 126  : 
; 127  : 		_SCL_SECURE_ALWAYS_VALIDATE(_Ptr_user - _Ptr_container

  00039	48 83 f9 27	 cmp	 rcx, 39			; 00000027H
  0003d	77 24		 ja	 SHORT $LN15@Deallocate

; 128  : 			<= _NON_USER_SIZE);
; 129  : 
; 130  : 		_Ptr = reinterpret_cast<void *>(_Ptr_container);

  0003f	48 8b c8	 mov	 rcx, rax
$LN3@Deallocate:

; 135  : 	}

  00042	48 83 c4 28	 add	 rsp, 40			; 00000028H

; 131  : 		}
; 132  :  #endif /* defined(_M_IX86) || defined(_M_X64) */
; 133  : 
; 134  : 	::operator delete(_Ptr);

  00046	e9 00 00 00 00	 jmp	 ??3@YAXPEAX@Z		; operator delete
$LN10@Deallocate:

; 95   :  #if defined(_M_IX86) || defined(_M_X64)
; 96   : 	_SCL_SECURE_ALWAYS_VALIDATE(_Count <= (size_t)(-1) / _Sz);

  0004b	e8 00 00 00 00	 call	 _invalid_parameter_noinfo_noreturn
  00050	cc		 int	 3
$LN12@Deallocate:

; 99   : 		{	// deallocate large block
; 100  : 		const uintptr_t _Ptr_user = reinterpret_cast<uintptr_t>(_Ptr);
; 101  : 		_SCL_SECURE_ALWAYS_VALIDATE(

  00051	e8 00 00 00 00	 call	 _invalid_parameter_noinfo_noreturn
  00056	cc		 int	 3
$LN13@Deallocate:

; 106  : 
; 107  :  #ifdef _DEBUG
; 108  : 		// If the following asserts, it likely means that we are performing
; 109  : 		// an aligned delete on memory coming from an unaligned allocation.
; 110  : 		_SCL_SECURE_ALWAYS_VALIDATE(
; 111  : 			reinterpret_cast<uintptr_t *>(_Ptr_ptr)[-1] ==
; 112  : 				_BIG_ALLOCATION_SENTINEL);
; 113  :  #endif /* _DEBUG */
; 114  : 
; 115  : 		// Extra paranoia on aligned allocation/deallocation
; 116  : 		_SCL_SECURE_ALWAYS_VALIDATE(_Ptr_container < _Ptr_user);

  00057	e8 00 00 00 00	 call	 _invalid_parameter_noinfo_noreturn
  0005c	cc		 int	 3
$LN14@Deallocate:

; 117  : 
; 118  :  #ifdef _DEBUG
; 119  : 		_SCL_SECURE_ALWAYS_VALIDATE(2 * sizeof(void *)
; 120  : 			<= _Ptr_user - _Ptr_container);
; 121  : 
; 122  :  #else /* _DEBUG */
; 123  : 		_SCL_SECURE_ALWAYS_VALIDATE(sizeof(void *)

  0005d	e8 00 00 00 00	 call	 _invalid_parameter_noinfo_noreturn
  00062	cc		 int	 3
$LN15@Deallocate:

; 124  : 			<= _Ptr_user - _Ptr_container);
; 125  :  #endif /* _DEBUG */
; 126  : 
; 127  : 		_SCL_SECURE_ALWAYS_VALIDATE(_Ptr_user - _Ptr_container

  00063	e8 00 00 00 00	 call	 _invalid_parameter_noinfo_noreturn
  00068	cc		 int	 3
$LN9@Deallocate:
?_Deallocate@std@@YAXPEAX_K1@Z ENDP			; std::_Deallocate
_TEXT	ENDS
; Function compile flags: /Ogtpy
; File c:\users\alist_000\cppmisc\packages\visualcpptools.14.0.24629\lib\native\include\stdexcept
; File c:\users\alist_000\cppmisc\packages\visualcpptools.14.0.24629\lib\native\include\xstring
; File c:\users\alist_000\cppmisc\packages\visualcpptools.14.0.24629\lib\native\include\stdexcept
; File c:\users\alist_000\cppmisc\packages\visualcpptools.14.0.24629\lib\native\include\xstring
; File c:\users\alist_000\cppmisc\packages\visualcpptools.14.0.24629\lib\native\include\xstddef
; File c:\users\alist_000\cppmisc\packages\visualcpptools.14.0.24629\lib\native\include\vcruntime_exception.h
; File c:\users\alist_000\cppmisc\packages\visualcpptools.14.0.24629\lib\native\include\stdexcept
;	COMDAT ??0runtime_error@std@@QEAA@AEBV?$basic_string@DU?$char_traits@D@std@@V?$allocator@D@2@@1@@Z
_TEXT	SEGMENT
_InitData$1 = 32
this$ = 64
_Message$ = 72
??0runtime_error@std@@QEAA@AEBV?$basic_string@DU?$char_traits@D@std@@V?$allocator@D@2@@1@@Z PROC ; std::runtime_error::runtime_error, COMDAT

; 163  : 		{	// construct from message string

$LN25:
  00000	40 53		 push	 rbx
  00002	48 83 ec 30	 sub	 rsp, 48			; 00000030H
; File c:\users\alist_000\cppmisc\packages\visualcpptools.14.0.24629\lib\native\include\xstring

; 1638 : 		return (this->_BUF_SIZE <= _Myres);

  00006	48 83 7a 18 10	 cmp	 QWORD PTR [rdx+24], 16
; File c:\users\alist_000\cppmisc\packages\visualcpptools.14.0.24629\lib\native\include\stdexcept

; 163  : 		{	// construct from message string

  0000b	48 8b c2	 mov	 rax, rdx
  0000e	48 8b d9	 mov	 rbx, rcx
; File c:\users\alist_000\cppmisc\packages\visualcpptools.14.0.24629\lib\native\include\xstring

; 1631 : 		return (_Large_string_engaged()

  00011	72 03		 jb	 SHORT $LN16@runtime_er
; File c:\users\alist_000\cppmisc\packages\visualcpptools.14.0.24629\lib\native\include\xstddef

; 642  : 	return (_Ptr);

  00013	48 8b 02	 mov	 rax, QWORD PTR [rdx]
$LN16@runtime_er:
; File c:\users\alist_000\cppmisc\packages\visualcpptools.14.0.24629\lib\native\include\vcruntime_exception.h

; 52   :         : _Data()

  00016	48 8d 53 08	 lea	 rdx, QWORD PTR [rbx+8]

; 53   :     {
; 54   :         __std_exception_data _InitData = { _Message, true };

  0001a	48 89 44 24 20	 mov	 QWORD PTR _InitData$1[rsp], rax
  0001f	48 8d 0d 00 00
	00 00		 lea	 rcx, OFFSET FLAT:??_7exception@std@@6B@
  00026	c6 44 24 28 01	 mov	 BYTE PTR _InitData$1[rsp+8], 1
  0002b	48 89 0b	 mov	 QWORD PTR [rbx], rcx
  0002e	33 c9		 xor	 ecx, ecx
  00030	48 89 0a	 mov	 QWORD PTR [rdx], rcx
  00033	48 89 4a 08	 mov	 QWORD PTR [rdx+8], rcx

; 55   :         __std_exception_copy(&_InitData, &_Data);

  00037	48 8d 4c 24 20	 lea	 rcx, QWORD PTR _InitData$1[rsp]
  0003c	e8 00 00 00 00	 call	 __std_exception_copy
; File c:\users\alist_000\cppmisc\packages\visualcpptools.14.0.24629\lib\native\include\stdexcept

; 163  : 		{	// construct from message string

  00041	48 8d 05 00 00
	00 00		 lea	 rax, OFFSET FLAT:??_7runtime_error@std@@6B@
  00048	48 89 03	 mov	 QWORD PTR [rbx], rax

; 164  : 		}

  0004b	48 8b c3	 mov	 rax, rbx
  0004e	48 83 c4 30	 add	 rsp, 48			; 00000030H
  00052	5b		 pop	 rbx
  00053	c3		 ret	 0
??0runtime_error@std@@QEAA@AEBV?$basic_string@DU?$char_traits@D@std@@V?$allocator@D@2@@1@@Z ENDP ; std::runtime_error::runtime_error
_TEXT	ENDS
; Function compile flags: /Ogtpy
; File c:\users\alist_000\cppmisc\packages\visualcpptools.14.0.24629\lib\native\include\stdexcept
; File c:\users\alist_000\cppmisc\packages\visualcpptools.14.0.24629\lib\native\include\vcruntime_exception.h
; File c:\users\alist_000\cppmisc\packages\visualcpptools.14.0.24629\lib\native\include\stdexcept
; File c:\users\alist_000\cppmisc\packages\visualcpptools.14.0.24629\lib\native\include\vcruntime_exception.h
; File c:\users\alist_000\cppmisc\packages\visualcpptools.14.0.24629\lib\native\include\stdexcept
;	COMDAT ??0runtime_error@std@@QEAA@PEBD@Z
_TEXT	SEGMENT
_InitData$1 = 32
this$ = 64
_Message$ = 72
??0runtime_error@std@@QEAA@PEBD@Z PROC			; std::runtime_error::runtime_error, COMDAT

; 168  : 		{	// construct from message string

$LN6:
  00000	40 53		 push	 rbx
  00002	48 83 ec 30	 sub	 rsp, 48			; 00000030H
  00006	48 8b d9	 mov	 rbx, rcx
; File c:\users\alist_000\cppmisc\packages\visualcpptools.14.0.24629\lib\native\include\vcruntime_exception.h

; 54   :         __std_exception_data _InitData = { _Message, true };

  00009	c6 44 24 28 01	 mov	 BYTE PTR _InitData$1[rsp+8], 1
; File c:\users\alist_000\cppmisc\packages\visualcpptools.14.0.24629\lib\native\include\stdexcept

; 168  : 		{	// construct from message string

  0000e	48 8b c2	 mov	 rax, rdx
; File c:\users\alist_000\cppmisc\packages\visualcpptools.14.0.24629\lib\native\include\vcruntime_exception.h

; 53   :     {

  00011	48 8d 0d 00 00
	00 00		 lea	 rcx, OFFSET FLAT:??_7exception@std@@6B@
  00018	48 8d 53 08	 lea	 rdx, QWORD PTR [rbx+8]

; 54   :         __std_exception_data _InitData = { _Message, true };

  0001c	48 89 44 24 20	 mov	 QWORD PTR _InitData$1[rsp], rax
  00021	48 89 0b	 mov	 QWORD PTR [rbx], rcx
  00024	33 c9		 xor	 ecx, ecx
  00026	48 89 0a	 mov	 QWORD PTR [rdx], rcx
  00029	48 89 4a 08	 mov	 QWORD PTR [rdx+8], rcx

; 55   :         __std_exception_copy(&_InitData, &_Data);

  0002d	48 8d 4c 24 20	 lea	 rcx, QWORD PTR _InitData$1[rsp]
  00032	e8 00 00 00 00	 call	 __std_exception_copy
; File c:\users\alist_000\cppmisc\packages\visualcpptools.14.0.24629\lib\native\include\stdexcept

; 168  : 		{	// construct from message string

  00037	48 8d 05 00 00
	00 00		 lea	 rax, OFFSET FLAT:??_7runtime_error@std@@6B@
  0003e	48 89 03	 mov	 QWORD PTR [rbx], rax

; 169  : 		}

  00041	48 8b c3	 mov	 rax, rbx
  00044	48 83 c4 30	 add	 rsp, 48			; 00000030H
  00048	5b		 pop	 rbx
  00049	c3		 ret	 0
??0runtime_error@std@@QEAA@PEBD@Z ENDP			; std::runtime_error::runtime_error
_TEXT	ENDS
; Function compile flags: /Ogtpy
; File c:\users\alist_000\cppmisc\packages\visualcpptools.14.0.24629\lib\native\include\vcruntime_exception.h
;	COMDAT ??_Gruntime_error@std@@UEAAPEAXI@Z
_TEXT	SEGMENT
this$ = 48
__flags$ = 56
??_Gruntime_error@std@@UEAAPEAXI@Z PROC			; std::runtime_error::`scalar deleting destructor', COMDAT
$LN11:
  00000	48 89 5c 24 08	 mov	 QWORD PTR [rsp+8], rbx
  00005	57		 push	 rdi
  00006	48 83 ec 20	 sub	 rsp, 32			; 00000020H

; 83   :     {

  0000a	48 8d 05 00 00
	00 00		 lea	 rax, OFFSET FLAT:??_7exception@std@@6B@
  00011	48 8b f9	 mov	 rdi, rcx
  00014	48 89 01	 mov	 QWORD PTR [rcx], rax
  00017	8b da		 mov	 ebx, edx

; 84   :         __std_exception_destroy(&_Data);

  00019	48 83 c1 08	 add	 rcx, 8
  0001d	e8 00 00 00 00	 call	 __std_exception_destroy
  00022	f6 c3 01	 test	 bl, 1
  00025	74 0d		 je	 SHORT $LN9@scalar
  00027	ba 18 00 00 00	 mov	 edx, 24
  0002c	48 8b cf	 mov	 rcx, rdi
  0002f	e8 00 00 00 00	 call	 ??3@YAXPEAX_K@Z		; operator delete
$LN9@scalar:
  00034	48 8b c7	 mov	 rax, rdi
  00037	48 8b 5c 24 30	 mov	 rbx, QWORD PTR [rsp+48]
  0003c	48 83 c4 20	 add	 rsp, 32			; 00000020H
  00040	5f		 pop	 rdi
  00041	c3		 ret	 0
??_Gruntime_error@std@@UEAAPEAXI@Z ENDP			; std::runtime_error::`scalar deleting destructor'
_TEXT	ENDS
; Function compile flags: /Ogtpy
; File c:\users\alist_000\cppmisc\packages\visualcpptools.14.0.24629\lib\native\include\vcruntime_exception.h
;	COMDAT ??1runtime_error@std@@UEAA@XZ
_TEXT	SEGMENT
this$ = 8
??1runtime_error@std@@UEAA@XZ PROC			; std::runtime_error::~runtime_error, COMDAT

; 83   :     {

  00000	48 8d 05 00 00
	00 00		 lea	 rax, OFFSET FLAT:??_7exception@std@@6B@
  00007	48 89 01	 mov	 QWORD PTR [rcx], rax

; 84   :         __std_exception_destroy(&_Data);

  0000a	48 83 c1 08	 add	 rcx, 8
  0000e	e9 00 00 00 00	 jmp	 __std_exception_destroy
??1runtime_error@std@@UEAA@XZ ENDP			; std::runtime_error::~runtime_error
_TEXT	ENDS
; Function compile flags: /Ogtpy
; File c:\users\alist_000\cppmisc\packages\visualcpptools.14.0.24629\lib\native\include\vcruntime_typeinfo.h
; File c:\users\alist_000\cppmisc\packages\visualcpptools.14.0.24629\lib\native\include\vcruntime_exception.h
; File c:\users\alist_000\cppmisc\packages\visualcpptools.14.0.24629\lib\native\include\vcruntime_typeinfo.h
;	COMDAT ??0bad_cast@std@@QEAA@XZ
_TEXT	SEGMENT
this$ = 8
??0bad_cast@std@@QEAA@XZ PROC				; std::bad_cast::bad_cast, COMDAT
; File c:\users\alist_000\cppmisc\packages\visualcpptools.14.0.24629\lib\native\include\vcruntime_exception.h

; 59   :         : _Data()

  00000	33 c0		 xor	 eax, eax
  00002	48 89 41 10	 mov	 QWORD PTR [rcx+16], rax

; 60   :     {
; 61   :         _Data._What = _Message;

  00006	48 8d 05 00 00
	00 00		 lea	 rax, OFFSET FLAT:??_C@_08EPJLHIJG@bad?5cast?$AA@
  0000d	48 89 41 08	 mov	 QWORD PTR [rcx+8], rax
; File c:\users\alist_000\cppmisc\packages\visualcpptools.14.0.24629\lib\native\include\vcruntime_typeinfo.h

; 125  :     {

  00011	48 8d 05 00 00
	00 00		 lea	 rax, OFFSET FLAT:??_7bad_cast@std@@6B@
  00018	48 89 01	 mov	 QWORD PTR [rcx], rax

; 126  :     }

  0001b	48 8b c1	 mov	 rax, rcx
  0001e	c3		 ret	 0
??0bad_cast@std@@QEAA@XZ ENDP				; std::bad_cast::bad_cast
_TEXT	ENDS
; Function compile flags: /Ogtpy
; File c:\users\alist_000\cppmisc\packages\visualcpptools.14.0.24629\lib\native\include\vcruntime_exception.h
;	COMDAT ??_Gbad_cast@std@@UEAAPEAXI@Z
_TEXT	SEGMENT
this$ = 48
__flags$ = 56
??_Gbad_cast@std@@UEAAPEAXI@Z PROC			; std::bad_cast::`scalar deleting destructor', COMDAT
$LN11:
  00000	48 89 5c 24 08	 mov	 QWORD PTR [rsp+8], rbx
  00005	57		 push	 rdi
  00006	48 83 ec 20	 sub	 rsp, 32			; 00000020H

; 83   :     {

  0000a	48 8d 05 00 00
	00 00		 lea	 rax, OFFSET FLAT:??_7exception@std@@6B@
  00011	48 8b f9	 mov	 rdi, rcx
  00014	48 89 01	 mov	 QWORD PTR [rcx], rax
  00017	8b da		 mov	 ebx, edx

; 84   :         __std_exception_destroy(&_Data);

  00019	48 83 c1 08	 add	 rcx, 8
  0001d	e8 00 00 00 00	 call	 __std_exception_destroy
  00022	f6 c3 01	 test	 bl, 1
  00025	74 0d		 je	 SHORT $LN9@scalar
  00027	ba 18 00 00 00	 mov	 edx, 24
  0002c	48 8b cf	 mov	 rcx, rdi
  0002f	e8 00 00 00 00	 call	 ??3@YAXPEAX_K@Z		; operator delete
$LN9@scalar:
  00034	48 8b c7	 mov	 rax, rdi
  00037	48 8b 5c 24 30	 mov	 rbx, QWORD PTR [rsp+48]
  0003c	48 83 c4 20	 add	 rsp, 32			; 00000020H
  00040	5f		 pop	 rdi
  00041	c3		 ret	 0
??_Gbad_cast@std@@UEAAPEAXI@Z ENDP			; std::bad_cast::`scalar deleting destructor'
_TEXT	ENDS
; Function compile flags: /Ogtpy
; File c:\users\alist_000\cppmisc\packages\visualcpptools.14.0.24629\lib\native\include\vcruntime_exception.h
;	COMDAT ??1bad_cast@std@@UEAA@XZ
_TEXT	SEGMENT
this$ = 8
??1bad_cast@std@@UEAA@XZ PROC				; std::bad_cast::~bad_cast, COMDAT

; 83   :     {

  00000	48 8d 05 00 00
	00 00		 lea	 rax, OFFSET FLAT:??_7exception@std@@6B@
  00007	48 89 01	 mov	 QWORD PTR [rcx], rax

; 84   :         __std_exception_destroy(&_Data);

  0000a	48 83 c1 08	 add	 rcx, 8
  0000e	e9 00 00 00 00	 jmp	 __std_exception_destroy
??1bad_cast@std@@UEAA@XZ ENDP				; std::bad_cast::~bad_cast
_TEXT	ENDS
; Function compile flags: /Ogtpy
; File c:\users\alist_000\cppmisc\packages\visualcpptools.14.0.24629\lib\native\include\xlocinfo
; File c:\users\alist_000\cppmisc\packages\visualcpptools.14.0.24629\lib\native\include\xutility
; File c:\users\alist_000\cppmisc\packages\visualcpptools.14.0.24629\lib\native\include\xlocinfo
;	COMDAT ??0_Locinfo@std@@QEAA@PEBD@Z
_TEXT	SEGMENT
$T1 = 32
$T2 = 40
this$ = 80
_Pch$ = 88
??0_Locinfo@std@@QEAA@PEBD@Z PROC			; std::_Locinfo::_Locinfo, COMDAT

; 76   : 		{	// construct from NTBS

$LN24:
  00000	48 89 4c 24 08	 mov	 QWORD PTR [rsp+8], rcx
  00005	57		 push	 rdi
  00006	48 83 ec 40	 sub	 rsp, 64			; 00000040H
  0000a	48 c7 44 24 20
	fe ff ff ff	 mov	 QWORD PTR $T1[rsp], -2
  00013	48 89 5c 24 58	 mov	 QWORD PTR [rsp+88], rbx
  00018	48 8b fa	 mov	 rdi, rdx
  0001b	48 8b d9	 mov	 rbx, rcx

; 73   : 		: _Lock(_LOCK_LOCALE)

  0001e	33 d2		 xor	 edx, edx
  00020	e8 00 00 00 00	 call	 ??0_Lockit@std@@QEAA@H@Z ; std::_Lockit::_Lockit
  00025	90		 npad	 1
; File c:\users\alist_000\cppmisc\packages\visualcpptools.14.0.24629\lib\native\include\xutility

; 3639 : 		: _Myptr(0), _Nul(0)

  00026	33 c0		 xor	 eax, eax
  00028	48 89 43 08	 mov	 QWORD PTR [rbx+8], rax
  0002c	88 43 10	 mov	 BYTE PTR [rbx+16], al
  0002f	48 89 43 18	 mov	 QWORD PTR [rbx+24], rax
  00033	88 43 20	 mov	 BYTE PTR [rbx+32], al
  00036	48 89 43 28	 mov	 QWORD PTR [rbx+40], rax
  0003a	66 89 43 30	 mov	 WORD PTR [rbx+48], ax
  0003e	48 89 43 38	 mov	 QWORD PTR [rbx+56], rax
  00042	66 89 43 40	 mov	 WORD PTR [rbx+64], ax
  00046	48 89 43 48	 mov	 QWORD PTR [rbx+72], rax
  0004a	88 43 50	 mov	 BYTE PTR [rbx+80], al
  0004d	48 89 43 58	 mov	 QWORD PTR [rbx+88], rax
  00051	88 43 60	 mov	 BYTE PTR [rbx+96], al
; File c:\users\alist_000\cppmisc\packages\visualcpptools.14.0.24629\lib\native\include\xlocinfo

; 77   : 		if (_Pch == 0)

  00054	48 85 ff	 test	 rdi, rdi
  00057	75 23		 jne	 SHORT $LN2@Locinfo

; 78   : 			_THROW_NCEE(runtime_error, "bad locale name");

  00059	48 8d 15 00 00
	00 00		 lea	 rdx, OFFSET FLAT:??_C@_0BA@ELKIONDK@bad?5locale?5name?$AA@
  00060	48 8d 4c 24 28	 lea	 rcx, QWORD PTR $T2[rsp]
  00065	e8 00 00 00 00	 call	 ??0runtime_error@std@@QEAA@PEBD@Z ; std::runtime_error::runtime_error
  0006a	48 8d 15 00 00
	00 00		 lea	 rdx, OFFSET FLAT:_TI2?AVruntime_error@std@@
  00071	48 8d 4c 24 28	 lea	 rcx, QWORD PTR $T2[rsp]
  00076	e8 00 00 00 00	 call	 _CxxThrowException
  0007b	cc		 int	 3
$LN2@Locinfo:

; 79   : 		_Locinfo_ctor(this, _Pch);

  0007c	48 8b d7	 mov	 rdx, rdi
  0007f	48 8b cb	 mov	 rcx, rbx
  00082	e8 00 00 00 00	 call	 ?_Locinfo_ctor@_Locinfo@std@@SAXPEAV12@PEBD@Z ; std::_Locinfo::_Locinfo_ctor
  00087	90		 npad	 1

; 80   : 		}

  00088	48 8b c3	 mov	 rax, rbx
  0008b	48 8b 5c 24 58	 mov	 rbx, QWORD PTR [rsp+88]
  00090	48 83 c4 40	 add	 rsp, 64			; 00000040H
  00094	5f		 pop	 rdi
  00095	c3		 ret	 0
$LN23@Locinfo:
??0_Locinfo@std@@QEAA@PEBD@Z ENDP			; std::_Locinfo::_Locinfo
_TEXT	ENDS
;	COMDAT text$x
text$x	SEGMENT
$T1 = 32
$T2 = 40
this$ = 80
_Pch$ = 88
?dtor$0@?0???0_Locinfo@std@@QEAA@PEBD@Z@4HA PROC	; `std::_Locinfo::_Locinfo'::`1'::dtor$0
  00000	48 8b 8a 50 00
	00 00		 mov	 rcx, QWORD PTR this$[rdx]
  00007	e9 00 00 00 00	 jmp	 ??1_Lockit@std@@QEAA@XZ	; std::_Lockit::~_Lockit
?dtor$0@?0???0_Locinfo@std@@QEAA@PEBD@Z@4HA ENDP	; `std::_Locinfo::_Locinfo'::`1'::dtor$0
$T1 = 32
$T2 = 40
this$ = 80
_Pch$ = 88
?dtor$1@?0???0_Locinfo@std@@QEAA@PEBD@Z@4HA PROC	; `std::_Locinfo::_Locinfo'::`1'::dtor$1
  0000c	48 8b 8a 50 00
	00 00		 mov	 rcx, QWORD PTR this$[rdx]
  00013	48 83 c1 08	 add	 rcx, 8
  00017	e9 00 00 00 00	 jmp	 ??1?$_Yarn@D@std@@QEAA@XZ ; std::_Yarn<char>::~_Yarn<char>
?dtor$1@?0???0_Locinfo@std@@QEAA@PEBD@Z@4HA ENDP	; `std::_Locinfo::_Locinfo'::`1'::dtor$1
$T1 = 32
$T2 = 40
this$ = 80
_Pch$ = 88
?dtor$2@?0???0_Locinfo@std@@QEAA@PEBD@Z@4HA PROC	; `std::_Locinfo::_Locinfo'::`1'::dtor$2
  0001c	48 8b 8a 50 00
	00 00		 mov	 rcx, QWORD PTR this$[rdx]
  00023	48 83 c1 18	 add	 rcx, 24
  00027	e9 00 00 00 00	 jmp	 ??1?$_Yarn@D@std@@QEAA@XZ ; std::_Yarn<char>::~_Yarn<char>
?dtor$2@?0???0_Locinfo@std@@QEAA@PEBD@Z@4HA ENDP	; `std::_Locinfo::_Locinfo'::`1'::dtor$2
$T1 = 32
$T2 = 40
this$ = 80
_Pch$ = 88
?dtor$3@?0???0_Locinfo@std@@QEAA@PEBD@Z@4HA PROC	; `std::_Locinfo::_Locinfo'::`1'::dtor$3
  0002c	48 8b 8a 50 00
	00 00		 mov	 rcx, QWORD PTR this$[rdx]
  00033	48 83 c1 28	 add	 rcx, 40			; 00000028H
  00037	e9 00 00 00 00	 jmp	 ??1?$_Yarn@_W@std@@QEAA@XZ ; std::_Yarn<wchar_t>::~_Yarn<wchar_t>
?dtor$3@?0???0_Locinfo@std@@QEAA@PEBD@Z@4HA ENDP	; `std::_Locinfo::_Locinfo'::`1'::dtor$3
$T1 = 32
$T2 = 40
this$ = 80
_Pch$ = 88
?dtor$4@?0???0_Locinfo@std@@QEAA@PEBD@Z@4HA PROC	; `std::_Locinfo::_Locinfo'::`1'::dtor$4
  0003c	48 8b 8a 50 00
	00 00		 mov	 rcx, QWORD PTR this$[rdx]
  00043	48 83 c1 38	 add	 rcx, 56			; 00000038H
  00047	e9 00 00 00 00	 jmp	 ??1?$_Yarn@_W@std@@QEAA@XZ ; std::_Yarn<wchar_t>::~_Yarn<wchar_t>
?dtor$4@?0???0_Locinfo@std@@QEAA@PEBD@Z@4HA ENDP	; `std::_Locinfo::_Locinfo'::`1'::dtor$4
$T1 = 32
$T2 = 40
this$ = 80
_Pch$ = 88
?dtor$5@?0???0_Locinfo@std@@QEAA@PEBD@Z@4HA PROC	; `std::_Locinfo::_Locinfo'::`1'::dtor$5
  0004c	48 8b 8a 50 00
	00 00		 mov	 rcx, QWORD PTR this$[rdx]
  00053	48 83 c1 48	 add	 rcx, 72			; 00000048H
  00057	e9 00 00 00 00	 jmp	 ??1?$_Yarn@D@std@@QEAA@XZ ; std::_Yarn<char>::~_Yarn<char>
?dtor$5@?0???0_Locinfo@std@@QEAA@PEBD@Z@4HA ENDP	; `std::_Locinfo::_Locinfo'::`1'::dtor$5
$T1 = 32
$T2 = 40
this$ = 80
_Pch$ = 88
?dtor$6@?0???0_Locinfo@std@@QEAA@PEBD@Z@4HA PROC	; `std::_Locinfo::_Locinfo'::`1'::dtor$6
  0005c	48 8b 8a 50 00
	00 00		 mov	 rcx, QWORD PTR this$[rdx]
  00063	48 83 c1 58	 add	 rcx, 88			; 00000058H
  00067	e9 00 00 00 00	 jmp	 ??1?$_Yarn@D@std@@QEAA@XZ ; std::_Yarn<char>::~_Yarn<char>
?dtor$6@?0???0_Locinfo@std@@QEAA@PEBD@Z@4HA ENDP	; `std::_Locinfo::_Locinfo'::`1'::dtor$6
text$x	ENDS
; Function compile flags: /Ogtpy
;	COMDAT text$x
text$x	SEGMENT
$T1 = 32
$T2 = 40
this$ = 80
_Pch$ = 88
?dtor$0@?0???0_Locinfo@std@@QEAA@PEBD@Z@4HA PROC	; `std::_Locinfo::_Locinfo'::`1'::dtor$0
  00000	48 8b 8a 50 00
	00 00		 mov	 rcx, QWORD PTR this$[rdx]
  00007	e9 00 00 00 00	 jmp	 ??1_Lockit@std@@QEAA@XZ	; std::_Lockit::~_Lockit
?dtor$0@?0???0_Locinfo@std@@QEAA@PEBD@Z@4HA ENDP	; `std::_Locinfo::_Locinfo'::`1'::dtor$0
text$x	ENDS
; Function compile flags: /Ogtpy
;	COMDAT text$x
text$x	SEGMENT
$T1 = 32
$T2 = 40
this$ = 80
_Pch$ = 88
?dtor$1@?0???0_Locinfo@std@@QEAA@PEBD@Z@4HA PROC	; `std::_Locinfo::_Locinfo'::`1'::dtor$1
  0000c	48 8b 8a 50 00
	00 00		 mov	 rcx, QWORD PTR this$[rdx]
  00013	48 83 c1 08	 add	 rcx, 8
  00017	e9 00 00 00 00	 jmp	 ??1?$_Yarn@D@std@@QEAA@XZ ; std::_Yarn<char>::~_Yarn<char>
?dtor$1@?0???0_Locinfo@std@@QEAA@PEBD@Z@4HA ENDP	; `std::_Locinfo::_Locinfo'::`1'::dtor$1
text$x	ENDS
; Function compile flags: /Ogtpy
;	COMDAT text$x
text$x	SEGMENT
$T1 = 32
$T2 = 40
this$ = 80
_Pch$ = 88
?dtor$2@?0???0_Locinfo@std@@QEAA@PEBD@Z@4HA PROC	; `std::_Locinfo::_Locinfo'::`1'::dtor$2
  0001c	48 8b 8a 50 00
	00 00		 mov	 rcx, QWORD PTR this$[rdx]
  00023	48 83 c1 18	 add	 rcx, 24
  00027	e9 00 00 00 00	 jmp	 ??1?$_Yarn@D@std@@QEAA@XZ ; std::_Yarn<char>::~_Yarn<char>
?dtor$2@?0???0_Locinfo@std@@QEAA@PEBD@Z@4HA ENDP	; `std::_Locinfo::_Locinfo'::`1'::dtor$2
text$x	ENDS
; Function compile flags: /Ogtpy
;	COMDAT text$x
text$x	SEGMENT
$T1 = 32
$T2 = 40
this$ = 80
_Pch$ = 88
?dtor$3@?0???0_Locinfo@std@@QEAA@PEBD@Z@4HA PROC	; `std::_Locinfo::_Locinfo'::`1'::dtor$3
  0002c	48 8b 8a 50 00
	00 00		 mov	 rcx, QWORD PTR this$[rdx]
  00033	48 83 c1 28	 add	 rcx, 40			; 00000028H
  00037	e9 00 00 00 00	 jmp	 ??1?$_Yarn@_W@std@@QEAA@XZ ; std::_Yarn<wchar_t>::~_Yarn<wchar_t>
?dtor$3@?0???0_Locinfo@std@@QEAA@PEBD@Z@4HA ENDP	; `std::_Locinfo::_Locinfo'::`1'::dtor$3
text$x	ENDS
; Function compile flags: /Ogtpy
;	COMDAT text$x
text$x	SEGMENT
$T1 = 32
$T2 = 40
this$ = 80
_Pch$ = 88
?dtor$4@?0???0_Locinfo@std@@QEAA@PEBD@Z@4HA PROC	; `std::_Locinfo::_Locinfo'::`1'::dtor$4
  0003c	48 8b 8a 50 00
	00 00		 mov	 rcx, QWORD PTR this$[rdx]
  00043	48 83 c1 38	 add	 rcx, 56			; 00000038H
  00047	e9 00 00 00 00	 jmp	 ??1?$_Yarn@_W@std@@QEAA@XZ ; std::_Yarn<wchar_t>::~_Yarn<wchar_t>
?dtor$4@?0???0_Locinfo@std@@QEAA@PEBD@Z@4HA ENDP	; `std::_Locinfo::_Locinfo'::`1'::dtor$4
text$x	ENDS
; Function compile flags: /Ogtpy
;	COMDAT text$x
text$x	SEGMENT
$T1 = 32
$T2 = 40
this$ = 80
_Pch$ = 88
?dtor$5@?0???0_Locinfo@std@@QEAA@PEBD@Z@4HA PROC	; `std::_Locinfo::_Locinfo'::`1'::dtor$5
  0004c	48 8b 8a 50 00
	00 00		 mov	 rcx, QWORD PTR this$[rdx]
  00053	48 83 c1 48	 add	 rcx, 72			; 00000048H
  00057	e9 00 00 00 00	 jmp	 ??1?$_Yarn@D@std@@QEAA@XZ ; std::_Yarn<char>::~_Yarn<char>
?dtor$5@?0???0_Locinfo@std@@QEAA@PEBD@Z@4HA ENDP	; `std::_Locinfo::_Locinfo'::`1'::dtor$5
text$x	ENDS
; Function compile flags: /Ogtpy
;	COMDAT text$x
text$x	SEGMENT
$T1 = 32
$T2 = 40
this$ = 80
_Pch$ = 88
?dtor$6@?0???0_Locinfo@std@@QEAA@PEBD@Z@4HA PROC	; `std::_Locinfo::_Locinfo'::`1'::dtor$6
  0005c	48 8b 8a 50 00
	00 00		 mov	 rcx, QWORD PTR this$[rdx]
  00063	48 83 c1 58	 add	 rcx, 88			; 00000058H
  00067	e9 00 00 00 00	 jmp	 ??1?$_Yarn@D@std@@QEAA@XZ ; std::_Yarn<char>::~_Yarn<char>
?dtor$6@?0???0_Locinfo@std@@QEAA@PEBD@Z@4HA ENDP	; `std::_Locinfo::_Locinfo'::`1'::dtor$6
text$x	ENDS
; Function compile flags: /Ogtpy
; File c:\users\alist_000\cppmisc\packages\visualcpptools.14.0.24629\lib\native\include\xlocinfo
; File c:\users\alist_000\cppmisc\packages\visualcpptools.14.0.24629\lib\native\include\xutility
; File c:\users\alist_000\cppmisc\packages\visualcpptools.14.0.24629\lib\native\include\xlocinfo
;	COMDAT ??1_Locinfo@std@@QEAA@XZ
_TEXT	SEGMENT
$T1 = 32
this$ = 64
??1_Locinfo@std@@QEAA@XZ PROC				; std::_Locinfo::~_Locinfo, COMDAT

; 94   : 		{	// destroy the object

$LN39:
  00000	40 57		 push	 rdi
  00002	48 83 ec 30	 sub	 rsp, 48			; 00000030H
  00006	48 c7 44 24 20
	fe ff ff ff	 mov	 QWORD PTR $T1[rsp], -2
  0000f	48 89 5c 24 40	 mov	 QWORD PTR [rsp+64], rbx
  00014	48 8b d9	 mov	 rbx, rcx

; 95   : 		_Locinfo_dtor(this);

  00017	e8 00 00 00 00	 call	 ?_Locinfo_dtor@_Locinfo@std@@SAXPEAV12@@Z ; std::_Locinfo::_Locinfo_dtor
  0001c	90		 npad	 1
; File c:\users\alist_000\cppmisc\packages\visualcpptools.14.0.24629\lib\native\include\xutility

; 3717 : 		if (_Myptr != 0)

  0001d	48 8b 4b 58	 mov	 rcx, QWORD PTR [rbx+88]
  00021	48 85 c9	 test	 rcx, rcx
  00024	74 06		 je	 SHORT $LN7@Locinfo

; 3718 : 
; 3719 :  #ifdef _DEBUG
; 3720 : 			_free_dbg(_Myptr, _CRT_BLOCK);
; 3721 : 
; 3722 :  #else /* _DEBUG */
; 3723 : 			_CSTD free(_Myptr);

  00026	e8 00 00 00 00	 call	 free
  0002b	90		 npad	 1
$LN7@Locinfo:

; 3724 :  #endif /* _DEBUG */
; 3725 : 
; 3726 : 		_Myptr = 0;

  0002c	33 ff		 xor	 edi, edi
  0002e	48 89 7b 58	 mov	 QWORD PTR [rbx+88], rdi

; 3717 : 		if (_Myptr != 0)

  00032	48 8b 4b 48	 mov	 rcx, QWORD PTR [rbx+72]
  00036	48 85 c9	 test	 rcx, rcx
  00039	74 06		 je	 SHORT $LN13@Locinfo

; 3718 : 
; 3719 :  #ifdef _DEBUG
; 3720 : 			_free_dbg(_Myptr, _CRT_BLOCK);
; 3721 : 
; 3722 :  #else /* _DEBUG */
; 3723 : 			_CSTD free(_Myptr);

  0003b	e8 00 00 00 00	 call	 free
  00040	90		 npad	 1
$LN13@Locinfo:

; 3724 :  #endif /* _DEBUG */
; 3725 : 
; 3726 : 		_Myptr = 0;

  00041	48 89 7b 48	 mov	 QWORD PTR [rbx+72], rdi

; 3717 : 		if (_Myptr != 0)

  00045	48 8b 4b 38	 mov	 rcx, QWORD PTR [rbx+56]
  00049	48 85 c9	 test	 rcx, rcx
  0004c	74 06		 je	 SHORT $LN19@Locinfo

; 3718 : 
; 3719 :  #ifdef _DEBUG
; 3720 : 			_free_dbg(_Myptr, _CRT_BLOCK);
; 3721 : 
; 3722 :  #else /* _DEBUG */
; 3723 : 			_CSTD free(_Myptr);

  0004e	e8 00 00 00 00	 call	 free
  00053	90		 npad	 1
$LN19@Locinfo:

; 3724 :  #endif /* _DEBUG */
; 3725 : 
; 3726 : 		_Myptr = 0;

  00054	48 89 7b 38	 mov	 QWORD PTR [rbx+56], rdi

; 3717 : 		if (_Myptr != 0)

  00058	48 8b 4b 28	 mov	 rcx, QWORD PTR [rbx+40]
  0005c	48 85 c9	 test	 rcx, rcx
  0005f	74 06		 je	 SHORT $LN25@Locinfo

; 3718 : 
; 3719 :  #ifdef _DEBUG
; 3720 : 			_free_dbg(_Myptr, _CRT_BLOCK);
; 3721 : 
; 3722 :  #else /* _DEBUG */
; 3723 : 			_CSTD free(_Myptr);

  00061	e8 00 00 00 00	 call	 free
  00066	90		 npad	 1
$LN25@Locinfo:

; 3724 :  #endif /* _DEBUG */
; 3725 : 
; 3726 : 		_Myptr = 0;

  00067	48 89 7b 28	 mov	 QWORD PTR [rbx+40], rdi

; 3717 : 		if (_Myptr != 0)

  0006b	48 8b 4b 18	 mov	 rcx, QWORD PTR [rbx+24]
  0006f	48 85 c9	 test	 rcx, rcx
  00072	74 06		 je	 SHORT $LN31@Locinfo

; 3718 : 
; 3719 :  #ifdef _DEBUG
; 3720 : 			_free_dbg(_Myptr, _CRT_BLOCK);
; 3721 : 
; 3722 :  #else /* _DEBUG */
; 3723 : 			_CSTD free(_Myptr);

  00074	e8 00 00 00 00	 call	 free
  00079	90		 npad	 1
$LN31@Locinfo:

; 3724 :  #endif /* _DEBUG */
; 3725 : 
; 3726 : 		_Myptr = 0;

  0007a	48 89 7b 18	 mov	 QWORD PTR [rbx+24], rdi

; 3717 : 		if (_Myptr != 0)

  0007e	48 8b 4b 08	 mov	 rcx, QWORD PTR [rbx+8]
  00082	48 85 c9	 test	 rcx, rcx
  00085	74 06		 je	 SHORT $LN37@Locinfo

; 3718 : 
; 3719 :  #ifdef _DEBUG
; 3720 : 			_free_dbg(_Myptr, _CRT_BLOCK);
; 3721 : 
; 3722 :  #else /* _DEBUG */
; 3723 : 			_CSTD free(_Myptr);

  00087	e8 00 00 00 00	 call	 free
  0008c	90		 npad	 1
$LN37@Locinfo:

; 3724 :  #endif /* _DEBUG */
; 3725 : 
; 3726 : 		_Myptr = 0;

  0008d	48 89 7b 08	 mov	 QWORD PTR [rbx+8], rdi
; File c:\users\alist_000\cppmisc\packages\visualcpptools.14.0.24629\lib\native\include\xlocinfo

; 96   : 		}

  00091	48 8b cb	 mov	 rcx, rbx
  00094	48 8b 5c 24 40	 mov	 rbx, QWORD PTR [rsp+64]
  00099	48 83 c4 30	 add	 rsp, 48			; 00000030H
  0009d	5f		 pop	 rdi
  0009e	e9 00 00 00 00	 jmp	 ??1_Lockit@std@@QEAA@XZ	; std::_Lockit::~_Lockit
??1_Locinfo@std@@QEAA@XZ ENDP				; std::_Locinfo::~_Locinfo
_TEXT	ENDS
; Function compile flags: /Ogtpy
; File c:\users\alist_000\cppmisc\packages\visualcpptools.14.0.24629\lib\native\include\xlocinfo
;	COMDAT ?_Getctype@_Locinfo@std@@QEBA?AU_Ctypevec@@XZ
_TEXT	SEGMENT
$T1 = 32
this$ = 80
__$ReturnUdt$ = 88
?_Getctype@_Locinfo@std@@QEBA?AU_Ctypevec@@XZ PROC	; std::_Locinfo::_Getctype, COMDAT

; 116  : 		{	// return ctype stuff

$LN4:
  00000	40 53		 push	 rbx
  00002	48 83 ec 40	 sub	 rsp, 64			; 00000040H

; 117  : 		return (::_Getctype());

  00006	48 8d 4c 24 20	 lea	 rcx, QWORD PTR $T1[rsp]
  0000b	48 8b da	 mov	 rbx, rdx
  0000e	e8 00 00 00 00	 call	 _Getctype
  00013	0f 10 00	 movups	 xmm0, XMMWORD PTR [rax]
  00016	0f 10 48 10	 movups	 xmm1, XMMWORD PTR [rax+16]
  0001a	48 8b c3	 mov	 rax, rbx
  0001d	0f 11 03	 movups	 XMMWORD PTR [rbx], xmm0
  00020	0f 11 4b 10	 movups	 XMMWORD PTR [rbx+16], xmm1

; 118  : 		}

  00024	48 83 c4 40	 add	 rsp, 64			; 00000040H
  00028	5b		 pop	 rbx
  00029	c3		 ret	 0
?_Getctype@_Locinfo@std@@QEBA?AU_Ctypevec@@XZ ENDP	; std::_Locinfo::_Getctype
_TEXT	ENDS
; Function compile flags: /Ogtpy
; File c:\users\alist_000\cppmisc\packages\visualcpptools.14.0.24629\lib\native\include\vcruntime_exception.h
;	COMDAT ??0runtime_error@std@@QEAA@AEBV01@@Z
_TEXT	SEGMENT
this$ = 48
__that$ = 56
??0runtime_error@std@@QEAA@AEBV01@@Z PROC		; std::runtime_error::runtime_error, COMDAT
$LN6:
  00000	40 53		 push	 rbx
  00002	48 83 ec 20	 sub	 rsp, 32			; 00000020H
  00006	48 8b d9	 mov	 rbx, rcx
  00009	48 8b c2	 mov	 rax, rdx

; 65   :         : _Data()

  0000c	48 8d 53 08	 lea	 rdx, QWORD PTR [rbx+8]

; 66   :     {

  00010	48 8d 0d 00 00
	00 00		 lea	 rcx, OFFSET FLAT:??_7exception@std@@6B@
  00017	48 89 0b	 mov	 QWORD PTR [rbx], rcx
  0001a	33 c9		 xor	 ecx, ecx
  0001c	48 89 0a	 mov	 QWORD PTR [rdx], rcx
  0001f	48 89 4a 08	 mov	 QWORD PTR [rdx+8], rcx

; 67   :         __std_exception_copy(&_Other._Data, &_Data);

  00023	48 8d 48 08	 lea	 rcx, QWORD PTR [rax+8]
  00027	e8 00 00 00 00	 call	 __std_exception_copy
  0002c	48 8d 05 00 00
	00 00		 lea	 rax, OFFSET FLAT:??_7runtime_error@std@@6B@
  00033	48 89 03	 mov	 QWORD PTR [rbx], rax
  00036	48 8b c3	 mov	 rax, rbx
  00039	48 83 c4 20	 add	 rsp, 32			; 00000020H
  0003d	5b		 pop	 rbx
  0003e	c3		 ret	 0
??0runtime_error@std@@QEAA@AEBV01@@Z ENDP		; std::runtime_error::runtime_error
_TEXT	ENDS
; Function compile flags: /Ogtpy
; File c:\users\alist_000\cppmisc\packages\visualcpptools.14.0.24629\lib\native\include\xfacet
;	COMDAT ??1_Facet_base@std@@UEAA@XZ
_TEXT	SEGMENT
this$ = 8
??1_Facet_base@std@@UEAA@XZ PROC			; std::_Facet_base::~_Facet_base, COMDAT

; 24   : 		{	// ensure that derived classes can be destroyed properly

  00000	48 8d 05 00 00
	00 00		 lea	 rax, OFFSET FLAT:??_7_Facet_base@std@@6B@
  00007	48 89 01	 mov	 QWORD PTR [rcx], rax

; 25   : 		}

  0000a	c3		 ret	 0
??1_Facet_base@std@@UEAA@XZ ENDP			; std::_Facet_base::~_Facet_base
_TEXT	ENDS
; Function compile flags: /Ogtpy
; File c:\users\alist_000\cppmisc\packages\visualcpptools.14.0.24629\lib\native\include\xfacet
;	COMDAT ??_G_Facet_base@std@@UEAAPEAXI@Z
_TEXT	SEGMENT
this$ = 48
__flags$ = 56
??_G_Facet_base@std@@UEAAPEAXI@Z PROC			; std::_Facet_base::`scalar deleting destructor', COMDAT
$LN9:
  00000	40 53		 push	 rbx
  00002	48 83 ec 20	 sub	 rsp, 32			; 00000020H

; 24   : 		{	// ensure that derived classes can be destroyed properly

  00006	48 8d 05 00 00
	00 00		 lea	 rax, OFFSET FLAT:??_7_Facet_base@std@@6B@
  0000d	48 8b d9	 mov	 rbx, rcx
  00010	48 89 01	 mov	 QWORD PTR [rcx], rax
  00013	f6 c2 01	 test	 dl, 1
  00016	74 0a		 je	 SHORT $LN7@scalar
  00018	ba 08 00 00 00	 mov	 edx, 8
  0001d	e8 00 00 00 00	 call	 ??3@YAXPEAX_K@Z		; operator delete
$LN7@scalar:
  00022	48 8b c3	 mov	 rax, rbx
  00025	48 83 c4 20	 add	 rsp, 32			; 00000020H
  00029	5b		 pop	 rbx
  0002a	c3		 ret	 0
??_G_Facet_base@std@@UEAAPEAXI@Z ENDP			; std::_Facet_base::`scalar deleting destructor'
_TEXT	ENDS
; Function compile flags: /Ogtpy
; File c:\users\alist_000\cppmisc\packages\visualcpptools.14.0.24629\lib\native\include\xlocale
;	COMDAT ??Bid@locale@std@@QEAA_KXZ
_TEXT	SEGMENT
_Lock$1 = 48
this$ = 48
??Bid@locale@std@@QEAA_KXZ PROC				; std::locale::id::operator unsigned __int64, COMDAT

; 114  : 			{	// get stamp, with lazy allocation

$LN8:
  00000	40 53		 push	 rbx
  00002	48 83 ec 20	 sub	 rsp, 32			; 00000020H

; 115  : 			if (_Id == 0)

  00006	48 83 39 00	 cmp	 QWORD PTR [rcx], 0
  0000a	48 8b d9	 mov	 rbx, rcx
  0000d	75 38		 jne	 SHORT $LN6@operator

; 116  : 				{	// still zero, allocate stamp
; 117  : 				_BEGIN_LOCK(_LOCK_LOCALE)

  0000f	33 d2		 xor	 edx, edx
  00011	48 8d 4c 24 30	 lea	 rcx, QWORD PTR _Lock$1[rsp]
  00016	e8 00 00 00 00	 call	 ??0_Lockit@std@@QEAA@H@Z ; std::_Lockit::_Lockit

; 118  : 					if (_Id == 0)

  0001b	48 83 3b 00	 cmp	 QWORD PTR [rbx], 0
  0001f	75 13		 jne	 SHORT $LN3@operator

; 119  : 						_Id = ++_Id_cnt;

  00021	8b 05 00 00 00
	00		 mov	 eax, DWORD PTR ?_Id_cnt@id@locale@std@@0HA ; std::locale::id::_Id_cnt
  00027	ff c0		 inc	 eax
  00029	89 05 00 00 00
	00		 mov	 DWORD PTR ?_Id_cnt@id@locale@std@@0HA, eax ; std::locale::id::_Id_cnt
  0002f	48 98		 cdqe
  00031	48 89 03	 mov	 QWORD PTR [rbx], rax
$LN3@operator:

; 120  : 				_END_LOCK()

  00034	48 8d 4c 24 30	 lea	 rcx, QWORD PTR _Lock$1[rsp]
  00039	e8 00 00 00 00	 call	 ??1_Lockit@std@@QEAA@XZ	; std::_Lockit::~_Lockit

; 121  : 				}
; 122  : 			return (_Id);

  0003e	48 8b 03	 mov	 rax, QWORD PTR [rbx]

; 123  : 			}

  00041	48 83 c4 20	 add	 rsp, 32			; 00000020H
  00045	5b		 pop	 rbx
  00046	c3		 ret	 0
$LN6@operator:

; 121  : 				}
; 122  : 			return (_Id);

  00047	48 8b 01	 mov	 rax, QWORD PTR [rcx]

; 123  : 			}

  0004a	48 83 c4 20	 add	 rsp, 32			; 00000020H
  0004e	5b		 pop	 rbx
  0004f	c3		 ret	 0
??Bid@locale@std@@QEAA_KXZ ENDP				; std::locale::id::operator unsigned __int64
_TEXT	ENDS
; Function compile flags: /Ogtpy
; File c:\users\alist_000\cppmisc\packages\visualcpptools.14.0.24629\lib\native\include\xlocale
;	COMDAT ?_Incref@facet@locale@std@@UEAAXXZ
_TEXT	SEGMENT
this$ = 8
?_Incref@facet@locale@std@@UEAAXXZ PROC			; std::locale::facet::_Incref, COMDAT

; 150  : 			_MT_INCR(_Myrefs);

  00000	f0 ff 41 08	 lock inc DWORD PTR [rcx+8]

; 151  : 			}

  00004	c3		 ret	 0
?_Incref@facet@locale@std@@UEAAXXZ ENDP			; std::locale::facet::_Incref
_TEXT	ENDS
; Function compile flags: /Ogtpy
; File c:\users\alist_000\cppmisc\packages\visualcpptools.14.0.24629\lib\native\include\xlocale
;	COMDAT ?_Decref@facet@locale@std@@UEAAPEAV_Facet_base@3@XZ
_TEXT	SEGMENT
this$ = 8
?_Decref@facet@locale@std@@UEAAPEAV_Facet_base@3@XZ PROC ; std::locale::facet::_Decref, COMDAT

; 155  : 			if (_MT_DECR(_Myrefs) == 0)

  00000	f0 83 41 08 ff	 lock add DWORD PTR [rcx+8], -1
  00005	b8 00 00 00 00	 mov	 eax, 0
  0000a	48 0f 44 c1	 cmove	 rax, rcx

; 156  : 				return (this);
; 157  : 			else
; 158  : 				return (0);
; 159  : 			}

  0000e	c3		 ret	 0
?_Decref@facet@locale@std@@UEAAPEAV_Facet_base@3@XZ ENDP ; std::locale::facet::_Decref
_TEXT	ENDS
; Function compile flags: /Ogtpy
; File c:\users\alist_000\cppmisc\packages\visualcpptools.14.0.24629\lib\native\include\xlocale
;	COMDAT ??0facet@locale@std@@IEAA@_K@Z
_TEXT	SEGMENT
this$ = 8
_Initrefs$ = 16
??0facet@locale@std@@IEAA@_K@Z PROC			; std::locale::facet::facet, COMDAT

; 167  : 			{	// construct with initial reference count

  00000	48 8d 05 00 00
	00 00		 lea	 rax, OFFSET FLAT:??_7facet@locale@std@@6B@

; 166  : 			: _Myrefs(static_cast<_Atomic_integral_t>(_Initrefs))	// non-atomic initialization

  00007	89 51 08	 mov	 DWORD PTR [rcx+8], edx
  0000a	48 89 01	 mov	 QWORD PTR [rcx], rax

; 168  : 			}

  0000d	48 8b c1	 mov	 rax, rcx
  00010	c3		 ret	 0
??0facet@locale@std@@IEAA@_K@Z ENDP			; std::locale::facet::facet
_TEXT	ENDS
; Function compile flags: /Ogtpy
; File c:\users\alist_000\cppmisc\packages\visualcpptools.14.0.24629\lib\native\include\xlocale
; File c:\users\alist_000\cppmisc\packages\visualcpptools.14.0.24629\lib\native\include\xfacet
; File c:\users\alist_000\cppmisc\packages\visualcpptools.14.0.24629\lib\native\include\xlocale
;	COMDAT ??1facet@locale@std@@MEAA@XZ
_TEXT	SEGMENT
this$ = 8
??1facet@locale@std@@MEAA@XZ PROC			; std::locale::facet::~facet, COMDAT
; File c:\users\alist_000\cppmisc\packages\visualcpptools.14.0.24629\lib\native\include\xfacet

; 24   : 		{	// ensure that derived classes can be destroyed properly

  00000	48 8d 05 00 00
	00 00		 lea	 rax, OFFSET FLAT:??_7_Facet_base@std@@6B@
  00007	48 89 01	 mov	 QWORD PTR [rcx], rax
; File c:\users\alist_000\cppmisc\packages\visualcpptools.14.0.24629\lib\native\include\xlocale

; 172  : 			}

  0000a	c3		 ret	 0
??1facet@locale@std@@MEAA@XZ ENDP			; std::locale::facet::~facet
_TEXT	ENDS
; Function compile flags: /Ogtpy
; File c:\users\alist_000\cppmisc\packages\visualcpptools.14.0.24629\lib\native\include\xlocale
;	COMDAT ??0locale@std@@QEAA@AEBV01@@Z
_TEXT	SEGMENT
$T1 = 32
this$ = 64
_Right$ = 72
??0locale@std@@QEAA@AEBV01@@Z PROC			; std::locale::locale, COMDAT

; 304  : 		{	// construct by copying

$LN3:
  00000	40 53		 push	 rbx
  00002	48 83 ec 30	 sub	 rsp, 48			; 00000030H
  00006	48 c7 44 24 20
	fe ff ff ff	 mov	 QWORD PTR $T1[rsp], -2
  0000f	48 8b d9	 mov	 rbx, rcx

; 303  : 		: _Ptr(_Right._Ptr)

  00012	48 8b 4a 08	 mov	 rcx, QWORD PTR [rdx+8]
  00016	48 89 4b 08	 mov	 QWORD PTR [rbx+8], rcx

; 305  : 		_Ptr->_Incref();

  0001a	48 8b 01	 mov	 rax, QWORD PTR [rcx]
  0001d	ff 50 08	 call	 QWORD PTR [rax+8]
  00020	90		 npad	 1

; 306  : 		}

  00021	48 8b c3	 mov	 rax, rbx
  00024	48 83 c4 30	 add	 rsp, 48			; 00000030H
  00028	5b		 pop	 rbx
  00029	c3		 ret	 0
??0locale@std@@QEAA@AEBV01@@Z ENDP			; std::locale::locale
_TEXT	ENDS
; Function compile flags: /Ogtpy
; File c:\users\alist_000\cppmisc\packages\visualcpptools.14.0.24629\lib\native\include\xlocale
;	COMDAT ??1locale@std@@QEAA@XZ
_TEXT	SEGMENT
$T1 = 32
this$ = 64
??1locale@std@@QEAA@XZ PROC				; std::locale::~locale, COMDAT

; 409  : 		{	// destroy the object

$LN6:
  00000	48 83 ec 38	 sub	 rsp, 56			; 00000038H
  00004	48 c7 44 24 20
	fe ff ff ff	 mov	 QWORD PTR $T1[rsp], -2

; 410  : 		if (_Ptr != 0)

  0000d	48 8b 49 08	 mov	 rcx, QWORD PTR [rcx+8]
  00011	48 85 c9	 test	 rcx, rcx
  00014	74 1e		 je	 SHORT $LN4@locale

; 411  : 			delete _Ptr->_Decref();

  00016	48 8b 01	 mov	 rax, QWORD PTR [rcx]
  00019	ff 50 10	 call	 QWORD PTR [rax+16]
  0001c	90		 npad	 1
  0001d	48 85 c0	 test	 rax, rax
  00020	74 12		 je	 SHORT $LN4@locale
  00022	4c 8b 00	 mov	 r8, QWORD PTR [rax]
  00025	ba 01 00 00 00	 mov	 edx, 1
  0002a	48 8b c8	 mov	 rcx, rax

; 412  : 		}

  0002d	48 83 c4 38	 add	 rsp, 56			; 00000038H

; 411  : 			delete _Ptr->_Decref();

  00031	49 ff 20	 rex_jmp QWORD PTR [r8]
$LN4@locale:

; 412  : 		}

  00034	48 83 c4 38	 add	 rsp, 56			; 00000038H
  00038	c3		 ret	 0
??1locale@std@@QEAA@XZ ENDP				; std::locale::~locale
_TEXT	ENDS
; Function compile flags: /Ogtpy
; File c:\users\alist_000\cppmisc\packages\visualcpptools.14.0.24629\lib\native\include\xlocale
; File c:\users\alist_000\cppmisc\packages\visualcpptools.14.0.24629\lib\native\include\xutility
; File c:\users\alist_000\cppmisc\packages\visualcpptools.14.0.24629\lib\native\include\xlocale
; File c:\users\alist_000\cppmisc\packages\visualcpptools.14.0.24629\lib\native\include\xutility
; File c:\users\alist_000\cppmisc\packages\visualcpptools.14.0.24629\lib\native\include\xlocale
;	COMDAT ?c_str@locale@std@@QEBAPEBDXZ
_TEXT	SEGMENT
this$ = 8
?c_str@locale@std@@QEBAPEBDXZ PROC			; std::locale::c_str, COMDAT

; 432  : 		return (_Ptr == 0 ? "" : _Ptr->_Name.c_str());

  00000	48 8b 41 08	 mov	 rax, QWORD PTR [rcx+8]
  00004	48 85 c0	 test	 rax, rax
  00007	75 08		 jne	 SHORT $LN3@c_str
  00009	48 8d 05 00 00
	00 00		 lea	 rax, OFFSET FLAT:??_C@_00CNPNBAHC@?$AA@

; 433  : 		}

  00010	c3		 ret	 0
$LN3@c_str:
; File c:\users\alist_000\cppmisc\packages\visualcpptools.14.0.24629\lib\native\include\xutility

; 3701 : 		return (_Myptr != 0 ? _Myptr : &_Nul);

  00011	48 8b 48 28	 mov	 rcx, QWORD PTR [rax+40]
  00015	48 85 c9	 test	 rcx, rcx
  00018	74 04		 je	 SHORT $LN7@c_str
; File c:\users\alist_000\cppmisc\packages\visualcpptools.14.0.24629\lib\native\include\xlocale

; 432  : 		return (_Ptr == 0 ? "" : _Ptr->_Name.c_str());

  0001a	48 8b c1	 mov	 rax, rcx

; 433  : 		}

  0001d	c3		 ret	 0
$LN7@c_str:
; File c:\users\alist_000\cppmisc\packages\visualcpptools.14.0.24629\lib\native\include\xutility

; 3701 : 		return (_Myptr != 0 ? _Myptr : &_Nul);

  0001e	48 83 c0 30	 add	 rax, 48			; 00000030H
; File c:\users\alist_000\cppmisc\packages\visualcpptools.14.0.24629\lib\native\include\xlocale

; 433  : 		}

  00022	c3		 ret	 0
?c_str@locale@std@@QEBAPEBDXZ ENDP			; std::locale::c_str
_TEXT	ENDS
; Function compile flags: /Ogtpy
; File c:\users\alist_000\cppmisc\packages\visualcpptools.14.0.24629\lib\native\include\xlocale
;	COMDAT ?_Getfacet@locale@std@@QEBAPEBVfacet@12@_K@Z
_TEXT	SEGMENT
this$ = 48
_Id$ = 56
?_Getfacet@locale@std@@QEBAPEBVfacet@12@_K@Z PROC	; std::locale::_Getfacet, COMDAT

; 436  : 		{	// look up a facet in locale object

$LN12:
  00000	48 89 5c 24 08	 mov	 QWORD PTR [rsp+8], rbx
  00005	57		 push	 rdi
  00006	48 83 ec 20	 sub	 rsp, 32			; 00000020H
  0000a	48 8b da	 mov	 rbx, rdx

; 437  : 		const facet *_Facptr = _Id < _Ptr->_Facetcount

  0000d	33 ff		 xor	 edi, edi
  0000f	48 8b 51 08	 mov	 rdx, QWORD PTR [rcx+8]
  00013	48 3b 5a 18	 cmp	 rbx, QWORD PTR [rdx+24]
  00017	73 0f		 jae	 SHORT $LN6@Getfacet
  00019	48 8b 42 10	 mov	 rax, QWORD PTR [rdx+16]
  0001d	48 8b 04 d8	 mov	 rax, QWORD PTR [rax+rbx*8]

; 438  : 			? _Ptr->_Facetvec[_Id] : 0;	// null if id off end
; 439  : 		if (_Facptr != 0 || !_Ptr->_Xparent)

  00021	48 85 c0	 test	 rax, rax
  00024	75 21		 jne	 SHORT $LN4@Getfacet
  00026	eb 03		 jmp	 SHORT $LN10@Getfacet
$LN6@Getfacet:

; 437  : 		const facet *_Facptr = _Id < _Ptr->_Facetcount

  00028	48 8b c7	 mov	 rax, rdi
$LN10@Getfacet:

; 438  : 			? _Ptr->_Facetvec[_Id] : 0;	// null if id off end
; 439  : 		if (_Facptr != 0 || !_Ptr->_Xparent)

  0002b	40 38 7a 24	 cmp	 BYTE PTR [rdx+36], dil
  0002f	74 16		 je	 SHORT $LN4@Getfacet

; 440  : 			return (_Facptr);	// found facet or not transparent
; 441  : 		else
; 442  : 			{	// look in current locale
; 443  : 			locale::_Locimp *_Ptr0 = _Getgloballocale();

  00031	e8 00 00 00 00	 call	 ?_Getgloballocale@locale@std@@CAPEAV_Locimp@12@XZ ; std::locale::_Getgloballocale

; 444  : 			return (_Id < _Ptr0->_Facetcount

  00036	48 3b 58 18	 cmp	 rbx, QWORD PTR [rax+24]
  0003a	73 08		 jae	 SHORT $LN8@Getfacet
  0003c	48 8b 40 10	 mov	 rax, QWORD PTR [rax+16]
  00040	48 8b 3c d8	 mov	 rdi, QWORD PTR [rax+rbx*8]
$LN8@Getfacet:
  00044	48 8b c7	 mov	 rax, rdi
$LN4@Getfacet:

; 445  : 				? _Ptr0->_Facetvec[_Id]	// get from current locale
; 446  : 				: 0);	// no entry in current locale
; 447  : 			}
; 448  : 		}

  00047	48 8b 5c 24 30	 mov	 rbx, QWORD PTR [rsp+48]
  0004c	48 83 c4 20	 add	 rsp, 32			; 00000020H
  00050	5f		 pop	 rdi
  00051	c3		 ret	 0
?_Getfacet@locale@std@@QEBAPEBVfacet@12@_K@Z ENDP	; std::locale::_Getfacet
_TEXT	ENDS
; Function compile flags: /Ogtpy
; File c:\users\alist_000\cppmisc\packages\visualcpptools.14.0.24629\lib\native\include\xfacet
;	COMDAT ??_Gfacet@locale@std@@MEAAPEAXI@Z
_TEXT	SEGMENT
this$ = 48
__flags$ = 56
??_Gfacet@locale@std@@MEAAPEAXI@Z PROC			; std::locale::facet::`scalar deleting destructor', COMDAT
$LN12:
  00000	40 53		 push	 rbx
  00002	48 83 ec 20	 sub	 rsp, 32			; 00000020H

; 24   : 		{	// ensure that derived classes can be destroyed properly

  00006	48 8d 05 00 00
	00 00		 lea	 rax, OFFSET FLAT:??_7_Facet_base@std@@6B@
  0000d	48 8b d9	 mov	 rbx, rcx
  00010	48 89 01	 mov	 QWORD PTR [rcx], rax
  00013	f6 c2 01	 test	 dl, 1
  00016	74 0a		 je	 SHORT $LN10@scalar
  00018	ba 10 00 00 00	 mov	 edx, 16
  0001d	e8 00 00 00 00	 call	 ??3@YAXPEAX_K@Z		; operator delete
$LN10@scalar:
  00022	48 8b c3	 mov	 rax, rbx
  00025	48 83 c4 20	 add	 rsp, 32			; 00000020H
  00029	5b		 pop	 rbx
  0002a	c3		 ret	 0
??_Gfacet@locale@std@@MEAAPEAXI@Z ENDP			; std::locale::facet::`scalar deleting destructor'
_TEXT	ENDS
; Function compile flags: /Ogtpy
;	COMDAT ??0_Facet_base@std@@QEAA@XZ
_TEXT	SEGMENT
this$ = 8
??0_Facet_base@std@@QEAA@XZ PROC			; std::_Facet_base::_Facet_base, COMDAT
  00000	48 8d 05 00 00
	00 00		 lea	 rax, OFFSET FLAT:??_7_Facet_base@std@@6B@
  00007	48 89 01	 mov	 QWORD PTR [rcx], rax
  0000a	48 8b c1	 mov	 rax, rcx
  0000d	c3		 ret	 0
??0_Facet_base@std@@QEAA@XZ ENDP			; std::_Facet_base::_Facet_base
_TEXT	ENDS
; Function compile flags: /Ogtpy
; File c:\users\alist_000\cppmisc\packages\visualcpptools.14.0.24629\lib\native\include\xlocale
;	COMDAT ??0ctype_base@std@@QEAA@_K@Z
_TEXT	SEGMENT
this$ = 8
_Refs$ = 16
??0ctype_base@std@@QEAA@_K@Z PROC			; std::ctype_base::ctype_base, COMDAT

; 2055 : 		{	// default constructor

  00000	48 8d 05 00 00
	00 00		 lea	 rax, OFFSET FLAT:??_7ctype_base@std@@6B@

; 166  : 			: _Myrefs(static_cast<_Atomic_integral_t>(_Initrefs))	// non-atomic initialization

  00007	89 51 08	 mov	 DWORD PTR [rcx+8], edx

; 2055 : 		{	// default constructor

  0000a	48 89 01	 mov	 QWORD PTR [rcx], rax

; 2056 : 		}

  0000d	48 8b c1	 mov	 rax, rcx
  00010	c3		 ret	 0
??0ctype_base@std@@QEAA@_K@Z ENDP			; std::ctype_base::ctype_base
_TEXT	ENDS
; Function compile flags: /Ogtpy
; File c:\users\alist_000\cppmisc\packages\visualcpptools.14.0.24629\lib\native\include\xlocale
; File c:\users\alist_000\cppmisc\packages\visualcpptools.14.0.24629\lib\native\include\xfacet
; File c:\users\alist_000\cppmisc\packages\visualcpptools.14.0.24629\lib\native\include\xlocale
;	COMDAT ??1ctype_base@std@@UEAA@XZ
_TEXT	SEGMENT
this$ = 8
??1ctype_base@std@@UEAA@XZ PROC				; std::ctype_base::~ctype_base, COMDAT
; File c:\users\alist_000\cppmisc\packages\visualcpptools.14.0.24629\lib\native\include\xfacet

; 24   : 		{	// ensure that derived classes can be destroyed properly

  00000	48 8d 05 00 00
	00 00		 lea	 rax, OFFSET FLAT:??_7_Facet_base@std@@6B@
  00007	48 89 01	 mov	 QWORD PTR [rcx], rax
; File c:\users\alist_000\cppmisc\packages\visualcpptools.14.0.24629\lib\native\include\xlocale

; 2060 : 		}

  0000a	c3		 ret	 0
??1ctype_base@std@@UEAA@XZ ENDP				; std::ctype_base::~ctype_base
_TEXT	ENDS
; Function compile flags: /Ogtpy
; File c:\users\alist_000\cppmisc\packages\visualcpptools.14.0.24629\lib\native\include\xfacet
;	COMDAT ??_Gctype_base@std@@UEAAPEAXI@Z
_TEXT	SEGMENT
this$ = 48
__flags$ = 56
??_Gctype_base@std@@UEAAPEAXI@Z PROC			; std::ctype_base::`scalar deleting destructor', COMDAT
$LN15:
  00000	40 53		 push	 rbx
  00002	48 83 ec 20	 sub	 rsp, 32			; 00000020H

; 24   : 		{	// ensure that derived classes can be destroyed properly

  00006	48 8d 05 00 00
	00 00		 lea	 rax, OFFSET FLAT:??_7_Facet_base@std@@6B@
  0000d	48 8b d9	 mov	 rbx, rcx
  00010	48 89 01	 mov	 QWORD PTR [rcx], rax
  00013	f6 c2 01	 test	 dl, 1
  00016	74 0a		 je	 SHORT $LN13@scalar
  00018	ba 10 00 00 00	 mov	 edx, 16
  0001d	e8 00 00 00 00	 call	 ??3@YAXPEAX_K@Z		; operator delete
$LN13@scalar:
  00022	48 8b c3	 mov	 rax, rbx
  00025	48 83 c4 20	 add	 rsp, 32			; 00000020H
  00029	5b		 pop	 rbx
  0002a	c3		 ret	 0
??_Gctype_base@std@@UEAAPEAXI@Z ENDP			; std::ctype_base::`scalar deleting destructor'
_TEXT	ENDS
; Function compile flags: /Ogtpy
; File c:\users\alist_000\cppmisc\packages\visualcpptools.14.0.24629\lib\native\include\xlocale
;	COMDAT ?widen@?$ctype@D@std@@QEBADD@Z
_TEXT	SEGMENT
this$ = 48
_Byte$ = 56
?widen@?$ctype@D@std@@QEBADD@Z PROC			; std::ctype<char>::widen, COMDAT

; 2367 : 		{	// widen char

$LN8:
  00000	48 83 ec 28	 sub	 rsp, 40			; 00000028H
  00004	48 8b 01	 mov	 rax, QWORD PTR [rcx]
  00007	4c 8d 05 00 00
	00 00		 lea	 r8, OFFSET FLAT:??_7?$ctype@D@std@@6B@
  0000e	49 3b c0	 cmp	 rax, r8
  00011	75 0d		 jne	 SHORT $LN7@widen

; 2368 : 		return (do_widen(_Byte));

  00013	0f b6 c2	 movzx	 eax, dl

; 2369 : 		}

  00016	48 83 c4 28	 add	 rsp, 40			; 00000028H
  0001a	c3		 ret	 0
$LN3@widen:
  0001b	48 83 c4 28	 add	 rsp, 40			; 00000028H
  0001f	c3		 ret	 0
$LN7@widen:

; 2368 : 		return (do_widen(_Byte));

  00020	ff 50 40	 call	 QWORD PTR [rax+64]
  00023	eb f6		 jmp	 SHORT $LN3@widen
?widen@?$ctype@D@std@@QEBADD@Z ENDP			; std::ctype<char>::widen
_TEXT	ENDS
; Function compile flags: /Ogtpy
; File c:\users\alist_000\cppmisc\packages\visualcpptools.14.0.24629\lib\native\include\xlocale
; File c:\users\alist_000\cppmisc\packages\visualcpptools.14.0.24629\lib\native\include\xlocinfo
; File c:\users\alist_000\cppmisc\packages\visualcpptools.14.0.24629\lib\native\include\xlocale
;	COMDAT ??0?$ctype@D@std@@QEAA@AEBV_Locinfo@1@_K@Z
_TEXT	SEGMENT
$T1 = 32
this$ = 80
_Lobj$ = 88
_Refs$ = 96
??0?$ctype@D@std@@QEAA@AEBV_Locinfo@1@_K@Z PROC		; std::ctype<char>::ctype<char>, COMDAT

; 2414 : 		{	// construct from current locale

$LN15:
  00000	40 53		 push	 rbx
  00002	48 83 ec 40	 sub	 rsp, 64			; 00000040H
  00006	48 8d 05 00 00
	00 00		 lea	 rax, OFFSET FLAT:??_7?$ctype@D@std@@6B@

; 166  : 			: _Myrefs(static_cast<_Atomic_integral_t>(_Initrefs))	// non-atomic initialization

  0000d	44 89 41 08	 mov	 DWORD PTR [rcx+8], r8d

; 2414 : 		{	// construct from current locale

  00011	48 89 01	 mov	 QWORD PTR [rcx], rax
  00014	48 8b d9	 mov	 rbx, rcx
; File c:\users\alist_000\cppmisc\packages\visualcpptools.14.0.24629\lib\native\include\xlocinfo

; 117  : 		return (::_Getctype());

  00017	48 8d 4c 24 20	 lea	 rcx, QWORD PTR $T1[rsp]
  0001c	e8 00 00 00 00	 call	 _Getctype
; File c:\users\alist_000\cppmisc\packages\visualcpptools.14.0.24629\lib\native\include\xlocale

; 2449 : 		_Ctype = _Lobj._Getctype();

  00021	0f 10 00	 movups	 xmm0, XMMWORD PTR [rax]
  00024	0f 11 43 10	 movups	 XMMWORD PTR [rbx+16], xmm0
  00028	0f 10 48 10	 movups	 xmm1, XMMWORD PTR [rax+16]

; 2415 : 		_Init(_Lobj);
; 2416 : 		}

  0002c	48 8b c3	 mov	 rax, rbx

; 2449 : 		_Ctype = _Lobj._Getctype();

  0002f	0f 11 4b 20	 movups	 XMMWORD PTR [rbx+32], xmm1

; 2415 : 		_Init(_Lobj);
; 2416 : 		}

  00033	48 83 c4 40	 add	 rsp, 64			; 00000040H
  00037	5b		 pop	 rbx
  00038	c3		 ret	 0
??0?$ctype@D@std@@QEAA@AEBV_Locinfo@1@_K@Z ENDP		; std::ctype<char>::ctype<char>
_TEXT	ENDS
; Function compile flags: /Ogtpy
; File c:\users\alist_000\cppmisc\packages\visualcpptools.14.0.24629\lib\native\include\xlocale
; File c:\users\alist_000\cppmisc\packages\visualcpptools.14.0.24629\lib\native\include\xutility
; File c:\users\alist_000\cppmisc\packages\visualcpptools.14.0.24629\lib\native\include\xlocinfo
; File c:\users\alist_000\cppmisc\packages\visualcpptools.14.0.24629\lib\native\include\xutility
; File c:\users\alist_000\cppmisc\packages\visualcpptools.14.0.24629\lib\native\include\xlocinfo
; File c:\users\alist_000\cppmisc\packages\visualcpptools.14.0.24629\lib\native\include\xlocale
; File c:\users\alist_000\cppmisc\packages\visualcpptools.14.0.24629\lib\native\include\xlocinfo
; File c:\users\alist_000\cppmisc\packages\visualcpptools.14.0.24629\lib\native\include\xlocale
;	COMDAT ?_Getcat@?$ctype@D@std@@SA_KPEAPEBVfacet@locale@2@PEBV42@@Z
_TEXT	SEGMENT
$T1 = 32
$T2 = 144
$T3 = 144
$T4 = 192
$T5 = 192
_Ppf$ = 192
_Ploc$ = 200
?_Getcat@?$ctype@D@std@@SA_KPEAPEBVfacet@locale@2@PEBV42@@Z PROC ; std::ctype<char>::_Getcat, COMDAT

; 2420 : 		{	// return locale category mask and construct standard facet

$LN55:
  00000	48 8b c4	 mov	 rax, rsp
  00003	57		 push	 rdi
  00004	48 81 ec b0 00
	00 00		 sub	 rsp, 176		; 000000b0H
  0000b	48 c7 40 d0 fe
	ff ff ff	 mov	 QWORD PTR [rax-48], -2
  00013	48 89 58 10	 mov	 QWORD PTR [rax+16], rbx
  00017	48 89 68 18	 mov	 QWORD PTR [rax+24], rbp
  0001b	48 89 70 20	 mov	 QWORD PTR [rax+32], rsi
  0001f	48 8b da	 mov	 rbx, rdx
  00022	48 8b f9	 mov	 rdi, rcx
  00025	33 ed		 xor	 ebp, ebp
  00027	89 ac 24 c0 00
	00 00		 mov	 DWORD PTR $T4[rsp], ebp

; 2421 : 		if (_Ppf != 0 && *_Ppf == 0)

  0002e	48 85 c9	 test	 rcx, rcx
  00031	0f 84 f9 00 00
	00		 je	 $LN9@Getcat
  00037	48 39 29	 cmp	 QWORD PTR [rcx], rbp
  0003a	0f 85 f0 00 00
	00		 jne	 $LN9@Getcat

; 2422 : 			*_Ppf = new ctype<_Elem>(

  00040	8d 4d 30	 lea	 ecx, QWORD PTR [rbp+48]
  00043	e8 00 00 00 00	 call	 ??2@YAPEAX_K@Z		; operator new
  00048	48 8b f0	 mov	 rsi, rax
  0004b	48 89 84 24 c0
	00 00 00	 mov	 QWORD PTR $T5[rsp], rax

; 432  : 		return (_Ptr == 0 ? "" : _Ptr->_Name.c_str());

  00053	48 8b 4b 08	 mov	 rcx, QWORD PTR [rbx+8]
  00057	48 85 c9	 test	 rcx, rcx
  0005a	75 09		 jne	 SHORT $LN12@Getcat
  0005c	48 8d 1d 00 00
	00 00		 lea	 rbx, OFFSET FLAT:??_C@_00CNPNBAHC@?$AA@
  00063	eb 0d		 jmp	 SHORT $LN17@Getcat
$LN12@Getcat:
; File c:\users\alist_000\cppmisc\packages\visualcpptools.14.0.24629\lib\native\include\xutility

; 3701 : 		return (_Myptr != 0 ? _Myptr : &_Nul);

  00065	48 8b 59 28	 mov	 rbx, QWORD PTR [rcx+40]
  00069	48 85 db	 test	 rbx, rbx
  0006c	75 04		 jne	 SHORT $LN17@Getcat
  0006e	48 8d 59 30	 lea	 rbx, QWORD PTR [rcx+48]
$LN17@Getcat:
; File c:\users\alist_000\cppmisc\packages\visualcpptools.14.0.24629\lib\native\include\xlocinfo

; 73   : 		: _Lock(_LOCK_LOCALE)

  00072	33 d2		 xor	 edx, edx
  00074	48 8d 4c 24 20	 lea	 rcx, QWORD PTR $T1[rsp]
  00079	e8 00 00 00 00	 call	 ??0_Lockit@std@@QEAA@H@Z ; std::_Lockit::_Lockit
  0007e	90		 npad	 1
; File c:\users\alist_000\cppmisc\packages\visualcpptools.14.0.24629\lib\native\include\xutility

; 3639 : 		: _Myptr(0), _Nul(0)

  0007f	48 89 6c 24 28	 mov	 QWORD PTR $T1[rsp+8], rbp
  00084	c6 44 24 30 00	 mov	 BYTE PTR $T1[rsp+16], 0
  00089	48 89 6c 24 38	 mov	 QWORD PTR $T1[rsp+24], rbp
  0008e	c6 44 24 40 00	 mov	 BYTE PTR $T1[rsp+32], 0
  00093	48 89 6c 24 48	 mov	 QWORD PTR $T1[rsp+40], rbp
  00098	66 89 6c 24 50	 mov	 WORD PTR $T1[rsp+48], bp
  0009d	48 89 6c 24 58	 mov	 QWORD PTR $T1[rsp+56], rbp
  000a2	66 89 6c 24 60	 mov	 WORD PTR $T1[rsp+64], bp
  000a7	48 89 6c 24 68	 mov	 QWORD PTR $T1[rsp+72], rbp
  000ac	c6 44 24 70 00	 mov	 BYTE PTR $T1[rsp+80], 0
  000b1	48 89 6c 24 78	 mov	 QWORD PTR $T1[rsp+88], rbp
  000b6	c6 84 24 80 00
	00 00 00	 mov	 BYTE PTR $T1[rsp+96], 0
; File c:\users\alist_000\cppmisc\packages\visualcpptools.14.0.24629\lib\native\include\xlocinfo

; 77   : 		if (_Pch == 0)

  000be	48 85 db	 test	 rbx, rbx
  000c1	75 29		 jne	 SHORT $LN19@Getcat

; 78   : 			_THROW_NCEE(runtime_error, "bad locale name");

  000c3	48 8d 15 00 00
	00 00		 lea	 rdx, OFFSET FLAT:??_C@_0BA@ELKIONDK@bad?5locale?5name?$AA@
  000ca	48 8d 8c 24 90
	00 00 00	 lea	 rcx, QWORD PTR $T3[rsp]
  000d2	e8 00 00 00 00	 call	 ??0runtime_error@std@@QEAA@PEBD@Z ; std::runtime_error::runtime_error
  000d7	48 8d 15 00 00
	00 00		 lea	 rdx, OFFSET FLAT:_TI2?AVruntime_error@std@@
  000de	48 8d 8c 24 90
	00 00 00	 lea	 rcx, QWORD PTR $T3[rsp]
  000e6	e8 00 00 00 00	 call	 _CxxThrowException
  000eb	cc		 int	 3
$LN19@Getcat:

; 79   : 		_Locinfo_ctor(this, _Pch);

  000ec	48 8b d3	 mov	 rdx, rbx
  000ef	48 8d 4c 24 20	 lea	 rcx, QWORD PTR $T1[rsp]
  000f4	e8 00 00 00 00	 call	 ?_Locinfo_ctor@_Locinfo@std@@SAXPEAV12@PEBD@Z ; std::_Locinfo::_Locinfo_ctor
  000f9	90		 npad	 1
; File c:\users\alist_000\cppmisc\packages\visualcpptools.14.0.24629\lib\native\include\xlocale

; 166  : 			: _Myrefs(static_cast<_Atomic_integral_t>(_Initrefs))	// non-atomic initialization

  000fa	89 6e 08	 mov	 DWORD PTR [rsi+8], ebp

; 2414 : 		{	// construct from current locale

  000fd	48 8d 05 00 00
	00 00		 lea	 rax, OFFSET FLAT:??_7?$ctype@D@std@@6B@
  00104	48 89 06	 mov	 QWORD PTR [rsi], rax
; File c:\users\alist_000\cppmisc\packages\visualcpptools.14.0.24629\lib\native\include\xlocinfo

; 117  : 		return (::_Getctype());

  00107	48 8d 8c 24 90
	00 00 00	 lea	 rcx, QWORD PTR $T2[rsp]
  0010f	e8 00 00 00 00	 call	 _Getctype
; File c:\users\alist_000\cppmisc\packages\visualcpptools.14.0.24629\lib\native\include\xlocale

; 2449 : 		_Ctype = _Lobj._Getctype();

  00114	0f 10 00	 movups	 xmm0, XMMWORD PTR [rax]
  00117	0f 11 46 10	 movups	 XMMWORD PTR [rsi+16], xmm0
  0011b	0f 10 48 10	 movups	 xmm1, XMMWORD PTR [rax+16]
  0011f	0f 11 4e 20	 movups	 XMMWORD PTR [rsi+32], xmm1

; 2422 : 			*_Ppf = new ctype<_Elem>(

  00123	48 89 37	 mov	 QWORD PTR [rdi], rsi
  00126	48 8d 4c 24 20	 lea	 rcx, QWORD PTR $T1[rsp]
  0012b	e8 00 00 00 00	 call	 ??1_Locinfo@std@@QEAA@XZ ; std::_Locinfo::~_Locinfo
$LN9@Getcat:

; 2423 : 				_Locinfo(_Ploc->c_str()));
; 2424 : 		return (_X_CTYPE);

  00130	b8 02 00 00 00	 mov	 eax, 2

; 2425 : 		}

  00135	4c 8d 9c 24 b0
	00 00 00	 lea	 r11, QWORD PTR [rsp+176]
  0013d	49 8b 5b 18	 mov	 rbx, QWORD PTR [r11+24]
  00141	49 8b 6b 20	 mov	 rbp, QWORD PTR [r11+32]
  00145	49 8b 73 28	 mov	 rsi, QWORD PTR [r11+40]
  00149	49 8b e3	 mov	 rsp, r11
  0014c	5f		 pop	 rdi
  0014d	c3		 ret	 0
$LN54@Getcat:
?_Getcat@?$ctype@D@std@@SA_KPEAPEBVfacet@locale@2@PEBV42@@Z ENDP ; std::ctype<char>::_Getcat
_TEXT	ENDS
;	COMDAT text$x
text$x	SEGMENT
$T1 = 32
$T2 = 144
$T3 = 144
$T4 = 192
$T5 = 192
_Ppf$ = 192
_Ploc$ = 200
?dtor$0@?0??_Getcat@?$ctype@D@std@@SA_KPEAPEBVfacet@locale@2@PEBV42@@Z@4HA PROC ; `std::ctype<char>::_Getcat'::`1'::dtor$0
  00000	40 55		 push	 rbp
  00002	48 83 ec 20	 sub	 rsp, 32			; 00000020H
  00006	48 8b ea	 mov	 rbp, rdx
  00009	ba 30 00 00 00	 mov	 edx, 48			; 00000030H
  0000e	48 8b 8d c0 00
	00 00		 mov	 rcx, QWORD PTR $T5[rbp]
  00015	e8 00 00 00 00	 call	 ??3@YAXPEAX_K@Z		; operator delete
  0001a	48 83 c4 20	 add	 rsp, 32			; 00000020H
  0001e	5d		 pop	 rbp
  0001f	c3		 ret	 0
?dtor$0@?0??_Getcat@?$ctype@D@std@@SA_KPEAPEBVfacet@locale@2@PEBV42@@Z@4HA ENDP ; `std::ctype<char>::_Getcat'::`1'::dtor$0
$T1 = 32
$T2 = 144
$T3 = 144
$T4 = 192
$T5 = 192
_Ppf$ = 192
_Ploc$ = 200
?dtor$2@?0??_Getcat@?$ctype@D@std@@SA_KPEAPEBVfacet@locale@2@PEBV42@@Z@4HA PROC ; `std::ctype<char>::_Getcat'::`1'::dtor$2
  00020	48 8d 8a 20 00
	00 00		 lea	 rcx, QWORD PTR $T1[rdx]
  00027	e9 00 00 00 00	 jmp	 ??1_Lockit@std@@QEAA@XZ	; std::_Lockit::~_Lockit
?dtor$2@?0??_Getcat@?$ctype@D@std@@SA_KPEAPEBVfacet@locale@2@PEBV42@@Z@4HA ENDP ; `std::ctype<char>::_Getcat'::`1'::dtor$2
$T1 = 32
$T2 = 144
$T3 = 144
$T4 = 192
$T5 = 192
_Ppf$ = 192
_Ploc$ = 200
?dtor$3@?0??_Getcat@?$ctype@D@std@@SA_KPEAPEBVfacet@locale@2@PEBV42@@Z@4HA PROC ; `std::ctype<char>::_Getcat'::`1'::dtor$3
  0002c	48 8d 8a 20 00
	00 00		 lea	 rcx, QWORD PTR $T1[rdx]
  00033	48 83 c1 08	 add	 rcx, 8
  00037	e9 00 00 00 00	 jmp	 ??1?$_Yarn@D@std@@QEAA@XZ ; std::_Yarn<char>::~_Yarn<char>
?dtor$3@?0??_Getcat@?$ctype@D@std@@SA_KPEAPEBVfacet@locale@2@PEBV42@@Z@4HA ENDP ; `std::ctype<char>::_Getcat'::`1'::dtor$3
$T1 = 32
$T2 = 144
$T3 = 144
$T4 = 192
$T5 = 192
_Ppf$ = 192
_Ploc$ = 200
?dtor$4@?0??_Getcat@?$ctype@D@std@@SA_KPEAPEBVfacet@locale@2@PEBV42@@Z@4HA PROC ; `std::ctype<char>::_Getcat'::`1'::dtor$4
  0003c	48 8d 8a 20 00
	00 00		 lea	 rcx, QWORD PTR $T1[rdx]
  00043	48 83 c1 18	 add	 rcx, 24
  00047	e9 00 00 00 00	 jmp	 ??1?$_Yarn@D@std@@QEAA@XZ ; std::_Yarn<char>::~_Yarn<char>
?dtor$4@?0??_Getcat@?$ctype@D@std@@SA_KPEAPEBVfacet@locale@2@PEBV42@@Z@4HA ENDP ; `std::ctype<char>::_Getcat'::`1'::dtor$4
$T1 = 32
$T2 = 144
$T3 = 144
$T4 = 192
$T5 = 192
_Ppf$ = 192
_Ploc$ = 200
?dtor$5@?0??_Getcat@?$ctype@D@std@@SA_KPEAPEBVfacet@locale@2@PEBV42@@Z@4HA PROC ; `std::ctype<char>::_Getcat'::`1'::dtor$5
  0004c	48 8d 8a 20 00
	00 00		 lea	 rcx, QWORD PTR $T1[rdx]
  00053	48 83 c1 28	 add	 rcx, 40			; 00000028H
  00057	e9 00 00 00 00	 jmp	 ??1?$_Yarn@_W@std@@QEAA@XZ ; std::_Yarn<wchar_t>::~_Yarn<wchar_t>
?dtor$5@?0??_Getcat@?$ctype@D@std@@SA_KPEAPEBVfacet@locale@2@PEBV42@@Z@4HA ENDP ; `std::ctype<char>::_Getcat'::`1'::dtor$5
$T1 = 32
$T2 = 144
$T3 = 144
$T4 = 192
$T5 = 192
_Ppf$ = 192
_Ploc$ = 200
?dtor$6@?0??_Getcat@?$ctype@D@std@@SA_KPEAPEBVfacet@locale@2@PEBV42@@Z@4HA PROC ; `std::ctype<char>::_Getcat'::`1'::dtor$6
  0005c	48 8d 8a 20 00
	00 00		 lea	 rcx, QWORD PTR $T1[rdx]
  00063	48 83 c1 38	 add	 rcx, 56			; 00000038H
  00067	e9 00 00 00 00	 jmp	 ??1?$_Yarn@_W@std@@QEAA@XZ ; std::_Yarn<wchar_t>::~_Yarn<wchar_t>
?dtor$6@?0??_Getcat@?$ctype@D@std@@SA_KPEAPEBVfacet@locale@2@PEBV42@@Z@4HA ENDP ; `std::ctype<char>::_Getcat'::`1'::dtor$6
$T1 = 32
$T2 = 144
$T3 = 144
$T4 = 192
$T5 = 192
_Ppf$ = 192
_Ploc$ = 200
?dtor$7@?0??_Getcat@?$ctype@D@std@@SA_KPEAPEBVfacet@locale@2@PEBV42@@Z@4HA PROC ; `std::ctype<char>::_Getcat'::`1'::dtor$7
  0006c	48 8d 8a 20 00
	00 00		 lea	 rcx, QWORD PTR $T1[rdx]
  00073	48 83 c1 48	 add	 rcx, 72			; 00000048H
  00077	e9 00 00 00 00	 jmp	 ??1?$_Yarn@D@std@@QEAA@XZ ; std::_Yarn<char>::~_Yarn<char>
?dtor$7@?0??_Getcat@?$ctype@D@std@@SA_KPEAPEBVfacet@locale@2@PEBV42@@Z@4HA ENDP ; `std::ctype<char>::_Getcat'::`1'::dtor$7
$T1 = 32
$T2 = 144
$T3 = 144
$T4 = 192
$T5 = 192
_Ppf$ = 192
_Ploc$ = 200
?dtor$8@?0??_Getcat@?$ctype@D@std@@SA_KPEAPEBVfacet@locale@2@PEBV42@@Z@4HA PROC ; `std::ctype<char>::_Getcat'::`1'::dtor$8
  0007c	48 8d 8a 20 00
	00 00		 lea	 rcx, QWORD PTR $T1[rdx]
  00083	48 83 c1 58	 add	 rcx, 88			; 00000058H
  00087	e9 00 00 00 00	 jmp	 ??1?$_Yarn@D@std@@QEAA@XZ ; std::_Yarn<char>::~_Yarn<char>
?dtor$8@?0??_Getcat@?$ctype@D@std@@SA_KPEAPEBVfacet@locale@2@PEBV42@@Z@4HA ENDP ; `std::ctype<char>::_Getcat'::`1'::dtor$8
text$x	ENDS
; Function compile flags: /Ogtpy
;	COMDAT text$x
text$x	SEGMENT
$T1 = 32
$T2 = 144
$T3 = 144
$T4 = 192
$T5 = 192
_Ppf$ = 192
_Ploc$ = 200
?dtor$0@?0??_Getcat@?$ctype@D@std@@SA_KPEAPEBVfacet@locale@2@PEBV42@@Z@4HA PROC ; `std::ctype<char>::_Getcat'::`1'::dtor$0
  00000	40 55		 push	 rbp
  00002	48 83 ec 20	 sub	 rsp, 32			; 00000020H
  00006	48 8b ea	 mov	 rbp, rdx
  00009	ba 30 00 00 00	 mov	 edx, 48			; 00000030H
  0000e	48 8b 8d c0 00
	00 00		 mov	 rcx, QWORD PTR $T5[rbp]
  00015	e8 00 00 00 00	 call	 ??3@YAXPEAX_K@Z		; operator delete
  0001a	48 83 c4 20	 add	 rsp, 32			; 00000020H
  0001e	5d		 pop	 rbp
  0001f	c3		 ret	 0
?dtor$0@?0??_Getcat@?$ctype@D@std@@SA_KPEAPEBVfacet@locale@2@PEBV42@@Z@4HA ENDP ; `std::ctype<char>::_Getcat'::`1'::dtor$0
text$x	ENDS
; Function compile flags: /Ogtpy
;	COMDAT text$x
text$x	SEGMENT
$T1 = 32
$T2 = 144
$T3 = 144
$T4 = 192
$T5 = 192
_Ppf$ = 192
_Ploc$ = 200
?dtor$2@?0??_Getcat@?$ctype@D@std@@SA_KPEAPEBVfacet@locale@2@PEBV42@@Z@4HA PROC ; `std::ctype<char>::_Getcat'::`1'::dtor$2
  00020	48 8d 8a 20 00
	00 00		 lea	 rcx, QWORD PTR $T1[rdx]
  00027	e9 00 00 00 00	 jmp	 ??1_Lockit@std@@QEAA@XZ	; std::_Lockit::~_Lockit
?dtor$2@?0??_Getcat@?$ctype@D@std@@SA_KPEAPEBVfacet@locale@2@PEBV42@@Z@4HA ENDP ; `std::ctype<char>::_Getcat'::`1'::dtor$2
text$x	ENDS
; Function compile flags: /Ogtpy
;	COMDAT text$x
text$x	SEGMENT
$T1 = 32
$T2 = 144
$T3 = 144
$T4 = 192
$T5 = 192
_Ppf$ = 192
_Ploc$ = 200
?dtor$3@?0??_Getcat@?$ctype@D@std@@SA_KPEAPEBVfacet@locale@2@PEBV42@@Z@4HA PROC ; `std::ctype<char>::_Getcat'::`1'::dtor$3
  0002c	48 8d 8a 20 00
	00 00		 lea	 rcx, QWORD PTR $T1[rdx]
  00033	48 83 c1 08	 add	 rcx, 8
  00037	e9 00 00 00 00	 jmp	 ??1?$_Yarn@D@std@@QEAA@XZ ; std::_Yarn<char>::~_Yarn<char>
?dtor$3@?0??_Getcat@?$ctype@D@std@@SA_KPEAPEBVfacet@locale@2@PEBV42@@Z@4HA ENDP ; `std::ctype<char>::_Getcat'::`1'::dtor$3
text$x	ENDS
; Function compile flags: /Ogtpy
;	COMDAT text$x
text$x	SEGMENT
$T1 = 32
$T2 = 144
$T3 = 144
$T4 = 192
$T5 = 192
_Ppf$ = 192
_Ploc$ = 200
?dtor$4@?0??_Getcat@?$ctype@D@std@@SA_KPEAPEBVfacet@locale@2@PEBV42@@Z@4HA PROC ; `std::ctype<char>::_Getcat'::`1'::dtor$4
  0003c	48 8d 8a 20 00
	00 00		 lea	 rcx, QWORD PTR $T1[rdx]
  00043	48 83 c1 18	 add	 rcx, 24
  00047	e9 00 00 00 00	 jmp	 ??1?$_Yarn@D@std@@QEAA@XZ ; std::_Yarn<char>::~_Yarn<char>
?dtor$4@?0??_Getcat@?$ctype@D@std@@SA_KPEAPEBVfacet@locale@2@PEBV42@@Z@4HA ENDP ; `std::ctype<char>::_Getcat'::`1'::dtor$4
text$x	ENDS
; Function compile flags: /Ogtpy
;	COMDAT text$x
text$x	SEGMENT
$T1 = 32
$T2 = 144
$T3 = 144
$T4 = 192
$T5 = 192
_Ppf$ = 192
_Ploc$ = 200
?dtor$5@?0??_Getcat@?$ctype@D@std@@SA_KPEAPEBVfacet@locale@2@PEBV42@@Z@4HA PROC ; `std::ctype<char>::_Getcat'::`1'::dtor$5
  0004c	48 8d 8a 20 00
	00 00		 lea	 rcx, QWORD PTR $T1[rdx]
  00053	48 83 c1 28	 add	 rcx, 40			; 00000028H
  00057	e9 00 00 00 00	 jmp	 ??1?$_Yarn@_W@std@@QEAA@XZ ; std::_Yarn<wchar_t>::~_Yarn<wchar_t>
?dtor$5@?0??_Getcat@?$ctype@D@std@@SA_KPEAPEBVfacet@locale@2@PEBV42@@Z@4HA ENDP ; `std::ctype<char>::_Getcat'::`1'::dtor$5
text$x	ENDS
; Function compile flags: /Ogtpy
;	COMDAT text$x
text$x	SEGMENT
$T1 = 32
$T2 = 144
$T3 = 144
$T4 = 192
$T5 = 192
_Ppf$ = 192
_Ploc$ = 200
?dtor$6@?0??_Getcat@?$ctype@D@std@@SA_KPEAPEBVfacet@locale@2@PEBV42@@Z@4HA PROC ; `std::ctype<char>::_Getcat'::`1'::dtor$6
  0005c	48 8d 8a 20 00
	00 00		 lea	 rcx, QWORD PTR $T1[rdx]
  00063	48 83 c1 38	 add	 rcx, 56			; 00000038H
  00067	e9 00 00 00 00	 jmp	 ??1?$_Yarn@_W@std@@QEAA@XZ ; std::_Yarn<wchar_t>::~_Yarn<wchar_t>
?dtor$6@?0??_Getcat@?$ctype@D@std@@SA_KPEAPEBVfacet@locale@2@PEBV42@@Z@4HA ENDP ; `std::ctype<char>::_Getcat'::`1'::dtor$6
text$x	ENDS
; Function compile flags: /Ogtpy
;	COMDAT text$x
text$x	SEGMENT
$T1 = 32
$T2 = 144
$T3 = 144
$T4 = 192
$T5 = 192
_Ppf$ = 192
_Ploc$ = 200
?dtor$7@?0??_Getcat@?$ctype@D@std@@SA_KPEAPEBVfacet@locale@2@PEBV42@@Z@4HA PROC ; `std::ctype<char>::_Getcat'::`1'::dtor$7
  0006c	48 8d 8a 20 00
	00 00		 lea	 rcx, QWORD PTR $T1[rdx]
  00073	48 83 c1 48	 add	 rcx, 72			; 00000048H
  00077	e9 00 00 00 00	 jmp	 ??1?$_Yarn@D@std@@QEAA@XZ ; std::_Yarn<char>::~_Yarn<char>
?dtor$7@?0??_Getcat@?$ctype@D@std@@SA_KPEAPEBVfacet@locale@2@PEBV42@@Z@4HA ENDP ; `std::ctype<char>::_Getcat'::`1'::dtor$7
text$x	ENDS
; Function compile flags: /Ogtpy
;	COMDAT text$x
text$x	SEGMENT
$T1 = 32
$T2 = 144
$T3 = 144
$T4 = 192
$T5 = 192
_Ppf$ = 192
_Ploc$ = 200
?dtor$8@?0??_Getcat@?$ctype@D@std@@SA_KPEAPEBVfacet@locale@2@PEBV42@@Z@4HA PROC ; `std::ctype<char>::_Getcat'::`1'::dtor$8
  0007c	48 8d 8a 20 00
	00 00		 lea	 rcx, QWORD PTR $T1[rdx]
  00083	48 83 c1 58	 add	 rcx, 88			; 00000058H
  00087	e9 00 00 00 00	 jmp	 ??1?$_Yarn@D@std@@QEAA@XZ ; std::_Yarn<char>::~_Yarn<char>
?dtor$8@?0??_Getcat@?$ctype@D@std@@SA_KPEAPEBVfacet@locale@2@PEBV42@@Z@4HA ENDP ; `std::ctype<char>::_Getcat'::`1'::dtor$8
text$x	ENDS
; Function compile flags: /Ogtpy
; File c:\users\alist_000\cppmisc\packages\visualcpptools.14.0.24629\lib\native\include\xlocale
; File c:\users\alist_000\cppmisc\packages\visualcpptools.14.0.24629\lib\native\include\xfacet
; File c:\users\alist_000\cppmisc\packages\visualcpptools.14.0.24629\lib\native\include\xlocale
;	COMDAT ??1?$ctype@D@std@@MEAA@XZ
_TEXT	SEGMENT
this$ = 48
??1?$ctype@D@std@@MEAA@XZ PROC				; std::ctype<char>::~ctype<char>, COMDAT

; 2443 : 		{	// destroy the object

$LN19:
  00000	40 53		 push	 rbx
  00002	48 83 ec 20	 sub	 rsp, 32			; 00000020H
  00006	48 8d 05 00 00
	00 00		 lea	 rax, OFFSET FLAT:??_7?$ctype@D@std@@6B@
  0000d	48 8b d9	 mov	 rbx, rcx
  00010	48 89 01	 mov	 QWORD PTR [rcx], rax

; 2454 : 		if (0 < _Ctype._Delfl)

  00013	8b 41 20	 mov	 eax, DWORD PTR [rcx+32]
  00016	85 c0		 test	 eax, eax
  00018	7e 0b		 jle	 SHORT $LN17@ctype

; 2455 : 			_CSTD free((void *)_Ctype._Table);

  0001a	48 8b 49 18	 mov	 rcx, QWORD PTR [rcx+24]
  0001e	e8 00 00 00 00	 call	 free
  00023	eb 0b		 jmp	 SHORT $LN6@ctype
$LN17@ctype:

; 2456 : 		else if (_Ctype._Delfl < 0)

  00025	79 09		 jns	 SHORT $LN6@ctype

; 2457 : 			delete[] _Ctype._Table;

  00027	48 8b 49 18	 mov	 rcx, QWORD PTR [rcx+24]
  0002b	e8 00 00 00 00	 call	 ??_V@YAXPEAX@Z		; operator delete[]
$LN6@ctype:

; 2458 : 
; 2459 : 		_CSTD free(_Ctype._LocaleName);

  00030	48 8b 4b 28	 mov	 rcx, QWORD PTR [rbx+40]
  00034	e8 00 00 00 00	 call	 free
; File c:\users\alist_000\cppmisc\packages\visualcpptools.14.0.24629\lib\native\include\xfacet

; 24   : 		{	// ensure that derived classes can be destroyed properly

  00039	48 8d 05 00 00
	00 00		 lea	 rax, OFFSET FLAT:??_7_Facet_base@std@@6B@
  00040	48 89 03	 mov	 QWORD PTR [rbx], rax
; File c:\users\alist_000\cppmisc\packages\visualcpptools.14.0.24629\lib\native\include\xlocale

; 2445 : 		}

  00043	48 83 c4 20	 add	 rsp, 32			; 00000020H
  00047	5b		 pop	 rbx
  00048	c3		 ret	 0
??1?$ctype@D@std@@MEAA@XZ ENDP				; std::ctype<char>::~ctype<char>
_TEXT	ENDS
; Function compile flags: /Ogtpy
; File c:\users\alist_000\cppmisc\packages\visualcpptools.14.0.24629\lib\native\include\xlocale
; File c:\users\alist_000\cppmisc\packages\visualcpptools.14.0.24629\lib\native\include\xlocinfo
; File c:\users\alist_000\cppmisc\packages\visualcpptools.14.0.24629\lib\native\include\xlocale
;	COMDAT ?_Init@?$ctype@D@std@@IEAAXAEBV_Locinfo@2@@Z
_TEXT	SEGMENT
$T1 = 32
this$ = 80
_Lobj$ = 88
?_Init@?$ctype@D@std@@IEAAXAEBV_Locinfo@2@@Z PROC	; std::ctype<char>::_Init, COMDAT

; 2448 : 		{	// initialize from _Lobj

$LN6:
  00000	40 53		 push	 rbx
  00002	48 83 ec 40	 sub	 rsp, 64			; 00000040H
  00006	48 8b d9	 mov	 rbx, rcx
; File c:\users\alist_000\cppmisc\packages\visualcpptools.14.0.24629\lib\native\include\xlocinfo

; 117  : 		return (::_Getctype());

  00009	48 8d 4c 24 20	 lea	 rcx, QWORD PTR $T1[rsp]
  0000e	e8 00 00 00 00	 call	 _Getctype
; File c:\users\alist_000\cppmisc\packages\visualcpptools.14.0.24629\lib\native\include\xlocale

; 2449 : 		_Ctype = _Lobj._Getctype();

  00013	0f 10 00	 movups	 xmm0, XMMWORD PTR [rax]
  00016	0f 11 43 10	 movups	 XMMWORD PTR [rbx+16], xmm0
  0001a	0f 10 48 10	 movups	 xmm1, XMMWORD PTR [rax+16]
  0001e	0f 11 4b 20	 movups	 XMMWORD PTR [rbx+32], xmm1

; 2450 : 		}

  00022	48 83 c4 40	 add	 rsp, 64			; 00000040H
  00026	5b		 pop	 rbx
  00027	c3		 ret	 0
?_Init@?$ctype@D@std@@IEAAXAEBV_Locinfo@2@@Z ENDP	; std::ctype<char>::_Init
_TEXT	ENDS
; Function compile flags: /Ogtpy
; File c:\users\alist_000\cppmisc\packages\visualcpptools.14.0.24629\lib\native\include\xlocale
;	COMDAT ?_Tidy@?$ctype@D@std@@IEAAXXZ
_TEXT	SEGMENT
this$ = 48
?_Tidy@?$ctype@D@std@@IEAAXXZ PROC			; std::ctype<char>::_Tidy, COMDAT

; 2453 : 		{	// free any allocated storage

$LN8:
  00000	40 53		 push	 rbx
  00002	48 83 ec 20	 sub	 rsp, 32			; 00000020H

; 2454 : 		if (0 < _Ctype._Delfl)

  00006	8b 41 20	 mov	 eax, DWORD PTR [rcx+32]
  00009	48 8b d9	 mov	 rbx, rcx
  0000c	85 c0		 test	 eax, eax
  0000e	7e 17		 jle	 SHORT $LN6@Tidy

; 2455 : 			_CSTD free((void *)_Ctype._Table);

  00010	48 8b 49 18	 mov	 rcx, QWORD PTR [rcx+24]
  00014	e8 00 00 00 00	 call	 free

; 2458 : 
; 2459 : 		_CSTD free(_Ctype._LocaleName);

  00019	48 8b 4b 28	 mov	 rcx, QWORD PTR [rbx+40]

; 2460 : 		}

  0001d	48 83 c4 20	 add	 rsp, 32			; 00000020H
  00021	5b		 pop	 rbx

; 2458 : 
; 2459 : 		_CSTD free(_Ctype._LocaleName);

  00022	e9 00 00 00 00	 jmp	 free
$LN6@Tidy:

; 2456 : 		else if (_Ctype._Delfl < 0)

  00027	79 09		 jns	 SHORT $LN4@Tidy

; 2457 : 			delete[] _Ctype._Table;

  00029	48 8b 49 18	 mov	 rcx, QWORD PTR [rcx+24]
  0002d	e8 00 00 00 00	 call	 ??_V@YAXPEAX@Z		; operator delete[]
$LN4@Tidy:

; 2458 : 
; 2459 : 		_CSTD free(_Ctype._LocaleName);

  00032	48 8b 4b 28	 mov	 rcx, QWORD PTR [rbx+40]

; 2460 : 		}

  00036	48 83 c4 20	 add	 rsp, 32			; 00000020H
  0003a	5b		 pop	 rbx

; 2458 : 
; 2459 : 		_CSTD free(_Ctype._LocaleName);

  0003b	e9 00 00 00 00	 jmp	 free
?_Tidy@?$ctype@D@std@@IEAAXXZ ENDP			; std::ctype<char>::_Tidy
_TEXT	ENDS
; Function compile flags: /Ogtpy
; File c:\users\alist_000\cppmisc\packages\visualcpptools.14.0.24629\lib\native\include\xlocale
;	COMDAT ?do_tolower@?$ctype@D@std@@MEBADD@Z
_TEXT	SEGMENT
this$ = 8
_Ch$ = 16
?do_tolower@?$ctype@D@std@@MEBADD@Z PROC		; std::ctype<char>::do_tolower, COMDAT

; 2463 : 		{	// convert element to lower case

  00000	0f b6 c2	 movzx	 eax, dl

; 2464 : 		return ((_Elem)_Tolower((unsigned char)_Ch, &_Ctype));

  00003	48 8d 51 10	 lea	 rdx, QWORD PTR [rcx+16]
  00007	8b c8		 mov	 ecx, eax
  00009	e9 00 00 00 00	 jmp	 _Tolower
?do_tolower@?$ctype@D@std@@MEBADD@Z ENDP		; std::ctype<char>::do_tolower
_TEXT	ENDS
; Function compile flags: /Ogtpy
; File c:\users\alist_000\cppmisc\packages\visualcpptools.14.0.24629\lib\native\include\xlocale
;	COMDAT ?do_tolower@?$ctype@D@std@@MEBAPEBDPEADPEBD@Z
_TEXT	SEGMENT
this$ = 48
_First$ = 56
_Last$ = 64
?do_tolower@?$ctype@D@std@@MEBAPEBDPEADPEBD@Z PROC	; std::ctype<char>::do_tolower, COMDAT

; 2469 : 		{	// convert [_First, _Last) in place to lower case

$LN12:
  00000	48 89 5c 24 10	 mov	 QWORD PTR [rsp+16], rbx
  00005	48 89 74 24 18	 mov	 QWORD PTR [rsp+24], rsi
  0000a	57		 push	 rdi
  0000b	48 83 ec 20	 sub	 rsp, 32			; 00000020H
  0000f	33 ff		 xor	 edi, edi
  00011	49 8b f0	 mov	 rsi, r8
  00014	48 2b f2	 sub	 rsi, rdx
  00017	48 8b da	 mov	 rbx, rdx
  0001a	49 3b d0	 cmp	 rdx, r8
  0001d	48 0f 47 f7	 cmova	 rsi, rdi

; 2470 : 		_DEBUG_RANGE((const _Elem *)_First, _Last);
; 2471 : 		for (; _First != _Last; ++_First)

  00021	48 85 f6	 test	 rsi, rsi
  00024	74 27		 je	 SHORT $LN10@do_tolower
  00026	48 89 6c 24 30	 mov	 QWORD PTR [rsp+48], rbp
  0002b	48 8d 69 10	 lea	 rbp, QWORD PTR [rcx+16]
  0002f	90		 npad	 1
$LL4@do_tolower:

; 2472 : 			*_First = (_Elem)_Tolower((unsigned char)*_First, &_Ctype);

  00030	0f b6 0b	 movzx	 ecx, BYTE PTR [rbx]
  00033	48 8b d5	 mov	 rdx, rbp
  00036	e8 00 00 00 00	 call	 _Tolower
  0003b	88 03		 mov	 BYTE PTR [rbx], al
  0003d	48 ff c7	 inc	 rdi
  00040	48 ff c3	 inc	 rbx
  00043	48 3b fe	 cmp	 rdi, rsi
  00046	75 e8		 jne	 SHORT $LL4@do_tolower
  00048	48 8b 6c 24 30	 mov	 rbp, QWORD PTR [rsp+48]
$LN10@do_tolower:

; 2473 : 		return ((const _Elem *)_First);
; 2474 : 		}

  0004d	48 8b 74 24 40	 mov	 rsi, QWORD PTR [rsp+64]
  00052	48 8b c3	 mov	 rax, rbx
  00055	48 8b 5c 24 38	 mov	 rbx, QWORD PTR [rsp+56]
  0005a	48 83 c4 20	 add	 rsp, 32			; 00000020H
  0005e	5f		 pop	 rdi
  0005f	c3		 ret	 0
?do_tolower@?$ctype@D@std@@MEBAPEBDPEADPEBD@Z ENDP	; std::ctype<char>::do_tolower
_TEXT	ENDS
; Function compile flags: /Ogtpy
; File c:\users\alist_000\cppmisc\packages\visualcpptools.14.0.24629\lib\native\include\xlocale
;	COMDAT ?do_toupper@?$ctype@D@std@@MEBADD@Z
_TEXT	SEGMENT
this$ = 8
_Ch$ = 16
?do_toupper@?$ctype@D@std@@MEBADD@Z PROC		; std::ctype<char>::do_toupper, COMDAT

; 2477 : 		{	// convert element to upper case

  00000	0f b6 c2	 movzx	 eax, dl

; 2478 : 		return ((_Elem)_Toupper((unsigned char)_Ch, &_Ctype));

  00003	48 8d 51 10	 lea	 rdx, QWORD PTR [rcx+16]
  00007	8b c8		 mov	 ecx, eax
  00009	e9 00 00 00 00	 jmp	 _Toupper
?do_toupper@?$ctype@D@std@@MEBADD@Z ENDP		; std::ctype<char>::do_toupper
_TEXT	ENDS
; Function compile flags: /Ogtpy
; File c:\users\alist_000\cppmisc\packages\visualcpptools.14.0.24629\lib\native\include\xlocale
;	COMDAT ?do_toupper@?$ctype@D@std@@MEBAPEBDPEADPEBD@Z
_TEXT	SEGMENT
this$ = 48
_First$ = 56
_Last$ = 64
?do_toupper@?$ctype@D@std@@MEBAPEBDPEADPEBD@Z PROC	; std::ctype<char>::do_toupper, COMDAT

; 2483 : 		{	// convert [_First, _Last) in place to upper case

$LN12:
  00000	48 89 5c 24 10	 mov	 QWORD PTR [rsp+16], rbx
  00005	48 89 74 24 18	 mov	 QWORD PTR [rsp+24], rsi
  0000a	57		 push	 rdi
  0000b	48 83 ec 20	 sub	 rsp, 32			; 00000020H
  0000f	33 ff		 xor	 edi, edi
  00011	49 8b f0	 mov	 rsi, r8
  00014	48 2b f2	 sub	 rsi, rdx
  00017	48 8b da	 mov	 rbx, rdx
  0001a	49 3b d0	 cmp	 rdx, r8
  0001d	48 0f 47 f7	 cmova	 rsi, rdi

; 2484 : 		_DEBUG_RANGE((const _Elem *)_First, _Last);
; 2485 : 		for (; _First != _Last; ++_First)

  00021	48 85 f6	 test	 rsi, rsi
  00024	74 27		 je	 SHORT $LN10@do_toupper
  00026	48 89 6c 24 30	 mov	 QWORD PTR [rsp+48], rbp
  0002b	48 8d 69 10	 lea	 rbp, QWORD PTR [rcx+16]
  0002f	90		 npad	 1
$LL4@do_toupper:

; 2486 : 			*_First = (_Elem)_Toupper((unsigned char)*_First, &_Ctype);

  00030	0f b6 0b	 movzx	 ecx, BYTE PTR [rbx]
  00033	48 8b d5	 mov	 rdx, rbp
  00036	e8 00 00 00 00	 call	 _Toupper
  0003b	88 03		 mov	 BYTE PTR [rbx], al
  0003d	48 ff c7	 inc	 rdi
  00040	48 ff c3	 inc	 rbx
  00043	48 3b fe	 cmp	 rdi, rsi
  00046	75 e8		 jne	 SHORT $LL4@do_toupper
  00048	48 8b 6c 24 30	 mov	 rbp, QWORD PTR [rsp+48]
$LN10@do_toupper:

; 2487 : 		return ((const _Elem *)_First);
; 2488 : 		}

  0004d	48 8b 74 24 40	 mov	 rsi, QWORD PTR [rsp+64]
  00052	48 8b c3	 mov	 rax, rbx
  00055	48 8b 5c 24 38	 mov	 rbx, QWORD PTR [rsp+56]
  0005a	48 83 c4 20	 add	 rsp, 32			; 00000020H
  0005e	5f		 pop	 rdi
  0005f	c3		 ret	 0
?do_toupper@?$ctype@D@std@@MEBAPEBDPEADPEBD@Z ENDP	; std::ctype<char>::do_toupper
_TEXT	ENDS
; Function compile flags: /Ogtpy
; File c:\users\alist_000\cppmisc\packages\visualcpptools.14.0.24629\lib\native\include\xlocale
;	COMDAT ?do_widen@?$ctype@D@std@@MEBADD@Z
_TEXT	SEGMENT
this$ = 8
_Byte$ = 16
?do_widen@?$ctype@D@std@@MEBADD@Z PROC			; std::ctype<char>::do_widen, COMDAT

; 2492 : 		return (_Byte);

  00000	0f b6 c2	 movzx	 eax, dl

; 2493 : 		}

  00003	c3		 ret	 0
?do_widen@?$ctype@D@std@@MEBADD@Z ENDP			; std::ctype<char>::do_widen
_TEXT	ENDS
; Function compile flags: /Ogtpy
; File c:\users\alist_000\cppmisc\packages\visualcpptools.14.0.24629\lib\native\include\xlocale
;	COMDAT ?do_widen@?$ctype@D@std@@MEBAPEBDPEBD0PEAD@Z
_TEXT	SEGMENT
this$ = 48
_First$ = 56
_Last$ = 64
_Dest$ = 72
?do_widen@?$ctype@D@std@@MEBAPEBDPEBD0PEAD@Z PROC	; std::ctype<char>::do_widen, COMDAT

; 2497 : 		{	// widen chars in [_First, _Last)

$LN4:
  00000	40 53		 push	 rbx
  00002	48 83 ec 20	 sub	 rsp, 32			; 00000020H
  00006	49 8b d8	 mov	 rbx, r8

; 2498 : 		_DEBUG_RANGE(_First, _Last);
; 2499 : 		_CSTD memcpy(_Dest, _First, _Last - _First);

  00009	49 8b c9	 mov	 rcx, r9
  0000c	4c 2b c2	 sub	 r8, rdx
  0000f	e8 00 00 00 00	 call	 memcpy

; 2500 : 		return (_Last);

  00014	48 8b c3	 mov	 rax, rbx

; 2501 : 		}

  00017	48 83 c4 20	 add	 rsp, 32			; 00000020H
  0001b	5b		 pop	 rbx
  0001c	c3		 ret	 0
?do_widen@?$ctype@D@std@@MEBAPEBDPEBD0PEAD@Z ENDP	; std::ctype<char>::do_widen
_TEXT	ENDS
; Function compile flags: /Ogtpy
; File c:\users\alist_000\cppmisc\packages\visualcpptools.14.0.24629\lib\native\include\xlocale
;	COMDAT ?do_narrow@?$ctype@D@std@@MEBADDD@Z
_TEXT	SEGMENT
this$ = 8
_Ch$ = 16
__formal$ = 24
?do_narrow@?$ctype@D@std@@MEBADDD@Z PROC		; std::ctype<char>::do_narrow, COMDAT

; 2505 : 		return (_Ch);

  00000	0f b6 c2	 movzx	 eax, dl

; 2506 : 		}

  00003	c3		 ret	 0
?do_narrow@?$ctype@D@std@@MEBADDD@Z ENDP		; std::ctype<char>::do_narrow
_TEXT	ENDS
; Function compile flags: /Ogtpy
; File c:\users\alist_000\cppmisc\packages\visualcpptools.14.0.24629\lib\native\include\xlocale
;	COMDAT ?do_narrow@?$ctype@D@std@@MEBAPEBDPEBD0DPEAD@Z
_TEXT	SEGMENT
this$ = 48
_First$ = 56
_Last$ = 64
__formal$ = 72
_Dest$ = 80
?do_narrow@?$ctype@D@std@@MEBAPEBDPEBD0DPEAD@Z PROC	; std::ctype<char>::do_narrow, COMDAT

; 2510 : 		{	// narrow elements in [_First, _Last) to chars

$LN4:
  00000	40 53		 push	 rbx
  00002	48 83 ec 20	 sub	 rsp, 32			; 00000020H

; 2511 : 		_DEBUG_RANGE(_First, _Last);
; 2512 : 		_CSTD memcpy(_Dest, _First, _Last - _First);

  00006	48 8b 4c 24 50	 mov	 rcx, QWORD PTR _Dest$[rsp]
  0000b	49 8b d8	 mov	 rbx, r8
  0000e	4c 2b c2	 sub	 r8, rdx
  00011	e8 00 00 00 00	 call	 memcpy

; 2513 : 		return (_Last);

  00016	48 8b c3	 mov	 rax, rbx

; 2514 : 		}

  00019	48 83 c4 20	 add	 rsp, 32			; 00000020H
  0001d	5b		 pop	 rbx
  0001e	c3		 ret	 0
?do_narrow@?$ctype@D@std@@MEBAPEBDPEBD0DPEAD@Z ENDP	; std::ctype<char>::do_narrow
_TEXT	ENDS
; Function compile flags: /Ogtpy
; File c:\users\alist_000\cppmisc\packages\visualcpptools.14.0.24629\lib\native\include\xlocale
; File c:\users\alist_000\cppmisc\packages\visualcpptools.14.0.24629\lib\native\include\xfacet
;	COMDAT ??_G?$ctype@D@std@@MEAAPEAXI@Z
_TEXT	SEGMENT
this$ = 48
__flags$ = 56
??_G?$ctype@D@std@@MEAAPEAXI@Z PROC			; std::ctype<char>::`scalar deleting destructor', COMDAT
$LN24:
  00000	48 89 5c 24 08	 mov	 QWORD PTR [rsp+8], rbx
  00005	57		 push	 rdi
  00006	48 83 ec 20	 sub	 rsp, 32			; 00000020H
; File c:\users\alist_000\cppmisc\packages\visualcpptools.14.0.24629\lib\native\include\xlocale

; 2443 : 		{	// destroy the object

  0000a	48 8d 05 00 00
	00 00		 lea	 rax, OFFSET FLAT:??_7?$ctype@D@std@@6B@
  00011	8b fa		 mov	 edi, edx
  00013	48 89 01	 mov	 QWORD PTR [rcx], rax
  00016	48 8b d9	 mov	 rbx, rcx

; 2454 : 		if (0 < _Ctype._Delfl)

  00019	8b 41 20	 mov	 eax, DWORD PTR [rcx+32]
  0001c	85 c0		 test	 eax, eax
  0001e	7e 0b		 jle	 SHORT $LN22@scalar

; 2455 : 			_CSTD free((void *)_Ctype._Table);

  00020	48 8b 49 18	 mov	 rcx, QWORD PTR [rcx+24]
  00024	e8 00 00 00 00	 call	 free
  00029	eb 0b		 jmp	 SHORT $LN10@scalar
$LN22@scalar:

; 2456 : 		else if (_Ctype._Delfl < 0)

  0002b	79 09		 jns	 SHORT $LN10@scalar

; 2457 : 			delete[] _Ctype._Table;

  0002d	48 8b 49 18	 mov	 rcx, QWORD PTR [rcx+24]
  00031	e8 00 00 00 00	 call	 ??_V@YAXPEAX@Z		; operator delete[]
$LN10@scalar:

; 2458 : 
; 2459 : 		_CSTD free(_Ctype._LocaleName);

  00036	48 8b 4b 28	 mov	 rcx, QWORD PTR [rbx+40]
  0003a	e8 00 00 00 00	 call	 free
; File c:\users\alist_000\cppmisc\packages\visualcpptools.14.0.24629\lib\native\include\xfacet

; 24   : 		{	// ensure that derived classes can be destroyed properly

  0003f	48 8d 05 00 00
	00 00		 lea	 rax, OFFSET FLAT:??_7_Facet_base@std@@6B@
  00046	48 89 03	 mov	 QWORD PTR [rbx], rax
  00049	40 f6 c7 01	 test	 dil, 1
  0004d	74 0d		 je	 SHORT $LN21@scalar
  0004f	ba 30 00 00 00	 mov	 edx, 48			; 00000030H
  00054	48 8b cb	 mov	 rcx, rbx
  00057	e8 00 00 00 00	 call	 ??3@YAXPEAX_K@Z		; operator delete
$LN21@scalar:
  0005c	48 8b c3	 mov	 rax, rbx
  0005f	48 8b 5c 24 30	 mov	 rbx, QWORD PTR [rsp+48]
  00064	48 83 c4 20	 add	 rsp, 32			; 00000020H
  00068	5f		 pop	 rdi
  00069	c3		 ret	 0
??_G?$ctype@D@std@@MEAAPEAXI@Z ENDP			; std::ctype<char>::`scalar deleting destructor'
_TEXT	ENDS
; Function compile flags: /Ogtpy
; File c:\users\alist_000\cppmisc\packages\visualcpptools.14.0.24629\lib\native\include\system_error
;	COMDAT ??0error_category@std@@QEAA@XZ
_TEXT	SEGMENT
this$ = 8
??0error_category@std@@QEAA@XZ PROC			; std::error_category::error_category, COMDAT

; 165  : 		{	// default constructor

  00000	48 8d 05 00 00
	00 00		 lea	 rax, OFFSET FLAT:??_7error_category@std@@6B@

; 166  : 		_Addr = reinterpret_cast<uintptr_t>(this);

  00007	48 89 49 08	 mov	 QWORD PTR [rcx+8], rcx
  0000b	48 89 01	 mov	 QWORD PTR [rcx], rax

; 167  : 		}

  0000e	48 8b c1	 mov	 rax, rcx
  00011	c3		 ret	 0
??0error_category@std@@QEAA@XZ ENDP			; std::error_category::error_category
_TEXT	ENDS
; Function compile flags: /Ogtpy
; File c:\users\alist_000\cppmisc\packages\visualcpptools.14.0.24629\lib\native\include\system_error
;	COMDAT ??1error_category@std@@UEAA@XZ
_TEXT	SEGMENT
this$ = 8
??1error_category@std@@UEAA@XZ PROC			; std::error_category::~error_category, COMDAT

; 170  : 		{	// destroy the object

  00000	48 8d 05 00 00
	00 00		 lea	 rax, OFFSET FLAT:??_7error_category@std@@6B@
  00007	48 89 01	 mov	 QWORD PTR [rcx], rax

; 171  : 		}

  0000a	c3		 ret	 0
??1error_category@std@@UEAA@XZ ENDP			; std::error_category::~error_category
_TEXT	ENDS
; Function compile flags: /Ogtpy
; File c:\users\alist_000\cppmisc\packages\visualcpptools.14.0.24629\lib\native\include\system_error
;	COMDAT ??8error_category@std@@QEBA_NAEBV01@@Z
_TEXT	SEGMENT
this$ = 8
_Right$ = 16
??8error_category@std@@QEBA_NAEBV01@@Z PROC		; std::error_category::operator==, COMDAT

; 187  : 		{	// compare categories for equality

  00000	48 8b 42 08	 mov	 rax, QWORD PTR [rdx+8]
  00004	48 39 41 08	 cmp	 QWORD PTR [rcx+8], rax
  00008	0f 94 c0	 sete	 al

; 188  : 		return (_Addr == _Right._Addr);
; 189  : 		}

  0000b	c3		 ret	 0
??8error_category@std@@QEBA_NAEBV01@@Z ENDP		; std::error_category::operator==
_TEXT	ENDS
; Function compile flags: /Ogtpy
; File c:\users\alist_000\cppmisc\packages\visualcpptools.14.0.24629\lib\native\include\system_error
;	COMDAT ??_Gerror_category@std@@UEAAPEAXI@Z
_TEXT	SEGMENT
this$ = 48
__flags$ = 56
??_Gerror_category@std@@UEAAPEAXI@Z PROC		; std::error_category::`scalar deleting destructor', COMDAT
$LN9:
  00000	40 53		 push	 rbx
  00002	48 83 ec 20	 sub	 rsp, 32			; 00000020H

; 170  : 		{	// destroy the object

  00006	48 8d 05 00 00
	00 00		 lea	 rax, OFFSET FLAT:??_7error_category@std@@6B@
  0000d	48 8b d9	 mov	 rbx, rcx
  00010	48 89 01	 mov	 QWORD PTR [rcx], rax
  00013	f6 c2 01	 test	 dl, 1
  00016	74 0a		 je	 SHORT $LN7@scalar
  00018	ba 10 00 00 00	 mov	 edx, 16
  0001d	e8 00 00 00 00	 call	 ??3@YAXPEAX_K@Z		; operator delete
$LN7@scalar:
  00022	48 8b c3	 mov	 rax, rbx
  00025	48 83 c4 20	 add	 rsp, 32			; 00000020H
  00029	5b		 pop	 rbx
  0002a	c3		 ret	 0
??_Gerror_category@std@@UEAAPEAXI@Z ENDP		; std::error_category::`scalar deleting destructor'
_TEXT	ENDS
; Function compile flags: /Ogtpy
; File c:\users\alist_000\cppmisc\packages\visualcpptools.14.0.24629\lib\native\include\system_error
;	COMDAT ??0error_code@std@@QEAA@HAEBVerror_category@1@@Z
_TEXT	SEGMENT
this$ = 8
_Val$ = 16
_Cat$ = 24
??0error_code@std@@QEAA@HAEBVerror_category@1@@Z PROC	; std::error_code::error_code, COMDAT

; 229  : 		: _Myval(_Val), _Mycat(&_Cat)

  00000	89 11		 mov	 DWORD PTR [rcx], edx

; 231  : 		}

  00002	48 8b c1	 mov	 rax, rcx
  00005	4c 89 41 08	 mov	 QWORD PTR [rcx+8], r8
  00009	c3		 ret	 0
??0error_code@std@@QEAA@HAEBVerror_category@1@@Z ENDP	; std::error_code::error_code
_TEXT	ENDS
; Function compile flags: /Ogtpy
; File c:\users\alist_000\cppmisc\packages\visualcpptools.14.0.24629\lib\native\include\system_error
;	COMDAT ?value@error_code@std@@QEBAHXZ
_TEXT	SEGMENT
this$ = 8
?value@error_code@std@@QEBAHXZ PROC			; std::error_code::value, COMDAT

; 264  : 		return (_Myval);

  00000	8b 01		 mov	 eax, DWORD PTR [rcx]

; 265  : 		}

  00002	c3		 ret	 0
?value@error_code@std@@QEBAHXZ ENDP			; std::error_code::value
_TEXT	ENDS
; Function compile flags: /Ogtpy
; File c:\users\alist_000\cppmisc\packages\visualcpptools.14.0.24629\lib\native\include\system_error
;	COMDAT ?category@error_code@std@@QEBAAEBVerror_category@2@XZ
_TEXT	SEGMENT
this$ = 8
?category@error_code@std@@QEBAAEBVerror_category@2@XZ PROC ; std::error_code::category, COMDAT

; 269  : 		return (*_Mycat);

  00000	48 8b 41 08	 mov	 rax, QWORD PTR [rcx+8]

; 270  : 		}

  00004	c3		 ret	 0
?category@error_code@std@@QEBAAEBVerror_category@2@XZ ENDP ; std::error_code::category
_TEXT	ENDS
; Function compile flags: /Ogtpy
; File c:\users\alist_000\cppmisc\packages\visualcpptools.14.0.24629\lib\native\include\system_error
;	COMDAT ?message@error_code@std@@QEBA?AV?$basic_string@DU?$char_traits@D@std@@V?$allocator@D@2@@2@XZ
_TEXT	SEGMENT
$T1 = 32
this$ = 64
__$ReturnUdt$ = 72
?message@error_code@std@@QEBA?AV?$basic_string@DU?$char_traits@D@std@@V?$allocator@D@2@@2@XZ PROC ; std::error_code::message, COMDAT

; 275  : 		{	// get name of error code

$LN12:
  00000	40 53		 push	 rbx
  00002	48 83 ec 30	 sub	 rsp, 48			; 00000030H

; 276  : 		return (category().message(value()));

  00006	44 8b 01	 mov	 r8d, DWORD PTR [rcx]
  00009	48 8b da	 mov	 rbx, rdx

; 269  : 		return (*_Mycat);

  0000c	48 8b 49 08	 mov	 rcx, QWORD PTR [rcx+8]
  00010	c7 44 24 20 00
	00 00 00	 mov	 DWORD PTR $T1[rsp], 0

; 276  : 		return (category().message(value()));

  00018	48 8b 01	 mov	 rax, QWORD PTR [rcx]
  0001b	ff 50 10	 call	 QWORD PTR [rax+16]
  0001e	48 8b c3	 mov	 rax, rbx

; 277  : 		}

  00021	48 83 c4 30	 add	 rsp, 48			; 00000030H
  00025	5b		 pop	 rbx
  00026	c3		 ret	 0
?message@error_code@std@@QEBA?AV?$basic_string@DU?$char_traits@D@std@@V?$allocator@D@2@@2@XZ ENDP ; std::error_code::message
_TEXT	ENDS
; Function compile flags: /Ogtpy
; File c:\users\alist_000\cppmisc\packages\visualcpptools.14.0.24629\lib\native\include\system_error
;	COMDAT ??0error_condition@std@@QEAA@HAEBVerror_category@1@@Z
_TEXT	SEGMENT
this$ = 8
_Val$ = 16
_Cat$ = 24
??0error_condition@std@@QEAA@HAEBVerror_category@1@@Z PROC ; std::error_condition::error_condition, COMDAT

; 302  : 		: _Myval(_Val), _Mycat(&_Cat)

  00000	89 11		 mov	 DWORD PTR [rcx], edx

; 304  : 		}

  00002	48 8b c1	 mov	 rax, rcx
  00005	4c 89 41 08	 mov	 QWORD PTR [rcx+8], r8
  00009	c3		 ret	 0
??0error_condition@std@@QEAA@HAEBVerror_category@1@@Z ENDP ; std::error_condition::error_condition
_TEXT	ENDS
; Function compile flags: /Ogtpy
; File c:\users\alist_000\cppmisc\packages\visualcpptools.14.0.24629\lib\native\include\system_error
;	COMDAT ?value@error_condition@std@@QEBAHXZ
_TEXT	SEGMENT
this$ = 8
?value@error_condition@std@@QEBAHXZ PROC		; std::error_condition::value, COMDAT

; 337  : 		return (_Myval);

  00000	8b 01		 mov	 eax, DWORD PTR [rcx]

; 338  : 		}

  00002	c3		 ret	 0
?value@error_condition@std@@QEBAHXZ ENDP		; std::error_condition::value
_TEXT	ENDS
; Function compile flags: /Ogtpy
; File c:\users\alist_000\cppmisc\packages\visualcpptools.14.0.24629\lib\native\include\system_error
;	COMDAT ?category@error_condition@std@@QEBAAEBVerror_category@2@XZ
_TEXT	SEGMENT
this$ = 8
?category@error_condition@std@@QEBAAEBVerror_category@2@XZ PROC ; std::error_condition::category, COMDAT

; 342  : 		return (*_Mycat);

  00000	48 8b 41 08	 mov	 rax, QWORD PTR [rcx+8]

; 343  : 		}

  00004	c3		 ret	 0
?category@error_condition@std@@QEBAAEBVerror_category@2@XZ ENDP ; std::error_condition::category
_TEXT	ENDS
; Function compile flags: /Ogtpy
; File c:\users\alist_000\cppmisc\packages\visualcpptools.14.0.24629\lib\native\include\system_error
;	COMDAT ??8std@@YA_NAEBVerror_condition@0@0@Z
_TEXT	SEGMENT
_Left$ = 8
_Right$ = 16
??8std@@YA_NAEBVerror_condition@0@0@Z PROC		; std::operator==, COMDAT

; 188  : 		return (_Addr == _Right._Addr);

  00000	48 8b 42 08	 mov	 rax, QWORD PTR [rdx+8]
  00004	4c 8b 49 08	 mov	 r9, QWORD PTR [rcx+8]
  00008	4c 8b 40 08	 mov	 r8, QWORD PTR [rax+8]
  0000c	4d 39 41 08	 cmp	 QWORD PTR [r9+8], r8

; 389  : 	return (_Left.category() == _Right.category()

  00010	75 09		 jne	 SHORT $LN3@operator
  00012	8b 02		 mov	 eax, DWORD PTR [rdx]
  00014	39 01		 cmp	 DWORD PTR [rcx], eax
  00016	75 03		 jne	 SHORT $LN3@operator
  00018	b0 01		 mov	 al, 1

; 390  : 		&& _Left.value() == _Right.value());
; 391  : 	}

  0001a	c3		 ret	 0
$LN3@operator:

; 389  : 	return (_Left.category() == _Right.category()

  0001b	32 c0		 xor	 al, al

; 390  : 		&& _Left.value() == _Right.value());
; 391  : 	}

  0001d	c3		 ret	 0
??8std@@YA_NAEBVerror_condition@0@0@Z ENDP		; std::operator==
_TEXT	ENDS
; Function compile flags: /Ogtpy
; File c:\users\alist_000\cppmisc\packages\visualcpptools.14.0.24629\lib\native\include\system_error
;	COMDAT ?default_error_condition@error_category@std@@UEBA?AVerror_condition@2@H@Z
_TEXT	SEGMENT
this$ = 8
__$ReturnUdt$ = 16
_Errval$ = 24
?default_error_condition@error_category@std@@UEBA?AVerror_condition@2@H@Z PROC ; std::error_category::default_error_condition, COMDAT

; 302  : 		: _Myval(_Val), _Mycat(&_Cat)

  00000	44 89 02	 mov	 DWORD PTR [rdx], r8d

; 445  : 	return (error_condition(_Errval, *this));

  00003	48 8b c2	 mov	 rax, rdx

; 302  : 		: _Myval(_Val), _Mycat(&_Cat)

  00006	48 89 4a 08	 mov	 QWORD PTR [rdx+8], rcx

; 446  : 	}

  0000a	c3		 ret	 0
?default_error_condition@error_category@std@@UEBA?AVerror_condition@2@H@Z ENDP ; std::error_category::default_error_condition
_TEXT	ENDS
; Function compile flags: /Ogtpy
; File c:\users\alist_000\cppmisc\packages\visualcpptools.14.0.24629\lib\native\include\system_error
;	COMDAT ?equivalent@error_category@std@@UEBA_NHAEBVerror_condition@2@@Z
_TEXT	SEGMENT
$T1 = 32
this$ = 64
_Errval$ = 72
_Cond$ = 80
?equivalent@error_category@std@@UEBA_NHAEBVerror_condition@2@@Z PROC ; std::error_category::equivalent, COMDAT

; 451  : 	{	// test if error code same condition

$LN32:
  00000	40 53		 push	 rbx
  00002	48 83 ec 30	 sub	 rsp, 48			; 00000030H
  00006	48 8b 01	 mov	 rax, QWORD PTR [rcx]
  00009	49 8b d8	 mov	 rbx, r8
  0000c	4c 8b 48 18	 mov	 r9, QWORD PTR [rax+24]
  00010	48 8d 05 00 00
	00 00		 lea	 rax, OFFSET FLAT:?default_error_condition@error_category@std@@UEBA?AVerror_condition@2@H@Z ; std::error_category::default_error_condition
  00017	4c 3b c8	 cmp	 r9, rax
  0001a	75 36		 jne	 SHORT $LN31@equivalent

; 302  : 		: _Myval(_Val), _Mycat(&_Cat)

  0001c	89 54 24 20	 mov	 DWORD PTR $T1[rsp], edx

; 445  : 	return (error_condition(_Errval, *this));

  00020	48 8d 44 24 20	 lea	 rax, QWORD PTR $T1[rsp]

; 302  : 		: _Myval(_Val), _Mycat(&_Cat)

  00025	48 89 4c 24 28	 mov	 QWORD PTR $T1[rsp+8], rcx
$LN3@equivalent:

; 188  : 		return (_Addr == _Right._Addr);

  0002a	48 8b 4b 08	 mov	 rcx, QWORD PTR [rbx+8]
  0002e	4c 8b 40 08	 mov	 r8, QWORD PTR [rax+8]
  00032	48 8b 51 08	 mov	 rdx, QWORD PTR [rcx+8]
  00036	49 39 50 08	 cmp	 QWORD PTR [r8+8], rdx

; 389  : 	return (_Left.category() == _Right.category()

  0003a	75 0e		 jne	 SHORT $LN13@equivalent
  0003c	8b 0b		 mov	 ecx, DWORD PTR [rbx]
  0003e	39 08		 cmp	 DWORD PTR [rax], ecx
  00040	75 08		 jne	 SHORT $LN13@equivalent

; 452  : 	return (default_error_condition(_Errval) == _Cond);

  00042	b0 01		 mov	 al, 1

; 453  : 	}

  00044	48 83 c4 30	 add	 rsp, 48			; 00000030H
  00048	5b		 pop	 rbx
  00049	c3		 ret	 0
$LN13@equivalent:

; 452  : 	return (default_error_condition(_Errval) == _Cond);

  0004a	32 c0		 xor	 al, al

; 453  : 	}

  0004c	48 83 c4 30	 add	 rsp, 48			; 00000030H
  00050	5b		 pop	 rbx
  00051	c3		 ret	 0
$LN31@equivalent:
  00052	44 8b c2	 mov	 r8d, edx
  00055	48 8d 54 24 20	 lea	 rdx, QWORD PTR $T1[rsp]

; 452  : 	return (default_error_condition(_Errval) == _Cond);

  0005a	41 ff d1	 call	 r9
  0005d	eb cb		 jmp	 SHORT $LN3@equivalent
?equivalent@error_category@std@@UEBA_NHAEBVerror_condition@2@@Z ENDP ; std::error_category::equivalent
_TEXT	ENDS
; Function compile flags: /Ogtpy
; File c:\users\alist_000\cppmisc\packages\visualcpptools.14.0.24629\lib\native\include\system_error
;	COMDAT ?equivalent@error_category@std@@UEBA_NAEBVerror_code@2@H@Z
_TEXT	SEGMENT
this$ = 8
_Code$ = 16
_Errval$ = 24
?equivalent@error_category@std@@UEBA_NAEBVerror_code@2@H@Z PROC ; std::error_category::equivalent, COMDAT

; 188  : 		return (_Addr == _Right._Addr);

  00000	48 8b 42 08	 mov	 rax, QWORD PTR [rdx+8]
  00004	4c 8b 48 08	 mov	 r9, QWORD PTR [rax+8]
  00008	4c 39 49 08	 cmp	 QWORD PTR [rcx+8], r9

; 459  : 	return (*this == _Code.category() && _Code.value() == _Errval);

  0000c	75 08		 jne	 SHORT $LN3@equivalent
  0000e	44 39 02	 cmp	 DWORD PTR [rdx], r8d
  00011	75 03		 jne	 SHORT $LN3@equivalent
  00013	b0 01		 mov	 al, 1

; 460  : 	}

  00015	c3		 ret	 0
$LN3@equivalent:

; 459  : 	return (*this == _Code.category() && _Code.value() == _Errval);

  00016	32 c0		 xor	 al, al

; 460  : 	}

  00018	c3		 ret	 0
?equivalent@error_category@std@@UEBA_NAEBVerror_code@2@H@Z ENDP ; std::error_category::equivalent
_TEXT	ENDS
; Function compile flags: /Ogtpy
; File c:\users\alist_000\cppmisc\packages\visualcpptools.14.0.24629\lib\native\include\system_error
;	COMDAT ?make_error_code@std@@YA?AVerror_code@1@W4io_errc@1@@Z
_TEXT	SEGMENT
__$ReturnUdt$ = 48
_Errno$ = 56
?make_error_code@std@@YA?AVerror_code@1@W4io_errc@1@@Z PROC ; std::make_error_code, COMDAT

; 475  : 	{	// make an error_code

$LN29:
  00000	48 89 5c 24 08	 mov	 QWORD PTR [rsp+8], rbx
  00005	57		 push	 rdi
  00006	48 83 ec 20	 sub	 rsp, 32			; 00000020H

; 694  : 	/* MAGIC */ static _Immortalizer<_Ty> _Static;

  0000a	65 48 8b 04 25
	58 00 00 00	 mov	 rax, QWORD PTR gs:88

; 475  : 	{	// make an error_code

  00013	48 8b d9	 mov	 rbx, rcx

; 694  : 	/* MAGIC */ static _Immortalizer<_Ty> _Static;

  00016	b9 00 00 00 00	 mov	 ecx, OFFSET FLAT:_Init_thread_epoch

; 475  : 	{	// make an error_code

  0001b	8b fa		 mov	 edi, edx

; 694  : 	/* MAGIC */ static _Immortalizer<_Ty> _Static;

  0001d	4c 8b 00	 mov	 r8, QWORD PTR [rax]
  00020	42 8b 04 01	 mov	 eax, DWORD PTR [rcx+r8]
  00024	39 05 00 00 00
	00		 cmp	 DWORD PTR ?$TSS0@?1???$_Immortalize@V_Iostream_error_category@std@@@std@@YAAEAV_Iostream_error_category@1@XZ@4HA, eax ; TSS0<`template-parameter-2',unsigned int,std::V_Iostream_error_category::mortalize>
  0002a	7f 1b		 jg	 SHORT $LN27@make_error
$LN7@make_error:

; 229  : 		: _Myval(_Val), _Mycat(&_Cat)

  0002c	48 8d 05 00 00
	00 00		 lea	 rax, OFFSET FLAT:?_Static@?1???$_Immortalize@V_Iostream_error_category@std@@@std@@YAAEAV_Iostream_error_category@1@XZ@4U?$_Immortalizer@V_Iostream_error_category@std@@@1@A ; `std::_Immortalize<std::_Iostream_error_category>'::`2'::_Static
  00033	89 3b		 mov	 DWORD PTR [rbx], edi
  00035	48 89 43 08	 mov	 QWORD PTR [rbx+8], rax

; 476  : 	return (error_code((int)_Errno, iostream_category()));

  00039	48 8b c3	 mov	 rax, rbx

; 477  : 	}

  0003c	48 8b 5c 24 30	 mov	 rbx, QWORD PTR [rsp+48]
  00041	48 83 c4 20	 add	 rsp, 32			; 00000020H
  00045	5f		 pop	 rdi
  00046	c3		 ret	 0
$LN27@make_error:

; 694  : 	/* MAGIC */ static _Immortalizer<_Ty> _Static;

  00047	48 8d 0d 00 00
	00 00		 lea	 rcx, OFFSET FLAT:?$TSS0@?1???$_Immortalize@V_Iostream_error_category@std@@@std@@YAAEAV_Iostream_error_category@1@XZ@4HA ; TSS0<`template-parameter-2',unsigned int,std::V_Iostream_error_category::mortalize>
  0004e	e8 00 00 00 00	 call	 _Init_thread_header
  00053	83 3d 00 00 00
	00 ff		 cmp	 DWORD PTR ?$TSS0@?1???$_Immortalize@V_Iostream_error_category@std@@@std@@YAAEAV_Iostream_error_category@1@XZ@4HA, -1 ; TSS0<`template-parameter-2',unsigned int,std::V_Iostream_error_category::mortalize>
  0005a	75 d0		 jne	 SHORT $LN7@make_error

; 612  : 		{	// default constructor

  0005c	48 8d 05 00 00
	00 00		 lea	 rax, OFFSET FLAT:??_7_Iostream_error_category@std@@6B@

; 613  : 		_Addr = _Iostream_addr;

  00063	48 c7 05 08 00
	00 00 05 00 00
	00		 mov	 QWORD PTR ?_Static@?1???$_Immortalize@V_Iostream_error_category@std@@@std@@YAAEAV_Iostream_error_category@1@XZ@4U?$_Immortalizer@V_Iostream_error_category@std@@@1@A+8, 5

; 694  : 	/* MAGIC */ static _Immortalizer<_Ty> _Static;

  0006e	48 8d 0d 00 00
	00 00		 lea	 rcx, OFFSET FLAT:??__F_Static@?1???$_Immortalize@V_Iostream_error_category@std@@@std@@YAAEAV_Iostream_error_category@0@XZ@YAXXZ ; `std::_Immortalize<std::_Iostream_error_category>'::`2'::`dynamic atexit destructor for '_Static''

; 612  : 		{	// default constructor

  00075	48 89 05 00 00
	00 00		 mov	 QWORD PTR ?_Static@?1???$_Immortalize@V_Iostream_error_category@std@@@std@@YAAEAV_Iostream_error_category@1@XZ@4U?$_Immortalizer@V_Iostream_error_category@std@@@1@A, rax

; 694  : 	/* MAGIC */ static _Immortalizer<_Ty> _Static;

  0007c	e8 00 00 00 00	 call	 atexit
  00081	48 8d 0d 00 00
	00 00		 lea	 rcx, OFFSET FLAT:?$TSS0@?1???$_Immortalize@V_Iostream_error_category@std@@@std@@YAAEAV_Iostream_error_category@1@XZ@4HA ; TSS0<`template-parameter-2',unsigned int,std::V_Iostream_error_category::mortalize>
  00088	e8 00 00 00 00	 call	 _Init_thread_footer
  0008d	eb 9d		 jmp	 SHORT $LN7@make_error
?make_error_code@std@@YA?AVerror_code@1@W4io_errc@1@@Z ENDP ; std::make_error_code
_TEXT	ENDS
; Function compile flags: /Ogtpy
; File c:\users\alist_000\cppmisc\packages\visualcpptools.14.0.24629\lib\native\include\system_error
; File c:\users\alist_000\cppmisc\packages\visualcpptools.14.0.24629\lib\native\include\xstring
; File c:\users\alist_000\cppmisc\packages\visualcpptools.14.0.24629\lib\native\include\system_error
; File c:\users\alist_000\cppmisc\packages\visualcpptools.14.0.24629\lib\native\include\xstring
; File c:\users\alist_000\cppmisc\packages\visualcpptools.14.0.24629\lib\native\include\xmemory0
; File c:\users\alist_000\cppmisc\packages\visualcpptools.14.0.24629\lib\native\include\xstring
; File c:\users\alist_000\cppmisc\packages\visualcpptools.14.0.24629\lib\native\include\iosfwd
; File c:\users\alist_000\cppmisc\packages\visualcpptools.14.0.24629\lib\native\include\xstring
; File c:\users\alist_000\cppmisc\packages\visualcpptools.14.0.24629\lib\native\include\xmemory0
; File c:\users\alist_000\cppmisc\packages\visualcpptools.14.0.24629\lib\native\include\xstring
; File c:\users\alist_000\cppmisc\packages\visualcpptools.14.0.24629\lib\native\include\iosfwd
; File c:\users\alist_000\cppmisc\packages\visualcpptools.14.0.24629\lib\native\include\xstring
; File c:\users\alist_000\cppmisc\packages\visualcpptools.14.0.24629\lib\native\include\iosfwd
; File c:\users\alist_000\cppmisc\packages\visualcpptools.14.0.24629\lib\native\include\xstring
; File c:\users\alist_000\cppmisc\packages\visualcpptools.14.0.24629\lib\native\include\xmemory0
; File c:\users\alist_000\cppmisc\packages\visualcpptools.14.0.24629\lib\native\include\system_error
;	COMDAT ?_Makestr@_System_error@std@@CA?AV?$basic_string@DU?$char_traits@D@std@@V?$allocator@D@2@@2@Verror_code@2@V32@@Z
_TEXT	SEGMENT
$T1 = 32
$T2 = 40
_Message$GSCopy$ = 48
$T3 = 56
__$ArrayPad$ = 88
__$ReturnUdt$ = 128
_Errcode$ = 136
_Message$ = 144
?_Makestr@_System_error@std@@CA?AV?$basic_string@DU?$char_traits@D@std@@V?$allocator@D@2@@2@Verror_code@2@V32@@Z PROC ; std::_System_error::_Makestr, COMDAT

; 509  : 		{	// compose error message

$LN205:
  00000	40 55		 push	 rbp
  00002	56		 push	 rsi
  00003	57		 push	 rdi
  00004	48 83 ec 60	 sub	 rsp, 96			; 00000060H
  00008	48 c7 44 24 28
	fe ff ff ff	 mov	 QWORD PTR $T2[rsp], -2
  00011	48 89 9c 24 98
	00 00 00	 mov	 QWORD PTR [rsp+152], rbx
  00019	48 8b 05 00 00
	00 00		 mov	 rax, QWORD PTR __security_cookie
  00020	48 33 c4	 xor	 rax, rsp
  00023	48 89 44 24 58	 mov	 QWORD PTR __$ArrayPad$[rsp], rax
  00028	49 8b d8	 mov	 rbx, r8
  0002b	48 8b f2	 mov	 rsi, rdx
  0002e	48 8b f9	 mov	 rdi, rcx
  00031	48 89 5c 24 30	 mov	 QWORD PTR _Message$GSCopy$[rsp], rbx
  00036	33 ed		 xor	 ebp, ebp
  00038	89 6c 24 20	 mov	 DWORD PTR $T1[rsp], ebp
  0003c	49 39 68 10	 cmp	 QWORD PTR [r8+16], rbp

; 510  : 		if (!_Message.empty())

  00040	74 13		 je	 SHORT $LN2@Makestr
; File c:\users\alist_000\cppmisc\packages\visualcpptools.14.0.24629\lib\native\include\xstring

; 2285 : 		return (append(_Ptr, _Traits::length(_Ptr)));

  00042	44 8d 45 02	 lea	 r8d, QWORD PTR [rbp+2]
  00046	48 8d 15 00 00
	00 00		 lea	 rdx, OFFSET FLAT:??_C@_02LMMGGCAJ@?3?5?$AA@
  0004d	48 8b cb	 mov	 rcx, rbx
  00050	e8 00 00 00 00	 call	 ?append@?$basic_string@DU?$char_traits@D@std@@V?$allocator@D@2@@std@@QEAAAEAV12@QEBD_K@Z ; std::basic_string<char,std::char_traits<char>,std::allocator<char> >::append
$LN2@Makestr:
; File c:\users\alist_000\cppmisc\packages\visualcpptools.14.0.24629\lib\native\include\system_error

; 512  : 		_Message.append(_Errcode.message());

  00055	48 8d 54 24 38	 lea	 rdx, QWORD PTR $T3[rsp]
  0005a	48 8b ce	 mov	 rcx, rsi
  0005d	e8 00 00 00 00	 call	 ?message@error_code@std@@QEBA?AV?$basic_string@DU?$char_traits@D@std@@V?$allocator@D@2@@2@XZ ; std::error_code::message
  00062	90		 npad	 1
; File c:\users\alist_000\cppmisc\packages\visualcpptools.14.0.24629\lib\native\include\xstring

; 2226 : 		return (append(_Right, 0, npos));

  00063	49 83 c9 ff	 or	 r9, -1
  00067	45 33 c0	 xor	 r8d, r8d
  0006a	48 8b d0	 mov	 rdx, rax
  0006d	48 8b cb	 mov	 rcx, rbx
  00070	e8 00 00 00 00	 call	 ?append@?$basic_string@DU?$char_traits@D@std@@V?$allocator@D@2@@std@@QEAAAEAV12@AEBV12@_K_K@Z ; std::basic_string<char,std::char_traits<char>,std::allocator<char> >::append
  00075	90		 npad	 1

; 1638 : 		return (this->_BUF_SIZE <= _Myres);

  00076	48 8b 44 24 50	 mov	 rax, QWORD PTR $T3[rsp+24]
  0007b	48 83 f8 10	 cmp	 rax, 16

; 3549 : 		if (_My_data._Large_string_engaged())

  0007f	72 4d		 jb	 SHORT $LN61@Makestr

; 3550 : 			{
; 3551 : 			pointer _Ptr = _My_data._Bx._Ptr;
; 3552 : 			auto& _Al = this->_Getal();
; 3553 : 			_Al.destroy(_STD addressof(_My_data._Bx._Ptr));
; 3554 : 			_Al.deallocate(_Ptr, _My_data._Myres + 1);

  00081	48 ff c0	 inc	 rax
; File c:\users\alist_000\cppmisc\packages\visualcpptools.14.0.24629\lib\native\include\xmemory0

; 816  : 		_Deallocate(_Ptr, _Count, sizeof (_Ty));

  00084	48 8b 4c 24 38	 mov	 rcx, QWORD PTR $T3[rsp]

; 98   : 	if (_BIG_ALLOCATION_THRESHOLD <= _User_size)

  00089	48 3d 00 10 00
	00		 cmp	 rax, 4096		; 00001000H
  0008f	72 38		 jb	 SHORT $LN56@Makestr

; 99   : 		{	// deallocate large block
; 100  : 		const uintptr_t _Ptr_user = reinterpret_cast<uintptr_t>(_Ptr);
; 101  : 		_SCL_SECURE_ALWAYS_VALIDATE(

  00091	f6 c1 1f	 test	 cl, 31
  00094	74 06		 je	 SHORT $LN57@Makestr
  00096	e8 00 00 00 00	 call	 _invalid_parameter_noinfo_noreturn
  0009b	cc		 int	 3
$LN57@Makestr:

; 102  : 			(_Ptr_user & (_BIG_ALLOCATION_ALIGNMENT - 1)) == 0);
; 103  : 		const uintptr_t _Ptr_ptr = _Ptr_user - sizeof(void *);
; 104  : 		const uintptr_t _Ptr_container =
; 105  : 			*reinterpret_cast<uintptr_t *>(_Ptr_ptr);

  0009c	48 8b 41 f8	 mov	 rax, QWORD PTR [rcx-8]

; 106  : 
; 107  :  #ifdef _DEBUG
; 108  : 		// If the following asserts, it likely means that we are performing
; 109  : 		// an aligned delete on memory coming from an unaligned allocation.
; 110  : 		_SCL_SECURE_ALWAYS_VALIDATE(
; 111  : 			reinterpret_cast<uintptr_t *>(_Ptr_ptr)[-1] ==
; 112  : 				_BIG_ALLOCATION_SENTINEL);
; 113  :  #endif /* _DEBUG */
; 114  : 
; 115  : 		// Extra paranoia on aligned allocation/deallocation
; 116  : 		_SCL_SECURE_ALWAYS_VALIDATE(_Ptr_container < _Ptr_user);

  000a0	48 3b c1	 cmp	 rax, rcx
  000a3	72 06		 jb	 SHORT $LN58@Makestr
  000a5	e8 00 00 00 00	 call	 _invalid_parameter_noinfo_noreturn
  000aa	cc		 int	 3
$LN58@Makestr:

; 117  : 
; 118  :  #ifdef _DEBUG
; 119  : 		_SCL_SECURE_ALWAYS_VALIDATE(2 * sizeof(void *)
; 120  : 			<= _Ptr_user - _Ptr_container);
; 121  : 
; 122  :  #else /* _DEBUG */
; 123  : 		_SCL_SECURE_ALWAYS_VALIDATE(sizeof(void *)

  000ab	48 2b c8	 sub	 rcx, rax
  000ae	48 83 f9 08	 cmp	 rcx, 8
  000b2	73 06		 jae	 SHORT $LN59@Makestr
  000b4	e8 00 00 00 00	 call	 _invalid_parameter_noinfo_noreturn
  000b9	cc		 int	 3
$LN59@Makestr:

; 124  : 			<= _Ptr_user - _Ptr_container);
; 125  :  #endif /* _DEBUG */
; 126  : 
; 127  : 		_SCL_SECURE_ALWAYS_VALIDATE(_Ptr_user - _Ptr_container

  000ba	48 83 f9 27	 cmp	 rcx, 39			; 00000027H
  000be	76 06		 jbe	 SHORT $LN60@Makestr
  000c0	e8 00 00 00 00	 call	 _invalid_parameter_noinfo_noreturn
  000c5	cc		 int	 3
$LN60@Makestr:

; 128  : 			<= _NON_USER_SIZE);
; 129  : 
; 130  : 		_Ptr = reinterpret_cast<void *>(_Ptr_container);

  000c6	48 8b c8	 mov	 rcx, rax
$LN56@Makestr:

; 131  : 		}
; 132  :  #endif /* defined(_M_IX86) || defined(_M_X64) */
; 133  : 
; 134  : 	::operator delete(_Ptr);

  000c9	e8 00 00 00 00	 call	 ??3@YAXPEAX@Z		; operator delete
$LN61@Makestr:
; File c:\users\alist_000\cppmisc\packages\visualcpptools.14.0.24629\lib\native\include\xstring

; 3539 : 		_My_data._Mysize = 0;

  000ce	48 89 6f 10	 mov	 QWORD PTR [rdi+16], rbp

; 3540 : 		_My_data._Myres = this->_BUF_SIZE - 1;

  000d2	48 c7 47 18 0f
	00 00 00	 mov	 QWORD PTR [rdi+24], 15
; File c:\users\alist_000\cppmisc\packages\visualcpptools.14.0.24629\lib\native\include\iosfwd

; 516  : 		_Left = _Right;

  000da	c6 07 00	 mov	 BYTE PTR [rdi], 0
; File c:\users\alist_000\cppmisc\packages\visualcpptools.14.0.24629\lib\native\include\xstring

; 1638 : 		return (this->_BUF_SIZE <= _Myres);

  000dd	48 83 7b 18 10	 cmp	 QWORD PTR [rbx+24], 16

; 2100 : 		if (_Right_data._Large_string_engaged())

  000e2	72 0b		 jb	 SHORT $LN106@Makestr
; File c:\users\alist_000\cppmisc\packages\visualcpptools.14.0.24629\lib\native\include\xmemory0

; 833  : 		::new ((void *)_Ptr) _Objty(_STD forward<_Types>(_Args)...);

  000e4	48 8b 03	 mov	 rax, QWORD PTR [rbx]
  000e7	48 89 07	 mov	 QWORD PTR [rdi], rax
; File c:\users\alist_000\cppmisc\packages\visualcpptools.14.0.24629\lib\native\include\xstring

; 2103 : 			_Right_data._Bx._Ptr = pointer();

  000ea	48 89 2b	 mov	 QWORD PTR [rbx], rbp

; 2104 : 			}
; 2105 : 		else

  000ed	eb 12		 jmp	 SHORT $LN152@Makestr
$LN106@Makestr:

; 2106 : 			{	// copy small string buffer
; 2107 : 			_Traits::copy(_My_data._Bx._Buf, _Right_data._Bx._Buf, _Right_data._Mysize + 1);

  000ef	4c 8b 43 10	 mov	 r8, QWORD PTR [rbx+16]
  000f3	49 ff c0	 inc	 r8
; File c:\users\alist_000\cppmisc\packages\visualcpptools.14.0.24629\lib\native\include\iosfwd

; 485  : 		return ((_Elem *)_CSTD memcpy(_First1, _First2, _Count));

  000f6	48 8b d3	 mov	 rdx, rbx
  000f9	48 8b cf	 mov	 rcx, rdi
  000fc	e8 00 00 00 00	 call	 memcpy
$LN152@Makestr:
; File c:\users\alist_000\cppmisc\packages\visualcpptools.14.0.24629\lib\native\include\xstring

; 2109 : 		_My_data._Mysize = _Right_data._Mysize;

  00101	48 8b 43 10	 mov	 rax, QWORD PTR [rbx+16]
  00105	48 89 47 10	 mov	 QWORD PTR [rdi+16], rax

; 2110 : 		_My_data._Myres = _Right_data._Myres;

  00109	48 8b 43 18	 mov	 rax, QWORD PTR [rbx+24]
  0010d	48 89 47 18	 mov	 QWORD PTR [rdi+24], rax

; 3539 : 		_My_data._Mysize = 0;

  00111	48 89 6b 10	 mov	 QWORD PTR [rbx+16], rbp

; 3540 : 		_My_data._Myres = this->_BUF_SIZE - 1;

  00115	48 c7 43 18 0f
	00 00 00	 mov	 QWORD PTR [rbx+24], 15
; File c:\users\alist_000\cppmisc\packages\visualcpptools.14.0.24629\lib\native\include\iosfwd

; 516  : 		_Left = _Right;

  0011d	c6 03 00	 mov	 BYTE PTR [rbx], 0
; File c:\users\alist_000\cppmisc\packages\visualcpptools.14.0.24629\lib\native\include\xstring

; 1638 : 		return (this->_BUF_SIZE <= _Myres);

  00120	48 8b 43 18	 mov	 rax, QWORD PTR [rbx+24]
  00124	48 83 f8 10	 cmp	 rax, 16

; 3549 : 		if (_My_data._Large_string_engaged())

  00128	72 4b		 jb	 SHORT $LN199@Makestr

; 3550 : 			{
; 3551 : 			pointer _Ptr = _My_data._Bx._Ptr;
; 3552 : 			auto& _Al = this->_Getal();
; 3553 : 			_Al.destroy(_STD addressof(_My_data._Bx._Ptr));
; 3554 : 			_Al.deallocate(_Ptr, _My_data._Myres + 1);

  0012a	48 ff c0	 inc	 rax
; File c:\users\alist_000\cppmisc\packages\visualcpptools.14.0.24629\lib\native\include\xmemory0

; 816  : 		_Deallocate(_Ptr, _Count, sizeof (_Ty));

  0012d	48 8b 0b	 mov	 rcx, QWORD PTR [rbx]

; 98   : 	if (_BIG_ALLOCATION_THRESHOLD <= _User_size)

  00130	48 3d 00 10 00
	00		 cmp	 rax, 4096		; 00001000H
  00136	72 38		 jb	 SHORT $LN194@Makestr

; 99   : 		{	// deallocate large block
; 100  : 		const uintptr_t _Ptr_user = reinterpret_cast<uintptr_t>(_Ptr);
; 101  : 		_SCL_SECURE_ALWAYS_VALIDATE(

  00138	f6 c1 1f	 test	 cl, 31
  0013b	74 06		 je	 SHORT $LN195@Makestr
  0013d	e8 00 00 00 00	 call	 _invalid_parameter_noinfo_noreturn
  00142	cc		 int	 3
$LN195@Makestr:

; 102  : 			(_Ptr_user & (_BIG_ALLOCATION_ALIGNMENT - 1)) == 0);
; 103  : 		const uintptr_t _Ptr_ptr = _Ptr_user - sizeof(void *);
; 104  : 		const uintptr_t _Ptr_container =
; 105  : 			*reinterpret_cast<uintptr_t *>(_Ptr_ptr);

  00143	48 8b 41 f8	 mov	 rax, QWORD PTR [rcx-8]

; 106  : 
; 107  :  #ifdef _DEBUG
; 108  : 		// If the following asserts, it likely means that we are performing
; 109  : 		// an aligned delete on memory coming from an unaligned allocation.
; 110  : 		_SCL_SECURE_ALWAYS_VALIDATE(
; 111  : 			reinterpret_cast<uintptr_t *>(_Ptr_ptr)[-1] ==
; 112  : 				_BIG_ALLOCATION_SENTINEL);
; 113  :  #endif /* _DEBUG */
; 114  : 
; 115  : 		// Extra paranoia on aligned allocation/deallocation
; 116  : 		_SCL_SECURE_ALWAYS_VALIDATE(_Ptr_container < _Ptr_user);

  00147	48 3b c1	 cmp	 rax, rcx
  0014a	72 06		 jb	 SHORT $LN196@Makestr
  0014c	e8 00 00 00 00	 call	 _invalid_parameter_noinfo_noreturn
  00151	cc		 int	 3
$LN196@Makestr:

; 117  : 
; 118  :  #ifdef _DEBUG
; 119  : 		_SCL_SECURE_ALWAYS_VALIDATE(2 * sizeof(void *)
; 120  : 			<= _Ptr_user - _Ptr_container);
; 121  : 
; 122  :  #else /* _DEBUG */
; 123  : 		_SCL_SECURE_ALWAYS_VALIDATE(sizeof(void *)

  00152	48 2b c8	 sub	 rcx, rax
  00155	48 83 f9 08	 cmp	 rcx, 8
  00159	73 06		 jae	 SHORT $LN197@Makestr
  0015b	e8 00 00 00 00	 call	 _invalid_parameter_noinfo_noreturn
  00160	cc		 int	 3
$LN197@Makestr:

; 124  : 			<= _Ptr_user - _Ptr_container);
; 125  :  #endif /* _DEBUG */
; 126  : 
; 127  : 		_SCL_SECURE_ALWAYS_VALIDATE(_Ptr_user - _Ptr_container

  00161	48 83 f9 27	 cmp	 rcx, 39			; 00000027H
  00165	76 06		 jbe	 SHORT $LN198@Makestr
  00167	e8 00 00 00 00	 call	 _invalid_parameter_noinfo_noreturn
  0016c	cc		 int	 3
$LN198@Makestr:

; 128  : 			<= _NON_USER_SIZE);
; 129  : 
; 130  : 		_Ptr = reinterpret_cast<void *>(_Ptr_container);

  0016d	48 8b c8	 mov	 rcx, rax
$LN194@Makestr:

; 131  : 		}
; 132  :  #endif /* defined(_M_IX86) || defined(_M_X64) */
; 133  : 
; 134  : 	::operator delete(_Ptr);

  00170	e8 00 00 00 00	 call	 ??3@YAXPEAX@Z		; operator delete
$LN199@Makestr:
; File c:\users\alist_000\cppmisc\packages\visualcpptools.14.0.24629\lib\native\include\system_error

; 513  : 		return (_Message);

  00175	48 8b c7	 mov	 rax, rdi

; 514  : 		}

  00178	48 8b 4c 24 58	 mov	 rcx, QWORD PTR __$ArrayPad$[rsp]
  0017d	48 33 cc	 xor	 rcx, rsp
  00180	e8 00 00 00 00	 call	 __security_check_cookie
  00185	48 8b 9c 24 98
	00 00 00	 mov	 rbx, QWORD PTR [rsp+152]
  0018d	48 83 c4 60	 add	 rsp, 96			; 00000060H
  00191	5f		 pop	 rdi
  00192	5e		 pop	 rsi
  00193	5d		 pop	 rbp
  00194	c3		 ret	 0
$LN204@Makestr:
?_Makestr@_System_error@std@@CA?AV?$basic_string@DU?$char_traits@D@std@@V?$allocator@D@2@@2@Verror_code@2@V32@@Z ENDP ; std::_System_error::_Makestr
_TEXT	ENDS
;	COMDAT text$x
text$x	SEGMENT
$T1 = 32
$T2 = 40
_Message$GSCopy$ = 48
$T3 = 56
__$ArrayPad$ = 88
__$ReturnUdt$ = 128
_Errcode$ = 136
_Message$ = 144
?dtor$0@?0??_Makestr@_System_error@std@@CA?AV?$basic_string@DU?$char_traits@D@std@@V?$allocator@D@2@@2@Verror_code@2@V32@@Z@4HA PROC ; `std::_System_error::_Makestr'::`1'::dtor$0
  00000	48 8b 8a 30 00
	00 00		 mov	 rcx, QWORD PTR _Message$GSCopy$[rdx]
  00007	e9 00 00 00 00	 jmp	 ??1?$basic_string@DU?$char_traits@D@std@@V?$allocator@D@2@@std@@QEAA@XZ ; std::basic_string<char,std::char_traits<char>,std::allocator<char> >::~basic_string<char,std::char_traits<char>,std::allocator<char> >
?dtor$0@?0??_Makestr@_System_error@std@@CA?AV?$basic_string@DU?$char_traits@D@std@@V?$allocator@D@2@@2@Verror_code@2@V32@@Z@4HA ENDP ; `std::_System_error::_Makestr'::`1'::dtor$0
$T1 = 32
$T2 = 40
_Message$GSCopy$ = 48
$T3 = 56
__$ArrayPad$ = 88
__$ReturnUdt$ = 128
_Errcode$ = 136
_Message$ = 144
?dtor$1@?0??_Makestr@_System_error@std@@CA?AV?$basic_string@DU?$char_traits@D@std@@V?$allocator@D@2@@2@Verror_code@2@V32@@Z@4HA PROC ; `std::_System_error::_Makestr'::`1'::dtor$1
  0000c	48 8d 8a 38 00
	00 00		 lea	 rcx, QWORD PTR $T3[rdx]
  00013	e9 00 00 00 00	 jmp	 ??1?$basic_string@DU?$char_traits@D@std@@V?$allocator@D@2@@std@@QEAA@XZ ; std::basic_string<char,std::char_traits<char>,std::allocator<char> >::~basic_string<char,std::char_traits<char>,std::allocator<char> >
?dtor$1@?0??_Makestr@_System_error@std@@CA?AV?$basic_string@DU?$char_traits@D@std@@V?$allocator@D@2@@2@Verror_code@2@V32@@Z@4HA ENDP ; `std::_System_error::_Makestr'::`1'::dtor$1
text$x	ENDS
; Function compile flags: /Ogtpy
;	COMDAT text$x
text$x	SEGMENT
$T1 = 32
$T2 = 40
_Message$GSCopy$ = 48
$T3 = 56
__$ArrayPad$ = 88
__$ReturnUdt$ = 128
_Errcode$ = 136
_Message$ = 144
?dtor$0@?0??_Makestr@_System_error@std@@CA?AV?$basic_string@DU?$char_traits@D@std@@V?$allocator@D@2@@2@Verror_code@2@V32@@Z@4HA PROC ; `std::_System_error::_Makestr'::`1'::dtor$0
  00000	48 8b 8a 30 00
	00 00		 mov	 rcx, QWORD PTR _Message$GSCopy$[rdx]
  00007	e9 00 00 00 00	 jmp	 ??1?$basic_string@DU?$char_traits@D@std@@V?$allocator@D@2@@std@@QEAA@XZ ; std::basic_string<char,std::char_traits<char>,std::allocator<char> >::~basic_string<char,std::char_traits<char>,std::allocator<char> >
?dtor$0@?0??_Makestr@_System_error@std@@CA?AV?$basic_string@DU?$char_traits@D@std@@V?$allocator@D@2@@2@Verror_code@2@V32@@Z@4HA ENDP ; `std::_System_error::_Makestr'::`1'::dtor$0
text$x	ENDS
; Function compile flags: /Ogtpy
;	COMDAT text$x
text$x	SEGMENT
$T1 = 32
$T2 = 40
_Message$GSCopy$ = 48
$T3 = 56
__$ArrayPad$ = 88
__$ReturnUdt$ = 128
_Errcode$ = 136
_Message$ = 144
?dtor$1@?0??_Makestr@_System_error@std@@CA?AV?$basic_string@DU?$char_traits@D@std@@V?$allocator@D@2@@2@Verror_code@2@V32@@Z@4HA PROC ; `std::_System_error::_Makestr'::`1'::dtor$1
  0000c	48 8d 8a 38 00
	00 00		 lea	 rcx, QWORD PTR $T3[rdx]
  00013	e9 00 00 00 00	 jmp	 ??1?$basic_string@DU?$char_traits@D@std@@V?$allocator@D@2@@std@@QEAA@XZ ; std::basic_string<char,std::char_traits<char>,std::allocator<char> >::~basic_string<char,std::char_traits<char>,std::allocator<char> >
?dtor$1@?0??_Makestr@_System_error@std@@CA?AV?$basic_string@DU?$char_traits@D@std@@V?$allocator@D@2@@2@Verror_code@2@V32@@Z@4HA ENDP ; `std::_System_error::_Makestr'::`1'::dtor$1
text$x	ENDS
; Function compile flags: /Ogtpy
; File c:\users\alist_000\cppmisc\packages\visualcpptools.14.0.24629\lib\native\include\system_error
; File c:\users\alist_000\cppmisc\packages\visualcpptools.14.0.24629\lib\native\include\xstring
; File c:\users\alist_000\cppmisc\packages\visualcpptools.14.0.24629\lib\native\include\system_error
; File c:\users\alist_000\cppmisc\packages\visualcpptools.14.0.24629\lib\native\include\xstring
; File c:\users\alist_000\cppmisc\packages\visualcpptools.14.0.24629\lib\native\include\system_error
; File c:\users\alist_000\cppmisc\packages\visualcpptools.14.0.24629\lib\native\include\iosfwd
; File c:\users\alist_000\cppmisc\packages\visualcpptools.14.0.24629\lib\native\include\xstring
; File c:\users\alist_000\cppmisc\packages\visualcpptools.14.0.24629\lib\native\include\system_error
; File c:\users\alist_000\cppmisc\packages\visualcpptools.14.0.24629\lib\native\include\xstring
; File c:\users\alist_000\cppmisc\packages\visualcpptools.14.0.24629\lib\native\include\xstddef
; File c:\users\alist_000\cppmisc\packages\visualcpptools.14.0.24629\lib\native\include\vcruntime_exception.h
; File c:\users\alist_000\cppmisc\packages\visualcpptools.14.0.24629\lib\native\include\stdexcept
; File c:\users\alist_000\cppmisc\packages\visualcpptools.14.0.24629\lib\native\include\xstring
; File c:\users\alist_000\cppmisc\packages\visualcpptools.14.0.24629\lib\native\include\xmemory0
; File c:\users\alist_000\cppmisc\packages\visualcpptools.14.0.24629\lib\native\include\xstring
; File c:\users\alist_000\cppmisc\packages\visualcpptools.14.0.24629\lib\native\include\xmemory0
; File c:\users\alist_000\cppmisc\packages\visualcpptools.14.0.24629\lib\native\include\system_error
; File c:\users\alist_000\cppmisc\packages\visualcpptools.14.0.24629\lib\native\include\xmemory0
; File c:\users\alist_000\cppmisc\packages\visualcpptools.14.0.24629\lib\native\include\system_error
;	COMDAT ??0_System_error@std@@IEAA@Verror_code@1@AEBV?$basic_string@DU?$char_traits@D@std@@V?$allocator@D@2@@1@@Z
_TEXT	SEGMENT
_InitData$1 = 32
$T2 = 32
$T3 = 48
$T4 = 80
__$ArrayPad$ = 112
this$ = 144
_Errcode$ = 152
_Message$ = 160
??0_System_error@std@@IEAA@Verror_code@1@AEBV?$basic_string@DU?$char_traits@D@std@@V?$allocator@D@2@@1@@Z PROC ; std::_System_error::_System_error, COMDAT

; 519  : 		{	// construct from error code and message string

$LN115:
  00000	48 89 5c 24 20	 mov	 QWORD PTR [rsp+32], rbx
  00005	57		 push	 rdi
  00006	48 81 ec 80 00
	00 00		 sub	 rsp, 128		; 00000080H
  0000d	48 8b 05 00 00
	00 00		 mov	 rax, QWORD PTR __security_cookie
  00014	48 33 c4	 xor	 rax, rsp
  00017	48 89 44 24 70	 mov	 QWORD PTR __$ArrayPad$[rsp], rax
  0001c	49 8b c0	 mov	 rax, r8
; File c:\users\alist_000\cppmisc\packages\visualcpptools.14.0.24629\lib\native\include\xstring

; 3539 : 		_My_data._Mysize = 0;

  0001f	48 c7 44 24 40
	00 00 00 00	 mov	 QWORD PTR $T3[rsp+16], 0
; File c:\users\alist_000\cppmisc\packages\visualcpptools.14.0.24629\lib\native\include\system_error

; 519  : 		{	// construct from error code and message string

  00028	48 8b fa	 mov	 rdi, rdx
; File c:\users\alist_000\cppmisc\packages\visualcpptools.14.0.24629\lib\native\include\xstring

; 3540 : 		_My_data._Myres = this->_BUF_SIZE - 1;

  0002b	48 c7 44 24 48
	0f 00 00 00	 mov	 QWORD PTR $T3[rsp+24], 15
; File c:\users\alist_000\cppmisc\packages\visualcpptools.14.0.24629\lib\native\include\system_error

; 519  : 		{	// construct from error code and message string

  00034	48 8b d9	 mov	 rbx, rcx
; File c:\users\alist_000\cppmisc\packages\visualcpptools.14.0.24629\lib\native\include\iosfwd

; 516  : 		_Left = _Right;

  00037	c6 44 24 30 00	 mov	 BYTE PTR $T3[rsp], 0
; File c:\users\alist_000\cppmisc\packages\visualcpptools.14.0.24629\lib\native\include\xstring

; 2117 : 		assign(_Right, 0, npos);

  0003c	48 8b d0	 mov	 rdx, rax
  0003f	48 8d 4c 24 30	 lea	 rcx, QWORD PTR $T3[rsp]
  00044	49 83 c9 ff	 or	 r9, -1
  00048	45 33 c0	 xor	 r8d, r8d
  0004b	e8 00 00 00 00	 call	 ?assign@?$basic_string@DU?$char_traits@D@std@@V?$allocator@D@2@@std@@QEAAAEAV12@AEBV12@_K_K@Z ; std::basic_string<char,std::char_traits<char>,std::allocator<char> >::assign
; File c:\users\alist_000\cppmisc\packages\visualcpptools.14.0.24629\lib\native\include\system_error

; 518  : 		: runtime_error(_Makestr(_Errcode, _Message)), _Mycode(_Errcode)

  00050	0f 10 07	 movups	 xmm0, XMMWORD PTR [rdi]
  00053	4c 8d 44 24 30	 lea	 r8, QWORD PTR $T3[rsp]
  00058	48 8d 54 24 20	 lea	 rdx, QWORD PTR $T2[rsp]
  0005d	48 8d 4c 24 50	 lea	 rcx, QWORD PTR $T4[rsp]
  00062	0f 29 44 24 20	 movaps	 XMMWORD PTR $T2[rsp], xmm0
  00067	e8 00 00 00 00	 call	 ?_Makestr@_System_error@std@@CA?AV?$basic_string@DU?$char_traits@D@std@@V?$allocator@D@2@@2@Verror_code@2@V32@@Z ; std::_System_error::_Makestr
; File c:\users\alist_000\cppmisc\packages\visualcpptools.14.0.24629\lib\native\include\xstring

; 1638 : 		return (this->_BUF_SIZE <= _Myres);

  0006c	48 83 78 18 10	 cmp	 QWORD PTR [rax+24], 16

; 1631 : 		return (_Large_string_engaged()

  00071	72 03		 jb	 SHORT $LN61@System_err
; File c:\users\alist_000\cppmisc\packages\visualcpptools.14.0.24629\lib\native\include\xstddef

; 642  : 	return (_Ptr);

  00073	48 8b 00	 mov	 rax, QWORD PTR [rax]
$LN61@System_err:
; File c:\users\alist_000\cppmisc\packages\visualcpptools.14.0.24629\lib\native\include\vcruntime_exception.h

; 52   :         : _Data()

  00076	48 8d 53 08	 lea	 rdx, QWORD PTR [rbx+8]

; 53   :     {
; 54   :         __std_exception_data _InitData = { _Message, true };

  0007a	48 89 44 24 20	 mov	 QWORD PTR _InitData$1[rsp], rax
  0007f	48 8d 0d 00 00
	00 00		 lea	 rcx, OFFSET FLAT:??_7exception@std@@6B@
  00086	c6 44 24 28 01	 mov	 BYTE PTR _InitData$1[rsp+8], 1
  0008b	48 89 0b	 mov	 QWORD PTR [rbx], rcx
  0008e	33 c9		 xor	 ecx, ecx
  00090	48 89 0a	 mov	 QWORD PTR [rdx], rcx
  00093	48 89 4a 08	 mov	 QWORD PTR [rdx+8], rcx

; 55   :         __std_exception_copy(&_InitData, &_Data);

  00097	48 8d 4c 24 20	 lea	 rcx, QWORD PTR _InitData$1[rsp]
  0009c	e8 00 00 00 00	 call	 __std_exception_copy
; File c:\users\alist_000\cppmisc\packages\visualcpptools.14.0.24629\lib\native\include\stdexcept

; 163  : 		{	// construct from message string

  000a1	48 8d 05 00 00
	00 00		 lea	 rax, OFFSET FLAT:??_7runtime_error@std@@6B@
  000a8	48 89 03	 mov	 QWORD PTR [rbx], rax
; File c:\users\alist_000\cppmisc\packages\visualcpptools.14.0.24629\lib\native\include\xstring

; 1638 : 		return (this->_BUF_SIZE <= _Myres);

  000ab	48 8b 44 24 68	 mov	 rax, QWORD PTR $T4[rsp+24]
  000b0	48 83 f8 10	 cmp	 rax, 16

; 3549 : 		if (_My_data._Large_string_engaged())

  000b4	72 35		 jb	 SHORT $LN103@System_err
; File c:\users\alist_000\cppmisc\packages\visualcpptools.14.0.24629\lib\native\include\xmemory0

; 816  : 		_Deallocate(_Ptr, _Count, sizeof (_Ty));

  000b6	48 8b 4c 24 50	 mov	 rcx, QWORD PTR $T4[rsp]
; File c:\users\alist_000\cppmisc\packages\visualcpptools.14.0.24629\lib\native\include\xstring

; 3554 : 			_Al.deallocate(_Ptr, _My_data._Myres + 1);

  000bb	48 ff c0	 inc	 rax
; File c:\users\alist_000\cppmisc\packages\visualcpptools.14.0.24629\lib\native\include\xmemory0

; 98   : 	if (_BIG_ALLOCATION_THRESHOLD <= _User_size)

  000be	48 3d 00 10 00
	00		 cmp	 rax, 4096		; 00001000H
  000c4	72 20		 jb	 SHORT $LN98@System_err

; 101  : 		_SCL_SECURE_ALWAYS_VALIDATE(

  000c6	f6 c1 1f	 test	 cl, 31
  000c9	75 52		 jne	 SHORT $LN110@System_err

; 102  : 			(_Ptr_user & (_BIG_ALLOCATION_ALIGNMENT - 1)) == 0);
; 103  : 		const uintptr_t _Ptr_ptr = _Ptr_user - sizeof(void *);
; 104  : 		const uintptr_t _Ptr_container =
; 105  : 			*reinterpret_cast<uintptr_t *>(_Ptr_ptr);

  000cb	48 8b 41 f8	 mov	 rax, QWORD PTR [rcx-8]

; 106  : 
; 107  :  #ifdef _DEBUG
; 108  : 		// If the following asserts, it likely means that we are performing
; 109  : 		// an aligned delete on memory coming from an unaligned allocation.
; 110  : 		_SCL_SECURE_ALWAYS_VALIDATE(
; 111  : 			reinterpret_cast<uintptr_t *>(_Ptr_ptr)[-1] ==
; 112  : 				_BIG_ALLOCATION_SENTINEL);
; 113  :  #endif /* _DEBUG */
; 114  : 
; 115  : 		// Extra paranoia on aligned allocation/deallocation
; 116  : 		_SCL_SECURE_ALWAYS_VALIDATE(_Ptr_container < _Ptr_user);

  000cf	48 3b c1	 cmp	 rax, rcx
  000d2	73 4f		 jae	 SHORT $LN112@System_err

; 117  : 
; 118  :  #ifdef _DEBUG
; 119  : 		_SCL_SECURE_ALWAYS_VALIDATE(2 * sizeof(void *)
; 120  : 			<= _Ptr_user - _Ptr_container);
; 121  : 
; 122  :  #else /* _DEBUG */
; 123  : 		_SCL_SECURE_ALWAYS_VALIDATE(sizeof(void *)

  000d4	48 2b c8	 sub	 rcx, rax
  000d7	48 83 f9 08	 cmp	 rcx, 8
  000db	72 4c		 jb	 SHORT $LN113@System_err

; 124  : 			<= _Ptr_user - _Ptr_container);
; 125  :  #endif /* _DEBUG */
; 126  : 
; 127  : 		_SCL_SECURE_ALWAYS_VALIDATE(_Ptr_user - _Ptr_container

  000dd	48 83 f9 27	 cmp	 rcx, 39			; 00000027H
  000e1	77 4c		 ja	 SHORT $LN114@System_err

; 128  : 			<= _NON_USER_SIZE);
; 129  : 
; 130  : 		_Ptr = reinterpret_cast<void *>(_Ptr_container);

  000e3	48 8b c8	 mov	 rcx, rax
$LN98@System_err:

; 131  : 		}
; 132  :  #endif /* defined(_M_IX86) || defined(_M_X64) */
; 133  : 
; 134  : 	::operator delete(_Ptr);

  000e6	e8 00 00 00 00	 call	 ??3@YAXPEAX@Z		; operator delete
$LN103@System_err:
; File c:\users\alist_000\cppmisc\packages\visualcpptools.14.0.24629\lib\native\include\system_error

; 519  : 		{	// construct from error code and message string

  000eb	48 8d 05 00 00
	00 00		 lea	 rax, OFFSET FLAT:??_7_System_error@std@@6B@
  000f2	48 89 03	 mov	 QWORD PTR [rbx], rax

; 520  : 		}

  000f5	48 8b c3	 mov	 rax, rbx
  000f8	0f 10 07	 movups	 xmm0, XMMWORD PTR [rdi]
  000fb	0f 11 43 18	 movups	 XMMWORD PTR [rbx+24], xmm0
  000ff	48 8b 4c 24 70	 mov	 rcx, QWORD PTR __$ArrayPad$[rsp]
  00104	48 33 cc	 xor	 rcx, rsp
  00107	e8 00 00 00 00	 call	 __security_check_cookie
  0010c	48 8b 9c 24 a8
	00 00 00	 mov	 rbx, QWORD PTR [rsp+168]
  00114	48 81 c4 80 00
	00 00		 add	 rsp, 128		; 00000080H
  0011b	5f		 pop	 rdi
  0011c	c3		 ret	 0
$LN110@System_err:
; File c:\users\alist_000\cppmisc\packages\visualcpptools.14.0.24629\lib\native\include\xmemory0

; 101  : 		_SCL_SECURE_ALWAYS_VALIDATE(

  0011d	e8 00 00 00 00	 call	 _invalid_parameter_noinfo_noreturn
  00122	cc		 int	 3
$LN112@System_err:

; 106  : 
; 107  :  #ifdef _DEBUG
; 108  : 		// If the following asserts, it likely means that we are performing
; 109  : 		// an aligned delete on memory coming from an unaligned allocation.
; 110  : 		_SCL_SECURE_ALWAYS_VALIDATE(
; 111  : 			reinterpret_cast<uintptr_t *>(_Ptr_ptr)[-1] ==
; 112  : 				_BIG_ALLOCATION_SENTINEL);
; 113  :  #endif /* _DEBUG */
; 114  : 
; 115  : 		// Extra paranoia on aligned allocation/deallocation
; 116  : 		_SCL_SECURE_ALWAYS_VALIDATE(_Ptr_container < _Ptr_user);

  00123	e8 00 00 00 00	 call	 _invalid_parameter_noinfo_noreturn
  00128	cc		 int	 3
$LN113@System_err:

; 117  : 
; 118  :  #ifdef _DEBUG
; 119  : 		_SCL_SECURE_ALWAYS_VALIDATE(2 * sizeof(void *)
; 120  : 			<= _Ptr_user - _Ptr_container);
; 121  : 
; 122  :  #else /* _DEBUG */
; 123  : 		_SCL_SECURE_ALWAYS_VALIDATE(sizeof(void *)

  00129	e8 00 00 00 00	 call	 _invalid_parameter_noinfo_noreturn
  0012e	cc		 int	 3
$LN114@System_err:

; 124  : 			<= _Ptr_user - _Ptr_container);
; 125  :  #endif /* _DEBUG */
; 126  : 
; 127  : 		_SCL_SECURE_ALWAYS_VALIDATE(_Ptr_user - _Ptr_container

  0012f	e8 00 00 00 00	 call	 _invalid_parameter_noinfo_noreturn
  00134	cc		 int	 3
$LN109@System_err:
??0_System_error@std@@IEAA@Verror_code@1@AEBV?$basic_string@DU?$char_traits@D@std@@V?$allocator@D@2@@1@@Z ENDP ; std::_System_error::_System_error
_TEXT	ENDS
; Function compile flags: /Ogtpy
; File c:\users\alist_000\cppmisc\packages\visualcpptools.14.0.24629\lib\native\include\vcruntime_exception.h
;	COMDAT ??_G_System_error@std@@UEAAPEAXI@Z
_TEXT	SEGMENT
this$ = 48
__flags$ = 56
??_G_System_error@std@@UEAAPEAXI@Z PROC			; std::_System_error::`scalar deleting destructor', COMDAT
$LN14:
  00000	48 89 5c 24 08	 mov	 QWORD PTR [rsp+8], rbx
  00005	57		 push	 rdi
  00006	48 83 ec 20	 sub	 rsp, 32			; 00000020H

; 83   :     {

  0000a	48 8d 05 00 00
	00 00		 lea	 rax, OFFSET FLAT:??_7exception@std@@6B@
  00011	48 8b f9	 mov	 rdi, rcx
  00014	48 89 01	 mov	 QWORD PTR [rcx], rax
  00017	8b da		 mov	 ebx, edx

; 84   :         __std_exception_destroy(&_Data);

  00019	48 83 c1 08	 add	 rcx, 8
  0001d	e8 00 00 00 00	 call	 __std_exception_destroy
  00022	f6 c3 01	 test	 bl, 1
  00025	74 0d		 je	 SHORT $LN12@scalar
  00027	ba 28 00 00 00	 mov	 edx, 40			; 00000028H
  0002c	48 8b cf	 mov	 rcx, rdi
  0002f	e8 00 00 00 00	 call	 ??3@YAXPEAX_K@Z		; operator delete
$LN12@scalar:
  00034	48 8b c7	 mov	 rax, rdi
  00037	48 8b 5c 24 30	 mov	 rbx, QWORD PTR [rsp+48]
  0003c	48 83 c4 20	 add	 rsp, 32			; 00000020H
  00040	5f		 pop	 rdi
  00041	c3		 ret	 0
??_G_System_error@std@@UEAAPEAXI@Z ENDP			; std::_System_error::`scalar deleting destructor'
_TEXT	ENDS
; Function compile flags: /Ogtpy
; File c:\users\alist_000\cppmisc\packages\visualcpptools.14.0.24629\lib\native\include\vcruntime_exception.h
;	COMDAT ??1_System_error@std@@UEAA@XZ
_TEXT	SEGMENT
this$ = 8
??1_System_error@std@@UEAA@XZ PROC			; std::_System_error::~_System_error, COMDAT

; 83   :     {

  00000	48 8d 05 00 00
	00 00		 lea	 rax, OFFSET FLAT:??_7exception@std@@6B@
  00007	48 89 01	 mov	 QWORD PTR [rcx], rax

; 84   :         __std_exception_destroy(&_Data);

  0000a	48 83 c1 08	 add	 rcx, 8
  0000e	e9 00 00 00 00	 jmp	 __std_exception_destroy
??1_System_error@std@@UEAA@XZ ENDP			; std::_System_error::~_System_error
_TEXT	ENDS
; Function compile flags: /Ogtpy
; File c:\users\alist_000\cppmisc\packages\visualcpptools.14.0.24629\lib\native\include\system_error
; File c:\users\alist_000\cppmisc\packages\visualcpptools.14.0.24629\lib\native\include\xstring
; File c:\users\alist_000\cppmisc\packages\visualcpptools.14.0.24629\lib\native\include\iosfwd
; File c:\users\alist_000\cppmisc\packages\visualcpptools.14.0.24629\lib\native\include\xstring
; File c:\users\alist_000\cppmisc\packages\visualcpptools.14.0.24629\lib\native\include\system_error
; File c:\users\alist_000\cppmisc\packages\visualcpptools.14.0.24629\lib\native\include\xstring
; File c:\users\alist_000\cppmisc\packages\visualcpptools.14.0.24629\lib\native\include\xmemory0
; File c:\users\alist_000\cppmisc\packages\visualcpptools.14.0.24629\lib\native\include\system_error
;	COMDAT ??0system_error@std@@QEAA@Verror_code@1@PEBD@Z
_TEXT	SEGMENT
$T1 = 48
$T2 = 64
__$ArrayPad$ = 96
this$ = 128
_Errcode$ = 136
_Message$ = 144
??0system_error@std@@QEAA@Verror_code@1@PEBD@Z PROC	; std::system_error::system_error, COMDAT

; 544  : 		{	// construct from error code and message string

$LN71:
  00000	4c 8b dc	 mov	 r11, rsp
  00003	57		 push	 rdi
  00004	48 83 ec 70	 sub	 rsp, 112		; 00000070H
  00008	49 c7 43 a8 fe
	ff ff ff	 mov	 QWORD PTR [r11-88], -2
  00010	49 89 5b 20	 mov	 QWORD PTR [r11+32], rbx
  00014	48 8b 05 00 00
	00 00		 mov	 rax, QWORD PTR __security_cookie
  0001b	48 33 c4	 xor	 rax, rsp
  0001e	48 89 44 24 60	 mov	 QWORD PTR __$ArrayPad$[rsp], rax
  00023	49 8b c0	 mov	 rax, r8
  00026	48 8b fa	 mov	 rdi, rdx
  00029	48 8b d9	 mov	 rbx, rcx
; File c:\users\alist_000\cppmisc\packages\visualcpptools.14.0.24629\lib\native\include\xstring

; 3539 : 		_My_data._Mysize = 0;

  0002c	49 c7 43 d8 00
	00 00 00	 mov	 QWORD PTR [r11-40], 0

; 3540 : 		_My_data._Myres = this->_BUF_SIZE - 1;

  00034	49 c7 43 e0 0f
	00 00 00	 mov	 QWORD PTR [r11-32], 15
; File c:\users\alist_000\cppmisc\packages\visualcpptools.14.0.24629\lib\native\include\iosfwd

; 516  : 		_Left = _Right;

  0003c	c6 44 24 40 00	 mov	 BYTE PTR $T2[rsp], 0

; 479  : 		return (_CSTD strlen(_First));

  00041	49 83 c8 ff	 or	 r8, -1
$LL69@system_err:
  00045	49 ff c0	 inc	 r8
  00048	42 80 3c 00 00	 cmp	 BYTE PTR [rax+r8], 0
  0004d	75 f6		 jne	 SHORT $LL69@system_err
; File c:\users\alist_000\cppmisc\packages\visualcpptools.14.0.24629\lib\native\include\xstring

; 2377 : 		return (assign(_Ptr, _Traits::length(_Ptr)));

  0004f	48 8b d0	 mov	 rdx, rax
  00052	48 8d 4c 24 40	 lea	 rcx, QWORD PTR $T2[rsp]
  00057	e8 00 00 00 00	 call	 ?assign@?$basic_string@DU?$char_traits@D@std@@V?$allocator@D@2@@std@@QEAAAEAV12@QEBD_K@Z ; std::basic_string<char,std::char_traits<char>,std::allocator<char> >::assign
  0005c	90		 npad	 1
; File c:\users\alist_000\cppmisc\packages\visualcpptools.14.0.24629\lib\native\include\system_error

; 543  : 		: _Mybase(_Errcode, _Message)

  0005d	0f 10 07	 movups	 xmm0, XMMWORD PTR [rdi]
  00060	0f 29 44 24 30	 movaps	 XMMWORD PTR $T1[rsp], xmm0
  00065	4c 8d 44 24 40	 lea	 r8, QWORD PTR $T2[rsp]
  0006a	48 8d 54 24 30	 lea	 rdx, QWORD PTR $T1[rsp]
  0006f	48 8b cb	 mov	 rcx, rbx
  00072	e8 00 00 00 00	 call	 ??0_System_error@std@@IEAA@Verror_code@1@AEBV?$basic_string@DU?$char_traits@D@std@@V?$allocator@D@2@@1@@Z ; std::_System_error::_System_error
  00077	90		 npad	 1
; File c:\users\alist_000\cppmisc\packages\visualcpptools.14.0.24629\lib\native\include\xstring

; 1638 : 		return (this->_BUF_SIZE <= _Myres);

  00078	48 8b 44 24 58	 mov	 rax, QWORD PTR $T2[rsp+24]
  0007d	48 83 f8 10	 cmp	 rax, 16

; 3549 : 		if (_My_data._Large_string_engaged())

  00081	72 4d		 jb	 SHORT $LN63@system_err

; 3550 : 			{
; 3551 : 			pointer _Ptr = _My_data._Bx._Ptr;
; 3552 : 			auto& _Al = this->_Getal();
; 3553 : 			_Al.destroy(_STD addressof(_My_data._Bx._Ptr));
; 3554 : 			_Al.deallocate(_Ptr, _My_data._Myres + 1);

  00083	48 ff c0	 inc	 rax
; File c:\users\alist_000\cppmisc\packages\visualcpptools.14.0.24629\lib\native\include\xmemory0

; 816  : 		_Deallocate(_Ptr, _Count, sizeof (_Ty));

  00086	48 8b 4c 24 40	 mov	 rcx, QWORD PTR $T2[rsp]

; 98   : 	if (_BIG_ALLOCATION_THRESHOLD <= _User_size)

  0008b	48 3d 00 10 00
	00		 cmp	 rax, 4096		; 00001000H
  00091	72 38		 jb	 SHORT $LN58@system_err

; 99   : 		{	// deallocate large block
; 100  : 		const uintptr_t _Ptr_user = reinterpret_cast<uintptr_t>(_Ptr);
; 101  : 		_SCL_SECURE_ALWAYS_VALIDATE(

  00093	f6 c1 1f	 test	 cl, 31
  00096	74 06		 je	 SHORT $LN59@system_err
  00098	e8 00 00 00 00	 call	 _invalid_parameter_noinfo_noreturn
  0009d	cc		 int	 3
$LN59@system_err:

; 102  : 			(_Ptr_user & (_BIG_ALLOCATION_ALIGNMENT - 1)) == 0);
; 103  : 		const uintptr_t _Ptr_ptr = _Ptr_user - sizeof(void *);
; 104  : 		const uintptr_t _Ptr_container =
; 105  : 			*reinterpret_cast<uintptr_t *>(_Ptr_ptr);

  0009e	48 8b 41 f8	 mov	 rax, QWORD PTR [rcx-8]

; 106  : 
; 107  :  #ifdef _DEBUG
; 108  : 		// If the following asserts, it likely means that we are performing
; 109  : 		// an aligned delete on memory coming from an unaligned allocation.
; 110  : 		_SCL_SECURE_ALWAYS_VALIDATE(
; 111  : 			reinterpret_cast<uintptr_t *>(_Ptr_ptr)[-1] ==
; 112  : 				_BIG_ALLOCATION_SENTINEL);
; 113  :  #endif /* _DEBUG */
; 114  : 
; 115  : 		// Extra paranoia on aligned allocation/deallocation
; 116  : 		_SCL_SECURE_ALWAYS_VALIDATE(_Ptr_container < _Ptr_user);

  000a2	48 3b c1	 cmp	 rax, rcx
  000a5	72 06		 jb	 SHORT $LN60@system_err
  000a7	e8 00 00 00 00	 call	 _invalid_parameter_noinfo_noreturn
  000ac	cc		 int	 3
$LN60@system_err:

; 117  : 
; 118  :  #ifdef _DEBUG
; 119  : 		_SCL_SECURE_ALWAYS_VALIDATE(2 * sizeof(void *)
; 120  : 			<= _Ptr_user - _Ptr_container);
; 121  : 
; 122  :  #else /* _DEBUG */
; 123  : 		_SCL_SECURE_ALWAYS_VALIDATE(sizeof(void *)

  000ad	48 2b c8	 sub	 rcx, rax
  000b0	48 83 f9 08	 cmp	 rcx, 8
  000b4	73 06		 jae	 SHORT $LN61@system_err
  000b6	e8 00 00 00 00	 call	 _invalid_parameter_noinfo_noreturn
  000bb	cc		 int	 3
$LN61@system_err:

; 124  : 			<= _Ptr_user - _Ptr_container);
; 125  :  #endif /* _DEBUG */
; 126  : 
; 127  : 		_SCL_SECURE_ALWAYS_VALIDATE(_Ptr_user - _Ptr_container

  000bc	48 83 f9 27	 cmp	 rcx, 39			; 00000027H
  000c0	76 06		 jbe	 SHORT $LN62@system_err
  000c2	e8 00 00 00 00	 call	 _invalid_parameter_noinfo_noreturn
  000c7	cc		 int	 3
$LN62@system_err:

; 128  : 			<= _NON_USER_SIZE);
; 129  : 
; 130  : 		_Ptr = reinterpret_cast<void *>(_Ptr_container);

  000c8	48 8b c8	 mov	 rcx, rax
$LN58@system_err:

; 131  : 		}
; 132  :  #endif /* defined(_M_IX86) || defined(_M_X64) */
; 133  : 
; 134  : 	::operator delete(_Ptr);

  000cb	e8 00 00 00 00	 call	 ??3@YAXPEAX@Z		; operator delete
$LN63@system_err:
; File c:\users\alist_000\cppmisc\packages\visualcpptools.14.0.24629\lib\native\include\system_error

; 544  : 		{	// construct from error code and message string

  000d0	48 8d 05 00 00
	00 00		 lea	 rax, OFFSET FLAT:??_7system_error@std@@6B@
  000d7	48 89 03	 mov	 QWORD PTR [rbx], rax

; 545  : 		}

  000da	48 8b c3	 mov	 rax, rbx
  000dd	48 8b 4c 24 60	 mov	 rcx, QWORD PTR __$ArrayPad$[rsp]
  000e2	48 33 cc	 xor	 rcx, rsp
  000e5	e8 00 00 00 00	 call	 __security_check_cookie
  000ea	48 8b 9c 24 98
	00 00 00	 mov	 rbx, QWORD PTR [rsp+152]
  000f2	48 83 c4 70	 add	 rsp, 112		; 00000070H
  000f6	5f		 pop	 rdi
  000f7	c3		 ret	 0
$LN70@system_err:
??0system_error@std@@QEAA@Verror_code@1@PEBD@Z ENDP	; std::system_error::system_error
_TEXT	ENDS
;	COMDAT text$x
text$x	SEGMENT
$T1 = 48
$T2 = 64
__$ArrayPad$ = 96
this$ = 128
_Errcode$ = 136
_Message$ = 144
?dtor$0@?0???0system_error@std@@QEAA@Verror_code@1@PEBD@Z@4HA PROC ; `std::system_error::system_error'::`1'::dtor$0
  00000	48 8d 8a 40 00
	00 00		 lea	 rcx, QWORD PTR $T2[rdx]
  00007	e9 00 00 00 00	 jmp	 ??1?$basic_string@DU?$char_traits@D@std@@V?$allocator@D@2@@std@@QEAA@XZ ; std::basic_string<char,std::char_traits<char>,std::allocator<char> >::~basic_string<char,std::char_traits<char>,std::allocator<char> >
?dtor$0@?0???0system_error@std@@QEAA@Verror_code@1@PEBD@Z@4HA ENDP ; `std::system_error::system_error'::`1'::dtor$0
text$x	ENDS
; Function compile flags: /Ogtpy
;	COMDAT text$x
text$x	SEGMENT
$T1 = 48
$T2 = 64
__$ArrayPad$ = 96
this$ = 128
_Errcode$ = 136
_Message$ = 144
?dtor$0@?0???0system_error@std@@QEAA@Verror_code@1@PEBD@Z@4HA PROC ; `std::system_error::system_error'::`1'::dtor$0
  00000	48 8d 8a 40 00
	00 00		 lea	 rcx, QWORD PTR $T2[rdx]
  00007	e9 00 00 00 00	 jmp	 ??1?$basic_string@DU?$char_traits@D@std@@V?$allocator@D@2@@std@@QEAA@XZ ; std::basic_string<char,std::char_traits<char>,std::allocator<char> >::~basic_string<char,std::char_traits<char>,std::allocator<char> >
?dtor$0@?0???0system_error@std@@QEAA@Verror_code@1@PEBD@Z@4HA ENDP ; `std::system_error::system_error'::`1'::dtor$0
text$x	ENDS
; Function compile flags: /Ogtpy
; File c:\users\alist_000\cppmisc\packages\visualcpptools.14.0.24629\lib\native\include\vcruntime_exception.h
;	COMDAT ??_Gsystem_error@std@@UEAAPEAXI@Z
_TEXT	SEGMENT
this$ = 48
__flags$ = 56
??_Gsystem_error@std@@UEAAPEAXI@Z PROC			; std::system_error::`scalar deleting destructor', COMDAT
$LN17:
  00000	48 89 5c 24 08	 mov	 QWORD PTR [rsp+8], rbx
  00005	57		 push	 rdi
  00006	48 83 ec 20	 sub	 rsp, 32			; 00000020H

; 83   :     {

  0000a	48 8d 05 00 00
	00 00		 lea	 rax, OFFSET FLAT:??_7exception@std@@6B@
  00011	48 8b f9	 mov	 rdi, rcx
  00014	48 89 01	 mov	 QWORD PTR [rcx], rax
  00017	8b da		 mov	 ebx, edx

; 84   :         __std_exception_destroy(&_Data);

  00019	48 83 c1 08	 add	 rcx, 8
  0001d	e8 00 00 00 00	 call	 __std_exception_destroy
  00022	f6 c3 01	 test	 bl, 1
  00025	74 0d		 je	 SHORT $LN15@scalar
  00027	ba 28 00 00 00	 mov	 edx, 40			; 00000028H
  0002c	48 8b cf	 mov	 rcx, rdi
  0002f	e8 00 00 00 00	 call	 ??3@YAXPEAX_K@Z		; operator delete
$LN15@scalar:
  00034	48 8b c7	 mov	 rax, rdi
  00037	48 8b 5c 24 30	 mov	 rbx, QWORD PTR [rsp+48]
  0003c	48 83 c4 20	 add	 rsp, 32			; 00000020H
  00040	5f		 pop	 rdi
  00041	c3		 ret	 0
??_Gsystem_error@std@@UEAAPEAXI@Z ENDP			; std::system_error::`scalar deleting destructor'
_TEXT	ENDS
; Function compile flags: /Ogtpy
; File c:\users\alist_000\cppmisc\packages\visualcpptools.14.0.24629\lib\native\include\vcruntime_exception.h
;	COMDAT ??1system_error@std@@UEAA@XZ
_TEXT	SEGMENT
this$ = 8
??1system_error@std@@UEAA@XZ PROC			; std::system_error::~system_error, COMDAT

; 83   :     {

  00000	48 8d 05 00 00
	00 00		 lea	 rax, OFFSET FLAT:??_7exception@std@@6B@
  00007	48 89 01	 mov	 QWORD PTR [rcx], rax

; 84   :         __std_exception_destroy(&_Data);

  0000a	48 83 c1 08	 add	 rcx, 8
  0000e	e9 00 00 00 00	 jmp	 __std_exception_destroy
??1system_error@std@@UEAA@XZ ENDP			; std::system_error::~system_error
_TEXT	ENDS
; Function compile flags: /Ogtpy
; File c:\users\alist_000\cppmisc\packages\visualcpptools.14.0.24629\lib\native\include\system_error
;	COMDAT ??0_Generic_error_category@std@@QEAA@XZ
_TEXT	SEGMENT
this$ = 8
??0_Generic_error_category@std@@QEAA@XZ PROC		; std::_Generic_error_category::_Generic_error_category, COMDAT

; 591  : 		{	// default constructor

  00000	48 8d 05 00 00
	00 00		 lea	 rax, OFFSET FLAT:??_7_Generic_error_category@std@@6B@

; 592  : 		_Addr = _Generic_addr;

  00007	48 c7 41 08 03
	00 00 00	 mov	 QWORD PTR [rcx+8], 3
  0000f	48 89 01	 mov	 QWORD PTR [rcx], rax

; 593  : 		}

  00012	48 8b c1	 mov	 rax, rcx
  00015	c3		 ret	 0
??0_Generic_error_category@std@@QEAA@XZ ENDP		; std::_Generic_error_category::_Generic_error_category
_TEXT	ENDS
; Function compile flags: /Ogtpy
; File c:\users\alist_000\cppmisc\packages\visualcpptools.14.0.24629\lib\native\include\system_error
;	COMDAT ?name@_Generic_error_category@std@@UEBAPEBDXZ
_TEXT	SEGMENT
this$ = 8
?name@_Generic_error_category@std@@UEBAPEBDXZ PROC	; std::_Generic_error_category::name, COMDAT

; 597  : 		return ("generic");

  00000	48 8d 05 00 00
	00 00		 lea	 rax, OFFSET FLAT:??_C@_07DCLBNMLN@generic?$AA@

; 598  : 		}

  00007	c3		 ret	 0
?name@_Generic_error_category@std@@UEBAPEBDXZ ENDP	; std::_Generic_error_category::name
_TEXT	ENDS
; Function compile flags: /Ogtpy
; File c:\users\alist_000\cppmisc\packages\visualcpptools.14.0.24629\lib\native\include\system_error
; File c:\users\alist_000\cppmisc\packages\visualcpptools.14.0.24629\lib\native\include\xstring
; File c:\users\alist_000\cppmisc\packages\visualcpptools.14.0.24629\lib\native\include\iosfwd
; File c:\users\alist_000\cppmisc\packages\visualcpptools.14.0.24629\lib\native\include\xstring
; File c:\users\alist_000\cppmisc\packages\visualcpptools.14.0.24629\lib\native\include\iosfwd
; File c:\users\alist_000\cppmisc\packages\visualcpptools.14.0.24629\lib\native\include\xstring
; File c:\users\alist_000\cppmisc\packages\visualcpptools.14.0.24629\lib\native\include\system_error
;	COMDAT ?message@_Generic_error_category@std@@UEBA?AV?$basic_string@DU?$char_traits@D@std@@V?$allocator@D@2@@2@H@Z
_TEXT	SEGMENT
$T1 = 32
this$ = 64
__$ReturnUdt$ = 72
_Errcode$ = 80
?message@_Generic_error_category@std@@UEBA?AV?$basic_string@DU?$char_traits@D@std@@V?$allocator@D@2@@2@H@Z PROC ; std::_Generic_error_category::message, COMDAT

; 601  : 		{	// convert to name of error

$LN31:
  00000	40 53		 push	 rbx
  00002	48 83 ec 30	 sub	 rsp, 48			; 00000030H

; 602  : 		return (_Syserror_map(_Errcode));

  00006	41 8b c8	 mov	 ecx, r8d
  00009	c7 44 24 20 00
	00 00 00	 mov	 DWORD PTR $T1[rsp], 0
  00011	48 8b da	 mov	 rbx, rdx
  00014	e8 00 00 00 00	 call	 ?_Syserror_map@std@@YAPEBDH@Z ; std::_Syserror_map
; File c:\users\alist_000\cppmisc\packages\visualcpptools.14.0.24629\lib\native\include\xstring

; 3539 : 		_My_data._Mysize = 0;

  00019	48 c7 43 10 00
	00 00 00	 mov	 QWORD PTR [rbx+16], 0
; File c:\users\alist_000\cppmisc\packages\visualcpptools.14.0.24629\lib\native\include\iosfwd

; 479  : 		return (_CSTD strlen(_First));

  00021	49 83 c8 ff	 or	 r8, -1
; File c:\users\alist_000\cppmisc\packages\visualcpptools.14.0.24629\lib\native\include\xstring

; 3540 : 		_My_data._Myres = this->_BUF_SIZE - 1;

  00025	48 c7 43 18 0f
	00 00 00	 mov	 QWORD PTR [rbx+24], 15
; File c:\users\alist_000\cppmisc\packages\visualcpptools.14.0.24629\lib\native\include\iosfwd

; 516  : 		_Left = _Right;

  0002d	c6 03 00	 mov	 BYTE PTR [rbx], 0
$LL29@message:

; 479  : 		return (_CSTD strlen(_First));

  00030	49 ff c0	 inc	 r8
  00033	42 80 3c 00 00	 cmp	 BYTE PTR [rax+r8], 0
  00038	75 f6		 jne	 SHORT $LL29@message
; File c:\users\alist_000\cppmisc\packages\visualcpptools.14.0.24629\lib\native\include\xstring

; 2377 : 		return (assign(_Ptr, _Traits::length(_Ptr)));

  0003a	48 8b d0	 mov	 rdx, rax
  0003d	48 8b cb	 mov	 rcx, rbx
  00040	e8 00 00 00 00	 call	 ?assign@?$basic_string@DU?$char_traits@D@std@@V?$allocator@D@2@@std@@QEAAAEAV12@QEBD_K@Z ; std::basic_string<char,std::char_traits<char>,std::allocator<char> >::assign
; File c:\users\alist_000\cppmisc\packages\visualcpptools.14.0.24629\lib\native\include\system_error

; 602  : 		return (_Syserror_map(_Errcode));

  00045	48 8b c3	 mov	 rax, rbx

; 603  : 		}

  00048	48 83 c4 30	 add	 rsp, 48			; 00000030H
  0004c	5b		 pop	 rbx
  0004d	c3		 ret	 0
?message@_Generic_error_category@std@@UEBA?AV?$basic_string@DU?$char_traits@D@std@@V?$allocator@D@2@@2@H@Z ENDP ; std::_Generic_error_category::message
_TEXT	ENDS
; Function compile flags: /Ogtpy
; File c:\users\alist_000\cppmisc\packages\visualcpptools.14.0.24629\lib\native\include\system_error
;	COMDAT ??_G_Generic_error_category@std@@UEAAPEAXI@Z
_TEXT	SEGMENT
this$ = 48
__flags$ = 56
??_G_Generic_error_category@std@@UEAAPEAXI@Z PROC	; std::_Generic_error_category::`scalar deleting destructor', COMDAT
$LN12:
  00000	40 53		 push	 rbx
  00002	48 83 ec 20	 sub	 rsp, 32			; 00000020H

; 170  : 		{	// destroy the object

  00006	48 8d 05 00 00
	00 00		 lea	 rax, OFFSET FLAT:??_7error_category@std@@6B@
  0000d	48 8b d9	 mov	 rbx, rcx
  00010	48 89 01	 mov	 QWORD PTR [rcx], rax
  00013	f6 c2 01	 test	 dl, 1
  00016	74 0a		 je	 SHORT $LN10@scalar
  00018	ba 10 00 00 00	 mov	 edx, 16
  0001d	e8 00 00 00 00	 call	 ??3@YAXPEAX_K@Z		; operator delete
$LN10@scalar:
  00022	48 8b c3	 mov	 rax, rbx
  00025	48 83 c4 20	 add	 rsp, 32			; 00000020H
  00029	5b		 pop	 rbx
  0002a	c3		 ret	 0
??_G_Generic_error_category@std@@UEAAPEAXI@Z ENDP	; std::_Generic_error_category::`scalar deleting destructor'
_TEXT	ENDS
; Function compile flags: /Ogtpy
; File c:\users\alist_000\cppmisc\packages\visualcpptools.14.0.24629\lib\native\include\system_error
;	COMDAT ??1_Generic_error_category@std@@UEAA@XZ
_TEXT	SEGMENT
this$ = 8
??1_Generic_error_category@std@@UEAA@XZ PROC		; std::_Generic_error_category::~_Generic_error_category, COMDAT

; 170  : 		{	// destroy the object

  00000	48 8d 05 00 00
	00 00		 lea	 rax, OFFSET FLAT:??_7error_category@std@@6B@
  00007	48 89 01	 mov	 QWORD PTR [rcx], rax
  0000a	c3		 ret	 0
??1_Generic_error_category@std@@UEAA@XZ ENDP		; std::_Generic_error_category::~_Generic_error_category
_TEXT	ENDS
; Function compile flags: /Ogtpy
; File c:\users\alist_000\cppmisc\packages\visualcpptools.14.0.24629\lib\native\include\system_error
;	COMDAT ??0_Iostream_error_category@std@@QEAA@XZ
_TEXT	SEGMENT
this$ = 8
??0_Iostream_error_category@std@@QEAA@XZ PROC		; std::_Iostream_error_category::_Iostream_error_category, COMDAT

; 612  : 		{	// default constructor

  00000	48 8d 05 00 00
	00 00		 lea	 rax, OFFSET FLAT:??_7_Iostream_error_category@std@@6B@

; 613  : 		_Addr = _Iostream_addr;

  00007	48 c7 41 08 05
	00 00 00	 mov	 QWORD PTR [rcx+8], 5
  0000f	48 89 01	 mov	 QWORD PTR [rcx], rax

; 614  : 		}

  00012	48 8b c1	 mov	 rax, rcx
  00015	c3		 ret	 0
??0_Iostream_error_category@std@@QEAA@XZ ENDP		; std::_Iostream_error_category::_Iostream_error_category
_TEXT	ENDS
; Function compile flags: /Ogtpy
; File c:\users\alist_000\cppmisc\packages\visualcpptools.14.0.24629\lib\native\include\system_error
;	COMDAT ?name@_Iostream_error_category@std@@UEBAPEBDXZ
_TEXT	SEGMENT
this$ = 8
?name@_Iostream_error_category@std@@UEBAPEBDXZ PROC	; std::_Iostream_error_category::name, COMDAT

; 618  : 		return ("iostream");

  00000	48 8d 05 00 00
	00 00		 lea	 rax, OFFSET FLAT:??_C@_08LLGCOLLL@iostream?$AA@

; 619  : 		}

  00007	c3		 ret	 0
?name@_Iostream_error_category@std@@UEBAPEBDXZ ENDP	; std::_Iostream_error_category::name
_TEXT	ENDS
; Function compile flags: /Ogtpy
; File c:\users\alist_000\cppmisc\packages\visualcpptools.14.0.24629\lib\native\include\system_error
; File c:\users\alist_000\cppmisc\packages\visualcpptools.14.0.24629\lib\native\include\xstring
; File c:\users\alist_000\cppmisc\packages\visualcpptools.14.0.24629\lib\native\include\iosfwd
; File c:\users\alist_000\cppmisc\packages\visualcpptools.14.0.24629\lib\native\include\xstring
; File c:\users\alist_000\cppmisc\packages\visualcpptools.14.0.24629\lib\native\include\system_error
;	COMDAT ?message@_Iostream_error_category@std@@UEBA?AV?$basic_string@DU?$char_traits@D@std@@V?$allocator@D@2@@2@H@Z
_TEXT	SEGMENT
$T1 = 32
this$ = 64
__$ReturnUdt$ = 72
_Errcode$ = 80
?message@_Iostream_error_category@std@@UEBA?AV?$basic_string@DU?$char_traits@D@std@@V?$allocator@D@2@@2@H@Z PROC ; std::_Iostream_error_category::message, COMDAT

; 622  : 		{	// convert to name of error

$LN33:
  00000	40 53		 push	 rbx
  00002	48 83 ec 30	 sub	 rsp, 48			; 00000030H
  00006	33 c0		 xor	 eax, eax
  00008	48 8b da	 mov	 rbx, rdx
  0000b	89 44 24 20	 mov	 DWORD PTR $T1[rsp], eax

; 623  : 		if (_Errcode == (int)io_errc::stream)

  0000f	41 83 f8 01	 cmp	 r8d, 1
  00013	75 2a		 jne	 SHORT $LN2@message
; File c:\users\alist_000\cppmisc\packages\visualcpptools.14.0.24629\lib\native\include\xstring

; 3539 : 		_My_data._Mysize = 0;

  00015	48 89 42 10	 mov	 QWORD PTR [rdx+16], rax

; 2377 : 		return (assign(_Ptr, _Traits::length(_Ptr)));

  00019	44 8d 40 15	 lea	 r8d, QWORD PTR [rax+21]

; 3540 : 		_My_data._Myres = this->_BUF_SIZE - 1;

  0001d	48 c7 42 18 0f
	00 00 00	 mov	 QWORD PTR [rdx+24], 15

; 2377 : 		return (assign(_Ptr, _Traits::length(_Ptr)));

  00025	48 8b cb	 mov	 rcx, rbx
; File c:\users\alist_000\cppmisc\packages\visualcpptools.14.0.24629\lib\native\include\iosfwd

; 516  : 		_Left = _Right;

  00028	88 02		 mov	 BYTE PTR [rdx], al
; File c:\users\alist_000\cppmisc\packages\visualcpptools.14.0.24629\lib\native\include\xstring

; 2377 : 		return (assign(_Ptr, _Traits::length(_Ptr)));

  0002a	48 8d 15 00 00
	00 00		 lea	 rdx, OFFSET FLAT:??_C@_0BG@PADBLCHM@iostream?5stream?5error?$AA@
  00031	e8 00 00 00 00	 call	 ?assign@?$basic_string@DU?$char_traits@D@std@@V?$allocator@D@2@@std@@QEAAAEAV12@QEBD_K@Z ; std::basic_string<char,std::char_traits<char>,std::allocator<char> >::assign
; File c:\users\alist_000\cppmisc\packages\visualcpptools.14.0.24629\lib\native\include\system_error

; 626  : 			return (_Generic_error_category::message(_Errcode));

  00036	48 8b c3	 mov	 rax, rbx

; 627  : 		}

  00039	48 83 c4 30	 add	 rsp, 48			; 00000030H
  0003d	5b		 pop	 rbx
  0003e	c3		 ret	 0
$LN2@message:

; 626  : 			return (_Generic_error_category::message(_Errcode));

  0003f	e8 00 00 00 00	 call	 ?message@_Generic_error_category@std@@UEBA?AV?$basic_string@DU?$char_traits@D@std@@V?$allocator@D@2@@2@H@Z ; std::_Generic_error_category::message
  00044	48 8b c3	 mov	 rax, rbx

; 627  : 		}

  00047	48 83 c4 30	 add	 rsp, 48			; 00000030H
  0004b	5b		 pop	 rbx
  0004c	c3		 ret	 0
?message@_Iostream_error_category@std@@UEBA?AV?$basic_string@DU?$char_traits@D@std@@V?$allocator@D@2@@2@H@Z ENDP ; std::_Iostream_error_category::message
_TEXT	ENDS
; Function compile flags: /Ogtpy
; File c:\users\alist_000\cppmisc\packages\visualcpptools.14.0.24629\lib\native\include\system_error
;	COMDAT ??_G_Iostream_error_category@std@@UEAAPEAXI@Z
_TEXT	SEGMENT
this$ = 48
__flags$ = 56
??_G_Iostream_error_category@std@@UEAAPEAXI@Z PROC	; std::_Iostream_error_category::`scalar deleting destructor', COMDAT
$LN15:
  00000	40 53		 push	 rbx
  00002	48 83 ec 20	 sub	 rsp, 32			; 00000020H

; 170  : 		{	// destroy the object

  00006	48 8d 05 00 00
	00 00		 lea	 rax, OFFSET FLAT:??_7error_category@std@@6B@
  0000d	48 8b d9	 mov	 rbx, rcx
  00010	48 89 01	 mov	 QWORD PTR [rcx], rax
  00013	f6 c2 01	 test	 dl, 1
  00016	74 0a		 je	 SHORT $LN13@scalar
  00018	ba 10 00 00 00	 mov	 edx, 16
  0001d	e8 00 00 00 00	 call	 ??3@YAXPEAX_K@Z		; operator delete
$LN13@scalar:
  00022	48 8b c3	 mov	 rax, rbx
  00025	48 83 c4 20	 add	 rsp, 32			; 00000020H
  00029	5b		 pop	 rbx
  0002a	c3		 ret	 0
??_G_Iostream_error_category@std@@UEAAPEAXI@Z ENDP	; std::_Iostream_error_category::`scalar deleting destructor'
_TEXT	ENDS
; Function compile flags: /Ogtpy
; File c:\users\alist_000\cppmisc\packages\visualcpptools.14.0.24629\lib\native\include\system_error
;	COMDAT ??1_Iostream_error_category@std@@UEAA@XZ
_TEXT	SEGMENT
this$ = 8
??1_Iostream_error_category@std@@UEAA@XZ PROC		; std::_Iostream_error_category::~_Iostream_error_category, COMDAT

; 170  : 		{	// destroy the object

  00000	48 8d 05 00 00
	00 00		 lea	 rax, OFFSET FLAT:??_7error_category@std@@6B@
  00007	48 89 01	 mov	 QWORD PTR [rcx], rax
  0000a	c3		 ret	 0
??1_Iostream_error_category@std@@UEAA@XZ ENDP		; std::_Iostream_error_category::~_Iostream_error_category
_TEXT	ENDS
; Function compile flags: /Ogtpy
; File c:\users\alist_000\cppmisc\packages\visualcpptools.14.0.24629\lib\native\include\system_error
;	COMDAT ?iostream_category@std@@YAAEBVerror_category@1@XZ
_TEXT	SEGMENT
?iostream_category@std@@YAAEBVerror_category@1@XZ PROC	; std::iostream_category, COMDAT

; 704  : 	{	// get iostream_category

$LN25:
  00000	48 83 ec 28	 sub	 rsp, 40			; 00000028H

; 694  : 	/* MAGIC */ static _Immortalizer<_Ty> _Static;

  00004	65 48 8b 04 25
	58 00 00 00	 mov	 rax, QWORD PTR gs:88
  0000d	ba 00 00 00 00	 mov	 edx, OFFSET FLAT:_Init_thread_epoch
  00012	48 8b 08	 mov	 rcx, QWORD PTR [rax]
  00015	8b 04 0a	 mov	 eax, DWORD PTR [rdx+rcx]
  00018	39 05 00 00 00
	00		 cmp	 DWORD PTR ?$TSS0@?1???$_Immortalize@V_Iostream_error_category@std@@@std@@YAAEAV_Iostream_error_category@1@XZ@4HA, eax ; TSS0<`template-parameter-2',unsigned int,std::V_Iostream_error_category::mortalize>
  0001e	7f 0c		 jg	 SHORT $LN23@iostream_c
$LN21@iostream_c:

; 705  : 	return (_Immortalize<_Iostream_error_category>());

  00020	48 8d 05 00 00
	00 00		 lea	 rax, OFFSET FLAT:?_Static@?1???$_Immortalize@V_Iostream_error_category@std@@@std@@YAAEAV_Iostream_error_category@1@XZ@4U?$_Immortalizer@V_Iostream_error_category@std@@@1@A ; `std::_Immortalize<std::_Iostream_error_category>'::`2'::_Static

; 706  : 	}

  00027	48 83 c4 28	 add	 rsp, 40			; 00000028H
  0002b	c3		 ret	 0
$LN23@iostream_c:

; 694  : 	/* MAGIC */ static _Immortalizer<_Ty> _Static;

  0002c	48 8d 0d 00 00
	00 00		 lea	 rcx, OFFSET FLAT:?$TSS0@?1???$_Immortalize@V_Iostream_error_category@std@@@std@@YAAEAV_Iostream_error_category@1@XZ@4HA ; TSS0<`template-parameter-2',unsigned int,std::V_Iostream_error_category::mortalize>
  00033	e8 00 00 00 00	 call	 _Init_thread_header
  00038	83 3d 00 00 00
	00 ff		 cmp	 DWORD PTR ?$TSS0@?1???$_Immortalize@V_Iostream_error_category@std@@@std@@YAAEAV_Iostream_error_category@1@XZ@4HA, -1 ; TSS0<`template-parameter-2',unsigned int,std::V_Iostream_error_category::mortalize>
  0003f	75 df		 jne	 SHORT $LN21@iostream_c

; 612  : 		{	// default constructor

  00041	48 8d 05 00 00
	00 00		 lea	 rax, OFFSET FLAT:??_7_Iostream_error_category@std@@6B@

; 613  : 		_Addr = _Iostream_addr;

  00048	48 c7 05 08 00
	00 00 05 00 00
	00		 mov	 QWORD PTR ?_Static@?1???$_Immortalize@V_Iostream_error_category@std@@@std@@YAAEAV_Iostream_error_category@1@XZ@4U?$_Immortalizer@V_Iostream_error_category@std@@@1@A+8, 5

; 694  : 	/* MAGIC */ static _Immortalizer<_Ty> _Static;

  00053	48 8d 0d 00 00
	00 00		 lea	 rcx, OFFSET FLAT:??__F_Static@?1???$_Immortalize@V_Iostream_error_category@std@@@std@@YAAEAV_Iostream_error_category@0@XZ@YAXXZ ; `std::_Immortalize<std::_Iostream_error_category>'::`2'::`dynamic atexit destructor for '_Static''

; 612  : 		{	// default constructor

  0005a	48 89 05 00 00
	00 00		 mov	 QWORD PTR ?_Static@?1???$_Immortalize@V_Iostream_error_category@std@@@std@@YAAEAV_Iostream_error_category@1@XZ@4U?$_Immortalizer@V_Iostream_error_category@std@@@1@A, rax

; 694  : 	/* MAGIC */ static _Immortalizer<_Ty> _Static;

  00061	e8 00 00 00 00	 call	 atexit
  00066	48 8d 0d 00 00
	00 00		 lea	 rcx, OFFSET FLAT:?$TSS0@?1???$_Immortalize@V_Iostream_error_category@std@@@std@@YAAEAV_Iostream_error_category@1@XZ@4HA ; TSS0<`template-parameter-2',unsigned int,std::V_Iostream_error_category::mortalize>
  0006d	e8 00 00 00 00	 call	 _Init_thread_footer
  00072	eb ac		 jmp	 SHORT $LN21@iostream_c
?iostream_category@std@@YAAEBVerror_category@1@XZ ENDP	; std::iostream_category
_TEXT	ENDS
; Function compile flags: /Ogtpy
; File c:\users\alist_000\cppmisc\packages\visualcpptools.14.0.24629\lib\native\include\xiosbase
;	COMDAT ??0failure@ios_base@std@@QEAA@PEBDAEBVerror_code@2@@Z
_TEXT	SEGMENT
$T1 = 32
this$ = 64
_Message$ = 72
_Errcode$ = 80
??0failure@ios_base@std@@QEAA@PEBDAEBVerror_code@2@@Z PROC ; std::ios_base::failure::failure, COMDAT

; 238  : 			{	// construct with message

$LN5:
  00000	40 53		 push	 rbx
  00002	48 83 ec 30	 sub	 rsp, 48			; 00000030H

; 237  : 			: system_error(_Errcode, _Message)

  00006	41 0f 10 00	 movups	 xmm0, XMMWORD PTR [r8]
  0000a	4c 8b c2	 mov	 r8, rdx

; 238  : 			{	// construct with message

  0000d	48 8b d9	 mov	 rbx, rcx
  00010	48 8d 54 24 20	 lea	 rdx, QWORD PTR $T1[rsp]
  00015	0f 29 44 24 20	 movaps	 XMMWORD PTR $T1[rsp], xmm0
  0001a	e8 00 00 00 00	 call	 ??0system_error@std@@QEAA@Verror_code@1@PEBD@Z ; std::system_error::system_error
  0001f	48 8d 05 00 00
	00 00		 lea	 rax, OFFSET FLAT:??_7failure@ios_base@std@@6B@
  00026	48 89 03	 mov	 QWORD PTR [rbx], rax

; 239  : 			}

  00029	48 8b c3	 mov	 rax, rbx
  0002c	48 83 c4 30	 add	 rsp, 48			; 00000030H
  00030	5b		 pop	 rbx
  00031	c3		 ret	 0
??0failure@ios_base@std@@QEAA@PEBDAEBVerror_code@2@@Z ENDP ; std::ios_base::failure::failure
_TEXT	ENDS
; Function compile flags: /Ogtpy
; File c:\users\alist_000\cppmisc\packages\visualcpptools.14.0.24629\lib\native\include\xiosbase
;	COMDAT ?clear@ios_base@std@@QEAAXH_N@Z
_TEXT	SEGMENT
$T1 = 32
$T2 = 48
$T3 = 48
$T4 = 48
this$ = 112
_State$ = 120
_Reraise$ = 128
?clear@ios_base@std@@QEAAXH_N@Z PROC			; std::ios_base::clear, COMDAT

; 287  : 		{	// set state, possibly reraise exception

$LN17:
  00000	48 83 ec 68	 sub	 rsp, 104		; 00000068H

; 288  : 		_Mystate = (iostate)(_State & _Statmask);
; 289  : 		if ((_Mystate & _Except) == 0)

  00004	8b 41 14	 mov	 eax, DWORD PTR [rcx+20]
  00007	83 e2 17	 and	 edx, 23
  0000a	89 51 10	 mov	 DWORD PTR [rcx+16], edx
  0000d	23 c2		 and	 eax, edx
  0000f	74 19		 je	 SHORT $LN9@clear

; 290  : 			;
; 291  : 		else if (_Reraise)

  00011	45 84 c0	 test	 r8b, r8b
  00014	75 19		 jne	 SHORT $LN12@clear

; 293  : 		else if (_Mystate & _Except & badbit)
; 294  : 			_THROW_NCEE(failure, "ios_base::badbit set");

  00016	48 8d 4c 24 20	 lea	 rcx, QWORD PTR $T1[rsp]
  0001b	ba 01 00 00 00	 mov	 edx, 1
  00020	a8 04		 test	 al, 4
  00022	75 15		 jne	 SHORT $LN14@clear

; 295  : 		else if (_Mystate & _Except & failbit)

  00024	a8 02		 test	 al, 2
  00026	75 3c		 jne	 SHORT $LN15@clear
  00028	eb 65		 jmp	 SHORT $LN16@clear
$LN9@clear:

; 299  : 		}

  0002a	48 83 c4 68	 add	 rsp, 104		; 00000068H
  0002e	c3		 ret	 0
$LN12@clear:

; 292  : 			_RERAISE;

  0002f	33 d2		 xor	 edx, edx
  00031	33 c9		 xor	 ecx, ecx
  00033	e8 00 00 00 00	 call	 _CxxThrowException
  00038	cc		 int	 3
$LN14@clear:

; 293  : 		else if (_Mystate & _Except & badbit)
; 294  : 			_THROW_NCEE(failure, "ios_base::badbit set");

  00039	e8 00 00 00 00	 call	 ?make_error_code@std@@YA?AVerror_code@1@W4io_errc@1@@Z ; std::make_error_code
  0003e	4c 8b c0	 mov	 r8, rax
  00041	48 8d 15 00 00
	00 00		 lea	 rdx, OFFSET FLAT:??_C@_0BF@PHHKMMFD@ios_base?3?3badbit?5set?$AA@
  00048	48 8d 4c 24 30	 lea	 rcx, QWORD PTR $T4[rsp]
  0004d	e8 00 00 00 00	 call	 ??0failure@ios_base@std@@QEAA@PEBDAEBVerror_code@2@@Z ; std::ios_base::failure::failure
  00052	48 8d 15 00 00
	00 00		 lea	 rdx, OFFSET FLAT:_TI5?AVfailure@ios_base@std@@
  00059	48 8d 4c 24 30	 lea	 rcx, QWORD PTR $T4[rsp]
  0005e	e8 00 00 00 00	 call	 _CxxThrowException
  00063	cc		 int	 3
$LN15@clear:

; 296  : 			_THROW_NCEE(failure, "ios_base::failbit set");

  00064	e8 00 00 00 00	 call	 ?make_error_code@std@@YA?AVerror_code@1@W4io_errc@1@@Z ; std::make_error_code
  00069	4c 8b c0	 mov	 r8, rax
  0006c	48 8d 15 00 00
	00 00		 lea	 rdx, OFFSET FLAT:??_C@_0BG@FMKFHCIL@ios_base?3?3failbit?5set?$AA@
  00073	48 8d 4c 24 30	 lea	 rcx, QWORD PTR $T3[rsp]
  00078	e8 00 00 00 00	 call	 ??0failure@ios_base@std@@QEAA@PEBDAEBVerror_code@2@@Z ; std::ios_base::failure::failure
  0007d	48 8d 15 00 00
	00 00		 lea	 rdx, OFFSET FLAT:_TI5?AVfailure@ios_base@std@@
  00084	48 8d 4c 24 30	 lea	 rcx, QWORD PTR $T3[rsp]
  00089	e8 00 00 00 00	 call	 _CxxThrowException
  0008e	cc		 int	 3
$LN16@clear:

; 297  : 		else
; 298  : 			_THROW_NCEE(failure, "ios_base::eofbit set");

  0008f	e8 00 00 00 00	 call	 ?make_error_code@std@@YA?AVerror_code@1@W4io_errc@1@@Z ; std::make_error_code
  00094	4c 8b c0	 mov	 r8, rax
  00097	48 8d 15 00 00
	00 00		 lea	 rdx, OFFSET FLAT:??_C@_0BF@OOHOMBOF@ios_base?3?3eofbit?5set?$AA@
  0009e	48 8d 4c 24 30	 lea	 rcx, QWORD PTR $T2[rsp]
  000a3	e8 00 00 00 00	 call	 ??0failure@ios_base@std@@QEAA@PEBDAEBVerror_code@2@@Z ; std::ios_base::failure::failure
  000a8	48 8d 15 00 00
	00 00		 lea	 rdx, OFFSET FLAT:_TI5?AVfailure@ios_base@std@@
  000af	48 8d 4c 24 30	 lea	 rcx, QWORD PTR $T2[rsp]
  000b4	e8 00 00 00 00	 call	 _CxxThrowException
  000b9	cc		 int	 3
$LN11@clear:
?clear@ios_base@std@@QEAAXH_N@Z ENDP			; std::ios_base::clear
_TEXT	ENDS
; Function compile flags: /Ogtpy
; File c:\users\alist_000\cppmisc\packages\visualcpptools.14.0.24629\lib\native\include\xiosbase
;	COMDAT ?rdstate@ios_base@std@@QEBAHXZ
_TEXT	SEGMENT
this$ = 8
?rdstate@ios_base@std@@QEBAHXZ PROC			; std::ios_base::rdstate, COMDAT

; 315  : 		return (_Mystate);

  00000	8b 41 10	 mov	 eax, DWORD PTR [rcx+16]

; 316  : 		}

  00003	c3		 ret	 0
?rdstate@ios_base@std@@QEBAHXZ ENDP			; std::ios_base::rdstate
_TEXT	ENDS
; Function compile flags: /Ogtpy
; File c:\users\alist_000\cppmisc\packages\visualcpptools.14.0.24629\lib\native\include\xiosbase
;	COMDAT ?good@ios_base@std@@QEBA_NXZ
_TEXT	SEGMENT
this$ = 8
?good@ios_base@std@@QEBA_NXZ PROC			; std::ios_base::good, COMDAT

; 338  : 		{	// test if no state bits are set

  00000	83 79 10 00	 cmp	 DWORD PTR [rcx+16], 0
  00004	0f 94 c0	 sete	 al

; 339  : 		return (rdstate() == goodbit);
; 340  : 		}

  00007	c3		 ret	 0
?good@ios_base@std@@QEBA_NXZ ENDP			; std::ios_base::good
_TEXT	ENDS
; Function compile flags: /Ogtpy
; File c:\users\alist_000\cppmisc\packages\visualcpptools.14.0.24629\lib\native\include\xiosbase
;	COMDAT ?flags@ios_base@std@@QEBAHXZ
_TEXT	SEGMENT
this$ = 8
?flags@ios_base@std@@QEBAHXZ PROC			; std::ios_base::flags, COMDAT

; 378  : 		return (_Fmtfl);

  00000	8b 41 18	 mov	 eax, DWORD PTR [rcx+24]

; 379  : 		}

  00003	c3		 ret	 0
?flags@ios_base@std@@QEBAHXZ ENDP			; std::ios_base::flags
_TEXT	ENDS
; Function compile flags: /Ogtpy
; File c:\users\alist_000\cppmisc\packages\visualcpptools.14.0.24629\lib\native\include\xiosbase
;	COMDAT ?width@ios_base@std@@QEBA_JXZ
_TEXT	SEGMENT
this$ = 8
?width@ios_base@std@@QEBA_JXZ PROC			; std::ios_base::width, COMDAT

; 423  : 		return (_Wide);

  00000	48 8b 41 28	 mov	 rax, QWORD PTR [rcx+40]

; 424  : 		}

  00004	c3		 ret	 0
?width@ios_base@std@@QEBA_JXZ ENDP			; std::ios_base::width
_TEXT	ENDS
; Function compile flags: /Ogtpy
; File c:\users\alist_000\cppmisc\packages\visualcpptools.14.0.24629\lib\native\include\xiosbase
;	COMDAT ?width@ios_base@std@@QEAA_J_J@Z
_TEXT	SEGMENT
this$ = 8
_Newwidth$ = 16
?width@ios_base@std@@QEAA_J_J@Z PROC			; std::ios_base::width, COMDAT

; 428  : 		streamsize _Oldwidth = _Wide;

  00000	48 8b 41 28	 mov	 rax, QWORD PTR [rcx+40]

; 429  : 		_Wide = _Newwidth;

  00004	48 89 51 28	 mov	 QWORD PTR [rcx+40], rdx

; 430  : 		return (_Oldwidth);
; 431  : 		}

  00008	c3		 ret	 0
?width@ios_base@std@@QEAA_J_J@Z ENDP			; std::ios_base::width
_TEXT	ENDS
; Function compile flags: /Ogtpy
; File c:\users\alist_000\cppmisc\packages\visualcpptools.14.0.24629\lib\native\include\xiosbase
; File c:\users\alist_000\cppmisc\packages\visualcpptools.14.0.24629\lib\native\include\xlocale
; File c:\users\alist_000\cppmisc\packages\visualcpptools.14.0.24629\lib\native\include\xiosbase
;	COMDAT ?getloc@ios_base@std@@QEBA?AVlocale@2@XZ
_TEXT	SEGMENT
$T1 = 32
this$ = 64
__$ReturnUdt$ = 72
?getloc@ios_base@std@@QEBA?AVlocale@2@XZ PROC		; std::ios_base::getloc, COMDAT

; 434  : 		{	// get locale

$LN6:
  00000	40 53		 push	 rbx
  00002	48 83 ec 30	 sub	 rsp, 48			; 00000030H
  00006	48 c7 44 24 20
	fe ff ff ff	 mov	 QWORD PTR $T1[rsp], -2
  0000f	48 8b da	 mov	 rbx, rdx

; 435  : 		return (*_Ploc);

  00012	48 8b 41 40	 mov	 rax, QWORD PTR [rcx+64]
; File c:\users\alist_000\cppmisc\packages\visualcpptools.14.0.24629\lib\native\include\xlocale

; 303  : 		: _Ptr(_Right._Ptr)

  00016	48 8b 48 08	 mov	 rcx, QWORD PTR [rax+8]
  0001a	48 89 4a 08	 mov	 QWORD PTR [rdx+8], rcx

; 304  : 		{	// construct by copying
; 305  : 		_Ptr->_Incref();

  0001e	48 8b 01	 mov	 rax, QWORD PTR [rcx]
  00021	ff 50 08	 call	 QWORD PTR [rax+8]
  00024	90		 npad	 1
; File c:\users\alist_000\cppmisc\packages\visualcpptools.14.0.24629\lib\native\include\xiosbase

; 435  : 		return (*_Ploc);

  00025	48 8b c3	 mov	 rax, rbx

; 436  : 		}

  00028	48 83 c4 30	 add	 rsp, 48			; 00000030H
  0002c	5b		 pop	 rbx
  0002d	c3		 ret	 0
?getloc@ios_base@std@@QEBA?AVlocale@2@XZ ENDP		; std::ios_base::getloc
_TEXT	ENDS
; Function compile flags: /Ogtpy
; File c:\users\alist_000\cppmisc\packages\visualcpptools.14.0.24629\lib\native\include\vcruntime_exception.h
;	COMDAT ??_Gfailure@ios_base@std@@UEAAPEAXI@Z
_TEXT	SEGMENT
this$ = 48
__flags$ = 56
??_Gfailure@ios_base@std@@UEAAPEAXI@Z PROC		; std::ios_base::failure::`scalar deleting destructor', COMDAT
$LN20:
  00000	48 89 5c 24 08	 mov	 QWORD PTR [rsp+8], rbx
  00005	57		 push	 rdi
  00006	48 83 ec 20	 sub	 rsp, 32			; 00000020H

; 83   :     {

  0000a	48 8d 05 00 00
	00 00		 lea	 rax, OFFSET FLAT:??_7exception@std@@6B@
  00011	48 8b f9	 mov	 rdi, rcx
  00014	48 89 01	 mov	 QWORD PTR [rcx], rax
  00017	8b da		 mov	 ebx, edx

; 84   :         __std_exception_destroy(&_Data);

  00019	48 83 c1 08	 add	 rcx, 8
  0001d	e8 00 00 00 00	 call	 __std_exception_destroy
  00022	f6 c3 01	 test	 bl, 1
  00025	74 0d		 je	 SHORT $LN18@scalar
  00027	ba 28 00 00 00	 mov	 edx, 40			; 00000028H
  0002c	48 8b cf	 mov	 rcx, rdi
  0002f	e8 00 00 00 00	 call	 ??3@YAXPEAX_K@Z		; operator delete
$LN18@scalar:
  00034	48 8b c7	 mov	 rax, rdi
  00037	48 8b 5c 24 30	 mov	 rbx, QWORD PTR [rsp+48]
  0003c	48 83 c4 20	 add	 rsp, 32			; 00000020H
  00040	5f		 pop	 rdi
  00041	c3		 ret	 0
??_Gfailure@ios_base@std@@UEAAPEAXI@Z ENDP		; std::ios_base::failure::`scalar deleting destructor'
_TEXT	ENDS
; Function compile flags: /Ogtpy
; File c:\users\alist_000\cppmisc\packages\visualcpptools.14.0.24629\lib\native\include\vcruntime_exception.h
;	COMDAT ??1failure@ios_base@std@@UEAA@XZ
_TEXT	SEGMENT
this$ = 8
??1failure@ios_base@std@@UEAA@XZ PROC			; std::ios_base::failure::~failure, COMDAT

; 83   :     {

  00000	48 8d 05 00 00
	00 00		 lea	 rax, OFFSET FLAT:??_7exception@std@@6B@
  00007	48 89 01	 mov	 QWORD PTR [rcx], rax

; 84   :         __std_exception_destroy(&_Data);

  0000a	48 83 c1 08	 add	 rcx, 8
  0000e	e9 00 00 00 00	 jmp	 __std_exception_destroy
??1failure@ios_base@std@@UEAA@XZ ENDP			; std::ios_base::failure::~failure
_TEXT	ENDS
; Function compile flags: /Ogtpy
; File c:\users\alist_000\cppmisc\packages\visualcpptools.14.0.24629\lib\native\include\vcruntime_exception.h
;	COMDAT ??0failure@ios_base@std@@QEAA@AEBV012@@Z
_TEXT	SEGMENT
this$ = 48
__that$ = 56
??0failure@ios_base@std@@QEAA@AEBV012@@Z PROC		; std::ios_base::failure::failure, COMDAT
$LN15:
  00000	48 89 5c 24 08	 mov	 QWORD PTR [rsp+8], rbx
  00005	57		 push	 rdi
  00006	48 83 ec 20	 sub	 rsp, 32			; 00000020H
  0000a	48 8b da	 mov	 rbx, rdx

; 66   :     {

  0000d	48 8d 05 00 00
	00 00		 lea	 rax, OFFSET FLAT:??_7exception@std@@6B@
  00014	48 89 01	 mov	 QWORD PTR [rcx], rax
  00017	48 8d 51 08	 lea	 rdx, QWORD PTR [rcx+8]
  0001b	33 c0		 xor	 eax, eax
  0001d	48 8b f9	 mov	 rdi, rcx

; 65   :         : _Data()

  00020	48 89 02	 mov	 QWORD PTR [rdx], rax

; 67   :         __std_exception_copy(&_Other._Data, &_Data);

  00023	48 8d 4b 08	 lea	 rcx, QWORD PTR [rbx+8]
  00027	48 89 42 08	 mov	 QWORD PTR [rdx+8], rax
  0002b	e8 00 00 00 00	 call	 __std_exception_copy
  00030	48 8d 05 00 00
	00 00		 lea	 rax, OFFSET FLAT:??_7_System_error@std@@6B@
  00037	48 89 07	 mov	 QWORD PTR [rdi], rax
  0003a	48 8d 05 00 00
	00 00		 lea	 rax, OFFSET FLAT:??_7failure@ios_base@std@@6B@
  00041	0f 10 43 18	 movups	 xmm0, XMMWORD PTR [rbx+24]
  00045	48 8b 5c 24 30	 mov	 rbx, QWORD PTR [rsp+48]
  0004a	48 89 07	 mov	 QWORD PTR [rdi], rax
  0004d	48 8b c7	 mov	 rax, rdi
  00050	0f 11 47 18	 movups	 XMMWORD PTR [rdi+24], xmm0
  00054	48 83 c4 20	 add	 rsp, 32			; 00000020H
  00058	5f		 pop	 rdi
  00059	c3		 ret	 0
??0failure@ios_base@std@@QEAA@AEBV012@@Z ENDP		; std::ios_base::failure::failure
_TEXT	ENDS
; Function compile flags: /Ogtpy
; File c:\users\alist_000\cppmisc\packages\visualcpptools.14.0.24629\lib\native\include\vcruntime_exception.h
;	COMDAT ??0system_error@std@@QEAA@AEBV01@@Z
_TEXT	SEGMENT
this$ = 48
__that$ = 56
??0system_error@std@@QEAA@AEBV01@@Z PROC		; std::system_error::system_error, COMDAT
$LN12:
  00000	48 89 5c 24 08	 mov	 QWORD PTR [rsp+8], rbx
  00005	57		 push	 rdi
  00006	48 83 ec 20	 sub	 rsp, 32			; 00000020H
  0000a	48 8b da	 mov	 rbx, rdx

; 66   :     {

  0000d	48 8d 05 00 00
	00 00		 lea	 rax, OFFSET FLAT:??_7exception@std@@6B@
  00014	48 89 01	 mov	 QWORD PTR [rcx], rax
  00017	48 8d 51 08	 lea	 rdx, QWORD PTR [rcx+8]
  0001b	33 c0		 xor	 eax, eax
  0001d	48 8b f9	 mov	 rdi, rcx

; 65   :         : _Data()

  00020	48 89 02	 mov	 QWORD PTR [rdx], rax

; 67   :         __std_exception_copy(&_Other._Data, &_Data);

  00023	48 8d 4b 08	 lea	 rcx, QWORD PTR [rbx+8]
  00027	48 89 42 08	 mov	 QWORD PTR [rdx+8], rax
  0002b	e8 00 00 00 00	 call	 __std_exception_copy
  00030	48 8d 05 00 00
	00 00		 lea	 rax, OFFSET FLAT:??_7_System_error@std@@6B@
  00037	48 89 07	 mov	 QWORD PTR [rdi], rax
  0003a	48 8d 05 00 00
	00 00		 lea	 rax, OFFSET FLAT:??_7system_error@std@@6B@
  00041	0f 10 43 18	 movups	 xmm0, XMMWORD PTR [rbx+24]
  00045	48 8b 5c 24 30	 mov	 rbx, QWORD PTR [rsp+48]
  0004a	48 89 07	 mov	 QWORD PTR [rdi], rax
  0004d	48 8b c7	 mov	 rax, rdi
  00050	0f 11 47 18	 movups	 XMMWORD PTR [rdi+24], xmm0
  00054	48 83 c4 20	 add	 rsp, 32			; 00000020H
  00058	5f		 pop	 rdi
  00059	c3		 ret	 0
??0system_error@std@@QEAA@AEBV01@@Z ENDP		; std::system_error::system_error
_TEXT	ENDS
; Function compile flags: /Ogtpy
; File c:\users\alist_000\cppmisc\packages\visualcpptools.14.0.24629\lib\native\include\vcruntime_exception.h
;	COMDAT ??0_System_error@std@@QEAA@AEBV01@@Z
_TEXT	SEGMENT
this$ = 48
__that$ = 56
??0_System_error@std@@QEAA@AEBV01@@Z PROC		; std::_System_error::_System_error, COMDAT
$LN9:
  00000	48 89 5c 24 08	 mov	 QWORD PTR [rsp+8], rbx
  00005	57		 push	 rdi
  00006	48 83 ec 20	 sub	 rsp, 32			; 00000020H
  0000a	48 8b da	 mov	 rbx, rdx

; 66   :     {

  0000d	48 8d 05 00 00
	00 00		 lea	 rax, OFFSET FLAT:??_7exception@std@@6B@
  00014	48 89 01	 mov	 QWORD PTR [rcx], rax
  00017	48 8d 51 08	 lea	 rdx, QWORD PTR [rcx+8]
  0001b	33 c0		 xor	 eax, eax
  0001d	48 8b f9	 mov	 rdi, rcx

; 65   :         : _Data()

  00020	48 89 02	 mov	 QWORD PTR [rdx], rax

; 67   :         __std_exception_copy(&_Other._Data, &_Data);

  00023	48 8d 4b 08	 lea	 rcx, QWORD PTR [rbx+8]
  00027	48 89 42 08	 mov	 QWORD PTR [rdx+8], rax
  0002b	e8 00 00 00 00	 call	 __std_exception_copy
  00030	48 8d 05 00 00
	00 00		 lea	 rax, OFFSET FLAT:??_7_System_error@std@@6B@
  00037	48 89 07	 mov	 QWORD PTR [rdi], rax
  0003a	48 8b c7	 mov	 rax, rdi
  0003d	0f 10 43 18	 movups	 xmm0, XMMWORD PTR [rbx+24]
  00041	48 8b 5c 24 30	 mov	 rbx, QWORD PTR [rsp+48]
  00046	0f 11 47 18	 movups	 XMMWORD PTR [rdi+24], xmm0
  0004a	48 83 c4 20	 add	 rsp, 32			; 00000020H
  0004e	5f		 pop	 rdi
  0004f	c3		 ret	 0
??0_System_error@std@@QEAA@AEBV01@@Z ENDP		; std::_System_error::_System_error
_TEXT	ENDS
; Function compile flags: /Ogtpy
; File c:\program files (x86)\windows kits\10\include\10.0.10586.0\ucrt\time.h
_TEXT	SEGMENT
_Time$dead$ = 8
time	PROC

; 535  :             return _time64(_Time);

  00000	33 c9		 xor	 ecx, ecx
  00002	e9 00 00 00 00	 jmp	 _time64
time	ENDP
_TEXT	ENDS
; Function compile flags: /Ogtpy
; File c:\users\alist_000\cppmisc\scary.cc
; File c:\users\alist_000\cppmisc\packages\visualcpptools.14.0.24629\lib\native\include\vector
; File c:\users\alist_000\cppmisc\scary.cc
; File c:\users\alist_000\cppmisc\packages\visualcpptools.14.0.24629\lib\native\include\vector
; File c:\users\alist_000\cppmisc\scary.cc
_TEXT	SEGMENT
$T1 = 32
$T2 = 40
__$ReturnUdt$ = 64
val$ = 72
?setVector@@YA?AV?$vector@DV?$allocator@D@std@@@std@@D@Z PROC ; setVector

; 7    : auto setVector(char val) {

$LN58:
  00000	48 89 4c 24 08	 mov	 QWORD PTR [rsp+8], rcx
  00005	57		 push	 rdi
  00006	48 83 ec 30	 sub	 rsp, 48			; 00000030H
  0000a	48 c7 44 24 28
	fe ff ff ff	 mov	 QWORD PTR $T2[rsp], -2
  00013	48 89 5c 24 48	 mov	 QWORD PTR [rsp+72], rbx
  00018	48 89 74 24 50	 mov	 QWORD PTR [rsp+80], rsi
  0001d	0f b6 f2	 movzx	 esi, dl
  00020	48 8b d9	 mov	 rbx, rcx
  00023	33 ff		 xor	 edi, edi
  00025	89 7c 24 20	 mov	 DWORD PTR $T1[rsp], edi
; File c:\users\alist_000\cppmisc\packages\visualcpptools.14.0.24629\lib\native\include\vector

; 478  : 		: _Myfirst(),

  00029	48 89 39	 mov	 QWORD PTR [rcx], rdi

; 479  : 		_Mylast(),

  0002c	48 89 79 08	 mov	 QWORD PTR [rcx+8], rdi

; 480  : 		_Myend()

  00030	48 89 79 10	 mov	 QWORD PTR [rcx+16], rdi
  00034	c7 44 24 20 01
	00 00 00	 mov	 DWORD PTR $T1[rsp], 1

; 1470 : 		_Resize(_Newsize, _Lambda_default);

  0003c	e8 00 00 00 00	 call	 ??$_Resize@V<lambda_0965ae3a6f2eda0c9be18e4c004bd2c1>@@@?$vector@DV?$allocator@D@std@@@std@@AEAAX_KV<lambda_0965ae3a6f2eda0c9be18e4c004bd2c1>@@@Z ; std::vector<char,std::allocator<char> >::_Resize<<lambda_0965ae3a6f2eda0c9be18e4c004bd2c1> >

; 1684 : 		return (this->_Mylast() - this->_Myfirst());

  00041	48 8b 43 08	 mov	 rax, QWORD PTR [rbx+8]
  00045	48 3b 03	 cmp	 rax, QWORD PTR [rbx]
; File c:\users\alist_000\cppmisc\scary.cc

; 10   :   for(int i = 0; i < v.size(); ++i)

  00048	74 22		 je	 SHORT $LN57@setVector
  0004a	8b d7		 mov	 edx, edi
  0004c	0f 1f 40 00	 npad	 4
$LL4@setVector:

; 11   :     v[i] = val;

  00050	48 8b 03	 mov	 rax, QWORD PTR [rbx]
  00053	40 88 34 02	 mov	 BYTE PTR [rdx+rax], sil

; 10   :   for(int i = 0; i < v.size(); ++i)

  00057	ff c7		 inc	 edi
  00059	48 8d 52 01	 lea	 rdx, QWORD PTR [rdx+1]
; File c:\users\alist_000\cppmisc\packages\visualcpptools.14.0.24629\lib\native\include\vector

; 1684 : 		return (this->_Mylast() - this->_Myfirst());

  0005d	48 8b 4b 08	 mov	 rcx, QWORD PTR [rbx+8]
  00061	48 2b 0b	 sub	 rcx, QWORD PTR [rbx]
; File c:\users\alist_000\cppmisc\scary.cc

; 10   :   for(int i = 0; i < v.size(); ++i)

  00064	48 63 c7	 movsxd	 rax, edi
  00067	48 3b c1	 cmp	 rax, rcx
  0006a	72 e4		 jb	 SHORT $LL4@setVector
$LN57@setVector:

; 12   :   return v;

  0006c	48 8b c3	 mov	 rax, rbx

; 13   : }

  0006f	48 8b 5c 24 48	 mov	 rbx, QWORD PTR [rsp+72]
  00074	48 8b 74 24 50	 mov	 rsi, QWORD PTR [rsp+80]
  00079	48 83 c4 30	 add	 rsp, 48			; 00000030H
  0007d	5f		 pop	 rdi
  0007e	c3		 ret	 0
  0007f	cc		 int	 3
?setVector@@YA?AV?$vector@DV?$allocator@D@std@@@std@@D@Z ENDP ; setVector
_TEXT	ENDS
text$x	SEGMENT
$T1 = 32
$T2 = 40
__$ReturnUdt$ = 64
val$ = 72
?dtor$0@?0??setVector@@YA?AV?$vector@DV?$allocator@D@std@@@std@@D@Z@4HA PROC ; `setVector'::`1'::dtor$0
  00000	40 55		 push	 rbp
  00002	48 83 ec 20	 sub	 rsp, 32			; 00000020H
  00006	48 8b ea	 mov	 rbp, rdx
  00009	8b 45 20	 mov	 eax, DWORD PTR $T1[rbp]
  0000c	83 e0 01	 and	 eax, 1
  0000f	85 c0		 test	 eax, eax
  00011	74 0d		 je	 SHORT $LN7@dtor$0
  00013	83 65 20 fe	 and	 DWORD PTR $T1[rbp], -2
  00017	48 8b 4d 40	 mov	 rcx, QWORD PTR __$ReturnUdt$[rbp]
  0001b	e8 00 00 00 00	 call	 ??1?$vector@DV?$allocator@D@std@@@std@@QEAA@XZ ; std::vector<char,std::allocator<char> >::~vector<char,std::allocator<char> >
$LN7@dtor$0:
  00020	48 83 c4 20	 add	 rsp, 32			; 00000020H
  00024	5d		 pop	 rbp
  00025	c3		 ret	 0
?dtor$0@?0??setVector@@YA?AV?$vector@DV?$allocator@D@std@@@std@@D@Z@4HA ENDP ; `setVector'::`1'::dtor$0
text$x	ENDS
; Function compile flags: /Ogtpy
text$x	SEGMENT
$T1 = 32
$T2 = 40
__$ReturnUdt$ = 64
val$ = 72
?dtor$0@?0??setVector@@YA?AV?$vector@DV?$allocator@D@std@@@std@@D@Z@4HA PROC ; `setVector'::`1'::dtor$0
  00000	40 55		 push	 rbp
  00002	48 83 ec 20	 sub	 rsp, 32			; 00000020H
  00006	48 8b ea	 mov	 rbp, rdx
  00009	8b 45 20	 mov	 eax, DWORD PTR $T1[rbp]
  0000c	83 e0 01	 and	 eax, 1
  0000f	85 c0		 test	 eax, eax
  00011	74 0d		 je	 SHORT $LN7@dtor$0
  00013	83 65 20 fe	 and	 DWORD PTR $T1[rbp], -2
  00017	48 8b 4d 40	 mov	 rcx, QWORD PTR __$ReturnUdt$[rbp]
  0001b	e8 00 00 00 00	 call	 ??1?$vector@DV?$allocator@D@std@@@std@@QEAA@XZ ; std::vector<char,std::allocator<char> >::~vector<char,std::allocator<char> >
$LN7@dtor$0:
  00020	48 83 c4 20	 add	 rsp, 32			; 00000020H
  00024	5d		 pop	 rbp
  00025	c3		 ret	 0
?dtor$0@?0??setVector@@YA?AV?$vector@DV?$allocator@D@std@@@std@@D@Z@4HA ENDP ; `setVector'::`1'::dtor$0
text$x	ENDS
; Function compile flags: /Ogtpy
; File c:\users\alist_000\cppmisc\scary.cc
; File c:\program files (x86)\windows kits\10\include\10.0.10586.0\ucrt\time.h
; File c:\users\alist_000\cppmisc\scary.cc
; File c:\users\alist_000\cppmisc\packages\visualcpptools.14.0.24629\lib\native\include\vector
; File c:\users\alist_000\cppmisc\scary.cc
; File c:\users\alist_000\cppmisc\packages\visualcpptools.14.0.24629\lib\native\include\ostream
; File c:\users\alist_000\cppmisc\packages\visualcpptools.14.0.24629\lib\native\include\ios
; File c:\users\alist_000\cppmisc\packages\visualcpptools.14.0.24629\lib\native\include\xlocale
; File c:\users\alist_000\cppmisc\packages\visualcpptools.14.0.24629\lib\native\include\ostream
; File c:\users\alist_000\cppmisc\packages\visualcpptools.14.0.24629\lib\native\include\vector
; File c:\users\alist_000\cppmisc\scary.cc
; File c:\users\alist_000\cppmisc\packages\visualcpptools.14.0.24629\lib\native\include\vector
; File c:\users\alist_000\cppmisc\packages\visualcpptools.14.0.24629\lib\native\include\xmemory0
; File c:\users\alist_000\cppmisc\scary.cc
_TEXT	SEGMENT
$T1 = 32
$T2 = 40
vector$ = 56
main	PROC

; 15   : int main() {

$LN205:
  00000	41 56		 push	 r14
  00002	48 83 ec 50	 sub	 rsp, 80			; 00000050H
  00006	48 c7 44 24 20
	fe ff ff ff	 mov	 QWORD PTR $T1[rsp], -2
  0000f	48 89 5c 24 60	 mov	 QWORD PTR [rsp+96], rbx
  00014	48 89 6c 24 68	 mov	 QWORD PTR [rsp+104], rbp
  00019	48 89 74 24 70	 mov	 QWORD PTR [rsp+112], rsi
  0001e	48 89 7c 24 78	 mov	 QWORD PTR [rsp+120], rdi
; File c:\program files (x86)\windows kits\10\include\10.0.10586.0\ucrt\time.h

; 535  :             return _time64(_Time);

  00023	33 c9		 xor	 ecx, ecx
  00025	e8 00 00 00 00	 call	 _time64
  0002a	48 8b c8	 mov	 rcx, rax
; File c:\users\alist_000\cppmisc\scary.cc

; 16   :   std::srand(static_cast<int>(time(nullptr)));

  0002d	e8 00 00 00 00	 call	 srand

; 17   :   auto randomChar = static_cast<char>(97+(std::rand() % 26));

  00032	e8 00 00 00 00	 call	 rand
  00037	44 8b c0	 mov	 r8d, eax
  0003a	b8 4f ec c4 4e	 mov	 eax, 1321528399		; 4ec4ec4fH
  0003f	41 f7 e8	 imul	 r8d
  00042	c1 fa 03	 sar	 edx, 3
  00045	8b ca		 mov	 ecx, edx
  00047	c1 e9 1f	 shr	 ecx, 31
  0004a	03 d1		 add	 edx, ecx
  0004c	6b ca 1a	 imul	 ecx, edx, 26
  0004f	44 2b c1	 sub	 r8d, ecx
  00052	41 8d 50 61	 lea	 edx, DWORD PTR [r8+97]

; 18   :   auto vector = setVector(randomChar);

  00056	48 8d 4c 24 38	 lea	 rcx, QWORD PTR vector$[rsp]
  0005b	e8 00 00 00 00	 call	 ?setVector@@YA?AV?$vector@DV?$allocator@D@std@@@std@@D@Z ; setVector
  00060	90		 npad	 1
; File c:\users\alist_000\cppmisc\packages\visualcpptools.14.0.24629\lib\native\include\vector

; 44   : 		: _Ptr(_Parg)

  00061	48 8b 7c 24 38	 mov	 rdi, QWORD PTR vector$[rsp]
  00066	48 8b 5c 24 40	 mov	 rbx, QWORD PTR vector$[rsp+8]

; 208  : 		return (_Ptr == _Right._Ptr);

  0006b	48 3b fb	 cmp	 rdi, rbx
; File c:\users\alist_000\cppmisc\scary.cc

; 19   :   for(const auto &v : vector) {

  0006e	0f 84 97 00 00
	00		 je	 $LN3@main
  00074	48 8d 2d 00 00
	00 00		 lea	 rbp, OFFSET FLAT:??_7?$ctype@D@std@@6B@
  0007b	0f 1f 44 00 00	 npad	 5
$LL4@main:

; 20   :     std::cout << v << std::endl;

  00080	0f b6 17	 movzx	 edx, BYTE PTR [rdi]
  00083	e8 00 00 00 00	 call	 ??$?6U?$char_traits@D@std@@@std@@YAAEAV?$basic_ostream@DU?$char_traits@D@std@@@0@AEAV10@D@Z ; std::operator<<<std::char_traits<char> >
  00088	48 8b f0	 mov	 rsi, rax
; File c:\users\alist_000\cppmisc\packages\visualcpptools.14.0.24629\lib\native\include\ostream

; 985  : 	_Ostr.put(_Ostr.widen('\n'));

  0008b	48 8b 08	 mov	 rcx, QWORD PTR [rax]
  0008e	48 63 49 04	 movsxd	 rcx, DWORD PTR [rcx+4]
  00092	48 03 c8	 add	 rcx, rax
; File c:\users\alist_000\cppmisc\packages\visualcpptools.14.0.24629\lib\native\include\ios

; 131  : 		const _Ctype& _Ctype_fac = _USE(getloc(), _Ctype);

  00095	48 8d 54 24 28	 lea	 rdx, QWORD PTR $T2[rsp]
  0009a	e8 00 00 00 00	 call	 ?getloc@ios_base@std@@QEBA?AVlocale@2@XZ ; std::ios_base::getloc
  0009f	90		 npad	 1
  000a0	48 8b c8	 mov	 rcx, rax
  000a3	e8 00 00 00 00	 call	 ??$use_facet@V?$ctype@D@std@@@std@@YAAEBV?$ctype@D@0@AEBVlocale@0@@Z ; std::use_facet<std::ctype<char> >
  000a8	4c 8b f0	 mov	 r14, rax
; File c:\users\alist_000\cppmisc\packages\visualcpptools.14.0.24629\lib\native\include\xlocale

; 410  : 		if (_Ptr != 0)

  000ab	48 8b 4c 24 30	 mov	 rcx, QWORD PTR $T2[rsp+8]
  000b0	48 85 c9	 test	 rcx, rcx
  000b3	74 1a		 je	 SHORT $LN81@main

; 411  : 			delete _Ptr->_Decref();

  000b5	48 8b 11	 mov	 rdx, QWORD PTR [rcx]
  000b8	ff 52 10	 call	 QWORD PTR [rdx+16]
  000bb	48 85 c0	 test	 rax, rax
  000be	74 0f		 je	 SHORT $LN81@main
  000c0	4c 8b 00	 mov	 r8, QWORD PTR [rax]
  000c3	ba 01 00 00 00	 mov	 edx, 1
  000c8	48 8b c8	 mov	 rcx, rax
  000cb	41 ff 10	 call	 QWORD PTR [r8]
  000ce	90		 npad	 1
$LN81@main:
  000cf	49 8b 06	 mov	 rax, QWORD PTR [r14]
  000d2	4c 8b 40 40	 mov	 r8, QWORD PTR [rax+64]
  000d6	48 3b c5	 cmp	 rax, rbp
  000d9	75 04		 jne	 SHORT $LN87@main
  000db	b0 0a		 mov	 al, 10
  000dd	eb 08		 jmp	 SHORT $LN86@main
$LN87@main:
  000df	b2 0a		 mov	 dl, 10
  000e1	49 8b ce	 mov	 rcx, r14

; 2368 : 		return (do_widen(_Byte));

  000e4	41 ff d0	 call	 r8
$LN86@main:
; File c:\users\alist_000\cppmisc\packages\visualcpptools.14.0.24629\lib\native\include\ostream

; 985  : 	_Ostr.put(_Ostr.widen('\n'));

  000e7	0f b6 d0	 movzx	 edx, al
  000ea	48 8b ce	 mov	 rcx, rsi
  000ed	e8 00 00 00 00	 call	 ?put@?$basic_ostream@DU?$char_traits@D@std@@@std@@QEAAAEAV12@D@Z ; std::basic_ostream<char,std::char_traits<char> >::put

; 986  : 	_Ostr.flush();

  000f2	48 8b ce	 mov	 rcx, rsi
  000f5	e8 00 00 00 00	 call	 ?flush@?$basic_ostream@DU?$char_traits@D@std@@@std@@QEAAAEAV12@XZ ; std::basic_ostream<char,std::char_traits<char> >::flush
; File c:\users\alist_000\cppmisc\packages\visualcpptools.14.0.24629\lib\native\include\vector

; 109  : 		++_Ptr;

  000fa	48 ff c7	 inc	 rdi

; 208  : 		return (_Ptr == _Right._Ptr);

  000fd	48 3b fb	 cmp	 rdi, rbx
; File c:\users\alist_000\cppmisc\scary.cc

; 19   :   for(const auto &v : vector) {

  00100	0f 85 7a ff ff
	ff		 jne	 $LL4@main
  00106	48 8b 7c 24 38	 mov	 rdi, QWORD PTR vector$[rsp]
$LN3@main:
; File c:\users\alist_000\cppmisc\packages\visualcpptools.14.0.24629\lib\native\include\vector

; 1923 : 		if (this->_Myfirst() != pointer())

  0010b	48 85 ff	 test	 rdi, rdi
  0010e	74 51		 je	 SHORT $LN94@main

; 1924 : 			{	// destroy and deallocate old array
; 1925 : 			_Destroy(this->_Myfirst(), this->_Mylast());
; 1926 : 			this->_Getal().deallocate(this->_Myfirst(), this->_Myend() - this->_Myfirst());

  00110	48 8b 44 24 48	 mov	 rax, QWORD PTR vector$[rsp+16]
  00115	48 2b c7	 sub	 rax, rdi
; File c:\users\alist_000\cppmisc\packages\visualcpptools.14.0.24629\lib\native\include\xmemory0

; 98   : 	if (_BIG_ALLOCATION_THRESHOLD <= _User_size)

  00118	48 3d 00 10 00
	00		 cmp	 rax, 4096		; 00001000H
  0011e	72 39		 jb	 SHORT $LN162@main

; 99   : 		{	// deallocate large block
; 100  : 		const uintptr_t _Ptr_user = reinterpret_cast<uintptr_t>(_Ptr);
; 101  : 		_SCL_SECURE_ALWAYS_VALIDATE(

  00120	40 f6 c7 1f	 test	 dil, 31
  00124	74 06		 je	 SHORT $LN163@main
  00126	e8 00 00 00 00	 call	 _invalid_parameter_noinfo_noreturn
  0012b	cc		 int	 3
$LN163@main:

; 102  : 			(_Ptr_user & (_BIG_ALLOCATION_ALIGNMENT - 1)) == 0);
; 103  : 		const uintptr_t _Ptr_ptr = _Ptr_user - sizeof(void *);
; 104  : 		const uintptr_t _Ptr_container =
; 105  : 			*reinterpret_cast<uintptr_t *>(_Ptr_ptr);

  0012c	48 8b 47 f8	 mov	 rax, QWORD PTR [rdi-8]

; 106  : 
; 107  :  #ifdef _DEBUG
; 108  : 		// If the following asserts, it likely means that we are performing
; 109  : 		// an aligned delete on memory coming from an unaligned allocation.
; 110  : 		_SCL_SECURE_ALWAYS_VALIDATE(
; 111  : 			reinterpret_cast<uintptr_t *>(_Ptr_ptr)[-1] ==
; 112  : 				_BIG_ALLOCATION_SENTINEL);
; 113  :  #endif /* _DEBUG */
; 114  : 
; 115  : 		// Extra paranoia on aligned allocation/deallocation
; 116  : 		_SCL_SECURE_ALWAYS_VALIDATE(_Ptr_container < _Ptr_user);

  00130	48 3b c7	 cmp	 rax, rdi
  00133	72 06		 jb	 SHORT $LN164@main
  00135	e8 00 00 00 00	 call	 _invalid_parameter_noinfo_noreturn
  0013a	cc		 int	 3
$LN164@main:

; 117  : 
; 118  :  #ifdef _DEBUG
; 119  : 		_SCL_SECURE_ALWAYS_VALIDATE(2 * sizeof(void *)
; 120  : 			<= _Ptr_user - _Ptr_container);
; 121  : 
; 122  :  #else /* _DEBUG */
; 123  : 		_SCL_SECURE_ALWAYS_VALIDATE(sizeof(void *)

  0013b	48 2b f8	 sub	 rdi, rax
  0013e	48 83 ff 08	 cmp	 rdi, 8
  00142	73 06		 jae	 SHORT $LN165@main
  00144	e8 00 00 00 00	 call	 _invalid_parameter_noinfo_noreturn
  00149	cc		 int	 3
$LN165@main:

; 124  : 			<= _Ptr_user - _Ptr_container);
; 125  :  #endif /* _DEBUG */
; 126  : 
; 127  : 		_SCL_SECURE_ALWAYS_VALIDATE(_Ptr_user - _Ptr_container

  0014a	48 83 ff 27	 cmp	 rdi, 39			; 00000027H
  0014e	76 06		 jbe	 SHORT $LN166@main
  00150	e8 00 00 00 00	 call	 _invalid_parameter_noinfo_noreturn
  00155	cc		 int	 3
$LN166@main:

; 128  : 			<= _NON_USER_SIZE);
; 129  : 
; 130  : 		_Ptr = reinterpret_cast<void *>(_Ptr_container);

  00156	48 8b f8	 mov	 rdi, rax
$LN162@main:

; 131  : 		}
; 132  :  #endif /* defined(_M_IX86) || defined(_M_X64) */
; 133  : 
; 134  : 	::operator delete(_Ptr);

  00159	48 8b cf	 mov	 rcx, rdi
  0015c	e8 00 00 00 00	 call	 ??3@YAXPEAX@Z		; operator delete
$LN94@main:
; File c:\users\alist_000\cppmisc\scary.cc

; 22   :   return 0;

  00161	33 c0		 xor	 eax, eax

; 23   : }

  00163	48 8b 5c 24 60	 mov	 rbx, QWORD PTR [rsp+96]
  00168	48 8b 6c 24 68	 mov	 rbp, QWORD PTR [rsp+104]
  0016d	48 8b 74 24 70	 mov	 rsi, QWORD PTR [rsp+112]
  00172	48 8b 7c 24 78	 mov	 rdi, QWORD PTR [rsp+120]
  00177	48 83 c4 50	 add	 rsp, 80			; 00000050H
  0017b	41 5e		 pop	 r14
  0017d	c3		 ret	 0
$LN204@main:
main	ENDP
_TEXT	ENDS
text$x	SEGMENT
$T1 = 32
$T2 = 40
vector$ = 56
main$dtor$0 PROC
  00000	48 8d 8a 38 00
	00 00		 lea	 rcx, QWORD PTR vector$[rdx]
  00007	e9 00 00 00 00	 jmp	 ??1?$vector@DV?$allocator@D@std@@@std@@QEAA@XZ ; std::vector<char,std::allocator<char> >::~vector<char,std::allocator<char> >
main$dtor$0 ENDP
$T1 = 32
$T2 = 40
vector$ = 56
main$dtor$13 PROC
  0000c	48 8d 8a 28 00
	00 00		 lea	 rcx, QWORD PTR $T2[rdx]
  00013	e9 00 00 00 00	 jmp	 ??1locale@std@@QEAA@XZ	; std::locale::~locale
main$dtor$13 ENDP
text$x	ENDS
; Function compile flags: /Ogtpy
text$x	SEGMENT
$T1 = 32
$T2 = 40
vector$ = 56
main$dtor$0 PROC
  00000	48 8d 8a 38 00
	00 00		 lea	 rcx, QWORD PTR vector$[rdx]
  00007	e9 00 00 00 00	 jmp	 ??1?$vector@DV?$allocator@D@std@@@std@@QEAA@XZ ; std::vector<char,std::allocator<char> >::~vector<char,std::allocator<char> >
main$dtor$0 ENDP
text$x	ENDS
; Function compile flags: /Ogtpy
text$x	SEGMENT
$T1 = 32
$T2 = 40
vector$ = 56
main$dtor$13 PROC
  0000c	48 8d 8a 28 00
	00 00		 lea	 rcx, QWORD PTR $T2[rdx]
  00013	e9 00 00 00 00	 jmp	 ??1locale@std@@QEAA@XZ	; std::locale::~locale
main$dtor$13 ENDP
text$x	ENDS
; Function compile flags: /Ogtpy
; File c:\users\alist_000\cppmisc\packages\visualcpptools.14.0.24629\lib\native\include\vector
;	COMDAT ??9?$_Vector_const_iterator@V?$_Vector_val@U?$_Simple_types@D@std@@@std@@@std@@QEBA_NAEBV01@@Z
_TEXT	SEGMENT
this$ = 8
_Right$ = 16
??9?$_Vector_const_iterator@V?$_Vector_val@U?$_Simple_types@D@std@@@std@@@std@@QEBA_NAEBV01@@Z PROC ; std::_Vector_const_iterator<std::_Vector_val<std::_Simple_types<char> > >::operator!=, COMDAT

; 212  : 		{	// test for iterator inequality

  00000	48 8b 02	 mov	 rax, QWORD PTR [rdx]
  00003	48 39 01	 cmp	 QWORD PTR [rcx], rax
  00006	0f 95 c0	 setne	 al

; 213  : 		return (!(*this == _Right));
; 214  : 		}

  00009	c3		 ret	 0
??9?$_Vector_const_iterator@V?$_Vector_val@U?$_Simple_types@D@std@@@std@@@std@@QEBA_NAEBV01@@Z ENDP ; std::_Vector_const_iterator<std::_Vector_val<std::_Simple_types<char> > >::operator!=
_TEXT	ENDS
; Function compile flags: /Ogtpy
; File c:\users\alist_000\cppmisc\packages\visualcpptools.14.0.24629\lib\native\include\vector
;	COMDAT ??E?$_Vector_iterator@V?$_Vector_val@U?$_Simple_types@D@std@@@std@@@std@@QEAAAEAV01@XZ
_TEXT	SEGMENT
this$ = 8
??E?$_Vector_iterator@V?$_Vector_val@U?$_Simple_types@D@std@@@std@@@std@@QEAAAEAV01@XZ PROC ; std::_Vector_iterator<std::_Vector_val<std::_Simple_types<char> > >::operator++, COMDAT

; 109  : 		++_Ptr;

  00000	48 ff 01	 inc	 QWORD PTR [rcx]

; 334  : 		++*(_Mybase *)this;
; 335  : 		return (*this);

  00003	48 8b c1	 mov	 rax, rcx

; 336  : 		}

  00006	c3		 ret	 0
??E?$_Vector_iterator@V?$_Vector_val@U?$_Simple_types@D@std@@@std@@@std@@QEAAAEAV01@XZ ENDP ; std::_Vector_iterator<std::_Vector_val<std::_Simple_types<char> > >::operator++
_TEXT	ENDS
; Function compile flags: /Ogtpy
; File c:\users\alist_000\cppmisc\packages\visualcpptools.14.0.24629\lib\native\include\vector
;	COMDAT ??D?$_Vector_iterator@V?$_Vector_val@U?$_Simple_types@D@std@@@std@@@std@@QEBAAEADXZ
_TEXT	SEGMENT
this$ = 8
??D?$_Vector_iterator@V?$_Vector_val@U?$_Simple_types@D@std@@@std@@@std@@QEBAAEADXZ PROC ; std::_Vector_iterator<std::_Vector_val<std::_Simple_types<char> > >::operator*, COMDAT

; 324  : 		return ((reference)**(_Mybase *)this);

  00000	48 8b 01	 mov	 rax, QWORD PTR [rcx]

; 325  : 		}

  00003	c3		 ret	 0
??D?$_Vector_iterator@V?$_Vector_val@U?$_Simple_types@D@std@@@std@@@std@@QEBAAEADXZ ENDP ; std::_Vector_iterator<std::_Vector_val<std::_Simple_types<char> > >::operator*
_TEXT	ENDS
; Function compile flags: /Ogtpy
; File c:\users\alist_000\cppmisc\packages\visualcpptools.14.0.24629\lib\native\include\vector
;	COMDAT ??A?$vector@DV?$allocator@D@std@@@std@@QEAAAEAD_K@Z
_TEXT	SEGMENT
this$ = 8
_Pos$ = 16
??A?$vector@DV?$allocator@D@std@@@std@@QEAAAEAD_K@Z PROC ; std::vector<char,std::allocator<char> >::operator[], COMDAT

; 1711 :  #if _ITERATOR_DEBUG_LEVEL == 2
; 1712 : 		if (size() <= _Pos)
; 1713 : 			{	// report error
; 1714 : 			_DEBUG_ERROR("vector subscript out of range");
; 1715 : 			}
; 1716 :  #elif _ITERATOR_DEBUG_LEVEL == 1
; 1717 : 		_SCL_SECURE_VALIDATE_RANGE(_Pos < size());
; 1718 :  #endif /* _ITERATOR_DEBUG_LEVEL */
; 1719 : 
; 1720 : 		return (this->_Myfirst()[_Pos]);

  00000	48 8b 01	 mov	 rax, QWORD PTR [rcx]
  00003	48 03 c2	 add	 rax, rdx

; 1721 : 		}

  00006	c3		 ret	 0
??A?$vector@DV?$allocator@D@std@@@std@@QEAAAEAD_K@Z ENDP ; std::vector<char,std::allocator<char> >::operator[]
_TEXT	ENDS
; Function compile flags: /Ogtpy
; File c:\users\alist_000\cppmisc\packages\visualcpptools.14.0.24629\lib\native\include\vector
;	COMDAT ?size@?$vector@DV?$allocator@D@std@@@std@@QEBA_KXZ
_TEXT	SEGMENT
this$ = 8
?size@?$vector@DV?$allocator@D@std@@@std@@QEBA_KXZ PROC	; std::vector<char,std::allocator<char> >::size, COMDAT

; 1684 : 		return (this->_Mylast() - this->_Myfirst());

  00000	48 8b 41 08	 mov	 rax, QWORD PTR [rcx+8]
  00004	48 2b 01	 sub	 rax, QWORD PTR [rcx]

; 1685 : 		}

  00007	c3		 ret	 0
?size@?$vector@DV?$allocator@D@std@@@std@@QEBA_KXZ ENDP	; std::vector<char,std::allocator<char> >::size
_TEXT	ENDS
; Function compile flags: /Ogtpy
; File c:\users\alist_000\cppmisc\packages\visualcpptools.14.0.24629\lib\native\include\vector
;	COMDAT ?end@?$vector@DV?$allocator@D@std@@@std@@QEAA?AV?$_Vector_iterator@V?$_Vector_val@U?$_Simple_types@D@std@@@std@@@2@XZ
_TEXT	SEGMENT
this$ = 8
__$ReturnUdt$ = 16
?end@?$vector@DV?$allocator@D@std@@@std@@QEAA?AV?$_Vector_iterator@V?$_Vector_val@U?$_Simple_types@D@std@@@std@@@2@XZ PROC ; std::vector<char,std::allocator<char> >::end, COMDAT

; 44   : 		: _Ptr(_Parg)

  00000	48 8b 41 08	 mov	 rax, QWORD PTR [rcx+8]
  00004	48 89 02	 mov	 QWORD PTR [rdx], rax

; 1629 : 		return (iterator(this->_Mylast(), &this->_Get_data()));

  00007	48 8b c2	 mov	 rax, rdx

; 1630 : 		}

  0000a	c3		 ret	 0
?end@?$vector@DV?$allocator@D@std@@@std@@QEAA?AV?$_Vector_iterator@V?$_Vector_val@U?$_Simple_types@D@std@@@std@@@2@XZ ENDP ; std::vector<char,std::allocator<char> >::end
_TEXT	ENDS
; Function compile flags: /Ogtpy
; File c:\users\alist_000\cppmisc\packages\visualcpptools.14.0.24629\lib\native\include\vector
;	COMDAT ?begin@?$vector@DV?$allocator@D@std@@@std@@QEAA?AV?$_Vector_iterator@V?$_Vector_val@U?$_Simple_types@D@std@@@std@@@2@XZ
_TEXT	SEGMENT
this$ = 8
__$ReturnUdt$ = 16
?begin@?$vector@DV?$allocator@D@std@@@std@@QEAA?AV?$_Vector_iterator@V?$_Vector_val@U?$_Simple_types@D@std@@@std@@@2@XZ PROC ; std::vector<char,std::allocator<char> >::begin, COMDAT

; 44   : 		: _Ptr(_Parg)

  00000	48 8b 01	 mov	 rax, QWORD PTR [rcx]
  00003	48 89 02	 mov	 QWORD PTR [rdx], rax

; 1619 : 		return (iterator(this->_Myfirst(), &this->_Get_data()));

  00006	48 8b c2	 mov	 rax, rdx

; 1620 : 		}

  00009	c3		 ret	 0
?begin@?$vector@DV?$allocator@D@std@@@std@@QEAA?AV?$_Vector_iterator@V?$_Vector_val@U?$_Simple_types@D@std@@@std@@@2@XZ ENDP ; std::vector<char,std::allocator<char> >::begin
_TEXT	ENDS
; Function compile flags: /Ogtpy
; File c:\users\alist_000\cppmisc\packages\visualcpptools.14.0.24629\lib\native\include\vector
;	COMDAT ?resize@?$vector@DV?$allocator@D@std@@@std@@QEAAX_K@Z
_TEXT	SEGMENT
this$ = 8
_Newsize$dead$ = 16
?resize@?$vector@DV?$allocator@D@std@@@std@@QEAAX_K@Z PROC ; std::vector<char,std::allocator<char> >::resize, COMDAT

; 1465 : 		auto _Lambda_default = [this](pointer _Dest, const size_type _Count)
; 1466 : 			{
; 1467 : 			return (_Udefault(_Dest, _Count));
; 1468 : 			};
; 1469 : 
; 1470 : 		_Resize(_Newsize, _Lambda_default);

  00000	e9 00 00 00 00	 jmp	 ??$_Resize@V<lambda_0965ae3a6f2eda0c9be18e4c004bd2c1>@@@?$vector@DV?$allocator@D@std@@@std@@AEAAX_KV<lambda_0965ae3a6f2eda0c9be18e4c004bd2c1>@@@Z ; std::vector<char,std::allocator<char> >::_Resize<<lambda_0965ae3a6f2eda0c9be18e4c004bd2c1> >
?resize@?$vector@DV?$allocator@D@std@@@std@@QEAAX_K@Z ENDP ; std::vector<char,std::allocator<char> >::resize
_TEXT	ENDS
; Function compile flags: /Ogtpy
; File c:\users\alist_000\cppmisc\packages\visualcpptools.14.0.24629\lib\native\include\vector
; File c:\users\alist_000\cppmisc\packages\visualcpptools.14.0.24629\lib\native\include\xmemory
; File c:\users\alist_000\cppmisc\packages\visualcpptools.14.0.24629\lib\native\include\vector
;	COMDAT ??R<lambda_0965ae3a6f2eda0c9be18e4c004bd2c1>@@QEBAPEADPEAD_K@Z
_TEXT	SEGMENT
this$dead$ = 48
_Dest$ = 56
_Count$ = 64
??R<lambda_0965ae3a6f2eda0c9be18e4c004bd2c1>@@QEBAPEADPEAD_K@Z PROC ; <lambda_0965ae3a6f2eda0c9be18e4c004bd2c1>::operator(), COMDAT

; 1466 : 			{

  00000	48 89 5c 24 08	 mov	 QWORD PTR [rsp+8], rbx
  00005	57		 push	 rdi
  00006	48 83 ec 20	 sub	 rsp, 32			; 00000020H
  0000a	48 8b da	 mov	 rbx, rdx
  0000d	49 8b f8	 mov	 rdi, r8
; File c:\users\alist_000\cppmisc\packages\visualcpptools.14.0.24629\lib\native\include\xmemory

; 476  : 	_CSTD memset(_First, 0, _Count * sizeof(_Iter_value_t<_FwdIt>));

  00010	48 8b cb	 mov	 rcx, rbx
  00013	33 d2		 xor	 edx, edx
  00015	e8 00 00 00 00	 call	 memset

; 477  : 	return (_First + _Count);

  0001a	48 8d 04 3b	 lea	 rax, QWORD PTR [rbx+rdi]
; File c:\users\alist_000\cppmisc\packages\visualcpptools.14.0.24629\lib\native\include\vector

; 1468 : 			};

  0001e	48 8b 5c 24 30	 mov	 rbx, QWORD PTR [rsp+48]
  00023	48 83 c4 20	 add	 rsp, 32			; 00000020H
  00027	5f		 pop	 rdi
  00028	c3		 ret	 0
??R<lambda_0965ae3a6f2eda0c9be18e4c004bd2c1>@@QEBAPEADPEAD_K@Z ENDP ; <lambda_0965ae3a6f2eda0c9be18e4c004bd2c1>::operator()
_TEXT	ENDS
; Function compile flags: /Ogtpy
; File c:\users\alist_000\cppmisc\packages\visualcpptools.14.0.24629\lib\native\include\vector
;	COMDAT ??0<lambda_0965ae3a6f2eda0c9be18e4c004bd2c1>@@QEAA@QEAV?$vector@DV?$allocator@D@std@@@std@@@Z
_TEXT	SEGMENT
this$ = 8
_This$ = 16
??0<lambda_0965ae3a6f2eda0c9be18e4c004bd2c1>@@QEAA@QEAV?$vector@DV?$allocator@D@std@@@std@@@Z PROC ; <lambda_0965ae3a6f2eda0c9be18e4c004bd2c1>::<lambda_0965ae3a6f2eda0c9be18e4c004bd2c1>, COMDAT

; 1468 : 			};

  00000	48 89 11	 mov	 QWORD PTR [rcx], rdx
  00003	48 8b c1	 mov	 rax, rcx
  00006	c3		 ret	 0
??0<lambda_0965ae3a6f2eda0c9be18e4c004bd2c1>@@QEAA@QEAV?$vector@DV?$allocator@D@std@@@std@@@Z ENDP ; <lambda_0965ae3a6f2eda0c9be18e4c004bd2c1>::<lambda_0965ae3a6f2eda0c9be18e4c004bd2c1>
_TEXT	ENDS
; Function compile flags: /Ogtpy
; File c:\users\alist_000\cppmisc\packages\visualcpptools.14.0.24629\lib\native\include\vector
; File c:\users\alist_000\cppmisc\packages\visualcpptools.14.0.24629\lib\native\include\xmemory0
; File c:\users\alist_000\cppmisc\packages\visualcpptools.14.0.24629\lib\native\include\vector
; File c:\users\alist_000\cppmisc\packages\visualcpptools.14.0.24629\lib\native\include\xmemory0
; File c:\users\alist_000\cppmisc\packages\visualcpptools.14.0.24629\lib\native\include\vector
;	COMDAT ??1?$vector@DV?$allocator@D@std@@@std@@QEAA@XZ
_TEXT	SEGMENT
this$ = 48
??1?$vector@DV?$allocator@D@std@@@std@@QEAA@XZ PROC	; std::vector<char,std::allocator<char> >::~vector<char,std::allocator<char> >, COMDAT

; 868  : 		{	// destroy the object

$LN115:
  00000	40 53		 push	 rbx
  00002	48 83 ec 20	 sub	 rsp, 32			; 00000020H
  00006	48 8b d9	 mov	 rbx, rcx

; 1923 : 		if (this->_Myfirst() != pointer())

  00009	48 8b 09	 mov	 rcx, QWORD PTR [rcx]
  0000c	48 85 c9	 test	 rcx, rcx
  0000f	74 41		 je	 SHORT $LN4@vector

; 1924 : 			{	// destroy and deallocate old array
; 1925 : 			_Destroy(this->_Myfirst(), this->_Mylast());
; 1926 : 			this->_Getal().deallocate(this->_Myfirst(), this->_Myend() - this->_Myfirst());

  00011	48 8b 43 10	 mov	 rax, QWORD PTR [rbx+16]
  00015	48 2b c1	 sub	 rax, rcx
; File c:\users\alist_000\cppmisc\packages\visualcpptools.14.0.24629\lib\native\include\xmemory0

; 98   : 	if (_BIG_ALLOCATION_THRESHOLD <= _User_size)

  00018	48 3d 00 10 00
	00		 cmp	 rax, 4096		; 00001000H
  0001e	72 20		 jb	 SHORT $LN72@vector

; 101  : 		_SCL_SECURE_ALWAYS_VALIDATE(

  00020	f6 c1 1f	 test	 cl, 31
  00023	75 33		 jne	 SHORT $LN110@vector

; 102  : 			(_Ptr_user & (_BIG_ALLOCATION_ALIGNMENT - 1)) == 0);
; 103  : 		const uintptr_t _Ptr_ptr = _Ptr_user - sizeof(void *);
; 104  : 		const uintptr_t _Ptr_container =
; 105  : 			*reinterpret_cast<uintptr_t *>(_Ptr_ptr);

  00025	48 8b 41 f8	 mov	 rax, QWORD PTR [rcx-8]

; 106  : 
; 107  :  #ifdef _DEBUG
; 108  : 		// If the following asserts, it likely means that we are performing
; 109  : 		// an aligned delete on memory coming from an unaligned allocation.
; 110  : 		_SCL_SECURE_ALWAYS_VALIDATE(
; 111  : 			reinterpret_cast<uintptr_t *>(_Ptr_ptr)[-1] ==
; 112  : 				_BIG_ALLOCATION_SENTINEL);
; 113  :  #endif /* _DEBUG */
; 114  : 
; 115  : 		// Extra paranoia on aligned allocation/deallocation
; 116  : 		_SCL_SECURE_ALWAYS_VALIDATE(_Ptr_container < _Ptr_user);

  00029	48 3b c1	 cmp	 rax, rcx
  0002c	73 30		 jae	 SHORT $LN112@vector

; 117  : 
; 118  :  #ifdef _DEBUG
; 119  : 		_SCL_SECURE_ALWAYS_VALIDATE(2 * sizeof(void *)
; 120  : 			<= _Ptr_user - _Ptr_container);
; 121  : 
; 122  :  #else /* _DEBUG */
; 123  : 		_SCL_SECURE_ALWAYS_VALIDATE(sizeof(void *)

  0002e	48 2b c8	 sub	 rcx, rax
  00031	48 83 f9 08	 cmp	 rcx, 8
  00035	72 2d		 jb	 SHORT $LN113@vector

; 124  : 			<= _Ptr_user - _Ptr_container);
; 125  :  #endif /* _DEBUG */
; 126  : 
; 127  : 		_SCL_SECURE_ALWAYS_VALIDATE(_Ptr_user - _Ptr_container

  00037	48 83 f9 27	 cmp	 rcx, 39			; 00000027H
  0003b	77 2d		 ja	 SHORT $LN114@vector

; 128  : 			<= _NON_USER_SIZE);
; 129  : 
; 130  : 		_Ptr = reinterpret_cast<void *>(_Ptr_container);

  0003d	48 8b c8	 mov	 rcx, rax
$LN72@vector:

; 131  : 		}
; 132  :  #endif /* defined(_M_IX86) || defined(_M_X64) */
; 133  : 
; 134  : 	::operator delete(_Ptr);

  00040	e8 00 00 00 00	 call	 ??3@YAXPEAX@Z		; operator delete
; File c:\users\alist_000\cppmisc\packages\visualcpptools.14.0.24629\lib\native\include\vector

; 1928 : 			this->_Myfirst() = pointer();

  00045	33 c0		 xor	 eax, eax
  00047	48 89 03	 mov	 QWORD PTR [rbx], rax

; 1929 : 			this->_Mylast() = pointer();

  0004a	48 89 43 08	 mov	 QWORD PTR [rbx+8], rax

; 1930 : 			this->_Myend() = pointer();

  0004e	48 89 43 10	 mov	 QWORD PTR [rbx+16], rax
$LN4@vector:

; 870  : 		}

  00052	48 83 c4 20	 add	 rsp, 32			; 00000020H
  00056	5b		 pop	 rbx
  00057	c3		 ret	 0
$LN110@vector:
; File c:\users\alist_000\cppmisc\packages\visualcpptools.14.0.24629\lib\native\include\xmemory0

; 101  : 		_SCL_SECURE_ALWAYS_VALIDATE(

  00058	e8 00 00 00 00	 call	 _invalid_parameter_noinfo_noreturn
  0005d	cc		 int	 3
$LN112@vector:

; 106  : 
; 107  :  #ifdef _DEBUG
; 108  : 		// If the following asserts, it likely means that we are performing
; 109  : 		// an aligned delete on memory coming from an unaligned allocation.
; 110  : 		_SCL_SECURE_ALWAYS_VALIDATE(
; 111  : 			reinterpret_cast<uintptr_t *>(_Ptr_ptr)[-1] ==
; 112  : 				_BIG_ALLOCATION_SENTINEL);
; 113  :  #endif /* _DEBUG */
; 114  : 
; 115  : 		// Extra paranoia on aligned allocation/deallocation
; 116  : 		_SCL_SECURE_ALWAYS_VALIDATE(_Ptr_container < _Ptr_user);

  0005e	e8 00 00 00 00	 call	 _invalid_parameter_noinfo_noreturn
  00063	cc		 int	 3
$LN113@vector:

; 117  : 
; 118  :  #ifdef _DEBUG
; 119  : 		_SCL_SECURE_ALWAYS_VALIDATE(2 * sizeof(void *)
; 120  : 			<= _Ptr_user - _Ptr_container);
; 121  : 
; 122  :  #else /* _DEBUG */
; 123  : 		_SCL_SECURE_ALWAYS_VALIDATE(sizeof(void *)

  00064	e8 00 00 00 00	 call	 _invalid_parameter_noinfo_noreturn
  00069	cc		 int	 3
$LN114@vector:

; 124  : 			<= _Ptr_user - _Ptr_container);
; 125  :  #endif /* _DEBUG */
; 126  : 
; 127  : 		_SCL_SECURE_ALWAYS_VALIDATE(_Ptr_user - _Ptr_container

  0006a	e8 00 00 00 00	 call	 _invalid_parameter_noinfo_noreturn
  0006f	cc		 int	 3
$LN109@vector:
??1?$vector@DV?$allocator@D@std@@@std@@QEAA@XZ ENDP	; std::vector<char,std::allocator<char> >::~vector<char,std::allocator<char> >
_TEXT	ENDS
; Function compile flags: /Ogtpy
; File c:\users\alist_000\cppmisc\packages\visualcpptools.14.0.24629\lib\native\include\vector
;	COMDAT ??0?$vector@DV?$allocator@D@std@@@std@@QEAA@$$QEAV01@@Z
_TEXT	SEGMENT
this$ = 8
_Right$ = 16
??0?$vector@DV?$allocator@D@std@@@std@@QEAA@$$QEAV01@@Z PROC ; std::vector<char,std::allocator<char> >::vector<char,std::allocator<char> >, COMDAT

; 478  : 		: _Myfirst(),

  00000	45 33 c0	 xor	 r8d, r8d
  00003	4c 89 01	 mov	 QWORD PTR [rcx], r8

; 479  : 		_Mylast(),

  00006	4c 89 41 08	 mov	 QWORD PTR [rcx+8], r8

; 480  : 		_Myend()

  0000a	4c 89 41 10	 mov	 QWORD PTR [rcx+16], r8

; 819  : 		this->_Myfirst() = _Right._Myfirst();

  0000e	48 8b 02	 mov	 rax, QWORD PTR [rdx]
  00011	48 89 01	 mov	 QWORD PTR [rcx], rax

; 820  : 		this->_Mylast() = _Right._Mylast();

  00014	48 8b 42 08	 mov	 rax, QWORD PTR [rdx+8]
  00018	48 89 41 08	 mov	 QWORD PTR [rcx+8], rax

; 821  : 		this->_Myend() = _Right._Myend();

  0001c	48 8b 42 10	 mov	 rax, QWORD PTR [rdx+16]
  00020	48 89 41 10	 mov	 QWORD PTR [rcx+16], rax

; 844  : 		_Move_from(_STD move(_Right), true_type{});
; 845  : 		}

  00024	48 8b c1	 mov	 rax, rcx

; 823  : 		_Right._Myfirst() = pointer();

  00027	4c 89 02	 mov	 QWORD PTR [rdx], r8

; 824  : 		_Right._Mylast() = pointer();

  0002a	4c 89 42 08	 mov	 QWORD PTR [rdx+8], r8

; 825  : 		_Right._Myend() = pointer();

  0002e	4c 89 42 10	 mov	 QWORD PTR [rdx+16], r8

; 844  : 		_Move_from(_STD move(_Right), true_type{});
; 845  : 		}

  00032	c3		 ret	 0
??0?$vector@DV?$allocator@D@std@@@std@@QEAA@$$QEAV01@@Z ENDP ; std::vector<char,std::allocator<char> >::vector<char,std::allocator<char> >
_TEXT	ENDS
; Function compile flags: /Ogtpy
; File c:\users\alist_000\cppmisc\packages\visualcpptools.14.0.24629\lib\native\include\vector
;	COMDAT ??0?$vector@DV?$allocator@D@std@@@std@@QEAA@XZ
_TEXT	SEGMENT
this$ = 8
??0?$vector@DV?$allocator@D@std@@@std@@QEAA@XZ PROC	; std::vector<char,std::allocator<char> >::vector<char,std::allocator<char> >, COMDAT

; 478  : 		: _Myfirst(),

  00000	33 c0		 xor	 eax, eax
  00002	48 89 01	 mov	 QWORD PTR [rcx], rax

; 479  : 		_Mylast(),

  00005	48 89 41 08	 mov	 QWORD PTR [rcx+8], rax

; 480  : 		_Myend()

  00009	48 89 41 10	 mov	 QWORD PTR [rcx+16], rax

; 726  : 		}

  0000d	48 8b c1	 mov	 rax, rcx
  00010	c3		 ret	 0
??0?$vector@DV?$allocator@D@std@@@std@@QEAA@XZ ENDP	; std::vector<char,std::allocator<char> >::vector<char,std::allocator<char> >
_TEXT	ENDS
; Function compile flags: /Ogtpy
; File c:\users\alist_000\cppmisc\packages\visualcpptools.14.0.24629\lib\native\include\xutility
;	COMDAT ??1?$_Yarn@_W@std@@QEAA@XZ
_TEXT	SEGMENT
this$ = 48
??1?$_Yarn@_W@std@@QEAA@XZ PROC				; std::_Yarn<wchar_t>::~_Yarn<wchar_t>, COMDAT

; 3690 : 		{	// destroy the object

$LN8:
  00000	40 53		 push	 rbx
  00002	48 83 ec 20	 sub	 rsp, 32			; 00000020H
  00006	48 8b d9	 mov	 rbx, rcx

; 3717 : 		if (_Myptr != 0)

  00009	48 8b 09	 mov	 rcx, QWORD PTR [rcx]
  0000c	48 85 c9	 test	 rcx, rcx
  0000f	74 05		 je	 SHORT $LN6@Yarn

; 3718 : 
; 3719 :  #ifdef _DEBUG
; 3720 : 			_free_dbg(_Myptr, _CRT_BLOCK);
; 3721 : 
; 3722 :  #else /* _DEBUG */
; 3723 : 			_CSTD free(_Myptr);

  00011	e8 00 00 00 00	 call	 free
$LN6@Yarn:

; 3724 :  #endif /* _DEBUG */
; 3725 : 
; 3726 : 		_Myptr = 0;

  00016	48 c7 03 00 00
	00 00		 mov	 QWORD PTR [rbx], 0

; 3691 : 		_Tidy();
; 3692 : 		}

  0001d	48 83 c4 20	 add	 rsp, 32			; 00000020H
  00021	5b		 pop	 rbx
  00022	c3		 ret	 0
??1?$_Yarn@_W@std@@QEAA@XZ ENDP				; std::_Yarn<wchar_t>::~_Yarn<wchar_t>
_TEXT	ENDS
; Function compile flags: /Ogtpy
; File c:\users\alist_000\cppmisc\packages\visualcpptools.14.0.24629\lib\native\include\xutility
;	COMDAT ??0?$_Yarn@_W@std@@QEAA@XZ
_TEXT	SEGMENT
this$ = 8
??0?$_Yarn@_W@std@@QEAA@XZ PROC				; std::_Yarn<wchar_t>::_Yarn<wchar_t>, COMDAT

; 3639 : 		: _Myptr(0), _Nul(0)

  00000	33 c0		 xor	 eax, eax
  00002	48 89 01	 mov	 QWORD PTR [rcx], rax
  00005	66 89 41 08	 mov	 WORD PTR [rcx+8], ax

; 3641 : 		}

  00009	48 8b c1	 mov	 rax, rcx
  0000c	c3		 ret	 0
??0?$_Yarn@_W@std@@QEAA@XZ ENDP				; std::_Yarn<wchar_t>::_Yarn<wchar_t>
_TEXT	ENDS
; Function compile flags: /Ogtpy
; File c:\users\alist_000\cppmisc\packages\visualcpptools.14.0.24629\lib\native\include\xutility
;	COMDAT ?c_str@?$_Yarn@D@std@@QEBAPEBDXZ
_TEXT	SEGMENT
this$ = 8
?c_str@?$_Yarn@D@std@@QEBAPEBDXZ PROC			; std::_Yarn<char>::c_str, COMDAT

; 3701 : 		return (_Myptr != 0 ? _Myptr : &_Nul);

  00000	48 8b 01	 mov	 rax, QWORD PTR [rcx]
  00003	48 85 c0	 test	 rax, rax
  00006	75 04		 jne	 SHORT $LN4@c_str
  00008	48 8d 41 08	 lea	 rax, QWORD PTR [rcx+8]
$LN4@c_str:

; 3702 : 		}

  0000c	c3		 ret	 0
?c_str@?$_Yarn@D@std@@QEBAPEBDXZ ENDP			; std::_Yarn<char>::c_str
_TEXT	ENDS
; Function compile flags: /Ogtpy
; File c:\users\alist_000\cppmisc\packages\visualcpptools.14.0.24629\lib\native\include\xutility
;	COMDAT ??1?$_Yarn@D@std@@QEAA@XZ
_TEXT	SEGMENT
this$ = 48
??1?$_Yarn@D@std@@QEAA@XZ PROC				; std::_Yarn<char>::~_Yarn<char>, COMDAT

; 3690 : 		{	// destroy the object

$LN8:
  00000	40 53		 push	 rbx
  00002	48 83 ec 20	 sub	 rsp, 32			; 00000020H
  00006	48 8b d9	 mov	 rbx, rcx

; 3717 : 		if (_Myptr != 0)

  00009	48 8b 09	 mov	 rcx, QWORD PTR [rcx]
  0000c	48 85 c9	 test	 rcx, rcx
  0000f	74 05		 je	 SHORT $LN6@Yarn

; 3718 : 
; 3719 :  #ifdef _DEBUG
; 3720 : 			_free_dbg(_Myptr, _CRT_BLOCK);
; 3721 : 
; 3722 :  #else /* _DEBUG */
; 3723 : 			_CSTD free(_Myptr);

  00011	e8 00 00 00 00	 call	 free
$LN6@Yarn:

; 3724 :  #endif /* _DEBUG */
; 3725 : 
; 3726 : 		_Myptr = 0;

  00016	48 c7 03 00 00
	00 00		 mov	 QWORD PTR [rbx], 0

; 3691 : 		_Tidy();
; 3692 : 		}

  0001d	48 83 c4 20	 add	 rsp, 32			; 00000020H
  00021	5b		 pop	 rbx
  00022	c3		 ret	 0
??1?$_Yarn@D@std@@QEAA@XZ ENDP				; std::_Yarn<char>::~_Yarn<char>
_TEXT	ENDS
; Function compile flags: /Ogtpy
; File c:\users\alist_000\cppmisc\packages\visualcpptools.14.0.24629\lib\native\include\xutility
;	COMDAT ??0?$_Yarn@D@std@@QEAA@XZ
_TEXT	SEGMENT
this$ = 8
??0?$_Yarn@D@std@@QEAA@XZ PROC				; std::_Yarn<char>::_Yarn<char>, COMDAT

; 3639 : 		: _Myptr(0), _Nul(0)

  00000	48 c7 01 00 00
	00 00		 mov	 QWORD PTR [rcx], 0

; 3641 : 		}

  00007	48 8b c1	 mov	 rax, rcx
  0000a	c6 41 08 00	 mov	 BYTE PTR [rcx+8], 0
  0000e	c3		 ret	 0
??0?$_Yarn@D@std@@QEAA@XZ ENDP				; std::_Yarn<char>::_Yarn<char>
_TEXT	ENDS
; Function compile flags: /Ogtpy
; File c:\users\alist_000\cppmisc\packages\visualcpptools.14.0.24629\lib\native\include\xstring
;	COMDAT ?empty@?$basic_string@DU?$char_traits@D@std@@V?$allocator@D@2@@std@@QEBA_NXZ
_TEXT	SEGMENT
this$ = 8
?empty@?$basic_string@DU?$char_traits@D@std@@V?$allocator@D@2@@std@@QEBA_NXZ PROC ; std::basic_string<char,std::char_traits<char>,std::allocator<char> >::empty, COMDAT

; 3084 : 		{	// test if sequence is empty

  00000	48 83 79 10 00	 cmp	 QWORD PTR [rcx+16], 0
  00005	0f 94 c0	 sete	 al

; 3085 : 		return (this->_Mysize() == 0);
; 3086 : 		}

  00008	c3		 ret	 0
?empty@?$basic_string@DU?$char_traits@D@std@@V?$allocator@D@2@@std@@QEBA_NXZ ENDP ; std::basic_string<char,std::char_traits<char>,std::allocator<char> >::empty
_TEXT	ENDS
; Function compile flags: /Ogtpy
; File c:\users\alist_000\cppmisc\packages\visualcpptools.14.0.24629\lib\native\include\xstring
;	COMDAT ?c_str@?$basic_string@DU?$char_traits@D@std@@V?$allocator@D@2@@std@@QEBAPEBDXZ
_TEXT	SEGMENT
this$ = 8
?c_str@?$basic_string@DU?$char_traits@D@std@@V?$allocator@D@2@@std@@QEBAPEBDXZ PROC ; std::basic_string<char,std::char_traits<char>,std::allocator<char> >::c_str, COMDAT

; 1638 : 		return (this->_BUF_SIZE <= _Myres);

  00000	48 83 79 18 10	 cmp	 QWORD PTR [rcx+24], 16

; 1631 : 		return (_Large_string_engaged()

  00005	72 04		 jb	 SHORT $LN13@c_str

; 2996 : 		return (this->_Myptr());

  00007	48 8b 01	 mov	 rax, QWORD PTR [rcx]

; 2997 : 		}

  0000a	c3		 ret	 0
$LN13@c_str:

; 2996 : 		return (this->_Myptr());

  0000b	48 8b c1	 mov	 rax, rcx

; 2997 : 		}

  0000e	c3		 ret	 0
?c_str@?$basic_string@DU?$char_traits@D@std@@V?$allocator@D@2@@std@@QEBAPEBDXZ ENDP ; std::basic_string<char,std::char_traits<char>,std::allocator<char> >::c_str
_TEXT	ENDS
; Function compile flags: /Ogtpy
; File c:\users\alist_000\cppmisc\packages\visualcpptools.14.0.24629\lib\native\include\xstring
; File c:\users\alist_000\cppmisc\packages\visualcpptools.14.0.24629\lib\native\include\iosfwd
; File c:\users\alist_000\cppmisc\packages\visualcpptools.14.0.24629\lib\native\include\xstring
;	COMDAT ?append@?$basic_string@DU?$char_traits@D@std@@V?$allocator@D@2@@std@@QEAAAEAV12@QEBD@Z
_TEXT	SEGMENT
this$ = 8
_Ptr$ = 16
?append@?$basic_string@DU?$char_traits@D@std@@V?$allocator@D@2@@std@@QEAAAEAV12@QEBD@Z PROC ; std::basic_string<char,std::char_traits<char>,std::allocator<char> >::append, COMDAT
; File c:\users\alist_000\cppmisc\packages\visualcpptools.14.0.24629\lib\native\include\iosfwd

; 479  : 		return (_CSTD strlen(_First));

  00000	49 83 c8 ff	 or	 r8, -1
$LL6@append:
  00004	49 ff c0	 inc	 r8
  00007	42 80 3c 02 00	 cmp	 BYTE PTR [rdx+r8], 0
  0000c	75 f6		 jne	 SHORT $LL6@append
; File c:\users\alist_000\cppmisc\packages\visualcpptools.14.0.24629\lib\native\include\xstring

; 2285 : 		return (append(_Ptr, _Traits::length(_Ptr)));

  0000e	e9 00 00 00 00	 jmp	 ?append@?$basic_string@DU?$char_traits@D@std@@V?$allocator@D@2@@std@@QEAAAEAV12@QEBD_K@Z ; std::basic_string<char,std::char_traits<char>,std::allocator<char> >::append
?append@?$basic_string@DU?$char_traits@D@std@@V?$allocator@D@2@@std@@QEAAAEAV12@QEBD@Z ENDP ; std::basic_string<char,std::char_traits<char>,std::allocator<char> >::append
_TEXT	ENDS
; Function compile flags: /Ogtpy
; File c:\users\alist_000\cppmisc\packages\visualcpptools.14.0.24629\lib\native\include\xstring
;	COMDAT ?append@?$basic_string@DU?$char_traits@D@std@@V?$allocator@D@2@@std@@QEAAAEAV12@AEBV12@@Z
_TEXT	SEGMENT
this$ = 8
_Right$ = 16
?append@?$basic_string@DU?$char_traits@D@std@@V?$allocator@D@2@@std@@QEAAAEAV12@AEBV12@@Z PROC ; std::basic_string<char,std::char_traits<char>,std::allocator<char> >::append, COMDAT

; 2226 : 		return (append(_Right, 0, npos));

  00000	49 83 c9 ff	 or	 r9, -1
  00004	45 33 c0	 xor	 r8d, r8d
  00007	e9 00 00 00 00	 jmp	 ?append@?$basic_string@DU?$char_traits@D@std@@V?$allocator@D@2@@std@@QEAAAEAV12@AEBV12@_K_K@Z ; std::basic_string<char,std::char_traits<char>,std::allocator<char> >::append
?append@?$basic_string@DU?$char_traits@D@std@@V?$allocator@D@2@@std@@QEAAAEAV12@AEBV12@@Z ENDP ; std::basic_string<char,std::char_traits<char>,std::allocator<char> >::append
_TEXT	ENDS
; Function compile flags: /Ogtpy
; File c:\users\alist_000\cppmisc\packages\visualcpptools.14.0.24629\lib\native\include\xstring
; File c:\users\alist_000\cppmisc\packages\visualcpptools.14.0.24629\lib\native\include\xmemory0
; File c:\users\alist_000\cppmisc\packages\visualcpptools.14.0.24629\lib\native\include\xstring
; File c:\users\alist_000\cppmisc\packages\visualcpptools.14.0.24629\lib\native\include\xmemory0
; File c:\users\alist_000\cppmisc\packages\visualcpptools.14.0.24629\lib\native\include\xstring
; File c:\users\alist_000\cppmisc\packages\visualcpptools.14.0.24629\lib\native\include\xmemory0
; File c:\users\alist_000\cppmisc\packages\visualcpptools.14.0.24629\lib\native\include\xstring
; File c:\users\alist_000\cppmisc\packages\visualcpptools.14.0.24629\lib\native\include\xmemory0
; File c:\users\alist_000\cppmisc\packages\visualcpptools.14.0.24629\lib\native\include\xstring
;	COMDAT ??1?$basic_string@DU?$char_traits@D@std@@V?$allocator@D@2@@std@@QEAA@XZ
_TEXT	SEGMENT
this$ = 48
??1?$basic_string@DU?$char_traits@D@std@@V?$allocator@D@2@@std@@QEAA@XZ PROC ; std::basic_string<char,std::char_traits<char>,std::allocator<char> >::~basic_string<char,std::char_traits<char>,std::allocator<char> >, COMDAT

; 2158 : 		{	// destroy the string

$LN45:
  00000	48 83 ec 28	 sub	 rsp, 40			; 00000028H

; 1638 : 		return (this->_BUF_SIZE <= _Myres);

  00004	48 8b 41 18	 mov	 rax, QWORD PTR [rcx+24]
  00008	48 83 f8 10	 cmp	 rax, 16

; 3549 : 		if (_My_data._Large_string_engaged())

  0000c	72 37		 jb	 SHORT $LN34@basic_stri
; File c:\users\alist_000\cppmisc\packages\visualcpptools.14.0.24629\lib\native\include\xmemory0

; 816  : 		_Deallocate(_Ptr, _Count, sizeof (_Ty));

  0000e	48 8b 09	 mov	 rcx, QWORD PTR [rcx]
; File c:\users\alist_000\cppmisc\packages\visualcpptools.14.0.24629\lib\native\include\xstring

; 3554 : 			_Al.deallocate(_Ptr, _My_data._Myres + 1);

  00011	48 ff c0	 inc	 rax
; File c:\users\alist_000\cppmisc\packages\visualcpptools.14.0.24629\lib\native\include\xmemory0

; 98   : 	if (_BIG_ALLOCATION_THRESHOLD <= _User_size)

  00014	48 3d 00 10 00
	00		 cmp	 rax, 4096		; 00001000H
  0001a	72 20		 jb	 SHORT $LN29@basic_stri

; 101  : 		_SCL_SECURE_ALWAYS_VALIDATE(

  0001c	f6 c1 1f	 test	 cl, 31
  0001f	75 29		 jne	 SHORT $LN40@basic_stri

; 102  : 			(_Ptr_user & (_BIG_ALLOCATION_ALIGNMENT - 1)) == 0);
; 103  : 		const uintptr_t _Ptr_ptr = _Ptr_user - sizeof(void *);
; 104  : 		const uintptr_t _Ptr_container =
; 105  : 			*reinterpret_cast<uintptr_t *>(_Ptr_ptr);

  00021	48 8b 41 f8	 mov	 rax, QWORD PTR [rcx-8]

; 106  : 
; 107  :  #ifdef _DEBUG
; 108  : 		// If the following asserts, it likely means that we are performing
; 109  : 		// an aligned delete on memory coming from an unaligned allocation.
; 110  : 		_SCL_SECURE_ALWAYS_VALIDATE(
; 111  : 			reinterpret_cast<uintptr_t *>(_Ptr_ptr)[-1] ==
; 112  : 				_BIG_ALLOCATION_SENTINEL);
; 113  :  #endif /* _DEBUG */
; 114  : 
; 115  : 		// Extra paranoia on aligned allocation/deallocation
; 116  : 		_SCL_SECURE_ALWAYS_VALIDATE(_Ptr_container < _Ptr_user);

  00025	48 3b c1	 cmp	 rax, rcx
  00028	73 26		 jae	 SHORT $LN42@basic_stri

; 117  : 
; 118  :  #ifdef _DEBUG
; 119  : 		_SCL_SECURE_ALWAYS_VALIDATE(2 * sizeof(void *)
; 120  : 			<= _Ptr_user - _Ptr_container);
; 121  : 
; 122  :  #else /* _DEBUG */
; 123  : 		_SCL_SECURE_ALWAYS_VALIDATE(sizeof(void *)

  0002a	48 2b c8	 sub	 rcx, rax
  0002d	48 83 f9 08	 cmp	 rcx, 8
  00031	72 23		 jb	 SHORT $LN43@basic_stri

; 124  : 			<= _Ptr_user - _Ptr_container);
; 125  :  #endif /* _DEBUG */
; 126  : 
; 127  : 		_SCL_SECURE_ALWAYS_VALIDATE(_Ptr_user - _Ptr_container

  00033	48 83 f9 27	 cmp	 rcx, 39			; 00000027H
  00037	77 23		 ja	 SHORT $LN44@basic_stri

; 128  : 			<= _NON_USER_SIZE);
; 129  : 
; 130  : 		_Ptr = reinterpret_cast<void *>(_Ptr_container);

  00039	48 8b c8	 mov	 rcx, rax
$LN29@basic_stri:
; File c:\users\alist_000\cppmisc\packages\visualcpptools.14.0.24629\lib\native\include\xstring

; 2160 : 		}

  0003c	48 83 c4 28	 add	 rsp, 40			; 00000028H
; File c:\users\alist_000\cppmisc\packages\visualcpptools.14.0.24629\lib\native\include\xmemory0

; 134  : 	::operator delete(_Ptr);

  00040	e9 00 00 00 00	 jmp	 ??3@YAXPEAX@Z		; operator delete
$LN34@basic_stri:
; File c:\users\alist_000\cppmisc\packages\visualcpptools.14.0.24629\lib\native\include\xstring

; 2160 : 		}

  00045	48 83 c4 28	 add	 rsp, 40			; 00000028H
  00049	c3		 ret	 0
$LN40@basic_stri:
; File c:\users\alist_000\cppmisc\packages\visualcpptools.14.0.24629\lib\native\include\xmemory0

; 101  : 		_SCL_SECURE_ALWAYS_VALIDATE(

  0004a	e8 00 00 00 00	 call	 _invalid_parameter_noinfo_noreturn
  0004f	cc		 int	 3
$LN42@basic_stri:

; 106  : 
; 107  :  #ifdef _DEBUG
; 108  : 		// If the following asserts, it likely means that we are performing
; 109  : 		// an aligned delete on memory coming from an unaligned allocation.
; 110  : 		_SCL_SECURE_ALWAYS_VALIDATE(
; 111  : 			reinterpret_cast<uintptr_t *>(_Ptr_ptr)[-1] ==
; 112  : 				_BIG_ALLOCATION_SENTINEL);
; 113  :  #endif /* _DEBUG */
; 114  : 
; 115  : 		// Extra paranoia on aligned allocation/deallocation
; 116  : 		_SCL_SECURE_ALWAYS_VALIDATE(_Ptr_container < _Ptr_user);

  00050	e8 00 00 00 00	 call	 _invalid_parameter_noinfo_noreturn
  00055	cc		 int	 3
$LN43@basic_stri:

; 117  : 
; 118  :  #ifdef _DEBUG
; 119  : 		_SCL_SECURE_ALWAYS_VALIDATE(2 * sizeof(void *)
; 120  : 			<= _Ptr_user - _Ptr_container);
; 121  : 
; 122  :  #else /* _DEBUG */
; 123  : 		_SCL_SECURE_ALWAYS_VALIDATE(sizeof(void *)

  00056	e8 00 00 00 00	 call	 _invalid_parameter_noinfo_noreturn
  0005b	cc		 int	 3
$LN44@basic_stri:

; 124  : 			<= _Ptr_user - _Ptr_container);
; 125  :  #endif /* _DEBUG */
; 126  : 
; 127  : 		_SCL_SECURE_ALWAYS_VALIDATE(_Ptr_user - _Ptr_container

  0005c	e8 00 00 00 00	 call	 _invalid_parameter_noinfo_noreturn
  00061	cc		 int	 3
$LN39@basic_stri:
??1?$basic_string@DU?$char_traits@D@std@@V?$allocator@D@2@@std@@QEAA@XZ ENDP ; std::basic_string<char,std::char_traits<char>,std::allocator<char> >::~basic_string<char,std::char_traits<char>,std::allocator<char> >
_TEXT	ENDS
; Function compile flags: /Ogtpy
; File c:\users\alist_000\cppmisc\packages\visualcpptools.14.0.24629\lib\native\include\xstring
; File c:\users\alist_000\cppmisc\packages\visualcpptools.14.0.24629\lib\native\include\iosfwd
; File c:\users\alist_000\cppmisc\packages\visualcpptools.14.0.24629\lib\native\include\xstring
; File c:\users\alist_000\cppmisc\packages\visualcpptools.14.0.24629\lib\native\include\xmemory0
; File c:\users\alist_000\cppmisc\packages\visualcpptools.14.0.24629\lib\native\include\xstring
; File c:\users\alist_000\cppmisc\packages\visualcpptools.14.0.24629\lib\native\include\iosfwd
; File c:\users\alist_000\cppmisc\packages\visualcpptools.14.0.24629\lib\native\include\xstring
; File c:\users\alist_000\cppmisc\packages\visualcpptools.14.0.24629\lib\native\include\iosfwd
; File c:\users\alist_000\cppmisc\packages\visualcpptools.14.0.24629\lib\native\include\xstring
;	COMDAT ??0?$basic_string@DU?$char_traits@D@std@@V?$allocator@D@2@@std@@QEAA@$$QEAV01@@Z
_TEXT	SEGMENT
this$ = 48
_Right$ = 56
??0?$basic_string@DU?$char_traits@D@std@@V?$allocator@D@2@@std@@QEAA@$$QEAV01@@Z PROC ; std::basic_string<char,std::char_traits<char>,std::allocator<char> >::basic_string<char,std::char_traits<char>,std::allocator<char> >, COMDAT

; 2040 : 		{	// construct by moving _Right

$LN99:
  00000	48 89 5c 24 08	 mov	 QWORD PTR [rsp+8], rbx
  00005	57		 push	 rdi
  00006	48 83 ec 20	 sub	 rsp, 32			; 00000020H

; 3539 : 		_My_data._Mysize = 0;

  0000a	48 c7 41 10 00
	00 00 00	 mov	 QWORD PTR [rcx+16], 0

; 2040 : 		{	// construct by moving _Right

  00012	48 8b da	 mov	 rbx, rdx

; 3540 : 		_My_data._Myres = this->_BUF_SIZE - 1;

  00015	48 c7 41 18 0f
	00 00 00	 mov	 QWORD PTR [rcx+24], 15

; 2040 : 		{	// construct by moving _Right

  0001d	48 8b f9	 mov	 rdi, rcx
; File c:\users\alist_000\cppmisc\packages\visualcpptools.14.0.24629\lib\native\include\iosfwd

; 516  : 		_Left = _Right;

  00020	c6 01 00	 mov	 BYTE PTR [rcx], 0
; File c:\users\alist_000\cppmisc\packages\visualcpptools.14.0.24629\lib\native\include\xstring

; 1638 : 		return (this->_BUF_SIZE <= _Myres);

  00023	48 83 7a 18 10	 cmp	 QWORD PTR [rdx+24], 16

; 2100 : 		if (_Right_data._Large_string_engaged())

  00028	72 0f		 jb	 SHORT $LN39@basic_stri
; File c:\users\alist_000\cppmisc\packages\visualcpptools.14.0.24629\lib\native\include\xmemory0

; 833  : 		::new ((void *)_Ptr) _Objty(_STD forward<_Types>(_Args)...);

  0002a	48 8b 02	 mov	 rax, QWORD PTR [rdx]
  0002d	48 89 01	 mov	 QWORD PTR [rcx], rax
; File c:\users\alist_000\cppmisc\packages\visualcpptools.14.0.24629\lib\native\include\xstring

; 2103 : 			_Right_data._Bx._Ptr = pointer();

  00030	48 c7 02 00 00
	00 00		 mov	 QWORD PTR [rdx], 0

; 2104 : 			}
; 2105 : 		else

  00037	eb 0c		 jmp	 SHORT $LN85@basic_stri
$LN39@basic_stri:

; 2106 : 			{	// copy small string buffer
; 2107 : 			_Traits::copy(_My_data._Bx._Buf, _Right_data._Bx._Buf, _Right_data._Mysize + 1);

  00039	4c 8b 42 10	 mov	 r8, QWORD PTR [rdx+16]
  0003d	49 ff c0	 inc	 r8
; File c:\users\alist_000\cppmisc\packages\visualcpptools.14.0.24629\lib\native\include\iosfwd

; 485  : 		return ((_Elem *)_CSTD memcpy(_First1, _First2, _Count));

  00040	e8 00 00 00 00	 call	 memcpy
$LN85@basic_stri:
; File c:\users\alist_000\cppmisc\packages\visualcpptools.14.0.24629\lib\native\include\xstring

; 2109 : 		_My_data._Mysize = _Right_data._Mysize;

  00045	48 8b 43 10	 mov	 rax, QWORD PTR [rbx+16]
  00049	48 89 47 10	 mov	 QWORD PTR [rdi+16], rax

; 2110 : 		_My_data._Myres = _Right_data._Myres;

  0004d	48 8b 43 18	 mov	 rax, QWORD PTR [rbx+24]
  00051	48 89 47 18	 mov	 QWORD PTR [rdi+24], rax

; 2043 : 		}

  00055	48 8b c7	 mov	 rax, rdi

; 3539 : 		_My_data._Mysize = 0;

  00058	48 c7 43 10 00
	00 00 00	 mov	 QWORD PTR [rbx+16], 0

; 3540 : 		_My_data._Myres = this->_BUF_SIZE - 1;

  00060	48 c7 43 18 0f
	00 00 00	 mov	 QWORD PTR [rbx+24], 15
; File c:\users\alist_000\cppmisc\packages\visualcpptools.14.0.24629\lib\native\include\iosfwd

; 516  : 		_Left = _Right;

  00068	c6 03 00	 mov	 BYTE PTR [rbx], 0
; File c:\users\alist_000\cppmisc\packages\visualcpptools.14.0.24629\lib\native\include\xstring

; 2043 : 		}

  0006b	48 8b 5c 24 30	 mov	 rbx, QWORD PTR [rsp+48]
  00070	48 83 c4 20	 add	 rsp, 32			; 00000020H
  00074	5f		 pop	 rdi
  00075	c3		 ret	 0
??0?$basic_string@DU?$char_traits@D@std@@V?$allocator@D@2@@std@@QEAA@$$QEAV01@@Z ENDP ; std::basic_string<char,std::char_traits<char>,std::allocator<char> >::basic_string<char,std::char_traits<char>,std::allocator<char> >
_TEXT	ENDS
; Function compile flags: /Ogtpy
; File c:\users\alist_000\cppmisc\packages\visualcpptools.14.0.24629\lib\native\include\xstring
; File c:\users\alist_000\cppmisc\packages\visualcpptools.14.0.24629\lib\native\include\iosfwd
; File c:\users\alist_000\cppmisc\packages\visualcpptools.14.0.24629\lib\native\include\xstring
;	COMDAT ??0?$basic_string@DU?$char_traits@D@std@@V?$allocator@D@2@@std@@QEAA@QEBD@Z
_TEXT	SEGMENT
this$ = 48
_Ptr$ = 56
??0?$basic_string@DU?$char_traits@D@std@@V?$allocator@D@2@@std@@QEAA@QEBD@Z PROC ; std::basic_string<char,std::char_traits<char>,std::allocator<char> >::basic_string<char,std::char_traits<char>,std::allocator<char> >, COMDAT

; 1966 : 		{	// construct from [_Ptr, <null>)

$LN27:
  00000	40 53		 push	 rbx
  00002	48 83 ec 20	 sub	 rsp, 32			; 00000020H

; 3539 : 		_My_data._Mysize = 0;

  00006	48 c7 41 10 00
	00 00 00	 mov	 QWORD PTR [rcx+16], 0

; 1966 : 		{	// construct from [_Ptr, <null>)

  0000e	48 8b d9	 mov	 rbx, rcx

; 3540 : 		_My_data._Myres = this->_BUF_SIZE - 1;

  00011	48 c7 41 18 0f
	00 00 00	 mov	 QWORD PTR [rcx+24], 15
; File c:\users\alist_000\cppmisc\packages\visualcpptools.14.0.24629\lib\native\include\iosfwd

; 479  : 		return (_CSTD strlen(_First));

  00019	49 83 c8 ff	 or	 r8, -1

; 516  : 		_Left = _Right;

  0001d	c6 01 00	 mov	 BYTE PTR [rcx], 0
$LL25@basic_stri:

; 479  : 		return (_CSTD strlen(_First));

  00020	49 ff c0	 inc	 r8
  00023	42 80 3c 02 00	 cmp	 BYTE PTR [rdx+r8], 0
  00028	75 f6		 jne	 SHORT $LL25@basic_stri
; File c:\users\alist_000\cppmisc\packages\visualcpptools.14.0.24629\lib\native\include\xstring

; 2377 : 		return (assign(_Ptr, _Traits::length(_Ptr)));

  0002a	e8 00 00 00 00	 call	 ?assign@?$basic_string@DU?$char_traits@D@std@@V?$allocator@D@2@@std@@QEAAAEAV12@QEBD_K@Z ; std::basic_string<char,std::char_traits<char>,std::allocator<char> >::assign

; 1967 : 		_Tidy_init();
; 1968 : 		assign(_Ptr);
; 1969 : 		}

  0002f	48 8b c3	 mov	 rax, rbx
  00032	48 83 c4 20	 add	 rsp, 32			; 00000020H
  00036	5b		 pop	 rbx
  00037	c3		 ret	 0
??0?$basic_string@DU?$char_traits@D@std@@V?$allocator@D@2@@std@@QEAA@QEBD@Z ENDP ; std::basic_string<char,std::char_traits<char>,std::allocator<char> >::basic_string<char,std::char_traits<char>,std::allocator<char> >
_TEXT	ENDS
; Function compile flags: /Ogtpy
; File c:\users\alist_000\cppmisc\packages\visualcpptools.14.0.24629\lib\native\include\xstring
; File c:\users\alist_000\cppmisc\packages\visualcpptools.14.0.24629\lib\native\include\iosfwd
; File c:\users\alist_000\cppmisc\packages\visualcpptools.14.0.24629\lib\native\include\xstring
;	COMDAT ??0?$basic_string@DU?$char_traits@D@std@@V?$allocator@D@2@@std@@QEAA@AEBV01@@Z
_TEXT	SEGMENT
this$ = 48
_Right$ = 56
??0?$basic_string@DU?$char_traits@D@std@@V?$allocator@D@2@@std@@QEAA@AEBV01@@Z PROC ; std::basic_string<char,std::char_traits<char>,std::allocator<char> >::basic_string<char,std::char_traits<char>,std::allocator<char> >, COMDAT

; 1911 : 		{	// construct by copying _Right

$LN42:
  00000	40 53		 push	 rbx
  00002	48 83 ec 20	 sub	 rsp, 32			; 00000020H

; 3539 : 		_My_data._Mysize = 0;

  00006	48 c7 41 10 00
	00 00 00	 mov	 QWORD PTR [rcx+16], 0

; 2117 : 		assign(_Right, 0, npos);

  0000e	49 83 c9 ff	 or	 r9, -1

; 3540 : 		_My_data._Myres = this->_BUF_SIZE - 1;

  00012	48 c7 41 18 0f
	00 00 00	 mov	 QWORD PTR [rcx+24], 15

; 2117 : 		assign(_Right, 0, npos);

  0001a	45 33 c0	 xor	 r8d, r8d
; File c:\users\alist_000\cppmisc\packages\visualcpptools.14.0.24629\lib\native\include\iosfwd

; 516  : 		_Left = _Right;

  0001d	c6 01 00	 mov	 BYTE PTR [rcx], 0
; File c:\users\alist_000\cppmisc\packages\visualcpptools.14.0.24629\lib\native\include\xstring

; 1911 : 		{	// construct by copying _Right

  00020	48 8b d9	 mov	 rbx, rcx

; 2117 : 		assign(_Right, 0, npos);

  00023	e8 00 00 00 00	 call	 ?assign@?$basic_string@DU?$char_traits@D@std@@V?$allocator@D@2@@std@@QEAAAEAV12@AEBV12@_K_K@Z ; std::basic_string<char,std::char_traits<char>,std::allocator<char> >::assign

; 1912 : 		_Tidy_init();
; 1913 : 		_Assign_lv_contents(_Right);
; 1914 : 		}

  00028	48 8b c3	 mov	 rax, rbx
  0002b	48 83 c4 20	 add	 rsp, 32			; 00000020H
  0002f	5b		 pop	 rbx
  00030	c3		 ret	 0
??0?$basic_string@DU?$char_traits@D@std@@V?$allocator@D@2@@std@@QEAA@AEBV01@@Z ENDP ; std::basic_string<char,std::char_traits<char>,std::allocator<char> >::basic_string<char,std::char_traits<char>,std::allocator<char> >
_TEXT	ENDS
; Function compile flags: /Ogtpy
; File c:\users\alist_000\cppmisc\packages\visualcpptools.14.0.24629\lib\native\include\ostream
;	COMDAT ??6?$basic_ostream@DU?$char_traits@D@std@@@std@@QEAAAEAV01@P6AAEAV01@AEAV01@@Z@Z
_TEXT	SEGMENT
this$ = 8
_Pfn$dead$ = 16
??6?$basic_ostream@DU?$char_traits@D@std@@@std@@QEAAAEAV01@P6AAEAV01@AEAV01@@Z@Z PROC ; std::basic_ostream<char,std::char_traits<char> >::operator<<, COMDAT

; 195  : 		return ((*_Pfn)(*this));

  00000	e9 00 00 00 00	 jmp	 ??$endl@DU?$char_traits@D@std@@@std@@YAAEAV?$basic_ostream@DU?$char_traits@D@std@@@0@AEAV10@@Z ; std::endl<char,std::char_traits<char> >
??6?$basic_ostream@DU?$char_traits@D@std@@@std@@QEAAAEAV01@P6AAEAV01@AEAV01@@Z@Z ENDP ; std::basic_ostream<char,std::char_traits<char> >::operator<<
_TEXT	ENDS
; Function compile flags: /Ogtpy
;	COMDAT ??1?$_String_alloc@U?$_String_base_types@DV?$allocator@D@std@@@std@@@std@@QEAA@XZ
_TEXT	SEGMENT
this$ = 8
??1?$_String_alloc@U?$_String_base_types@DV?$allocator@D@std@@@std@@@std@@QEAA@XZ PROC ; std::_String_alloc<std::_String_base_types<char,std::allocator<char> > >::~_String_alloc<std::_String_base_types<char,std::allocator<char> > >, COMDAT
  00000	c2 00 00	 ret	 0
??1?$_String_alloc@U?$_String_base_types@DV?$allocator@D@std@@@std@@@std@@QEAA@XZ ENDP ; std::_String_alloc<std::_String_base_types<char,std::allocator<char> > >::~_String_alloc<std::_String_base_types<char,std::allocator<char> > >
_TEXT	ENDS
; Function compile flags: /Ogtpy
;	COMDAT ??1?$_Compressed_pair@U?$_Wrap_alloc@V?$allocator@D@std@@@std@@V?$_String_val@U?$_Simple_types@D@std@@@2@$00@std@@QEAA@XZ
_TEXT	SEGMENT
this$ = 8
??1?$_Compressed_pair@U?$_Wrap_alloc@V?$allocator@D@std@@@std@@V?$_String_val@U?$_Simple_types@D@std@@@2@$00@std@@QEAA@XZ PROC ; std::_Compressed_pair<std::_Wrap_alloc<std::allocator<char> >,std::_String_val<std::_Simple_types<char> >,1>::~_Compressed_pair<std::_Wrap_alloc<std::allocator<char> >,std::_String_val<std::_Simple_types<char> >,1>, COMDAT
  00000	c2 00 00	 ret	 0
??1?$_Compressed_pair@U?$_Wrap_alloc@V?$allocator@D@std@@@std@@V?$_String_val@U?$_Simple_types@D@std@@@2@$00@std@@QEAA@XZ ENDP ; std::_Compressed_pair<std::_Wrap_alloc<std::allocator<char> >,std::_String_val<std::_Simple_types<char> >,1>::~_Compressed_pair<std::_Wrap_alloc<std::allocator<char> >,std::_String_val<std::_Simple_types<char> >,1>
_TEXT	ENDS
; Function compile flags: /Ogtpy
;	COMDAT ??1?$_String_val@U?$_Simple_types@D@std@@@std@@QEAA@XZ
_TEXT	SEGMENT
this$ = 8
??1?$_String_val@U?$_Simple_types@D@std@@@std@@QEAA@XZ PROC ; std::_String_val<std::_Simple_types<char> >::~_String_val<std::_Simple_types<char> >, COMDAT
  00000	c2 00 00	 ret	 0
??1?$_String_val@U?$_Simple_types@D@std@@@std@@QEAA@XZ ENDP ; std::_String_val<std::_Simple_types<char> >::~_String_val<std::_Simple_types<char> >
_TEXT	ENDS
; Function compile flags: /Ogtpy
; File c:\users\alist_000\cppmisc\packages\visualcpptools.14.0.24629\lib\native\include\vector
;	COMDAT ??8?$_Vector_const_iterator@V?$_Vector_val@U?$_Simple_types@D@std@@@std@@@std@@QEBA_NAEBV01@@Z
_TEXT	SEGMENT
this$ = 8
_Right$ = 16
??8?$_Vector_const_iterator@V?$_Vector_val@U?$_Simple_types@D@std@@@std@@@std@@QEBA_NAEBV01@@Z PROC ; std::_Vector_const_iterator<std::_Vector_val<std::_Simple_types<char> > >::operator==, COMDAT

; 206  : 		{	// test for iterator equality

  00000	48 8b 02	 mov	 rax, QWORD PTR [rdx]
  00003	48 39 01	 cmp	 QWORD PTR [rcx], rax
  00006	0f 94 c0	 sete	 al

; 207  : 		_Compat(_Right);
; 208  : 		return (_Ptr == _Right._Ptr);
; 209  : 		}

  00009	c3		 ret	 0
??8?$_Vector_const_iterator@V?$_Vector_val@U?$_Simple_types@D@std@@@std@@@std@@QEBA_NAEBV01@@Z ENDP ; std::_Vector_const_iterator<std::_Vector_val<std::_Simple_types<char> > >::operator==
_TEXT	ENDS
; Function compile flags: /Ogtpy
; File c:\users\alist_000\cppmisc\packages\visualcpptools.14.0.24629\lib\native\include\vector
;	COMDAT ??E?$_Vector_const_iterator@V?$_Vector_val@U?$_Simple_types@D@std@@@std@@@std@@QEAAAEAV01@XZ
_TEXT	SEGMENT
this$ = 8
??E?$_Vector_const_iterator@V?$_Vector_val@U?$_Simple_types@D@std@@@std@@@std@@QEAAAEAV01@XZ PROC ; std::_Vector_const_iterator<std::_Vector_val<std::_Simple_types<char> > >::operator++, COMDAT

; 93   :  #if _ITERATOR_DEBUG_LEVEL == 2
; 94   : 		const auto _Mycont = static_cast<const _Myvec *>(this->_Getcont());
; 95   : 		if (_Mycont == 0
; 96   : 			|| _Ptr == nullptr_t{}
; 97   : 			|| _Mycont->_Mylast <= _Ptr)
; 98   : 			{	// report error
; 99   : 			_DEBUG_ERROR("vector iterator not incrementable");
; 100  : 			}
; 101  : 
; 102  :  #elif _ITERATOR_DEBUG_LEVEL == 1
; 103  : 		_SCL_SECURE_VALIDATE(_Ptr != _Tptr());
; 104  : 		const auto _Mycont = static_cast<const _Myvec *>(this->_Getcont());
; 105  : 		_SCL_SECURE_VALIDATE(_Mycont != 0);
; 106  : 		_SCL_SECURE_VALIDATE_RANGE(_Ptr < _Mycont->_Mylast);
; 107  :  #endif /* _ITERATOR_DEBUG_LEVEL */
; 108  : 
; 109  : 		++_Ptr;

  00000	48 ff 01	 inc	 QWORD PTR [rcx]

; 110  : 		return (*this);

  00003	48 8b c1	 mov	 rax, rcx

; 111  : 		}

  00006	c3		 ret	 0
??E?$_Vector_const_iterator@V?$_Vector_val@U?$_Simple_types@D@std@@@std@@@std@@QEAAAEAV01@XZ ENDP ; std::_Vector_const_iterator<std::_Vector_val<std::_Simple_types<char> > >::operator++
_TEXT	ENDS
; Function compile flags: /Ogtpy
; File c:\users\alist_000\cppmisc\packages\visualcpptools.14.0.24629\lib\native\include\vector
;	COMDAT ??D?$_Vector_const_iterator@V?$_Vector_val@U?$_Simple_types@D@std@@@std@@@std@@QEBAAEBDXZ
_TEXT	SEGMENT
this$ = 8
??D?$_Vector_const_iterator@V?$_Vector_val@U?$_Simple_types@D@std@@@std@@@std@@QEBAAEBDXZ PROC ; std::_Vector_const_iterator<std::_Vector_val<std::_Simple_types<char> > >::operator*, COMDAT

; 64   :  #if _ITERATOR_DEBUG_LEVEL == 2
; 65   : 		const auto _Mycont = static_cast<const _Myvec *>(this->_Getcont());
; 66   : 		if (_Mycont == 0
; 67   : 			|| _Ptr == _Tptr()
; 68   : 			|| _Ptr < _Mycont->_Myfirst
; 69   : 			|| _Mycont->_Mylast <= _Ptr)
; 70   : 			{	// report error
; 71   : 			_DEBUG_ERROR("vector iterator not dereferencable");
; 72   : 			}
; 73   : 
; 74   :  #elif _ITERATOR_DEBUG_LEVEL == 1
; 75   : 		_SCL_SECURE_VALIDATE(_Ptr != _Tptr());
; 76   : 		const auto _Mycont = static_cast<const _Myvec *>(this->_Getcont());
; 77   : 		_SCL_SECURE_VALIDATE(_Mycont != 0);
; 78   : 		_SCL_SECURE_VALIDATE_RANGE(_Mycont->_Myfirst <= _Ptr && _Ptr < _Mycont->_Mylast);
; 79   :  #endif /* _ITERATOR_DEBUG_LEVEL */
; 80   : 
; 81   : 		_Analysis_assume_(_Ptr != _Tptr());
; 82   : 
; 83   : 		return (*_Ptr);

  00000	48 8b 01	 mov	 rax, QWORD PTR [rcx]

; 84   : 		}

  00003	c3		 ret	 0
??D?$_Vector_const_iterator@V?$_Vector_val@U?$_Simple_types@D@std@@@std@@@std@@QEBAAEBDXZ ENDP ; std::_Vector_const_iterator<std::_Vector_val<std::_Simple_types<char> > >::operator*
_TEXT	ENDS
; Function compile flags: /Ogtpy
; File c:\users\alist_000\cppmisc\packages\visualcpptools.14.0.24629\lib\native\include\vector
;	COMDAT ??0?$_Vector_iterator@V?$_Vector_val@U?$_Simple_types@D@std@@@std@@@std@@QEAA@PEADPEBU_Container_base0@1@@Z
_TEXT	SEGMENT
this$ = 8
_Parg$ = 16
_Pvector$dead$ = 24
??0?$_Vector_iterator@V?$_Vector_val@U?$_Simple_types@D@std@@@std@@@std@@QEAA@PEADPEBU_Container_base0@1@@Z PROC ; std::_Vector_iterator<std::_Vector_val<std::_Simple_types<char> > >::_Vector_iterator<std::_Vector_val<std::_Simple_types<char> > >, COMDAT

; 44   : 		: _Ptr(_Parg)

  00000	48 89 11	 mov	 QWORD PTR [rcx], rdx

; 307  : 		}

  00003	48 8b c1	 mov	 rax, rcx
  00006	c3		 ret	 0
??0?$_Vector_iterator@V?$_Vector_val@U?$_Simple_types@D@std@@@std@@@std@@QEAA@PEADPEBU_Container_base0@1@@Z ENDP ; std::_Vector_iterator<std::_Vector_val<std::_Simple_types<char> > >::_Vector_iterator<std::_Vector_val<std::_Simple_types<char> > >
_TEXT	ENDS
; Function compile flags: /Ogtpy
; File c:\users\alist_000\cppmisc\packages\visualcpptools.14.0.24629\lib\native\include\vector
;	COMDAT ?_Mylast@?$_Vector_alloc@U?$_Vec_base_types@DV?$allocator@D@std@@@std@@@std@@QEBAAEBQEADXZ
_TEXT	SEGMENT
this$ = 8
?_Mylast@?$_Vector_alloc@U?$_Vec_base_types@DV?$allocator@D@std@@@std@@@std@@QEBAAEBQEADXZ PROC ; std::_Vector_alloc<std::_Vec_base_types<char,std::allocator<char> > >::_Mylast, COMDAT

; 668  : 		return (_Get_data()._Mylast);

  00000	48 8d 41 08	 lea	 rax, QWORD PTR [rcx+8]

; 669  : 		}

  00004	c3		 ret	 0
?_Mylast@?$_Vector_alloc@U?$_Vec_base_types@DV?$allocator@D@std@@@std@@@std@@QEBAAEBQEADXZ ENDP ; std::_Vector_alloc<std::_Vec_base_types<char,std::allocator<char> > >::_Mylast
_TEXT	ENDS
; Function compile flags: /Ogtpy
; File c:\users\alist_000\cppmisc\packages\visualcpptools.14.0.24629\lib\native\include\vector
;	COMDAT ?_Mylast@?$_Vector_alloc@U?$_Vec_base_types@DV?$allocator@D@std@@@std@@@std@@QEAAAEAPEADXZ
_TEXT	SEGMENT
this$ = 8
?_Mylast@?$_Vector_alloc@U?$_Vec_base_types@DV?$allocator@D@std@@@std@@@std@@QEAAAEAPEADXZ PROC ; std::_Vector_alloc<std::_Vec_base_types<char,std::allocator<char> > >::_Mylast, COMDAT

; 663  : 		return (_Get_data()._Mylast);

  00000	48 8d 41 08	 lea	 rax, QWORD PTR [rcx+8]

; 664  : 		}

  00004	c3		 ret	 0
?_Mylast@?$_Vector_alloc@U?$_Vec_base_types@DV?$allocator@D@std@@@std@@@std@@QEAAAEAPEADXZ ENDP ; std::_Vector_alloc<std::_Vec_base_types<char,std::allocator<char> > >::_Mylast
_TEXT	ENDS
; Function compile flags: /Ogtpy
; File c:\users\alist_000\cppmisc\packages\visualcpptools.14.0.24629\lib\native\include\vector
;	COMDAT ?_Myfirst@?$_Vector_alloc@U?$_Vec_base_types@DV?$allocator@D@std@@@std@@@std@@QEBAAEBQEADXZ
_TEXT	SEGMENT
this$ = 8
?_Myfirst@?$_Vector_alloc@U?$_Vec_base_types@DV?$allocator@D@std@@@std@@@std@@QEBAAEBQEADXZ PROC ; std::_Vector_alloc<std::_Vec_base_types<char,std::allocator<char> > >::_Myfirst, COMDAT

; 658  : 		return (_Get_data()._Myfirst);

  00000	48 8b c1	 mov	 rax, rcx

; 659  : 		}

  00003	c3		 ret	 0
?_Myfirst@?$_Vector_alloc@U?$_Vec_base_types@DV?$allocator@D@std@@@std@@@std@@QEBAAEBQEADXZ ENDP ; std::_Vector_alloc<std::_Vec_base_types<char,std::allocator<char> > >::_Myfirst
_TEXT	ENDS
; Function compile flags: /Ogtpy
; File c:\users\alist_000\cppmisc\packages\visualcpptools.14.0.24629\lib\native\include\vector
;	COMDAT ?_Myfirst@?$_Vector_alloc@U?$_Vec_base_types@DV?$allocator@D@std@@@std@@@std@@QEAAAEAPEADXZ
_TEXT	SEGMENT
this$ = 8
?_Myfirst@?$_Vector_alloc@U?$_Vec_base_types@DV?$allocator@D@std@@@std@@@std@@QEAAAEAPEADXZ PROC ; std::_Vector_alloc<std::_Vec_base_types<char,std::allocator<char> > >::_Myfirst, COMDAT

; 653  : 		return (_Get_data()._Myfirst);

  00000	48 8b c1	 mov	 rax, rcx

; 654  : 		}

  00003	c3		 ret	 0
?_Myfirst@?$_Vector_alloc@U?$_Vec_base_types@DV?$allocator@D@std@@@std@@@std@@QEAAAEAPEADXZ ENDP ; std::_Vector_alloc<std::_Vec_base_types<char,std::allocator<char> > >::_Myfirst
_TEXT	ENDS
; Function compile flags: /Ogtpy
; File c:\users\alist_000\cppmisc\packages\visualcpptools.14.0.24629\lib\native\include\vector
;	COMDAT ?_Get_data@?$_Vector_alloc@U?$_Vec_base_types@DV?$allocator@D@std@@@std@@@std@@QEAAAEAV?$_Vector_val@U?$_Simple_types@D@std@@@2@XZ
_TEXT	SEGMENT
this$ = 8
?_Get_data@?$_Vector_alloc@U?$_Vec_base_types@DV?$allocator@D@std@@@std@@@std@@QEAAAEAV?$_Vector_val@U?$_Simple_types@D@std@@@2@XZ PROC ; std::_Vector_alloc<std::_Vec_base_types<char,std::allocator<char> > >::_Get_data, COMDAT

; 643  : 		return (_Mypair._Get_second());

  00000	48 8b c1	 mov	 rax, rcx

; 644  : 		}

  00003	c3		 ret	 0
?_Get_data@?$_Vector_alloc@U?$_Vec_base_types@DV?$allocator@D@std@@@std@@@std@@QEAAAEAV?$_Vector_val@U?$_Simple_types@D@std@@@2@XZ ENDP ; std::_Vector_alloc<std::_Vec_base_types<char,std::allocator<char> > >::_Get_data
_TEXT	ENDS
; Function compile flags: /Ogtpy
; File c:\users\alist_000\cppmisc\packages\visualcpptools.14.0.24629\lib\native\include\vector
;	COMDAT ?_Getal@?$_Vector_alloc@U?$_Vec_base_types@DV?$allocator@D@std@@@std@@@std@@QEAAAEAU?$_Wrap_alloc@V?$allocator@D@std@@@2@XZ
_TEXT	SEGMENT
this$ = 8
?_Getal@?$_Vector_alloc@U?$_Vec_base_types@DV?$allocator@D@std@@@std@@@std@@QEAAAEAU?$_Wrap_alloc@V?$allocator@D@std@@@2@XZ PROC ; std::_Vector_alloc<std::_Vec_base_types<char,std::allocator<char> > >::_Getal, COMDAT

; 633  : 		return (_Mypair._Get_first());

  00000	48 8b c1	 mov	 rax, rcx

; 634  : 		}

  00003	c3		 ret	 0
?_Getal@?$_Vector_alloc@U?$_Vec_base_types@DV?$allocator@D@std@@@std@@@std@@QEAAAEAU?$_Wrap_alloc@V?$allocator@D@std@@@2@XZ ENDP ; std::_Vector_alloc<std::_Vec_base_types<char,std::allocator<char> > >::_Getal
_TEXT	ENDS
; Function compile flags: /Ogtpy
; File c:\users\alist_000\cppmisc\packages\visualcpptools.14.0.24629\lib\native\include\vector
;	COMDAT ??0?$_Vector_alloc@U?$_Vec_base_types@DV?$allocator@D@std@@@std@@@std@@QEAA@XZ
_TEXT	SEGMENT
this$ = 8
??0?$_Vector_alloc@U?$_Vec_base_types@DV?$allocator@D@std@@@std@@@std@@QEAA@XZ PROC ; std::_Vector_alloc<std::_Vec_base_types<char,std::allocator<char> > >::_Vector_alloc<std::_Vec_base_types<char,std::allocator<char> > >, COMDAT

; 478  : 		: _Myfirst(),

  00000	33 c0		 xor	 eax, eax
  00002	48 89 01	 mov	 QWORD PTR [rcx], rax

; 479  : 		_Mylast(),

  00005	48 89 41 08	 mov	 QWORD PTR [rcx+8], rax

; 480  : 		_Myend()

  00009	48 89 41 10	 mov	 QWORD PTR [rcx+16], rax

; 511  : 		}

  0000d	48 8b c1	 mov	 rax, rcx
  00010	c3		 ret	 0
??0?$_Vector_alloc@U?$_Vec_base_types@DV?$allocator@D@std@@@std@@@std@@QEAA@XZ ENDP ; std::_Vector_alloc<std::_Vec_base_types<char,std::allocator<char> > >::_Vector_alloc<std::_Vec_base_types<char,std::allocator<char> > >
_TEXT	ENDS
; Function compile flags: /Ogtpy
; File c:\users\alist_000\cppmisc\packages\visualcpptools.14.0.24629\lib\native\include\vector
; File c:\users\alist_000\cppmisc\packages\visualcpptools.14.0.24629\lib\native\include\xmemory0
; File c:\users\alist_000\cppmisc\packages\visualcpptools.14.0.24629\lib\native\include\vector
; File c:\users\alist_000\cppmisc\packages\visualcpptools.14.0.24629\lib\native\include\xmemory0
; File c:\users\alist_000\cppmisc\packages\visualcpptools.14.0.24629\lib\native\include\vector
;	COMDAT ?_Tidy@?$vector@DV?$allocator@D@std@@@std@@AEAAXXZ
_TEXT	SEGMENT
this$ = 48
?_Tidy@?$vector@DV?$allocator@D@std@@@std@@AEAAXXZ PROC	; std::vector<char,std::allocator<char> >::_Tidy, COMDAT

; 1920 : 		{	// free all storage

$LN112:
  00000	40 53		 push	 rbx
  00002	48 83 ec 20	 sub	 rsp, 32			; 00000020H
  00006	48 8b d9	 mov	 rbx, rcx

; 1921 : 		this->_Orphan_all();
; 1922 : 
; 1923 : 		if (this->_Myfirst() != pointer())

  00009	48 8b 09	 mov	 rcx, QWORD PTR [rcx]
  0000c	48 85 c9	 test	 rcx, rcx
  0000f	74 41		 je	 SHORT $LN2@Tidy

; 1924 : 			{	// destroy and deallocate old array
; 1925 : 			_Destroy(this->_Myfirst(), this->_Mylast());
; 1926 : 			this->_Getal().deallocate(this->_Myfirst(), this->_Myend() - this->_Myfirst());

  00011	48 8b 43 10	 mov	 rax, QWORD PTR [rbx+16]
  00015	48 2b c1	 sub	 rax, rcx
; File c:\users\alist_000\cppmisc\packages\visualcpptools.14.0.24629\lib\native\include\xmemory0

; 98   : 	if (_BIG_ALLOCATION_THRESHOLD <= _User_size)

  00018	48 3d 00 10 00
	00		 cmp	 rax, 4096		; 00001000H
  0001e	72 20		 jb	 SHORT $LN70@Tidy

; 101  : 		_SCL_SECURE_ALWAYS_VALIDATE(

  00020	f6 c1 1f	 test	 cl, 31
  00023	75 33		 jne	 SHORT $LN107@Tidy

; 102  : 			(_Ptr_user & (_BIG_ALLOCATION_ALIGNMENT - 1)) == 0);
; 103  : 		const uintptr_t _Ptr_ptr = _Ptr_user - sizeof(void *);
; 104  : 		const uintptr_t _Ptr_container =
; 105  : 			*reinterpret_cast<uintptr_t *>(_Ptr_ptr);

  00025	48 8b 41 f8	 mov	 rax, QWORD PTR [rcx-8]

; 106  : 
; 107  :  #ifdef _DEBUG
; 108  : 		// If the following asserts, it likely means that we are performing
; 109  : 		// an aligned delete on memory coming from an unaligned allocation.
; 110  : 		_SCL_SECURE_ALWAYS_VALIDATE(
; 111  : 			reinterpret_cast<uintptr_t *>(_Ptr_ptr)[-1] ==
; 112  : 				_BIG_ALLOCATION_SENTINEL);
; 113  :  #endif /* _DEBUG */
; 114  : 
; 115  : 		// Extra paranoia on aligned allocation/deallocation
; 116  : 		_SCL_SECURE_ALWAYS_VALIDATE(_Ptr_container < _Ptr_user);

  00029	48 3b c1	 cmp	 rax, rcx
  0002c	73 30		 jae	 SHORT $LN109@Tidy

; 117  : 
; 118  :  #ifdef _DEBUG
; 119  : 		_SCL_SECURE_ALWAYS_VALIDATE(2 * sizeof(void *)
; 120  : 			<= _Ptr_user - _Ptr_container);
; 121  : 
; 122  :  #else /* _DEBUG */
; 123  : 		_SCL_SECURE_ALWAYS_VALIDATE(sizeof(void *)

  0002e	48 2b c8	 sub	 rcx, rax
  00031	48 83 f9 08	 cmp	 rcx, 8
  00035	72 2d		 jb	 SHORT $LN110@Tidy

; 124  : 			<= _Ptr_user - _Ptr_container);
; 125  :  #endif /* _DEBUG */
; 126  : 
; 127  : 		_SCL_SECURE_ALWAYS_VALIDATE(_Ptr_user - _Ptr_container

  00037	48 83 f9 27	 cmp	 rcx, 39			; 00000027H
  0003b	77 2d		 ja	 SHORT $LN111@Tidy

; 128  : 			<= _NON_USER_SIZE);
; 129  : 
; 130  : 		_Ptr = reinterpret_cast<void *>(_Ptr_container);

  0003d	48 8b c8	 mov	 rcx, rax
$LN70@Tidy:

; 131  : 		}
; 132  :  #endif /* defined(_M_IX86) || defined(_M_X64) */
; 133  : 
; 134  : 	::operator delete(_Ptr);

  00040	e8 00 00 00 00	 call	 ??3@YAXPEAX@Z		; operator delete
; File c:\users\alist_000\cppmisc\packages\visualcpptools.14.0.24629\lib\native\include\vector

; 1928 : 			this->_Myfirst() = pointer();

  00045	33 c0		 xor	 eax, eax
  00047	48 89 03	 mov	 QWORD PTR [rbx], rax

; 1929 : 			this->_Mylast() = pointer();

  0004a	48 89 43 08	 mov	 QWORD PTR [rbx+8], rax

; 1930 : 			this->_Myend() = pointer();

  0004e	48 89 43 10	 mov	 QWORD PTR [rbx+16], rax
$LN2@Tidy:

; 1932 : 		}

  00052	48 83 c4 20	 add	 rsp, 32			; 00000020H
  00056	5b		 pop	 rbx
  00057	c3		 ret	 0
$LN107@Tidy:
; File c:\users\alist_000\cppmisc\packages\visualcpptools.14.0.24629\lib\native\include\xmemory0

; 101  : 		_SCL_SECURE_ALWAYS_VALIDATE(

  00058	e8 00 00 00 00	 call	 _invalid_parameter_noinfo_noreturn
  0005d	cc		 int	 3
$LN109@Tidy:

; 106  : 
; 107  :  #ifdef _DEBUG
; 108  : 		// If the following asserts, it likely means that we are performing
; 109  : 		// an aligned delete on memory coming from an unaligned allocation.
; 110  : 		_SCL_SECURE_ALWAYS_VALIDATE(
; 111  : 			reinterpret_cast<uintptr_t *>(_Ptr_ptr)[-1] ==
; 112  : 				_BIG_ALLOCATION_SENTINEL);
; 113  :  #endif /* _DEBUG */
; 114  : 
; 115  : 		// Extra paranoia on aligned allocation/deallocation
; 116  : 		_SCL_SECURE_ALWAYS_VALIDATE(_Ptr_container < _Ptr_user);

  0005e	e8 00 00 00 00	 call	 _invalid_parameter_noinfo_noreturn
  00063	cc		 int	 3
$LN110@Tidy:

; 117  : 
; 118  :  #ifdef _DEBUG
; 119  : 		_SCL_SECURE_ALWAYS_VALIDATE(2 * sizeof(void *)
; 120  : 			<= _Ptr_user - _Ptr_container);
; 121  : 
; 122  :  #else /* _DEBUG */
; 123  : 		_SCL_SECURE_ALWAYS_VALIDATE(sizeof(void *)

  00064	e8 00 00 00 00	 call	 _invalid_parameter_noinfo_noreturn
  00069	cc		 int	 3
$LN111@Tidy:

; 124  : 			<= _Ptr_user - _Ptr_container);
; 125  :  #endif /* _DEBUG */
; 126  : 
; 127  : 		_SCL_SECURE_ALWAYS_VALIDATE(_Ptr_user - _Ptr_container

  0006a	e8 00 00 00 00	 call	 _invalid_parameter_noinfo_noreturn
  0006f	cc		 int	 3
$LN106@Tidy:
?_Tidy@?$vector@DV?$allocator@D@std@@@std@@AEAAXXZ ENDP	; std::vector<char,std::allocator<char> >::_Tidy
_TEXT	ENDS
; Function compile flags: /Ogtpy
; File c:\users\alist_000\cppmisc\packages\visualcpptools.14.0.24629\lib\native\include\vector
; File c:\users\alist_000\cppmisc\packages\visualcpptools.14.0.24629\lib\native\include\xmemory
; File c:\users\alist_000\cppmisc\packages\visualcpptools.14.0.24629\lib\native\include\vector
;	COMDAT ?_Udefault@?$vector@DV?$allocator@D@std@@@std@@AEAAPEADPEAD_K@Z
_TEXT	SEGMENT
this$dead$ = 48
_Dest$ = 56
_Count$ = 64
?_Udefault@?$vector@DV?$allocator@D@std@@@std@@AEAAPEADPEAD_K@Z PROC ; std::vector<char,std::allocator<char> >::_Udefault, COMDAT

; 1821 : 		{	// fill raw _Dest with _Count value-initialized objects, using allocator

$LN14:
  00000	48 89 5c 24 08	 mov	 QWORD PTR [rsp+8], rbx
  00005	57		 push	 rdi
  00006	48 83 ec 20	 sub	 rsp, 32			; 00000020H
  0000a	48 8b da	 mov	 rbx, rdx
  0000d	49 8b f8	 mov	 rdi, r8
; File c:\users\alist_000\cppmisc\packages\visualcpptools.14.0.24629\lib\native\include\xmemory

; 476  : 	_CSTD memset(_First, 0, _Count * sizeof(_Iter_value_t<_FwdIt>));

  00010	48 8b cb	 mov	 rcx, rbx
  00013	33 d2		 xor	 edx, edx
  00015	e8 00 00 00 00	 call	 memset

; 477  : 	return (_First + _Count);

  0001a	48 8d 04 3b	 lea	 rax, QWORD PTR [rbx+rdi]
; File c:\users\alist_000\cppmisc\packages\visualcpptools.14.0.24629\lib\native\include\vector

; 1823 : 		}

  0001e	48 8b 5c 24 30	 mov	 rbx, QWORD PTR [rsp+48]
  00023	48 83 c4 20	 add	 rsp, 32			; 00000020H
  00027	5f		 pop	 rdi
  00028	c3		 ret	 0
?_Udefault@?$vector@DV?$allocator@D@std@@@std@@AEAAPEADPEAD_K@Z ENDP ; std::vector<char,std::allocator<char> >::_Udefault
_TEXT	ENDS
; Function compile flags: /Ogtpy
; File c:\users\alist_000\cppmisc\packages\visualcpptools.14.0.24629\lib\native\include\vector
;	COMDAT ?_Move_from@?$vector@DV?$allocator@D@std@@@std@@AEAAX$$QEAV12@U?$integral_constant@_N$00@2@@Z
_TEXT	SEGMENT
this$ = 8
_Right$ = 16
__formal$dead$ = 24
?_Move_from@?$vector@DV?$allocator@D@std@@@std@@AEAAX$$QEAV12@U?$integral_constant@_N$00@2@@Z PROC ; std::vector<char,std::allocator<char> >::_Move_from, COMDAT

; 817  : 		this->_Swap_all(_Right);
; 818  : 
; 819  : 		this->_Myfirst() = _Right._Myfirst();

  00000	48 8b 02	 mov	 rax, QWORD PTR [rdx]
  00003	48 89 01	 mov	 QWORD PTR [rcx], rax

; 820  : 		this->_Mylast() = _Right._Mylast();

  00006	48 8b 42 08	 mov	 rax, QWORD PTR [rdx+8]
  0000a	48 89 41 08	 mov	 QWORD PTR [rcx+8], rax

; 821  : 		this->_Myend() = _Right._Myend();

  0000e	48 8b 42 10	 mov	 rax, QWORD PTR [rdx+16]
  00012	48 89 41 10	 mov	 QWORD PTR [rcx+16], rax

; 822  : 
; 823  : 		_Right._Myfirst() = pointer();

  00016	33 c0		 xor	 eax, eax
  00018	48 89 02	 mov	 QWORD PTR [rdx], rax

; 824  : 		_Right._Mylast() = pointer();

  0001b	48 89 42 08	 mov	 QWORD PTR [rdx+8], rax

; 825  : 		_Right._Myend() = pointer();

  0001f	48 89 42 10	 mov	 QWORD PTR [rdx+16], rax

; 826  : 		}

  00023	c3		 ret	 0
?_Move_from@?$vector@DV?$allocator@D@std@@@std@@AEAAX$$QEAV12@U?$integral_constant@_N$00@2@@Z ENDP ; std::vector<char,std::allocator<char> >::_Move_from
_TEXT	ENDS
; Function compile flags: /Ogtpy
; File c:\users\alist_000\cppmisc\packages\visualcpptools.14.0.24629\lib\native\include\xutility
;	COMDAT ?_Tidy@?$_Yarn@_W@std@@AEAAXXZ
_TEXT	SEGMENT
this$ = 48
?_Tidy@?$_Yarn@_W@std@@AEAAXXZ PROC			; std::_Yarn<wchar_t>::_Tidy, COMDAT

; 3716 : 		{	// discard any string

$LN6:
  00000	40 53		 push	 rbx
  00002	48 83 ec 20	 sub	 rsp, 32			; 00000020H
  00006	48 8b d9	 mov	 rbx, rcx

; 3717 : 		if (_Myptr != 0)

  00009	48 8b 09	 mov	 rcx, QWORD PTR [rcx]
  0000c	48 85 c9	 test	 rcx, rcx
  0000f	74 05		 je	 SHORT $LN4@Tidy

; 3718 : 
; 3719 :  #ifdef _DEBUG
; 3720 : 			_free_dbg(_Myptr, _CRT_BLOCK);
; 3721 : 
; 3722 :  #else /* _DEBUG */
; 3723 : 			_CSTD free(_Myptr);

  00011	e8 00 00 00 00	 call	 free
$LN4@Tidy:

; 3724 :  #endif /* _DEBUG */
; 3725 : 
; 3726 : 		_Myptr = 0;

  00016	48 c7 03 00 00
	00 00		 mov	 QWORD PTR [rbx], 0

; 3727 : 		}

  0001d	48 83 c4 20	 add	 rsp, 32			; 00000020H
  00021	5b		 pop	 rbx
  00022	c3		 ret	 0
?_Tidy@?$_Yarn@_W@std@@AEAAXXZ ENDP			; std::_Yarn<wchar_t>::_Tidy
_TEXT	ENDS
; Function compile flags: /Ogtpy
; File c:\users\alist_000\cppmisc\packages\visualcpptools.14.0.24629\lib\native\include\xutility
;	COMDAT ?_Tidy@?$_Yarn@D@std@@AEAAXXZ
_TEXT	SEGMENT
this$ = 48
?_Tidy@?$_Yarn@D@std@@AEAAXXZ PROC			; std::_Yarn<char>::_Tidy, COMDAT

; 3716 : 		{	// discard any string

$LN6:
  00000	40 53		 push	 rbx
  00002	48 83 ec 20	 sub	 rsp, 32			; 00000020H
  00006	48 8b d9	 mov	 rbx, rcx

; 3717 : 		if (_Myptr != 0)

  00009	48 8b 09	 mov	 rcx, QWORD PTR [rcx]
  0000c	48 85 c9	 test	 rcx, rcx
  0000f	74 05		 je	 SHORT $LN4@Tidy

; 3718 : 
; 3719 :  #ifdef _DEBUG
; 3720 : 			_free_dbg(_Myptr, _CRT_BLOCK);
; 3721 : 
; 3722 :  #else /* _DEBUG */
; 3723 : 			_CSTD free(_Myptr);

  00011	e8 00 00 00 00	 call	 free
$LN4@Tidy:

; 3724 :  #endif /* _DEBUG */
; 3725 : 
; 3726 : 		_Myptr = 0;

  00016	48 c7 03 00 00
	00 00		 mov	 QWORD PTR [rbx], 0

; 3727 : 		}

  0001d	48 83 c4 20	 add	 rsp, 32			; 00000020H
  00021	5b		 pop	 rbx
  00022	c3		 ret	 0
?_Tidy@?$_Yarn@D@std@@AEAAXXZ ENDP			; std::_Yarn<char>::_Tidy
_TEXT	ENDS
; Function compile flags: /Ogtpy
; File c:\users\alist_000\cppmisc\packages\visualcpptools.14.0.24629\lib\native\include\xstring
;	COMDAT ??1_Bxty@?$_String_val@U?$_Simple_types@D@std@@@std@@QEAA@XZ
_TEXT	SEGMENT
this$ = 8
??1_Bxty@?$_String_val@U?$_Simple_types@D@std@@@std@@QEAA@XZ PROC ; std::_String_val<std::_Simple_types<char> >::_Bxty::~_Bxty, COMDAT

; 1649 : 			}

  00000	c2 00 00	 ret	 0
??1_Bxty@?$_String_val@U?$_Simple_types@D@std@@@std@@QEAA@XZ ENDP ; std::_String_val<std::_Simple_types<char> >::_Bxty::~_Bxty
_TEXT	ENDS
; Function compile flags: /Ogtpy
; File c:\users\alist_000\cppmisc\packages\visualcpptools.14.0.24629\lib\native\include\xmemory0
;	COMDAT ?select_on_container_copy_construction@?$_Wrap_alloc@V?$allocator@D@std@@@std@@QEBA?AU12@U_Nil@2@@Z
_TEXT	SEGMENT
this$ = 8
__$ReturnUdt$ = 16
__formal$ = 24
?select_on_container_copy_construction@?$_Wrap_alloc@V?$allocator@D@std@@@std@@QEBA?AU12@U_Nil@2@@Z PROC ; std::_Wrap_alloc<std::allocator<char> >::select_on_container_copy_construction, COMDAT

; 1007 : 		return (_Mytraits::select_on_container_copy_construction(*this));

  00000	48 8b c2	 mov	 rax, rdx

; 1008 : 		}

  00003	c3		 ret	 0
?select_on_container_copy_construction@?$_Wrap_alloc@V?$allocator@D@std@@@std@@QEBA?AU12@U_Nil@2@@Z ENDP ; std::_Wrap_alloc<std::allocator<char> >::select_on_container_copy_construction
_TEXT	ENDS
; Function compile flags: /Ogtpy
; File c:\users\alist_000\cppmisc\packages\visualcpptools.14.0.24629\lib\native\include\xstring
;	COMDAT ?_Mysize@?$_String_alloc@U?$_String_base_types@DV?$allocator@D@std@@@std@@@std@@QEBAAEB_KXZ
_TEXT	SEGMENT
this$ = 8
?_Mysize@?$_String_alloc@U?$_String_base_types@DV?$allocator@D@std@@@std@@@std@@QEBAAEB_KXZ PROC ; std::_String_alloc<std::_String_base_types<char,std::allocator<char> > >::_Mysize, COMDAT

; 1854 : 		return (_Get_data()._Mysize);

  00000	48 8d 41 10	 lea	 rax, QWORD PTR [rcx+16]

; 1855 : 		}

  00004	c3		 ret	 0
?_Mysize@?$_String_alloc@U?$_String_base_types@DV?$allocator@D@std@@@std@@@std@@QEBAAEB_KXZ ENDP ; std::_String_alloc<std::_String_base_types<char,std::allocator<char> > >::_Mysize
_TEXT	ENDS
; Function compile flags: /Ogtpy
; File c:\users\alist_000\cppmisc\packages\visualcpptools.14.0.24629\lib\native\include\xstring
;	COMDAT ?_Getal@?$_String_alloc@U?$_String_base_types@DV?$allocator@D@std@@@std@@@std@@QEBAAEBU?$_Wrap_alloc@V?$allocator@D@std@@@2@XZ
_TEXT	SEGMENT
this$ = 8
?_Getal@?$_String_alloc@U?$_String_base_types@DV?$allocator@D@std@@@std@@@std@@QEBAAEBU?$_Wrap_alloc@V?$allocator@D@std@@@2@XZ PROC ; std::_String_alloc<std::_String_base_types<char,std::allocator<char> > >::_Getal, COMDAT

; 1832 : 		return (_Mypair._Get_first());

  00000	48 8b c1	 mov	 rax, rcx

; 1833 : 		}

  00003	c3		 ret	 0
?_Getal@?$_String_alloc@U?$_String_base_types@DV?$allocator@D@std@@@std@@@std@@QEBAAEBU?$_Wrap_alloc@V?$allocator@D@std@@@2@XZ ENDP ; std::_String_alloc<std::_String_base_types<char,std::allocator<char> > >::_Getal
_TEXT	ENDS
; Function compile flags: /Ogtpy
; File c:\users\alist_000\cppmisc\packages\visualcpptools.14.0.24629\lib\native\include\xstring
;	COMDAT ?_Getal@?$_String_alloc@U?$_String_base_types@DV?$allocator@D@std@@@std@@@std@@QEAAAEAU?$_Wrap_alloc@V?$allocator@D@std@@@2@XZ
_TEXT	SEGMENT
this$ = 8
?_Getal@?$_String_alloc@U?$_String_base_types@DV?$allocator@D@std@@@std@@@std@@QEAAAEAU?$_Wrap_alloc@V?$allocator@D@std@@@2@XZ PROC ; std::_String_alloc<std::_String_base_types<char,std::allocator<char> > >::_Getal, COMDAT

; 1827 : 		return (_Mypair._Get_first());

  00000	48 8b c1	 mov	 rax, rcx

; 1828 : 		}

  00003	c3		 ret	 0
?_Getal@?$_String_alloc@U?$_String_base_types@DV?$allocator@D@std@@@std@@@std@@QEAAAEAU?$_Wrap_alloc@V?$allocator@D@std@@@2@XZ ENDP ; std::_String_alloc<std::_String_base_types<char,std::allocator<char> > >::_Getal
_TEXT	ENDS
; Function compile flags: /Ogtpy
; File c:\users\alist_000\cppmisc\packages\visualcpptools.14.0.24629\lib\native\include\xstring
;	COMDAT ??0?$_String_alloc@U?$_String_base_types@DV?$allocator@D@std@@@std@@@std@@QEAA@XZ
_TEXT	SEGMENT
this$ = 8
??0?$_String_alloc@U?$_String_base_types@DV?$allocator@D@std@@@std@@@std@@QEAA@XZ PROC ; std::_String_alloc<std::_String_base_types<char,std::allocator<char> > >::_String_alloc<std::_String_base_types<char,std::allocator<char> > >, COMDAT

; 1606 : 		_Mysize(0),

  00000	33 c0		 xor	 eax, eax
  00002	48 89 41 10	 mov	 QWORD PTR [rcx+16], rax

; 1607 : 		_Myres(0)

  00006	48 89 41 18	 mov	 QWORD PTR [rcx+24], rax

; 1705 : 		}

  0000a	48 8b c1	 mov	 rax, rcx
  0000d	c3		 ret	 0
??0?$_String_alloc@U?$_String_base_types@DV?$allocator@D@std@@@std@@@std@@QEAA@XZ ENDP ; std::_String_alloc<std::_String_base_types<char,std::allocator<char> > >::_String_alloc<std::_String_base_types<char,std::allocator<char> > >
_TEXT	ENDS
; Function compile flags: /Ogtpy
; File c:\users\alist_000\cppmisc\packages\visualcpptools.14.0.24629\lib\native\include\xstring
;	COMDAT ?_Myptr@?$_String_alloc@U?$_String_base_types@DV?$allocator@D@std@@@std@@@std@@QEBAPEBDXZ
_TEXT	SEGMENT
this$ = 8
?_Myptr@?$_String_alloc@U?$_String_base_types@DV?$allocator@D@std@@@std@@@std@@QEBAPEBDXZ PROC ; std::_String_alloc<std::_String_base_types<char,std::allocator<char> > >::_Myptr, COMDAT

; 1638 : 		return (this->_BUF_SIZE <= _Myres);

  00000	48 83 79 18 10	 cmp	 QWORD PTR [rcx+24], 16

; 1631 : 		return (_Large_string_engaged()

  00005	72 04		 jb	 SHORT $LN11@Myptr

; 1698 : 		return (_Get_data()._Myptr());

  00007	48 8b 01	 mov	 rax, QWORD PTR [rcx]

; 1699 : 		}

  0000a	c3		 ret	 0
$LN11@Myptr:

; 1698 : 		return (_Get_data()._Myptr());

  0000b	48 8b c1	 mov	 rax, rcx

; 1699 : 		}

  0000e	c3		 ret	 0
?_Myptr@?$_String_alloc@U?$_String_base_types@DV?$allocator@D@std@@@std@@@std@@QEBAPEBDXZ ENDP ; std::_String_alloc<std::_String_base_types<char,std::allocator<char> > >::_Myptr
_TEXT	ENDS
; Function compile flags: /Ogtpy
; File c:\users\alist_000\cppmisc\packages\visualcpptools.14.0.24629\lib\native\include\xstring
;	COMDAT ?_Myptr@?$_String_alloc@U?$_String_base_types@DV?$allocator@D@std@@@std@@@std@@QEAAPEADXZ
_TEXT	SEGMENT
this$ = 8
?_Myptr@?$_String_alloc@U?$_String_base_types@DV?$allocator@D@std@@@std@@@std@@QEAAPEADXZ PROC ; std::_String_alloc<std::_String_base_types<char,std::allocator<char> > >::_Myptr, COMDAT

; 1638 : 		return (this->_BUF_SIZE <= _Myres);

  00000	48 83 79 18 10	 cmp	 QWORD PTR [rcx+24], 16

; 1624 : 		return (_Large_string_engaged()

  00005	72 04		 jb	 SHORT $LN11@Myptr

; 1693 : 		return (_Get_data()._Myptr());

  00007	48 8b 01	 mov	 rax, QWORD PTR [rcx]

; 1694 : 		}

  0000a	c3		 ret	 0
$LN11@Myptr:

; 1693 : 		return (_Get_data()._Myptr());

  0000b	48 8b c1	 mov	 rax, rcx

; 1694 : 		}

  0000e	c3		 ret	 0
?_Myptr@?$_String_alloc@U?$_String_base_types@DV?$allocator@D@std@@@std@@@std@@QEAAPEADXZ ENDP ; std::_String_alloc<std::_String_base_types<char,std::allocator<char> > >::_Myptr
_TEXT	ENDS
; Function compile flags: /Ogtpy
; File c:\users\alist_000\cppmisc\packages\visualcpptools.14.0.24629\lib\native\include\xstring
; File c:\users\alist_000\cppmisc\packages\visualcpptools.14.0.24629\lib\native\include\xmemory0
; File c:\users\alist_000\cppmisc\packages\visualcpptools.14.0.24629\lib\native\include\xstring
; File c:\users\alist_000\cppmisc\packages\visualcpptools.14.0.24629\lib\native\include\xmemory0
; File c:\users\alist_000\cppmisc\packages\visualcpptools.14.0.24629\lib\native\include\xstring
; File c:\users\alist_000\cppmisc\packages\visualcpptools.14.0.24629\lib\native\include\xmemory0
; File c:\users\alist_000\cppmisc\packages\visualcpptools.14.0.24629\lib\native\include\xstring
; File c:\users\alist_000\cppmisc\packages\visualcpptools.14.0.24629\lib\native\include\xmemory0
; File c:\users\alist_000\cppmisc\packages\visualcpptools.14.0.24629\lib\native\include\xstring
;	COMDAT ?_Tidy_deallocate_only@?$basic_string@DU?$char_traits@D@std@@V?$allocator@D@2@@std@@QEAAXXZ
_TEXT	SEGMENT
this$ = 48
?_Tidy_deallocate_only@?$basic_string@DU?$char_traits@D@std@@V?$allocator@D@2@@std@@QEAAXXZ PROC ; std::basic_string<char,std::char_traits<char>,std::allocator<char> >::_Tidy_deallocate_only, COMDAT

; 3547 : 		{	// deallocate storage only

$LN42:
  00000	48 83 ec 28	 sub	 rsp, 40			; 00000028H

; 1638 : 		return (this->_BUF_SIZE <= _Myres);

  00004	48 8b 41 18	 mov	 rax, QWORD PTR [rcx+24]
  00008	48 83 f8 10	 cmp	 rax, 16

; 3548 : 		auto& _My_data = this->_Get_data();
; 3549 : 		if (_My_data._Large_string_engaged())

  0000c	72 37		 jb	 SHORT $LN32@Tidy_deall
; File c:\users\alist_000\cppmisc\packages\visualcpptools.14.0.24629\lib\native\include\xmemory0

; 816  : 		_Deallocate(_Ptr, _Count, sizeof (_Ty));

  0000e	48 8b 09	 mov	 rcx, QWORD PTR [rcx]
; File c:\users\alist_000\cppmisc\packages\visualcpptools.14.0.24629\lib\native\include\xstring

; 3554 : 			_Al.deallocate(_Ptr, _My_data._Myres + 1);

  00011	48 ff c0	 inc	 rax
; File c:\users\alist_000\cppmisc\packages\visualcpptools.14.0.24629\lib\native\include\xmemory0

; 98   : 	if (_BIG_ALLOCATION_THRESHOLD <= _User_size)

  00014	48 3d 00 10 00
	00		 cmp	 rax, 4096		; 00001000H
  0001a	72 20		 jb	 SHORT $LN27@Tidy_deall

; 101  : 		_SCL_SECURE_ALWAYS_VALIDATE(

  0001c	f6 c1 1f	 test	 cl, 31
  0001f	75 29		 jne	 SHORT $LN37@Tidy_deall

; 102  : 			(_Ptr_user & (_BIG_ALLOCATION_ALIGNMENT - 1)) == 0);
; 103  : 		const uintptr_t _Ptr_ptr = _Ptr_user - sizeof(void *);
; 104  : 		const uintptr_t _Ptr_container =
; 105  : 			*reinterpret_cast<uintptr_t *>(_Ptr_ptr);

  00021	48 8b 41 f8	 mov	 rax, QWORD PTR [rcx-8]

; 106  : 
; 107  :  #ifdef _DEBUG
; 108  : 		// If the following asserts, it likely means that we are performing
; 109  : 		// an aligned delete on memory coming from an unaligned allocation.
; 110  : 		_SCL_SECURE_ALWAYS_VALIDATE(
; 111  : 			reinterpret_cast<uintptr_t *>(_Ptr_ptr)[-1] ==
; 112  : 				_BIG_ALLOCATION_SENTINEL);
; 113  :  #endif /* _DEBUG */
; 114  : 
; 115  : 		// Extra paranoia on aligned allocation/deallocation
; 116  : 		_SCL_SECURE_ALWAYS_VALIDATE(_Ptr_container < _Ptr_user);

  00025	48 3b c1	 cmp	 rax, rcx
  00028	73 26		 jae	 SHORT $LN39@Tidy_deall

; 117  : 
; 118  :  #ifdef _DEBUG
; 119  : 		_SCL_SECURE_ALWAYS_VALIDATE(2 * sizeof(void *)
; 120  : 			<= _Ptr_user - _Ptr_container);
; 121  : 
; 122  :  #else /* _DEBUG */
; 123  : 		_SCL_SECURE_ALWAYS_VALIDATE(sizeof(void *)

  0002a	48 2b c8	 sub	 rcx, rax
  0002d	48 83 f9 08	 cmp	 rcx, 8
  00031	72 23		 jb	 SHORT $LN40@Tidy_deall

; 124  : 			<= _Ptr_user - _Ptr_container);
; 125  :  #endif /* _DEBUG */
; 126  : 
; 127  : 		_SCL_SECURE_ALWAYS_VALIDATE(_Ptr_user - _Ptr_container

  00033	48 83 f9 27	 cmp	 rcx, 39			; 00000027H
  00037	77 23		 ja	 SHORT $LN41@Tidy_deall

; 128  : 			<= _NON_USER_SIZE);
; 129  : 
; 130  : 		_Ptr = reinterpret_cast<void *>(_Ptr_container);

  00039	48 8b c8	 mov	 rcx, rax
$LN27@Tidy_deall:
; File c:\users\alist_000\cppmisc\packages\visualcpptools.14.0.24629\lib\native\include\xstring

; 3556 : 		}

  0003c	48 83 c4 28	 add	 rsp, 40			; 00000028H
; File c:\users\alist_000\cppmisc\packages\visualcpptools.14.0.24629\lib\native\include\xmemory0

; 134  : 	::operator delete(_Ptr);

  00040	e9 00 00 00 00	 jmp	 ??3@YAXPEAX@Z		; operator delete
$LN32@Tidy_deall:
; File c:\users\alist_000\cppmisc\packages\visualcpptools.14.0.24629\lib\native\include\xstring

; 3556 : 		}

  00045	48 83 c4 28	 add	 rsp, 40			; 00000028H
  00049	c3		 ret	 0
$LN37@Tidy_deall:
; File c:\users\alist_000\cppmisc\packages\visualcpptools.14.0.24629\lib\native\include\xmemory0

; 101  : 		_SCL_SECURE_ALWAYS_VALIDATE(

  0004a	e8 00 00 00 00	 call	 _invalid_parameter_noinfo_noreturn
  0004f	cc		 int	 3
$LN39@Tidy_deall:

; 106  : 
; 107  :  #ifdef _DEBUG
; 108  : 		// If the following asserts, it likely means that we are performing
; 109  : 		// an aligned delete on memory coming from an unaligned allocation.
; 110  : 		_SCL_SECURE_ALWAYS_VALIDATE(
; 111  : 			reinterpret_cast<uintptr_t *>(_Ptr_ptr)[-1] ==
; 112  : 				_BIG_ALLOCATION_SENTINEL);
; 113  :  #endif /* _DEBUG */
; 114  : 
; 115  : 		// Extra paranoia on aligned allocation/deallocation
; 116  : 		_SCL_SECURE_ALWAYS_VALIDATE(_Ptr_container < _Ptr_user);

  00050	e8 00 00 00 00	 call	 _invalid_parameter_noinfo_noreturn
  00055	cc		 int	 3
$LN40@Tidy_deall:

; 117  : 
; 118  :  #ifdef _DEBUG
; 119  : 		_SCL_SECURE_ALWAYS_VALIDATE(2 * sizeof(void *)
; 120  : 			<= _Ptr_user - _Ptr_container);
; 121  : 
; 122  :  #else /* _DEBUG */
; 123  : 		_SCL_SECURE_ALWAYS_VALIDATE(sizeof(void *)

  00056	e8 00 00 00 00	 call	 _invalid_parameter_noinfo_noreturn
  0005b	cc		 int	 3
$LN41@Tidy_deall:

; 124  : 			<= _Ptr_user - _Ptr_container);
; 125  :  #endif /* _DEBUG */
; 126  : 
; 127  : 		_SCL_SECURE_ALWAYS_VALIDATE(_Ptr_user - _Ptr_container

  0005c	e8 00 00 00 00	 call	 _invalid_parameter_noinfo_noreturn
  00061	cc		 int	 3
$LN36@Tidy_deall:
?_Tidy_deallocate_only@?$basic_string@DU?$char_traits@D@std@@V?$allocator@D@2@@std@@QEAAXXZ ENDP ; std::basic_string<char,std::char_traits<char>,std::allocator<char> >::_Tidy_deallocate_only
_TEXT	ENDS
; Function compile flags: /Ogtpy
; File c:\users\alist_000\cppmisc\packages\visualcpptools.14.0.24629\lib\native\include\xstring
; File c:\users\alist_000\cppmisc\packages\visualcpptools.14.0.24629\lib\native\include\iosfwd
; File c:\users\alist_000\cppmisc\packages\visualcpptools.14.0.24629\lib\native\include\xstring
;	COMDAT ?_Tidy_init@?$basic_string@DU?$char_traits@D@std@@V?$allocator@D@2@@std@@QEAAXXZ
_TEXT	SEGMENT
this$ = 8
?_Tidy_init@?$basic_string@DU?$char_traits@D@std@@V?$allocator@D@2@@std@@QEAAXXZ PROC ; std::basic_string<char,std::char_traits<char>,std::allocator<char> >::_Tidy_init, COMDAT

; 3538 : 		auto& _My_data = this->_Get_data();
; 3539 : 		_My_data._Mysize = 0;

  00000	48 c7 41 10 00
	00 00 00	 mov	 QWORD PTR [rcx+16], 0

; 3540 : 		_My_data._Myres = this->_BUF_SIZE - 1;

  00008	48 c7 41 18 0f
	00 00 00	 mov	 QWORD PTR [rcx+24], 15
; File c:\users\alist_000\cppmisc\packages\visualcpptools.14.0.24629\lib\native\include\iosfwd

; 516  : 		_Left = _Right;

  00010	c6 01 00	 mov	 BYTE PTR [rcx], 0
; File c:\users\alist_000\cppmisc\packages\visualcpptools.14.0.24629\lib\native\include\xstring

; 3544 : 		}

  00013	c3		 ret	 0
?_Tidy_init@?$basic_string@DU?$char_traits@D@std@@V?$allocator@D@2@@std@@QEAAXXZ ENDP ; std::basic_string<char,std::char_traits<char>,std::allocator<char> >::_Tidy_init
_TEXT	ENDS
; Function compile flags: /Ogtpy
; File c:\users\alist_000\cppmisc\packages\visualcpptools.14.0.24629\lib\native\include\xstring
; File c:\users\alist_000\cppmisc\packages\visualcpptools.14.0.24629\lib\native\include\iosfwd
; File c:\users\alist_000\cppmisc\packages\visualcpptools.14.0.24629\lib\native\include\xstring
;	COMDAT ?assign@?$basic_string@DU?$char_traits@D@std@@V?$allocator@D@2@@std@@QEAAAEAV12@QEBD@Z
_TEXT	SEGMENT
this$ = 8
_Ptr$ = 16
?assign@?$basic_string@DU?$char_traits@D@std@@V?$allocator@D@2@@std@@QEAAAEAV12@QEBD@Z PROC ; std::basic_string<char,std::char_traits<char>,std::allocator<char> >::assign, COMDAT
; File c:\users\alist_000\cppmisc\packages\visualcpptools.14.0.24629\lib\native\include\iosfwd

; 479  : 		return (_CSTD strlen(_First));

  00000	49 83 c8 ff	 or	 r8, -1
$LL6@assign:
  00004	49 ff c0	 inc	 r8
  00007	42 80 3c 02 00	 cmp	 BYTE PTR [rdx+r8], 0
  0000c	75 f6		 jne	 SHORT $LL6@assign
; File c:\users\alist_000\cppmisc\packages\visualcpptools.14.0.24629\lib\native\include\xstring

; 2377 : 		return (assign(_Ptr, _Traits::length(_Ptr)));

  0000e	e9 00 00 00 00	 jmp	 ?assign@?$basic_string@DU?$char_traits@D@std@@V?$allocator@D@2@@std@@QEAAAEAV12@QEBD_K@Z ; std::basic_string<char,std::char_traits<char>,std::allocator<char> >::assign
?assign@?$basic_string@DU?$char_traits@D@std@@V?$allocator@D@2@@std@@QEAAAEAV12@QEBD@Z ENDP ; std::basic_string<char,std::char_traits<char>,std::allocator<char> >::assign
_TEXT	ENDS
; Function compile flags: /Ogtpy
; File c:\users\alist_000\cppmisc\packages\visualcpptools.14.0.24629\lib\native\include\xstring
; File c:\users\alist_000\cppmisc\packages\visualcpptools.14.0.24629\lib\native\include\xstddef
; File c:\users\alist_000\cppmisc\packages\visualcpptools.14.0.24629\lib\native\include\xstring
; File c:\users\alist_000\cppmisc\packages\visualcpptools.14.0.24629\lib\native\include\xstddef
; File c:\users\alist_000\cppmisc\packages\visualcpptools.14.0.24629\lib\native\include\xstring
; File c:\users\alist_000\cppmisc\packages\visualcpptools.14.0.24629\lib\native\include\xstddef
; File c:\users\alist_000\cppmisc\packages\visualcpptools.14.0.24629\lib\native\include\iosfwd
; File c:\users\alist_000\cppmisc\packages\visualcpptools.14.0.24629\lib\native\include\xstring
; File c:\users\alist_000\cppmisc\packages\visualcpptools.14.0.24629\lib\native\include\iosfwd
; File c:\users\alist_000\cppmisc\packages\visualcpptools.14.0.24629\lib\native\include\xstring
; File c:\users\alist_000\cppmisc\packages\visualcpptools.14.0.24629\lib\native\include\xstddef
; File c:\users\alist_000\cppmisc\packages\visualcpptools.14.0.24629\lib\native\include\xstring
; File c:\users\alist_000\cppmisc\packages\visualcpptools.14.0.24629\lib\native\include\iosfwd
; File c:\users\alist_000\cppmisc\packages\visualcpptools.14.0.24629\lib\native\include\xstring
; File c:\users\alist_000\cppmisc\packages\visualcpptools.14.0.24629\lib\native\include\xstddef
; File c:\users\alist_000\cppmisc\packages\visualcpptools.14.0.24629\lib\native\include\xstring
; File c:\users\alist_000\cppmisc\packages\visualcpptools.14.0.24629\lib\native\include\iosfwd
; File c:\users\alist_000\cppmisc\packages\visualcpptools.14.0.24629\lib\native\include\xstring
;	COMDAT ?append@?$basic_string@DU?$char_traits@D@std@@V?$allocator@D@2@@std@@QEAAAEAV12@QEBD_K@Z
_TEXT	SEGMENT
this$ = 48
_Ptr$ = 56
_Count$ = 64
?append@?$basic_string@DU?$char_traits@D@std@@V?$allocator@D@2@@std@@QEAAAEAV12@QEBD_K@Z PROC ; std::basic_string<char,std::char_traits<char>,std::allocator<char> >::append, COMDAT

; 2263 : 		{	// append [_Ptr, _Ptr + _Count)

$LN142:
  00000	48 89 5c 24 10	 mov	 QWORD PTR [rsp+16], rbx
  00005	48 89 6c 24 18	 mov	 QWORD PTR [rsp+24], rbp
  0000a	56		 push	 rsi
  0000b	48 83 ec 20	 sub	 rsp, 32			; 00000020H
  0000f	48 8b f2	 mov	 rsi, rdx
  00012	49 8b e8	 mov	 rbp, r8

; 1638 : 		return (this->_BUF_SIZE <= _Myres);

  00015	48 8b 51 18	 mov	 rdx, QWORD PTR [rcx+24]

; 2263 : 		{	// append [_Ptr, _Ptr + _Count)

  00019	48 8b d9	 mov	 rbx, rcx

; 1638 : 		return (this->_BUF_SIZE <= _Myres);

  0001c	48 83 fa 10	 cmp	 rdx, 16

; 1631 : 		return (_Large_string_engaged()

  00020	72 03		 jb	 SHORT $LN19@append
; File c:\users\alist_000\cppmisc\packages\visualcpptools.14.0.24629\lib\native\include\xstddef

; 642  : 	return (_Ptr);

  00022	48 8b 09	 mov	 rcx, QWORD PTR [rcx]
$LN19@append:
; File c:\users\alist_000\cppmisc\packages\visualcpptools.14.0.24629\lib\native\include\xstring

; 3533 : 		return (_My_chars <= _Ptr && _Ptr < _My_chars + _My_data._Mysize);

  00025	48 3b ce	 cmp	 rcx, rsi
  00028	77 3a		 ja	 SHORT $LN2@append
  0002a	48 03 4b 10	 add	 rcx, QWORD PTR [rbx+16]
  0002e	48 3b f1	 cmp	 rsi, rcx
  00031	73 31		 jae	 SHORT $LN2@append

; 1638 : 		return (this->_BUF_SIZE <= _Myres);

  00033	48 83 fa 10	 cmp	 rdx, 16

; 1624 : 		return (_Large_string_engaged()

  00037	72 05		 jb	 SHORT $LN34@append
; File c:\users\alist_000\cppmisc\packages\visualcpptools.14.0.24629\lib\native\include\xstddef

; 642  : 	return (_Ptr);

  00039	48 8b 03	 mov	 rax, QWORD PTR [rbx]
; File c:\users\alist_000\cppmisc\packages\visualcpptools.14.0.24629\lib\native\include\xstring

; 1624 : 		return (_Large_string_engaged()

  0003c	eb 03		 jmp	 SHORT $LN35@append
$LN34@append:
  0003e	48 8b c3	 mov	 rax, rbx
$LN35@append:

; 2264 : 		if (_Inside(_Ptr))
; 2265 : 			{
; 2266 : 			return (append(*this,

  00041	48 2b f0	 sub	 rsi, rax
  00044	4c 8b cd	 mov	 r9, rbp
  00047	4c 8b c6	 mov	 r8, rsi
  0004a	48 8b d3	 mov	 rdx, rbx
  0004d	48 8b cb	 mov	 rcx, rbx

; 2281 : 		}

  00050	48 8b 5c 24 38	 mov	 rbx, QWORD PTR [rsp+56]
  00055	48 8b 6c 24 40	 mov	 rbp, QWORD PTR [rsp+64]
  0005a	48 83 c4 20	 add	 rsp, 32			; 00000020H
  0005e	5e		 pop	 rsi

; 2264 : 		if (_Inside(_Ptr))
; 2265 : 			{
; 2266 : 			return (append(*this,

  0005f	e9 00 00 00 00	 jmp	 ?append@?$basic_string@DU?$char_traits@D@std@@V?$allocator@D@2@@std@@QEAAAEAV12@AEBV12@_K_K@Z ; std::basic_string<char,std::char_traits<char>,std::allocator<char> >::append
$LN2@append:

; 2267 : 				_Ptr - this->_Myptr(), _Count));	// substring
; 2268 : 			}
; 2269 : 		if (npos - this->_Mysize() <= _Count)

  00064	48 8b 4b 10	 mov	 rcx, QWORD PTR [rbx+16]
  00068	48 8b c1	 mov	 rax, rcx
  0006b	48 f7 d0	 not	 rax
  0006e	48 3b c5	 cmp	 rax, rbp
  00071	0f 86 8a 00 00
	00		 jbe	 $LN140@append

; 2272 : 			}
; 2273 : 
; 2274 : 		const size_type _Num = this->_Mysize() + _Count;

  00077	48 89 7c 24 30	 mov	 QWORD PTR [rsp+48], rdi
  0007c	4a 8d 3c 01	 lea	 rdi, QWORD PTR [rcx+r8]

; 2275 : 		if (_Count != 0 && _Grow(_Num))

  00080	48 85 ed	 test	 rbp, rbp
  00083	74 64		 je	 SHORT $LN135@append

; 3515 : 		if (_Newsize == 0)

  00085	48 85 ff	 test	 rdi, rdi
  00088	75 1a		 jne	 SHORT $LN59@append

; 3510 : 		_Traits::assign(_My_data._Myptr()[_My_data._Mysize = _Newsize], _Elem());

  0008a	48 89 7b 10	 mov	 QWORD PTR [rbx+16], rdi

; 1638 : 		return (this->_BUF_SIZE <= _Myres);

  0008e	48 83 fa 10	 cmp	 rdx, 16

; 1624 : 		return (_Large_string_engaged()

  00092	72 08		 jb	 SHORT $LN72@append
; File c:\users\alist_000\cppmisc\packages\visualcpptools.14.0.24629\lib\native\include\xstddef

; 642  : 	return (_Ptr);

  00094	48 8b 03	 mov	 rax, QWORD PTR [rbx]
; File c:\users\alist_000\cppmisc\packages\visualcpptools.14.0.24629\lib\native\include\iosfwd

; 516  : 		_Left = _Right;

  00097	40 88 38	 mov	 BYTE PTR [rax], dil
; File c:\users\alist_000\cppmisc\packages\visualcpptools.14.0.24629\lib\native\include\xstring

; 3518 : 			return (false);

  0009a	eb 4d		 jmp	 SHORT $LN135@append
$LN72@append:

; 1624 : 		return (_Large_string_engaged()

  0009c	48 8b c3	 mov	 rax, rbx
; File c:\users\alist_000\cppmisc\packages\visualcpptools.14.0.24629\lib\native\include\iosfwd

; 516  : 		_Left = _Right;

  0009f	c6 03 00	 mov	 BYTE PTR [rbx], 0
; File c:\users\alist_000\cppmisc\packages\visualcpptools.14.0.24629\lib\native\include\xstring

; 3518 : 			return (false);

  000a2	eb 45		 jmp	 SHORT $LN135@append
$LN59@append:

; 3519 : 			}
; 3520 : 
; 3521 : 		if (this->_Myres() < _Newsize)

  000a4	48 3b d7	 cmp	 rdx, rdi
  000a7	73 0b		 jae	 SHORT $LN60@append

; 3522 : 			{	// reallocate to grow
; 3523 : 			_Copy(_Newsize);

  000a9	48 8b d7	 mov	 rdx, rdi
  000ac	48 8b cb	 mov	 rcx, rbx
  000af	e8 00 00 00 00	 call	 ?_Copy@?$basic_string@DU?$char_traits@D@std@@V?$allocator@D@2@@std@@QEAAX_K@Z ; std::basic_string<char,std::char_traits<char>,std::allocator<char> >::_Copy
$LN60@append:

; 1638 : 		return (this->_BUF_SIZE <= _Myres);

  000b4	48 83 7b 18 10	 cmp	 QWORD PTR [rbx+24], 16

; 1624 : 		return (_Large_string_engaged()

  000b9	72 05		 jb	 SHORT $LN100@append
; File c:\users\alist_000\cppmisc\packages\visualcpptools.14.0.24629\lib\native\include\xstddef

; 642  : 	return (_Ptr);

  000bb	48 8b 0b	 mov	 rcx, QWORD PTR [rbx]
; File c:\users\alist_000\cppmisc\packages\visualcpptools.14.0.24629\lib\native\include\xstring

; 1624 : 		return (_Large_string_engaged()

  000be	eb 03		 jmp	 SHORT $LN101@append
$LN100@append:
  000c0	48 8b cb	 mov	 rcx, rbx
$LN101@append:

; 2276 : 			{	// make room and append new stuff
; 2277 : 			_Traits::copy(this->_Myptr() + this->_Mysize(), _Ptr, _Count);

  000c3	48 03 4b 10	 add	 rcx, QWORD PTR [rbx+16]
; File c:\users\alist_000\cppmisc\packages\visualcpptools.14.0.24629\lib\native\include\iosfwd

; 485  : 		return ((_Elem *)_CSTD memcpy(_First1, _First2, _Count));

  000c7	4c 8b c5	 mov	 r8, rbp
  000ca	48 8b d6	 mov	 rdx, rsi
  000cd	e8 00 00 00 00	 call	 memcpy
; File c:\users\alist_000\cppmisc\packages\visualcpptools.14.0.24629\lib\native\include\xstring

; 1638 : 		return (this->_BUF_SIZE <= _Myres);

  000d2	48 83 7b 18 10	 cmp	 QWORD PTR [rbx+24], 16

; 3510 : 		_Traits::assign(_My_data._Myptr()[_My_data._Mysize = _Newsize], _Elem());

  000d7	48 89 7b 10	 mov	 QWORD PTR [rbx+16], rdi

; 1624 : 		return (_Large_string_engaged()

  000db	72 05		 jb	 SHORT $LN128@append
; File c:\users\alist_000\cppmisc\packages\visualcpptools.14.0.24629\lib\native\include\xstddef

; 642  : 	return (_Ptr);

  000dd	48 8b 03	 mov	 rax, QWORD PTR [rbx]
; File c:\users\alist_000\cppmisc\packages\visualcpptools.14.0.24629\lib\native\include\xstring

; 1624 : 		return (_Large_string_engaged()

  000e0	eb 03		 jmp	 SHORT $LN129@append
$LN128@append:
  000e2	48 8b c3	 mov	 rax, rbx
$LN129@append:
; File c:\users\alist_000\cppmisc\packages\visualcpptools.14.0.24629\lib\native\include\iosfwd

; 516  : 		_Left = _Right;

  000e5	c6 04 38 00	 mov	 BYTE PTR [rax+rdi], 0
$LN135@append:
  000e9	48 8b 7c 24 30	 mov	 rdi, QWORD PTR [rsp+48]
; File c:\users\alist_000\cppmisc\packages\visualcpptools.14.0.24629\lib\native\include\xstring

; 2280 : 		return (*this);

  000ee	48 8b c3	 mov	 rax, rbx

; 2281 : 		}

  000f1	48 8b 5c 24 38	 mov	 rbx, QWORD PTR [rsp+56]
  000f6	48 8b 6c 24 40	 mov	 rbp, QWORD PTR [rsp+64]
  000fb	48 83 c4 20	 add	 rsp, 32			; 00000020H
  000ff	5e		 pop	 rsi
  00100	c3		 ret	 0
$LN140@append:

; 2270 : 			{
; 2271 : 			_Xlen();	// result too long

  00101	e8 00 00 00 00	 call	 ?_Xlen@?$basic_string@DU?$char_traits@D@std@@V?$allocator@D@2@@std@@SAXXZ ; std::basic_string<char,std::char_traits<char>,std::allocator<char> >::_Xlen
  00106	cc		 int	 3
$LN139@append:
?append@?$basic_string@DU?$char_traits@D@std@@V?$allocator@D@2@@std@@QEAAAEAV12@QEBD_K@Z ENDP ; std::basic_string<char,std::char_traits<char>,std::allocator<char> >::append
_TEXT	ENDS
; Function compile flags: /Ogtpy
; File c:\users\alist_000\cppmisc\packages\visualcpptools.14.0.24629\lib\native\include\xstring
; File c:\users\alist_000\cppmisc\packages\visualcpptools.14.0.24629\lib\native\include\utility
; File c:\users\alist_000\cppmisc\packages\visualcpptools.14.0.24629\lib\native\include\xstring
; File c:\users\alist_000\cppmisc\packages\visualcpptools.14.0.24629\lib\native\include\xstddef
; File c:\users\alist_000\cppmisc\packages\visualcpptools.14.0.24629\lib\native\include\iosfwd
; File c:\users\alist_000\cppmisc\packages\visualcpptools.14.0.24629\lib\native\include\xstring
; File c:\users\alist_000\cppmisc\packages\visualcpptools.14.0.24629\lib\native\include\iosfwd
; File c:\users\alist_000\cppmisc\packages\visualcpptools.14.0.24629\lib\native\include\xstring
; File c:\users\alist_000\cppmisc\packages\visualcpptools.14.0.24629\lib\native\include\xstddef
; File c:\users\alist_000\cppmisc\packages\visualcpptools.14.0.24629\lib\native\include\xstring
; File c:\users\alist_000\cppmisc\packages\visualcpptools.14.0.24629\lib\native\include\xstddef
; File c:\users\alist_000\cppmisc\packages\visualcpptools.14.0.24629\lib\native\include\xstring
; File c:\users\alist_000\cppmisc\packages\visualcpptools.14.0.24629\lib\native\include\iosfwd
; File c:\users\alist_000\cppmisc\packages\visualcpptools.14.0.24629\lib\native\include\xstring
; File c:\users\alist_000\cppmisc\packages\visualcpptools.14.0.24629\lib\native\include\xstddef
; File c:\users\alist_000\cppmisc\packages\visualcpptools.14.0.24629\lib\native\include\xstring
; File c:\users\alist_000\cppmisc\packages\visualcpptools.14.0.24629\lib\native\include\iosfwd
; File c:\users\alist_000\cppmisc\packages\visualcpptools.14.0.24629\lib\native\include\xstring
;	COMDAT ?append@?$basic_string@DU?$char_traits@D@std@@V?$allocator@D@2@@std@@QEAAAEAV12@AEBV12@_K_K@Z
_TEXT	SEGMENT
this$ = 48
_Right$ = 56
_Roff$ = 64
_Count$ = 72
?append@?$basic_string@DU?$char_traits@D@std@@V?$allocator@D@2@@std@@QEAAAEAV12@AEBV12@_K_K@Z PROC ; std::basic_string<char,std::char_traits<char>,std::allocator<char> >::append, COMDAT

; 2230 : 		{	// append _Right [_Roff, _Roff + _Count)

$LN151:
  00000	48 89 5c 24 10	 mov	 QWORD PTR [rsp+16], rbx
  00005	48 89 6c 24 18	 mov	 QWORD PTR [rsp+24], rbp
  0000a	48 89 74 24 20	 mov	 QWORD PTR [rsp+32], rsi
  0000f	41 56		 push	 r14
  00011	48 83 ec 20	 sub	 rsp, 32			; 00000020H

; 3572 : 		if (this->_Mysize() < _Off)

  00015	48 8b 42 10	 mov	 rax, QWORD PTR [rdx+16]

; 2230 : 		{	// append _Right [_Roff, _Roff + _Count)

  00019	49 8b f1	 mov	 rsi, r9
  0001c	49 8b e8	 mov	 rbp, r8
  0001f	4c 8b f2	 mov	 r14, rdx
  00022	48 8b d9	 mov	 rbx, rcx

; 3572 : 		if (this->_Mysize() < _Off)

  00025	49 3b c0	 cmp	 rax, r8
  00028	0f 82 ba 00 00
	00		 jb	 $LN148@append

; 2233 : 		if (npos - this->_Mysize() <= _Count)

  0002e	48 8b 49 10	 mov	 rcx, QWORD PTR [rcx+16]

; 3353 : 		return (_Min_value(_Size, this->_Mysize() - _Off));

  00032	49 2b c0	 sub	 rax, r8
; File c:\users\alist_000\cppmisc\packages\visualcpptools.14.0.24629\lib\native\include\utility

; 24   : 	return (_Right < _Left ? _Right : _Left);

  00035	49 3b c1	 cmp	 rax, r9
  00038	48 0f 42 f0	 cmovb	 rsi, rax
; File c:\users\alist_000\cppmisc\packages\visualcpptools.14.0.24629\lib\native\include\xstring

; 2233 : 		if (npos - this->_Mysize() <= _Count)

  0003c	48 8b c1	 mov	 rax, rcx
  0003f	48 f7 d0	 not	 rax
  00042	48 3b c6	 cmp	 rax, rsi
  00045	0f 86 a3 00 00
	00		 jbe	 $LN150@append

; 2236 : 			}
; 2237 : 
; 2238 : 		const size_type _Num = this->_Mysize() + _Count;

  0004b	48 89 7c 24 30	 mov	 QWORD PTR [rsp+48], rdi
  00050	48 8d 3c 31	 lea	 rdi, QWORD PTR [rcx+rsi]

; 2239 : 		if (_Count != 0 && _Grow(_Num))

  00054	48 85 f6	 test	 rsi, rsi
  00057	74 71		 je	 SHORT $LN144@append

; 3515 : 		if (_Newsize == 0)

  00059	48 85 ff	 test	 rdi, rdi
  0005c	75 1b		 jne	 SHORT $LN52@append

; 3510 : 		_Traits::assign(_My_data._Myptr()[_My_data._Mysize = _Newsize], _Elem());

  0005e	48 89 7b 10	 mov	 QWORD PTR [rbx+16], rdi

; 1638 : 		return (this->_BUF_SIZE <= _Myres);

  00062	48 83 7b 18 10	 cmp	 QWORD PTR [rbx+24], 16

; 1624 : 		return (_Large_string_engaged()

  00067	72 08		 jb	 SHORT $LN65@append
; File c:\users\alist_000\cppmisc\packages\visualcpptools.14.0.24629\lib\native\include\xstddef

; 642  : 	return (_Ptr);

  00069	48 8b 03	 mov	 rax, QWORD PTR [rbx]
; File c:\users\alist_000\cppmisc\packages\visualcpptools.14.0.24629\lib\native\include\iosfwd

; 516  : 		_Left = _Right;

  0006c	40 88 38	 mov	 BYTE PTR [rax], dil
; File c:\users\alist_000\cppmisc\packages\visualcpptools.14.0.24629\lib\native\include\xstring

; 3518 : 			return (false);

  0006f	eb 59		 jmp	 SHORT $LN144@append
$LN65@append:

; 1624 : 		return (_Large_string_engaged()

  00071	48 8b c3	 mov	 rax, rbx
; File c:\users\alist_000\cppmisc\packages\visualcpptools.14.0.24629\lib\native\include\iosfwd

; 516  : 		_Left = _Right;

  00074	c6 03 00	 mov	 BYTE PTR [rbx], 0
; File c:\users\alist_000\cppmisc\packages\visualcpptools.14.0.24629\lib\native\include\xstring

; 3518 : 			return (false);

  00077	eb 51		 jmp	 SHORT $LN144@append
$LN52@append:

; 3519 : 			}
; 3520 : 
; 3521 : 		if (this->_Myres() < _Newsize)

  00079	48 39 7b 18	 cmp	 QWORD PTR [rbx+24], rdi
  0007d	73 0b		 jae	 SHORT $LN53@append

; 3522 : 			{	// reallocate to grow
; 3523 : 			_Copy(_Newsize);

  0007f	48 8b d7	 mov	 rdx, rdi
  00082	48 8b cb	 mov	 rcx, rbx
  00085	e8 00 00 00 00	 call	 ?_Copy@?$basic_string@DU?$char_traits@D@std@@V?$allocator@D@2@@std@@QEAAX_K@Z ; std::basic_string<char,std::char_traits<char>,std::allocator<char> >::_Copy
$LN53@append:

; 1638 : 		return (this->_BUF_SIZE <= _Myres);

  0008a	49 83 7e 18 10	 cmp	 QWORD PTR [r14+24], 16

; 1631 : 		return (_Large_string_engaged()

  0008f	72 03		 jb	 SHORT $LN93@append
; File c:\users\alist_000\cppmisc\packages\visualcpptools.14.0.24629\lib\native\include\xstddef

; 642  : 	return (_Ptr);

  00091	4d 8b 36	 mov	 r14, QWORD PTR [r14]
$LN93@append:
; File c:\users\alist_000\cppmisc\packages\visualcpptools.14.0.24629\lib\native\include\xstring

; 1638 : 		return (this->_BUF_SIZE <= _Myres);

  00094	48 83 7b 18 10	 cmp	 QWORD PTR [rbx+24], 16

; 1624 : 		return (_Large_string_engaged()

  00099	72 05		 jb	 SHORT $LN109@append
; File c:\users\alist_000\cppmisc\packages\visualcpptools.14.0.24629\lib\native\include\xstddef

; 642  : 	return (_Ptr);

  0009b	48 8b 0b	 mov	 rcx, QWORD PTR [rbx]
; File c:\users\alist_000\cppmisc\packages\visualcpptools.14.0.24629\lib\native\include\xstring

; 1624 : 		return (_Large_string_engaged()

  0009e	eb 03		 jmp	 SHORT $LN110@append
$LN109@append:
  000a0	48 8b cb	 mov	 rcx, rbx
$LN110@append:

; 2240 : 			{	// make room and append new stuff
; 2241 : 			_Traits::copy(this->_Myptr() + this->_Mysize(), _Right._Myptr() + _Roff, _Count);

  000a3	48 03 4b 10	 add	 rcx, QWORD PTR [rbx+16]
  000a7	49 8d 14 2e	 lea	 rdx, QWORD PTR [r14+rbp]
; File c:\users\alist_000\cppmisc\packages\visualcpptools.14.0.24629\lib\native\include\iosfwd

; 485  : 		return ((_Elem *)_CSTD memcpy(_First1, _First2, _Count));

  000ab	4c 8b c6	 mov	 r8, rsi
  000ae	e8 00 00 00 00	 call	 memcpy
; File c:\users\alist_000\cppmisc\packages\visualcpptools.14.0.24629\lib\native\include\xstring

; 1638 : 		return (this->_BUF_SIZE <= _Myres);

  000b3	48 83 7b 18 10	 cmp	 QWORD PTR [rbx+24], 16

; 3510 : 		_Traits::assign(_My_data._Myptr()[_My_data._Mysize = _Newsize], _Elem());

  000b8	48 89 7b 10	 mov	 QWORD PTR [rbx+16], rdi

; 1624 : 		return (_Large_string_engaged()

  000bc	72 05		 jb	 SHORT $LN137@append
; File c:\users\alist_000\cppmisc\packages\visualcpptools.14.0.24629\lib\native\include\xstddef

; 642  : 	return (_Ptr);

  000be	48 8b 03	 mov	 rax, QWORD PTR [rbx]
; File c:\users\alist_000\cppmisc\packages\visualcpptools.14.0.24629\lib\native\include\xstring

; 1624 : 		return (_Large_string_engaged()

  000c1	eb 03		 jmp	 SHORT $LN138@append
$LN137@append:
  000c3	48 8b c3	 mov	 rax, rbx
$LN138@append:
; File c:\users\alist_000\cppmisc\packages\visualcpptools.14.0.24629\lib\native\include\iosfwd

; 516  : 		_Left = _Right;

  000c6	c6 04 38 00	 mov	 BYTE PTR [rax+rdi], 0
$LN144@append:
  000ca	48 8b 7c 24 30	 mov	 rdi, QWORD PTR [rsp+48]
; File c:\users\alist_000\cppmisc\packages\visualcpptools.14.0.24629\lib\native\include\xstring

; 2244 : 		return (*this);

  000cf	48 8b c3	 mov	 rax, rbx

; 2245 : 		}

  000d2	48 8b 5c 24 38	 mov	 rbx, QWORD PTR [rsp+56]
  000d7	48 8b 6c 24 40	 mov	 rbp, QWORD PTR [rsp+64]
  000dc	48 8b 74 24 48	 mov	 rsi, QWORD PTR [rsp+72]
  000e1	48 83 c4 20	 add	 rsp, 32			; 00000020H
  000e5	41 5e		 pop	 r14
  000e7	c3		 ret	 0
$LN148@append:

; 3573 : 			_Xran();

  000e8	e8 00 00 00 00	 call	 ?_Xran@?$basic_string@DU?$char_traits@D@std@@V?$allocator@D@2@@std@@SAXXZ ; std::basic_string<char,std::char_traits<char>,std::allocator<char> >::_Xran
  000ed	cc		 int	 3
$LN150@append:

; 2234 : 			{
; 2235 : 			_Xlen();	// result too long

  000ee	e8 00 00 00 00	 call	 ?_Xlen@?$basic_string@DU?$char_traits@D@std@@V?$allocator@D@2@@std@@SAXXZ ; std::basic_string<char,std::char_traits<char>,std::allocator<char> >::_Xlen
  000f3	cc		 int	 3
$LN147@append:
?append@?$basic_string@DU?$char_traits@D@std@@V?$allocator@D@2@@std@@QEAAAEAV12@AEBV12@_K_K@Z ENDP ; std::basic_string<char,std::char_traits<char>,std::allocator<char> >::append
_TEXT	ENDS
; Function compile flags: /Ogtpy
; File c:\users\alist_000\cppmisc\packages\visualcpptools.14.0.24629\lib\native\include\xstring
;	COMDAT ?_Assign_lv_contents@?$basic_string@DU?$char_traits@D@std@@V?$allocator@D@2@@std@@QEAAXAEBV12@@Z
_TEXT	SEGMENT
this$ = 8
_Right$ = 16
?_Assign_lv_contents@?$basic_string@DU?$char_traits@D@std@@V?$allocator@D@2@@std@@QEAAXAEBV12@@Z PROC ; std::basic_string<char,std::char_traits<char>,std::allocator<char> >::_Assign_lv_contents, COMDAT

; 2116 : 			// pre: *this is in a valid but unspecified state
; 2117 : 		assign(_Right, 0, npos);

  00000	49 83 c9 ff	 or	 r9, -1
  00004	45 33 c0	 xor	 r8d, r8d
  00007	e9 00 00 00 00	 jmp	 ?assign@?$basic_string@DU?$char_traits@D@std@@V?$allocator@D@2@@std@@QEAAAEAV12@AEBV12@_K_K@Z ; std::basic_string<char,std::char_traits<char>,std::allocator<char> >::assign
?_Assign_lv_contents@?$basic_string@DU?$char_traits@D@std@@V?$allocator@D@2@@std@@QEAAXAEBV12@@Z ENDP ; std::basic_string<char,std::char_traits<char>,std::allocator<char> >::_Assign_lv_contents
_TEXT	ENDS
; Function compile flags: /Ogtpy
; File c:\users\alist_000\cppmisc\packages\visualcpptools.14.0.24629\lib\native\include\xstring
; File c:\users\alist_000\cppmisc\packages\visualcpptools.14.0.24629\lib\native\include\xmemory0
; File c:\users\alist_000\cppmisc\packages\visualcpptools.14.0.24629\lib\native\include\xstring
; File c:\users\alist_000\cppmisc\packages\visualcpptools.14.0.24629\lib\native\include\iosfwd
; File c:\users\alist_000\cppmisc\packages\visualcpptools.14.0.24629\lib\native\include\xstring
; File c:\users\alist_000\cppmisc\packages\visualcpptools.14.0.24629\lib\native\include\iosfwd
; File c:\users\alist_000\cppmisc\packages\visualcpptools.14.0.24629\lib\native\include\xstring
;	COMDAT ?_Assign_rv_contents@?$basic_string@DU?$char_traits@D@std@@V?$allocator@D@2@@std@@QEAAX$$QEAV12@@Z
_TEXT	SEGMENT
this$ = 48
_Right$ = 56
?_Assign_rv_contents@?$basic_string@DU?$char_traits@D@std@@V?$allocator@D@2@@std@@QEAAX$$QEAV12@@Z PROC ; std::basic_string<char,std::char_traits<char>,std::allocator<char> >::_Assign_rv_contents, COMDAT

; 2096 : 		{	// assign by stealing _Right's buffer

$LN62:
  00000	48 89 5c 24 08	 mov	 QWORD PTR [rsp+8], rbx
  00005	57		 push	 rdi
  00006	48 83 ec 20	 sub	 rsp, 32			; 00000020H

; 1638 : 		return (this->_BUF_SIZE <= _Myres);

  0000a	48 83 7a 18 10	 cmp	 QWORD PTR [rdx+24], 16

; 2096 : 		{	// assign by stealing _Right's buffer

  0000f	48 8b da	 mov	 rbx, rdx
  00012	48 8b f9	 mov	 rdi, rcx

; 2097 : 			// pre: allocators between *this and _Right are compatible
; 2098 : 		auto& _My_data = this->_Get_data();
; 2099 : 		auto& _Right_data = _Right._Get_data();
; 2100 : 		if (_Right_data._Large_string_engaged())

  00015	72 14		 jb	 SHORT $LN2@Assign_rv_
; File c:\users\alist_000\cppmisc\packages\visualcpptools.14.0.24629\lib\native\include\xmemory0

; 833  : 		::new ((void *)_Ptr) _Objty(_STD forward<_Types>(_Args)...);

  00017	48 85 c9	 test	 rcx, rcx
  0001a	74 06		 je	 SHORT $LN40@Assign_rv_
  0001c	48 8b 02	 mov	 rax, QWORD PTR [rdx]
  0001f	48 89 01	 mov	 QWORD PTR [rcx], rax
$LN40@Assign_rv_:
; File c:\users\alist_000\cppmisc\packages\visualcpptools.14.0.24629\lib\native\include\xstring

; 2103 : 			_Right_data._Bx._Ptr = pointer();

  00022	48 c7 02 00 00
	00 00		 mov	 QWORD PTR [rdx], 0

; 2104 : 			}
; 2105 : 		else

  00029	eb 0c		 jmp	 SHORT $LN48@Assign_rv_
$LN2@Assign_rv_:

; 2106 : 			{	// copy small string buffer
; 2107 : 			_Traits::copy(_My_data._Bx._Buf, _Right_data._Bx._Buf, _Right_data._Mysize + 1);

  0002b	4c 8b 42 10	 mov	 r8, QWORD PTR [rdx+16]
  0002f	49 ff c0	 inc	 r8
; File c:\users\alist_000\cppmisc\packages\visualcpptools.14.0.24629\lib\native\include\iosfwd

; 485  : 		return ((_Elem *)_CSTD memcpy(_First1, _First2, _Count));

  00032	e8 00 00 00 00	 call	 memcpy
$LN48@Assign_rv_:
; File c:\users\alist_000\cppmisc\packages\visualcpptools.14.0.24629\lib\native\include\xstring

; 2109 : 		_My_data._Mysize = _Right_data._Mysize;

  00037	48 8b 43 10	 mov	 rax, QWORD PTR [rbx+16]
  0003b	48 89 47 10	 mov	 QWORD PTR [rdi+16], rax

; 2110 : 		_My_data._Myres = _Right_data._Myres;

  0003f	48 8b 43 18	 mov	 rax, QWORD PTR [rbx+24]
  00043	48 89 47 18	 mov	 QWORD PTR [rdi+24], rax

; 3539 : 		_My_data._Mysize = 0;

  00047	48 c7 43 10 00
	00 00 00	 mov	 QWORD PTR [rbx+16], 0

; 3540 : 		_My_data._Myres = this->_BUF_SIZE - 1;

  0004f	48 c7 43 18 0f
	00 00 00	 mov	 QWORD PTR [rbx+24], 15
; File c:\users\alist_000\cppmisc\packages\visualcpptools.14.0.24629\lib\native\include\iosfwd

; 516  : 		_Left = _Right;

  00057	c6 03 00	 mov	 BYTE PTR [rbx], 0
; File c:\users\alist_000\cppmisc\packages\visualcpptools.14.0.24629\lib\native\include\xstring

; 2112 : 		}

  0005a	48 8b 5c 24 30	 mov	 rbx, QWORD PTR [rsp+48]
  0005f	48 83 c4 20	 add	 rsp, 32			; 00000020H
  00063	5f		 pop	 rdi
  00064	c3		 ret	 0
?_Assign_rv_contents@?$basic_string@DU?$char_traits@D@std@@V?$allocator@D@2@@std@@QEAAX$$QEAV12@@Z ENDP ; std::basic_string<char,std::char_traits<char>,std::allocator<char> >::_Assign_rv_contents
_TEXT	ENDS
; Function compile flags: /Ogtpy
; File c:\users\alist_000\cppmisc\packages\visualcpptools.14.0.24629\lib\native\include\xutility
;	COMDAT ?_Get_second@?$_Compressed_pair@U?$_Wrap_alloc@V?$allocator@D@std@@@std@@V?$_Vector_val@U?$_Simple_types@D@std@@@2@$00@std@@QEAAAEAV?$_Vector_val@U?$_Simple_types@D@std@@@2@XZ
_TEXT	SEGMENT
this$ = 8
?_Get_second@?$_Compressed_pair@U?$_Wrap_alloc@V?$allocator@D@std@@@std@@V?$_Vector_val@U?$_Simple_types@D@std@@@2@$00@std@@QEAAAEAV?$_Vector_val@U?$_Simple_types@D@std@@@2@XZ PROC ; std::_Compressed_pair<std::_Wrap_alloc<std::allocator<char> >,std::_Vector_val<std::_Simple_types<char> >,1>::_Get_second, COMDAT

; 329  : 		return (_Myval2);

  00000	48 8b c1	 mov	 rax, rcx

; 330  : 		}

  00003	c3		 ret	 0
?_Get_second@?$_Compressed_pair@U?$_Wrap_alloc@V?$allocator@D@std@@@std@@V?$_Vector_val@U?$_Simple_types@D@std@@@2@$00@std@@QEAAAEAV?$_Vector_val@U?$_Simple_types@D@std@@@2@XZ ENDP ; std::_Compressed_pair<std::_Wrap_alloc<std::allocator<char> >,std::_Vector_val<std::_Simple_types<char> >,1>::_Get_second
_TEXT	ENDS
; Function compile flags: /Ogtpy
; File c:\users\alist_000\cppmisc\packages\visualcpptools.14.0.24629\lib\native\include\xutility
;	COMDAT ?_Get_first@?$_Compressed_pair@U?$_Wrap_alloc@V?$allocator@D@std@@@std@@V?$_Vector_val@U?$_Simple_types@D@std@@@2@$00@std@@QEAAAEAU?$_Wrap_alloc@V?$allocator@D@std@@@2@XZ
_TEXT	SEGMENT
this$ = 8
?_Get_first@?$_Compressed_pair@U?$_Wrap_alloc@V?$allocator@D@std@@@std@@V?$_Vector_val@U?$_Simple_types@D@std@@@2@$00@std@@QEAAAEAU?$_Wrap_alloc@V?$allocator@D@std@@@2@XZ PROC ; std::_Compressed_pair<std::_Wrap_alloc<std::allocator<char> >,std::_Vector_val<std::_Simple_types<char> >,1>::_Get_first, COMDAT

; 309  : 		return (*this);

  00000	48 8b c1	 mov	 rax, rcx

; 310  : 		}

  00003	c3		 ret	 0
?_Get_first@?$_Compressed_pair@U?$_Wrap_alloc@V?$allocator@D@std@@@std@@V?$_Vector_val@U?$_Simple_types@D@std@@@2@$00@std@@QEAAAEAU?$_Wrap_alloc@V?$allocator@D@std@@@2@XZ ENDP ; std::_Compressed_pair<std::_Wrap_alloc<std::allocator<char> >,std::_Vector_val<std::_Simple_types<char> >,1>::_Get_first
_TEXT	ENDS
; Function compile flags: /Ogtpy
; File c:\users\alist_000\cppmisc\packages\visualcpptools.14.0.24629\lib\native\include\vector
;	COMDAT ?_Compat@?$_Vector_const_iterator@V?$_Vector_val@U?$_Simple_types@D@std@@@std@@@std@@QEBAXAEBV12@@Z
_TEXT	SEGMENT
this$dead$ = 8
__formal$dead$ = 16
?_Compat@?$_Vector_const_iterator@V?$_Vector_val@U?$_Simple_types@D@std@@@std@@@std@@QEBAXAEBV12@@Z PROC ; std::_Vector_const_iterator<std::_Vector_val<std::_Simple_types<char> > >::_Compat, COMDAT

; 255  : 		}

  00000	c2 00 00	 ret	 0
?_Compat@?$_Vector_const_iterator@V?$_Vector_val@U?$_Simple_types@D@std@@@std@@@std@@QEBAXAEBV12@@Z ENDP ; std::_Vector_const_iterator<std::_Vector_val<std::_Simple_types<char> > >::_Compat
_TEXT	ENDS
; Function compile flags: /Ogtpy
; File c:\users\alist_000\cppmisc\packages\visualcpptools.14.0.24629\lib\native\include\vector
;	COMDAT ??0?$_Vector_const_iterator@V?$_Vector_val@U?$_Simple_types@D@std@@@std@@@std@@QEAA@PEADPEBU_Container_base0@1@@Z
_TEXT	SEGMENT
this$ = 8
_Parg$ = 16
_Pvector$dead$ = 24
??0?$_Vector_const_iterator@V?$_Vector_val@U?$_Simple_types@D@std@@@std@@@std@@QEAA@PEADPEBU_Container_base0@1@@Z PROC ; std::_Vector_const_iterator<std::_Vector_val<std::_Simple_types<char> > >::_Vector_const_iterator<std::_Vector_val<std::_Simple_types<char> > >, COMDAT

; 44   : 		: _Ptr(_Parg)

  00000	48 89 11	 mov	 QWORD PTR [rcx], rdx

; 46   : 		this->_Adopt(_Pvector);
; 47   : 		}

  00003	48 8b c1	 mov	 rax, rcx
  00006	c3		 ret	 0
??0?$_Vector_const_iterator@V?$_Vector_val@U?$_Simple_types@D@std@@@std@@@std@@QEAA@PEADPEBU_Container_base0@1@@Z ENDP ; std::_Vector_const_iterator<std::_Vector_val<std::_Simple_types<char> > >::_Vector_const_iterator<std::_Vector_val<std::_Simple_types<char> > >
_TEXT	ENDS
; Function compile flags: /Ogtpy
; File c:\users\alist_000\cppmisc\packages\visualcpptools.14.0.24629\lib\native\include\vector
;	COMDAT ?_Myend@?$_Vector_alloc@U?$_Vec_base_types@DV?$allocator@D@std@@@std@@@std@@QEAAAEAPEADXZ
_TEXT	SEGMENT
this$ = 8
?_Myend@?$_Vector_alloc@U?$_Vec_base_types@DV?$allocator@D@std@@@std@@@std@@QEAAAEAPEADXZ PROC ; std::_Vector_alloc<std::_Vec_base_types<char,std::allocator<char> > >::_Myend, COMDAT

; 673  : 		return (_Get_data()._Myend);

  00000	48 8d 41 10	 lea	 rax, QWORD PTR [rcx+16]

; 674  : 		}

  00004	c3		 ret	 0
?_Myend@?$_Vector_alloc@U?$_Vec_base_types@DV?$allocator@D@std@@@std@@@std@@QEAAAEAPEADXZ ENDP ; std::_Vector_alloc<std::_Vec_base_types<char,std::allocator<char> > >::_Myend
_TEXT	ENDS
; Function compile flags: /Ogtpy
; File c:\users\alist_000\cppmisc\packages\visualcpptools.14.0.24629\lib\native\include\vector
;	COMDAT ?_Get_data@?$_Vector_alloc@U?$_Vec_base_types@DV?$allocator@D@std@@@std@@@std@@QEBAAEBV?$_Vector_val@U?$_Simple_types@D@std@@@2@XZ
_TEXT	SEGMENT
this$ = 8
?_Get_data@?$_Vector_alloc@U?$_Vec_base_types@DV?$allocator@D@std@@@std@@@std@@QEBAAEBV?$_Vector_val@U?$_Simple_types@D@std@@@2@XZ PROC ; std::_Vector_alloc<std::_Vec_base_types<char,std::allocator<char> > >::_Get_data, COMDAT

; 648  : 		return (_Mypair._Get_second());

  00000	48 8b c1	 mov	 rax, rcx

; 649  : 		}

  00003	c3		 ret	 0
?_Get_data@?$_Vector_alloc@U?$_Vec_base_types@DV?$allocator@D@std@@@std@@@std@@QEBAAEBV?$_Vector_val@U?$_Simple_types@D@std@@@2@XZ ENDP ; std::_Vector_alloc<std::_Vec_base_types<char,std::allocator<char> > >::_Get_data
_TEXT	ENDS
; Function compile flags: /Ogtpy
; File c:\users\alist_000\cppmisc\packages\visualcpptools.14.0.24629\lib\native\include\vector
;	COMDAT ?_Swap_all@?$_Vector_alloc@U?$_Vec_base_types@DV?$allocator@D@std@@@std@@@std@@QEAAXAEAV12@@Z
_TEXT	SEGMENT
this$dead$ = 8
_Right$dead$ = 16
?_Swap_all@?$_Vector_alloc@U?$_Vec_base_types@DV?$allocator@D@std@@@std@@@std@@QEAAXAEAV12@@Z PROC ; std::_Vector_alloc<std::_Vec_base_types<char,std::allocator<char> > >::_Swap_all, COMDAT

; 628  : 		_Get_data()._Swap_all(_Right._Get_data());
; 629  : 		}

  00000	c2 00 00	 ret	 0
?_Swap_all@?$_Vector_alloc@U?$_Vec_base_types@DV?$allocator@D@std@@@std@@@std@@QEAAXAEAV12@@Z ENDP ; std::_Vector_alloc<std::_Vec_base_types<char,std::allocator<char> > >::_Swap_all
_TEXT	ENDS
; Function compile flags: /Ogtpy
; File c:\users\alist_000\cppmisc\packages\visualcpptools.14.0.24629\lib\native\include\vector
;	COMDAT ?_Orphan_all@?$_Vector_alloc@U?$_Vec_base_types@DV?$allocator@D@std@@@std@@@std@@QEAAXXZ
_TEXT	SEGMENT
this$dead$ = 8
?_Orphan_all@?$_Vector_alloc@U?$_Vec_base_types@DV?$allocator@D@std@@@std@@@std@@QEAAXXZ PROC ; std::_Vector_alloc<std::_Vec_base_types<char,std::allocator<char> > >::_Orphan_all, COMDAT

; 623  : 		_Get_data()._Orphan_all();
; 624  : 		}

  00000	c2 00 00	 ret	 0
?_Orphan_all@?$_Vector_alloc@U?$_Vec_base_types@DV?$allocator@D@std@@@std@@@std@@QEAAXXZ ENDP ; std::_Vector_alloc<std::_Vec_base_types<char,std::allocator<char> > >::_Orphan_all
_TEXT	ENDS
; Function compile flags: /Ogtpy
; File c:\users\alist_000\cppmisc\packages\visualcpptools.14.0.24629\lib\native\include\vector
;	COMDAT ?_Destroy@?$vector@DV?$allocator@D@std@@@std@@AEAAXPEAD0@Z
_TEXT	SEGMENT
this$dead$ = 8
_First$dead$ = 16
_Last$dead$ = 24
?_Destroy@?$vector@DV?$allocator@D@std@@@std@@AEAAXPEAD0@Z PROC ; std::vector<char,std::allocator<char> >::_Destroy, COMDAT

; 1859 : 		_Destroy_range(_First, _Last, this->_Getal());
; 1860 : 		}

  00000	c2 00 00	 ret	 0
?_Destroy@?$vector@DV?$allocator@D@std@@@std@@AEAAXPEAD0@Z ENDP ; std::vector<char,std::allocator<char> >::_Destroy
_TEXT	ENDS
; Function compile flags: /Ogtpy
; File c:\users\alist_000\cppmisc\packages\visualcpptools.14.0.24629\lib\native\include\xutility
;	COMDAT ?_Get_first@?$_Compressed_pair@U?$_Wrap_alloc@V?$allocator@D@std@@@std@@V?$_String_val@U?$_Simple_types@D@std@@@2@$00@std@@QEBAAEBU?$_Wrap_alloc@V?$allocator@D@std@@@2@XZ
_TEXT	SEGMENT
this$ = 8
?_Get_first@?$_Compressed_pair@U?$_Wrap_alloc@V?$allocator@D@std@@@std@@V?$_String_val@U?$_Simple_types@D@std@@@2@$00@std@@QEBAAEBU?$_Wrap_alloc@V?$allocator@D@std@@@2@XZ PROC ; std::_Compressed_pair<std::_Wrap_alloc<std::allocator<char> >,std::_String_val<std::_Simple_types<char> >,1>::_Get_first, COMDAT

; 314  : 		return (*this);

  00000	48 8b c1	 mov	 rax, rcx

; 315  : 		}

  00003	c3		 ret	 0
?_Get_first@?$_Compressed_pair@U?$_Wrap_alloc@V?$allocator@D@std@@@std@@V?$_String_val@U?$_Simple_types@D@std@@@2@$00@std@@QEBAAEBU?$_Wrap_alloc@V?$allocator@D@std@@@2@XZ ENDP ; std::_Compressed_pair<std::_Wrap_alloc<std::allocator<char> >,std::_String_val<std::_Simple_types<char> >,1>::_Get_first
_TEXT	ENDS
; Function compile flags: /Ogtpy
; File c:\users\alist_000\cppmisc\packages\visualcpptools.14.0.24629\lib\native\include\xutility
;	COMDAT ?_Get_first@?$_Compressed_pair@U?$_Wrap_alloc@V?$allocator@D@std@@@std@@V?$_String_val@U?$_Simple_types@D@std@@@2@$00@std@@QEAAAEAU?$_Wrap_alloc@V?$allocator@D@std@@@2@XZ
_TEXT	SEGMENT
this$ = 8
?_Get_first@?$_Compressed_pair@U?$_Wrap_alloc@V?$allocator@D@std@@@std@@V?$_String_val@U?$_Simple_types@D@std@@@2@$00@std@@QEAAAEAU?$_Wrap_alloc@V?$allocator@D@std@@@2@XZ PROC ; std::_Compressed_pair<std::_Wrap_alloc<std::allocator<char> >,std::_String_val<std::_Simple_types<char> >,1>::_Get_first, COMDAT

; 309  : 		return (*this);

  00000	48 8b c1	 mov	 rax, rcx

; 310  : 		}

  00003	c3		 ret	 0
?_Get_first@?$_Compressed_pair@U?$_Wrap_alloc@V?$allocator@D@std@@@std@@V?$_String_val@U?$_Simple_types@D@std@@@2@$00@std@@QEAAAEAU?$_Wrap_alloc@V?$allocator@D@std@@@2@XZ ENDP ; std::_Compressed_pair<std::_Wrap_alloc<std::allocator<char> >,std::_String_val<std::_Simple_types<char> >,1>::_Get_first
_TEXT	ENDS
; Function compile flags: /Ogtpy
; File c:\users\alist_000\cppmisc\packages\visualcpptools.14.0.24629\lib\native\include\xstring
;	COMDAT ?_Large_string_engaged@?$_String_val@U?$_Simple_types@D@std@@@std@@QEBA_NXZ
_TEXT	SEGMENT
this$ = 8
?_Large_string_engaged@?$_String_val@U?$_Simple_types@D@std@@@std@@QEBA_NXZ PROC ; std::_String_val<std::_Simple_types<char> >::_Large_string_engaged, COMDAT

; 1637 : 		{	// returns whether the large string mode (allocated memory) is engaged

  00000	48 83 79 18 10	 cmp	 QWORD PTR [rcx+24], 16
  00005	0f 93 c0	 setae	 al

; 1638 : 		return (this->_BUF_SIZE <= _Myres);
; 1639 : 		}

  00008	c3		 ret	 0
?_Large_string_engaged@?$_String_val@U?$_Simple_types@D@std@@@std@@QEBA_NXZ ENDP ; std::_String_val<std::_Simple_types<char> >::_Large_string_engaged
_TEXT	ENDS
; Function compile flags: /Ogtpy
; File c:\users\alist_000\cppmisc\packages\visualcpptools.14.0.24629\lib\native\include\xstring
;	COMDAT ?_Myptr@?$_String_val@U?$_Simple_types@D@std@@@std@@QEBAPEBDXZ
_TEXT	SEGMENT
this$ = 8
?_Myptr@?$_String_val@U?$_Simple_types@D@std@@@std@@QEBAPEBDXZ PROC ; std::_String_val<std::_Simple_types<char> >::_Myptr, COMDAT

; 1638 : 		return (this->_BUF_SIZE <= _Myres);

  00000	48 83 79 18 10	 cmp	 QWORD PTR [rcx+24], 16

; 1631 : 		return (_Large_string_engaged()

  00005	72 04		 jb	 SHORT $LN3@Myptr
  00007	48 8b 01	 mov	 rax, QWORD PTR [rcx]

; 1632 : 			? _Unfancy(_Bx._Ptr)
; 1633 : 			: _Bx._Buf);
; 1634 : 		}

  0000a	c3		 ret	 0
$LN3@Myptr:

; 1631 : 		return (_Large_string_engaged()

  0000b	48 8b c1	 mov	 rax, rcx

; 1632 : 			? _Unfancy(_Bx._Ptr)
; 1633 : 			: _Bx._Buf);
; 1634 : 		}

  0000e	c3		 ret	 0
?_Myptr@?$_String_val@U?$_Simple_types@D@std@@@std@@QEBAPEBDXZ ENDP ; std::_String_val<std::_Simple_types<char> >::_Myptr
_TEXT	ENDS
; Function compile flags: /Ogtpy
; File c:\users\alist_000\cppmisc\packages\visualcpptools.14.0.24629\lib\native\include\xstring
;	COMDAT ?_Myptr@?$_String_val@U?$_Simple_types@D@std@@@std@@QEAAPEADXZ
_TEXT	SEGMENT
this$ = 8
?_Myptr@?$_String_val@U?$_Simple_types@D@std@@@std@@QEAAPEADXZ PROC ; std::_String_val<std::_Simple_types<char> >::_Myptr, COMDAT

; 1638 : 		return (this->_BUF_SIZE <= _Myres);

  00000	48 83 79 18 10	 cmp	 QWORD PTR [rcx+24], 16

; 1624 : 		return (_Large_string_engaged()

  00005	72 04		 jb	 SHORT $LN3@Myptr
  00007	48 8b 01	 mov	 rax, QWORD PTR [rcx]

; 1625 : 			? _Unfancy(_Bx._Ptr)
; 1626 : 			: _Bx._Buf);
; 1627 : 		}

  0000a	c3		 ret	 0
$LN3@Myptr:

; 1624 : 		return (_Large_string_engaged()

  0000b	48 8b c1	 mov	 rax, rcx

; 1625 : 			? _Unfancy(_Bx._Ptr)
; 1626 : 			: _Bx._Buf);
; 1627 : 		}

  0000e	c3		 ret	 0
?_Myptr@?$_String_val@U?$_Simple_types@D@std@@@std@@QEAAPEADXZ ENDP ; std::_String_val<std::_Simple_types<char> >::_Myptr
_TEXT	ENDS
; Function compile flags: /Ogtpy
; File c:\users\alist_000\cppmisc\packages\visualcpptools.14.0.24629\lib\native\include\xmemory0
;	COMDAT ?select_on_container_copy_construction@?$allocator_traits@V?$allocator@D@std@@@std@@SA?AV?$allocator@D@2@AEBV32@@Z
_TEXT	SEGMENT
__$ReturnUdt$ = 8
_Al$ = 16
?select_on_container_copy_construction@?$allocator_traits@V?$allocator@D@std@@@std@@SA?AV?$allocator@D@2@AEBV32@@Z PROC ; std::allocator_traits<std::allocator<char> >::select_on_container_copy_construction, COMDAT

; 969  : 		return (_Al);

  00000	48 8b c1	 mov	 rax, rcx

; 970  : 		}

  00003	c3		 ret	 0
?select_on_container_copy_construction@?$allocator_traits@V?$allocator@D@std@@@std@@SA?AV?$allocator@D@2@AEBV32@@Z ENDP ; std::allocator_traits<std::allocator<char> >::select_on_container_copy_construction
_TEXT	ENDS
; Function compile flags: /Ogtpy
; File c:\users\alist_000\cppmisc\packages\visualcpptools.14.0.24629\lib\native\include\xmemory0
;	COMDAT ?deallocate@?$_Wrap_alloc@V?$allocator@D@std@@@std@@QEAAXPEAD_K@Z
_TEXT	SEGMENT
this$ = 48
_Ptr$ = 56
_Count$ = 64
?deallocate@?$_Wrap_alloc@V?$allocator@D@std@@@std@@QEAAXPEAD_K@Z PROC ; std::_Wrap_alloc<std::allocator<char> >::deallocate, COMDAT

; 1080 : 		{	// deallocate object at _Ptr, ignore size

$LN21:
  00000	48 83 ec 28	 sub	 rsp, 40			; 00000028H

; 98   : 	if (_BIG_ALLOCATION_THRESHOLD <= _User_size)

  00004	49 81 f8 00 10
	00 00		 cmp	 r8, 4096		; 00001000H
  0000b	72 20		 jb	 SHORT $LN7@deallocate

; 99   : 		{	// deallocate large block
; 100  : 		const uintptr_t _Ptr_user = reinterpret_cast<uintptr_t>(_Ptr);
; 101  : 		_SCL_SECURE_ALWAYS_VALIDATE(

  0000d	f6 c2 1f	 test	 dl, 31
  00010	75 27		 jne	 SHORT $LN16@deallocate

; 102  : 			(_Ptr_user & (_BIG_ALLOCATION_ALIGNMENT - 1)) == 0);
; 103  : 		const uintptr_t _Ptr_ptr = _Ptr_user - sizeof(void *);
; 104  : 		const uintptr_t _Ptr_container =
; 105  : 			*reinterpret_cast<uintptr_t *>(_Ptr_ptr);

  00012	48 8b 42 f8	 mov	 rax, QWORD PTR [rdx-8]

; 106  : 
; 107  :  #ifdef _DEBUG
; 108  : 		// If the following asserts, it likely means that we are performing
; 109  : 		// an aligned delete on memory coming from an unaligned allocation.
; 110  : 		_SCL_SECURE_ALWAYS_VALIDATE(
; 111  : 			reinterpret_cast<uintptr_t *>(_Ptr_ptr)[-1] ==
; 112  : 				_BIG_ALLOCATION_SENTINEL);
; 113  :  #endif /* _DEBUG */
; 114  : 
; 115  : 		// Extra paranoia on aligned allocation/deallocation
; 116  : 		_SCL_SECURE_ALWAYS_VALIDATE(_Ptr_container < _Ptr_user);

  00016	48 3b c2	 cmp	 rax, rdx
  00019	73 24		 jae	 SHORT $LN18@deallocate

; 117  : 
; 118  :  #ifdef _DEBUG
; 119  : 		_SCL_SECURE_ALWAYS_VALIDATE(2 * sizeof(void *)
; 120  : 			<= _Ptr_user - _Ptr_container);
; 121  : 
; 122  :  #else /* _DEBUG */
; 123  : 		_SCL_SECURE_ALWAYS_VALIDATE(sizeof(void *)

  0001b	48 2b d0	 sub	 rdx, rax
  0001e	48 83 fa 08	 cmp	 rdx, 8
  00022	72 21		 jb	 SHORT $LN19@deallocate

; 124  : 			<= _Ptr_user - _Ptr_container);
; 125  :  #endif /* _DEBUG */
; 126  : 
; 127  : 		_SCL_SECURE_ALWAYS_VALIDATE(_Ptr_user - _Ptr_container

  00024	48 83 fa 27	 cmp	 rdx, 39			; 00000027H
  00028	77 21		 ja	 SHORT $LN20@deallocate

; 128  : 			<= _NON_USER_SIZE);
; 129  : 
; 130  : 		_Ptr = reinterpret_cast<void *>(_Ptr_container);

  0002a	48 8b d0	 mov	 rdx, rax
$LN7@deallocate:

; 131  : 		}
; 132  :  #endif /* defined(_M_IX86) || defined(_M_X64) */
; 133  : 
; 134  : 	::operator delete(_Ptr);

  0002d	48 8b ca	 mov	 rcx, rdx

; 1081 : 		_Mybase::deallocate(_Ptr, _Count);
; 1082 : 		}

  00030	48 83 c4 28	 add	 rsp, 40			; 00000028H

; 134  : 	::operator delete(_Ptr);

  00034	e9 00 00 00 00	 jmp	 ??3@YAXPEAX@Z		; operator delete
$LN16@deallocate:

; 99   : 		{	// deallocate large block
; 100  : 		const uintptr_t _Ptr_user = reinterpret_cast<uintptr_t>(_Ptr);
; 101  : 		_SCL_SECURE_ALWAYS_VALIDATE(

  00039	e8 00 00 00 00	 call	 _invalid_parameter_noinfo_noreturn
  0003e	cc		 int	 3
$LN18@deallocate:

; 106  : 
; 107  :  #ifdef _DEBUG
; 108  : 		// If the following asserts, it likely means that we are performing
; 109  : 		// an aligned delete on memory coming from an unaligned allocation.
; 110  : 		_SCL_SECURE_ALWAYS_VALIDATE(
; 111  : 			reinterpret_cast<uintptr_t *>(_Ptr_ptr)[-1] ==
; 112  : 				_BIG_ALLOCATION_SENTINEL);
; 113  :  #endif /* _DEBUG */
; 114  : 
; 115  : 		// Extra paranoia on aligned allocation/deallocation
; 116  : 		_SCL_SECURE_ALWAYS_VALIDATE(_Ptr_container < _Ptr_user);

  0003f	e8 00 00 00 00	 call	 _invalid_parameter_noinfo_noreturn
  00044	cc		 int	 3
$LN19@deallocate:

; 117  : 
; 118  :  #ifdef _DEBUG
; 119  : 		_SCL_SECURE_ALWAYS_VALIDATE(2 * sizeof(void *)
; 120  : 			<= _Ptr_user - _Ptr_container);
; 121  : 
; 122  :  #else /* _DEBUG */
; 123  : 		_SCL_SECURE_ALWAYS_VALIDATE(sizeof(void *)

  00045	e8 00 00 00 00	 call	 _invalid_parameter_noinfo_noreturn
  0004a	cc		 int	 3
$LN20@deallocate:

; 124  : 			<= _Ptr_user - _Ptr_container);
; 125  :  #endif /* _DEBUG */
; 126  : 
; 127  : 		_SCL_SECURE_ALWAYS_VALIDATE(_Ptr_user - _Ptr_container

  0004b	e8 00 00 00 00	 call	 _invalid_parameter_noinfo_noreturn
  00050	cc		 int	 3
$LN15@deallocate:
?deallocate@?$_Wrap_alloc@V?$allocator@D@std@@@std@@QEAAXPEAD_K@Z ENDP ; std::_Wrap_alloc<std::allocator<char> >::deallocate
_TEXT	ENDS
; Function compile flags: /Ogtpy
; File c:\users\alist_000\cppmisc\packages\visualcpptools.14.0.24629\lib\native\include\xstring
;	COMDAT ?_Myres@?$_String_alloc@U?$_String_base_types@DV?$allocator@D@std@@@std@@@std@@QEAAAEA_KXZ
_TEXT	SEGMENT
this$ = 8
?_Myres@?$_String_alloc@U?$_String_base_types@DV?$allocator@D@std@@@std@@@std@@QEAAAEA_KXZ PROC ; std::_String_alloc<std::_String_base_types<char,std::allocator<char> > >::_Myres, COMDAT

; 1859 : 		return (_Get_data()._Myres);

  00000	48 8d 41 18	 lea	 rax, QWORD PTR [rcx+24]

; 1860 : 		}

  00004	c3		 ret	 0
?_Myres@?$_String_alloc@U?$_String_base_types@DV?$allocator@D@std@@@std@@@std@@QEAAAEA_KXZ ENDP ; std::_String_alloc<std::_String_base_types<char,std::allocator<char> > >::_Myres
_TEXT	ENDS
; Function compile flags: /Ogtpy
; File c:\users\alist_000\cppmisc\packages\visualcpptools.14.0.24629\lib\native\include\xstring
;	COMDAT ?_Mysize@?$_String_alloc@U?$_String_base_types@DV?$allocator@D@std@@@std@@@std@@QEAAAEA_KXZ
_TEXT	SEGMENT
this$ = 8
?_Mysize@?$_String_alloc@U?$_String_base_types@DV?$allocator@D@std@@@std@@@std@@QEAAAEA_KXZ PROC ; std::_String_alloc<std::_String_base_types<char,std::allocator<char> > >::_Mysize, COMDAT

; 1849 : 		return (_Get_data()._Mysize);

  00000	48 8d 41 10	 lea	 rax, QWORD PTR [rcx+16]

; 1850 : 		}

  00004	c3		 ret	 0
?_Mysize@?$_String_alloc@U?$_String_base_types@DV?$allocator@D@std@@@std@@@std@@QEAAAEA_KXZ ENDP ; std::_String_alloc<std::_String_base_types<char,std::allocator<char> > >::_Mysize
_TEXT	ENDS
; Function compile flags: /Ogtpy
; File c:\users\alist_000\cppmisc\packages\visualcpptools.14.0.24629\lib\native\include\xstring
;	COMDAT ?_Get_data@?$_String_alloc@U?$_String_base_types@DV?$allocator@D@std@@@std@@@std@@QEBAAEBV?$_String_val@U?$_Simple_types@D@std@@@2@XZ
_TEXT	SEGMENT
this$ = 8
?_Get_data@?$_String_alloc@U?$_String_base_types@DV?$allocator@D@std@@@std@@@std@@QEBAAEBV?$_String_val@U?$_Simple_types@D@std@@@2@XZ PROC ; std::_String_alloc<std::_String_base_types<char,std::allocator<char> > >::_Get_data, COMDAT

; 1842 : 		return (_Mypair._Get_second());

  00000	48 8b c1	 mov	 rax, rcx

; 1843 : 		}

  00003	c3		 ret	 0
?_Get_data@?$_String_alloc@U?$_String_base_types@DV?$allocator@D@std@@@std@@@std@@QEBAAEBV?$_String_val@U?$_Simple_types@D@std@@@2@XZ ENDP ; std::_String_alloc<std::_String_base_types<char,std::allocator<char> > >::_Get_data
_TEXT	ENDS
; Function compile flags: /Ogtpy
; File c:\users\alist_000\cppmisc\packages\visualcpptools.14.0.24629\lib\native\include\xstring
;	COMDAT ?_Get_data@?$_String_alloc@U?$_String_base_types@DV?$allocator@D@std@@@std@@@std@@QEAAAEAV?$_String_val@U?$_Simple_types@D@std@@@2@XZ
_TEXT	SEGMENT
this$ = 8
?_Get_data@?$_String_alloc@U?$_String_base_types@DV?$allocator@D@std@@@std@@@std@@QEAAAEAV?$_String_val@U?$_Simple_types@D@std@@@2@XZ PROC ; std::_String_alloc<std::_String_base_types<char,std::allocator<char> > >::_Get_data, COMDAT

; 1837 : 		return (_Mypair._Get_second());

  00000	48 8b c1	 mov	 rax, rcx

; 1838 : 		}

  00003	c3		 ret	 0
?_Get_data@?$_String_alloc@U?$_String_base_types@DV?$allocator@D@std@@@std@@@std@@QEAAAEAV?$_String_val@U?$_Simple_types@D@std@@@2@XZ ENDP ; std::_String_alloc<std::_String_base_types<char,std::allocator<char> > >::_Get_data
_TEXT	ENDS
; Function compile flags: /Ogtpy
; File c:\users\alist_000\cppmisc\packages\visualcpptools.14.0.24629\lib\native\include\xstring
;	COMDAT ?_Check_offset@?$basic_string@DU?$char_traits@D@std@@V?$allocator@D@2@@std@@QEBAX_K@Z
_TEXT	SEGMENT
this$ = 48
_Off$ = 56
?_Check_offset@?$basic_string@DU?$char_traits@D@std@@V?$allocator@D@2@@std@@QEBAX_K@Z PROC ; std::basic_string<char,std::char_traits<char>,std::allocator<char> >::_Check_offset, COMDAT

; 3571 : 		{	// checks whether _Off is in the bounds of [0, this->size()]

$LN16:
  00000	48 83 ec 28	 sub	 rsp, 40			; 00000028H

; 3572 : 		if (this->_Mysize() < _Off)

  00004	48 39 51 10	 cmp	 QWORD PTR [rcx+16], rdx
  00008	72 05		 jb	 SHORT $LN14@Check_offs

; 3574 : 		}

  0000a	48 83 c4 28	 add	 rsp, 40			; 00000028H
  0000e	c3		 ret	 0
$LN14@Check_offs:

; 3573 : 			_Xran();

  0000f	e8 00 00 00 00	 call	 ?_Xran@?$basic_string@DU?$char_traits@D@std@@V?$allocator@D@2@@std@@SAXXZ ; std::basic_string<char,std::char_traits<char>,std::allocator<char> >::_Xran
  00014	cc		 int	 3
$LN13@Check_offs:
?_Check_offset@?$basic_string@DU?$char_traits@D@std@@V?$allocator@D@2@@std@@QEBAX_K@Z ENDP ; std::basic_string<char,std::char_traits<char>,std::allocator<char> >::_Check_offset
_TEXT	ENDS
; Function compile flags: /Ogtpy
; File c:\users\alist_000\cppmisc\packages\visualcpptools.14.0.24629\lib\native\include\xstring
;	COMDAT ?_Xlen@?$basic_string@DU?$char_traits@D@std@@V?$allocator@D@2@@std@@SAXXZ
_TEXT	SEGMENT
?_Xlen@?$basic_string@DU?$char_traits@D@std@@V?$allocator@D@2@@std@@SAXXZ PROC ; std::basic_string<char,std::char_traits<char>,std::allocator<char> >::_Xlen, COMDAT

; 3566 : 		{	// report a length_error

$LN4:
  00000	48 83 ec 28	 sub	 rsp, 40			; 00000028H

; 3567 : 		_Xlength_error("string too long");

  00004	48 8d 0d 00 00
	00 00		 lea	 rcx, OFFSET FLAT:??_C@_0BA@JFNIOLAK@string?5too?5long?$AA@
  0000b	e8 00 00 00 00	 call	 ?_Xlength_error@std@@YAXPEBD@Z ; std::_Xlength_error
  00010	cc		 int	 3
$LN3@Xlen:
?_Xlen@?$basic_string@DU?$char_traits@D@std@@V?$allocator@D@2@@std@@SAXXZ ENDP ; std::basic_string<char,std::char_traits<char>,std::allocator<char> >::_Xlen
_TEXT	ENDS
; Function compile flags: /Ogtpy
; File c:\users\alist_000\cppmisc\packages\visualcpptools.14.0.24629\lib\native\include\xstring
; File c:\users\alist_000\cppmisc\packages\visualcpptools.14.0.24629\lib\native\include\xstddef
; File c:\users\alist_000\cppmisc\packages\visualcpptools.14.0.24629\lib\native\include\xstring
;	COMDAT ?_Inside@?$basic_string@DU?$char_traits@D@std@@V?$allocator@D@2@@std@@QEBA_NQEBD@Z
_TEXT	SEGMENT
this$ = 8
_Ptr$ = 16
?_Inside@?$basic_string@DU?$char_traits@D@std@@V?$allocator@D@2@@std@@QEBA_NQEBD@Z PROC ; std::basic_string<char,std::char_traits<char>,std::allocator<char> >::_Inside, COMDAT

; 1638 : 		return (this->_BUF_SIZE <= _Myres);

  00000	48 83 79 18 10	 cmp	 QWORD PTR [rcx+24], 16

; 1631 : 		return (_Large_string_engaged()

  00005	72 05		 jb	 SHORT $LN13@Inside
; File c:\users\alist_000\cppmisc\packages\visualcpptools.14.0.24629\lib\native\include\xstddef

; 642  : 	return (_Ptr);

  00007	4c 8b 01	 mov	 r8, QWORD PTR [rcx]
; File c:\users\alist_000\cppmisc\packages\visualcpptools.14.0.24629\lib\native\include\xstring

; 1631 : 		return (_Large_string_engaged()

  0000a	eb 03		 jmp	 SHORT $LN14@Inside
$LN13@Inside:
  0000c	4c 8b c1	 mov	 r8, rcx
$LN14@Inside:

; 3531 : 		const auto& _My_data = this->_Get_data();
; 3532 : 		const _Elem * const _My_chars = _My_data._Myptr();
; 3533 : 		return (_My_chars <= _Ptr && _Ptr < _My_chars + _My_data._Mysize);

  0000f	4c 3b c2	 cmp	 r8, rdx
  00012	77 10		 ja	 SHORT $LN3@Inside
  00014	48 8b 41 10	 mov	 rax, QWORD PTR [rcx+16]
  00018	49 8d 0c 00	 lea	 rcx, QWORD PTR [r8+rax]
  0001c	48 3b d1	 cmp	 rdx, rcx
  0001f	73 03		 jae	 SHORT $LN3@Inside
  00021	b0 01		 mov	 al, 1

; 3534 : 		}

  00023	c3		 ret	 0
$LN3@Inside:

; 3531 : 		const auto& _My_data = this->_Get_data();
; 3532 : 		const _Elem * const _My_chars = _My_data._Myptr();
; 3533 : 		return (_My_chars <= _Ptr && _Ptr < _My_chars + _My_data._Mysize);

  00024	32 c0		 xor	 al, al

; 3534 : 		}

  00026	c3		 ret	 0
?_Inside@?$basic_string@DU?$char_traits@D@std@@V?$allocator@D@2@@std@@QEBA_NQEBD@Z ENDP ; std::basic_string<char,std::char_traits<char>,std::allocator<char> >::_Inside
_TEXT	ENDS
; Function compile flags: /Ogtpy
; File c:\users\alist_000\cppmisc\packages\visualcpptools.14.0.24629\lib\native\include\xstring
; File c:\users\alist_000\cppmisc\packages\visualcpptools.14.0.24629\lib\native\include\xstddef
; File c:\users\alist_000\cppmisc\packages\visualcpptools.14.0.24629\lib\native\include\iosfwd
; File c:\users\alist_000\cppmisc\packages\visualcpptools.14.0.24629\lib\native\include\xstring
;	COMDAT ?_Grow@?$basic_string@DU?$char_traits@D@std@@V?$allocator@D@2@@std@@QEAA_N_K@Z
_TEXT	SEGMENT
this$ = 48
_Newsize$ = 56
?_Grow@?$basic_string@DU?$char_traits@D@std@@V?$allocator@D@2@@std@@QEAA_N_K@Z PROC ; std::basic_string<char,std::char_traits<char>,std::allocator<char> >::_Grow, COMDAT

; 3514 : 		{	// ensure buffer is big enough

$LN34:
  00000	48 83 ec 28	 sub	 rsp, 40			; 00000028H

; 3515 : 		if (_Newsize == 0)

  00004	48 85 d2	 test	 rdx, rdx
  00007	75 18		 jne	 SHORT $LN2@Grow

; 1638 : 		return (this->_BUF_SIZE <= _Myres);

  00009	48 83 79 18 10	 cmp	 QWORD PTR [rcx+24], 16

; 3510 : 		_Traits::assign(_My_data._Myptr()[_My_data._Mysize = _Newsize], _Elem());

  0000e	48 89 51 10	 mov	 QWORD PTR [rcx+16], rdx

; 1624 : 		return (_Large_string_engaged()

  00012	72 03		 jb	 SHORT $LN16@Grow
; File c:\users\alist_000\cppmisc\packages\visualcpptools.14.0.24629\lib\native\include\xstddef

; 642  : 	return (_Ptr);

  00014	48 8b 09	 mov	 rcx, QWORD PTR [rcx]
$LN16@Grow:
; File c:\users\alist_000\cppmisc\packages\visualcpptools.14.0.24629\lib\native\include\iosfwd

; 516  : 		_Left = _Right;

  00017	c6 01 00	 mov	 BYTE PTR [rcx], 0
; File c:\users\alist_000\cppmisc\packages\visualcpptools.14.0.24629\lib\native\include\xstring

; 3518 : 			return (false);

  0001a	32 c0		 xor	 al, al

; 3527 : 		}

  0001c	48 83 c4 28	 add	 rsp, 40			; 00000028H
  00020	c3		 ret	 0
$LN2@Grow:

; 3519 : 			}
; 3520 : 
; 3521 : 		if (this->_Myres() < _Newsize)

  00021	48 39 51 18	 cmp	 QWORD PTR [rcx+24], rdx
  00025	73 05		 jae	 SHORT $LN3@Grow

; 3522 : 			{	// reallocate to grow
; 3523 : 			_Copy(_Newsize);

  00027	e8 00 00 00 00	 call	 ?_Copy@?$basic_string@DU?$char_traits@D@std@@V?$allocator@D@2@@std@@QEAAX_K@Z ; std::basic_string<char,std::char_traits<char>,std::allocator<char> >::_Copy
$LN3@Grow:

; 3524 : 			}
; 3525 : 
; 3526 : 		return (true);	// return true only if more work to do

  0002c	b0 01		 mov	 al, 1

; 3527 : 		}

  0002e	48 83 c4 28	 add	 rsp, 40			; 00000028H
  00032	c3		 ret	 0
?_Grow@?$basic_string@DU?$char_traits@D@std@@V?$allocator@D@2@@std@@QEAA_N_K@Z ENDP ; std::basic_string<char,std::char_traits<char>,std::allocator<char> >::_Grow
_TEXT	ENDS
; Function compile flags: /Ogtpy
; File c:\users\alist_000\cppmisc\packages\visualcpptools.14.0.24629\lib\native\include\xstring
; File c:\users\alist_000\cppmisc\packages\visualcpptools.14.0.24629\lib\native\include\xstddef
; File c:\users\alist_000\cppmisc\packages\visualcpptools.14.0.24629\lib\native\include\iosfwd
; File c:\users\alist_000\cppmisc\packages\visualcpptools.14.0.24629\lib\native\include\xstring
; File c:\users\alist_000\cppmisc\packages\visualcpptools.14.0.24629\lib\native\include\iosfwd
; File c:\users\alist_000\cppmisc\packages\visualcpptools.14.0.24629\lib\native\include\xstring
;	COMDAT ?_Eos@?$basic_string@DU?$char_traits@D@std@@V?$allocator@D@2@@std@@QEAAX_K@Z
_TEXT	SEGMENT
this$ = 8
_Newsize$ = 16
?_Eos@?$basic_string@DU?$char_traits@D@std@@V?$allocator@D@2@@std@@QEAAX_K@Z PROC ; std::basic_string<char,std::char_traits<char>,std::allocator<char> >::_Eos, COMDAT

; 1638 : 		return (this->_BUF_SIZE <= _Myres);

  00000	48 83 79 18 10	 cmp	 QWORD PTR [rcx+24], 16

; 3509 : 		auto& _My_data = this->_Get_data();
; 3510 : 		_Traits::assign(_My_data._Myptr()[_My_data._Mysize = _Newsize], _Elem());

  00005	48 89 51 10	 mov	 QWORD PTR [rcx+16], rdx

; 1624 : 		return (_Large_string_engaged()

  00009	72 08		 jb	 SHORT $LN11@Eos
; File c:\users\alist_000\cppmisc\packages\visualcpptools.14.0.24629\lib\native\include\xstddef

; 642  : 	return (_Ptr);

  0000b	48 8b 01	 mov	 rax, QWORD PTR [rcx]
; File c:\users\alist_000\cppmisc\packages\visualcpptools.14.0.24629\lib\native\include\iosfwd

; 516  : 		_Left = _Right;

  0000e	c6 04 10 00	 mov	 BYTE PTR [rax+rdx], 0
; File c:\users\alist_000\cppmisc\packages\visualcpptools.14.0.24629\lib\native\include\xstring

; 3511 : 		}

  00012	c3		 ret	 0
$LN11@Eos:
; File c:\users\alist_000\cppmisc\packages\visualcpptools.14.0.24629\lib\native\include\iosfwd

; 516  : 		_Left = _Right;

  00013	c6 04 11 00	 mov	 BYTE PTR [rcx+rdx], 0
; File c:\users\alist_000\cppmisc\packages\visualcpptools.14.0.24629\lib\native\include\xstring

; 3511 : 		}

  00017	c3		 ret	 0
?_Eos@?$basic_string@DU?$char_traits@D@std@@V?$allocator@D@2@@std@@QEAAX_K@Z ENDP ; std::basic_string<char,std::char_traits<char>,std::allocator<char> >::_Eos
_TEXT	ENDS
; Function compile flags: /Ogtpy
; File c:\users\alist_000\cppmisc\packages\visualcpptools.14.0.24629\lib\native\include\xstring
; File c:\users\alist_000\cppmisc\packages\visualcpptools.14.0.24629\lib\native\include\utility
; File c:\users\alist_000\cppmisc\packages\visualcpptools.14.0.24629\lib\native\include\xstring
;	COMDAT ?_Clamp_suffix_size@?$basic_string@DU?$char_traits@D@std@@V?$allocator@D@2@@std@@QEBA_K_K0@Z
_TEXT	SEGMENT
this$ = 8
_Off$ = 16
_Size$ = 24
?_Clamp_suffix_size@?$basic_string@DU?$char_traits@D@std@@V?$allocator@D@2@@std@@QEBA_K_K0@Z PROC ; std::basic_string<char,std::char_traits<char>,std::allocator<char> >::_Clamp_suffix_size, COMDAT

; 3353 : 		return (_Min_value(_Size, this->_Mysize() - _Off));

  00000	48 8b 41 10	 mov	 rax, QWORD PTR [rcx+16]
  00004	48 2b c2	 sub	 rax, rdx
; File c:\users\alist_000\cppmisc\packages\visualcpptools.14.0.24629\lib\native\include\utility

; 24   : 	return (_Right < _Left ? _Right : _Left);

  00007	49 3b c0	 cmp	 rax, r8
  0000a	4c 0f 42 c0	 cmovb	 r8, rax
; File c:\users\alist_000\cppmisc\packages\visualcpptools.14.0.24629\lib\native\include\xstring

; 3353 : 		return (_Min_value(_Size, this->_Mysize() - _Off));

  0000e	49 8b c0	 mov	 rax, r8

; 3354 : 		}

  00011	c3		 ret	 0
?_Clamp_suffix_size@?$basic_string@DU?$char_traits@D@std@@V?$allocator@D@2@@std@@QEBA_K_K0@Z ENDP ; std::basic_string<char,std::char_traits<char>,std::allocator<char> >::_Clamp_suffix_size
_TEXT	ENDS
; Function compile flags: /Ogtpy
; File c:\users\alist_000\cppmisc\packages\visualcpptools.14.0.24629\lib\native\include\xstring
; File c:\users\alist_000\cppmisc\packages\visualcpptools.14.0.24629\lib\native\include\xstddef
; File c:\users\alist_000\cppmisc\packages\visualcpptools.14.0.24629\lib\native\include\xstring
; File c:\users\alist_000\cppmisc\packages\visualcpptools.14.0.24629\lib\native\include\xstddef
; File c:\users\alist_000\cppmisc\packages\visualcpptools.14.0.24629\lib\native\include\xstring
; File c:\users\alist_000\cppmisc\packages\visualcpptools.14.0.24629\lib\native\include\xstddef
; File c:\users\alist_000\cppmisc\packages\visualcpptools.14.0.24629\lib\native\include\iosfwd
; File c:\users\alist_000\cppmisc\packages\visualcpptools.14.0.24629\lib\native\include\xstring
; File c:\users\alist_000\cppmisc\packages\visualcpptools.14.0.24629\lib\native\include\iosfwd
; File c:\users\alist_000\cppmisc\packages\visualcpptools.14.0.24629\lib\native\include\xstring
; File c:\users\alist_000\cppmisc\packages\visualcpptools.14.0.24629\lib\native\include\xstddef
; File c:\users\alist_000\cppmisc\packages\visualcpptools.14.0.24629\lib\native\include\xstring
; File c:\users\alist_000\cppmisc\packages\visualcpptools.14.0.24629\lib\native\include\iosfwd
; File c:\users\alist_000\cppmisc\packages\visualcpptools.14.0.24629\lib\native\include\xstring
; File c:\users\alist_000\cppmisc\packages\visualcpptools.14.0.24629\lib\native\include\xstddef
; File c:\users\alist_000\cppmisc\packages\visualcpptools.14.0.24629\lib\native\include\xstring
; File c:\users\alist_000\cppmisc\packages\visualcpptools.14.0.24629\lib\native\include\iosfwd
; File c:\users\alist_000\cppmisc\packages\visualcpptools.14.0.24629\lib\native\include\xstring
;	COMDAT ?assign@?$basic_string@DU?$char_traits@D@std@@V?$allocator@D@2@@std@@QEAAAEAV12@QEBD_K@Z
_TEXT	SEGMENT
this$ = 48
_Ptr$ = 56
_Count$ = 64
?assign@?$basic_string@DU?$char_traits@D@std@@V?$allocator@D@2@@std@@QEAAAEAV12@QEBD_K@Z PROC ; std::basic_string<char,std::char_traits<char>,std::allocator<char> >::assign, COMDAT

; 2361 : 		{	// assign [_Ptr, _Ptr + _Count)

$LN112:
  00000	48 89 5c 24 08	 mov	 QWORD PTR [rsp+8], rbx
  00005	48 89 74 24 10	 mov	 QWORD PTR [rsp+16], rsi
  0000a	57		 push	 rdi
  0000b	48 83 ec 20	 sub	 rsp, 32			; 00000020H
  0000f	48 8b f2	 mov	 rsi, rdx
  00012	49 8b f8	 mov	 rdi, r8

; 1638 : 		return (this->_BUF_SIZE <= _Myres);

  00015	48 8b 51 18	 mov	 rdx, QWORD PTR [rcx+24]

; 2361 : 		{	// assign [_Ptr, _Ptr + _Count)

  00019	48 8b d9	 mov	 rbx, rcx

; 1638 : 		return (this->_BUF_SIZE <= _Myres);

  0001c	48 83 fa 10	 cmp	 rdx, 16

; 1631 : 		return (_Large_string_engaged()

  00020	72 03		 jb	 SHORT $LN18@assign
; File c:\users\alist_000\cppmisc\packages\visualcpptools.14.0.24629\lib\native\include\xstddef

; 642  : 	return (_Ptr);

  00022	48 8b 09	 mov	 rcx, QWORD PTR [rcx]
$LN18@assign:
; File c:\users\alist_000\cppmisc\packages\visualcpptools.14.0.24629\lib\native\include\xstring

; 3533 : 		return (_My_chars <= _Ptr && _Ptr < _My_chars + _My_data._Mysize);

  00025	48 3b ce	 cmp	 rcx, rsi
  00028	77 3a		 ja	 SHORT $LN2@assign
  0002a	48 03 4b 10	 add	 rcx, QWORD PTR [rbx+16]
  0002e	48 3b f1	 cmp	 rsi, rcx
  00031	73 31		 jae	 SHORT $LN2@assign

; 1638 : 		return (this->_BUF_SIZE <= _Myres);

  00033	48 83 fa 10	 cmp	 rdx, 16

; 1624 : 		return (_Large_string_engaged()

  00037	72 05		 jb	 SHORT $LN33@assign
; File c:\users\alist_000\cppmisc\packages\visualcpptools.14.0.24629\lib\native\include\xstddef

; 642  : 	return (_Ptr);

  00039	48 8b 03	 mov	 rax, QWORD PTR [rbx]
; File c:\users\alist_000\cppmisc\packages\visualcpptools.14.0.24629\lib\native\include\xstring

; 1624 : 		return (_Large_string_engaged()

  0003c	eb 03		 jmp	 SHORT $LN34@assign
$LN33@assign:
  0003e	48 8b c3	 mov	 rax, rbx
$LN34@assign:

; 2362 : 		if (_Inside(_Ptr))
; 2363 : 			{
; 2364 : 			return (assign(*this, _Ptr - this->_Myptr(), _Count));	// substring

  00041	48 2b f0	 sub	 rsi, rax
  00044	4c 8b cf	 mov	 r9, rdi
  00047	4c 8b c6	 mov	 r8, rsi
  0004a	48 8b d3	 mov	 rdx, rbx
  0004d	48 8b cb	 mov	 rcx, rbx

; 2373 : 		}

  00050	48 8b 5c 24 30	 mov	 rbx, QWORD PTR [rsp+48]
  00055	48 8b 74 24 38	 mov	 rsi, QWORD PTR [rsp+56]
  0005a	48 83 c4 20	 add	 rsp, 32			; 00000020H
  0005e	5f		 pop	 rdi

; 2362 : 		if (_Inside(_Ptr))
; 2363 : 			{
; 2364 : 			return (assign(*this, _Ptr - this->_Myptr(), _Count));	// substring

  0005f	e9 00 00 00 00	 jmp	 ?assign@?$basic_string@DU?$char_traits@D@std@@V?$allocator@D@2@@std@@QEAAAEAV12@AEBV12@_K_K@Z ; std::basic_string<char,std::char_traits<char>,std::allocator<char> >::assign
$LN2@assign:

; 3515 : 		if (_Newsize == 0)

  00064	48 85 ff	 test	 rdi, rdi
  00067	75 39		 jne	 SHORT $LN40@assign

; 3510 : 		_Traits::assign(_My_data._Myptr()[_My_data._Mysize = _Newsize], _Elem());

  00069	48 89 7b 10	 mov	 QWORD PTR [rbx+16], rdi

; 1638 : 		return (this->_BUF_SIZE <= _Myres);

  0006d	48 83 fa 10	 cmp	 rdx, 16

; 1624 : 		return (_Large_string_engaged()

  00071	72 19		 jb	 SHORT $LN53@assign
; File c:\users\alist_000\cppmisc\packages\visualcpptools.14.0.24629\lib\native\include\xstddef

; 642  : 	return (_Ptr);

  00073	48 8b 03	 mov	 rax, QWORD PTR [rbx]
; File c:\users\alist_000\cppmisc\packages\visualcpptools.14.0.24629\lib\native\include\iosfwd

; 516  : 		_Left = _Right;

  00076	40 88 38	 mov	 BYTE PTR [rax], dil
; File c:\users\alist_000\cppmisc\packages\visualcpptools.14.0.24629\lib\native\include\xstring

; 2372 : 		return (*this);

  00079	48 8b c3	 mov	 rax, rbx

; 2373 : 		}

  0007c	48 8b 5c 24 30	 mov	 rbx, QWORD PTR [rsp+48]
  00081	48 8b 74 24 38	 mov	 rsi, QWORD PTR [rsp+56]
  00086	48 83 c4 20	 add	 rsp, 32			; 00000020H
  0008a	5f		 pop	 rdi
  0008b	c3		 ret	 0
$LN53@assign:

; 1624 : 		return (_Large_string_engaged()

  0008c	48 8b c3	 mov	 rax, rbx
; File c:\users\alist_000\cppmisc\packages\visualcpptools.14.0.24629\lib\native\include\iosfwd

; 516  : 		_Left = _Right;

  0008f	c6 03 00	 mov	 BYTE PTR [rbx], 0
; File c:\users\alist_000\cppmisc\packages\visualcpptools.14.0.24629\lib\native\include\xstring

; 2373 : 		}

  00092	48 8b 5c 24 30	 mov	 rbx, QWORD PTR [rsp+48]
  00097	48 8b 74 24 38	 mov	 rsi, QWORD PTR [rsp+56]
  0009c	48 83 c4 20	 add	 rsp, 32			; 00000020H
  000a0	5f		 pop	 rdi
  000a1	c3		 ret	 0
$LN40@assign:

; 3521 : 		if (this->_Myres() < _Newsize)

  000a2	48 3b d7	 cmp	 rdx, rdi
  000a5	73 0b		 jae	 SHORT $LN41@assign

; 3522 : 			{	// reallocate to grow
; 3523 : 			_Copy(_Newsize);

  000a7	48 8b d7	 mov	 rdx, rdi
  000aa	48 8b cb	 mov	 rcx, rbx
  000ad	e8 00 00 00 00	 call	 ?_Copy@?$basic_string@DU?$char_traits@D@std@@V?$allocator@D@2@@std@@QEAAX_K@Z ; std::basic_string<char,std::char_traits<char>,std::allocator<char> >::_Copy
$LN41@assign:

; 1638 : 		return (this->_BUF_SIZE <= _Myres);

  000b2	48 83 7b 18 10	 cmp	 QWORD PTR [rbx+24], 16

; 1624 : 		return (_Large_string_engaged()

  000b7	72 05		 jb	 SHORT $LN81@assign
; File c:\users\alist_000\cppmisc\packages\visualcpptools.14.0.24629\lib\native\include\xstddef

; 642  : 	return (_Ptr);

  000b9	48 8b 0b	 mov	 rcx, QWORD PTR [rbx]
; File c:\users\alist_000\cppmisc\packages\visualcpptools.14.0.24629\lib\native\include\xstring

; 1624 : 		return (_Large_string_engaged()

  000bc	eb 03		 jmp	 SHORT $LN82@assign
$LN81@assign:
  000be	48 8b cb	 mov	 rcx, rbx
$LN82@assign:
; File c:\users\alist_000\cppmisc\packages\visualcpptools.14.0.24629\lib\native\include\iosfwd

; 485  : 		return ((_Elem *)_CSTD memcpy(_First1, _First2, _Count));

  000c1	4c 8b c7	 mov	 r8, rdi
  000c4	48 8b d6	 mov	 rdx, rsi
  000c7	e8 00 00 00 00	 call	 memcpy
; File c:\users\alist_000\cppmisc\packages\visualcpptools.14.0.24629\lib\native\include\xstring

; 1638 : 		return (this->_BUF_SIZE <= _Myres);

  000cc	48 83 7b 18 10	 cmp	 QWORD PTR [rbx+24], 16

; 3510 : 		_Traits::assign(_My_data._Myptr()[_My_data._Mysize = _Newsize], _Elem());

  000d1	48 89 7b 10	 mov	 QWORD PTR [rbx+16], rdi

; 1624 : 		return (_Large_string_engaged()

  000d5	72 05		 jb	 SHORT $LN100@assign
; File c:\users\alist_000\cppmisc\packages\visualcpptools.14.0.24629\lib\native\include\xstddef

; 642  : 	return (_Ptr);

  000d7	48 8b 03	 mov	 rax, QWORD PTR [rbx]
; File c:\users\alist_000\cppmisc\packages\visualcpptools.14.0.24629\lib\native\include\xstring

; 1624 : 		return (_Large_string_engaged()

  000da	eb 03		 jmp	 SHORT $LN101@assign
$LN100@assign:
  000dc	48 8b c3	 mov	 rax, rbx
$LN101@assign:

; 2373 : 		}

  000df	48 8b 74 24 38	 mov	 rsi, QWORD PTR [rsp+56]
; File c:\users\alist_000\cppmisc\packages\visualcpptools.14.0.24629\lib\native\include\iosfwd

; 516  : 		_Left = _Right;

  000e4	c6 04 38 00	 mov	 BYTE PTR [rax+rdi], 0
; File c:\users\alist_000\cppmisc\packages\visualcpptools.14.0.24629\lib\native\include\xstring

; 2372 : 		return (*this);

  000e8	48 8b c3	 mov	 rax, rbx

; 2373 : 		}

  000eb	48 8b 5c 24 30	 mov	 rbx, QWORD PTR [rsp+48]
  000f0	48 83 c4 20	 add	 rsp, 32			; 00000020H
  000f4	5f		 pop	 rdi
  000f5	c3		 ret	 0
?assign@?$basic_string@DU?$char_traits@D@std@@V?$allocator@D@2@@std@@QEAAAEAV12@QEBD_K@Z ENDP ; std::basic_string<char,std::char_traits<char>,std::allocator<char> >::assign
_TEXT	ENDS
; Function compile flags: /Ogtpy
; File c:\users\alist_000\cppmisc\packages\visualcpptools.14.0.24629\lib\native\include\xstring
; File c:\users\alist_000\cppmisc\packages\visualcpptools.14.0.24629\lib\native\include\utility
; File c:\users\alist_000\cppmisc\packages\visualcpptools.14.0.24629\lib\native\include\xstring
; File c:\users\alist_000\cppmisc\packages\visualcpptools.14.0.24629\lib\native\include\xstddef
; File c:\users\alist_000\cppmisc\packages\visualcpptools.14.0.24629\lib\native\include\iosfwd
; File c:\users\alist_000\cppmisc\packages\visualcpptools.14.0.24629\lib\native\include\xstring
; File c:\users\alist_000\cppmisc\packages\visualcpptools.14.0.24629\lib\native\include\xstddef
; File c:\users\alist_000\cppmisc\packages\visualcpptools.14.0.24629\lib\native\include\iosfwd
; File c:\users\alist_000\cppmisc\packages\visualcpptools.14.0.24629\lib\native\include\xstring
; File c:\users\alist_000\cppmisc\packages\visualcpptools.14.0.24629\lib\native\include\iosfwd
; File c:\users\alist_000\cppmisc\packages\visualcpptools.14.0.24629\lib\native\include\xstring
; File c:\users\alist_000\cppmisc\packages\visualcpptools.14.0.24629\lib\native\include\xstddef
; File c:\users\alist_000\cppmisc\packages\visualcpptools.14.0.24629\lib\native\include\xstring
; File c:\users\alist_000\cppmisc\packages\visualcpptools.14.0.24629\lib\native\include\xstddef
; File c:\users\alist_000\cppmisc\packages\visualcpptools.14.0.24629\lib\native\include\xstring
; File c:\users\alist_000\cppmisc\packages\visualcpptools.14.0.24629\lib\native\include\iosfwd
; File c:\users\alist_000\cppmisc\packages\visualcpptools.14.0.24629\lib\native\include\xstring
; File c:\users\alist_000\cppmisc\packages\visualcpptools.14.0.24629\lib\native\include\xstddef
; File c:\users\alist_000\cppmisc\packages\visualcpptools.14.0.24629\lib\native\include\xstring
; File c:\users\alist_000\cppmisc\packages\visualcpptools.14.0.24629\lib\native\include\iosfwd
; File c:\users\alist_000\cppmisc\packages\visualcpptools.14.0.24629\lib\native\include\xstring
;	COMDAT ?assign@?$basic_string@DU?$char_traits@D@std@@V?$allocator@D@2@@std@@QEAAAEAV12@AEBV12@_K_K@Z
_TEXT	SEGMENT
this$ = 48
_Right$ = 56
_Roff$ = 64
_Count$ = 72
?assign@?$basic_string@DU?$char_traits@D@std@@V?$allocator@D@2@@std@@QEAAAEAV12@AEBV12@_K_K@Z PROC ; std::basic_string<char,std::char_traits<char>,std::allocator<char> >::assign, COMDAT

; 2329 : 		{	// assign _Right [_Roff, _Roff + _Count)

$LN159:
  00000	48 89 5c 24 08	 mov	 QWORD PTR [rsp+8], rbx
  00005	48 89 74 24 10	 mov	 QWORD PTR [rsp+16], rsi
  0000a	48 89 7c 24 18	 mov	 QWORD PTR [rsp+24], rdi
  0000f	41 56		 push	 r14
  00011	48 83 ec 20	 sub	 rsp, 32			; 00000020H

; 3572 : 		if (this->_Mysize() < _Off)

  00015	48 8b 42 10	 mov	 rax, QWORD PTR [rdx+16]

; 2329 : 		{	// assign _Right [_Roff, _Roff + _Count)

  00019	49 8b f9	 mov	 rdi, r9
  0001c	4d 8b f0	 mov	 r14, r8
  0001f	48 8b f2	 mov	 rsi, rdx
  00022	48 8b d9	 mov	 rbx, rcx

; 3572 : 		if (this->_Mysize() < _Off)

  00025	49 3b c0	 cmp	 rax, r8
  00028	0f 82 be 00 00
	00		 jb	 $LN156@assign

; 3353 : 		return (_Min_value(_Size, this->_Mysize() - _Off));

  0002e	49 2b c0	 sub	 rax, r8
; File c:\users\alist_000\cppmisc\packages\visualcpptools.14.0.24629\lib\native\include\utility

; 24   : 	return (_Right < _Left ? _Right : _Left);

  00031	49 3b c1	 cmp	 rax, r9
  00034	48 0f 42 f8	 cmovb	 rdi, rax
; File c:\users\alist_000\cppmisc\packages\visualcpptools.14.0.24629\lib\native\include\xstring

; 2333 : 		if (this == &_Right)

  00038	48 3b ca	 cmp	 rcx, rdx
  0003b	75 2c		 jne	 SHORT $LN2@assign

; 2335 : 			erase((size_type)(_Roff + _Count)), erase(0, _Roff);	// substring

  0003d	49 8d 04 38	 lea	 rax, QWORD PTR [r8+rdi]

; 3572 : 		if (this->_Mysize() < _Off)

  00041	48 39 41 10	 cmp	 QWORD PTR [rcx+16], rax
  00045	0f 82 a7 00 00
	00		 jb	 $LN158@assign

; 3510 : 		_Traits::assign(_My_data._Myptr()[_My_data._Mysize = _Newsize], _Elem());

  0004b	48 89 41 10	 mov	 QWORD PTR [rcx+16], rax

; 1638 : 		return (this->_BUF_SIZE <= _Myres);

  0004f	48 83 79 18 10	 cmp	 QWORD PTR [rcx+24], 16

; 1624 : 		return (_Large_string_engaged()

  00054	72 03		 jb	 SHORT $LN60@assign
; File c:\users\alist_000\cppmisc\packages\visualcpptools.14.0.24629\lib\native\include\xstddef

; 642  : 	return (_Ptr);

  00056	48 8b 09	 mov	 rcx, QWORD PTR [rcx]
$LN60@assign:
; File c:\users\alist_000\cppmisc\packages\visualcpptools.14.0.24629\lib\native\include\iosfwd

; 516  : 		_Left = _Right;

  00059	c6 04 01 00	 mov	 BYTE PTR [rcx+rax], 0
; File c:\users\alist_000\cppmisc\packages\visualcpptools.14.0.24629\lib\native\include\xstring

; 2335 : 			erase((size_type)(_Roff + _Count)), erase(0, _Roff);	// substring

  0005d	33 d2		 xor	 edx, edx
  0005f	48 8b cb	 mov	 rcx, rbx
  00062	e8 00 00 00 00	 call	 ?erase@?$basic_string@DU?$char_traits@D@std@@V?$allocator@D@2@@std@@QEAAAEAV12@_K0@Z ; std::basic_string<char,std::char_traits<char>,std::allocator<char> >::erase

; 2336 : 			}
; 2337 : 		else if (_Grow(_Count))

  00067	eb 6a		 jmp	 SHORT $LN152@assign
$LN2@assign:

; 3515 : 		if (_Newsize == 0)

  00069	48 85 ff	 test	 rdi, rdi
  0006c	75 1b		 jne	 SHORT $LN69@assign

; 1638 : 		return (this->_BUF_SIZE <= _Myres);

  0006e	48 83 79 18 10	 cmp	 QWORD PTR [rcx+24], 16

; 3510 : 		_Traits::assign(_My_data._Myptr()[_My_data._Mysize = _Newsize], _Elem());

  00073	48 89 79 10	 mov	 QWORD PTR [rcx+16], rdi

; 1624 : 		return (_Large_string_engaged()

  00077	72 08		 jb	 SHORT $LN82@assign
; File c:\users\alist_000\cppmisc\packages\visualcpptools.14.0.24629\lib\native\include\xstddef

; 642  : 	return (_Ptr);

  00079	48 8b 01	 mov	 rax, QWORD PTR [rcx]
; File c:\users\alist_000\cppmisc\packages\visualcpptools.14.0.24629\lib\native\include\iosfwd

; 516  : 		_Left = _Right;

  0007c	40 88 38	 mov	 BYTE PTR [rax], dil
; File c:\users\alist_000\cppmisc\packages\visualcpptools.14.0.24629\lib\native\include\xstring

; 3518 : 			return (false);

  0007f	eb 52		 jmp	 SHORT $LN152@assign
$LN82@assign:

; 1624 : 		return (_Large_string_engaged()

  00081	48 8b c3	 mov	 rax, rbx
; File c:\users\alist_000\cppmisc\packages\visualcpptools.14.0.24629\lib\native\include\iosfwd

; 516  : 		_Left = _Right;

  00084	c6 03 00	 mov	 BYTE PTR [rbx], 0
; File c:\users\alist_000\cppmisc\packages\visualcpptools.14.0.24629\lib\native\include\xstring

; 3518 : 			return (false);

  00087	eb 4a		 jmp	 SHORT $LN152@assign
$LN69@assign:

; 3519 : 			}
; 3520 : 
; 3521 : 		if (this->_Myres() < _Newsize)

  00089	48 39 79 18	 cmp	 QWORD PTR [rcx+24], rdi
  0008d	73 08		 jae	 SHORT $LN70@assign

; 3522 : 			{	// reallocate to grow
; 3523 : 			_Copy(_Newsize);

  0008f	48 8b d7	 mov	 rdx, rdi
  00092	e8 00 00 00 00	 call	 ?_Copy@?$basic_string@DU?$char_traits@D@std@@V?$allocator@D@2@@std@@QEAAX_K@Z ; std::basic_string<char,std::char_traits<char>,std::allocator<char> >::_Copy
$LN70@assign:

; 1638 : 		return (this->_BUF_SIZE <= _Myres);

  00097	48 83 7e 18 10	 cmp	 QWORD PTR [rsi+24], 16

; 1631 : 		return (_Large_string_engaged()

  0009c	72 03		 jb	 SHORT $LN110@assign
; File c:\users\alist_000\cppmisc\packages\visualcpptools.14.0.24629\lib\native\include\xstddef

; 642  : 	return (_Ptr);

  0009e	48 8b 36	 mov	 rsi, QWORD PTR [rsi]
$LN110@assign:
; File c:\users\alist_000\cppmisc\packages\visualcpptools.14.0.24629\lib\native\include\xstring

; 1638 : 		return (this->_BUF_SIZE <= _Myres);

  000a1	48 83 7b 18 10	 cmp	 QWORD PTR [rbx+24], 16

; 1624 : 		return (_Large_string_engaged()

  000a6	72 05		 jb	 SHORT $LN126@assign
; File c:\users\alist_000\cppmisc\packages\visualcpptools.14.0.24629\lib\native\include\xstddef

; 642  : 	return (_Ptr);

  000a8	48 8b 0b	 mov	 rcx, QWORD PTR [rbx]
; File c:\users\alist_000\cppmisc\packages\visualcpptools.14.0.24629\lib\native\include\xstring

; 1624 : 		return (_Large_string_engaged()

  000ab	eb 03		 jmp	 SHORT $LN127@assign
$LN126@assign:
  000ad	48 8b cb	 mov	 rcx, rbx
$LN127@assign:

; 2338 : 			{	// make room and assign new stuff
; 2339 : 			_Traits::copy(this->_Myptr(), _Right._Myptr() + _Roff, _Count);

  000b0	4a 8d 14 36	 lea	 rdx, QWORD PTR [rsi+r14]
; File c:\users\alist_000\cppmisc\packages\visualcpptools.14.0.24629\lib\native\include\iosfwd

; 485  : 		return ((_Elem *)_CSTD memcpy(_First1, _First2, _Count));

  000b4	4c 8b c7	 mov	 r8, rdi
  000b7	e8 00 00 00 00	 call	 memcpy
; File c:\users\alist_000\cppmisc\packages\visualcpptools.14.0.24629\lib\native\include\xstring

; 1638 : 		return (this->_BUF_SIZE <= _Myres);

  000bc	48 83 7b 18 10	 cmp	 QWORD PTR [rbx+24], 16

; 3510 : 		_Traits::assign(_My_data._Myptr()[_My_data._Mysize = _Newsize], _Elem());

  000c1	48 89 7b 10	 mov	 QWORD PTR [rbx+16], rdi

; 1624 : 		return (_Large_string_engaged()

  000c5	72 05		 jb	 SHORT $LN145@assign
; File c:\users\alist_000\cppmisc\packages\visualcpptools.14.0.24629\lib\native\include\xstddef

; 642  : 	return (_Ptr);

  000c7	48 8b 03	 mov	 rax, QWORD PTR [rbx]
; File c:\users\alist_000\cppmisc\packages\visualcpptools.14.0.24629\lib\native\include\xstring

; 1624 : 		return (_Large_string_engaged()

  000ca	eb 03		 jmp	 SHORT $LN146@assign
$LN145@assign:
  000cc	48 8b c3	 mov	 rax, rbx
$LN146@assign:
; File c:\users\alist_000\cppmisc\packages\visualcpptools.14.0.24629\lib\native\include\iosfwd

; 516  : 		_Left = _Right;

  000cf	c6 04 38 00	 mov	 BYTE PTR [rax+rdi], 0
$LN152@assign:
; File c:\users\alist_000\cppmisc\packages\visualcpptools.14.0.24629\lib\native\include\xstring

; 2343 : 		}

  000d3	48 8b 74 24 38	 mov	 rsi, QWORD PTR [rsp+56]
  000d8	48 8b c3	 mov	 rax, rbx
  000db	48 8b 5c 24 30	 mov	 rbx, QWORD PTR [rsp+48]
  000e0	48 8b 7c 24 40	 mov	 rdi, QWORD PTR [rsp+64]
  000e5	48 83 c4 20	 add	 rsp, 32			; 00000020H
  000e9	41 5e		 pop	 r14
  000eb	c3		 ret	 0
$LN156@assign:

; 3573 : 			_Xran();

  000ec	e8 00 00 00 00	 call	 ?_Xran@?$basic_string@DU?$char_traits@D@std@@V?$allocator@D@2@@std@@SAXXZ ; std::basic_string<char,std::char_traits<char>,std::allocator<char> >::_Xran
  000f1	cc		 int	 3
$LN158@assign:
  000f2	e8 00 00 00 00	 call	 ?_Xran@?$basic_string@DU?$char_traits@D@std@@V?$allocator@D@2@@std@@SAXXZ ; std::basic_string<char,std::char_traits<char>,std::allocator<char> >::_Xran
  000f7	cc		 int	 3
$LN155@assign:
?assign@?$basic_string@DU?$char_traits@D@std@@V?$allocator@D@2@@std@@QEAAAEAV12@AEBV12@_K_K@Z ENDP ; std::basic_string<char,std::char_traits<char>,std::allocator<char> >::assign
_TEXT	ENDS
; Function compile flags: /Ogtpy
; File c:\users\alist_000\cppmisc\packages\visualcpptools.14.0.24629\lib\native\include\xutility
;	COMDAT ?_Get_second@?$_Compressed_pair@U?$_Wrap_alloc@V?$allocator@D@std@@@std@@V?$_Vector_val@U?$_Simple_types@D@std@@@2@$00@std@@QEBAAEBV?$_Vector_val@U?$_Simple_types@D@std@@@2@XZ
_TEXT	SEGMENT
this$ = 8
?_Get_second@?$_Compressed_pair@U?$_Wrap_alloc@V?$allocator@D@std@@@std@@V?$_Vector_val@U?$_Simple_types@D@std@@@2@$00@std@@QEBAAEBV?$_Vector_val@U?$_Simple_types@D@std@@@2@XZ PROC ; std::_Compressed_pair<std::_Wrap_alloc<std::allocator<char> >,std::_Vector_val<std::_Simple_types<char> >,1>::_Get_second, COMDAT

; 334  : 		return (_Myval2);

  00000	48 8b c1	 mov	 rax, rcx

; 335  : 		}

  00003	c3		 ret	 0
?_Get_second@?$_Compressed_pair@U?$_Wrap_alloc@V?$allocator@D@std@@@std@@V?$_Vector_val@U?$_Simple_types@D@std@@@2@$00@std@@QEBAAEBV?$_Vector_val@U?$_Simple_types@D@std@@@2@XZ ENDP ; std::_Compressed_pair<std::_Wrap_alloc<std::allocator<char> >,std::_Vector_val<std::_Simple_types<char> >,1>::_Get_second
_TEXT	ENDS
; Function compile flags: /Ogtpy
; File c:\users\alist_000\cppmisc\packages\visualcpptools.14.0.24629\lib\native\include\xutility
;	COMDAT ?_Get_second@?$_Compressed_pair@U?$_Wrap_alloc@V?$allocator@D@std@@@std@@V?$_String_val@U?$_Simple_types@D@std@@@2@$00@std@@QEBAAEBV?$_String_val@U?$_Simple_types@D@std@@@2@XZ
_TEXT	SEGMENT
this$ = 8
?_Get_second@?$_Compressed_pair@U?$_Wrap_alloc@V?$allocator@D@std@@@std@@V?$_String_val@U?$_Simple_types@D@std@@@2@$00@std@@QEBAAEBV?$_String_val@U?$_Simple_types@D@std@@@2@XZ PROC ; std::_Compressed_pair<std::_Wrap_alloc<std::allocator<char> >,std::_String_val<std::_Simple_types<char> >,1>::_Get_second, COMDAT

; 334  : 		return (_Myval2);

  00000	48 8b c1	 mov	 rax, rcx

; 335  : 		}

  00003	c3		 ret	 0
?_Get_second@?$_Compressed_pair@U?$_Wrap_alloc@V?$allocator@D@std@@@std@@V?$_String_val@U?$_Simple_types@D@std@@@2@$00@std@@QEBAAEBV?$_String_val@U?$_Simple_types@D@std@@@2@XZ ENDP ; std::_Compressed_pair<std::_Wrap_alloc<std::allocator<char> >,std::_String_val<std::_Simple_types<char> >,1>::_Get_second
_TEXT	ENDS
; Function compile flags: /Ogtpy
; File c:\users\alist_000\cppmisc\packages\visualcpptools.14.0.24629\lib\native\include\xutility
;	COMDAT ?_Get_second@?$_Compressed_pair@U?$_Wrap_alloc@V?$allocator@D@std@@@std@@V?$_String_val@U?$_Simple_types@D@std@@@2@$00@std@@QEAAAEAV?$_String_val@U?$_Simple_types@D@std@@@2@XZ
_TEXT	SEGMENT
this$ = 8
?_Get_second@?$_Compressed_pair@U?$_Wrap_alloc@V?$allocator@D@std@@@std@@V?$_String_val@U?$_Simple_types@D@std@@@2@$00@std@@QEAAAEAV?$_String_val@U?$_Simple_types@D@std@@@2@XZ PROC ; std::_Compressed_pair<std::_Wrap_alloc<std::allocator<char> >,std::_String_val<std::_Simple_types<char> >,1>::_Get_second, COMDAT

; 329  : 		return (_Myval2);

  00000	48 8b c1	 mov	 rax, rcx

; 330  : 		}

  00003	c3		 ret	 0
?_Get_second@?$_Compressed_pair@U?$_Wrap_alloc@V?$allocator@D@std@@@std@@V?$_String_val@U?$_Simple_types@D@std@@@2@$00@std@@QEAAAEAV?$_String_val@U?$_Simple_types@D@std@@@2@XZ ENDP ; std::_Compressed_pair<std::_Wrap_alloc<std::allocator<char> >,std::_String_val<std::_Simple_types<char> >,1>::_Get_second
_TEXT	ENDS
; Function compile flags: /Ogtpy
; File c:\users\alist_000\cppmisc\packages\visualcpptools.14.0.24629\lib\native\include\xstring
;	COMDAT ?_Orphan_all@?$_String_alloc@U?$_String_base_types@DV?$allocator@D@std@@@std@@@std@@QEAAXXZ
_TEXT	SEGMENT
this$ = 8
?_Orphan_all@?$_String_alloc@U?$_String_base_types@DV?$allocator@D@std@@@std@@@std@@QEAAXXZ PROC ; std::_String_alloc<std::_String_base_types<char,std::allocator<char> > >::_Orphan_all, COMDAT

; 1817 : 		_Get_data()._Orphan_all();
; 1818 : 		}

  00000	c2 00 00	 ret	 0
?_Orphan_all@?$_String_alloc@U?$_String_base_types@DV?$allocator@D@std@@@std@@@std@@QEAAXXZ ENDP ; std::_String_alloc<std::_String_base_types<char,std::allocator<char> > >::_Orphan_all
_TEXT	ENDS
; Function compile flags: /Ogtpy
; File c:\users\alist_000\cppmisc\packages\visualcpptools.14.0.24629\lib\native\include\xstring
;	COMDAT ?_Xran@?$basic_string@DU?$char_traits@D@std@@V?$allocator@D@2@@std@@SAXXZ
_TEXT	SEGMENT
?_Xran@?$basic_string@DU?$char_traits@D@std@@V?$allocator@D@2@@std@@SAXXZ PROC ; std::basic_string<char,std::char_traits<char>,std::allocator<char> >::_Xran, COMDAT

; 3583 : 		{	// report an out_of_range error

$LN4:
  00000	48 83 ec 28	 sub	 rsp, 40			; 00000028H

; 3584 : 		_Xout_of_range("invalid string position");

  00004	48 8d 0d 00 00
	00 00		 lea	 rcx, OFFSET FLAT:??_C@_0BI@CFPLBAOH@invalid?5string?5position?$AA@
  0000b	e8 00 00 00 00	 call	 ?_Xout_of_range@std@@YAXPEBD@Z ; std::_Xout_of_range
  00010	cc		 int	 3
$LN3@Xran:
?_Xran@?$basic_string@DU?$char_traits@D@std@@V?$allocator@D@2@@std@@SAXXZ ENDP ; std::basic_string<char,std::char_traits<char>,std::allocator<char> >::_Xran
_TEXT	ENDS
; Function compile flags: /Ogtpy
; File c:\users\alist_000\cppmisc\packages\visualcpptools.14.0.24629\lib\native\include\xstring
; File c:\users\alist_000\cppmisc\packages\visualcpptools.14.0.24629\lib\native\include\xmemory0
; File c:\users\alist_000\cppmisc\packages\visualcpptools.14.0.24629\lib\native\include\xstring
; File c:\users\alist_000\cppmisc\packages\visualcpptools.14.0.24629\lib\native\include\iosfwd
; File c:\users\alist_000\cppmisc\packages\visualcpptools.14.0.24629\lib\native\include\xstring
; File c:\users\alist_000\cppmisc\packages\visualcpptools.14.0.24629\lib\native\include\iosfwd
; File c:\users\alist_000\cppmisc\packages\visualcpptools.14.0.24629\lib\native\include\xmemory0
; File c:\users\alist_000\cppmisc\packages\visualcpptools.14.0.24629\lib\native\include\xstring
; File c:\users\alist_000\cppmisc\packages\visualcpptools.14.0.24629\lib\native\include\xmemory0
; File c:\users\alist_000\cppmisc\packages\visualcpptools.14.0.24629\lib\native\include\xstring
; File c:\users\alist_000\cppmisc\packages\visualcpptools.14.0.24629\lib\native\include\iosfwd
; File c:\users\alist_000\cppmisc\packages\visualcpptools.14.0.24629\lib\native\include\xmemory0
; File c:\users\alist_000\cppmisc\packages\visualcpptools.14.0.24629\lib\native\include\xstring
;	COMDAT ?_Copy@?$basic_string@DU?$char_traits@D@std@@V?$allocator@D@2@@std@@QEAAX_K@Z
_TEXT	SEGMENT
$T1 = 32
this$ = 96
_Newres$ = 104
_Newsize$ = 104
_Oldres$ = 112
_Ptr$ = 120
?_Copy@?$basic_string@DU?$char_traits@D@std@@V?$allocator@D@2@@std@@QEAAX_K@Z PROC ; std::basic_string<char,std::char_traits<char>,std::allocator<char> >::_Copy, COMDAT

; 3456 : 		{	// reallocate to new buffer of at least _Newsize, copying existing elements there

$LN118:
  00000	48 89 54 24 10	 mov	 QWORD PTR [rsp+16], rdx
  00005	48 89 4c 24 08	 mov	 QWORD PTR [rsp+8], rcx
  0000a	53		 push	 rbx
  0000b	56		 push	 rsi
  0000c	57		 push	 rdi
  0000d	41 56		 push	 r14
  0000f	48 83 ec 38	 sub	 rsp, 56			; 00000038H
  00013	48 c7 44 24 20
	fe ff ff ff	 mov	 QWORD PTR $T1[rsp], -2
  0001c	48 8b f9	 mov	 rdi, rcx

; 3457 : 		const auto _Max = max_size();
; 3458 : 		if (_Newsize > _Max)

  0001f	48 83 fa fe	 cmp	 rdx, -2
  00023	76 06		 jbe	 SHORT $LN2@Copy

; 3459 : 			{	// too long
; 3460 : 			_Xlen();

  00025	e8 00 00 00 00	 call	 ?_Xlen@?$basic_string@DU?$char_traits@D@std@@V?$allocator@D@2@@std@@SAXXZ ; std::basic_string<char,std::char_traits<char>,std::allocator<char> >::_Xlen
  0002a	cc		 int	 3
$LN2@Copy:

; 3461 : 			}
; 3462 : 
; 3463 : 		auto& _My_data = this->_Get_data();
; 3464 : 		const size_type _Oldres = _My_data._Myres;

  0002b	4c 8b 71 18	 mov	 r14, QWORD PTR [rcx+24]
  0002f	4c 89 74 24 70	 mov	 QWORD PTR _Oldres$[rsp], r14

; 3465 : 		size_type _Newres = _Newsize | this->_ALLOC_MASK;

  00034	48 8b da	 mov	 rbx, rdx
  00037	48 83 cb 0f	 or	 rbx, 15

; 3466 : 		if (_Max < _Newres)

  0003b	48 83 fb fe	 cmp	 rbx, -2
  0003f	76 05		 jbe	 SHORT $LN3@Copy

; 3467 : 			{
; 3468 : 			_Newres = _Newsize;	// undo roundup if too big

  00041	48 8b da	 mov	 rbx, rdx
  00044	eb 31		 jmp	 SHORT $LN8@Copy
$LN3@Copy:

; 3469 : 			}
; 3470 : 		else if (_Oldres / 2 <= _Newres / 3)

  00046	49 8b ce	 mov	 rcx, r14
  00049	48 d1 e9	 shr	 rcx, 1
  0004c	48 b8 ab aa aa
	aa aa aa aa aa	 mov	 rax, -6148914691236517205 ; aaaaaaaaaaaaaaabH
  00056	48 f7 e3	 mul	 rbx
  00059	48 d1 ea	 shr	 rdx, 1
  0005c	48 3b ca	 cmp	 rcx, rdx
  0005f	76 16		 jbe	 SHORT $LN8@Copy

; 3471 : 			;
; 3472 : 		else if (_Oldres <= _Max - _Oldres / 2)

  00061	48 c7 c3 fe ff
	ff ff		 mov	 rbx, -2
  00068	48 8b c3	 mov	 rax, rbx
  0006b	48 2b c1	 sub	 rax, rcx
  0006e	4c 3b f0	 cmp	 r14, rax
  00071	77 04		 ja	 SHORT $LN8@Copy

; 3473 : 			{
; 3474 : 			_Newres = _Oldres + _Oldres / 2;	// grow exponentially if possible

  00073	4a 8d 1c 31	 lea	 rbx, QWORD PTR [rcx+r14]
$LN8@Copy:

; 3475 : 			}
; 3476 : 		else
; 3477 : 			{
; 3478 : 			_Newres = _Max;	// settle for max_size()
; 3479 : 			}
; 3480 : 
; 3481 : 		auto& _Al = this->_Getal();
; 3482 : 		pointer _Ptr;
; 3483 : 		_TRY_BEGIN
; 3484 : 			_Ptr = _Al.allocate(_Newres + 1);

  00077	48 8d 4b 01	 lea	 rcx, QWORD PTR [rbx+1]
; File c:\users\alist_000\cppmisc\packages\visualcpptools.14.0.24629\lib\native\include\xmemory0

; 53   : 	if (_Count == 0)

  0007b	48 85 c9	 test	 rcx, rcx
  0007e	75 04		 jne	 SHORT $LN54@Copy

; 54   : 		return (_Ptr);

  00080	33 f6		 xor	 esi, esi
  00082	eb 35		 jmp	 SHORT $LN53@Copy
$LN54@Copy:

; 55   : 
; 56   : 	// check overflow of multiply
; 57   : 	if ((size_t)(-1) / _Sz < _Count)
; 58   : 		_Xbad_alloc();	// report no memory
; 59   : 	const size_t _User_size = _Count * _Sz;
; 60   : 
; 61   :  #if defined(_M_IX86) || defined(_M_X64)
; 62   : 	if (_Try_aligned_allocation
; 63   : 		&& _BIG_ALLOCATION_THRESHOLD <= _User_size)

  00084	48 81 f9 00 10
	00 00		 cmp	 rcx, 4096		; 00001000H
  0008b	72 24		 jb	 SHORT $LN56@Copy

; 64   : 		{	// allocate large block
; 65   : 		static_assert(sizeof (void *) < _BIG_ALLOCATION_ALIGNMENT,
; 66   : 			"Big allocations should at least match vector register size");
; 67   : 		const size_t _Block_size = _NON_USER_SIZE + _User_size;

  0008d	48 8d 41 27	 lea	 rax, QWORD PTR [rcx+39]

; 68   : 		if (_Block_size <= _User_size)

  00091	48 3b c1	 cmp	 rax, rcx
  00094	77 05		 ja	 SHORT $LN58@Copy

; 69   : 			_Xbad_alloc();	// report no memory

  00096	e8 00 00 00 00	 call	 ?_Xbad_alloc@std@@YAXXZ	; std::_Xbad_alloc
$LN58@Copy:

; 70   : 		const uintptr_t _Ptr_container =
; 71   : 			reinterpret_cast<uintptr_t>(::operator new(_Block_size));

  0009b	48 8b c8	 mov	 rcx, rax
  0009e	e8 00 00 00 00	 call	 ??2@YAPEAX_K@Z		; operator new

; 72   : 		_SCL_SECURE_ALWAYS_VALIDATE(_Ptr_container != 0);
; 73   : 		_Ptr = reinterpret_cast<void *>((_Ptr_container + _NON_USER_SIZE)

  000a3	48 8d 70 27	 lea	 rsi, QWORD PTR [rax+39]
  000a7	48 83 e6 e0	 and	 rsi, -32		; ffffffffffffffe0H

; 74   : 			& ~(_BIG_ALLOCATION_ALIGNMENT - 1));
; 75   : 		static_cast<uintptr_t *>(_Ptr)[-1] = _Ptr_container;

  000ab	48 89 46 f8	 mov	 QWORD PTR [rsi-8], rax

; 76   : 
; 77   :  #ifdef _DEBUG
; 78   : 		static_cast<uintptr_t *>(_Ptr)[-2] = _BIG_ALLOCATION_SENTINEL;
; 79   :  #endif /* _DEBUG */
; 80   : 		}
; 81   : 	else

  000af	eb 08		 jmp	 SHORT $LN53@Copy
$LN56@Copy:

; 82   :  #endif /* defined(_M_IX86) || defined(_M_X64) */
; 83   : 
; 84   : 		{	// allocate normal block
; 85   : 		_Ptr = ::operator new(_User_size);

  000b1	e8 00 00 00 00	 call	 ??2@YAPEAX_K@Z		; operator new
  000b6	48 8b f0	 mov	 rsi, rax
$LN53@Copy:
; File c:\users\alist_000\cppmisc\packages\visualcpptools.14.0.24629\lib\native\include\xstring
  000b9	eb 14		 jmp	 SHORT $LN15@Copy
$LN16@Copy:
; File c:\users\alist_000\cppmisc\packages\visualcpptools.14.0.24629\lib\native\include\type_traits
  000bb	48 8b 7c 24 60	 mov	 rdi, QWORD PTR this$[rsp]
  000c0	4c 8b 74 24 70	 mov	 r14, QWORD PTR _Oldres$[rsp]
  000c5	48 8b 5c 24 68	 mov	 rbx, QWORD PTR _Newres$[rsp]
  000ca	48 8b 74 24 78	 mov	 rsi, QWORD PTR _Ptr$[rsp]
$LN15@Copy:
; File c:\users\alist_000\cppmisc\packages\visualcpptools.14.0.24629\lib\native\include\xstring

; 3494 : 			_Traits::copy(_Unfancy(_Ptr), _Unfancy(_My_data._Bx._Ptr), _My_data._Mysize + 1);

  000cf	4c 8b 47 10	 mov	 r8, QWORD PTR [rdi+16]
; File c:\users\alist_000\cppmisc\packages\visualcpptools.14.0.24629\lib\native\include\iosfwd

; 485  : 		return ((_Elem *)_CSTD memcpy(_First1, _First2, _Count));

  000d3	48 8b ce	 mov	 rcx, rsi
; File c:\users\alist_000\cppmisc\packages\visualcpptools.14.0.24629\lib\native\include\xstring

; 3494 : 			_Traits::copy(_Unfancy(_Ptr), _Unfancy(_My_data._Bx._Ptr), _My_data._Mysize + 1);

  000d6	49 ff c0	 inc	 r8

; 1638 : 		return (this->_BUF_SIZE <= _Myres);

  000d9	48 83 7f 18 10	 cmp	 QWORD PTR [rdi+24], 16

; 3485 : 		_CATCH_ALL
; 3486 : 			_Newres = _Newsize;	// allocation failed, undo roundup and retry
; 3487 : 			_Ptr = _Al.allocate(_Newres + 1);	// if throws, *this unmodified
; 3488 : 		_CATCH_END
; 3489 : 
; 3490 : 		// copy existing elements + null terminator
; 3491 : 		this->_Orphan_all();
; 3492 : 		if (_My_data._Large_string_engaged())

  000de	72 56		 jb	 SHORT $LN10@Copy
; File c:\users\alist_000\cppmisc\packages\visualcpptools.14.0.24629\lib\native\include\iosfwd

; 485  : 		return ((_Elem *)_CSTD memcpy(_First1, _First2, _Count));

  000e0	48 8b 17	 mov	 rdx, QWORD PTR [rdi]
  000e3	e8 00 00 00 00	 call	 memcpy
; File c:\users\alist_000\cppmisc\packages\visualcpptools.14.0.24629\lib\native\include\xmemory0

; 816  : 		_Deallocate(_Ptr, _Count, sizeof (_Ty));

  000e8	48 8b 0f	 mov	 rcx, QWORD PTR [rdi]
; File c:\users\alist_000\cppmisc\packages\visualcpptools.14.0.24629\lib\native\include\xstring

; 3495 : 			_Al.deallocate(_My_data._Bx._Ptr, _Oldres + 1);

  000eb	49 8d 46 01	 lea	 rax, QWORD PTR [r14+1]
; File c:\users\alist_000\cppmisc\packages\visualcpptools.14.0.24629\lib\native\include\xmemory0

; 98   : 	if (_BIG_ALLOCATION_THRESHOLD <= _User_size)

  000ef	48 3d 00 10 00
	00		 cmp	 rax, 4096		; 00001000H
  000f5	72 38		 jb	 SHORT $LN80@Copy

; 99   : 		{	// deallocate large block
; 100  : 		const uintptr_t _Ptr_user = reinterpret_cast<uintptr_t>(_Ptr);
; 101  : 		_SCL_SECURE_ALWAYS_VALIDATE(

  000f7	f6 c1 1f	 test	 cl, 31
  000fa	74 06		 je	 SHORT $LN81@Copy
  000fc	e8 00 00 00 00	 call	 _invalid_parameter_noinfo_noreturn
  00101	cc		 int	 3
$LN81@Copy:

; 102  : 			(_Ptr_user & (_BIG_ALLOCATION_ALIGNMENT - 1)) == 0);
; 103  : 		const uintptr_t _Ptr_ptr = _Ptr_user - sizeof(void *);
; 104  : 		const uintptr_t _Ptr_container =
; 105  : 			*reinterpret_cast<uintptr_t *>(_Ptr_ptr);

  00102	48 8b 41 f8	 mov	 rax, QWORD PTR [rcx-8]

; 106  : 
; 107  :  #ifdef _DEBUG
; 108  : 		// If the following asserts, it likely means that we are performing
; 109  : 		// an aligned delete on memory coming from an unaligned allocation.
; 110  : 		_SCL_SECURE_ALWAYS_VALIDATE(
; 111  : 			reinterpret_cast<uintptr_t *>(_Ptr_ptr)[-1] ==
; 112  : 				_BIG_ALLOCATION_SENTINEL);
; 113  :  #endif /* _DEBUG */
; 114  : 
; 115  : 		// Extra paranoia on aligned allocation/deallocation
; 116  : 		_SCL_SECURE_ALWAYS_VALIDATE(_Ptr_container < _Ptr_user);

  00106	48 3b c1	 cmp	 rax, rcx
  00109	72 06		 jb	 SHORT $LN82@Copy
  0010b	e8 00 00 00 00	 call	 _invalid_parameter_noinfo_noreturn
  00110	cc		 int	 3
$LN82@Copy:

; 117  : 
; 118  :  #ifdef _DEBUG
; 119  : 		_SCL_SECURE_ALWAYS_VALIDATE(2 * sizeof(void *)
; 120  : 			<= _Ptr_user - _Ptr_container);
; 121  : 
; 122  :  #else /* _DEBUG */
; 123  : 		_SCL_SECURE_ALWAYS_VALIDATE(sizeof(void *)

  00111	48 2b c8	 sub	 rcx, rax
  00114	48 83 f9 08	 cmp	 rcx, 8
  00118	73 06		 jae	 SHORT $LN83@Copy
  0011a	e8 00 00 00 00	 call	 _invalid_parameter_noinfo_noreturn
  0011f	cc		 int	 3
$LN83@Copy:

; 124  : 			<= _Ptr_user - _Ptr_container);
; 125  :  #endif /* _DEBUG */
; 126  : 
; 127  : 		_SCL_SECURE_ALWAYS_VALIDATE(_Ptr_user - _Ptr_container

  00120	48 83 f9 27	 cmp	 rcx, 39			; 00000027H
  00124	76 06		 jbe	 SHORT $LN84@Copy
  00126	e8 00 00 00 00	 call	 _invalid_parameter_noinfo_noreturn
  0012b	cc		 int	 3
$LN84@Copy:

; 128  : 			<= _NON_USER_SIZE);
; 129  : 
; 130  : 		_Ptr = reinterpret_cast<void *>(_Ptr_container);

  0012c	48 8b c8	 mov	 rcx, rax
$LN80@Copy:

; 131  : 		}
; 132  :  #endif /* defined(_M_IX86) || defined(_M_X64) */
; 133  : 
; 134  : 	::operator delete(_Ptr);

  0012f	e8 00 00 00 00	 call	 ??3@YAXPEAX@Z		; operator delete
; File c:\users\alist_000\cppmisc\packages\visualcpptools.14.0.24629\lib\native\include\xstring

; 3498 : 		else

  00134	eb 08		 jmp	 SHORT $LN116@Copy
$LN10@Copy:
; File c:\users\alist_000\cppmisc\packages\visualcpptools.14.0.24629\lib\native\include\iosfwd

; 485  : 		return ((_Elem *)_CSTD memcpy(_First1, _First2, _Count));

  00136	48 8b d7	 mov	 rdx, rdi
  00139	e8 00 00 00 00	 call	 memcpy
$LN116@Copy:
; File c:\users\alist_000\cppmisc\packages\visualcpptools.14.0.24629\lib\native\include\xmemory0

; 833  : 		::new ((void *)_Ptr) _Objty(_STD forward<_Types>(_Args)...);

  0013e	48 89 37	 mov	 QWORD PTR [rdi], rsi
; File c:\users\alist_000\cppmisc\packages\visualcpptools.14.0.24629\lib\native\include\xstring

; 3504 : 		_My_data._Myres = _Newres;

  00141	48 89 5f 18	 mov	 QWORD PTR [rdi+24], rbx

; 3505 : 		}

  00145	48 83 c4 38	 add	 rsp, 56			; 00000038H
  00149	41 5e		 pop	 r14
  0014b	5f		 pop	 rdi
  0014c	5e		 pop	 rsi
  0014d	5b		 pop	 rbx
  0014e	c3		 ret	 0
$LN115@Copy:
?_Copy@?$basic_string@DU?$char_traits@D@std@@V?$allocator@D@2@@std@@QEAAX_K@Z ENDP ; std::basic_string<char,std::char_traits<char>,std::allocator<char> >::_Copy
_TEXT	ENDS
;	COMDAT text$x
text$x	SEGMENT
$T1 = 32
this$ = 96
_Newres$ = 104
_Newsize$ = 104
_Oldres$ = 112
_Ptr$ = 120
?catch$16@?0??_Copy@?$basic_string@DU?$char_traits@D@std@@V?$allocator@D@2@@std@@QEAAX_K@Z@4HA PROC ; `std::basic_string<char,std::char_traits<char>,std::allocator<char> >::_Copy'::`1'::catch$16

; 3485 : 		_CATCH_ALL

  00000	48 89 54 24 10	 mov	 QWORD PTR [rsp+16], rdx
  00005	55		 push	 rbp
  00006	48 83 ec 20	 sub	 rsp, 32			; 00000020H
  0000a	48 8b ea	 mov	 rbp, rdx
__catch$?_Copy@?$basic_string@DU?$char_traits@D@std@@V?$allocator@D@2@@std@@QEAAX_K@Z$0:

; 3485 : 		_CATCH_ALL
; 3486 : 			_Newres = _Newsize;	// allocation failed, undo roundup and retry

  0000d	48 8b 55 68	 mov	 rdx, QWORD PTR _Newsize$[rbp]
  00011	48 89 55 68	 mov	 QWORD PTR _Newres$[rbp], rdx

; 3485 : 		_CATCH_ALL
; 3486 : 			_Newres = _Newsize;	// allocation failed, undo roundup and retry
; 3487 : 			_Ptr = _Al.allocate(_Newres + 1);	// if throws, *this unmodified

  00015	48 ff c2	 inc	 rdx
  00018	48 8b 4d 60	 mov	 rcx, QWORD PTR this$[rbp]
  0001c	e8 00 00 00 00	 call	 ?allocate@?$_Wrap_alloc@V?$allocator@D@std@@@std@@QEAAPEAD_K@Z ; std::_Wrap_alloc<std::allocator<char> >::allocate
  00021	48 89 45 78	 mov	 QWORD PTR _Ptr$[rbp], rax

; 3485 : 		_CATCH_ALL
; 3486 : 			_Newres = _Newsize;	// allocation failed, undo roundup and retry
; 3487 : 			_Ptr = _Al.allocate(_Newres + 1);	// if throws, *this unmodified
; 3488 : 		_CATCH_END

  00025	48 8d 05 00 00
	00 00		 lea	 rax, $LN16@catch$16
  0002c	48 83 c4 20	 add	 rsp, 32			; 00000020H
  00030	5d		 pop	 rbp
  00031	c3		 ret	 0
  00032	cc		 int	 3
?catch$16@?0??_Copy@?$basic_string@DU?$char_traits@D@std@@V?$allocator@D@2@@std@@QEAAX_K@Z@4HA ENDP ; `std::basic_string<char,std::char_traits<char>,std::allocator<char> >::_Copy'::`1'::catch$16
text$x	ENDS
; Function compile flags: /Ogtpy
;	COMDAT text$x
text$x	SEGMENT
$T1 = 32
this$ = 96
_Newres$ = 104
_Newsize$ = 104
_Oldres$ = 112
_Ptr$ = 120
?catch$16@?0??_Copy@?$basic_string@DU?$char_traits@D@std@@V?$allocator@D@2@@std@@QEAAX_K@Z@4HA PROC ; `std::basic_string<char,std::char_traits<char>,std::allocator<char> >::_Copy'::`1'::catch$16

; 3485 : 		_CATCH_ALL

  00000	48 89 54 24 10	 mov	 QWORD PTR [rsp+16], rdx
  00005	55		 push	 rbp
  00006	48 83 ec 20	 sub	 rsp, 32			; 00000020H
  0000a	48 8b ea	 mov	 rbp, rdx
__catch$?_Copy@?$basic_string@DU?$char_traits@D@std@@V?$allocator@D@2@@std@@QEAAX_K@Z$0:

; 3486 : 			_Newres = _Newsize;	// allocation failed, undo roundup and retry

  0000d	48 8b 55 68	 mov	 rdx, QWORD PTR _Newsize$[rbp]
  00011	48 89 55 68	 mov	 QWORD PTR _Newres$[rbp], rdx

; 3487 : 			_Ptr = _Al.allocate(_Newres + 1);	// if throws, *this unmodified

  00015	48 ff c2	 inc	 rdx
  00018	48 8b 4d 60	 mov	 rcx, QWORD PTR this$[rbp]
  0001c	e8 00 00 00 00	 call	 ?allocate@?$_Wrap_alloc@V?$allocator@D@std@@@std@@QEAAPEAD_K@Z ; std::_Wrap_alloc<std::allocator<char> >::allocate
  00021	48 89 45 78	 mov	 QWORD PTR _Ptr$[rbp], rax

; 3488 : 		_CATCH_END

  00025	48 8d 05 00 00
	00 00		 lea	 rax, $LN16@catch$16
  0002c	48 83 c4 20	 add	 rsp, 32			; 00000020H
  00030	5d		 pop	 rbp
  00031	c3		 ret	 0
  00032	cc		 int	 3
?catch$16@?0??_Copy@?$basic_string@DU?$char_traits@D@std@@V?$allocator@D@2@@std@@QEAAX_K@Z@4HA ENDP ; `std::basic_string<char,std::char_traits<char>,std::allocator<char> >::_Copy'::`1'::catch$16
text$x	ENDS
; Function compile flags: /Ogtpy
; File c:\users\alist_000\cppmisc\packages\visualcpptools.14.0.24629\lib\native\include\xstring
; File c:\users\alist_000\cppmisc\packages\visualcpptools.14.0.24629\lib\native\include\xstddef
; File c:\users\alist_000\cppmisc\packages\visualcpptools.14.0.24629\lib\native\include\iosfwd
; File c:\users\alist_000\cppmisc\packages\visualcpptools.14.0.24629\lib\native\include\xstring
; File c:\users\alist_000\cppmisc\packages\visualcpptools.14.0.24629\lib\native\include\iosfwd
; File c:\users\alist_000\cppmisc\packages\visualcpptools.14.0.24629\lib\native\include\xstring
; File c:\users\alist_000\cppmisc\packages\visualcpptools.14.0.24629\lib\native\include\xstddef
; File c:\users\alist_000\cppmisc\packages\visualcpptools.14.0.24629\lib\native\include\xstring
; File c:\users\alist_000\cppmisc\packages\visualcpptools.14.0.24629\lib\native\include\iosfwd
; File c:\users\alist_000\cppmisc\packages\visualcpptools.14.0.24629\lib\native\include\xstring
; File c:\users\alist_000\cppmisc\packages\visualcpptools.14.0.24629\lib\native\include\xstddef
; File c:\users\alist_000\cppmisc\packages\visualcpptools.14.0.24629\lib\native\include\iosfwd
; File c:\users\alist_000\cppmisc\packages\visualcpptools.14.0.24629\lib\native\include\xstring
; File c:\users\alist_000\cppmisc\packages\visualcpptools.14.0.24629\lib\native\include\iosfwd
; File c:\users\alist_000\cppmisc\packages\visualcpptools.14.0.24629\lib\native\include\xstring
;	COMDAT ?erase@?$basic_string@DU?$char_traits@D@std@@V?$allocator@D@2@@std@@QEAAAEAV12@_K0@Z
_TEXT	SEGMENT
this$ = 48
_Off$ = 56
_Count$ = 64
?erase@?$basic_string@DU?$char_traits@D@std@@V?$allocator@D@2@@std@@QEAAAEAV12@_K0@Z PROC ; std::basic_string<char,std::char_traits<char>,std::allocator<char> >::erase, COMDAT

; 2557 : 		{	// erase elements [_Off, _Off + _Count)

$LN97:
  00000	48 89 5c 24 08	 mov	 QWORD PTR [rsp+8], rbx
  00005	57		 push	 rdi
  00006	48 83 ec 20	 sub	 rsp, 32			; 00000020H

; 3572 : 		if (this->_Mysize() < _Off)

  0000a	48 8b 79 10	 mov	 rdi, QWORD PTR [rcx+16]

; 2557 : 		{	// erase elements [_Off, _Off + _Count)

  0000e	4d 8b c8	 mov	 r9, r8
  00011	48 8b d9	 mov	 rbx, rcx

; 3572 : 		if (this->_Mysize() < _Off)

  00014	48 3b fa	 cmp	 rdi, rdx
  00017	0f 82 9c 00 00
	00		 jb	 $LN95@erase

; 2558 : 		_Check_offset(_Off);
; 2559 : 		if (this->_Mysize() - _Off <= _Count)

  0001d	48 8b c7	 mov	 rax, rdi
  00020	48 2b c2	 sub	 rax, rdx
  00023	49 3b c0	 cmp	 rax, r8
  00026	77 32		 ja	 SHORT $LN2@erase

; 3510 : 		_Traits::assign(_My_data._Myptr()[_My_data._Mysize = _Newsize], _Elem());

  00028	48 89 51 10	 mov	 QWORD PTR [rcx+16], rdx

; 1638 : 		return (this->_BUF_SIZE <= _Myres);

  0002c	48 83 79 18 10	 cmp	 QWORD PTR [rcx+24], 16

; 1624 : 		return (_Large_string_engaged()

  00031	72 15		 jb	 SHORT $LN38@erase
; File c:\users\alist_000\cppmisc\packages\visualcpptools.14.0.24629\lib\native\include\xstddef

; 642  : 	return (_Ptr);

  00033	48 8b 01	 mov	 rax, QWORD PTR [rcx]
; File c:\users\alist_000\cppmisc\packages\visualcpptools.14.0.24629\lib\native\include\iosfwd

; 516  : 		_Left = _Right;

  00036	c6 04 10 00	 mov	 BYTE PTR [rax+rdx], 0
; File c:\users\alist_000\cppmisc\packages\visualcpptools.14.0.24629\lib\native\include\xstring

; 2570 : 		return (*this);

  0003a	48 8b c1	 mov	 rax, rcx

; 2571 : 		}

  0003d	48 8b 5c 24 30	 mov	 rbx, QWORD PTR [rsp+48]
  00042	48 83 c4 20	 add	 rsp, 32			; 00000020H
  00046	5f		 pop	 rdi
  00047	c3		 ret	 0
$LN38@erase:

; 1624 : 		return (_Large_string_engaged()

  00048	48 8b c3	 mov	 rax, rbx
; File c:\users\alist_000\cppmisc\packages\visualcpptools.14.0.24629\lib\native\include\iosfwd

; 516  : 		_Left = _Right;

  0004b	c6 04 13 00	 mov	 BYTE PTR [rbx+rdx], 0
; File c:\users\alist_000\cppmisc\packages\visualcpptools.14.0.24629\lib\native\include\xstring

; 2571 : 		}

  0004f	48 8b 5c 24 30	 mov	 rbx, QWORD PTR [rsp+48]
  00054	48 83 c4 20	 add	 rsp, 32			; 00000020H
  00058	5f		 pop	 rdi
  00059	c3		 ret	 0
$LN2@erase:

; 2560 : 			{
; 2561 : 			_Eos(_Off);	// erase elements [_Off, ...)
; 2562 : 			}
; 2563 : 		else if (_Count != 0)

  0005a	4d 85 c9	 test	 r9, r9
  0005d	74 4c		 je	 SHORT $LN92@erase

; 1638 : 		return (this->_BUF_SIZE <= _Myres);

  0005f	48 83 79 18 10	 cmp	 QWORD PTR [rcx+24], 16

; 1624 : 		return (_Large_string_engaged()

  00064	72 05		 jb	 SHORT $LN57@erase
; File c:\users\alist_000\cppmisc\packages\visualcpptools.14.0.24629\lib\native\include\xstddef

; 642  : 	return (_Ptr);

  00066	48 8b 01	 mov	 rax, QWORD PTR [rcx]
; File c:\users\alist_000\cppmisc\packages\visualcpptools.14.0.24629\lib\native\include\xstring

; 1624 : 		return (_Large_string_engaged()

  00069	eb 03		 jmp	 SHORT $LN58@erase
$LN57@erase:
  0006b	48 8b c3	 mov	 rax, rbx
$LN58@erase:

; 2564 : 			{	// move elements down
; 2565 : 			value_type *_Ptr = this->_Myptr() + _Off;
; 2566 : 			size_type _Newsize = this->_Mysize() - _Count;

  0006e	49 2b f9	 sub	 rdi, r9
  00071	48 8d 0c 10	 lea	 rcx, QWORD PTR [rax+rdx]

; 2567 : 			_Traits::move(_Ptr, _Ptr + _Count, _Newsize - _Off);

  00075	4c 8b c7	 mov	 r8, rdi
  00078	4c 2b c2	 sub	 r8, rdx
  0007b	4a 8d 14 09	 lea	 rdx, QWORD PTR [rcx+r9]
; File c:\users\alist_000\cppmisc\packages\visualcpptools.14.0.24629\lib\native\include\iosfwd

; 505  : 		return ((_Elem *)_CSTD memmove(_First1, _First2, _Count));

  0007f	e8 00 00 00 00	 call	 memmove
; File c:\users\alist_000\cppmisc\packages\visualcpptools.14.0.24629\lib\native\include\xstring

; 1638 : 		return (this->_BUF_SIZE <= _Myres);

  00084	48 83 7b 18 10	 cmp	 QWORD PTR [rbx+24], 16

; 3510 : 		_Traits::assign(_My_data._Myptr()[_My_data._Mysize = _Newsize], _Elem());

  00089	48 89 7b 10	 mov	 QWORD PTR [rbx+16], rdi

; 1624 : 		return (_Large_string_engaged()

  0008d	72 15		 jb	 SHORT $LN85@erase
; File c:\users\alist_000\cppmisc\packages\visualcpptools.14.0.24629\lib\native\include\xstddef

; 642  : 	return (_Ptr);

  0008f	48 8b 03	 mov	 rax, QWORD PTR [rbx]
; File c:\users\alist_000\cppmisc\packages\visualcpptools.14.0.24629\lib\native\include\iosfwd

; 516  : 		_Left = _Right;

  00092	c6 04 38 00	 mov	 BYTE PTR [rax+rdi], 0
; File c:\users\alist_000\cppmisc\packages\visualcpptools.14.0.24629\lib\native\include\xstring

; 2570 : 		return (*this);

  00096	48 8b c3	 mov	 rax, rbx

; 2571 : 		}

  00099	48 8b 5c 24 30	 mov	 rbx, QWORD PTR [rsp+48]
  0009e	48 83 c4 20	 add	 rsp, 32			; 00000020H
  000a2	5f		 pop	 rdi
  000a3	c3		 ret	 0
$LN85@erase:

; 1624 : 		return (_Large_string_engaged()

  000a4	48 8b c3	 mov	 rax, rbx
; File c:\users\alist_000\cppmisc\packages\visualcpptools.14.0.24629\lib\native\include\iosfwd

; 516  : 		_Left = _Right;

  000a7	c6 04 3b 00	 mov	 BYTE PTR [rbx+rdi], 0
$LN92@erase:
; File c:\users\alist_000\cppmisc\packages\visualcpptools.14.0.24629\lib\native\include\xstring

; 2570 : 		return (*this);

  000ab	48 8b c3	 mov	 rax, rbx

; 2571 : 		}

  000ae	48 8b 5c 24 30	 mov	 rbx, QWORD PTR [rsp+48]
  000b3	48 83 c4 20	 add	 rsp, 32			; 00000020H
  000b7	5f		 pop	 rdi
  000b8	c3		 ret	 0
$LN95@erase:

; 3573 : 			_Xran();

  000b9	e8 00 00 00 00	 call	 ?_Xran@?$basic_string@DU?$char_traits@D@std@@V?$allocator@D@2@@std@@SAXXZ ; std::basic_string<char,std::char_traits<char>,std::allocator<char> >::_Xran
  000be	cc		 int	 3
$LN94@erase:
?erase@?$basic_string@DU?$char_traits@D@std@@V?$allocator@D@2@@std@@QEAAAEAV12@_K0@Z ENDP ; std::basic_string<char,std::char_traits<char>,std::allocator<char> >::erase
_TEXT	ENDS
; Function compile flags: /Ogtpy
; File c:\users\alist_000\cppmisc\packages\visualcpptools.14.0.24629\lib\native\include\xstring
; File c:\users\alist_000\cppmisc\packages\visualcpptools.14.0.24629\lib\native\include\xstddef
; File c:\users\alist_000\cppmisc\packages\visualcpptools.14.0.24629\lib\native\include\iosfwd
; File c:\users\alist_000\cppmisc\packages\visualcpptools.14.0.24629\lib\native\include\xstring
; File c:\users\alist_000\cppmisc\packages\visualcpptools.14.0.24629\lib\native\include\iosfwd
; File c:\users\alist_000\cppmisc\packages\visualcpptools.14.0.24629\lib\native\include\xstring
;	COMDAT ?erase@?$basic_string@DU?$char_traits@D@std@@V?$allocator@D@2@@std@@QEAAAEAV12@_K@Z
_TEXT	SEGMENT
this$ = 48
_Off$ = 56
?erase@?$basic_string@DU?$char_traits@D@std@@V?$allocator@D@2@@std@@QEAAAEAV12@_K@Z PROC ; std::basic_string<char,std::char_traits<char>,std::allocator<char> >::erase, COMDAT

; 2550 : 		{	// erase elements [_Off, ...)

$LN38:
  00000	48 83 ec 28	 sub	 rsp, 40			; 00000028H

; 3572 : 		if (this->_Mysize() < _Off)

  00004	48 39 51 10	 cmp	 QWORD PTR [rcx+16], rdx
  00008	72 26		 jb	 SHORT $LN36@erase

; 3510 : 		_Traits::assign(_My_data._Myptr()[_My_data._Mysize = _Newsize], _Elem());

  0000a	48 89 51 10	 mov	 QWORD PTR [rcx+16], rdx

; 1638 : 		return (this->_BUF_SIZE <= _Myres);

  0000e	48 83 79 18 10	 cmp	 QWORD PTR [rcx+24], 16

; 1624 : 		return (_Large_string_engaged()

  00013	72 0f		 jb	 SHORT $LN26@erase
; File c:\users\alist_000\cppmisc\packages\visualcpptools.14.0.24629\lib\native\include\xstddef

; 642  : 	return (_Ptr);

  00015	48 8b 01	 mov	 rax, QWORD PTR [rcx]
; File c:\users\alist_000\cppmisc\packages\visualcpptools.14.0.24629\lib\native\include\iosfwd

; 516  : 		_Left = _Right;

  00018	c6 04 10 00	 mov	 BYTE PTR [rax+rdx], 0
; File c:\users\alist_000\cppmisc\packages\visualcpptools.14.0.24629\lib\native\include\xstring

; 2553 : 		return (*this);

  0001c	48 8b c1	 mov	 rax, rcx

; 2554 : 		}

  0001f	48 83 c4 28	 add	 rsp, 40			; 00000028H
  00023	c3		 ret	 0
$LN26@erase:

; 1624 : 		return (_Large_string_engaged()

  00024	48 8b c1	 mov	 rax, rcx
; File c:\users\alist_000\cppmisc\packages\visualcpptools.14.0.24629\lib\native\include\iosfwd

; 516  : 		_Left = _Right;

  00027	c6 04 11 00	 mov	 BYTE PTR [rcx+rdx], 0
; File c:\users\alist_000\cppmisc\packages\visualcpptools.14.0.24629\lib\native\include\xstring

; 2554 : 		}

  0002b	48 83 c4 28	 add	 rsp, 40			; 00000028H
  0002f	c3		 ret	 0
$LN36@erase:

; 3573 : 			_Xran();

  00030	e8 00 00 00 00	 call	 ?_Xran@?$basic_string@DU?$char_traits@D@std@@V?$allocator@D@2@@std@@SAXXZ ; std::basic_string<char,std::char_traits<char>,std::allocator<char> >::_Xran
  00035	cc		 int	 3
$LN35@erase:
?erase@?$basic_string@DU?$char_traits@D@std@@V?$allocator@D@2@@std@@QEAAAEAV12@_K@Z ENDP ; std::basic_string<char,std::char_traits<char>,std::allocator<char> >::erase
_TEXT	ENDS
; Function compile flags: /Ogtpy
; File c:\users\alist_000\cppmisc\packages\visualcpptools.14.0.24629\lib\native\include\xmemory0
;	COMDAT ?deallocate@?$allocator@D@std@@QEAAXPEAD_K@Z
_TEXT	SEGMENT
this$ = 48
_Ptr$ = 56
_Count$ = 64
?deallocate@?$allocator@D@std@@QEAAXPEAD_K@Z PROC	; std::allocator<char>::deallocate, COMDAT

; 815  : 		{	// deallocate object at _Ptr

$LN18:
  00000	48 83 ec 28	 sub	 rsp, 40			; 00000028H

; 98   : 	if (_BIG_ALLOCATION_THRESHOLD <= _User_size)

  00004	49 81 f8 00 10
	00 00		 cmp	 r8, 4096		; 00001000H
  0000b	72 20		 jb	 SHORT $LN5@deallocate

; 99   : 		{	// deallocate large block
; 100  : 		const uintptr_t _Ptr_user = reinterpret_cast<uintptr_t>(_Ptr);
; 101  : 		_SCL_SECURE_ALWAYS_VALIDATE(

  0000d	f6 c2 1f	 test	 dl, 31
  00010	75 27		 jne	 SHORT $LN13@deallocate

; 102  : 			(_Ptr_user & (_BIG_ALLOCATION_ALIGNMENT - 1)) == 0);
; 103  : 		const uintptr_t _Ptr_ptr = _Ptr_user - sizeof(void *);
; 104  : 		const uintptr_t _Ptr_container =
; 105  : 			*reinterpret_cast<uintptr_t *>(_Ptr_ptr);

  00012	48 8b 42 f8	 mov	 rax, QWORD PTR [rdx-8]

; 106  : 
; 107  :  #ifdef _DEBUG
; 108  : 		// If the following asserts, it likely means that we are performing
; 109  : 		// an aligned delete on memory coming from an unaligned allocation.
; 110  : 		_SCL_SECURE_ALWAYS_VALIDATE(
; 111  : 			reinterpret_cast<uintptr_t *>(_Ptr_ptr)[-1] ==
; 112  : 				_BIG_ALLOCATION_SENTINEL);
; 113  :  #endif /* _DEBUG */
; 114  : 
; 115  : 		// Extra paranoia on aligned allocation/deallocation
; 116  : 		_SCL_SECURE_ALWAYS_VALIDATE(_Ptr_container < _Ptr_user);

  00016	48 3b c2	 cmp	 rax, rdx
  00019	73 24		 jae	 SHORT $LN15@deallocate

; 117  : 
; 118  :  #ifdef _DEBUG
; 119  : 		_SCL_SECURE_ALWAYS_VALIDATE(2 * sizeof(void *)
; 120  : 			<= _Ptr_user - _Ptr_container);
; 121  : 
; 122  :  #else /* _DEBUG */
; 123  : 		_SCL_SECURE_ALWAYS_VALIDATE(sizeof(void *)

  0001b	48 2b d0	 sub	 rdx, rax
  0001e	48 83 fa 08	 cmp	 rdx, 8
  00022	72 21		 jb	 SHORT $LN16@deallocate

; 124  : 			<= _Ptr_user - _Ptr_container);
; 125  :  #endif /* _DEBUG */
; 126  : 
; 127  : 		_SCL_SECURE_ALWAYS_VALIDATE(_Ptr_user - _Ptr_container

  00024	48 83 fa 27	 cmp	 rdx, 39			; 00000027H
  00028	77 21		 ja	 SHORT $LN17@deallocate

; 128  : 			<= _NON_USER_SIZE);
; 129  : 
; 130  : 		_Ptr = reinterpret_cast<void *>(_Ptr_container);

  0002a	48 8b d0	 mov	 rdx, rax
$LN5@deallocate:

; 131  : 		}
; 132  :  #endif /* defined(_M_IX86) || defined(_M_X64) */
; 133  : 
; 134  : 	::operator delete(_Ptr);

  0002d	48 8b ca	 mov	 rcx, rdx

; 816  : 		_Deallocate(_Ptr, _Count, sizeof (_Ty));
; 817  : 		}

  00030	48 83 c4 28	 add	 rsp, 40			; 00000028H

; 134  : 	::operator delete(_Ptr);

  00034	e9 00 00 00 00	 jmp	 ??3@YAXPEAX@Z		; operator delete
$LN13@deallocate:

; 99   : 		{	// deallocate large block
; 100  : 		const uintptr_t _Ptr_user = reinterpret_cast<uintptr_t>(_Ptr);
; 101  : 		_SCL_SECURE_ALWAYS_VALIDATE(

  00039	e8 00 00 00 00	 call	 _invalid_parameter_noinfo_noreturn
  0003e	cc		 int	 3
$LN15@deallocate:

; 106  : 
; 107  :  #ifdef _DEBUG
; 108  : 		// If the following asserts, it likely means that we are performing
; 109  : 		// an aligned delete on memory coming from an unaligned allocation.
; 110  : 		_SCL_SECURE_ALWAYS_VALIDATE(
; 111  : 			reinterpret_cast<uintptr_t *>(_Ptr_ptr)[-1] ==
; 112  : 				_BIG_ALLOCATION_SENTINEL);
; 113  :  #endif /* _DEBUG */
; 114  : 
; 115  : 		// Extra paranoia on aligned allocation/deallocation
; 116  : 		_SCL_SECURE_ALWAYS_VALIDATE(_Ptr_container < _Ptr_user);

  0003f	e8 00 00 00 00	 call	 _invalid_parameter_noinfo_noreturn
  00044	cc		 int	 3
$LN16@deallocate:

; 117  : 
; 118  :  #ifdef _DEBUG
; 119  : 		_SCL_SECURE_ALWAYS_VALIDATE(2 * sizeof(void *)
; 120  : 			<= _Ptr_user - _Ptr_container);
; 121  : 
; 122  :  #else /* _DEBUG */
; 123  : 		_SCL_SECURE_ALWAYS_VALIDATE(sizeof(void *)

  00045	e8 00 00 00 00	 call	 _invalid_parameter_noinfo_noreturn
  0004a	cc		 int	 3
$LN17@deallocate:

; 124  : 			<= _Ptr_user - _Ptr_container);
; 125  :  #endif /* _DEBUG */
; 126  : 
; 127  : 		_SCL_SECURE_ALWAYS_VALIDATE(_Ptr_user - _Ptr_container

  0004b	e8 00 00 00 00	 call	 _invalid_parameter_noinfo_noreturn
  00050	cc		 int	 3
$LN12@deallocate:
?deallocate@?$allocator@D@std@@QEAAXPEAD_K@Z ENDP	; std::allocator<char>::deallocate
_TEXT	ENDS
; Function compile flags: /Ogtpy
; File c:\users\alist_000\cppmisc\packages\visualcpptools.14.0.24629\lib\native\include\xmemory0
;	COMDAT ??0?$allocator@D@std@@QEAA@AEBV01@@Z
_TEXT	SEGMENT
this$ = 8
__formal$ = 16
??0?$allocator@D@std@@QEAA@AEBV01@@Z PROC		; std::allocator<char>::allocator<char>, COMDAT

; 800  : 		{	// construct by copying (do nothing)
; 801  : 		}

  00000	48 8b c1	 mov	 rax, rcx
  00003	c3		 ret	 0
??0?$allocator@D@std@@QEAA@AEBV01@@Z ENDP		; std::allocator<char>::allocator<char>
_TEXT	ENDS
; Function compile flags: /Ogtpy
; File c:\users\alist_000\cppmisc\packages\visualcpptools.14.0.24629\lib\native\include\xmemory0
;	COMDAT ?allocate@?$_Wrap_alloc@V?$allocator@D@std@@@std@@QEAAPEAD_K@Z
_TEXT	SEGMENT
this$ = 48
_Count$ = 56
?allocate@?$_Wrap_alloc@V?$allocator@D@std@@@std@@QEAAPEAD_K@Z PROC ; std::_Wrap_alloc<std::allocator<char> >::allocate, COMDAT

; 1069 : 		{	// allocate array of _Count elements

$LN19:
  00000	48 83 ec 28	 sub	 rsp, 40			; 00000028H

; 53   : 	if (_Count == 0)

  00004	48 85 d2	 test	 rdx, rdx
  00007	75 09		 jne	 SHORT $LN6@allocate

; 54   : 		return (_Ptr);

  00009	33 c9		 xor	 ecx, ecx

; 1070 : 		return (_Mybase::allocate(_Count));

  0000b	8b c1		 mov	 eax, ecx

; 1071 : 		}

  0000d	48 83 c4 28	 add	 rsp, 40			; 00000028H
  00011	c3		 ret	 0
$LN6@allocate:

; 63   : 		&& _BIG_ALLOCATION_THRESHOLD <= _User_size)

  00012	48 81 fa 00 10
	00 00		 cmp	 rdx, 4096		; 00001000H
  00019	72 22		 jb	 SHORT $LN8@allocate

; 64   : 		{	// allocate large block
; 65   : 		static_assert(sizeof (void *) < _BIG_ALLOCATION_ALIGNMENT,
; 66   : 			"Big allocations should at least match vector register size");
; 67   : 		const size_t _Block_size = _NON_USER_SIZE + _User_size;

  0001b	48 8d 4a 27	 lea	 rcx, QWORD PTR [rdx+39]

; 68   : 		if (_Block_size <= _User_size)

  0001f	48 3b ca	 cmp	 rcx, rdx
  00022	76 29		 jbe	 SHORT $LN17@allocate

; 70   : 		const uintptr_t _Ptr_container =
; 71   : 			reinterpret_cast<uintptr_t>(::operator new(_Block_size));

  00024	e8 00 00 00 00	 call	 ??2@YAPEAX_K@Z		; operator new

; 72   : 		_SCL_SECURE_ALWAYS_VALIDATE(_Ptr_container != 0);
; 73   : 		_Ptr = reinterpret_cast<void *>((_Ptr_container + _NON_USER_SIZE)

  00029	48 8d 48 27	 lea	 rcx, QWORD PTR [rax+39]
  0002d	48 83 e1 e0	 and	 rcx, -32		; ffffffffffffffe0H

; 74   : 			& ~(_BIG_ALLOCATION_ALIGNMENT - 1));
; 75   : 		static_cast<uintptr_t *>(_Ptr)[-1] = _Ptr_container;

  00031	48 89 41 f8	 mov	 QWORD PTR [rcx-8], rax

; 1070 : 		return (_Mybase::allocate(_Count));

  00035	48 8b c1	 mov	 rax, rcx

; 1071 : 		}

  00038	48 83 c4 28	 add	 rsp, 40			; 00000028H
  0003c	c3		 ret	 0
$LN8@allocate:

; 85   : 		_Ptr = ::operator new(_User_size);

  0003d	48 8b ca	 mov	 rcx, rdx
  00040	e8 00 00 00 00	 call	 ??2@YAPEAX_K@Z		; operator new
  00045	48 8b c8	 mov	 rcx, rax

; 1071 : 		}

  00048	48 83 c4 28	 add	 rsp, 40			; 00000028H
  0004c	c3		 ret	 0
$LN17@allocate:

; 69   : 			_Xbad_alloc();	// report no memory

  0004d	e8 00 00 00 00	 call	 ?_Xbad_alloc@std@@YAXXZ	; std::_Xbad_alloc
  00052	cc		 int	 3
$LN16@allocate:
?allocate@?$_Wrap_alloc@V?$allocator@D@std@@@std@@QEAAPEAD_K@Z ENDP ; std::_Wrap_alloc<std::allocator<char> >::allocate
_TEXT	ENDS
; Function compile flags: /Ogtpy
; File c:\users\alist_000\cppmisc\packages\visualcpptools.14.0.24629\lib\native\include\xstring
;	COMDAT ?max_size@?$basic_string@DU?$char_traits@D@std@@V?$allocator@D@2@@std@@QEBA_KXZ
_TEXT	SEGMENT
this$ = 8
?max_size@?$basic_string@DU?$char_traits@D@std@@V?$allocator@D@2@@std@@QEBA_KXZ PROC ; std::basic_string<char,std::char_traits<char>,std::allocator<char> >::max_size, COMDAT

; 3023 : 		const size_type _Num = this->_Getal().max_size();
; 3024 : 		return (_Num <= 1 ? 1 : _Num - 1);

  00000	48 c7 c0 fe ff
	ff ff		 mov	 rax, -2

; 3025 : 		}

  00007	c3		 ret	 0
?max_size@?$basic_string@DU?$char_traits@D@std@@V?$allocator@D@2@@std@@QEBA_KXZ ENDP ; std::basic_string<char,std::char_traits<char>,std::allocator<char> >::max_size
_TEXT	ENDS
; Function compile flags: /Ogtpy
; File c:\users\alist_000\cppmisc\packages\visualcpptools.14.0.24629\lib\native\include\xmemory0
;	COMDAT ?max_size@?$_Wrap_alloc@V?$allocator@D@std@@@std@@QEBA_KU_Nil@2@@Z
_TEXT	SEGMENT
this$ = 8
__formal$ = 16
?max_size@?$_Wrap_alloc@V?$allocator@D@std@@@std@@QEBA_KU_Nil@2@@Z PROC ; std::_Wrap_alloc<std::allocator<char> >::max_size, COMDAT

; 1101 : 		return (_Mytraits::max_size(*this));

  00000	48 83 c8 ff	 or	 rax, -1

; 1102 : 		}

  00004	c3		 ret	 0
?max_size@?$_Wrap_alloc@V?$allocator@D@std@@@std@@QEBA_KU_Nil@2@@Z ENDP ; std::_Wrap_alloc<std::allocator<char> >::max_size
_TEXT	ENDS
; Function compile flags: /Ogtpy
; File c:\users\alist_000\cppmisc\packages\visualcpptools.14.0.24629\lib\native\include\xmemory0
;	COMDAT ?allocate@?$allocator@D@std@@QEAAPEAD_K@Z
_TEXT	SEGMENT
this$ = 48
_Count$ = 56
?allocate@?$allocator@D@std@@QEAAPEAD_K@Z PROC		; std::allocator<char>::allocate, COMDAT

; 820  : 		{	// allocate array of _Count elements

$LN16:
  00000	48 83 ec 28	 sub	 rsp, 40			; 00000028H

; 53   : 	if (_Count == 0)

  00004	48 85 d2	 test	 rdx, rdx
  00007	75 09		 jne	 SHORT $LN4@allocate

; 54   : 		return (_Ptr);

  00009	33 c9		 xor	 ecx, ecx

; 821  : 		return (static_cast<pointer>(_Allocate(_Count, sizeof (_Ty))));

  0000b	8b c1		 mov	 eax, ecx

; 822  : 		}

  0000d	48 83 c4 28	 add	 rsp, 40			; 00000028H
  00011	c3		 ret	 0
$LN4@allocate:

; 63   : 		&& _BIG_ALLOCATION_THRESHOLD <= _User_size)

  00012	48 81 fa 00 10
	00 00		 cmp	 rdx, 4096		; 00001000H
  00019	72 22		 jb	 SHORT $LN6@allocate

; 64   : 		{	// allocate large block
; 65   : 		static_assert(sizeof (void *) < _BIG_ALLOCATION_ALIGNMENT,
; 66   : 			"Big allocations should at least match vector register size");
; 67   : 		const size_t _Block_size = _NON_USER_SIZE + _User_size;

  0001b	48 8d 4a 27	 lea	 rcx, QWORD PTR [rdx+39]

; 68   : 		if (_Block_size <= _User_size)

  0001f	48 3b ca	 cmp	 rcx, rdx
  00022	76 29		 jbe	 SHORT $LN14@allocate

; 70   : 		const uintptr_t _Ptr_container =
; 71   : 			reinterpret_cast<uintptr_t>(::operator new(_Block_size));

  00024	e8 00 00 00 00	 call	 ??2@YAPEAX_K@Z		; operator new

; 72   : 		_SCL_SECURE_ALWAYS_VALIDATE(_Ptr_container != 0);
; 73   : 		_Ptr = reinterpret_cast<void *>((_Ptr_container + _NON_USER_SIZE)

  00029	48 8d 48 27	 lea	 rcx, QWORD PTR [rax+39]
  0002d	48 83 e1 e0	 and	 rcx, -32		; ffffffffffffffe0H

; 74   : 			& ~(_BIG_ALLOCATION_ALIGNMENT - 1));
; 75   : 		static_cast<uintptr_t *>(_Ptr)[-1] = _Ptr_container;

  00031	48 89 41 f8	 mov	 QWORD PTR [rcx-8], rax

; 821  : 		return (static_cast<pointer>(_Allocate(_Count, sizeof (_Ty))));

  00035	48 8b c1	 mov	 rax, rcx

; 822  : 		}

  00038	48 83 c4 28	 add	 rsp, 40			; 00000028H
  0003c	c3		 ret	 0
$LN6@allocate:

; 85   : 		_Ptr = ::operator new(_User_size);

  0003d	48 8b ca	 mov	 rcx, rdx
  00040	e8 00 00 00 00	 call	 ??2@YAPEAX_K@Z		; operator new
  00045	48 8b c8	 mov	 rcx, rax

; 822  : 		}

  00048	48 83 c4 28	 add	 rsp, 40			; 00000028H
  0004c	c3		 ret	 0
$LN14@allocate:

; 69   : 			_Xbad_alloc();	// report no memory

  0004d	e8 00 00 00 00	 call	 ?_Xbad_alloc@std@@YAXXZ	; std::_Xbad_alloc
  00052	cc		 int	 3
$LN13@allocate:
?allocate@?$allocator@D@std@@QEAAPEAD_K@Z ENDP		; std::allocator<char>::allocate
_TEXT	ENDS
; Function compile flags: /Ogtpy
; File c:\users\alist_000\cppmisc\packages\visualcpptools.14.0.24629\lib\native\include\xmemory0
;	COMDAT ?max_size@?$allocator_traits@V?$allocator@D@std@@@std@@SA_KAEBV?$allocator@D@2@@Z
_TEXT	SEGMENT
_Al$ = 8
?max_size@?$allocator_traits@V?$allocator@D@std@@@std@@SA_KAEBV?$allocator@D@2@@Z PROC ; std::allocator_traits<std::allocator<char> >::max_size, COMDAT

; 963  : 		return (_Al.max_size());

  00000	48 83 c8 ff	 or	 rax, -1

; 964  : 		}

  00004	c3		 ret	 0
?max_size@?$allocator_traits@V?$allocator@D@std@@@std@@SA_KAEBV?$allocator@D@2@@Z ENDP ; std::allocator_traits<std::allocator<char> >::max_size
_TEXT	ENDS
; Function compile flags: /Ogtpy
; File c:\users\alist_000\cppmisc\packages\visualcpptools.14.0.24629\lib\native\include\xmemory0
;	COMDAT ?max_size@?$allocator@D@std@@QEBA_KXZ
_TEXT	SEGMENT
this$ = 8
?max_size@?$allocator@D@std@@QEBA_KXZ PROC		; std::allocator<char>::max_size, COMDAT

; 844  : 		return ((size_t)(-1) / sizeof (_Ty));

  00000	48 83 c8 ff	 or	 rax, -1

; 845  : 		}

  00004	c3		 ret	 0
?max_size@?$allocator@D@std@@QEBA_KXZ ENDP		; std::allocator<char>::max_size
_TEXT	ENDS
; Function compile flags: /Ogtpy
; File c:\users\alist_000\cppmisc\packages\visualcpptools.14.0.24629\lib\native\include\xlocale
;	COMDAT ??$use_facet@V?$ctype@D@std@@@std@@YAAEBV?$ctype@D@0@AEBVlocale@0@@Z
_TEXT	SEGMENT
$T1 = 32
$T2 = 40
_Lock$3 = 96
_Loc$ = 96
_Lock$4 = 104
_Psave$5 = 112
??$use_facet@V?$ctype@D@std@@@std@@YAAEBV?$ctype@D@0@AEBVlocale@0@@Z PROC ; std::use_facet<std::ctype<char> >, COMDAT

; 511  : 	{	// get facet reference from locale

$LN32:
  00000	40 55		 push	 rbp
  00002	56		 push	 rsi
  00003	57		 push	 rdi
  00004	48 83 ec 40	 sub	 rsp, 64			; 00000040H
  00008	48 c7 44 24 20
	fe ff ff ff	 mov	 QWORD PTR $T1[rsp], -2
  00011	48 89 5c 24 78	 mov	 QWORD PTR [rsp+120], rbx
  00016	48 8b e9	 mov	 rbp, rcx

; 512  : 	_BEGIN_LOCK(_LOCK_LOCALE)	// the thread lock, make get atomic

  00019	33 d2		 xor	 edx, edx
  0001b	48 8d 4c 24 68	 lea	 rcx, QWORD PTR _Lock$4[rsp]
  00020	e8 00 00 00 00	 call	 ??0_Lockit@std@@QEAA@H@Z ; std::_Lockit::_Lockit
  00025	90		 npad	 1

; 513  : 		const locale::facet *_Psave =
; 514  : 			_Facetptr<_Facet>::_Psave;	// static pointer to lazy facet

  00026	48 8b 35 00 00
	00 00		 mov	 rsi, QWORD PTR ?_Psave@?$_Facetptr@V?$ctype@D@std@@@std@@2PEBVfacet@locale@2@EB ; std::_Facetptr<std::ctype<char> >::_Psave
  0002d	48 89 74 24 70	 mov	 QWORD PTR _Psave$5[rsp], rsi

; 115  : 			if (_Id == 0)

  00032	48 8b 1d 00 00
	00 00		 mov	 rbx, QWORD PTR ?id@?$ctype@D@std@@2V0locale@2@A ; std::ctype<char>::id
  00039	48 85 db	 test	 rbx, rbx
  0003c	75 3d		 jne	 SHORT $LN13@use_facet

; 116  : 				{	// still zero, allocate stamp
; 117  : 				_BEGIN_LOCK(_LOCK_LOCALE)

  0003e	33 d2		 xor	 edx, edx
  00040	48 8d 4c 24 60	 lea	 rcx, QWORD PTR _Lock$3[rsp]
  00045	e8 00 00 00 00	 call	 ??0_Lockit@std@@QEAA@H@Z ; std::_Lockit::_Lockit

; 118  : 					if (_Id == 0)

  0004a	48 39 1d 00 00
	00 00		 cmp	 QWORD PTR ?id@?$ctype@D@std@@2V0locale@2@A, rbx ; std::ctype<char>::id
  00051	75 17		 jne	 SHORT $LN14@use_facet

; 119  : 						_Id = ++_Id_cnt;

  00053	8b 05 00 00 00
	00		 mov	 eax, DWORD PTR ?_Id_cnt@id@locale@std@@0HA ; std::locale::id::_Id_cnt
  00059	ff c0		 inc	 eax
  0005b	89 05 00 00 00
	00		 mov	 DWORD PTR ?_Id_cnt@id@locale@std@@0HA, eax ; std::locale::id::_Id_cnt
  00061	48 98		 cdqe
  00063	48 89 05 00 00
	00 00		 mov	 QWORD PTR ?id@?$ctype@D@std@@2V0locale@2@A, rax ; std::ctype<char>::id
$LN14@use_facet:

; 120  : 				_END_LOCK()

  0006a	48 8d 4c 24 60	 lea	 rcx, QWORD PTR _Lock$3[rsp]
  0006f	e8 00 00 00 00	 call	 ??1_Lockit@std@@QEAA@XZ	; std::_Lockit::~_Lockit
  00074	48 8b 1d 00 00
	00 00		 mov	 rbx, QWORD PTR ?id@?$ctype@D@std@@2V0locale@2@A ; std::ctype<char>::id
$LN13@use_facet:

; 437  : 		const facet *_Facptr = _Id < _Ptr->_Facetcount

  0007b	48 8b 4d 08	 mov	 rcx, QWORD PTR [rbp+8]
  0007f	48 3b 59 18	 cmp	 rbx, QWORD PTR [rcx+24]
  00083	73 13		 jae	 SHORT $LN22@use_facet
  00085	48 8b 41 10	 mov	 rax, QWORD PTR [rcx+16]
  00089	48 8b 3c d8	 mov	 rdi, QWORD PTR [rax+rbx*8]

; 438  : 			? _Ptr->_Facetvec[_Id] : 0;	// null if id off end
; 439  : 		if (_Facptr != 0 || !_Ptr->_Xparent)

  0008d	48 85 ff	 test	 rdi, rdi
  00090	0f 85 96 00 00
	00		 jne	 $LN7@use_facet
  00096	eb 02		 jmp	 SHORT $LN28@use_facet
$LN22@use_facet:

; 151  : 			}
; 152  : 
; 153  : 		virtual _Facet_base *__CLR_OR_THIS_CALL _Decref()
; 154  : 			{	// decrement use count
; 155  : 			if (_MT_DECR(_Myrefs) == 0)
; 156  : 				return (this);
; 157  : 			else
; 158  : 				return (0);
; 159  : 			}
; 160  : 
; 161  : 	private:
; 162  : 		_Atomic_counter_t _Myrefs;	// the reference count
; 163  : 
; 164  : 	protected:
; 165  : 		explicit __CLR_OR_THIS_CALL facet(size_t _Initrefs = 0)
; 166  : 			: _Myrefs(static_cast<_Atomic_integral_t>(_Initrefs))	// non-atomic initialization
; 167  : 			{	// construct with initial reference count
; 168  : 			}
; 169  : 
; 170  : 		virtual __CLR_OR_THIS_CALL ~facet() _NOEXCEPT
; 171  : 			{	// ensure that derived classes can be destroyed properly
; 172  : 			}
; 173  : 
; 174  : 	public:
; 175  : 		__CLR_OR_THIS_CALL facet(const facet&) = delete;
; 176  : 		facet& __CLR_OR_THIS_CALL operator=(const facet&) = delete;
; 177  : 		};
; 178  : 
; 179  : 			// CLASS _Locimp
; 180  :  #pragma warning(push)
; 181  :  #pragma warning(disable: 4275)
; 182  : 
; 183  : 	class _CRTIMP2_PURE _Locimp
; 184  : 		: public facet
; 185  : 		{	// reference-counted actual implementation of a locale
; 186  : 	protected:
; 187  : 		__CLR_OR_THIS_CALL ~_Locimp() _NOEXCEPT
; 188  : 		{	// destroy the object
; 189  : 		_Locimp_dtor(this);
; 190  : 		}
; 191  : 
; 192  : 	private:
; 193  : 		static _MRTIMP2_PURE_NPURE _Locimp *__CLRCALL_PURE_OR_CDECL
; 194  : 			_New_Locimp(bool _Transparent = false);
; 195  : 		static _MRTIMP2_PURE_NPURE _Locimp *__CLRCALL_PURE_OR_CDECL
; 196  : 			_New_Locimp(const _Locimp& _Right);
; 197  : 
; 198  : 		static _MRTIMP2_PURE_NPURE void __CLRCALL_PURE_OR_CDECL
; 199  : 			_Locimp_dtor(_Locimp *);
; 200  : 		static _MRTIMP2_PURE_NPURE void __CLRCALL_PURE_OR_CDECL
; 201  : 			_Locimp_Addfac(_Locimp *, facet *, size_t);	// add a facet
; 202  : 		static void __CLRCALL_PURE_OR_CDECL
; 203  : 			_Locimp_ctor(_Locimp *, const _Locimp&);
; 204  : 
; 205  : 		friend class locale;
; 206  : 
; 207  : 		__CLR_OR_THIS_CALL _Locimp(bool _Transparent)
; 208  : 			: locale::facet(1), _Facetvec(0), _Facetcount(0),
; 209  : 				_Catmask(none), _Xparent(_Transparent),
; 210  : 					_Name("*")
; 211  : 			{	// construct an empty _Locimp
; 212  : 			}
; 213  : 
; 214  : 		__CLR_OR_THIS_CALL _Locimp(const _Locimp& _Right)
; 215  : 			: locale::facet(1), _Facetvec(0), _Facetcount(_Right._Facetcount),
; 216  : 				_Catmask(_Right._Catmask), _Xparent(_Right._Xparent),
; 217  : 					_Name(_Right._Name.c_str())
; 218  : 			{	// construct by copying
; 219  : 			_Locimp_ctor(this, _Right);
; 220  : 			}
; 221  : 
; 222  : 		void __CLR_OR_THIS_CALL _Addfac(facet *_Pfacet, size_t _Id)
; 223  : 			{	// add a facet
; 224  : 			_Locimp_Addfac(this, _Pfacet, _Id);
; 225  : 			}
; 226  : 
; 227  : 		static _Locimp *__CLRCALL_OR_CDECL _Makeloc(const _Locinfo&,
; 228  : 			category, _Locimp *, const locale *);	// make essential facets
; 229  : 
; 230  : 		static void __CLRCALL_OR_CDECL _Makewloc(const _Locinfo&,
; 231  : 			category, _Locimp *, const locale *);	// make wchar_t facets
; 232  : 
; 233  :  #ifdef _NATIVE_WCHAR_T_DEFINED
; 234  : 		static void __CLRCALL_OR_CDECL _Makeushloc(const _Locinfo&,
; 235  : 			category, _Locimp *, const locale *);	// make ushort facets
; 236  :  #endif /* _NATIVE_WCHAR_T_DEFINED */
; 237  : 
; 238  : 		static void __CLRCALL_OR_CDECL _Makexloc(const _Locinfo&,
; 239  : 			category, _Locimp *, const locale *);	// make remaining facets
; 240  : 
; 241  : 		facet **_Facetvec;	// pointer to vector of facets
; 242  : 		size_t _Facetcount;	// size of vector of facets
; 243  : 		category _Catmask;	// mask describing implemented categories
; 244  : 		bool _Xparent;	// true if locale is transparent
; 245  : 		_Yarn<char> _Name;	// locale name, or "*" if not known
; 246  : 
; 247  : 		__PURE_APPDOMAIN_GLOBAL static _Locimp *_Clocptr;
; 248  : 
; 249  : public:
; 250  : 		_Locimp& __CLR_OR_THIS_CALL operator=(const _Locimp&) = delete;
; 251  : 		};
; 252  : 
; 253  :  #pragma warning(pop)
; 254  : 
; 255  : 	template<class _Elem,
; 256  : 		class _Traits,
; 257  : 		class _Alloc>
; 258  : 		bool operator()(const basic_string<_Elem, _Traits, _Alloc>& _Left,
; 259  : 			const basic_string<_Elem, _Traits, _Alloc>& _Right) const
; 260  : 		{	// compare _Left and _Right strings using collate facet in locale
; 261  : 		const _STD collate<_Elem>& _Coll_fac =
; 262  : 			use_facet< _STD collate<_Elem> >(*this);
; 263  : 
; 264  : 		return (_Coll_fac.compare(_Left.c_str(), _Left.c_str() + _Left.size(),
; 265  : 			_Right.c_str(), _Right.c_str() + _Right.size()) < 0);
; 266  : 		}
; 267  : 
; 268  : 	template<class _Facet>
; 269  : 		locale combine(const locale& _Loc) const
; 270  : 		{	// combine two locales
; 271  : 		_Facet *_Facptr;
; 272  : 
; 273  : 		_TRY_BEGIN
; 274  : 			_Facptr = (_Facet *)&use_facet<_Facet>(_Loc);
; 275  : 		_CATCH_ALL
; 276  : 			_Xruntime_error("locale::combine facet missing");
; 277  : 		_CATCH_END
; 278  : 
; 279  : 		_Locimp *_Newimp = _Locimp::_New_Locimp(*_Ptr);
; 280  : 		_Newimp->_Addfac(_Facptr, _Facet::id);
; 281  : 		_Newimp->_Catmask = none;
; 282  : 		_Newimp->_Name = "*";
; 283  : 		return (locale(_Newimp));
; 284  : 		}
; 285  : 
; 286  : 	template<class _Facet>
; 287  : 		locale(const locale& _Loc, const _Facet *_Facptr)
; 288  : 			: _Ptr(_Locimp::_New_Locimp(*_Loc._Ptr))
; 289  : 		{	// construct from _Loc, replacing facet with *_Facptr
; 290  : 		if (_Facptr != 0)
; 291  : 			{	// replace facet
; 292  : 			_Ptr->_Addfac((_Facet *)_Facptr, _Facet::id);
; 293  : 			_Ptr->_Catmask = none;
; 294  : 			_Ptr->_Name = "*";
; 295  : 			}
; 296  : 		}
; 297  : 
; 298  : 	locale(_Uninitialized)
; 299  : 		{	// defer construction
; 300  : 		}
; 301  : 
; 302  : 	locale(const locale& _Right) _THROW0()
; 303  : 		: _Ptr(_Right._Ptr)
; 304  : 		{	// construct by copying
; 305  : 		_Ptr->_Incref();
; 306  : 		}
; 307  : 
; 308  : 	locale() _THROW0()
; 309  : 		: _Ptr(_Init(true))
; 310  : 		{	// construct from current locale
; 311  : 		}
; 312  : 
; 313  :  #if !defined(MRTDLL) || !defined(_CRTBLD)
; 314  : 	locale(const locale& _Loc, const locale& _Other,
; 315  : 		category _Cat)
; 316  : 		: _Ptr(_Locimp::_New_Locimp(*_Loc._Ptr))
; 317  : 		{	// construct a locale by copying named facets
; 318  : 		if (_Cat != none)
; 319  : 			{	// worth adding, do it
; 320  : 			_TRY_BEGIN
; 321  : 				_BEGIN_LOCINFO(_Lobj)
; 322  : 					_Locimp::_Makeloc(_Lobj, _Cat, _Ptr, &_Other);
; 323  : 					_Lobj._Addcats(_Loc._Ptr->_Catmask,
; 324  : 						_Loc.name().c_str());
; 325  : 					_Lobj._Addcats(_Other._Ptr->_Catmask,
; 326  : 						_Other.name().c_str());
; 327  : 					_Ptr->_Catmask = _Loc._Ptr->_Catmask
; 328  : 						| _Other._Ptr->_Catmask;
; 329  : 					_Ptr->_Name = _Lobj._Getname();
; 330  : 				_END_LOCINFO()
; 331  : 			_CATCH_ALL
; 332  : 			delete _Ptr->_Decref();
; 333  : 			_RERAISE;
; 334  : 			_CATCH_END
; 335  : 			}
; 336  : 		}
; 337  : 
; 338  : private:
; 339  : 	void _Construct(const string &_Str,
; 340  : 		category _Cat)
; 341  : 		{	// construct a locale with named facets
; 342  : 		bool _Bad = false;
; 343  : 		_Init();
; 344  : 		if (_Cat != none)
; 345  : 			{	// worth adding, do it
; 346  : 			_TRY_BEGIN
; 347  : 				_BEGIN_LOCINFO(_Lobj(_Cat, _Str.c_str()))
; 348  : 					if (_Badname(_Lobj))
; 349  : 						_Bad = true;
; 350  : 					else
; 351  : 						{	// name okay, build the locale
; 352  : 						_Locimp::_Makeloc(_Lobj, _Cat, _Ptr, 0);
; 353  : 						_Ptr->_Catmask = _Cat;
; 354  : 						_Ptr->_Name = _Str.c_str();
; 355  : 						}
; 356  : 				_END_LOCINFO()
; 357  : 			_CATCH_ALL
; 358  : 			delete _Ptr->_Decref();
; 359  : 			_RERAISE;
; 360  : 			_CATCH_END
; 361  : 			}
; 362  : 
; 363  : 		if (_Bad)
; 364  : 			{	// Don't throw within _BEGIN_LOCINFO if we can avoid it
; 365  : 			delete _Ptr->_Decref();
; 366  : 			_Xruntime_error("bad locale name");
; 367  : 			}
; 368  : 		}
; 369  : 
; 370  : public:
; 371  : 	explicit locale(const char *_Locname,
; 372  : 		category _Cat = all)
; 373  : 		: _Ptr(_Locimp::_New_Locimp())
; 374  : 		{	// construct a locale with named facets
; 375  : 		// _Locname might have been returned from setlocale().
; 376  : 		// Therefore, _Construct() takes const string&.
; 377  : 		if (_Locname == 0)
; 378  : 			_Xruntime_error("bad locale name");
; 379  : 		_Construct(_Locname, _Cat);
; 380  : 		}
; 381  : 
; 382  : 	locale(const locale& _Loc, const char *_Locname,
; 383  : 		category _Cat)
; 384  : 		: _Ptr(_Locimp::_New_Locimp(*_Loc._Ptr))
; 385  : 		{	// construct a locale by copying, replacing named facets
; 386  : 		// _Locname might have been returned from setlocale().
; 387  : 		// Therefore, _Construct() takes const string&.
; 388  : 		if (_Locname == 0)
; 389  : 			_Xruntime_error("bad locale name");
; 390  : 		_Construct(_Locname, _Cat);
; 391  : 		}
; 392  : 
; 393  : 	explicit locale(const string& _Str,
; 394  : 		category _Cat = all)
; 395  : 		: _Ptr(_Locimp::_New_Locimp())
; 396  : 		{	// construct a locale with named facets
; 397  : 		_Construct(_Str, _Cat);
; 398  : 		}
; 399  : 
; 400  : 	locale(const locale& _Loc, const string& _Str,
; 401  : 		category _Cat)
; 402  : 		: _Ptr(_Locimp::_New_Locimp(*_Loc._Ptr))
; 403  : 		{	// construct a locale by copying, replacing named facets
; 404  : 		_Construct(_Str, _Cat);
; 405  : 		}
; 406  :  #endif /* !MRTDLL || !_CRTBLD */
; 407  : 
; 408  : 	~locale() _NOEXCEPT
; 409  : 		{	// destroy the object
; 410  : 		if (_Ptr != 0)
; 411  : 			delete _Ptr->_Decref();
; 412  : 		}
; 413  : 
; 414  : 	locale& operator=(const locale& _Right) _THROW0()
; 415  : 		{	// assign a locale
; 416  : 		if (_Ptr != _Right._Ptr)
; 417  : 			{	// different implementation, point at new one
; 418  : 			delete _Ptr->_Decref();
; 419  : 			_Ptr = _Right._Ptr;
; 420  : 			_Ptr->_Incref();
; 421  : 			}
; 422  : 		return (*this);
; 423  : 		}
; 424  : 
; 425  : 	string name() const
; 426  : 		{	// return locale name
; 427  : 		return (_Ptr == 0 ? string() : _Ptr->_Name.c_str());
; 428  : 		}
; 429  : 
; 430  : 	const char *c_str() const
; 431  : 		{	// return locale name as NTBS
; 432  : 		return (_Ptr == 0 ? "" : _Ptr->_Name.c_str());
; 433  : 		}
; 434  : 
; 435  : 	const facet *_Getfacet(size_t _Id) const
; 436  : 		{	// look up a facet in locale object
; 437  : 		const facet *_Facptr = _Id < _Ptr->_Facetcount

  00098	33 ff		 xor	 edi, edi
$LN28@use_facet:

; 438  : 			? _Ptr->_Facetvec[_Id] : 0;	// null if id off end
; 439  : 		if (_Facptr != 0 || !_Ptr->_Xparent)

  0009a	80 79 24 00	 cmp	 BYTE PTR [rcx+36], 0
  0009e	74 13		 je	 SHORT $LN19@use_facet

; 440  : 			return (_Facptr);	// found facet or not transparent
; 441  : 		else
; 442  : 			{	// look in current locale
; 443  : 			locale::_Locimp *_Ptr0 = _Getgloballocale();

  000a0	e8 00 00 00 00	 call	 ?_Getgloballocale@locale@std@@CAPEAV_Locimp@12@XZ ; std::locale::_Getgloballocale

; 444  : 			return (_Id < _Ptr0->_Facetcount

  000a5	48 3b 58 18	 cmp	 rbx, QWORD PTR [rax+24]
  000a9	73 0d		 jae	 SHORT $LN29@use_facet
  000ab	48 8b 40 10	 mov	 rax, QWORD PTR [rax+16]
  000af	48 8b 3c d8	 mov	 rdi, QWORD PTR [rax+rbx*8]
$LN19@use_facet:

; 515  : 
; 516  : 		size_t _Id = _Facet::id;
; 517  : 		const locale::facet *_Pf = _Loc._Getfacet(_Id);
; 518  : 
; 519  : 		if (_Pf != 0)

  000b3	48 85 ff	 test	 rdi, rdi
  000b6	75 74		 jne	 SHORT $LN7@use_facet
$LN29@use_facet:

; 520  : 			;	// got facet from locale
; 521  : 		else if (_Psave != 0)

  000b8	48 85 f6	 test	 rsi, rsi
  000bb	74 05		 je	 SHORT $LN4@use_facet

; 522  : 			_Pf = _Psave;	// lazy facet already allocated

  000bd	48 8b fe	 mov	 rdi, rsi
  000c0	eb 6a		 jmp	 SHORT $LN7@use_facet
$LN4@use_facet:

; 523  : 		else if (_Facet::_Getcat(&_Psave, &_Loc) == (size_t)(-1))

  000c2	48 8b d5	 mov	 rdx, rbp
  000c5	48 8d 4c 24 70	 lea	 rcx, QWORD PTR _Psave$5[rsp]
  000ca	e8 00 00 00 00	 call	 ?_Getcat@?$ctype@D@std@@SA_KPEAPEBVfacet@locale@2@PEBV42@@Z ; std::ctype<char>::_Getcat
  000cf	48 83 f8 ff	 cmp	 rax, -1
  000d3	75 1c		 jne	 SHORT $LN6@use_facet

; 524  : 
; 525  :  #if _HAS_EXCEPTIONS
; 526  : 
; 527  : 			_THROW_NCEE(bad_cast, _EMPTY_ARGUMENT);	// lazy disallowed

  000d5	48 8d 4c 24 28	 lea	 rcx, QWORD PTR $T2[rsp]
  000da	e8 00 00 00 00	 call	 ??0bad_cast@std@@QEAA@XZ ; std::bad_cast::bad_cast
  000df	48 8d 15 00 00
	00 00		 lea	 rdx, OFFSET FLAT:_TI2?AVbad_cast@std@@
  000e6	48 8d 4c 24 28	 lea	 rcx, QWORD PTR $T2[rsp]
  000eb	e8 00 00 00 00	 call	 _CxxThrowException
  000f0	cc		 int	 3
$LN6@use_facet:

; 528  : 
; 529  :  #else /* _HAS_EXCEPTIONS */
; 530  : 			abort();	// lazy disallowed
; 531  :  #endif /* _HAS_EXCEPTIONS */
; 532  : 
; 533  : 		else
; 534  : 			{	// queue up lazy facet for destruction
; 535  : 			_Pf = _Psave;

  000f1	48 8b 5c 24 70	 mov	 rbx, QWORD PTR _Psave$5[rsp]
  000f6	48 8b fb	 mov	 rdi, rbx

; 536  : 			_Facetptr<_Facet>::_Psave = _Psave;

  000f9	48 89 1d 00 00
	00 00		 mov	 QWORD PTR ?_Psave@?$_Facetptr@V?$ctype@D@std@@@std@@2PEBVfacet@locale@2@EB, rbx ; std::_Facetptr<std::ctype<char> >::_Psave
  00100	48 8b 03	 mov	 rax, QWORD PTR [rbx]
  00103	48 8b 50 08	 mov	 rdx, QWORD PTR [rax+8]
  00107	48 8d 05 00 00
	00 00		 lea	 rax, OFFSET FLAT:?_Incref@facet@locale@std@@UEAAXXZ ; std::locale::facet::_Incref
  0010e	48 3b d0	 cmp	 rdx, rax
  00111	75 0b		 jne	 SHORT $LN10@use_facet

; 150  : 			_MT_INCR(_Myrefs);

  00113	f0 ff 43 08	 lock inc DWORD PTR [rbx+8]
  00117	48 8b 5c 24 70	 mov	 rbx, QWORD PTR _Psave$5[rsp]
  0011c	eb 05		 jmp	 SHORT $LN9@use_facet
$LN10@use_facet:
  0011e	48 8b cb	 mov	 rcx, rbx

; 537  : 
; 538  : 			locale::facet *_Pfmod = (_Facet *)_Psave;
; 539  : 			_Pfmod->_Incref();

  00121	ff d2		 call	 rdx
$LN9@use_facet:

; 540  : 
; 541  :  #if defined(_M_CEE)
; 542  : 			_Facet_Register_m(_Pfmod);
; 543  : 
; 544  :  #else /* defined(_M_CEE) */
; 545  : 			_Facet_Register(_Pfmod);

  00123	48 8b cb	 mov	 rcx, rbx
  00126	e8 00 00 00 00	 call	 ?_Facet_Register@std@@YAXPEAV_Facet_base@1@@Z ; std::_Facet_Register
  0012b	90		 npad	 1
$LN7@use_facet:

; 546  :  #endif /* defined(_M_CEE) */
; 547  : 			}
; 548  : 
; 549  : 		return ((const _Facet&)(*_Pf));	// should be dynamic_cast

  0012c	48 8d 4c 24 68	 lea	 rcx, QWORD PTR _Lock$4[rsp]
  00131	e8 00 00 00 00	 call	 ??1_Lockit@std@@QEAA@XZ	; std::_Lockit::~_Lockit
  00136	48 8b c7	 mov	 rax, rdi

; 550  : 	_END_LOCK()
; 551  : 	}	// end of use_facet body

  00139	48 8b 5c 24 78	 mov	 rbx, QWORD PTR [rsp+120]
  0013e	48 83 c4 40	 add	 rsp, 64			; 00000040H
  00142	5f		 pop	 rdi
  00143	5e		 pop	 rsi
  00144	5d		 pop	 rbp
  00145	c3		 ret	 0
$LN30@use_facet:
??$use_facet@V?$ctype@D@std@@@std@@YAAEBV?$ctype@D@0@AEBVlocale@0@@Z ENDP ; std::use_facet<std::ctype<char> >
_TEXT	ENDS
;	COMDAT text$x
text$x	SEGMENT
$T1 = 32
$T2 = 40
_Lock$3 = 96
_Loc$ = 96
_Lock$4 = 104
_Psave$5 = 112
?dtor$0@?0???$use_facet@V?$ctype@D@std@@@std@@YAAEBV?$ctype@D@0@AEBVlocale@0@@Z@4HA PROC ; `std::use_facet<std::ctype<char> >'::`1'::dtor$0
  00000	48 8d 8a 68 00
	00 00		 lea	 rcx, QWORD PTR _Lock$4[rdx]
  00007	e9 00 00 00 00	 jmp	 ??1_Lockit@std@@QEAA@XZ	; std::_Lockit::~_Lockit
?dtor$0@?0???$use_facet@V?$ctype@D@std@@@std@@YAAEBV?$ctype@D@0@AEBVlocale@0@@Z@4HA ENDP ; `std::use_facet<std::ctype<char> >'::`1'::dtor$0
text$x	ENDS
; Function compile flags: /Ogtpy
;	COMDAT text$x
text$x	SEGMENT
$T1 = 32
$T2 = 40
_Lock$3 = 96
_Loc$ = 96
_Lock$4 = 104
_Psave$5 = 112
?dtor$0@?0???$use_facet@V?$ctype@D@std@@@std@@YAAEBV?$ctype@D@0@AEBVlocale@0@@Z@4HA PROC ; `std::use_facet<std::ctype<char> >'::`1'::dtor$0
  00000	48 8d 8a 68 00
	00 00		 lea	 rcx, QWORD PTR _Lock$4[rdx]
  00007	e9 00 00 00 00	 jmp	 ??1_Lockit@std@@QEAA@XZ	; std::_Lockit::~_Lockit
?dtor$0@?0???$use_facet@V?$ctype@D@std@@@std@@YAAEBV?$ctype@D@0@AEBVlocale@0@@Z@4HA ENDP ; `std::use_facet<std::ctype<char> >'::`1'::dtor$0
text$x	ENDS
; Function compile flags: /Ogtpy
; File c:\users\alist_000\cppmisc\packages\visualcpptools.14.0.24629\lib\native\include\system_error
;	COMDAT ??$_Immortalize@V_Iostream_error_category@std@@@std@@YAAEAV_Iostream_error_category@0@XZ
_TEXT	SEGMENT
??$_Immortalize@V_Iostream_error_category@std@@@std@@YAAEAV_Iostream_error_category@0@XZ PROC ; std::_Immortalize<std::_Iostream_error_category>, COMDAT

; 693  : 	{	// return a reference to an object that will live forever

$LN23:
  00000	48 83 ec 28	 sub	 rsp, 40			; 00000028H

; 694  : 	/* MAGIC */ static _Immortalizer<_Ty> _Static;

  00004	65 48 8b 04 25
	58 00 00 00	 mov	 rax, QWORD PTR gs:88
  0000d	ba 00 00 00 00	 mov	 edx, OFFSET FLAT:_Init_thread_epoch
  00012	48 8b 08	 mov	 rcx, QWORD PTR [rax]
  00015	8b 04 0a	 mov	 eax, DWORD PTR [rdx+rcx]
  00018	39 05 00 00 00
	00		 cmp	 DWORD PTR ?$TSS0@?1???$_Immortalize@V_Iostream_error_category@std@@@std@@YAAEAV_Iostream_error_category@1@XZ@4HA, eax ; TSS0<`template-parameter-2',unsigned int,std::V_Iostream_error_category::mortalize>
  0001e	7f 0c		 jg	 SHORT $LN21@Immortaliz
$LN19@Immortaliz:

; 695  : 	return (*reinterpret_cast<_Ty *>(&_Static._Storage));

  00020	48 8d 05 00 00
	00 00		 lea	 rax, OFFSET FLAT:?_Static@?1???$_Immortalize@V_Iostream_error_category@std@@@std@@YAAEAV_Iostream_error_category@1@XZ@4U?$_Immortalizer@V_Iostream_error_category@std@@@1@A ; `std::_Immortalize<std::_Iostream_error_category>'::`2'::_Static

; 696  : 	}

  00027	48 83 c4 28	 add	 rsp, 40			; 00000028H
  0002b	c3		 ret	 0
$LN21@Immortaliz:

; 694  : 	/* MAGIC */ static _Immortalizer<_Ty> _Static;

  0002c	48 8d 0d 00 00
	00 00		 lea	 rcx, OFFSET FLAT:?$TSS0@?1???$_Immortalize@V_Iostream_error_category@std@@@std@@YAAEAV_Iostream_error_category@1@XZ@4HA ; TSS0<`template-parameter-2',unsigned int,std::V_Iostream_error_category::mortalize>
  00033	e8 00 00 00 00	 call	 _Init_thread_header
  00038	83 3d 00 00 00
	00 ff		 cmp	 DWORD PTR ?$TSS0@?1???$_Immortalize@V_Iostream_error_category@std@@@std@@YAAEAV_Iostream_error_category@1@XZ@4HA, -1 ; TSS0<`template-parameter-2',unsigned int,std::V_Iostream_error_category::mortalize>
  0003f	75 df		 jne	 SHORT $LN19@Immortaliz

; 612  : 		{	// default constructor

  00041	48 8d 05 00 00
	00 00		 lea	 rax, OFFSET FLAT:??_7_Iostream_error_category@std@@6B@

; 613  : 		_Addr = _Iostream_addr;

  00048	48 c7 05 08 00
	00 00 05 00 00
	00		 mov	 QWORD PTR ?_Static@?1???$_Immortalize@V_Iostream_error_category@std@@@std@@YAAEAV_Iostream_error_category@1@XZ@4U?$_Immortalizer@V_Iostream_error_category@std@@@1@A+8, 5

; 694  : 	/* MAGIC */ static _Immortalizer<_Ty> _Static;

  00053	48 8d 0d 00 00
	00 00		 lea	 rcx, OFFSET FLAT:??__F_Static@?1???$_Immortalize@V_Iostream_error_category@std@@@std@@YAAEAV_Iostream_error_category@0@XZ@YAXXZ ; `std::_Immortalize<std::_Iostream_error_category>'::`2'::`dynamic atexit destructor for '_Static''

; 612  : 		{	// default constructor

  0005a	48 89 05 00 00
	00 00		 mov	 QWORD PTR ?_Static@?1???$_Immortalize@V_Iostream_error_category@std@@@std@@YAAEAV_Iostream_error_category@1@XZ@4U?$_Immortalizer@V_Iostream_error_category@std@@@1@A, rax

; 694  : 	/* MAGIC */ static _Immortalizer<_Ty> _Static;

  00061	e8 00 00 00 00	 call	 atexit
  00066	48 8d 0d 00 00
	00 00		 lea	 rcx, OFFSET FLAT:?$TSS0@?1???$_Immortalize@V_Iostream_error_category@std@@@std@@YAAEAV_Iostream_error_category@1@XZ@4HA ; TSS0<`template-parameter-2',unsigned int,std::V_Iostream_error_category::mortalize>
  0006d	e8 00 00 00 00	 call	 _Init_thread_footer
  00072	eb ac		 jmp	 SHORT $LN19@Immortaliz
??$_Immortalize@V_Iostream_error_category@std@@@std@@YAAEAV_Iostream_error_category@0@XZ ENDP ; std::_Immortalize<std::_Iostream_error_category>
_TEXT	ENDS
; Function compile flags: /Ogtpy
; File c:\users\alist_000\cppmisc\packages\visualcpptools.14.0.24629\lib\native\include\ostream
; File c:\users\alist_000\cppmisc\packages\visualcpptools.14.0.24629\lib\native\include\ios
; File c:\users\alist_000\cppmisc\packages\visualcpptools.14.0.24629\lib\native\include\ostream
; File c:\users\alist_000\cppmisc\packages\visualcpptools.14.0.24629\lib\native\include\xiosbase
; File c:\users\alist_000\cppmisc\packages\visualcpptools.14.0.24629\lib\native\include\ostream
; File c:\users\alist_000\cppmisc\packages\visualcpptools.14.0.24629\lib\native\include\ios
; File c:\users\alist_000\cppmisc\packages\visualcpptools.14.0.24629\lib\native\include\ostream
; File c:\users\alist_000\cppmisc\packages\visualcpptools.14.0.24629\lib\native\include\xiosbase
; File c:\users\alist_000\cppmisc\packages\visualcpptools.14.0.24629\lib\native\include\ostream
; File c:\users\alist_000\cppmisc\packages\visualcpptools.14.0.24629\lib\native\include\xiosbase
; File c:\users\alist_000\cppmisc\packages\visualcpptools.14.0.24629\lib\native\include\ostream
; File c:\users\alist_000\cppmisc\packages\visualcpptools.14.0.24629\lib\native\include\xiosbase
; File c:\users\alist_000\cppmisc\packages\visualcpptools.14.0.24629\lib\native\include\ostream
; File c:\users\alist_000\cppmisc\packages\visualcpptools.14.0.24629\lib\native\include\ios
; File c:\users\alist_000\cppmisc\packages\visualcpptools.14.0.24629\lib\native\include\streambuf
; File c:\users\alist_000\cppmisc\packages\visualcpptools.14.0.24629\lib\native\include\iosfwd
; File c:\users\alist_000\cppmisc\packages\visualcpptools.14.0.24629\lib\native\include\streambuf
; File c:\users\alist_000\cppmisc\packages\visualcpptools.14.0.24629\lib\native\include\iosfwd
; File c:\users\alist_000\cppmisc\packages\visualcpptools.14.0.24629\lib\native\include\streambuf
; File c:\users\alist_000\cppmisc\packages\visualcpptools.14.0.24629\lib\native\include\ostream
; File c:\users\alist_000\cppmisc\packages\visualcpptools.14.0.24629\lib\native\include\ios
; File c:\users\alist_000\cppmisc\packages\visualcpptools.14.0.24629\lib\native\include\streambuf
; File c:\users\alist_000\cppmisc\packages\visualcpptools.14.0.24629\lib\native\include\iosfwd
; File c:\users\alist_000\cppmisc\packages\visualcpptools.14.0.24629\lib\native\include\streambuf
; File c:\users\alist_000\cppmisc\packages\visualcpptools.14.0.24629\lib\native\include\ostream
; File c:\users\alist_000\cppmisc\packages\visualcpptools.14.0.24629\lib\native\include\ios
; File c:\users\alist_000\cppmisc\packages\visualcpptools.14.0.24629\lib\native\include\streambuf
; File c:\users\alist_000\cppmisc\packages\visualcpptools.14.0.24629\lib\native\include\iosfwd
; File c:\users\alist_000\cppmisc\packages\visualcpptools.14.0.24629\lib\native\include\streambuf
; File c:\users\alist_000\cppmisc\packages\visualcpptools.14.0.24629\lib\native\include\iosfwd
; File c:\users\alist_000\cppmisc\packages\visualcpptools.14.0.24629\lib\native\include\streambuf
; File c:\users\alist_000\cppmisc\packages\visualcpptools.14.0.24629\lib\native\include\ostream
; File c:\users\alist_000\cppmisc\packages\visualcpptools.14.0.24629\lib\native\include\xiosbase
; File c:\users\alist_000\cppmisc\packages\visualcpptools.14.0.24629\lib\native\include\ostream
; File c:\users\alist_000\cppmisc\packages\visualcpptools.14.0.24629\lib\native\include\ios
; File c:\users\alist_000\cppmisc\packages\visualcpptools.14.0.24629\lib\native\include\xiosbase
; File c:\users\alist_000\cppmisc\packages\visualcpptools.14.0.24629\lib\native\include\ios
; File c:\users\alist_000\cppmisc\packages\visualcpptools.14.0.24629\lib\native\include\xiosbase
; File c:\users\alist_000\cppmisc\packages\visualcpptools.14.0.24629\lib\native\include\ostream
; File c:\users\alist_000\cppmisc\packages\visualcpptools.14.0.24629\lib\native\include\ios
; File c:\users\alist_000\cppmisc\packages\visualcpptools.14.0.24629\lib\native\include\ostream
;	COMDAT ??$?6U?$char_traits@D@std@@@std@@YAAEAV?$basic_ostream@DU?$char_traits@D@std@@@0@AEAV10@D@Z
_TEXT	SEGMENT
_Ok$ = 32
$T1 = 48
$T2 = 64
$T3 = 72
$T4 = 112
$T5 = 152
_Ostr$dead$ = 256
_State$ = 256
_Ch$ = 264
_Ostr$ = 272
??$?6U?$char_traits@D@std@@@std@@YAAEAV?$basic_ostream@DU?$char_traits@D@std@@@0@AEAV10@D@Z PROC ; std::operator<<<std::char_traits<char> >, COMDAT

; 819  : 	{	// insert a char into char stream

$LN204:
  00000	88 54 24 10	 mov	 BYTE PTR [rsp+16], dl
  00004	48 89 4c 24 08	 mov	 QWORD PTR [rsp+8], rcx
  00009	53		 push	 rbx
  0000a	56		 push	 rsi
  0000b	57		 push	 rdi
  0000c	41 54		 push	 r12
  0000e	41 55		 push	 r13
  00010	41 56		 push	 r14
  00012	41 57		 push	 r15
  00014	48 81 ec c0 00
	00 00		 sub	 rsp, 192		; 000000c0H
  0001b	48 c7 44 24 40
	fe ff ff ff	 mov	 QWORD PTR $T2[rsp], -2
  00024	48 8d 35 00 00
	00 00		 lea	 rsi, OFFSET FLAT:?cout@std@@3V?$basic_ostream@DU?$char_traits@D@std@@@1@A ; std::cout
  0002b	4c 8b e6	 mov	 r12, rsi
  0002e	48 89 b4 24 10
	01 00 00	 mov	 QWORD PTR _Ostr$[rsp], rsi

; 820  : 	typedef char _Elem;
; 821  : 	typedef basic_ostream<_Elem, _Traits> _Myos;
; 822  : 	ios_base::iostate _State = ios_base::goodbit;

  00036	45 33 f6	 xor	 r14d, r14d
  00039	41 8b de	 mov	 ebx, r14d
  0003c	89 9c 24 00 01
	00 00		 mov	 DWORD PTR _State$[rsp], ebx

; 99   : 			: _Myostr(_Ostr)

  00043	4c 8b ee	 mov	 r13, rsi
  00046	48 89 74 24 20	 mov	 QWORD PTR _Ok$[rsp], rsi

; 101  : 			if (_Myostr.rdbuf() != 0)

  0004b	4c 8b 05 00 00
	00 00		 mov	 r8, QWORD PTR ?cout@std@@3V?$basic_ostream@DU?$char_traits@D@std@@@1@A
  00052	49 63 40 04	 movsxd	 rax, DWORD PTR [r8+4]
; File c:\users\alist_000\cppmisc\packages\visualcpptools.14.0.24629\lib\native\include\ios

; 92   : 		return (_Mystrbuf);

  00056	48 8b 4c 30 48	 mov	 rcx, QWORD PTR [rax+rsi+72]
; File c:\users\alist_000\cppmisc\packages\visualcpptools.14.0.24629\lib\native\include\ostream

; 101  : 			if (_Myostr.rdbuf() != 0)

  0005b	48 85 c9	 test	 rcx, rcx
  0005e	74 0d		 je	 SHORT $LN27@operator

; 102  : 				_Myostr.rdbuf()->_Lock();

  00060	48 8b 01	 mov	 rax, QWORD PTR [rcx]
  00063	ff 50 08	 call	 QWORD PTR [rax+8]
  00066	4c 8b 05 00 00
	00 00		 mov	 r8, QWORD PTR ?cout@std@@3V?$basic_ostream@DU?$char_traits@D@std@@@1@A
$LN27@operator:

; 124  : 			if (_Ostr.good() && _Ostr.tie() != 0 && _Ostr.tie() != &_Ostr)

  0006d	49 63 48 04	 movsxd	 rcx, DWORD PTR [r8+4]
; File c:\users\alist_000\cppmisc\packages\visualcpptools.14.0.24629\lib\native\include\xiosbase

; 339  : 		return (rdstate() == goodbit);

  00071	83 7c 31 10 00	 cmp	 DWORD PTR [rcx+rsi+16], 0
; File c:\users\alist_000\cppmisc\packages\visualcpptools.14.0.24629\lib\native\include\ostream

; 124  : 			if (_Ostr.good() && _Ostr.tie() != 0 && _Ostr.tie() != &_Ostr)

  00076	75 1b		 jne	 SHORT $LN23@operator
; File c:\users\alist_000\cppmisc\packages\visualcpptools.14.0.24629\lib\native\include\ios

; 80   : 		return (_Tiestr);

  00078	48 8b 4c 31 50	 mov	 rcx, QWORD PTR [rcx+rsi+80]
; File c:\users\alist_000\cppmisc\packages\visualcpptools.14.0.24629\lib\native\include\ostream

; 124  : 			if (_Ostr.good() && _Ostr.tie() != 0 && _Ostr.tie() != &_Ostr)

  0007d	48 85 c9	 test	 rcx, rcx
  00080	74 11		 je	 SHORT $LN23@operator
  00082	48 3b ce	 cmp	 rcx, rsi
  00085	74 0c		 je	 SHORT $LN23@operator

; 125  : 				_Ostr.tie()->flush();

  00087	e8 00 00 00 00	 call	 ?flush@?$basic_ostream@DU?$char_traits@D@std@@@std@@QEAAAEAV12@XZ ; std::basic_ostream<char,std::char_traits<char> >::flush
  0008c	4c 8b 05 00 00
	00 00		 mov	 r8, QWORD PTR ?cout@std@@3V?$basic_ostream@DU?$char_traits@D@std@@@1@A
$LN23@operator:

; 126  : 			_Ok = _Ostr.good();	// store test only after flushing tie

  00093	49 63 48 04	 movsxd	 rcx, DWORD PTR [r8+4]
; File c:\users\alist_000\cppmisc\packages\visualcpptools.14.0.24629\lib\native\include\xiosbase

; 339  : 		return (rdstate() == goodbit);

  00097	83 7c 31 10 00	 cmp	 DWORD PTR [rcx+rsi+16], 0
  0009c	0f 94 c0	 sete	 al
  0009f	88 44 24 28	 mov	 BYTE PTR _Ok$[rsp+8], al
; File c:\users\alist_000\cppmisc\packages\visualcpptools.14.0.24629\lib\native\include\ostream

; 825  : 	if (_Ok)

  000a3	84 c0		 test	 al, al
  000a5	0f 84 72 01 00
	00		 je	 $LN20@operator
; File c:\users\alist_000\cppmisc\packages\visualcpptools.14.0.24629\lib\native\include\xiosbase

; 423  : 		return (_Wide);

  000ab	48 8b 7c 31 28	 mov	 rdi, QWORD PTR [rcx+rsi+40]
; File c:\users\alist_000\cppmisc\packages\visualcpptools.14.0.24629\lib\native\include\ostream

; 827  : 		streamsize _Pad = _Ostr.width() <= 1 ? 0 : _Ostr.width() - 1;

  000b0	48 83 ff 01	 cmp	 rdi, 1
  000b4	7f 05		 jg	 SHORT $LN15@operator
  000b6	49 8b fe	 mov	 rdi, r14
  000b9	eb 03		 jmp	 SHORT $LN16@operator
$LN15@operator:
  000bb	48 ff cf	 dec	 rdi
$LN16@operator:
; File c:\users\alist_000\cppmisc\packages\visualcpptools.14.0.24629\lib\native\include\xiosbase

; 378  : 		return (_Fmtfl);

  000be	8b 44 31 18	 mov	 eax, DWORD PTR [rcx+rsi+24]
; File c:\users\alist_000\cppmisc\packages\visualcpptools.14.0.24629\lib\native\include\ostream

; 830  : 		if ((_Ostr.flags() & ios_base::adjustfield) != ios_base::left)

  000c2	25 c0 01 00 00	 and	 eax, 448		; 000001c0H
  000c7	41 bf 04 00 00
	00		 mov	 r15d, 4
  000cd	83 f8 40	 cmp	 eax, 64			; 00000040H
  000d0	74 6e		 je	 SHORT $LN197@operator
$LL4@operator:

; 831  : 			for (; _State == ios_base::goodbit && 0 < _Pad;

  000d2	85 db		 test	 ebx, ebx
  000d4	0f 85 23 01 00
	00		 jne	 $LN6@operator
  000da	48 85 ff	 test	 rdi, rdi
  000dd	7e 61		 jle	 SHORT $LN197@operator

; 833  : 				if (_Traits::eq_int_type(_Traits::eof(),

  000df	48 8b 06	 mov	 rax, QWORD PTR [rsi]
  000e2	48 63 48 04	 movsxd	 rcx, DWORD PTR [rax+4]
; File c:\users\alist_000\cppmisc\packages\visualcpptools.14.0.24629\lib\native\include\ios

; 113  : 		return (_Fillch);

  000e6	44 0f b6 44 31
	58		 movzx	 r8d, BYTE PTR [rcx+rsi+88]

; 92   : 		return (_Mystrbuf);

  000ec	48 8b 4c 31 48	 mov	 rcx, QWORD PTR [rcx+rsi+72]
; File c:\users\alist_000\cppmisc\packages\visualcpptools.14.0.24629\lib\native\include\streambuf

; 314  : 		return (*_IPnext != 0 ? *_IPcount : 0);

  000f1	48 8b 41 40	 mov	 rax, QWORD PTR [rcx+64]
  000f5	48 83 38 00	 cmp	 QWORD PTR [rax], 0
  000f9	74 25		 je	 SHORT $LN61@operator
  000fb	48 8b 51 58	 mov	 rdx, QWORD PTR [rcx+88]
  000ff	8b 02		 mov	 eax, DWORD PTR [rdx]

; 200  : 		return (0 < _Pnavail()

  00101	85 c0		 test	 eax, eax
  00103	7e 1b		 jle	 SHORT $LN61@operator

; 308  : 		--*_IPcount;

  00105	ff c8		 dec	 eax
  00107	89 02		 mov	 DWORD PTR [rdx], eax

; 309  : 		return ((*_IPnext)++);

  00109	48 8b 49 40	 mov	 rcx, QWORD PTR [rcx+64]
  0010d	48 8b 11	 mov	 rdx, QWORD PTR [rcx]
  00110	48 8d 42 01	 lea	 rax, QWORD PTR [rdx+1]
  00114	48 89 01	 mov	 QWORD PTR [rcx], rax

; 200  : 		return (0 < _Pnavail()

  00117	44 88 02	 mov	 BYTE PTR [rdx], r8b
; File c:\users\alist_000\cppmisc\packages\visualcpptools.14.0.24629\lib\native\include\iosfwd

; 536  : 		return ((unsigned char)_Ch);

  0011a	41 0f b6 c0	 movzx	 eax, r8b
; File c:\users\alist_000\cppmisc\packages\visualcpptools.14.0.24629\lib\native\include\streambuf

; 200  : 		return (0 < _Pnavail()

  0011e	eb 0a		 jmp	 SHORT $LN2@operator
$LN61@operator:
; File c:\users\alist_000\cppmisc\packages\visualcpptools.14.0.24629\lib\native\include\iosfwd

; 536  : 		return ((unsigned char)_Ch);

  00120	41 0f b6 d0	 movzx	 edx, r8b
; File c:\users\alist_000\cppmisc\packages\visualcpptools.14.0.24629\lib\native\include\streambuf

; 200  : 		return (0 < _Pnavail()

  00124	48 8b 01	 mov	 rax, QWORD PTR [rcx]
  00127	ff 50 18	 call	 QWORD PTR [rax+24]
$LN2@operator:
; File c:\users\alist_000\cppmisc\packages\visualcpptools.14.0.24629\lib\native\include\ostream

; 832  : 				--_Pad)	// pad on left

  0012a	48 ff cf	 dec	 rdi
  0012d	41 8b df	 mov	 ebx, r15d
  00130	83 f8 ff	 cmp	 eax, -1
  00133	41 0f 45 de	 cmovne	 ebx, r14d
  00137	89 9c 24 00 01
	00 00		 mov	 DWORD PTR _State$[rsp], ebx
  0013e	eb 92		 jmp	 SHORT $LL4@operator
$LN197@operator:

; 838  : 			&& _Traits::eq_int_type(_Traits::eof(),

  00140	48 8b 06	 mov	 rax, QWORD PTR [rsi]
  00143	48 63 48 04	 movsxd	 rcx, DWORD PTR [rax+4]
; File c:\users\alist_000\cppmisc\packages\visualcpptools.14.0.24629\lib\native\include\ios

; 92   : 		return (_Mystrbuf);

  00147	48 8b 4c 31 48	 mov	 rcx, QWORD PTR [rcx+rsi+72]
; File c:\users\alist_000\cppmisc\packages\visualcpptools.14.0.24629\lib\native\include\streambuf

; 314  : 		return (*_IPnext != 0 ? *_IPcount : 0);

  0014c	48 8b 41 40	 mov	 rax, QWORD PTR [rcx+64]
  00150	48 83 38 00	 cmp	 QWORD PTR [rax], 0
  00154	74 28		 je	 SHORT $LN85@operator
  00156	48 8b 51 58	 mov	 rdx, QWORD PTR [rcx+88]
  0015a	8b 02		 mov	 eax, DWORD PTR [rdx]

; 200  : 		return (0 < _Pnavail()

  0015c	85 c0		 test	 eax, eax
  0015e	7e 1e		 jle	 SHORT $LN85@operator

; 308  : 		--*_IPcount;

  00160	ff c8		 dec	 eax
  00162	89 02		 mov	 DWORD PTR [rdx], eax

; 309  : 		return ((*_IPnext)++);

  00164	48 8b 49 40	 mov	 rcx, QWORD PTR [rcx+64]
  00168	48 8b 11	 mov	 rdx, QWORD PTR [rcx]
  0016b	48 8d 42 01	 lea	 rax, QWORD PTR [rdx+1]
  0016f	48 89 01	 mov	 QWORD PTR [rcx], rax

; 200  : 		return (0 < _Pnavail()

  00172	0f b6 84 24 08
	01 00 00	 movzx	 eax, BYTE PTR _Ch$[rsp]
  0017a	88 02		 mov	 BYTE PTR [rdx], al
  0017c	eb 0e		 jmp	 SHORT $LN86@operator
$LN85@operator:
; File c:\users\alist_000\cppmisc\packages\visualcpptools.14.0.24629\lib\native\include\iosfwd

; 536  : 		return ((unsigned char)_Ch);

  0017e	0f b6 94 24 08
	01 00 00	 movzx	 edx, BYTE PTR _Ch$[rsp]
; File c:\users\alist_000\cppmisc\packages\visualcpptools.14.0.24629\lib\native\include\streambuf

; 200  : 		return (0 < _Pnavail()

  00186	48 8b 01	 mov	 rax, QWORD PTR [rcx]
  00189	ff 50 18	 call	 QWORD PTR [rax+24]
$LN86@operator:
  0018c	83 f8 ff	 cmp	 eax, -1
; File c:\users\alist_000\cppmisc\packages\visualcpptools.14.0.24629\lib\native\include\ostream

; 838  : 			&& _Traits::eq_int_type(_Traits::eof(),

  0018f	41 0f 44 df	 cmove	 ebx, r15d
$LN202@operator:
  00193	89 9c 24 00 01
	00 00		 mov	 DWORD PTR _State$[rsp], ebx

; 839  : 				_Ostr.rdbuf()->sputc(_Ch)))
; 840  : 			_State |= ios_base::badbit;
; 841  : 
; 842  : 		for (; _State == ios_base::goodbit && 0 < _Pad;

  0019a	85 db		 test	 ebx, ebx
  0019c	75 5f		 jne	 SHORT $LN6@operator
  0019e	48 85 ff	 test	 rdi, rdi
  001a1	7e 5a		 jle	 SHORT $LN6@operator

; 844  : 			if (_Traits::eq_int_type(_Traits::eof(),

  001a3	48 8b 06	 mov	 rax, QWORD PTR [rsi]
  001a6	48 63 48 04	 movsxd	 rcx, DWORD PTR [rax+4]
; File c:\users\alist_000\cppmisc\packages\visualcpptools.14.0.24629\lib\native\include\ios

; 113  : 		return (_Fillch);

  001aa	44 0f b6 44 31
	58		 movzx	 r8d, BYTE PTR [rcx+rsi+88]

; 92   : 		return (_Mystrbuf);

  001b0	48 8b 4c 31 48	 mov	 rcx, QWORD PTR [rcx+rsi+72]
; File c:\users\alist_000\cppmisc\packages\visualcpptools.14.0.24629\lib\native\include\streambuf

; 314  : 		return (*_IPnext != 0 ? *_IPcount : 0);

  001b5	48 8b 41 40	 mov	 rax, QWORD PTR [rcx+64]
  001b9	48 83 38 00	 cmp	 QWORD PTR [rax], 0
  001bd	74 25		 je	 SHORT $LN111@operator
  001bf	48 8b 51 58	 mov	 rdx, QWORD PTR [rcx+88]
  001c3	8b 02		 mov	 eax, DWORD PTR [rdx]

; 200  : 		return (0 < _Pnavail()

  001c5	85 c0		 test	 eax, eax
  001c7	7e 1b		 jle	 SHORT $LN111@operator

; 308  : 		--*_IPcount;

  001c9	ff c8		 dec	 eax
  001cb	89 02		 mov	 DWORD PTR [rdx], eax

; 309  : 		return ((*_IPnext)++);

  001cd	48 8b 49 40	 mov	 rcx, QWORD PTR [rcx+64]
  001d1	48 8b 11	 mov	 rdx, QWORD PTR [rcx]
  001d4	48 8d 42 01	 lea	 rax, QWORD PTR [rdx+1]
  001d8	48 89 01	 mov	 QWORD PTR [rcx], rax

; 200  : 		return (0 < _Pnavail()

  001db	44 88 02	 mov	 BYTE PTR [rdx], r8b
; File c:\users\alist_000\cppmisc\packages\visualcpptools.14.0.24629\lib\native\include\iosfwd

; 536  : 		return ((unsigned char)_Ch);

  001de	41 0f b6 c0	 movzx	 eax, r8b
; File c:\users\alist_000\cppmisc\packages\visualcpptools.14.0.24629\lib\native\include\streambuf

; 200  : 		return (0 < _Pnavail()

  001e2	eb 0a		 jmp	 SHORT $LN5@operator
$LN111@operator:
; File c:\users\alist_000\cppmisc\packages\visualcpptools.14.0.24629\lib\native\include\iosfwd

; 536  : 		return ((unsigned char)_Ch);

  001e4	41 0f b6 d0	 movzx	 edx, r8b
; File c:\users\alist_000\cppmisc\packages\visualcpptools.14.0.24629\lib\native\include\streambuf

; 200  : 		return (0 < _Pnavail()

  001e8	48 8b 01	 mov	 rax, QWORD PTR [rcx]
  001eb	ff 50 18	 call	 QWORD PTR [rax+24]
$LN5@operator:
; File c:\users\alist_000\cppmisc\packages\visualcpptools.14.0.24629\lib\native\include\ostream

; 843  : 			--_Pad)	// pad on right

  001ee	48 ff cf	 dec	 rdi
  001f1	41 8b df	 mov	 ebx, r15d
  001f4	83 f8 ff	 cmp	 eax, -1
  001f7	41 0f 45 de	 cmovne	 ebx, r14d
  001fb	eb 96		 jmp	 SHORT $LN202@operator
$LN6@operator:
  001fd	eb 1e		 jmp	 SHORT $LN20@operator
$LN21@operator:

; 845  : 				_Ostr.rdbuf()->sputc(_Ostr.fill())))
; 846  : 				_State |= ios_base::badbit;
; 847  : 		_CATCH_IO_(_Ostr)

  001ff	48 8d 35 00 00
	00 00		 lea	 rsi, OFFSET FLAT:?cout@std@@3V?$basic_ostream@DU?$char_traits@D@std@@@1@A ; std::cout
  00206	45 33 f6	 xor	 r14d, r14d
  00209	4c 8b a4 24 10
	01 00 00	 mov	 r12, QWORD PTR _Ostr$[rsp]
  00211	8b 9c 24 00 01
	00 00		 mov	 ebx, DWORD PTR _State$[rsp]
  00218	4c 8b 6c 24 20	 mov	 r13, QWORD PTR _Ok$[rsp]
$LN20@operator:

; 848  : 		}
; 849  : 
; 850  : 	_Ostr.width(0);

  0021d	49 8b 04 24	 mov	 rax, QWORD PTR [r12]
  00221	48 63 48 04	 movsxd	 rcx, DWORD PTR [rax+4]
; File c:\users\alist_000\cppmisc\packages\visualcpptools.14.0.24629\lib\native\include\xiosbase

; 429  : 		_Wide = _Newwidth;

  00225	4c 89 74 31 28	 mov	 QWORD PTR [rcx+rsi+40], r14
; File c:\users\alist_000\cppmisc\packages\visualcpptools.14.0.24629\lib\native\include\ostream

; 851  : 	_Ostr.setstate(_State);

  0022a	49 8b 04 24	 mov	 rax, QWORD PTR [r12]
  0022e	48 63 50 04	 movsxd	 rdx, DWORD PTR [rax+4]
  00232	49 03 d4	 add	 rdx, r12
; File c:\users\alist_000\cppmisc\packages\visualcpptools.14.0.24629\lib\native\include\ios

; 59   : 		if (_State != goodbit)

  00235	85 db		 test	 ebx, ebx
  00237	0f 84 bc 00 00
	00		 je	 $LN172@operator
; File c:\users\alist_000\cppmisc\packages\visualcpptools.14.0.24629\lib\native\include\xiosbase

; 315  : 		return (_Mystate);

  0023d	8b 42 10	 mov	 eax, DWORD PTR [rdx+16]
; File c:\users\alist_000\cppmisc\packages\visualcpptools.14.0.24629\lib\native\include\ios

; 60   : 			clear((iostate)((int)rdstate() | (int)_State), _Reraise);

  00240	0b c3		 or	 eax, ebx
  00242	8b c8		 mov	 ecx, eax
  00244	83 c9 04	 or	 ecx, 4
  00247	48 83 7a 48 00	 cmp	 QWORD PTR [rdx+72], 0
  0024c	0f 45 c8	 cmovne	 ecx, eax
; File c:\users\alist_000\cppmisc\packages\visualcpptools.14.0.24629\lib\native\include\xiosbase

; 288  : 		_Mystate = (iostate)(_State & _Statmask);

  0024f	83 e1 17	 and	 ecx, 23
  00252	89 4a 10	 mov	 DWORD PTR [rdx+16], ecx

; 289  : 		if ((_Mystate & _Except) == 0)

  00255	8b 42 14	 mov	 eax, DWORD PTR [rdx+20]
  00258	23 c1		 and	 eax, ecx
  0025a	0f 84 99 00 00
	00		 je	 $LN172@operator

; 294  : 			_THROW_NCEE(failure, "ios_base::badbit set");

  00260	ba 01 00 00 00	 mov	 edx, 1
  00265	48 8d 4c 24 30	 lea	 rcx, QWORD PTR $T1[rsp]

; 290  : 			;
; 291  : 		else if (_Reraise)
; 292  : 			_RERAISE;
; 293  : 		else if (_Mystate & _Except & badbit)

  0026a	a8 04		 test	 al, 4
  0026c	74 2b		 je	 SHORT $LN169@operator

; 294  : 			_THROW_NCEE(failure, "ios_base::badbit set");

  0026e	e8 00 00 00 00	 call	 ?make_error_code@std@@YA?AVerror_code@1@W4io_errc@1@@Z ; std::make_error_code
  00273	4c 8b c0	 mov	 r8, rax
  00276	48 8d 15 00 00
	00 00		 lea	 rdx, OFFSET FLAT:??_C@_0BF@PHHKMMFD@ios_base?3?3badbit?5set?$AA@
  0027d	48 8d 4c 24 48	 lea	 rcx, QWORD PTR $T3[rsp]
  00282	e8 00 00 00 00	 call	 ??0failure@ios_base@std@@QEAA@PEBDAEBVerror_code@2@@Z ; std::ios_base::failure::failure
  00287	48 8d 15 00 00
	00 00		 lea	 rdx, OFFSET FLAT:_TI5?AVfailure@ios_base@std@@
  0028e	48 8d 4c 24 48	 lea	 rcx, QWORD PTR $T3[rsp]
  00293	e8 00 00 00 00	 call	 _CxxThrowException
  00298	cc		 int	 3
$LN169@operator:

; 295  : 		else if (_Mystate & _Except & failbit)

  00299	a8 02		 test	 al, 2
  0029b	74 2b		 je	 SHORT $LN171@operator

; 296  : 			_THROW_NCEE(failure, "ios_base::failbit set");

  0029d	e8 00 00 00 00	 call	 ?make_error_code@std@@YA?AVerror_code@1@W4io_errc@1@@Z ; std::make_error_code
  002a2	4c 8b c0	 mov	 r8, rax
  002a5	48 8d 15 00 00
	00 00		 lea	 rdx, OFFSET FLAT:??_C@_0BG@FMKFHCIL@ios_base?3?3failbit?5set?$AA@
  002ac	48 8d 4c 24 70	 lea	 rcx, QWORD PTR $T4[rsp]
  002b1	e8 00 00 00 00	 call	 ??0failure@ios_base@std@@QEAA@PEBDAEBVerror_code@2@@Z ; std::ios_base::failure::failure
  002b6	48 8d 15 00 00
	00 00		 lea	 rdx, OFFSET FLAT:_TI5?AVfailure@ios_base@std@@
  002bd	48 8d 4c 24 70	 lea	 rcx, QWORD PTR $T4[rsp]
  002c2	e8 00 00 00 00	 call	 _CxxThrowException
  002c7	cc		 int	 3
$LN171@operator:

; 297  : 		else
; 298  : 			_THROW_NCEE(failure, "ios_base::eofbit set");

  002c8	e8 00 00 00 00	 call	 ?make_error_code@std@@YA?AVerror_code@1@W4io_errc@1@@Z ; std::make_error_code
  002cd	4c 8b c0	 mov	 r8, rax
  002d0	48 8d 15 00 00
	00 00		 lea	 rdx, OFFSET FLAT:??_C@_0BF@OOHOMBOF@ios_base?3?3eofbit?5set?$AA@
  002d7	48 8d 8c 24 98
	00 00 00	 lea	 rcx, QWORD PTR $T5[rsp]
  002df	e8 00 00 00 00	 call	 ??0failure@ios_base@std@@QEAA@PEBDAEBVerror_code@2@@Z ; std::ios_base::failure::failure
  002e4	48 8d 15 00 00
	00 00		 lea	 rdx, OFFSET FLAT:_TI5?AVfailure@ios_base@std@@
  002eb	48 8d 8c 24 98
	00 00 00	 lea	 rcx, QWORD PTR $T5[rsp]
  002f3	e8 00 00 00 00	 call	 _CxxThrowException
  002f8	90		 npad	 1
$LN172@operator:
; File c:\users\alist_000\cppmisc\packages\visualcpptools.14.0.24629\lib\native\include\ostream

; 132  : 			if (!_STD uncaught_exception())

  002f9	e8 00 00 00 00	 call	 ?uncaught_exception@std@@YA_NXZ ; std::uncaught_exception
  002fe	84 c0		 test	 al, al
  00300	75 09		 jne	 SHORT $LN177@operator

; 133  : 				this->_Myostr._Osfx();

  00302	49 8b cd	 mov	 rcx, r13
  00305	e8 00 00 00 00	 call	 ?_Osfx@?$basic_ostream@DU?$char_traits@D@std@@@std@@QEAAXXZ ; std::basic_ostream<char,std::char_traits<char> >::_Osfx
  0030a	90		 npad	 1
$LN177@operator:

; 107  : 			if (_Myostr.rdbuf() != 0)

  0030b	49 8b 4d 00	 mov	 rcx, QWORD PTR [r13]
  0030f	48 63 51 04	 movsxd	 rdx, DWORD PTR [rcx+4]
; File c:\users\alist_000\cppmisc\packages\visualcpptools.14.0.24629\lib\native\include\ios

; 92   : 		return (_Mystrbuf);

  00313	4a 8b 4c 2a 48	 mov	 rcx, QWORD PTR [rdx+r13+72]
; File c:\users\alist_000\cppmisc\packages\visualcpptools.14.0.24629\lib\native\include\ostream

; 107  : 			if (_Myostr.rdbuf() != 0)

  00318	48 85 c9	 test	 rcx, rcx
  0031b	74 07		 je	 SHORT $LN181@operator

; 108  : 				_Myostr.rdbuf()->_Unlock();

  0031d	48 8b 11	 mov	 rdx, QWORD PTR [rcx]
  00320	ff 52 10	 call	 QWORD PTR [rdx+16]
  00323	90		 npad	 1
$LN181@operator:

; 852  : 	return (_Ostr);

  00324	49 8b c4	 mov	 rax, r12

; 853  : 	}

  00327	48 81 c4 c0 00
	00 00		 add	 rsp, 192		; 000000c0H
  0032e	41 5f		 pop	 r15
  00330	41 5e		 pop	 r14
  00332	41 5d		 pop	 r13
  00334	41 5c		 pop	 r12
  00336	5f		 pop	 rdi
  00337	5e		 pop	 rsi
  00338	5b		 pop	 rbx
  00339	c3		 ret	 0
$LN201@operator:
??$?6U?$char_traits@D@std@@@std@@YAAEAV?$basic_ostream@DU?$char_traits@D@std@@@0@AEAV10@D@Z ENDP ; std::operator<<<std::char_traits<char> >
_TEXT	ENDS
;	COMDAT text$x
text$x	SEGMENT
_Ok$ = 32
$T1 = 48
$T2 = 64
$T3 = 72
$T4 = 112
$T5 = 152
_Ostr$dead$ = 256
_State$ = 256
_Ch$ = 264
_Ostr$ = 272
?dtor$1@?0???$?6U?$char_traits@D@std@@@std@@YAAEAV?$basic_ostream@DU?$char_traits@D@std@@@0@AEAV10@D@Z@4HA PROC ; `std::operator<<<std::char_traits<char> >'::`1'::dtor$1
  00000	48 8d 8a 20 00
	00 00		 lea	 rcx, QWORD PTR _Ok$[rdx]
  00007	e9 00 00 00 00	 jmp	 ??1_Sentry_base@?$basic_ostream@DU?$char_traits@D@std@@@std@@QEAA@XZ ; std::basic_ostream<char,std::char_traits<char> >::_Sentry_base::~_Sentry_base
?dtor$1@?0???$?6U?$char_traits@D@std@@@std@@YAAEAV?$basic_ostream@DU?$char_traits@D@std@@@0@AEAV10@D@Z@4HA ENDP ; `std::operator<<<std::char_traits<char> >'::`1'::dtor$1
_Ok$ = 32
$T1 = 48
$T2 = 64
$T3 = 72
$T4 = 112
$T5 = 152
_Ostr$dead$ = 256
_State$ = 256
_Ch$ = 264
_Ostr$ = 272
?dtor$0@?0???$?6U?$char_traits@D@std@@@std@@YAAEAV?$basic_ostream@DU?$char_traits@D@std@@@0@AEAV10@D@Z@4HA PROC ; `std::operator<<<std::char_traits<char> >'::`1'::dtor$0
  0000c	48 8d 8a 20 00
	00 00		 lea	 rcx, QWORD PTR _Ok$[rdx]
  00013	e9 00 00 00 00	 jmp	 ??1sentry@?$basic_ostream@DU?$char_traits@D@std@@@std@@QEAA@XZ ; std::basic_ostream<char,std::char_traits<char> >::sentry::~sentry
?dtor$0@?0???$?6U?$char_traits@D@std@@@std@@YAAEAV?$basic_ostream@DU?$char_traits@D@std@@@0@AEAV10@D@Z@4HA ENDP ; `std::operator<<<std::char_traits<char> >'::`1'::dtor$0
_Ok$ = 32
$T1 = 48
$T2 = 64
$T3 = 72
$T4 = 112
$T5 = 152
_Ostr$dead$ = 256
_State$ = 256
_Ch$ = 264
_Ostr$ = 272
?catch$16@?0???$?6U?$char_traits@D@std@@@std@@YAAEAV?$basic_ostream@DU?$char_traits@D@std@@@0@AEAV10@D@Z@4HA PROC ; `std::operator<<<std::char_traits<char> >'::`1'::catch$16

; 845  : 				_Ostr.rdbuf()->sputc(_Ostr.fill())))
; 846  : 				_State |= ios_base::badbit;
; 847  : 		_CATCH_IO_(_Ostr)

  00018	48 89 54 24 10	 mov	 QWORD PTR [rsp+16], rdx
  0001d	55		 push	 rbp
  0001e	48 83 ec 20	 sub	 rsp, 32			; 00000020H
  00022	48 8b ea	 mov	 rbp, rdx
__catch$??$?6U?$char_traits@D@std@@@std@@YAAEAV?$basic_ostream@DU?$char_traits@D@std@@@0@AEAV10@D@Z$0:
  00025	48 8b 8d 10 01
	00 00		 mov	 rcx, QWORD PTR _Ostr$[rbp]
  0002c	48 8b 01	 mov	 rax, QWORD PTR [rcx]
  0002f	48 63 50 04	 movsxd	 rdx, DWORD PTR [rax+4]
  00033	48 03 d1	 add	 rdx, rcx
; File c:\users\alist_000\cppmisc\packages\visualcpptools.14.0.24629\lib\native\include\xiosbase

; 315  : 		return (_Mystate);

  00036	8b 42 10	 mov	 eax, DWORD PTR [rdx+16]
; File c:\users\alist_000\cppmisc\packages\visualcpptools.14.0.24629\lib\native\include\ios

; 60   : 			clear((iostate)((int)rdstate() | (int)_State), _Reraise);

  00039	83 c8 04	 or	 eax, 4

; 45   : 		ios_base::clear((iostate)(_Mystrbuf == 0

  0003c	48 83 7a 48 00	 cmp	 QWORD PTR [rdx+72], 0
  00041	75 03		 jne	 SHORT $LN138@catch$16
  00043	83 c8 04	 or	 eax, 4
$LN138@catch$16:
; File c:\users\alist_000\cppmisc\packages\visualcpptools.14.0.24629\lib\native\include\xiosbase

; 288  : 		_Mystate = (iostate)(_State & _Statmask);

  00046	83 e0 17	 and	 eax, 23
  00049	89 42 10	 mov	 DWORD PTR [rdx+16], eax

; 289  : 		if ((_Mystate & _Except) == 0)

  0004c	85 42 14	 test	 DWORD PTR [rdx+20], eax
  0004f	75 09		 jne	 SHORT $LN141@catch$16
; File c:\users\alist_000\cppmisc\packages\visualcpptools.14.0.24629\lib\native\include\ostream

; 845  : 				_Ostr.rdbuf()->sputc(_Ostr.fill())))
; 846  : 				_State |= ios_base::badbit;
; 847  : 		_CATCH_IO_(_Ostr)

  00051	48 8d 05 00 00
	00 00		 lea	 rax, $LN21@catch$16
  00058	eb 0a		 jmp	 SHORT $LN203@catch$16
$LN141@catch$16:
; File c:\users\alist_000\cppmisc\packages\visualcpptools.14.0.24629\lib\native\include\xiosbase

; 292  : 			_RERAISE;

  0005a	33 d2		 xor	 edx, edx
  0005c	33 c9		 xor	 ecx, ecx
  0005e	e8 00 00 00 00	 call	 _CxxThrowException
  00063	90		 npad	 1
$LN203@catch$16:
  00064	48 83 c4 20	 add	 rsp, 32			; 00000020H
  00068	5d		 pop	 rbp
  00069	c3		 ret	 0
  0006a	cc		 int	 3
?catch$16@?0???$?6U?$char_traits@D@std@@@std@@YAAEAV?$basic_ostream@DU?$char_traits@D@std@@@0@AEAV10@D@Z@4HA ENDP ; `std::operator<<<std::char_traits<char> >'::`1'::catch$16
text$x	ENDS
; Function compile flags: /Ogtpy
;	COMDAT text$x
text$x	SEGMENT
_Ok$ = 32
$T1 = 48
$T2 = 64
$T3 = 72
$T4 = 112
$T5 = 152
_Ostr$dead$ = 256
_State$ = 256
_Ch$ = 264
_Ostr$ = 272
?dtor$1@?0???$?6U?$char_traits@D@std@@@std@@YAAEAV?$basic_ostream@DU?$char_traits@D@std@@@0@AEAV10@D@Z@4HA PROC ; `std::operator<<<std::char_traits<char> >'::`1'::dtor$1
  00000	48 8d 8a 20 00
	00 00		 lea	 rcx, QWORD PTR _Ok$[rdx]
  00007	e9 00 00 00 00	 jmp	 ??1_Sentry_base@?$basic_ostream@DU?$char_traits@D@std@@@std@@QEAA@XZ ; std::basic_ostream<char,std::char_traits<char> >::_Sentry_base::~_Sentry_base
?dtor$1@?0???$?6U?$char_traits@D@std@@@std@@YAAEAV?$basic_ostream@DU?$char_traits@D@std@@@0@AEAV10@D@Z@4HA ENDP ; `std::operator<<<std::char_traits<char> >'::`1'::dtor$1
text$x	ENDS
; Function compile flags: /Ogtpy
;	COMDAT text$x
text$x	SEGMENT
_Ok$ = 32
$T1 = 48
$T2 = 64
$T3 = 72
$T4 = 112
$T5 = 152
_Ostr$dead$ = 256
_State$ = 256
_Ch$ = 264
_Ostr$ = 272
?dtor$0@?0???$?6U?$char_traits@D@std@@@std@@YAAEAV?$basic_ostream@DU?$char_traits@D@std@@@0@AEAV10@D@Z@4HA PROC ; `std::operator<<<std::char_traits<char> >'::`1'::dtor$0
  0000c	48 8d 8a 20 00
	00 00		 lea	 rcx, QWORD PTR _Ok$[rdx]
  00013	e9 00 00 00 00	 jmp	 ??1sentry@?$basic_ostream@DU?$char_traits@D@std@@@std@@QEAA@XZ ; std::basic_ostream<char,std::char_traits<char> >::sentry::~sentry
?dtor$0@?0???$?6U?$char_traits@D@std@@@std@@YAAEAV?$basic_ostream@DU?$char_traits@D@std@@@0@AEAV10@D@Z@4HA ENDP ; `std::operator<<<std::char_traits<char> >'::`1'::dtor$0
text$x	ENDS
; Function compile flags: /Ogtpy
; File c:\users\alist_000\cppmisc\packages\visualcpptools.14.0.24629\lib\native\include\ostream
; File c:\users\alist_000\cppmisc\packages\visualcpptools.14.0.24629\lib\native\include\xiosbase
; File c:\users\alist_000\cppmisc\packages\visualcpptools.14.0.24629\lib\native\include\ios
; File c:\users\alist_000\cppmisc\packages\visualcpptools.14.0.24629\lib\native\include\xiosbase
; File c:\users\alist_000\cppmisc\packages\visualcpptools.14.0.24629\lib\native\include\ostream
; File c:\users\alist_000\cppmisc\packages\visualcpptools.14.0.24629\lib\native\include\xiosbase
;	COMDAT text$x
text$x	SEGMENT
_Ok$ = 32
$T1 = 48
$T2 = 64
$T3 = 72
$T4 = 112
$T5 = 152
_Ostr$dead$ = 256
_State$ = 256
_Ch$ = 264
_Ostr$ = 272
?catch$16@?0???$?6U?$char_traits@D@std@@@std@@YAAEAV?$basic_ostream@DU?$char_traits@D@std@@@0@AEAV10@D@Z@4HA PROC ; `std::operator<<<std::char_traits<char> >'::`1'::catch$16
; File c:\users\alist_000\cppmisc\packages\visualcpptools.14.0.24629\lib\native\include\ostream

; 847  : 		_CATCH_IO_(_Ostr)

  00018	48 89 54 24 10	 mov	 QWORD PTR [rsp+16], rdx
  0001d	55		 push	 rbp
  0001e	48 83 ec 20	 sub	 rsp, 32			; 00000020H
  00022	48 8b ea	 mov	 rbp, rdx
__catch$??$?6U?$char_traits@D@std@@@std@@YAAEAV?$basic_ostream@DU?$char_traits@D@std@@@0@AEAV10@D@Z$0:
  00025	48 8b 8d 10 01
	00 00		 mov	 rcx, QWORD PTR _Ostr$[rbp]
  0002c	48 8b 01	 mov	 rax, QWORD PTR [rcx]
  0002f	48 63 50 04	 movsxd	 rdx, DWORD PTR [rax+4]
  00033	48 03 d1	 add	 rdx, rcx
; File c:\users\alist_000\cppmisc\packages\visualcpptools.14.0.24629\lib\native\include\xiosbase

; 315  : 		return (_Mystate);

  00036	8b 42 10	 mov	 eax, DWORD PTR [rdx+16]
; File c:\users\alist_000\cppmisc\packages\visualcpptools.14.0.24629\lib\native\include\ios

; 60   : 			clear((iostate)((int)rdstate() | (int)_State), _Reraise);

  00039	83 c8 04	 or	 eax, 4

; 45   : 		ios_base::clear((iostate)(_Mystrbuf == 0

  0003c	48 83 7a 48 00	 cmp	 QWORD PTR [rdx+72], 0
  00041	75 03		 jne	 SHORT $LN138@catch$16
  00043	83 c8 04	 or	 eax, 4
$LN138@catch$16:
; File c:\users\alist_000\cppmisc\packages\visualcpptools.14.0.24629\lib\native\include\xiosbase

; 288  : 		_Mystate = (iostate)(_State & _Statmask);

  00046	83 e0 17	 and	 eax, 23
  00049	89 42 10	 mov	 DWORD PTR [rdx+16], eax

; 289  : 		if ((_Mystate & _Except) == 0)

  0004c	85 42 14	 test	 DWORD PTR [rdx+20], eax
  0004f	75 09		 jne	 SHORT $LN141@catch$16
; File c:\users\alist_000\cppmisc\packages\visualcpptools.14.0.24629\lib\native\include\ostream

; 847  : 		_CATCH_IO_(_Ostr)

  00051	48 8d 05 00 00
	00 00		 lea	 rax, $LN21@catch$16
  00058	eb 0a		 jmp	 SHORT $LN203@catch$16
$LN141@catch$16:
; File c:\users\alist_000\cppmisc\packages\visualcpptools.14.0.24629\lib\native\include\xiosbase

; 292  : 			_RERAISE;

  0005a	33 d2		 xor	 edx, edx
  0005c	33 c9		 xor	 ecx, ecx
  0005e	e8 00 00 00 00	 call	 _CxxThrowException
  00063	90		 npad	 1
$LN203@catch$16:
  00064	48 83 c4 20	 add	 rsp, 32			; 00000020H
  00068	5d		 pop	 rbp
  00069	c3		 ret	 0
  0006a	cc		 int	 3
?catch$16@?0???$?6U?$char_traits@D@std@@@std@@YAAEAV?$basic_ostream@DU?$char_traits@D@std@@@0@AEAV10@D@Z@4HA ENDP ; `std::operator<<<std::char_traits<char> >'::`1'::catch$16
text$x	ENDS
; Function compile flags: /Ogtpy
; File c:\users\alist_000\cppmisc\packages\visualcpptools.14.0.24629\lib\native\include\ostream
; File c:\users\alist_000\cppmisc\packages\visualcpptools.14.0.24629\lib\native\include\ios
; File c:\users\alist_000\cppmisc\packages\visualcpptools.14.0.24629\lib\native\include\xlocale
; File c:\users\alist_000\cppmisc\packages\visualcpptools.14.0.24629\lib\native\include\ostream
;	COMDAT ??$endl@DU?$char_traits@D@std@@@std@@YAAEAV?$basic_ostream@DU?$char_traits@D@std@@@0@AEAV10@@Z
_TEXT	SEGMENT
$T1 = 32
$T2 = 40
_Ostr$ = 80
??$endl@DU?$char_traits@D@std@@@std@@YAAEAV?$basic_ostream@DU?$char_traits@D@std@@@0@AEAV10@@Z PROC ; std::endl<char,std::char_traits<char> >, COMDAT

; 984  : 	{	// insert newline and flush stream

$LN18:
  00000	40 57		 push	 rdi
  00002	48 83 ec 40	 sub	 rsp, 64			; 00000040H
  00006	48 c7 44 24 20
	fe ff ff ff	 mov	 QWORD PTR $T1[rsp], -2
  0000f	48 89 5c 24 50	 mov	 QWORD PTR [rsp+80], rbx
  00014	48 8b d9	 mov	 rbx, rcx

; 985  : 	_Ostr.put(_Ostr.widen('\n'));

  00017	48 8b 01	 mov	 rax, QWORD PTR [rcx]
  0001a	48 63 48 04	 movsxd	 rcx, DWORD PTR [rax+4]
  0001e	48 03 cb	 add	 rcx, rbx
; File c:\users\alist_000\cppmisc\packages\visualcpptools.14.0.24629\lib\native\include\ios

; 131  : 		const _Ctype& _Ctype_fac = _USE(getloc(), _Ctype);

  00021	48 8d 54 24 28	 lea	 rdx, QWORD PTR $T2[rsp]
  00026	e8 00 00 00 00	 call	 ?getloc@ios_base@std@@QEBA?AVlocale@2@XZ ; std::ios_base::getloc
  0002b	90		 npad	 1
  0002c	48 8b c8	 mov	 rcx, rax
  0002f	e8 00 00 00 00	 call	 ??$use_facet@V?$ctype@D@std@@@std@@YAAEBV?$ctype@D@0@AEBVlocale@0@@Z ; std::use_facet<std::ctype<char> >
  00034	48 8b f8	 mov	 rdi, rax
; File c:\users\alist_000\cppmisc\packages\visualcpptools.14.0.24629\lib\native\include\xlocale

; 410  : 		if (_Ptr != 0)

  00037	48 8b 4c 24 30	 mov	 rcx, QWORD PTR $T2[rsp+8]
  0003c	48 85 c9	 test	 rcx, rcx
  0003f	74 1a		 je	 SHORT $LN9@endl

; 411  : 			delete _Ptr->_Decref();

  00041	48 8b 11	 mov	 rdx, QWORD PTR [rcx]
  00044	ff 52 10	 call	 QWORD PTR [rdx+16]
  00047	48 85 c0	 test	 rax, rax
  0004a	74 0f		 je	 SHORT $LN9@endl
  0004c	4c 8b 00	 mov	 r8, QWORD PTR [rax]
  0004f	ba 01 00 00 00	 mov	 edx, 1
  00054	48 8b c8	 mov	 rcx, rax
  00057	41 ff 10	 call	 QWORD PTR [r8]
  0005a	90		 npad	 1
$LN9@endl:
  0005b	48 8b 07	 mov	 rax, QWORD PTR [rdi]
  0005e	48 8d 0d 00 00
	00 00		 lea	 rcx, OFFSET FLAT:??_7?$ctype@D@std@@6B@
  00065	48 3b c1	 cmp	 rax, rcx
  00068	75 04		 jne	 SHORT $LN15@endl
  0006a	b0 0a		 mov	 al, 10
  0006c	eb 08		 jmp	 SHORT $LN14@endl
$LN15@endl:
  0006e	b2 0a		 mov	 dl, 10
  00070	48 8b cf	 mov	 rcx, rdi

; 2368 : 		return (do_widen(_Byte));

  00073	ff 50 40	 call	 QWORD PTR [rax+64]
$LN14@endl:
; File c:\users\alist_000\cppmisc\packages\visualcpptools.14.0.24629\lib\native\include\ostream

; 985  : 	_Ostr.put(_Ostr.widen('\n'));

  00076	0f b6 d0	 movzx	 edx, al
  00079	48 8b cb	 mov	 rcx, rbx
  0007c	e8 00 00 00 00	 call	 ?put@?$basic_ostream@DU?$char_traits@D@std@@@std@@QEAAAEAV12@D@Z ; std::basic_ostream<char,std::char_traits<char> >::put

; 986  : 	_Ostr.flush();

  00081	48 8b cb	 mov	 rcx, rbx
  00084	e8 00 00 00 00	 call	 ?flush@?$basic_ostream@DU?$char_traits@D@std@@@std@@QEAAAEAV12@XZ ; std::basic_ostream<char,std::char_traits<char> >::flush

; 987  : 	return (_Ostr);

  00089	48 8b c3	 mov	 rax, rbx

; 988  : 	}

  0008c	48 8b 5c 24 50	 mov	 rbx, QWORD PTR [rsp+80]
  00091	48 83 c4 40	 add	 rsp, 64			; 00000040H
  00095	5f		 pop	 rdi
  00096	c3		 ret	 0
??$endl@DU?$char_traits@D@std@@@std@@YAAEAV?$basic_ostream@DU?$char_traits@D@std@@@0@AEAV10@@Z ENDP ; std::endl<char,std::char_traits<char> >
_TEXT	ENDS
;	COMDAT text$x
text$x	SEGMENT
$T1 = 32
$T2 = 40
_Ostr$ = 80
?dtor$0@?0???$endl@DU?$char_traits@D@std@@@std@@YAAEAV?$basic_ostream@DU?$char_traits@D@std@@@0@AEAV10@@Z@4HA PROC ; `std::endl<char,std::char_traits<char> >'::`1'::dtor$0
  00000	48 8d 8a 28 00
	00 00		 lea	 rcx, QWORD PTR $T2[rdx]
  00007	e9 00 00 00 00	 jmp	 ??1locale@std@@QEAA@XZ	; std::locale::~locale
?dtor$0@?0???$endl@DU?$char_traits@D@std@@@std@@YAAEAV?$basic_ostream@DU?$char_traits@D@std@@@0@AEAV10@@Z@4HA ENDP ; `std::endl<char,std::char_traits<char> >'::`1'::dtor$0
text$x	ENDS
; Function compile flags: /Ogtpy
;	COMDAT text$x
text$x	SEGMENT
$T1 = 32
$T2 = 40
_Ostr$ = 80
?dtor$0@?0???$endl@DU?$char_traits@D@std@@@std@@YAAEAV?$basic_ostream@DU?$char_traits@D@std@@@0@AEAV10@@Z@4HA PROC ; `std::endl<char,std::char_traits<char> >'::`1'::dtor$0
  00000	48 8d 8a 28 00
	00 00		 lea	 rcx, QWORD PTR $T2[rdx]
  00007	e9 00 00 00 00	 jmp	 ??1locale@std@@QEAA@XZ	; std::locale::~locale
?dtor$0@?0???$endl@DU?$char_traits@D@std@@@std@@YAAEAV?$basic_ostream@DU?$char_traits@D@std@@@0@AEAV10@@Z@4HA ENDP ; `std::endl<char,std::char_traits<char> >'::`1'::dtor$0
text$x	ENDS
; Function compile flags: /Ogtpy
; File c:\users\alist_000\cppmisc\packages\visualcpptools.14.0.24629\lib\native\include\vector
; File c:\users\alist_000\cppmisc\packages\visualcpptools.14.0.24629\lib\native\include\xmemory0
; File c:\users\alist_000\cppmisc\packages\visualcpptools.14.0.24629\lib\native\include\vector
; File c:\users\alist_000\cppmisc\packages\visualcpptools.14.0.24629\lib\native\include\xmemory
; File c:\users\alist_000\cppmisc\packages\visualcpptools.14.0.24629\lib\native\include\xutility
; File c:\users\alist_000\cppmisc\packages\visualcpptools.14.0.24629\lib\native\include\vector
; File c:\users\alist_000\cppmisc\packages\visualcpptools.14.0.24629\lib\native\include\xmemory
; File c:\users\alist_000\cppmisc\packages\visualcpptools.14.0.24629\lib\native\include\vector
; File c:\users\alist_000\cppmisc\packages\visualcpptools.14.0.24629\lib\native\include\xmemory0
; File c:\users\alist_000\cppmisc\packages\visualcpptools.14.0.24629\lib\native\include\vector
;	COMDAT ??$_Resize@V<lambda_0965ae3a6f2eda0c9be18e4c004bd2c1>@@@?$vector@DV?$allocator@D@std@@@std@@AEAAX_KV<lambda_0965ae3a6f2eda0c9be18e4c004bd2c1>@@@Z
_TEXT	SEGMENT
this$ = 48
_Newsize$dead$ = 56
_Udefault_or_fill$dead$ = 64
??$_Resize@V<lambda_0965ae3a6f2eda0c9be18e4c004bd2c1>@@@?$vector@DV?$allocator@D@std@@@std@@AEAAX_KV<lambda_0965ae3a6f2eda0c9be18e4c004bd2c1>@@@Z PROC ; std::vector<char,std::allocator<char> >::_Resize<<lambda_0965ae3a6f2eda0c9be18e4c004bd2c1> >, COMDAT

; 1416 : 		{	// trim or append elements, provide strong guarantee

  00000	48 89 5c 24 10	 mov	 QWORD PTR [rsp+16], rbx
  00005	48 89 6c 24 18	 mov	 QWORD PTR [rsp+24], rbp
  0000a	48 89 7c 24 20	 mov	 QWORD PTR [rsp+32], rdi
  0000f	41 56		 push	 r14
  00011	48 83 ec 20	 sub	 rsp, 32			; 00000020H

; 1684 : 		return (this->_Mylast() - this->_Myfirst());

  00015	48 8b 59 08	 mov	 rbx, QWORD PTR [rcx+8]

; 1416 : 		{	// trim or append elements, provide strong guarantee

  00019	4c 8b f1	 mov	 r14, rcx

; 1684 : 		return (this->_Mylast() - this->_Myfirst());

  0001c	48 8b 01	 mov	 rax, QWORD PTR [rcx]
  0001f	48 8b eb	 mov	 rbp, rbx

; 1694 : 		return (this->_Myend() - this->_Myfirst());

  00022	48 8b 49 10	 mov	 rcx, QWORD PTR [rcx+16]

; 1684 : 		return (this->_Mylast() - this->_Myfirst());

  00026	48 2b e8	 sub	 rbp, rax

; 1694 : 		return (this->_Myend() - this->_Myfirst());

  00029	48 2b c8	 sub	 rcx, rax

; 1417 : 		const size_type _Oldsize = size();
; 1418 : 		const size_type _Oldcapacity = capacity();
; 1419 : 
; 1420 : 		if (_Newsize > _Oldcapacity)

  0002c	bf 00 00 00 40	 mov	 edi, 1073741824		; 40000000H
  00031	48 3b cf	 cmp	 rcx, rdi
  00034	0f 83 b1 00 00
	00		 jae	 $LN2@Resize

; 1866 : 		if (_Oldcapacity > max_size() - _Oldcapacity / 2)

  0003a	48 8b d1	 mov	 rdx, rcx
  0003d	48 89 74 24 30	 mov	 QWORD PTR [rsp+48], rsi
  00042	48 d1 ea	 shr	 rdx, 1
  00045	48 8b c2	 mov	 rax, rdx
  00048	48 f7 d0	 not	 rax
  0004b	48 3b c8	 cmp	 rcx, rax
  0004e	76 04		 jbe	 SHORT $LN76@Resize

; 1867 : 			{
; 1868 : 			return (_Newsize);	// geometric growth would overflow

  00050	8b df		 mov	 ebx, edi
  00052	eb 20		 jmp	 SHORT $LN272@Resize
$LN76@Resize:

; 1869 : 			}
; 1870 : 
; 1871 : 		const size_type _Geometric = _Oldcapacity + _Oldcapacity / 2;

  00054	48 8d 1c 0a	 lea	 rbx, QWORD PTR [rdx+rcx]

; 1872 : 
; 1873 : 		if (_Geometric < _Newsize)

  00058	48 3b df	 cmp	 rbx, rdi
  0005b	73 05		 jae	 SHORT $LN77@Resize

; 1874 : 			{
; 1875 : 			return (_Newsize);	// geometric growth would be insufficient

  0005d	48 8b df	 mov	 rbx, rdi
  00060	eb 12		 jmp	 SHORT $LN272@Resize
$LN77@Resize:
; File c:\users\alist_000\cppmisc\packages\visualcpptools.14.0.24629\lib\native\include\xmemory0

; 53   : 	if (_Count == 0)

  00062	48 85 db	 test	 rbx, rbx
  00065	75 04		 jne	 SHORT $LN129@Resize

; 54   : 		return (_Ptr);

  00067	33 f6		 xor	 esi, esi
  00069	eb 34		 jmp	 SHORT $LN135@Resize
$LN129@Resize:

; 55   : 
; 56   : 	// check overflow of multiply
; 57   : 	if ((size_t)(-1) / _Sz < _Count)
; 58   : 		_Xbad_alloc();	// report no memory
; 59   : 	const size_t _User_size = _Count * _Sz;
; 60   : 
; 61   :  #if defined(_M_IX86) || defined(_M_X64)
; 62   : 	if (_Try_aligned_allocation
; 63   : 		&& _BIG_ALLOCATION_THRESHOLD <= _User_size)

  0006b	48 81 fb 00 10
	00 00		 cmp	 rbx, 4096		; 00001000H
  00072	72 20		 jb	 SHORT $LN131@Resize
$LN272@Resize:

; 64   : 		{	// allocate large block
; 65   : 		static_assert(sizeof (void *) < _BIG_ALLOCATION_ALIGNMENT,
; 66   : 			"Big allocations should at least match vector register size");
; 67   : 		const size_t _Block_size = _NON_USER_SIZE + _User_size;

  00074	48 8d 4b 27	 lea	 rcx, QWORD PTR [rbx+39]

; 68   : 		if (_Block_size <= _User_size)

  00078	48 3b cb	 cmp	 rcx, rbx
  0007b	0f 86 94 00 00
	00		 jbe	 $LN276@Resize

; 70   : 		const uintptr_t _Ptr_container =
; 71   : 			reinterpret_cast<uintptr_t>(::operator new(_Block_size));

  00081	e8 00 00 00 00	 call	 ??2@YAPEAX_K@Z		; operator new

; 72   : 		_SCL_SECURE_ALWAYS_VALIDATE(_Ptr_container != 0);
; 73   : 		_Ptr = reinterpret_cast<void *>((_Ptr_container + _NON_USER_SIZE)

  00086	48 8d 70 27	 lea	 rsi, QWORD PTR [rax+39]
  0008a	48 83 e6 e0	 and	 rsi, -32		; ffffffffffffffe0H

; 74   : 			& ~(_BIG_ALLOCATION_ALIGNMENT - 1));
; 75   : 		static_cast<uintptr_t *>(_Ptr)[-1] = _Ptr_container;

  0008e	48 89 46 f8	 mov	 QWORD PTR [rsi-8], rax

; 76   : 
; 77   :  #ifdef _DEBUG
; 78   : 		static_cast<uintptr_t *>(_Ptr)[-2] = _BIG_ALLOCATION_SENTINEL;
; 79   :  #endif /* _DEBUG */
; 80   : 		}
; 81   : 	else

  00092	eb 0b		 jmp	 SHORT $LN135@Resize
$LN131@Resize:

; 82   :  #endif /* defined(_M_IX86) || defined(_M_X64) */
; 83   : 
; 84   : 		{	// allocate normal block
; 85   : 		_Ptr = ::operator new(_User_size);

  00094	48 8b cb	 mov	 rcx, rbx
  00097	e8 00 00 00 00	 call	 ??2@YAPEAX_K@Z		; operator new
  0009c	48 8b f0	 mov	 rsi, rax
$LN135@Resize:
; File c:\users\alist_000\cppmisc\packages\visualcpptools.14.0.24629\lib\native\include\vector

; 1434 : 			_Appended_last = _Udefault_or_fill(_Appended_first, _Newsize - _Oldsize);

  0009f	48 2b fd	 sub	 rdi, rbp
  000a2	48 8d 0c 2e	 lea	 rcx, QWORD PTR [rsi+rbp]
; File c:\users\alist_000\cppmisc\packages\visualcpptools.14.0.24629\lib\native\include\xmemory

; 476  : 	_CSTD memset(_First, 0, _Count * sizeof(_Iter_value_t<_FwdIt>));

  000a6	4c 8b c7	 mov	 r8, rdi
  000a9	33 d2		 xor	 edx, edx
  000ab	e8 00 00 00 00	 call	 memset
; File c:\users\alist_000\cppmisc\packages\visualcpptools.14.0.24629\lib\native\include\xutility

; 2229 : 	const char * const _First_ch = reinterpret_cast<const char *>(_First);

  000b0	49 8b 16	 mov	 rdx, QWORD PTR [r14]

; 2230 : 	const char * const _Last_ch = reinterpret_cast<const char *>(_Last);
; 2231 : 	char * const _Dest_ch = reinterpret_cast<char *>(_Dest);
; 2232 : 	const size_t _Count = _Last_ch - _First_ch;
; 2233 : 	_CSTD memmove(_Dest_ch, _First_ch, _Count);

  000b3	48 8b ce	 mov	 rcx, rsi
  000b6	4d 8b 46 08	 mov	 r8, QWORD PTR [r14+8]
  000ba	4c 2b c2	 sub	 r8, rdx
  000bd	e8 00 00 00 00	 call	 memmove
; File c:\users\alist_000\cppmisc\packages\visualcpptools.14.0.24629\lib\native\include\vector

; 1442 : 			_Change_array(_Newvec, _Newsize, _Newcapacity);

  000c2	4c 8b cb	 mov	 r9, rbx
  000c5	48 8b d6	 mov	 rdx, rsi
  000c8	49 8b ce	 mov	 rcx, r14
  000cb	e8 00 00 00 00	 call	 ?_Change_array@?$vector@DV?$allocator@D@std@@@std@@AEAAXQEAD_K1@Z ; std::vector<char,std::allocator<char> >::_Change_array
  000d0	48 8b 74 24 30	 mov	 rsi, QWORD PTR [rsp+48]
$LN9@Resize:

; 1460 : 		}

  000d5	48 8b 5c 24 38	 mov	 rbx, QWORD PTR [rsp+56]
  000da	48 8b 6c 24 40	 mov	 rbp, QWORD PTR [rsp+64]
  000df	48 8b 7c 24 48	 mov	 rdi, QWORD PTR [rsp+72]
  000e4	48 83 c4 20	 add	 rsp, 32			; 00000020H
  000e8	41 5e		 pop	 r14
  000ea	c3		 ret	 0
$LN2@Resize:

; 1443 : 			}
; 1444 : 		else if (_Newsize > _Oldsize)

  000eb	48 3b ef	 cmp	 rbp, rdi
  000ee	73 1a		 jae	 SHORT $LN275@Resize

; 1447 : 			this->_Mylast() = _Udefault_or_fill(_Oldlast, _Newsize - _Oldsize);

  000f0	48 2b fd	 sub	 rdi, rbp
; File c:\users\alist_000\cppmisc\packages\visualcpptools.14.0.24629\lib\native\include\xmemory

; 476  : 	_CSTD memset(_First, 0, _Count * sizeof(_Iter_value_t<_FwdIt>));

  000f3	33 d2		 xor	 edx, edx
  000f5	4c 8b c7	 mov	 r8, rdi
  000f8	48 8b cb	 mov	 rcx, rbx
  000fb	e8 00 00 00 00	 call	 memset

; 477  : 	return (_First + _Count);

  00100	48 8d 04 1f	 lea	 rax, QWORD PTR [rdi+rbx]
; File c:\users\alist_000\cppmisc\packages\visualcpptools.14.0.24629\lib\native\include\vector

; 1447 : 			this->_Mylast() = _Udefault_or_fill(_Oldlast, _Newsize - _Oldsize);

  00104	49 89 46 08	 mov	 QWORD PTR [r14+8], rax

; 1970 : 		}

  00108	eb cb		 jmp	 SHORT $LN9@Resize
$LN275@Resize:

; 1448 : 			_Orphan_range(_Oldlast, _Oldlast);
; 1449 : 			}
; 1450 : 		else if (_Newsize == _Oldsize)

  0010a	74 c9		 je	 SHORT $LN9@Resize

; 1451 : 			{	// nothing to do, avoid invalidating iterators
; 1452 : 			}
; 1453 : 		else
; 1454 : 			{	// trim
; 1455 : 			const pointer _Newlast = this->_Myfirst() + _Newsize;

  0010c	48 03 c7	 add	 rax, rdi

; 1456 : 			_Orphan_range(_Newlast, this->_Mylast());
; 1457 : 			_Destroy(_Newlast, this->_Mylast());
; 1458 : 			this->_Mylast() = _Newlast;

  0010f	49 89 46 08	 mov	 QWORD PTR [r14+8], rax
  00113	eb c0		 jmp	 SHORT $LN9@Resize
$LN276@Resize:
; File c:\users\alist_000\cppmisc\packages\visualcpptools.14.0.24629\lib\native\include\xmemory0

; 69   : 			_Xbad_alloc();	// report no memory

  00115	e8 00 00 00 00	 call	 ?_Xbad_alloc@std@@YAXXZ	; std::_Xbad_alloc
  0011a	cc		 int	 3
$LN274@Resize:
??$_Resize@V<lambda_0965ae3a6f2eda0c9be18e4c004bd2c1>@@@?$vector@DV?$allocator@D@std@@@std@@AEAAX_KV<lambda_0965ae3a6f2eda0c9be18e4c004bd2c1>@@@Z ENDP ; std::vector<char,std::allocator<char> >::_Resize<<lambda_0965ae3a6f2eda0c9be18e4c004bd2c1> >
_TEXT	ENDS
; Function compile flags: /Ogtpy
; File c:\users\alist_000\cppmisc\packages\visualcpptools.14.0.24629\lib\native\include\type_traits
;	COMDAT ??$move@AEAU?$_Wrap_alloc@V?$allocator@D@std@@@std@@@std@@YA$$QEAU?$_Wrap_alloc@V?$allocator@D@std@@@0@AEAU10@@Z
_TEXT	SEGMENT
_Arg$ = 8
??$move@AEAU?$_Wrap_alloc@V?$allocator@D@std@@@std@@@std@@YA$$QEAU?$_Wrap_alloc@V?$allocator@D@std@@@0@AEAU10@@Z PROC ; std::move<std::_Wrap_alloc<std::allocator<char> > & __ptr64>, COMDAT

; 1346 : 	return (static_cast<typename remove_reference<_Ty>::type&&>(_Arg));

  00000	48 8b c1	 mov	 rax, rcx

; 1347 : 	}

  00003	c3		 ret	 0
??$move@AEAU?$_Wrap_alloc@V?$allocator@D@std@@@std@@@std@@YA$$QEAU?$_Wrap_alloc@V?$allocator@D@std@@@0@AEAU10@@Z ENDP ; std::move<std::_Wrap_alloc<std::allocator<char> > & __ptr64>
_TEXT	ENDS
; Function compile flags: /Ogtpy
; File c:\users\alist_000\cppmisc\packages\visualcpptools.14.0.24629\lib\native\include\vector
;	COMDAT ??$?0U?$_Wrap_alloc@V?$allocator@D@std@@@std@@X@?$_Vector_alloc@U?$_Vec_base_types@DV?$allocator@D@std@@@std@@@std@@QEAA@$$QEAU?$_Wrap_alloc@V?$allocator@D@std@@@1@@Z
_TEXT	SEGMENT
this$ = 8
_Al$dead$ = 16
??$?0U?$_Wrap_alloc@V?$allocator@D@std@@@std@@X@?$_Vector_alloc@U?$_Vec_base_types@DV?$allocator@D@std@@@std@@@std@@QEAA@$$QEAU?$_Wrap_alloc@V?$allocator@D@std@@@1@@Z PROC ; std::_Vector_alloc<std::_Vec_base_types<char,std::allocator<char> > >::_Vector_alloc<std::_Vec_base_types<char,std::allocator<char> > ><std::_Wrap_alloc<std::allocator<char> >,void>, COMDAT

; 478  : 		: _Myfirst(),

  00000	33 c0		 xor	 eax, eax
  00002	48 89 01	 mov	 QWORD PTR [rcx], rax

; 479  : 		_Mylast(),

  00005	48 89 41 08	 mov	 QWORD PTR [rcx+8], rax

; 480  : 		_Myend()

  00009	48 89 41 10	 mov	 QWORD PTR [rcx+16], rax

; 519  : 		}

  0000d	48 8b c1	 mov	 rax, rcx
  00010	c3		 ret	 0
??$?0U?$_Wrap_alloc@V?$allocator@D@std@@@std@@X@?$_Vector_alloc@U?$_Vec_base_types@DV?$allocator@D@std@@@std@@@std@@QEAA@$$QEAU?$_Wrap_alloc@V?$allocator@D@std@@@1@@Z ENDP ; std::_Vector_alloc<std::_Vec_base_types<char,std::allocator<char> > >::_Vector_alloc<std::_Vec_base_types<char,std::allocator<char> > ><std::_Wrap_alloc<std::allocator<char> >,void>
_TEXT	ENDS
; Function compile flags: /Ogtpy
; File c:\users\alist_000\cppmisc\packages\visualcpptools.14.0.24629\lib\native\include\type_traits
;	COMDAT ??$move@AEAV?$vector@DV?$allocator@D@std@@@std@@@std@@YA$$QEAV?$vector@DV?$allocator@D@std@@@0@AEAV10@@Z
_TEXT	SEGMENT
_Arg$ = 8
??$move@AEAV?$vector@DV?$allocator@D@std@@@std@@@std@@YA$$QEAV?$vector@DV?$allocator@D@std@@@0@AEAV10@@Z PROC ; std::move<std::vector<char,std::allocator<char> > & __ptr64>, COMDAT

; 1346 : 	return (static_cast<typename remove_reference<_Ty>::type&&>(_Arg));

  00000	48 8b c1	 mov	 rax, rcx

; 1347 : 	}

  00003	c3		 ret	 0
??$move@AEAV?$vector@DV?$allocator@D@std@@@std@@@std@@YA$$QEAV?$vector@DV?$allocator@D@std@@@0@AEAV10@@Z ENDP ; std::move<std::vector<char,std::allocator<char> > & __ptr64>
_TEXT	ENDS
; Function compile flags: /Ogtpy
; File c:\users\alist_000\cppmisc\packages\visualcpptools.14.0.24629\lib\native\include\xstring
;	COMDAT ??$?0U?$_Wrap_alloc@V?$allocator@D@std@@@std@@X@?$_String_alloc@U?$_String_base_types@DV?$allocator@D@std@@@std@@@std@@QEAA@$$QEAU?$_Wrap_alloc@V?$allocator@D@std@@@1@@Z
_TEXT	SEGMENT
this$ = 8
_Al$ = 16
??$?0U?$_Wrap_alloc@V?$allocator@D@std@@@std@@X@?$_String_alloc@U?$_String_base_types@DV?$allocator@D@std@@@std@@@std@@QEAA@$$QEAU?$_Wrap_alloc@V?$allocator@D@std@@@1@@Z PROC ; std::_String_alloc<std::_String_base_types<char,std::allocator<char> > >::_String_alloc<std::_String_base_types<char,std::allocator<char> > ><std::_Wrap_alloc<std::allocator<char> >,void>, COMDAT

; 1606 : 		_Mysize(0),

  00000	33 c0		 xor	 eax, eax
  00002	48 89 41 10	 mov	 QWORD PTR [rcx+16], rax

; 1607 : 		_Myres(0)

  00006	48 89 41 18	 mov	 QWORD PTR [rcx+24], rax

; 1713 : 		}

  0000a	48 8b c1	 mov	 rax, rcx
  0000d	c3		 ret	 0
??$?0U?$_Wrap_alloc@V?$allocator@D@std@@@std@@X@?$_String_alloc@U?$_String_base_types@DV?$allocator@D@std@@@std@@@std@@QEAA@$$QEAU?$_Wrap_alloc@V?$allocator@D@std@@@1@@Z ENDP ; std::_String_alloc<std::_String_base_types<char,std::allocator<char> > >::_String_alloc<std::_String_base_types<char,std::allocator<char> > ><std::_Wrap_alloc<std::allocator<char> >,void>
_TEXT	ENDS
; Function compile flags: /Ogtpy
; File c:\users\alist_000\cppmisc\packages\visualcpptools.14.0.24629\lib\native\include\type_traits
;	COMDAT ??$move@AEAV?$basic_string@DU?$char_traits@D@std@@V?$allocator@D@2@@std@@@std@@YA$$QEAV?$basic_string@DU?$char_traits@D@std@@V?$allocator@D@2@@0@AEAV10@@Z
_TEXT	SEGMENT
_Arg$ = 8
??$move@AEAV?$basic_string@DU?$char_traits@D@std@@V?$allocator@D@2@@std@@@std@@YA$$QEAV?$basic_string@DU?$char_traits@D@std@@V?$allocator@D@2@@0@AEAV10@@Z PROC ; std::move<std::basic_string<char,std::char_traits<char>,std::allocator<char> > & __ptr64>, COMDAT

; 1346 : 	return (static_cast<typename remove_reference<_Ty>::type&&>(_Arg));

  00000	48 8b c1	 mov	 rax, rcx

; 1347 : 	}

  00003	c3		 ret	 0
??$move@AEAV?$basic_string@DU?$char_traits@D@std@@V?$allocator@D@2@@std@@@std@@YA$$QEAV?$basic_string@DU?$char_traits@D@std@@V?$allocator@D@2@@0@AEAV10@@Z ENDP ; std::move<std::basic_string<char,std::char_traits<char>,std::allocator<char> > & __ptr64>
_TEXT	ENDS
; Function compile flags: /Ogtpy
; File c:\users\alist_000\cppmisc\packages\visualcpptools.14.0.24629\lib\native\include\xutility
; File c:\users\alist_000\cppmisc\packages\visualcpptools.14.0.24629\lib\native\include\vector
; File c:\users\alist_000\cppmisc\packages\visualcpptools.14.0.24629\lib\native\include\xutility
;	COMDAT ??$?0$$V@?$_Compressed_pair@U?$_Wrap_alloc@V?$allocator@D@std@@@std@@V?$_Vector_val@U?$_Simple_types@D@std@@@2@$00@std@@QEAA@U_Zero_then_variadic_args_t@1@@Z
_TEXT	SEGMENT
this$ = 8
__formal$dead$ = 16
??$?0$$V@?$_Compressed_pair@U?$_Wrap_alloc@V?$allocator@D@std@@@std@@V?$_Vector_val@U?$_Simple_types@D@std@@@2@$00@std@@QEAA@U_Zero_then_variadic_args_t@1@@Z PROC ; std::_Compressed_pair<std::_Wrap_alloc<std::allocator<char> >,std::_Vector_val<std::_Simple_types<char> >,1>::_Compressed_pair<std::_Wrap_alloc<std::allocator<char> >,std::_Vector_val<std::_Simple_types<char> >,1><>, COMDAT
; File c:\users\alist_000\cppmisc\packages\visualcpptools.14.0.24629\lib\native\include\vector

; 478  : 		: _Myfirst(),

  00000	33 c0		 xor	 eax, eax
  00002	48 89 01	 mov	 QWORD PTR [rcx], rax

; 479  : 		_Mylast(),

  00005	48 89 41 08	 mov	 QWORD PTR [rcx+8], rax

; 480  : 		_Myend()

  00009	48 89 41 10	 mov	 QWORD PTR [rcx+16], rax
; File c:\users\alist_000\cppmisc\packages\visualcpptools.14.0.24629\lib\native\include\xutility

; 295  : 		}

  0000d	48 8b c1	 mov	 rax, rcx
  00010	c3		 ret	 0
??$?0$$V@?$_Compressed_pair@U?$_Wrap_alloc@V?$allocator@D@std@@@std@@V?$_Vector_val@U?$_Simple_types@D@std@@@2@$00@std@@QEAA@U_Zero_then_variadic_args_t@1@@Z ENDP ; std::_Compressed_pair<std::_Wrap_alloc<std::allocator<char> >,std::_Vector_val<std::_Simple_types<char> >,1>::_Compressed_pair<std::_Wrap_alloc<std::allocator<char> >,std::_Vector_val<std::_Simple_types<char> >,1><>
_TEXT	ENDS
; Function compile flags: /Ogtpy
; File c:\users\alist_000\cppmisc\packages\visualcpptools.14.0.24629\lib\native\include\xmemory
;	COMDAT ??$_Uninitialized_default_fill_n@PEAD_KV?$allocator@D@std@@@std@@YAPEADPEAD_KAEAU?$_Wrap_alloc@V?$allocator@D@std@@@0@@Z
_TEXT	SEGMENT
_First$ = 48
_Count$ = 56
_Al$dead$ = 64
??$_Uninitialized_default_fill_n@PEAD_KV?$allocator@D@std@@@std@@YAPEADPEAD_KAEAU?$_Wrap_alloc@V?$allocator@D@std@@@0@@Z PROC ; std::_Uninitialized_default_fill_n<char * __ptr64,unsigned __int64,std::allocator<char> >, COMDAT

; 485  : 	{	// value-initialize _Count objects to raw _First, using _Al

$LN6:
  00000	48 89 5c 24 08	 mov	 QWORD PTR [rsp+8], rbx
  00005	57		 push	 rdi
  00006	48 83 ec 20	 sub	 rsp, 32			; 00000020H
  0000a	48 8b fa	 mov	 rdi, rdx

; 476  : 	_CSTD memset(_First, 0, _Count * sizeof(_Iter_value_t<_FwdIt>));

  0000d	4c 8b c2	 mov	 r8, rdx
  00010	33 d2		 xor	 edx, edx

; 485  : 	{	// value-initialize _Count objects to raw _First, using _Al

  00012	48 8b d9	 mov	 rbx, rcx

; 476  : 	_CSTD memset(_First, 0, _Count * sizeof(_Iter_value_t<_FwdIt>));

  00015	e8 00 00 00 00	 call	 memset

; 477  : 	return (_First + _Count);

  0001a	48 8d 04 3b	 lea	 rax, QWORD PTR [rbx+rdi]

; 486  : 	typedef _Iter_value_t<_FwdIt> _Ty;
; 487  : 	return (_Uninitialized_default_fill_n1(_First, _Count, _Al,
; 488  : 		_Conjunction_t<
; 489  : 			is_pointer<_FwdIt>,
; 490  : 			is_scalar<_Ty>,
; 491  : 			negation<is_volatile<_Ty>>,
; 492  : 			negation<is_member_pointer<_Ty>>,
; 493  : 			_Uses_default_construct<_Alloc, decltype(_Unfancy(_First))>>()));
; 494  : 	}

  0001e	48 8b 5c 24 30	 mov	 rbx, QWORD PTR [rsp+48]
  00023	48 83 c4 20	 add	 rsp, 32			; 00000020H
  00027	5f		 pop	 rdi
  00028	c3		 ret	 0
??$_Uninitialized_default_fill_n@PEAD_KV?$allocator@D@std@@@std@@YAPEADPEAD_KAEAU?$_Wrap_alloc@V?$allocator@D@std@@@0@@Z ENDP ; std::_Uninitialized_default_fill_n<char * __ptr64,unsigned __int64,std::allocator<char> >
_TEXT	ENDS
; Function compile flags: /Ogtpy
; File c:\users\alist_000\cppmisc\packages\visualcpptools.14.0.24629\lib\native\include\xmemory0
;	COMDAT ??$?0V?$allocator@D@std@@@?$_Wrap_alloc@V?$allocator@D@std@@@std@@QEAA@$$QEAV?$allocator@D@1@@Z
_TEXT	SEGMENT
this$ = 8
_Right$ = 16
??$?0V?$allocator@D@std@@@?$_Wrap_alloc@V?$allocator@D@std@@@std@@QEAA@$$QEAV?$allocator@D@1@@Z PROC ; std::_Wrap_alloc<std::allocator<char> >::_Wrap_alloc<std::allocator<char> ><std::allocator<char> >, COMDAT

; 1047 : 		}

  00000	48 8b c1	 mov	 rax, rcx
  00003	c3		 ret	 0
??$?0V?$allocator@D@std@@@?$_Wrap_alloc@V?$allocator@D@std@@@std@@QEAA@$$QEAV?$allocator@D@1@@Z ENDP ; std::_Wrap_alloc<std::allocator<char> >::_Wrap_alloc<std::allocator<char> ><std::allocator<char> >
_TEXT	ENDS
; Function compile flags: /Ogtpy
; File c:\users\alist_000\cppmisc\packages\visualcpptools.14.0.24629\lib\native\include\xutility
; File c:\users\alist_000\cppmisc\packages\visualcpptools.14.0.24629\lib\native\include\xstring
; File c:\users\alist_000\cppmisc\packages\visualcpptools.14.0.24629\lib\native\include\xutility
;	COMDAT ??$?0$$V@?$_Compressed_pair@U?$_Wrap_alloc@V?$allocator@D@std@@@std@@V?$_String_val@U?$_Simple_types@D@std@@@2@$00@std@@QEAA@U_Zero_then_variadic_args_t@1@@Z
_TEXT	SEGMENT
this$ = 8
__formal$ = 16
??$?0$$V@?$_Compressed_pair@U?$_Wrap_alloc@V?$allocator@D@std@@@std@@V?$_String_val@U?$_Simple_types@D@std@@@2@$00@std@@QEAA@U_Zero_then_variadic_args_t@1@@Z PROC ; std::_Compressed_pair<std::_Wrap_alloc<std::allocator<char> >,std::_String_val<std::_Simple_types<char> >,1>::_Compressed_pair<std::_Wrap_alloc<std::allocator<char> >,std::_String_val<std::_Simple_types<char> >,1><>, COMDAT
; File c:\users\alist_000\cppmisc\packages\visualcpptools.14.0.24629\lib\native\include\xstring

; 1606 : 		_Mysize(0),

  00000	33 c0		 xor	 eax, eax
  00002	48 89 41 10	 mov	 QWORD PTR [rcx+16], rax

; 1607 : 		_Myres(0)

  00006	48 89 41 18	 mov	 QWORD PTR [rcx+24], rax
; File c:\users\alist_000\cppmisc\packages\visualcpptools.14.0.24629\lib\native\include\xutility

; 295  : 		}

  0000a	48 8b c1	 mov	 rax, rcx
  0000d	c3		 ret	 0
??$?0$$V@?$_Compressed_pair@U?$_Wrap_alloc@V?$allocator@D@std@@@std@@V?$_String_val@U?$_Simple_types@D@std@@@2@$00@std@@QEAA@U_Zero_then_variadic_args_t@1@@Z ENDP ; std::_Compressed_pair<std::_Wrap_alloc<std::allocator<char> >,std::_String_val<std::_Simple_types<char> >,1>::_Compressed_pair<std::_Wrap_alloc<std::allocator<char> >,std::_String_val<std::_Simple_types<char> >,1><>
_TEXT	ENDS
; Function compile flags: /Ogtpy
; File c:\users\alist_000\cppmisc\packages\visualcpptools.14.0.24629\lib\native\include\xstddef
;	COMDAT ??$addressof@PEAD@std@@YAPEAPEADAEAPEAD@Z
_TEXT	SEGMENT
_Val$ = 8
??$addressof@PEAD@std@@YAPEAPEADAEAPEAD@Z PROC		; std::addressof<char * __ptr64>, COMDAT

; 629  : 	return (__builtin_addressof(_Val));

  00000	48 8b c1	 mov	 rax, rcx

; 630  : 	}

  00003	c3		 ret	 0
??$addressof@PEAD@std@@YAPEAPEADAEAPEAD@Z ENDP		; std::addressof<char * __ptr64>
_TEXT	ENDS
; Function compile flags: /Ogtpy
; File c:\users\alist_000\cppmisc\packages\visualcpptools.14.0.24629\lib\native\include\xmemory0
;	COMDAT ??$destroy@PEAD@?$_Wrap_alloc@V?$allocator@D@std@@@std@@QEAAXPEAPEAD@Z
_TEXT	SEGMENT
this$ = 8
_Ptr$ = 16
??$destroy@PEAD@?$_Wrap_alloc@V?$allocator@D@std@@@std@@QEAAXPEAPEAD@Z PROC ; std::_Wrap_alloc<std::allocator<char> >::destroy<char * __ptr64>, COMDAT

; 1096 : 		_Mytraits::destroy(*this, _Ptr);
; 1097 : 		}

  00000	c2 00 00	 ret	 0
??$destroy@PEAD@?$_Wrap_alloc@V?$allocator@D@std@@@std@@QEAAXPEAPEAD@Z ENDP ; std::_Wrap_alloc<std::allocator<char> >::destroy<char * __ptr64>
_TEXT	ENDS
; Function compile flags: /Ogtpy
; File c:\users\alist_000\cppmisc\packages\visualcpptools.14.0.24629\lib\native\include\xmemory0
;	COMDAT ??$construct@PEADAEAPEAD@?$_Wrap_alloc@V?$allocator@D@std@@@std@@QEAAXPEAPEADAEAPEAD@Z
_TEXT	SEGMENT
this$ = 8
_Ptr$ = 16
<_Args_0>$ = 24
??$construct@PEADAEAPEAD@?$_Wrap_alloc@V?$allocator@D@std@@@std@@QEAAXPEAPEADAEAPEAD@Z PROC ; std::_Wrap_alloc<std::allocator<char> >::construct<char * __ptr64,char * __ptr64 & __ptr64>, COMDAT

; 833  : 		::new ((void *)_Ptr) _Objty(_STD forward<_Types>(_Args)...);

  00000	48 85 d2	 test	 rdx, rdx
  00003	74 06		 je	 SHORT $LN13@construct
  00005	49 8b 00	 mov	 rax, QWORD PTR [r8]
  00008	48 89 02	 mov	 QWORD PTR [rdx], rax
$LN13@construct:

; 1089 : 		_Mytraits::construct(*this, _Ptr,
; 1090 : 			_STD forward<_Types>(_Args)...);
; 1091 : 		}

  0000b	c3		 ret	 0
??$construct@PEADAEAPEAD@?$_Wrap_alloc@V?$allocator@D@std@@@std@@QEAAXPEAPEADAEAPEAD@Z ENDP ; std::_Wrap_alloc<std::allocator<char> >::construct<char * __ptr64,char * __ptr64 & __ptr64>
_TEXT	ENDS
; Function compile flags: /Ogtpy
; File c:\users\alist_000\cppmisc\packages\visualcpptools.14.0.24629\lib\native\include\xmemory0
;	COMDAT ??$_Destroy_range@V?$allocator@D@std@@PEAD@std@@YAXPEAD0AEAU?$_Wrap_alloc@V?$allocator@D@std@@@0@@Z
_TEXT	SEGMENT
_First$dead$ = 8
_Last$dead$ = 16
_Al$dead$ = 24
??$_Destroy_range@V?$allocator@D@std@@PEAD@std@@YAXPEAD0AEAU?$_Wrap_alloc@V?$allocator@D@std@@@0@@Z PROC ; std::_Destroy_range<std::allocator<char>,char * __ptr64>, COMDAT

; 1208 : 		// note that this is an optimization for debug mode codegen;
; 1209 : 		// in release mode the BE removes all of this
; 1210 : 	typedef typename _Alloc::value_type _Val;
; 1211 : 	_Destroy_range1(_First, _Last, _Al, _Conjunction_t<
; 1212 : 		is_trivially_destructible<_Val>,
; 1213 : 		_Uses_default_destroy<_Alloc, _Val *>>());
; 1214 : 	}

  00000	c2 00 00	 ret	 0
??$_Destroy_range@V?$allocator@D@std@@PEAD@std@@YAXPEAD0AEAU?$_Wrap_alloc@V?$allocator@D@std@@@0@@Z ENDP ; std::_Destroy_range<std::allocator<char>,char * __ptr64>
_TEXT	ENDS
; Function compile flags: /Ogtpy
; File c:\users\alist_000\cppmisc\packages\visualcpptools.14.0.24629\lib\native\include\xstddef
;	COMDAT ??$_Unfancy@D@std@@YAPEADPEAD@Z
_TEXT	SEGMENT
_Ptr$ = 8
??$_Unfancy@D@std@@YAPEADPEAD@Z PROC			; std::_Unfancy<char>, COMDAT

; 642  : 	return (_Ptr);

  00000	48 8b c1	 mov	 rax, rcx

; 643  : 	}

  00003	c3		 ret	 0
??$_Unfancy@D@std@@YAPEADPEAD@Z ENDP			; std::_Unfancy<char>
_TEXT	ENDS
; Function compile flags: /Ogtpy
; File c:\users\alist_000\cppmisc\packages\visualcpptools.14.0.24629\lib\native\include\utility
;	COMDAT ??$_Min_value@_K@std@@YAAEB_KAEB_K0@Z
_TEXT	SEGMENT
_Left$ = 8
_Right$ = 16
??$_Min_value@_K@std@@YAAEB_KAEB_K0@Z PROC		; std::_Min_value<unsigned __int64>, COMDAT

; 24   : 	return (_Right < _Left ? _Right : _Left);

  00000	48 8b 01	 mov	 rax, QWORD PTR [rcx]
  00003	48 39 02	 cmp	 QWORD PTR [rdx], rax
  00006	48 0f 42 ca	 cmovb	 rcx, rdx
  0000a	48 8b c1	 mov	 rax, rcx

; 25   : 	}

  0000d	c3		 ret	 0
??$_Min_value@_K@std@@YAAEB_KAEB_K0@Z ENDP		; std::_Min_value<unsigned __int64>
_TEXT	ENDS
; Function compile flags: /Ogtpy
;	COMDAT ??__F_Static@?1???$_Immortalize@V_Iostream_error_category@std@@@std@@YAAEAV_Iostream_error_category@0@XZ@YAXXZ
text$yd	SEGMENT
??__F_Static@?1???$_Immortalize@V_Iostream_error_category@std@@@std@@YAAEAV_Iostream_error_category@0@XZ@YAXXZ PROC ; `std::_Immortalize<std::_Iostream_error_category>'::`2'::`dynamic atexit destructor for '_Static'', COMDAT
  00000	c2 00 00	 ret	 0
??__F_Static@?1???$_Immortalize@V_Iostream_error_category@std@@@std@@YAAEAV_Iostream_error_category@0@XZ@YAXXZ ENDP ; `std::_Immortalize<std::_Iostream_error_category>'::`2'::`dynamic atexit destructor for '_Static''
text$yd	ENDS
; Function compile flags: /Ogtpy
; File c:\users\alist_000\cppmisc\packages\visualcpptools.14.0.24629\lib\native\include\vcruntime_exception.h
;	COMDAT ??0bad_cast@std@@QEAA@AEBV01@@Z
_TEXT	SEGMENT
this$ = 48
__that$ = 56
??0bad_cast@std@@QEAA@AEBV01@@Z PROC			; std::bad_cast::bad_cast, COMDAT
$LN6:
  00000	40 53		 push	 rbx
  00002	48 83 ec 20	 sub	 rsp, 32			; 00000020H
  00006	48 8b d9	 mov	 rbx, rcx
  00009	48 8b c2	 mov	 rax, rdx

; 65   :         : _Data()

  0000c	48 8d 53 08	 lea	 rdx, QWORD PTR [rbx+8]

; 66   :     {

  00010	48 8d 0d 00 00
	00 00		 lea	 rcx, OFFSET FLAT:??_7exception@std@@6B@
  00017	48 89 0b	 mov	 QWORD PTR [rbx], rcx
  0001a	33 c9		 xor	 ecx, ecx
  0001c	48 89 0a	 mov	 QWORD PTR [rdx], rcx
  0001f	48 89 4a 08	 mov	 QWORD PTR [rdx+8], rcx

; 67   :         __std_exception_copy(&_Other._Data, &_Data);

  00023	48 8d 48 08	 lea	 rcx, QWORD PTR [rax+8]
  00027	e8 00 00 00 00	 call	 __std_exception_copy
  0002c	48 8d 05 00 00
	00 00		 lea	 rax, OFFSET FLAT:??_7bad_cast@std@@6B@
  00033	48 89 03	 mov	 QWORD PTR [rbx], rax
  00036	48 8b c3	 mov	 rax, rbx
  00039	48 83 c4 20	 add	 rsp, 32			; 00000020H
  0003d	5b		 pop	 rbx
  0003e	c3		 ret	 0
??0bad_cast@std@@QEAA@AEBV01@@Z ENDP			; std::bad_cast::bad_cast
_TEXT	ENDS
; Function compile flags: /Ogtpy
; File c:\users\alist_000\cppmisc\packages\visualcpptools.14.0.24629\lib\native\include\system_error
;	COMDAT ??1?$_Immortalizer@V_Iostream_error_category@std@@@std@@QEAA@XZ
_TEXT	SEGMENT
this$ = 8
??1?$_Immortalizer@V_Iostream_error_category@std@@@std@@QEAA@XZ PROC ; std::_Immortalizer<std::_Iostream_error_category>::~_Immortalizer<std::_Iostream_error_category>, COMDAT

; 683  : 		}

  00000	c2 00 00	 ret	 0
??1?$_Immortalizer@V_Iostream_error_category@std@@@std@@QEAA@XZ ENDP ; std::_Immortalizer<std::_Iostream_error_category>::~_Immortalizer<std::_Iostream_error_category>
_TEXT	ENDS
; Function compile flags: /Ogtpy
; File c:\users\alist_000\cppmisc\packages\visualcpptools.14.0.24629\lib\native\include\system_error
;	COMDAT ??0?$_Immortalizer@V_Iostream_error_category@std@@@std@@QEAA@XZ
_TEXT	SEGMENT
this$ = 8
??0?$_Immortalizer@V_Iostream_error_category@std@@@std@@QEAA@XZ PROC ; std::_Immortalizer<std::_Iostream_error_category>::_Immortalizer<std::_Iostream_error_category>, COMDAT

; 677  : 		{	// construct _Ty inside _Storage
; 678  : 		::new (static_cast<void *>(&_Storage)) _Ty();

  00000	48 85 c9	 test	 rcx, rcx
  00003	74 12		 je	 SHORT $LN16@Immortaliz

; 612  : 		{	// default constructor

  00005	48 8d 05 00 00
	00 00		 lea	 rax, OFFSET FLAT:??_7_Iostream_error_category@std@@6B@

; 613  : 		_Addr = _Iostream_addr;

  0000c	48 c7 41 08 05
	00 00 00	 mov	 QWORD PTR [rcx+8], 5
  00014	48 89 01	 mov	 QWORD PTR [rcx], rax
$LN16@Immortaliz:

; 679  : 		}

  00017	48 8b c1	 mov	 rax, rcx
  0001a	c3		 ret	 0
??0?$_Immortalizer@V_Iostream_error_category@std@@@std@@QEAA@XZ ENDP ; std::_Immortalizer<std::_Iostream_error_category>::_Immortalizer<std::_Iostream_error_category>
_TEXT	ENDS
; Function compile flags: /Ogtpy
; File c:\users\alist_000\cppmisc\packages\visualcpptools.14.0.24629\lib\native\include\ostream
;	COMDAT ??Bsentry@?$basic_ostream@DU?$char_traits@D@std@@@std@@QEBA_NXZ
_TEXT	SEGMENT
this$ = 8
??Bsentry@?$basic_ostream@DU?$char_traits@D@std@@@std@@QEBA_NXZ PROC ; std::basic_ostream<char,std::char_traits<char> >::sentry::operator bool, COMDAT

; 142  : 			return (_Ok);

  00000	0f b6 41 08	 movzx	 eax, BYTE PTR [rcx+8]

; 143  : 			}

  00004	c3		 ret	 0
??Bsentry@?$basic_ostream@DU?$char_traits@D@std@@@std@@QEBA_NXZ ENDP ; std::basic_ostream<char,std::char_traits<char> >::sentry::operator bool
_TEXT	ENDS
; Function compile flags: /Ogtpy
; File c:\users\alist_000\cppmisc\packages\visualcpptools.14.0.24629\lib\native\include\ostream
; File c:\users\alist_000\cppmisc\packages\visualcpptools.14.0.24629\lib\native\include\ios
; File c:\users\alist_000\cppmisc\packages\visualcpptools.14.0.24629\lib\native\include\ostream
;	COMDAT ??1sentry@?$basic_ostream@DU?$char_traits@D@std@@@std@@QEAA@XZ
_TEXT	SEGMENT
$T1 = 32
this$ = 64
??1sentry@?$basic_ostream@DU?$char_traits@D@std@@@std@@QEAA@XZ PROC ; std::basic_ostream<char,std::char_traits<char> >::sentry::~sentry, COMDAT

; 130  : 			{	// destroy the object

$LN13:
  00000	40 53		 push	 rbx
  00002	48 83 ec 30	 sub	 rsp, 48			; 00000030H
  00006	48 c7 44 24 20
	fe ff ff ff	 mov	 QWORD PTR $T1[rsp], -2
  0000f	48 8b d9	 mov	 rbx, rcx

; 131  :  #if _HAS_EXCEPTIONS
; 132  : 			if (!_STD uncaught_exception())

  00012	e8 00 00 00 00	 call	 ?uncaught_exception@std@@YA_NXZ ; std::uncaught_exception
  00017	90		 npad	 1
  00018	84 c0		 test	 al, al
  0001a	75 09		 jne	 SHORT $LN2@sentry

; 133  : 				this->_Myostr._Osfx();

  0001c	48 8b 0b	 mov	 rcx, QWORD PTR [rbx]
  0001f	e8 00 00 00 00	 call	 ?_Osfx@?$basic_ostream@DU?$char_traits@D@std@@@std@@QEAAXXZ ; std::basic_ostream<char,std::char_traits<char> >::_Osfx
  00024	90		 npad	 1
$LN2@sentry:

; 107  : 			if (_Myostr.rdbuf() != 0)

  00025	48 8b 13	 mov	 rdx, QWORD PTR [rbx]
  00028	48 8b 02	 mov	 rax, QWORD PTR [rdx]
  0002b	48 63 48 04	 movsxd	 rcx, DWORD PTR [rax+4]
; File c:\users\alist_000\cppmisc\packages\visualcpptools.14.0.24629\lib\native\include\ios

; 92   : 		return (_Mystrbuf);

  0002f	48 8b 4c 11 48	 mov	 rcx, QWORD PTR [rcx+rdx+72]
; File c:\users\alist_000\cppmisc\packages\visualcpptools.14.0.24629\lib\native\include\ostream

; 107  : 			if (_Myostr.rdbuf() != 0)

  00034	48 85 c9	 test	 rcx, rcx
  00037	74 07		 je	 SHORT $LN12@sentry

; 108  : 				_Myostr.rdbuf()->_Unlock();

  00039	48 8b 01	 mov	 rax, QWORD PTR [rcx]
  0003c	ff 50 10	 call	 QWORD PTR [rax+16]
  0003f	90		 npad	 1
$LN12@sentry:

; 134  : 
; 135  :  #else /* _HAS_EXCEPTIONS */
; 136  : 			this->_Myostr._Osfx();
; 137  :  #endif /* _HAS_EXCEPTIONS */
; 138  : 			}

  00040	48 83 c4 30	 add	 rsp, 48			; 00000030H
  00044	5b		 pop	 rbx
  00045	c3		 ret	 0
??1sentry@?$basic_ostream@DU?$char_traits@D@std@@@std@@QEAA@XZ ENDP ; std::basic_ostream<char,std::char_traits<char> >::sentry::~sentry
_TEXT	ENDS
; Function compile flags: /Ogtpy
; File c:\users\alist_000\cppmisc\packages\visualcpptools.14.0.24629\lib\native\include\ostream
; File c:\users\alist_000\cppmisc\packages\visualcpptools.14.0.24629\lib\native\include\ios
; File c:\users\alist_000\cppmisc\packages\visualcpptools.14.0.24629\lib\native\include\ostream
; File c:\users\alist_000\cppmisc\packages\visualcpptools.14.0.24629\lib\native\include\xiosbase
; File c:\users\alist_000\cppmisc\packages\visualcpptools.14.0.24629\lib\native\include\ostream
; File c:\users\alist_000\cppmisc\packages\visualcpptools.14.0.24629\lib\native\include\ios
; File c:\users\alist_000\cppmisc\packages\visualcpptools.14.0.24629\lib\native\include\ostream
; File c:\users\alist_000\cppmisc\packages\visualcpptools.14.0.24629\lib\native\include\xiosbase
; File c:\users\alist_000\cppmisc\packages\visualcpptools.14.0.24629\lib\native\include\ostream
;	COMDAT ??0sentry@?$basic_ostream@DU?$char_traits@D@std@@@std@@QEAA@AEAV12@@Z
_TEXT	SEGMENT
$T1 = 32
this$ = 64
_Ostr$ = 72
??0sentry@?$basic_ostream@DU?$char_traits@D@std@@@std@@QEAA@AEAV12@@Z PROC ; std::basic_ostream<char,std::char_traits<char> >::sentry::sentry, COMDAT

; 123  : 			{	// construct locking and testing stream

$LN26:
  00000	48 89 4c 24 08	 mov	 QWORD PTR [rsp+8], rcx
  00005	57		 push	 rdi
  00006	48 83 ec 30	 sub	 rsp, 48			; 00000030H
  0000a	48 c7 44 24 20
	fe ff ff ff	 mov	 QWORD PTR $T1[rsp], -2
  00013	48 89 5c 24 48	 mov	 QWORD PTR [rsp+72], rbx
  00018	48 8b da	 mov	 rbx, rdx
  0001b	48 8b f9	 mov	 rdi, rcx

; 99   : 			: _Myostr(_Ostr)

  0001e	48 89 11	 mov	 QWORD PTR [rcx], rdx

; 101  : 			if (_Myostr.rdbuf() != 0)

  00021	48 8b 02	 mov	 rax, QWORD PTR [rdx]
  00024	4c 63 40 04	 movsxd	 r8, DWORD PTR [rax+4]
; File c:\users\alist_000\cppmisc\packages\visualcpptools.14.0.24629\lib\native\include\ios

; 92   : 		return (_Mystrbuf);

  00028	49 8b 4c 10 48	 mov	 rcx, QWORD PTR [r8+rdx+72]
; File c:\users\alist_000\cppmisc\packages\visualcpptools.14.0.24629\lib\native\include\ostream

; 101  : 			if (_Myostr.rdbuf() != 0)

  0002d	48 85 c9	 test	 rcx, rcx
  00030	74 07		 je	 SHORT $LN6@sentry

; 102  : 				_Myostr.rdbuf()->_Lock();

  00032	48 8b 01	 mov	 rax, QWORD PTR [rcx]
  00035	ff 50 08	 call	 QWORD PTR [rax+8]
  00038	90		 npad	 1
$LN6@sentry:

; 124  : 			if (_Ostr.good() && _Ostr.tie() != 0 && _Ostr.tie() != &_Ostr)

  00039	48 8b 03	 mov	 rax, QWORD PTR [rbx]
  0003c	48 63 48 04	 movsxd	 rcx, DWORD PTR [rax+4]
; File c:\users\alist_000\cppmisc\packages\visualcpptools.14.0.24629\lib\native\include\xiosbase

; 339  : 		return (rdstate() == goodbit);

  00040	83 7c 19 10 00	 cmp	 DWORD PTR [rcx+rbx+16], 0
; File c:\users\alist_000\cppmisc\packages\visualcpptools.14.0.24629\lib\native\include\ostream

; 124  : 			if (_Ostr.good() && _Ostr.tie() != 0 && _Ostr.tie() != &_Ostr)

  00045	75 14		 jne	 SHORT $LN2@sentry
; File c:\users\alist_000\cppmisc\packages\visualcpptools.14.0.24629\lib\native\include\ios

; 80   : 		return (_Tiestr);

  00047	48 8b 4c 19 50	 mov	 rcx, QWORD PTR [rcx+rbx+80]
; File c:\users\alist_000\cppmisc\packages\visualcpptools.14.0.24629\lib\native\include\ostream

; 124  : 			if (_Ostr.good() && _Ostr.tie() != 0 && _Ostr.tie() != &_Ostr)

  0004c	48 85 c9	 test	 rcx, rcx
  0004f	74 0a		 je	 SHORT $LN2@sentry
  00051	48 3b cb	 cmp	 rcx, rbx
  00054	74 05		 je	 SHORT $LN2@sentry

; 125  : 				_Ostr.tie()->flush();

  00056	e8 00 00 00 00	 call	 ?flush@?$basic_ostream@DU?$char_traits@D@std@@@std@@QEAAAEAV12@XZ ; std::basic_ostream<char,std::char_traits<char> >::flush
$LN2@sentry:

; 126  : 			_Ok = _Ostr.good();	// store test only after flushing tie

  0005b	48 8b 03	 mov	 rax, QWORD PTR [rbx]
  0005e	48 63 48 04	 movsxd	 rcx, DWORD PTR [rax+4]
; File c:\users\alist_000\cppmisc\packages\visualcpptools.14.0.24629\lib\native\include\xiosbase

; 339  : 		return (rdstate() == goodbit);

  00062	83 7c 19 10 00	 cmp	 DWORD PTR [rcx+rbx+16], 0
  00067	0f 94 c0	 sete	 al
; File c:\users\alist_000\cppmisc\packages\visualcpptools.14.0.24629\lib\native\include\ostream

; 126  : 			_Ok = _Ostr.good();	// store test only after flushing tie

  0006a	88 47 08	 mov	 BYTE PTR [rdi+8], al

; 127  : 			}

  0006d	48 8b c7	 mov	 rax, rdi
  00070	48 8b 5c 24 48	 mov	 rbx, QWORD PTR [rsp+72]
  00075	48 83 c4 30	 add	 rsp, 48			; 00000030H
  00079	5f		 pop	 rdi
  0007a	c3		 ret	 0
??0sentry@?$basic_ostream@DU?$char_traits@D@std@@@std@@QEAA@AEAV12@@Z ENDP ; std::basic_ostream<char,std::char_traits<char> >::sentry::sentry
_TEXT	ENDS
;	COMDAT text$x
text$x	SEGMENT
$T1 = 32
this$ = 64
_Ostr$ = 72
?dtor$0@?0???0sentry@?$basic_ostream@DU?$char_traits@D@std@@@std@@QEAA@AEAV12@@Z@4HA PROC ; `std::basic_ostream<char,std::char_traits<char> >::sentry::sentry'::`1'::dtor$0
  00000	48 8b 8a 40 00
	00 00		 mov	 rcx, QWORD PTR this$[rdx]
  00007	e9 00 00 00 00	 jmp	 ??1_Sentry_base@?$basic_ostream@DU?$char_traits@D@std@@@std@@QEAA@XZ ; std::basic_ostream<char,std::char_traits<char> >::_Sentry_base::~_Sentry_base
?dtor$0@?0???0sentry@?$basic_ostream@DU?$char_traits@D@std@@@std@@QEAA@AEAV12@@Z@4HA ENDP ; `std::basic_ostream<char,std::char_traits<char> >::sentry::sentry'::`1'::dtor$0
text$x	ENDS
; Function compile flags: /Ogtpy
;	COMDAT text$x
text$x	SEGMENT
$T1 = 32
this$ = 64
_Ostr$ = 72
?dtor$0@?0???0sentry@?$basic_ostream@DU?$char_traits@D@std@@@std@@QEAA@AEAV12@@Z@4HA PROC ; `std::basic_ostream<char,std::char_traits<char> >::sentry::sentry'::`1'::dtor$0
  00000	48 8b 8a 40 00
	00 00		 mov	 rcx, QWORD PTR this$[rdx]
  00007	e9 00 00 00 00	 jmp	 ??1_Sentry_base@?$basic_ostream@DU?$char_traits@D@std@@@std@@QEAA@XZ ; std::basic_ostream<char,std::char_traits<char> >::_Sentry_base::~_Sentry_base
?dtor$0@?0???0sentry@?$basic_ostream@DU?$char_traits@D@std@@@std@@QEAA@AEAV12@@Z@4HA ENDP ; `std::basic_ostream<char,std::char_traits<char> >::sentry::sentry'::`1'::dtor$0
text$x	ENDS
; Function compile flags: /Ogtpy
; File c:\users\alist_000\cppmisc\packages\visualcpptools.14.0.24629\lib\native\include\vector
;	COMDAT ??0?$_Vector_val@U?$_Simple_types@D@std@@@std@@QEAA@XZ
_TEXT	SEGMENT
this$ = 8
??0?$_Vector_val@U?$_Simple_types@D@std@@@std@@QEAA@XZ PROC ; std::_Vector_val<std::_Simple_types<char> >::_Vector_val<std::_Simple_types<char> >, COMDAT

; 478  : 		: _Myfirst(),

  00000	33 c0		 xor	 eax, eax
  00002	48 89 01	 mov	 QWORD PTR [rcx], rax

; 479  : 		_Mylast(),

  00005	48 89 41 08	 mov	 QWORD PTR [rcx+8], rax

; 480  : 		_Myend()

  00009	48 89 41 10	 mov	 QWORD PTR [rcx+16], rax

; 482  : 		}

  0000d	48 8b c1	 mov	 rax, rcx
  00010	c3		 ret	 0
??0?$_Vector_val@U?$_Simple_types@D@std@@@std@@QEAA@XZ ENDP ; std::_Vector_val<std::_Simple_types<char> >::_Vector_val<std::_Simple_types<char> >
_TEXT	ENDS
; Function compile flags: /Ogtpy
; File c:\users\alist_000\cppmisc\packages\visualcpptools.14.0.24629\lib\native\include\vector
;	COMDAT ?_Orphan_range@?$vector@DV?$allocator@D@std@@@std@@AEBAXPEAD0@Z
_TEXT	SEGMENT
this$dead$ = 8
__formal$dead$ = 16
__formal$dead$ = 24
?_Orphan_range@?$vector@DV?$allocator@D@std@@@std@@AEBAXPEAD0@Z PROC ; std::vector<char,std::allocator<char> >::_Orphan_range, COMDAT

; 1970 : 		}

  00000	c2 00 00	 ret	 0
?_Orphan_range@?$vector@DV?$allocator@D@std@@@std@@AEBAXPEAD0@Z ENDP ; std::vector<char,std::allocator<char> >::_Orphan_range
_TEXT	ENDS
; Function compile flags: /Ogtpy
; File c:\users\alist_000\cppmisc\packages\visualcpptools.14.0.24629\lib\native\include\vector
;	COMDAT ?_Xlength@?$vector@DV?$allocator@D@std@@@std@@CAXXZ
_TEXT	SEGMENT
?_Xlength@?$vector@DV?$allocator@D@std@@@std@@CAXXZ PROC ; std::vector<char,std::allocator<char> >::_Xlength, COMDAT

; 1935 : 		{	// report a length_error

$LN4:
  00000	48 83 ec 28	 sub	 rsp, 40			; 00000028H

; 1936 : 		_Xlength_error("vector<T> too long");

  00004	48 8d 0d 00 00
	00 00		 lea	 rcx, OFFSET FLAT:??_C@_0BD@OLBABOEK@vector?$DMT?$DO?5too?5long?$AA@
  0000b	e8 00 00 00 00	 call	 ?_Xlength_error@std@@YAXPEBD@Z ; std::_Xlength_error
  00010	cc		 int	 3
$LN3@Xlength:
?_Xlength@?$vector@DV?$allocator@D@std@@@std@@CAXXZ ENDP ; std::vector<char,std::allocator<char> >::_Xlength
_TEXT	ENDS
; Function compile flags: /Ogtpy
; File c:\users\alist_000\cppmisc\packages\visualcpptools.14.0.24629\lib\native\include\vector
; File c:\users\alist_000\cppmisc\packages\visualcpptools.14.0.24629\lib\native\include\xmemory0
; File c:\users\alist_000\cppmisc\packages\visualcpptools.14.0.24629\lib\native\include\vector
; File c:\users\alist_000\cppmisc\packages\visualcpptools.14.0.24629\lib\native\include\xmemory0
; File c:\users\alist_000\cppmisc\packages\visualcpptools.14.0.24629\lib\native\include\vector
;	COMDAT ?_Change_array@?$vector@DV?$allocator@D@std@@@std@@AEAAXQEAD_K1@Z
_TEXT	SEGMENT
this$ = 48
_Newvec$ = 56
_Newsize$dead$ = 64
_Newcapacity$ = 72
?_Change_array@?$vector@DV?$allocator@D@std@@@std@@AEAAXQEAD_K1@Z PROC ; std::vector<char,std::allocator<char> >::_Change_array, COMDAT

; 1905 : 		{	// orphan all iterators, discard old array, acquire new array

$LN112:
  00000	48 89 5c 24 08	 mov	 QWORD PTR [rsp+8], rbx
  00005	48 89 74 24 10	 mov	 QWORD PTR [rsp+16], rsi
  0000a	57		 push	 rdi
  0000b	48 83 ec 20	 sub	 rsp, 32			; 00000020H
  0000f	48 8b d9	 mov	 rbx, rcx
  00012	49 8b f1	 mov	 rsi, r9

; 1906 : 		this->_Orphan_all();
; 1907 : 
; 1908 : 		if (this->_Myfirst() != pointer())

  00015	48 8b 09	 mov	 rcx, QWORD PTR [rcx]
  00018	48 8b fa	 mov	 rdi, rdx
  0001b	48 85 c9	 test	 rcx, rcx
  0001e	74 34		 je	 SHORT $LN75@Change_arr

; 1909 : 			{	// destroy and deallocate old array
; 1910 : 			_Destroy(this->_Myfirst(), this->_Mylast());
; 1911 : 			this->_Getal().deallocate(this->_Myfirst(), this->_Myend() - this->_Myfirst());

  00020	48 8b 43 10	 mov	 rax, QWORD PTR [rbx+16]
  00024	48 2b c1	 sub	 rax, rcx
; File c:\users\alist_000\cppmisc\packages\visualcpptools.14.0.24629\lib\native\include\xmemory0

; 98   : 	if (_BIG_ALLOCATION_THRESHOLD <= _User_size)

  00027	48 3d 00 10 00
	00		 cmp	 rax, 4096		; 00001000H
  0002d	72 20		 jb	 SHORT $LN70@Change_arr

; 101  : 		_SCL_SECURE_ALWAYS_VALIDATE(

  0002f	f6 c1 1f	 test	 cl, 31
  00032	75 46		 jne	 SHORT $LN107@Change_arr

; 102  : 			(_Ptr_user & (_BIG_ALLOCATION_ALIGNMENT - 1)) == 0);
; 103  : 		const uintptr_t _Ptr_ptr = _Ptr_user - sizeof(void *);
; 104  : 		const uintptr_t _Ptr_container =
; 105  : 			*reinterpret_cast<uintptr_t *>(_Ptr_ptr);

  00034	48 8b 41 f8	 mov	 rax, QWORD PTR [rcx-8]

; 106  : 
; 107  :  #ifdef _DEBUG
; 108  : 		// If the following asserts, it likely means that we are performing
; 109  : 		// an aligned delete on memory coming from an unaligned allocation.
; 110  : 		_SCL_SECURE_ALWAYS_VALIDATE(
; 111  : 			reinterpret_cast<uintptr_t *>(_Ptr_ptr)[-1] ==
; 112  : 				_BIG_ALLOCATION_SENTINEL);
; 113  :  #endif /* _DEBUG */
; 114  : 
; 115  : 		// Extra paranoia on aligned allocation/deallocation
; 116  : 		_SCL_SECURE_ALWAYS_VALIDATE(_Ptr_container < _Ptr_user);

  00038	48 3b c1	 cmp	 rax, rcx
  0003b	73 43		 jae	 SHORT $LN109@Change_arr

; 117  : 
; 118  :  #ifdef _DEBUG
; 119  : 		_SCL_SECURE_ALWAYS_VALIDATE(2 * sizeof(void *)
; 120  : 			<= _Ptr_user - _Ptr_container);
; 121  : 
; 122  :  #else /* _DEBUG */
; 123  : 		_SCL_SECURE_ALWAYS_VALIDATE(sizeof(void *)

  0003d	48 2b c8	 sub	 rcx, rax
  00040	48 83 f9 08	 cmp	 rcx, 8
  00044	72 40		 jb	 SHORT $LN110@Change_arr

; 124  : 			<= _Ptr_user - _Ptr_container);
; 125  :  #endif /* _DEBUG */
; 126  : 
; 127  : 		_SCL_SECURE_ALWAYS_VALIDATE(_Ptr_user - _Ptr_container

  00046	48 83 f9 27	 cmp	 rcx, 39			; 00000027H
  0004a	77 40		 ja	 SHORT $LN111@Change_arr

; 128  : 			<= _NON_USER_SIZE);
; 129  : 
; 130  : 		_Ptr = reinterpret_cast<void *>(_Ptr_container);

  0004c	48 8b c8	 mov	 rcx, rax
$LN70@Change_arr:

; 131  : 		}
; 132  :  #endif /* defined(_M_IX86) || defined(_M_X64) */
; 133  : 
; 134  : 	::operator delete(_Ptr);

  0004f	e8 00 00 00 00	 call	 ??3@YAXPEAX@Z		; operator delete
$LN75@Change_arr:
; File c:\users\alist_000\cppmisc\packages\visualcpptools.14.0.24629\lib\native\include\vector

; 1914 : 		this->_Myfirst() = _Newvec;

  00054	48 89 3b	 mov	 QWORD PTR [rbx], rdi

; 1915 : 		this->_Mylast() = _Newvec + _Newsize;

  00057	48 8d 87 00 00
	00 40		 lea	 rax, QWORD PTR [rdi+1073741824]
  0005e	48 89 43 08	 mov	 QWORD PTR [rbx+8], rax

; 1916 : 		this->_Myend() = _Newvec + _Newcapacity;

  00062	48 8d 04 37	 lea	 rax, QWORD PTR [rdi+rsi]

; 1917 : 		}

  00066	48 8b 74 24 38	 mov	 rsi, QWORD PTR [rsp+56]
  0006b	48 89 43 10	 mov	 QWORD PTR [rbx+16], rax
  0006f	48 8b 5c 24 30	 mov	 rbx, QWORD PTR [rsp+48]
  00074	48 83 c4 20	 add	 rsp, 32			; 00000020H
  00078	5f		 pop	 rdi
  00079	c3		 ret	 0
$LN107@Change_arr:
; File c:\users\alist_000\cppmisc\packages\visualcpptools.14.0.24629\lib\native\include\xmemory0

; 101  : 		_SCL_SECURE_ALWAYS_VALIDATE(

  0007a	e8 00 00 00 00	 call	 _invalid_parameter_noinfo_noreturn
  0007f	cc		 int	 3
$LN109@Change_arr:

; 106  : 
; 107  :  #ifdef _DEBUG
; 108  : 		// If the following asserts, it likely means that we are performing
; 109  : 		// an aligned delete on memory coming from an unaligned allocation.
; 110  : 		_SCL_SECURE_ALWAYS_VALIDATE(
; 111  : 			reinterpret_cast<uintptr_t *>(_Ptr_ptr)[-1] ==
; 112  : 				_BIG_ALLOCATION_SENTINEL);
; 113  :  #endif /* _DEBUG */
; 114  : 
; 115  : 		// Extra paranoia on aligned allocation/deallocation
; 116  : 		_SCL_SECURE_ALWAYS_VALIDATE(_Ptr_container < _Ptr_user);

  00080	e8 00 00 00 00	 call	 _invalid_parameter_noinfo_noreturn
  00085	cc		 int	 3
$LN110@Change_arr:

; 117  : 
; 118  :  #ifdef _DEBUG
; 119  : 		_SCL_SECURE_ALWAYS_VALIDATE(2 * sizeof(void *)
; 120  : 			<= _Ptr_user - _Ptr_container);
; 121  : 
; 122  :  #else /* _DEBUG */
; 123  : 		_SCL_SECURE_ALWAYS_VALIDATE(sizeof(void *)

  00086	e8 00 00 00 00	 call	 _invalid_parameter_noinfo_noreturn
  0008b	cc		 int	 3
$LN111@Change_arr:

; 124  : 			<= _Ptr_user - _Ptr_container);
; 125  :  #endif /* _DEBUG */
; 126  : 
; 127  : 		_SCL_SECURE_ALWAYS_VALIDATE(_Ptr_user - _Ptr_container

  0008c	e8 00 00 00 00	 call	 _invalid_parameter_noinfo_noreturn
  00091	cc		 int	 3
$LN106@Change_arr:
?_Change_array@?$vector@DV?$allocator@D@std@@@std@@AEAAXQEAD_K1@Z ENDP ; std::vector<char,std::allocator<char> >::_Change_array
_TEXT	ENDS
; Function compile flags: /Ogtpy
; File c:\users\alist_000\cppmisc\packages\visualcpptools.14.0.24629\lib\native\include\vector
;	COMDAT ?_Calculate_growth@?$vector@DV?$allocator@D@std@@@std@@AEBA_K_K@Z
_TEXT	SEGMENT
this$ = 8
_Newsize$dead$ = 16
?_Calculate_growth@?$vector@DV?$allocator@D@std@@@std@@AEBA_K_K@Z PROC ; std::vector<char,std::allocator<char> >::_Calculate_growth, COMDAT

; 1694 : 		return (this->_Myend() - this->_Myfirst());

  00000	48 8b 51 10	 mov	 rdx, QWORD PTR [rcx+16]
  00004	48 2b 11	 sub	 rdx, QWORD PTR [rcx]

; 1864 : 		const size_type _Oldcapacity = capacity();
; 1865 : 
; 1866 : 		if (_Oldcapacity > max_size() - _Oldcapacity / 2)

  00007	48 8b ca	 mov	 rcx, rdx
  0000a	48 d1 e9	 shr	 rcx, 1
  0000d	48 8b c1	 mov	 rax, rcx
  00010	48 f7 d0	 not	 rax
  00013	48 3b d0	 cmp	 rdx, rax
  00016	76 06		 jbe	 SHORT $LN2@Calculate_

; 1867 : 			{
; 1868 : 			return (_Newsize);	// geometric growth would overflow

  00018	b8 00 00 00 40	 mov	 eax, 1073741824		; 40000000H

; 1874 : 			{
; 1875 : 			return (_Newsize);	// geometric growth would be insufficient
; 1876 : 			}
; 1877 : 
; 1878 : 		return (_Geometric);	// geometric growth is sufficient
; 1879 : 		}

  0001d	c3		 ret	 0
$LN2@Calculate_:

; 1869 : 			}
; 1870 : 
; 1871 : 		const size_type _Geometric = _Oldcapacity + _Oldcapacity / 2;

  0001e	48 8d 04 11	 lea	 rax, QWORD PTR [rcx+rdx]

; 1872 : 
; 1873 : 		if (_Geometric < _Newsize)

  00022	b9 00 00 00 40	 mov	 ecx, 1073741824		; 40000000H
  00027	48 3b c1	 cmp	 rax, rcx
  0002a	48 0f 42 c1	 cmovb	 rax, rcx

; 1874 : 			{
; 1875 : 			return (_Newsize);	// geometric growth would be insufficient
; 1876 : 			}
; 1877 : 
; 1878 : 		return (_Geometric);	// geometric growth is sufficient
; 1879 : 		}

  0002e	c3		 ret	 0
?_Calculate_growth@?$vector@DV?$allocator@D@std@@@std@@AEBA_K_K@Z ENDP ; std::vector<char,std::allocator<char> >::_Calculate_growth
_TEXT	ENDS
; Function compile flags: /Ogtpy
; File c:\users\alist_000\cppmisc\packages\visualcpptools.14.0.24629\lib\native\include\vector
; File c:\users\alist_000\cppmisc\packages\visualcpptools.14.0.24629\lib\native\include\xutility
; File c:\users\alist_000\cppmisc\packages\visualcpptools.14.0.24629\lib\native\include\vector
;	COMDAT ?_Umove_if_noexcept@?$vector@DV?$allocator@D@std@@@std@@AEAAXPEAD00@Z
_TEXT	SEGMENT
this$dead$ = 8
_First$ = 16
_Last$ = 24
_Dest$ = 32
?_Umove_if_noexcept@?$vector@DV?$allocator@D@std@@@std@@AEAAXPEAD00@Z PROC ; std::vector<char,std::allocator<char> >::_Umove_if_noexcept, COMDAT
; File c:\users\alist_000\cppmisc\packages\visualcpptools.14.0.24629\lib\native\include\xutility

; 2232 : 	const size_t _Count = _Last_ch - _First_ch;

  00000	4c 2b c2	 sub	 r8, rdx

; 2233 : 	_CSTD memmove(_Dest_ch, _First_ch, _Count);

  00003	49 8b c9	 mov	 rcx, r9
  00006	e9 00 00 00 00	 jmp	 memmove
?_Umove_if_noexcept@?$vector@DV?$allocator@D@std@@@std@@AEAAXPEAD00@Z ENDP ; std::vector<char,std::allocator<char> >::_Umove_if_noexcept
_TEXT	ENDS
; Function compile flags: /Ogtpy
; File c:\users\alist_000\cppmisc\packages\visualcpptools.14.0.24629\lib\native\include\vector
;	COMDAT ?capacity@?$vector@DV?$allocator@D@std@@@std@@QEBA_KXZ
_TEXT	SEGMENT
this$ = 8
?capacity@?$vector@DV?$allocator@D@std@@@std@@QEBA_KXZ PROC ; std::vector<char,std::allocator<char> >::capacity, COMDAT

; 1694 : 		return (this->_Myend() - this->_Myfirst());

  00000	48 8b 41 10	 mov	 rax, QWORD PTR [rcx+16]
  00004	48 2b 01	 sub	 rax, QWORD PTR [rcx]

; 1695 : 		}

  00007	c3		 ret	 0
?capacity@?$vector@DV?$allocator@D@std@@@std@@QEBA_KXZ ENDP ; std::vector<char,std::allocator<char> >::capacity
_TEXT	ENDS
; Function compile flags: /Ogtpy
; File c:\users\alist_000\cppmisc\packages\visualcpptools.14.0.24629\lib\native\include\vector
;	COMDAT ?max_size@?$vector@DV?$allocator@D@std@@@std@@QEBA_KXZ
_TEXT	SEGMENT
this$dead$ = 8
?max_size@?$vector@DV?$allocator@D@std@@@std@@QEBA_KXZ PROC ; std::vector<char,std::allocator<char> >::max_size, COMDAT

; 1689 : 		return (this->_Getal().max_size());

  00000	48 83 c8 ff	 or	 rax, -1

; 1690 : 		}

  00004	c3		 ret	 0
?max_size@?$vector@DV?$allocator@D@std@@@std@@QEBA_KXZ ENDP ; std::vector<char,std::allocator<char> >::max_size
_TEXT	ENDS
; Function compile flags: /Ogtpy
; File c:\users\alist_000\cppmisc\packages\visualcpptools.14.0.24629\lib\native\include\xstring
;	COMDAT ??0?$_String_val@U?$_Simple_types@D@std@@@std@@QEAA@XZ
_TEXT	SEGMENT
this$ = 8
??0?$_String_val@U?$_Simple_types@D@std@@@std@@QEAA@XZ PROC ; std::_String_val<std::_Simple_types<char> >::_String_val<std::_Simple_types<char> >, COMDAT

; 1606 : 		_Mysize(0),

  00000	33 c0		 xor	 eax, eax
  00002	48 89 41 10	 mov	 QWORD PTR [rcx+16], rax

; 1607 : 		_Myres(0)

  00006	48 89 41 18	 mov	 QWORD PTR [rcx+24], rax

; 1609 : 		}

  0000a	48 8b c1	 mov	 rax, rcx
  0000d	c3		 ret	 0
??0?$_String_val@U?$_Simple_types@D@std@@@std@@QEAA@XZ ENDP ; std::_String_val<std::_Simple_types<char> >::_String_val<std::_Simple_types<char> >
_TEXT	ENDS
; Function compile flags: /Ogtpy
; File c:\users\alist_000\cppmisc\packages\visualcpptools.14.0.24629\lib\native\include\xmemory0
;	COMDAT ??0?$_Wrap_alloc@V?$allocator@D@std@@@std@@QEAA@XZ
_TEXT	SEGMENT
this$ = 8
??0?$_Wrap_alloc@V?$allocator@D@std@@@std@@QEAA@XZ PROC	; std::_Wrap_alloc<std::allocator<char> >::_Wrap_alloc<std::allocator<char> >, COMDAT

; 1031 : 		}

  00000	48 8b c1	 mov	 rax, rcx
  00003	c3		 ret	 0
??0?$_Wrap_alloc@V?$allocator@D@std@@@std@@QEAA@XZ ENDP	; std::_Wrap_alloc<std::allocator<char> >::_Wrap_alloc<std::allocator<char> >
_TEXT	ENDS
; Function compile flags: /Ogtpy
; File c:\users\alist_000\cppmisc\packages\visualcpptools.14.0.24629\lib\native\include\ostream
; File c:\users\alist_000\cppmisc\packages\visualcpptools.14.0.24629\lib\native\include\ios
; File c:\users\alist_000\cppmisc\packages\visualcpptools.14.0.24629\lib\native\include\streambuf
; File c:\users\alist_000\cppmisc\packages\visualcpptools.14.0.24629\lib\native\include\ostream
; File c:\users\alist_000\cppmisc\packages\visualcpptools.14.0.24629\lib\native\include\ios
; File c:\users\alist_000\cppmisc\packages\visualcpptools.14.0.24629\lib\native\include\xiosbase
; File c:\users\alist_000\cppmisc\packages\visualcpptools.14.0.24629\lib\native\include\ostream
; File c:\users\alist_000\cppmisc\packages\visualcpptools.14.0.24629\lib\native\include\ios
; File c:\users\alist_000\cppmisc\packages\visualcpptools.14.0.24629\lib\native\include\ostream
;	COMDAT ?flush@?$basic_ostream@DU?$char_traits@D@std@@@std@@QEAAAEAV12@XZ
_TEXT	SEGMENT
$T1 = 32
_Ok$2 = 40
$T3 = 56
$T4 = 72
$T5 = 72
$T6 = 72
this$ = 128
?flush@?$basic_ostream@DU?$char_traits@D@std@@@std@@QEAAAEAV12@XZ PROC ; std::basic_ostream<char,std::char_traits<char> >::flush, COMDAT

; 567  : 		{	// flush output stream

$LN74:
  00000	40 53		 push	 rbx
  00002	48 83 ec 70	 sub	 rsp, 112		; 00000070H
  00006	48 c7 44 24 20
	fe ff ff ff	 mov	 QWORD PTR $T1[rsp], -2
  0000f	48 8b d9	 mov	 rbx, rcx

; 568  : 		if (_Myios::rdbuf() != 0)

  00012	48 8b 01	 mov	 rax, QWORD PTR [rcx]
  00015	48 63 50 04	 movsxd	 rdx, DWORD PTR [rax+4]
  00019	48 83 7c 0a 48
	00		 cmp	 QWORD PTR [rdx+rcx+72], 0
  0001f	0f 84 25 01 00
	00		 je	 $LN63@flush

; 569  : 			{	// buffer exists, flush it
; 570  : 			const sentry _Ok(*this);

  00025	48 8b d1	 mov	 rdx, rcx
  00028	48 8d 4c 24 28	 lea	 rcx, QWORD PTR _Ok$2[rsp]
  0002d	e8 00 00 00 00	 call	 ??0sentry@?$basic_ostream@DU?$char_traits@D@std@@@std@@QEAA@AEAV12@@Z ; std::basic_ostream<char,std::char_traits<char> >::sentry::sentry
  00032	90		 npad	 1

; 572  : 			if (_Ok && _Myios::rdbuf()->pubsync() == -1)

  00033	80 7c 24 30 00	 cmp	 BYTE PTR _Ok$2[rsp+8], 0
  00038	0f 84 db 00 00
	00		 je	 $LN56@flush
  0003e	48 8b 03	 mov	 rax, QWORD PTR [rbx]
  00041	48 63 48 04	 movsxd	 rcx, DWORD PTR [rax+4]
; File c:\users\alist_000\cppmisc\packages\visualcpptools.14.0.24629\lib\native\include\ios

; 92   : 		return (_Mystrbuf);

  00045	48 8b 4c 19 48	 mov	 rcx, QWORD PTR [rcx+rbx+72]
; File c:\users\alist_000\cppmisc\packages\visualcpptools.14.0.24629\lib\native\include\streambuf

; 145  : 		return (sync());

  0004a	48 8b 01	 mov	 rax, QWORD PTR [rcx]
  0004d	ff 50 68	 call	 QWORD PTR [rax+104]
; File c:\users\alist_000\cppmisc\packages\visualcpptools.14.0.24629\lib\native\include\ostream

; 572  : 			if (_Ok && _Myios::rdbuf()->pubsync() == -1)

  00050	83 f8 ff	 cmp	 eax, -1
  00053	0f 85 c0 00 00
	00		 jne	 $LN56@flush

; 573  : 				_Myios::setstate(ios_base::badbit);	// sync failed

  00059	48 8b 03	 mov	 rax, QWORD PTR [rbx]
  0005c	48 63 50 04	 movsxd	 rdx, DWORD PTR [rax+4]
  00060	48 03 d3	 add	 rdx, rbx
; File c:\users\alist_000\cppmisc\packages\visualcpptools.14.0.24629\lib\native\include\ios

; 60   : 			clear((iostate)((int)rdstate() | (int)_State), _Reraise);

  00063	8b 4a 10	 mov	 ecx, DWORD PTR [rdx+16]
  00066	83 c9 04	 or	 ecx, 4
  00069	48 83 7a 48 00	 cmp	 QWORD PTR [rdx+72], 0
  0006e	0f 45 4a 10	 cmovne	 ecx, DWORD PTR [rdx+16]
; File c:\users\alist_000\cppmisc\packages\visualcpptools.14.0.24629\lib\native\include\xiosbase

; 288  : 		_Mystate = (iostate)(_State & _Statmask);

  00072	83 e1 13	 and	 ecx, 19
  00075	83 c9 04	 or	 ecx, 4
  00078	89 4a 10	 mov	 DWORD PTR [rdx+16], ecx

; 289  : 		if ((_Mystate & _Except) == 0)

  0007b	8b 42 14	 mov	 eax, DWORD PTR [rdx+20]
  0007e	23 c1		 and	 eax, ecx
  00080	0f 84 93 00 00
	00		 je	 $LN56@flush

; 294  : 			_THROW_NCEE(failure, "ios_base::badbit set");

  00086	ba 01 00 00 00	 mov	 edx, 1
  0008b	48 8d 4c 24 38	 lea	 rcx, QWORD PTR $T3[rsp]

; 290  : 			;
; 291  : 		else if (_Reraise)
; 292  : 			_RERAISE;
; 293  : 		else if (_Mystate & _Except & badbit)

  00090	a8 04		 test	 al, 4
  00092	74 2b		 je	 SHORT $LN53@flush

; 294  : 			_THROW_NCEE(failure, "ios_base::badbit set");

  00094	e8 00 00 00 00	 call	 ?make_error_code@std@@YA?AVerror_code@1@W4io_errc@1@@Z ; std::make_error_code
  00099	4c 8b c0	 mov	 r8, rax
  0009c	48 8d 15 00 00
	00 00		 lea	 rdx, OFFSET FLAT:??_C@_0BF@PHHKMMFD@ios_base?3?3badbit?5set?$AA@
  000a3	48 8d 4c 24 48	 lea	 rcx, QWORD PTR $T6[rsp]
  000a8	e8 00 00 00 00	 call	 ??0failure@ios_base@std@@QEAA@PEBDAEBVerror_code@2@@Z ; std::ios_base::failure::failure
  000ad	48 8d 15 00 00
	00 00		 lea	 rdx, OFFSET FLAT:_TI5?AVfailure@ios_base@std@@
  000b4	48 8d 4c 24 48	 lea	 rcx, QWORD PTR $T6[rsp]
  000b9	e8 00 00 00 00	 call	 _CxxThrowException
  000be	cc		 int	 3
$LN53@flush:

; 295  : 		else if (_Mystate & _Except & failbit)

  000bf	a8 02		 test	 al, 2
  000c1	74 2b		 je	 SHORT $LN55@flush

; 296  : 			_THROW_NCEE(failure, "ios_base::failbit set");

  000c3	e8 00 00 00 00	 call	 ?make_error_code@std@@YA?AVerror_code@1@W4io_errc@1@@Z ; std::make_error_code
  000c8	4c 8b c0	 mov	 r8, rax
  000cb	48 8d 15 00 00
	00 00		 lea	 rdx, OFFSET FLAT:??_C@_0BG@FMKFHCIL@ios_base?3?3failbit?5set?$AA@
  000d2	48 8d 4c 24 48	 lea	 rcx, QWORD PTR $T5[rsp]
  000d7	e8 00 00 00 00	 call	 ??0failure@ios_base@std@@QEAA@PEBDAEBVerror_code@2@@Z ; std::ios_base::failure::failure
  000dc	48 8d 15 00 00
	00 00		 lea	 rdx, OFFSET FLAT:_TI5?AVfailure@ios_base@std@@
  000e3	48 8d 4c 24 48	 lea	 rcx, QWORD PTR $T5[rsp]
  000e8	e8 00 00 00 00	 call	 _CxxThrowException
  000ed	cc		 int	 3
$LN55@flush:

; 297  : 		else
; 298  : 			_THROW_NCEE(failure, "ios_base::eofbit set");

  000ee	e8 00 00 00 00	 call	 ?make_error_code@std@@YA?AVerror_code@1@W4io_errc@1@@Z ; std::make_error_code
  000f3	4c 8b c0	 mov	 r8, rax
  000f6	48 8d 15 00 00
	00 00		 lea	 rdx, OFFSET FLAT:??_C@_0BF@OOHOMBOF@ios_base?3?3eofbit?5set?$AA@
  000fd	48 8d 4c 24 48	 lea	 rcx, QWORD PTR $T4[rsp]
  00102	e8 00 00 00 00	 call	 ??0failure@ios_base@std@@QEAA@PEBDAEBVerror_code@2@@Z ; std::ios_base::failure::failure
  00107	48 8d 15 00 00
	00 00		 lea	 rdx, OFFSET FLAT:_TI5?AVfailure@ios_base@std@@
  0010e	48 8d 4c 24 48	 lea	 rcx, QWORD PTR $T4[rsp]
  00113	e8 00 00 00 00	 call	 _CxxThrowException
  00118	90		 npad	 1
$LN56@flush:
; File c:\users\alist_000\cppmisc\packages\visualcpptools.14.0.24629\lib\native\include\ostream

; 132  : 			if (!_STD uncaught_exception())

  00119	e8 00 00 00 00	 call	 ?uncaught_exception@std@@YA_NXZ ; std::uncaught_exception
  0011e	84 c0		 test	 al, al
  00120	75 0b		 jne	 SHORT $LN62@flush

; 133  : 				this->_Myostr._Osfx();

  00122	48 8b 4c 24 28	 mov	 rcx, QWORD PTR _Ok$2[rsp]
  00127	e8 00 00 00 00	 call	 ?_Osfx@?$basic_ostream@DU?$char_traits@D@std@@@std@@QEAAXXZ ; std::basic_ostream<char,std::char_traits<char> >::_Osfx
  0012c	90		 npad	 1
$LN62@flush:

; 107  : 			if (_Myostr.rdbuf() != 0)

  0012d	48 8b 54 24 28	 mov	 rdx, QWORD PTR _Ok$2[rsp]
  00132	48 8b 02	 mov	 rax, QWORD PTR [rdx]
  00135	48 63 48 04	 movsxd	 rcx, DWORD PTR [rax+4]
; File c:\users\alist_000\cppmisc\packages\visualcpptools.14.0.24629\lib\native\include\ios

; 92   : 		return (_Mystrbuf);

  00139	48 8b 4c 11 48	 mov	 rcx, QWORD PTR [rcx+rdx+72]
; File c:\users\alist_000\cppmisc\packages\visualcpptools.14.0.24629\lib\native\include\ostream

; 107  : 			if (_Myostr.rdbuf() != 0)

  0013e	48 85 c9	 test	 rcx, rcx
  00141	74 07		 je	 SHORT $LN66@flush

; 108  : 				_Myostr.rdbuf()->_Unlock();

  00143	48 8b 01	 mov	 rax, QWORD PTR [rcx]
  00146	ff 50 10	 call	 QWORD PTR [rax+16]
  00149	90		 npad	 1
$LN66@flush:
$LN63@flush:

; 574  : 			}
; 575  : 		return (*this);

  0014a	48 8b c3	 mov	 rax, rbx

; 576  : 		}

  0014d	48 83 c4 70	 add	 rsp, 112		; 00000070H
  00151	5b		 pop	 rbx
  00152	c3		 ret	 0
$LN73@flush:
?flush@?$basic_ostream@DU?$char_traits@D@std@@@std@@QEAAAEAV12@XZ ENDP ; std::basic_ostream<char,std::char_traits<char> >::flush
_TEXT	ENDS
;	COMDAT text$x
text$x	SEGMENT
$T1 = 32
_Ok$2 = 40
$T3 = 56
$T4 = 72
$T5 = 72
$T6 = 72
this$ = 128
?dtor$0@?0??flush@?$basic_ostream@DU?$char_traits@D@std@@@std@@QEAAAEAV12@XZ@4HA PROC ; `std::basic_ostream<char,std::char_traits<char> >::flush'::`1'::dtor$0
  00000	48 8d 8a 28 00
	00 00		 lea	 rcx, QWORD PTR _Ok$2[rdx]
  00007	e9 00 00 00 00	 jmp	 ??1sentry@?$basic_ostream@DU?$char_traits@D@std@@@std@@QEAA@XZ ; std::basic_ostream<char,std::char_traits<char> >::sentry::~sentry
?dtor$0@?0??flush@?$basic_ostream@DU?$char_traits@D@std@@@std@@QEAAAEAV12@XZ@4HA ENDP ; `std::basic_ostream<char,std::char_traits<char> >::flush'::`1'::dtor$0
text$x	ENDS
; Function compile flags: /Ogtpy
;	COMDAT text$x
text$x	SEGMENT
$T1 = 32
_Ok$2 = 40
$T3 = 56
$T4 = 72
$T5 = 72
$T6 = 72
this$ = 128
?dtor$0@?0??flush@?$basic_ostream@DU?$char_traits@D@std@@@std@@QEAAAEAV12@XZ@4HA PROC ; `std::basic_ostream<char,std::char_traits<char> >::flush'::`1'::dtor$0
  00000	48 8d 8a 28 00
	00 00		 lea	 rcx, QWORD PTR _Ok$2[rdx]
  00007	e9 00 00 00 00	 jmp	 ??1sentry@?$basic_ostream@DU?$char_traits@D@std@@@std@@QEAA@XZ ; std::basic_ostream<char,std::char_traits<char> >::sentry::~sentry
?dtor$0@?0??flush@?$basic_ostream@DU?$char_traits@D@std@@@std@@QEAAAEAV12@XZ@4HA ENDP ; `std::basic_ostream<char,std::char_traits<char> >::flush'::`1'::dtor$0
text$x	ENDS
; Function compile flags: /Ogtpy
; File c:\users\alist_000\cppmisc\packages\visualcpptools.14.0.24629\lib\native\include\ostream
; File c:\users\alist_000\cppmisc\packages\visualcpptools.14.0.24629\lib\native\include\ios
; File c:\users\alist_000\cppmisc\packages\visualcpptools.14.0.24629\lib\native\include\ostream
; File c:\users\alist_000\cppmisc\packages\visualcpptools.14.0.24629\lib\native\include\xiosbase
; File c:\users\alist_000\cppmisc\packages\visualcpptools.14.0.24629\lib\native\include\ostream
; File c:\users\alist_000\cppmisc\packages\visualcpptools.14.0.24629\lib\native\include\ios
; File c:\users\alist_000\cppmisc\packages\visualcpptools.14.0.24629\lib\native\include\ostream
; File c:\users\alist_000\cppmisc\packages\visualcpptools.14.0.24629\lib\native\include\xiosbase
; File c:\users\alist_000\cppmisc\packages\visualcpptools.14.0.24629\lib\native\include\ostream
; File c:\users\alist_000\cppmisc\packages\visualcpptools.14.0.24629\lib\native\include\ios
; File c:\users\alist_000\cppmisc\packages\visualcpptools.14.0.24629\lib\native\include\streambuf
; File c:\users\alist_000\cppmisc\packages\visualcpptools.14.0.24629\lib\native\include\iosfwd
; File c:\users\alist_000\cppmisc\packages\visualcpptools.14.0.24629\lib\native\include\streambuf
; File c:\users\alist_000\cppmisc\packages\visualcpptools.14.0.24629\lib\native\include\iosfwd
; File c:\users\alist_000\cppmisc\packages\visualcpptools.14.0.24629\lib\native\include\streambuf
; File c:\users\alist_000\cppmisc\packages\visualcpptools.14.0.24629\lib\native\include\ostream
; File c:\users\alist_000\cppmisc\packages\visualcpptools.14.0.24629\lib\native\include\ios
; File c:\users\alist_000\cppmisc\packages\visualcpptools.14.0.24629\lib\native\include\xiosbase
; File c:\users\alist_000\cppmisc\packages\visualcpptools.14.0.24629\lib\native\include\ios
; File c:\users\alist_000\cppmisc\packages\visualcpptools.14.0.24629\lib\native\include\xiosbase
; File c:\users\alist_000\cppmisc\packages\visualcpptools.14.0.24629\lib\native\include\ostream
; File c:\users\alist_000\cppmisc\packages\visualcpptools.14.0.24629\lib\native\include\ios
; File c:\users\alist_000\cppmisc\packages\visualcpptools.14.0.24629\lib\native\include\ostream
;	COMDAT ?put@?$basic_ostream@DU?$char_traits@D@std@@@std@@QEAAAEAV12@D@Z
_TEXT	SEGMENT
$T1 = 32
$T2 = 48
_Ok$ = 56
$T3 = 72
$T4 = 112
$T5 = 152
this$ = 208
_Ch$ = 216
_State$ = 224
?put@?$basic_ostream@DU?$char_traits@D@std@@@std@@QEAAAEAV12@D@Z PROC ; std::basic_ostream<char,std::char_traits<char> >::put, COMDAT

; 527  : 		{	// insert a character

$LN120:
  00000	48 8b c4	 mov	 rax, rsp
  00003	48 89 48 08	 mov	 QWORD PTR [rax+8], rcx
  00007	57		 push	 rdi
  00008	48 81 ec c0 00
	00 00		 sub	 rsp, 192		; 000000c0H
  0000f	48 c7 44 24 30
	fe ff ff ff	 mov	 QWORD PTR $T2[rsp], -2
  00018	48 89 58 10	 mov	 QWORD PTR [rax+16], rbx
  0001c	48 89 70 20	 mov	 QWORD PTR [rax+32], rsi
  00020	0f b6 f2	 movzx	 esi, dl
  00023	48 8b d9	 mov	 rbx, rcx

; 528  : 		ios_base::iostate _State = ios_base::goodbit;

  00026	33 ff		 xor	 edi, edi
  00028	89 bc 24 e0 00
	00 00		 mov	 DWORD PTR _State$[rsp], edi

; 99   : 			: _Myostr(_Ostr)

  0002f	48 89 4c 24 38	 mov	 QWORD PTR _Ok$[rsp], rcx

; 101  : 			if (_Myostr.rdbuf() != 0)

  00034	48 8b 01	 mov	 rax, QWORD PTR [rcx]
  00037	4c 63 40 04	 movsxd	 r8, DWORD PTR [rax+4]
; File c:\users\alist_000\cppmisc\packages\visualcpptools.14.0.24629\lib\native\include\ios

; 92   : 		return (_Mystrbuf);

  0003b	49 8b 4c 08 48	 mov	 rcx, QWORD PTR [r8+rcx+72]
; File c:\users\alist_000\cppmisc\packages\visualcpptools.14.0.24629\lib\native\include\ostream

; 101  : 			if (_Myostr.rdbuf() != 0)

  00040	48 85 c9	 test	 rcx, rcx
  00043	74 07		 je	 SHORT $LN17@put

; 102  : 				_Myostr.rdbuf()->_Lock();

  00045	48 8b 01	 mov	 rax, QWORD PTR [rcx]
  00048	ff 50 08	 call	 QWORD PTR [rax+8]
  0004b	90		 npad	 1
$LN17@put:

; 124  : 			if (_Ostr.good() && _Ostr.tie() != 0 && _Ostr.tie() != &_Ostr)

  0004c	48 8b 03	 mov	 rax, QWORD PTR [rbx]
  0004f	48 63 48 04	 movsxd	 rcx, DWORD PTR [rax+4]
; File c:\users\alist_000\cppmisc\packages\visualcpptools.14.0.24629\lib\native\include\xiosbase

; 339  : 		return (rdstate() == goodbit);

  00053	83 7c 19 10 00	 cmp	 DWORD PTR [rcx+rbx+16], 0
; File c:\users\alist_000\cppmisc\packages\visualcpptools.14.0.24629\lib\native\include\ostream

; 124  : 			if (_Ostr.good() && _Ostr.tie() != 0 && _Ostr.tie() != &_Ostr)

  00058	75 14		 jne	 SHORT $LN13@put
; File c:\users\alist_000\cppmisc\packages\visualcpptools.14.0.24629\lib\native\include\ios

; 80   : 		return (_Tiestr);

  0005a	48 8b 4c 19 50	 mov	 rcx, QWORD PTR [rcx+rbx+80]
; File c:\users\alist_000\cppmisc\packages\visualcpptools.14.0.24629\lib\native\include\ostream

; 124  : 			if (_Ostr.good() && _Ostr.tie() != 0 && _Ostr.tie() != &_Ostr)

  0005f	48 85 c9	 test	 rcx, rcx
  00062	74 0a		 je	 SHORT $LN13@put
  00064	48 3b cb	 cmp	 rcx, rbx
  00067	74 05		 je	 SHORT $LN13@put

; 125  : 				_Ostr.tie()->flush();

  00069	e8 00 00 00 00	 call	 ?flush@?$basic_ostream@DU?$char_traits@D@std@@@std@@QEAAAEAV12@XZ ; std::basic_ostream<char,std::char_traits<char> >::flush
$LN13@put:

; 126  : 			_Ok = _Ostr.good();	// store test only after flushing tie

  0006e	48 8b 03	 mov	 rax, QWORD PTR [rbx]
  00071	48 63 48 04	 movsxd	 rcx, DWORD PTR [rax+4]
; File c:\users\alist_000\cppmisc\packages\visualcpptools.14.0.24629\lib\native\include\xiosbase

; 339  : 		return (rdstate() == goodbit);

  00075	83 7c 19 10 00	 cmp	 DWORD PTR [rcx+rbx+16], 0
  0007a	0f 94 c0	 sete	 al
  0007d	88 44 24 40	 mov	 BYTE PTR _Ok$[rsp+8], al
; File c:\users\alist_000\cppmisc\packages\visualcpptools.14.0.24629\lib\native\include\ostream

; 531  : 		if (!_Ok)

  00081	84 c0		 test	 al, al
  00083	75 07		 jne	 SHORT $LN2@put

; 532  : 			_State |= ios_base::badbit;

  00085	b9 04 00 00 00	 mov	 ecx, 4

; 533  : 		else

  0008a	eb 63		 jmp	 SHORT $LN10@put
$LN2@put:
; File c:\users\alist_000\cppmisc\packages\visualcpptools.14.0.24629\lib\native\include\ios

; 92   : 		return (_Mystrbuf);

  0008c	48 8b 4c 19 48	 mov	 rcx, QWORD PTR [rcx+rbx+72]
; File c:\users\alist_000\cppmisc\packages\visualcpptools.14.0.24629\lib\native\include\streambuf

; 314  : 		return (*_IPnext != 0 ? *_IPcount : 0);

  00091	48 8b 41 40	 mov	 rax, QWORD PTR [rcx+64]
  00095	48 83 38 00	 cmp	 QWORD PTR [rax], 0
  00099	74 25		 je	 SHORT $LN43@put
  0009b	48 8b 51 58	 mov	 rdx, QWORD PTR [rcx+88]
  0009f	8b 02		 mov	 eax, DWORD PTR [rdx]

; 200  : 		return (0 < _Pnavail()

  000a1	85 c0		 test	 eax, eax
  000a3	7e 1b		 jle	 SHORT $LN43@put

; 308  : 		--*_IPcount;

  000a5	ff c8		 dec	 eax
  000a7	89 02		 mov	 DWORD PTR [rdx], eax

; 309  : 		return ((*_IPnext)++);

  000a9	48 8b 49 40	 mov	 rcx, QWORD PTR [rcx+64]
  000ad	48 8b 11	 mov	 rdx, QWORD PTR [rcx]
  000b0	48 8d 42 01	 lea	 rax, QWORD PTR [rdx+1]
  000b4	48 89 01	 mov	 QWORD PTR [rcx], rax

; 200  : 		return (0 < _Pnavail()

  000b7	40 88 32	 mov	 BYTE PTR [rdx], sil
; File c:\users\alist_000\cppmisc\packages\visualcpptools.14.0.24629\lib\native\include\iosfwd

; 536  : 		return ((unsigned char)_Ch);

  000ba	40 0f b6 c6	 movzx	 eax, sil
; File c:\users\alist_000\cppmisc\packages\visualcpptools.14.0.24629\lib\native\include\streambuf

; 200  : 		return (0 < _Pnavail()

  000be	eb 0a		 jmp	 SHORT $LN44@put
$LN43@put:
; File c:\users\alist_000\cppmisc\packages\visualcpptools.14.0.24629\lib\native\include\iosfwd

; 536  : 		return ((unsigned char)_Ch);

  000c0	40 0f b6 d6	 movzx	 edx, sil
; File c:\users\alist_000\cppmisc\packages\visualcpptools.14.0.24629\lib\native\include\streambuf

; 200  : 		return (0 < _Pnavail()

  000c4	48 8b 01	 mov	 rax, QWORD PTR [rcx]
  000c7	ff 50 18	 call	 QWORD PTR [rax+24]
$LN44@put:
; File c:\users\alist_000\cppmisc\packages\visualcpptools.14.0.24629\lib\native\include\ostream

; 536  : 			if (_Traits::eq_int_type(_Traits::eof(),

  000ca	b9 04 00 00 00	 mov	 ecx, 4
  000cf	83 f8 ff	 cmp	 eax, -1
  000d2	0f 44 f9	 cmove	 edi, ecx
  000d5	8b cf		 mov	 ecx, edi
  000d7	89 8c 24 e0 00
	00 00		 mov	 DWORD PTR _State$[rsp], ecx
  000de	eb 0f		 jmp	 SHORT $LN10@put
$LN11@put:
; File c:\users\alist_000\cppmisc\packages\visualcpptools.14.0.24629\lib\native\include\ios
  000e0	48 8b 9c 24 d0
	00 00 00	 mov	 rbx, QWORD PTR this$[rsp]
  000e8	8b 8c 24 e0 00
	00 00		 mov	 ecx, DWORD PTR _State$[rsp]
$LN10@put:
; File c:\users\alist_000\cppmisc\packages\visualcpptools.14.0.24629\lib\native\include\ostream

; 537  : 				_Myios::rdbuf()->sputc(_Ch)))
; 538  : 				_State |= ios_base::badbit;
; 539  : 			_CATCH_IO_END
; 540  : 			}
; 541  : 
; 542  : 		_Myios::setstate(_State);

  000ef	48 8b 03	 mov	 rax, QWORD PTR [rbx]
  000f2	48 63 50 04	 movsxd	 rdx, DWORD PTR [rax+4]
  000f6	48 03 d3	 add	 rdx, rbx
; File c:\users\alist_000\cppmisc\packages\visualcpptools.14.0.24629\lib\native\include\ios

; 59   : 		if (_State != goodbit)

  000f9	85 c9		 test	 ecx, ecx
  000fb	0f 84 bc 00 00
	00		 je	 $LN102@put
; File c:\users\alist_000\cppmisc\packages\visualcpptools.14.0.24629\lib\native\include\xiosbase

; 315  : 		return (_Mystate);

  00101	8b 42 10	 mov	 eax, DWORD PTR [rdx+16]
; File c:\users\alist_000\cppmisc\packages\visualcpptools.14.0.24629\lib\native\include\ios

; 60   : 			clear((iostate)((int)rdstate() | (int)_State), _Reraise);

  00104	0b c1		 or	 eax, ecx
  00106	8b c8		 mov	 ecx, eax
  00108	83 c9 04	 or	 ecx, 4
  0010b	48 83 7a 48 00	 cmp	 QWORD PTR [rdx+72], 0
  00110	0f 45 c8	 cmovne	 ecx, eax
; File c:\users\alist_000\cppmisc\packages\visualcpptools.14.0.24629\lib\native\include\xiosbase

; 288  : 		_Mystate = (iostate)(_State & _Statmask);

  00113	83 e1 17	 and	 ecx, 23
  00116	89 4a 10	 mov	 DWORD PTR [rdx+16], ecx

; 289  : 		if ((_Mystate & _Except) == 0)

  00119	8b 42 14	 mov	 eax, DWORD PTR [rdx+20]
  0011c	23 c1		 and	 eax, ecx
  0011e	0f 84 99 00 00
	00		 je	 $LN102@put

; 294  : 			_THROW_NCEE(failure, "ios_base::badbit set");

  00124	ba 01 00 00 00	 mov	 edx, 1
  00129	48 8d 4c 24 20	 lea	 rcx, QWORD PTR $T1[rsp]

; 290  : 			;
; 291  : 		else if (_Reraise)
; 292  : 			_RERAISE;
; 293  : 		else if (_Mystate & _Except & badbit)

  0012e	a8 04		 test	 al, 4
  00130	74 2b		 je	 SHORT $LN99@put

; 294  : 			_THROW_NCEE(failure, "ios_base::badbit set");

  00132	e8 00 00 00 00	 call	 ?make_error_code@std@@YA?AVerror_code@1@W4io_errc@1@@Z ; std::make_error_code
  00137	4c 8b c0	 mov	 r8, rax
  0013a	48 8d 15 00 00
	00 00		 lea	 rdx, OFFSET FLAT:??_C@_0BF@PHHKMMFD@ios_base?3?3badbit?5set?$AA@
  00141	48 8d 4c 24 48	 lea	 rcx, QWORD PTR $T3[rsp]
  00146	e8 00 00 00 00	 call	 ??0failure@ios_base@std@@QEAA@PEBDAEBVerror_code@2@@Z ; std::ios_base::failure::failure
  0014b	48 8d 15 00 00
	00 00		 lea	 rdx, OFFSET FLAT:_TI5?AVfailure@ios_base@std@@
  00152	48 8d 4c 24 48	 lea	 rcx, QWORD PTR $T3[rsp]
  00157	e8 00 00 00 00	 call	 _CxxThrowException
  0015c	cc		 int	 3
$LN99@put:

; 295  : 		else if (_Mystate & _Except & failbit)

  0015d	a8 02		 test	 al, 2
  0015f	74 2b		 je	 SHORT $LN101@put

; 296  : 			_THROW_NCEE(failure, "ios_base::failbit set");

  00161	e8 00 00 00 00	 call	 ?make_error_code@std@@YA?AVerror_code@1@W4io_errc@1@@Z ; std::make_error_code
  00166	4c 8b c0	 mov	 r8, rax
  00169	48 8d 15 00 00
	00 00		 lea	 rdx, OFFSET FLAT:??_C@_0BG@FMKFHCIL@ios_base?3?3failbit?5set?$AA@
  00170	48 8d 4c 24 70	 lea	 rcx, QWORD PTR $T4[rsp]
  00175	e8 00 00 00 00	 call	 ??0failure@ios_base@std@@QEAA@PEBDAEBVerror_code@2@@Z ; std::ios_base::failure::failure
  0017a	48 8d 15 00 00
	00 00		 lea	 rdx, OFFSET FLAT:_TI5?AVfailure@ios_base@std@@
  00181	48 8d 4c 24 70	 lea	 rcx, QWORD PTR $T4[rsp]
  00186	e8 00 00 00 00	 call	 _CxxThrowException
  0018b	cc		 int	 3
$LN101@put:

; 297  : 		else
; 298  : 			_THROW_NCEE(failure, "ios_base::eofbit set");

  0018c	e8 00 00 00 00	 call	 ?make_error_code@std@@YA?AVerror_code@1@W4io_errc@1@@Z ; std::make_error_code
  00191	4c 8b c0	 mov	 r8, rax
  00194	48 8d 15 00 00
	00 00		 lea	 rdx, OFFSET FLAT:??_C@_0BF@OOHOMBOF@ios_base?3?3eofbit?5set?$AA@
  0019b	48 8d 8c 24 98
	00 00 00	 lea	 rcx, QWORD PTR $T5[rsp]
  001a3	e8 00 00 00 00	 call	 ??0failure@ios_base@std@@QEAA@PEBDAEBVerror_code@2@@Z ; std::ios_base::failure::failure
  001a8	48 8d 15 00 00
	00 00		 lea	 rdx, OFFSET FLAT:_TI5?AVfailure@ios_base@std@@
  001af	48 8d 8c 24 98
	00 00 00	 lea	 rcx, QWORD PTR $T5[rsp]
  001b7	e8 00 00 00 00	 call	 _CxxThrowException
  001bc	90		 npad	 1
$LN102@put:
; File c:\users\alist_000\cppmisc\packages\visualcpptools.14.0.24629\lib\native\include\ostream

; 132  : 			if (!_STD uncaught_exception())

  001bd	e8 00 00 00 00	 call	 ?uncaught_exception@std@@YA_NXZ ; std::uncaught_exception
  001c2	84 c0		 test	 al, al
  001c4	75 09		 jne	 SHORT $LN107@put

; 133  : 				this->_Myostr._Osfx();

  001c6	48 8b cb	 mov	 rcx, rbx
  001c9	e8 00 00 00 00	 call	 ?_Osfx@?$basic_ostream@DU?$char_traits@D@std@@@std@@QEAAXXZ ; std::basic_ostream<char,std::char_traits<char> >::_Osfx
  001ce	90		 npad	 1
$LN107@put:

; 107  : 			if (_Myostr.rdbuf() != 0)

  001cf	48 8b 03	 mov	 rax, QWORD PTR [rbx]
  001d2	48 63 48 04	 movsxd	 rcx, DWORD PTR [rax+4]
; File c:\users\alist_000\cppmisc\packages\visualcpptools.14.0.24629\lib\native\include\ios

; 92   : 		return (_Mystrbuf);

  001d6	48 8b 4c 19 48	 mov	 rcx, QWORD PTR [rcx+rbx+72]
; File c:\users\alist_000\cppmisc\packages\visualcpptools.14.0.24629\lib\native\include\ostream

; 107  : 			if (_Myostr.rdbuf() != 0)

  001db	48 85 c9	 test	 rcx, rcx
  001de	74 07		 je	 SHORT $LN111@put

; 108  : 				_Myostr.rdbuf()->_Unlock();

  001e0	48 8b 01	 mov	 rax, QWORD PTR [rcx]
  001e3	ff 50 10	 call	 QWORD PTR [rax+16]
  001e6	90		 npad	 1
$LN111@put:

; 543  : 		return (*this);

  001e7	48 8b c3	 mov	 rax, rbx

; 544  : 		}

  001ea	4c 8d 9c 24 c0
	00 00 00	 lea	 r11, QWORD PTR [rsp+192]
  001f2	49 8b 5b 18	 mov	 rbx, QWORD PTR [r11+24]
  001f6	49 8b 73 28	 mov	 rsi, QWORD PTR [r11+40]
  001fa	49 8b e3	 mov	 rsp, r11
  001fd	5f		 pop	 rdi
  001fe	c3		 ret	 0
$LN118@put:
?put@?$basic_ostream@DU?$char_traits@D@std@@@std@@QEAAAEAV12@D@Z ENDP ; std::basic_ostream<char,std::char_traits<char> >::put
_TEXT	ENDS
;	COMDAT text$x
text$x	SEGMENT
$T1 = 32
$T2 = 48
_Ok$ = 56
$T3 = 72
$T4 = 112
$T5 = 152
this$ = 208
_Ch$ = 216
_State$ = 224
?dtor$1@?0??put@?$basic_ostream@DU?$char_traits@D@std@@@std@@QEAAAEAV12@D@Z@4HA PROC ; `std::basic_ostream<char,std::char_traits<char> >::put'::`1'::dtor$1
  00000	48 8d 8a 38 00
	00 00		 lea	 rcx, QWORD PTR _Ok$[rdx]
  00007	e9 00 00 00 00	 jmp	 ??1_Sentry_base@?$basic_ostream@DU?$char_traits@D@std@@@std@@QEAA@XZ ; std::basic_ostream<char,std::char_traits<char> >::_Sentry_base::~_Sentry_base
?dtor$1@?0??put@?$basic_ostream@DU?$char_traits@D@std@@@std@@QEAAAEAV12@D@Z@4HA ENDP ; `std::basic_ostream<char,std::char_traits<char> >::put'::`1'::dtor$1
$T1 = 32
$T2 = 48
_Ok$ = 56
$T3 = 72
$T4 = 112
$T5 = 152
this$ = 208
_Ch$ = 216
_State$ = 224
?dtor$0@?0??put@?$basic_ostream@DU?$char_traits@D@std@@@std@@QEAAAEAV12@D@Z@4HA PROC ; `std::basic_ostream<char,std::char_traits<char> >::put'::`1'::dtor$0
  0000c	48 8d 8a 38 00
	00 00		 lea	 rcx, QWORD PTR _Ok$[rdx]
  00013	e9 00 00 00 00	 jmp	 ??1sentry@?$basic_ostream@DU?$char_traits@D@std@@@std@@QEAA@XZ ; std::basic_ostream<char,std::char_traits<char> >::sentry::~sentry
?dtor$0@?0??put@?$basic_ostream@DU?$char_traits@D@std@@@std@@QEAAAEAV12@D@Z@4HA ENDP ; `std::basic_ostream<char,std::char_traits<char> >::put'::`1'::dtor$0
$T1 = 32
$T2 = 48
_Ok$ = 56
$T3 = 72
$T4 = 112
$T5 = 152
this$ = 208
_Ch$ = 216
_State$ = 224
?catch$8@?0??put@?$basic_ostream@DU?$char_traits@D@std@@@std@@QEAAAEAV12@D@Z@4HA PROC ; `std::basic_ostream<char,std::char_traits<char> >::put'::`1'::catch$8

; 537  : 				_Myios::rdbuf()->sputc(_Ch)))
; 538  : 				_State |= ios_base::badbit;
; 539  : 			_CATCH_IO_END

  00018	48 89 54 24 10	 mov	 QWORD PTR [rsp+16], rdx
  0001d	55		 push	 rbp
  0001e	48 83 ec 20	 sub	 rsp, 32			; 00000020H
  00022	48 8b ea	 mov	 rbp, rdx
__catch$?put@?$basic_ostream@DU?$char_traits@D@std@@@std@@QEAAAEAV12@D@Z$0:
  00025	48 8b 8d d0 00
	00 00		 mov	 rcx, QWORD PTR this$[rbp]
  0002c	48 8b 01	 mov	 rax, QWORD PTR [rcx]
  0002f	48 63 50 04	 movsxd	 rdx, DWORD PTR [rax+4]
  00033	48 03 d1	 add	 rdx, rcx
; File c:\users\alist_000\cppmisc\packages\visualcpptools.14.0.24629\lib\native\include\xiosbase

; 315  : 		return (_Mystate);

  00036	8b 42 10	 mov	 eax, DWORD PTR [rdx+16]
; File c:\users\alist_000\cppmisc\packages\visualcpptools.14.0.24629\lib\native\include\ios

; 60   : 			clear((iostate)((int)rdstate() | (int)_State), _Reraise);

  00039	83 c8 04	 or	 eax, 4

; 45   : 		ios_base::clear((iostate)(_Mystrbuf == 0

  0003c	48 83 7a 48 00	 cmp	 QWORD PTR [rdx+72], 0
  00041	75 03		 jne	 SHORT $LN70@catch$8
  00043	83 c8 04	 or	 eax, 4
$LN70@catch$8:
; File c:\users\alist_000\cppmisc\packages\visualcpptools.14.0.24629\lib\native\include\xiosbase

; 288  : 		_Mystate = (iostate)(_State & _Statmask);

  00046	83 e0 17	 and	 eax, 23
  00049	89 42 10	 mov	 DWORD PTR [rdx+16], eax

; 289  : 		if ((_Mystate & _Except) == 0)

  0004c	85 42 14	 test	 DWORD PTR [rdx+20], eax
  0004f	75 09		 jne	 SHORT $LN73@catch$8
; File c:\users\alist_000\cppmisc\packages\visualcpptools.14.0.24629\lib\native\include\ostream

; 537  : 				_Myios::rdbuf()->sputc(_Ch)))
; 538  : 				_State |= ios_base::badbit;
; 539  : 			_CATCH_IO_END

  00051	48 8d 05 00 00
	00 00		 lea	 rax, $LN11@catch$8
  00058	eb 0a		 jmp	 SHORT $LN119@catch$8
$LN73@catch$8:
; File c:\users\alist_000\cppmisc\packages\visualcpptools.14.0.24629\lib\native\include\xiosbase

; 292  : 			_RERAISE;

  0005a	33 d2		 xor	 edx, edx
  0005c	33 c9		 xor	 ecx, ecx
  0005e	e8 00 00 00 00	 call	 _CxxThrowException
  00063	90		 npad	 1
$LN119@catch$8:
  00064	48 83 c4 20	 add	 rsp, 32			; 00000020H
  00068	5d		 pop	 rbp
  00069	c3		 ret	 0
  0006a	cc		 int	 3
?catch$8@?0??put@?$basic_ostream@DU?$char_traits@D@std@@@std@@QEAAAEAV12@D@Z@4HA ENDP ; `std::basic_ostream<char,std::char_traits<char> >::put'::`1'::catch$8
text$x	ENDS
; Function compile flags: /Ogtpy
;	COMDAT text$x
text$x	SEGMENT
$T1 = 32
$T2 = 48
_Ok$ = 56
$T3 = 72
$T4 = 112
$T5 = 152
this$ = 208
_Ch$ = 216
_State$ = 224
?dtor$1@?0??put@?$basic_ostream@DU?$char_traits@D@std@@@std@@QEAAAEAV12@D@Z@4HA PROC ; `std::basic_ostream<char,std::char_traits<char> >::put'::`1'::dtor$1
  00000	48 8d 8a 38 00
	00 00		 lea	 rcx, QWORD PTR _Ok$[rdx]
  00007	e9 00 00 00 00	 jmp	 ??1_Sentry_base@?$basic_ostream@DU?$char_traits@D@std@@@std@@QEAA@XZ ; std::basic_ostream<char,std::char_traits<char> >::_Sentry_base::~_Sentry_base
?dtor$1@?0??put@?$basic_ostream@DU?$char_traits@D@std@@@std@@QEAAAEAV12@D@Z@4HA ENDP ; `std::basic_ostream<char,std::char_traits<char> >::put'::`1'::dtor$1
text$x	ENDS
; Function compile flags: /Ogtpy
;	COMDAT text$x
text$x	SEGMENT
$T1 = 32
$T2 = 48
_Ok$ = 56
$T3 = 72
$T4 = 112
$T5 = 152
this$ = 208
_Ch$ = 216
_State$ = 224
?dtor$0@?0??put@?$basic_ostream@DU?$char_traits@D@std@@@std@@QEAAAEAV12@D@Z@4HA PROC ; `std::basic_ostream<char,std::char_traits<char> >::put'::`1'::dtor$0
  0000c	48 8d 8a 38 00
	00 00		 lea	 rcx, QWORD PTR _Ok$[rdx]
  00013	e9 00 00 00 00	 jmp	 ??1sentry@?$basic_ostream@DU?$char_traits@D@std@@@std@@QEAA@XZ ; std::basic_ostream<char,std::char_traits<char> >::sentry::~sentry
?dtor$0@?0??put@?$basic_ostream@DU?$char_traits@D@std@@@std@@QEAAAEAV12@D@Z@4HA ENDP ; `std::basic_ostream<char,std::char_traits<char> >::put'::`1'::dtor$0
text$x	ENDS
; Function compile flags: /Ogtpy
; File c:\users\alist_000\cppmisc\packages\visualcpptools.14.0.24629\lib\native\include\ostream
; File c:\users\alist_000\cppmisc\packages\visualcpptools.14.0.24629\lib\native\include\xiosbase
; File c:\users\alist_000\cppmisc\packages\visualcpptools.14.0.24629\lib\native\include\ios
; File c:\users\alist_000\cppmisc\packages\visualcpptools.14.0.24629\lib\native\include\xiosbase
; File c:\users\alist_000\cppmisc\packages\visualcpptools.14.0.24629\lib\native\include\ostream
; File c:\users\alist_000\cppmisc\packages\visualcpptools.14.0.24629\lib\native\include\xiosbase
;	COMDAT text$x
text$x	SEGMENT
$T1 = 32
$T2 = 48
_Ok$ = 56
$T3 = 72
$T4 = 112
$T5 = 152
this$ = 208
_Ch$ = 216
_State$ = 224
?catch$8@?0??put@?$basic_ostream@DU?$char_traits@D@std@@@std@@QEAAAEAV12@D@Z@4HA PROC ; `std::basic_ostream<char,std::char_traits<char> >::put'::`1'::catch$8
; File c:\users\alist_000\cppmisc\packages\visualcpptools.14.0.24629\lib\native\include\ostream

; 539  : 			_CATCH_IO_END

  00018	48 89 54 24 10	 mov	 QWORD PTR [rsp+16], rdx
  0001d	55		 push	 rbp
  0001e	48 83 ec 20	 sub	 rsp, 32			; 00000020H
  00022	48 8b ea	 mov	 rbp, rdx
__catch$?put@?$basic_ostream@DU?$char_traits@D@std@@@std@@QEAAAEAV12@D@Z$0:
  00025	48 8b 8d d0 00
	00 00		 mov	 rcx, QWORD PTR this$[rbp]
  0002c	48 8b 01	 mov	 rax, QWORD PTR [rcx]
  0002f	48 63 50 04	 movsxd	 rdx, DWORD PTR [rax+4]
  00033	48 03 d1	 add	 rdx, rcx
; File c:\users\alist_000\cppmisc\packages\visualcpptools.14.0.24629\lib\native\include\xiosbase

; 315  : 		return (_Mystate);

  00036	8b 42 10	 mov	 eax, DWORD PTR [rdx+16]
; File c:\users\alist_000\cppmisc\packages\visualcpptools.14.0.24629\lib\native\include\ios

; 60   : 			clear((iostate)((int)rdstate() | (int)_State), _Reraise);

  00039	83 c8 04	 or	 eax, 4

; 45   : 		ios_base::clear((iostate)(_Mystrbuf == 0

  0003c	48 83 7a 48 00	 cmp	 QWORD PTR [rdx+72], 0
  00041	75 03		 jne	 SHORT $LN70@catch$8
  00043	83 c8 04	 or	 eax, 4
$LN70@catch$8:
; File c:\users\alist_000\cppmisc\packages\visualcpptools.14.0.24629\lib\native\include\xiosbase

; 288  : 		_Mystate = (iostate)(_State & _Statmask);

  00046	83 e0 17	 and	 eax, 23
  00049	89 42 10	 mov	 DWORD PTR [rdx+16], eax

; 289  : 		if ((_Mystate & _Except) == 0)

  0004c	85 42 14	 test	 DWORD PTR [rdx+20], eax
  0004f	75 09		 jne	 SHORT $LN73@catch$8
; File c:\users\alist_000\cppmisc\packages\visualcpptools.14.0.24629\lib\native\include\ostream

; 539  : 			_CATCH_IO_END

  00051	48 8d 05 00 00
	00 00		 lea	 rax, $LN11@catch$8
  00058	eb 0a		 jmp	 SHORT $LN119@catch$8
$LN73@catch$8:
; File c:\users\alist_000\cppmisc\packages\visualcpptools.14.0.24629\lib\native\include\xiosbase

; 292  : 			_RERAISE;

  0005a	33 d2		 xor	 edx, edx
  0005c	33 c9		 xor	 ecx, ecx
  0005e	e8 00 00 00 00	 call	 _CxxThrowException
  00063	90		 npad	 1
$LN119@catch$8:
  00064	48 83 c4 20	 add	 rsp, 32			; 00000020H
  00068	5d		 pop	 rbp
  00069	c3		 ret	 0
  0006a	cc		 int	 3
?catch$8@?0??put@?$basic_ostream@DU?$char_traits@D@std@@@std@@QEAAAEAV12@D@Z@4HA ENDP ; `std::basic_ostream<char,std::char_traits<char> >::put'::`1'::catch$8
text$x	ENDS
; Function compile flags: /Ogtpy
; File c:\users\alist_000\cppmisc\packages\visualcpptools.14.0.24629\lib\native\include\streambuf
; File c:\users\alist_000\cppmisc\packages\visualcpptools.14.0.24629\lib\native\include\iosfwd
; File c:\users\alist_000\cppmisc\packages\visualcpptools.14.0.24629\lib\native\include\streambuf
; File c:\users\alist_000\cppmisc\packages\visualcpptools.14.0.24629\lib\native\include\iosfwd
; File c:\users\alist_000\cppmisc\packages\visualcpptools.14.0.24629\lib\native\include\streambuf
;	COMDAT ?sputc@?$basic_streambuf@DU?$char_traits@D@std@@@std@@QEAAHD@Z
_TEXT	SEGMENT
this$ = 8
_Ch$ = 16
?sputc@?$basic_streambuf@DU?$char_traits@D@std@@@std@@QEAAHD@Z PROC ; std::basic_streambuf<char,std::char_traits<char> >::sputc, COMDAT

; 314  : 		return (*_IPnext != 0 ? *_IPcount : 0);

  00000	48 8b 41 40	 mov	 rax, QWORD PTR [rcx+64]

; 199  : 		{	// put a character

  00004	44 0f b6 c2	 movzx	 r8d, dl

; 314  : 		return (*_IPnext != 0 ? *_IPcount : 0);

  00008	48 83 38 00	 cmp	 QWORD PTR [rax], 0
  0000c	74 24		 je	 SHORT $LN3@sputc
  0000e	48 8b 51 58	 mov	 rdx, QWORD PTR [rcx+88]
  00012	8b 02		 mov	 eax, DWORD PTR [rdx]

; 200  : 		return (0 < _Pnavail()

  00014	85 c0		 test	 eax, eax
  00016	7e 1a		 jle	 SHORT $LN3@sputc

; 308  : 		--*_IPcount;

  00018	ff c8		 dec	 eax
  0001a	89 02		 mov	 DWORD PTR [rdx], eax

; 309  : 		return ((*_IPnext)++);

  0001c	48 8b 49 40	 mov	 rcx, QWORD PTR [rcx+64]
  00020	48 8b 11	 mov	 rdx, QWORD PTR [rcx]
  00023	48 8d 42 01	 lea	 rax, QWORD PTR [rdx+1]
  00027	48 89 01	 mov	 QWORD PTR [rcx], rax

; 200  : 		return (0 < _Pnavail()

  0002a	44 88 02	 mov	 BYTE PTR [rdx], r8b
; File c:\users\alist_000\cppmisc\packages\visualcpptools.14.0.24629\lib\native\include\iosfwd

; 536  : 		return ((unsigned char)_Ch);

  0002d	41 0f b6 c0	 movzx	 eax, r8b
; File c:\users\alist_000\cppmisc\packages\visualcpptools.14.0.24629\lib\native\include\streambuf

; 203  : 		}

  00031	c3		 ret	 0
$LN3@sputc:

; 200  : 		return (0 < _Pnavail()

  00032	48 8b 01	 mov	 rax, QWORD PTR [rcx]
; File c:\users\alist_000\cppmisc\packages\visualcpptools.14.0.24629\lib\native\include\iosfwd

; 536  : 		return ((unsigned char)_Ch);

  00035	41 0f b6 d0	 movzx	 edx, r8b
; File c:\users\alist_000\cppmisc\packages\visualcpptools.14.0.24629\lib\native\include\streambuf

; 200  : 		return (0 < _Pnavail()

  00039	48 ff 60 18	 rex_jmp QWORD PTR [rax+24]
?sputc@?$basic_streambuf@DU?$char_traits@D@std@@@std@@QEAAHD@Z ENDP ; std::basic_streambuf<char,std::char_traits<char> >::sputc
_TEXT	ENDS
; Function compile flags: /Ogtpy
; File c:\users\alist_000\cppmisc\packages\visualcpptools.14.0.24629\lib\native\include\ios
; File c:\users\alist_000\cppmisc\packages\visualcpptools.14.0.24629\lib\native\include\xlocale
; File c:\users\alist_000\cppmisc\packages\visualcpptools.14.0.24629\lib\native\include\ios
; File c:\users\alist_000\cppmisc\packages\visualcpptools.14.0.24629\lib\native\include\xlocale
; File c:\users\alist_000\cppmisc\packages\visualcpptools.14.0.24629\lib\native\include\ios
;	COMDAT ?widen@?$basic_ios@DU?$char_traits@D@std@@@std@@QEBADD@Z
_TEXT	SEGMENT
$T1 = 32
$T2 = 40
this$ = 80
_Byte$ = 88
?widen@?$basic_ios@DU?$char_traits@D@std@@@std@@QEBADD@Z PROC ; std::basic_ios<char,std::char_traits<char> >::widen, COMDAT

; 130  : 		{	// convert _Byte to character using imbued locale

$LN16:
  00000	40 57		 push	 rdi
  00002	48 83 ec 40	 sub	 rsp, 64			; 00000040H
  00006	48 c7 44 24 20
	fe ff ff ff	 mov	 QWORD PTR $T1[rsp], -2
  0000f	48 89 5c 24 50	 mov	 QWORD PTR [rsp+80], rbx
  00014	0f b6 da	 movzx	 ebx, dl

; 131  : 		const _Ctype& _Ctype_fac = _USE(getloc(), _Ctype);

  00017	48 8d 54 24 28	 lea	 rdx, QWORD PTR $T2[rsp]
  0001c	e8 00 00 00 00	 call	 ?getloc@ios_base@std@@QEBA?AVlocale@2@XZ ; std::ios_base::getloc
  00021	90		 npad	 1
  00022	48 8b c8	 mov	 rcx, rax
  00025	e8 00 00 00 00	 call	 ??$use_facet@V?$ctype@D@std@@@std@@YAAEBV?$ctype@D@0@AEBVlocale@0@@Z ; std::use_facet<std::ctype<char> >
  0002a	48 8b f8	 mov	 rdi, rax
; File c:\users\alist_000\cppmisc\packages\visualcpptools.14.0.24629\lib\native\include\xlocale

; 410  : 		if (_Ptr != 0)

  0002d	48 8b 4c 24 30	 mov	 rcx, QWORD PTR $T2[rsp+8]
  00032	48 85 c9	 test	 rcx, rcx
  00035	74 1a		 je	 SHORT $LN7@widen

; 411  : 			delete _Ptr->_Decref();

  00037	48 8b 11	 mov	 rdx, QWORD PTR [rcx]
  0003a	ff 52 10	 call	 QWORD PTR [rdx+16]
  0003d	48 85 c0	 test	 rax, rax
  00040	74 0f		 je	 SHORT $LN7@widen
  00042	4c 8b 00	 mov	 r8, QWORD PTR [rax]
  00045	ba 01 00 00 00	 mov	 edx, 1
  0004a	48 8b c8	 mov	 rcx, rax
  0004d	41 ff 10	 call	 QWORD PTR [r8]
  00050	90		 npad	 1
$LN7@widen:
  00051	48 8b 07	 mov	 rax, QWORD PTR [rdi]
  00054	48 8d 0d 00 00
	00 00		 lea	 rcx, OFFSET FLAT:??_7?$ctype@D@std@@6B@
  0005b	48 3b c1	 cmp	 rax, rcx
  0005e	75 05		 jne	 SHORT $LN13@widen
; File c:\users\alist_000\cppmisc\packages\visualcpptools.14.0.24629\lib\native\include\ios

; 132  : 		return (_Ctype_fac.widen(_Byte));

  00060	0f b6 c3	 movzx	 eax, bl
  00063	eb 09		 jmp	 SHORT $LN12@widen
$LN13@widen:
  00065	0f b6 d3	 movzx	 edx, bl
  00068	48 8b cf	 mov	 rcx, rdi
; File c:\users\alist_000\cppmisc\packages\visualcpptools.14.0.24629\lib\native\include\xlocale

; 2368 : 		return (do_widen(_Byte));

  0006b	ff 50 40	 call	 QWORD PTR [rax+64]
$LN12@widen:
; File c:\users\alist_000\cppmisc\packages\visualcpptools.14.0.24629\lib\native\include\ios

; 133  : 		}

  0006e	48 8b 5c 24 50	 mov	 rbx, QWORD PTR [rsp+80]
  00073	48 83 c4 40	 add	 rsp, 64			; 00000040H
  00077	5f		 pop	 rdi
  00078	c3		 ret	 0
?widen@?$basic_ios@DU?$char_traits@D@std@@@std@@QEBADD@Z ENDP ; std::basic_ios<char,std::char_traits<char> >::widen
_TEXT	ENDS
;	COMDAT text$x
text$x	SEGMENT
$T1 = 32
$T2 = 40
this$ = 80
_Byte$ = 88
?dtor$0@?0??widen@?$basic_ios@DU?$char_traits@D@std@@@std@@QEBADD@Z@4HA PROC ; `std::basic_ios<char,std::char_traits<char> >::widen'::`1'::dtor$0
  00000	48 8d 8a 28 00
	00 00		 lea	 rcx, QWORD PTR $T2[rdx]
  00007	e9 00 00 00 00	 jmp	 ??1locale@std@@QEAA@XZ	; std::locale::~locale
?dtor$0@?0??widen@?$basic_ios@DU?$char_traits@D@std@@@std@@QEBADD@Z@4HA ENDP ; `std::basic_ios<char,std::char_traits<char> >::widen'::`1'::dtor$0
text$x	ENDS
; Function compile flags: /Ogtpy
;	COMDAT text$x
text$x	SEGMENT
$T1 = 32
$T2 = 40
this$ = 80
_Byte$ = 88
?dtor$0@?0??widen@?$basic_ios@DU?$char_traits@D@std@@@std@@QEBADD@Z@4HA PROC ; `std::basic_ios<char,std::char_traits<char> >::widen'::`1'::dtor$0
  00000	48 8d 8a 28 00
	00 00		 lea	 rcx, QWORD PTR $T2[rdx]
  00007	e9 00 00 00 00	 jmp	 ??1locale@std@@QEAA@XZ	; std::locale::~locale
?dtor$0@?0??widen@?$basic_ios@DU?$char_traits@D@std@@@std@@QEBADD@Z@4HA ENDP ; `std::basic_ios<char,std::char_traits<char> >::widen'::`1'::dtor$0
text$x	ENDS
; Function compile flags: /Ogtpy
; File c:\users\alist_000\cppmisc\packages\visualcpptools.14.0.24629\lib\native\include\ios
;	COMDAT ?fill@?$basic_ios@DU?$char_traits@D@std@@@std@@QEBADXZ
_TEXT	SEGMENT
this$ = 8
?fill@?$basic_ios@DU?$char_traits@D@std@@@std@@QEBADXZ PROC ; std::basic_ios<char,std::char_traits<char> >::fill, COMDAT

; 113  : 		return (_Fillch);

  00000	0f b6 41 58	 movzx	 eax, BYTE PTR [rcx+88]

; 114  : 		}

  00004	c3		 ret	 0
?fill@?$basic_ios@DU?$char_traits@D@std@@@std@@QEBADXZ ENDP ; std::basic_ios<char,std::char_traits<char> >::fill
_TEXT	ENDS
; Function compile flags: /Ogtpy
; File c:\users\alist_000\cppmisc\packages\visualcpptools.14.0.24629\lib\native\include\ios
;	COMDAT ?rdbuf@?$basic_ios@DU?$char_traits@D@std@@@std@@QEBAPEAV?$basic_streambuf@DU?$char_traits@D@std@@@2@XZ
_TEXT	SEGMENT
this$ = 8
?rdbuf@?$basic_ios@DU?$char_traits@D@std@@@std@@QEBAPEAV?$basic_streambuf@DU?$char_traits@D@std@@@2@XZ PROC ; std::basic_ios<char,std::char_traits<char> >::rdbuf, COMDAT

; 92   : 		return (_Mystrbuf);

  00000	48 8b 41 48	 mov	 rax, QWORD PTR [rcx+72]

; 93   : 		}

  00004	c3		 ret	 0
?rdbuf@?$basic_ios@DU?$char_traits@D@std@@@std@@QEBAPEAV?$basic_streambuf@DU?$char_traits@D@std@@@2@XZ ENDP ; std::basic_ios<char,std::char_traits<char> >::rdbuf
_TEXT	ENDS
; Function compile flags: /Ogtpy
; File c:\users\alist_000\cppmisc\packages\visualcpptools.14.0.24629\lib\native\include\ios
;	COMDAT ?setstate@?$basic_ios@DU?$char_traits@D@std@@@std@@QEAAXH_N@Z
_TEXT	SEGMENT
this$ = 8
_State$ = 16
_Reraise$ = 24
?setstate@?$basic_ios@DU?$char_traits@D@std@@@std@@QEAAXH_N@Z PROC ; std::basic_ios<char,std::char_traits<char> >::setstate, COMDAT

; 59   : 		if (_State != goodbit)

  00000	85 d2		 test	 edx, edx
  00002	74 17		 je	 SHORT $LN2@setstate

; 60   : 			clear((iostate)((int)rdstate() | (int)_State), _Reraise);

  00004	8b 41 10	 mov	 eax, DWORD PTR [rcx+16]
  00007	0b c2		 or	 eax, edx
  00009	8b d0		 mov	 edx, eax
  0000b	83 ca 04	 or	 edx, 4
  0000e	48 83 79 48 00	 cmp	 QWORD PTR [rcx+72], 0
  00013	0f 45 d0	 cmovne	 edx, eax

; 45   : 		ios_base::clear((iostate)(_Mystrbuf == 0

  00016	e9 00 00 00 00	 jmp	 ?clear@ios_base@std@@QEAAXH_N@Z ; std::ios_base::clear
$LN2@setstate:

; 61   : 		}

  0001b	c3		 ret	 0
?setstate@?$basic_ios@DU?$char_traits@D@std@@@std@@QEAAXH_N@Z ENDP ; std::basic_ios<char,std::char_traits<char> >::setstate
_TEXT	ENDS
; Function compile flags: /Ogtpy
; File c:\users\alist_000\cppmisc\packages\visualcpptools.14.0.24629\lib\native\include\ostream
;	COMDAT ??1_Sentry_base@?$basic_ostream@DU?$char_traits@D@std@@@std@@QEAA@XZ
_TEXT	SEGMENT
$T1 = 32
this$ = 64
??1_Sentry_base@?$basic_ostream@DU?$char_traits@D@std@@@std@@QEAA@XZ PROC ; std::basic_ostream<char,std::char_traits<char> >::_Sentry_base::~_Sentry_base, COMDAT

; 106  : 			{	// destroy after unlocking

$LN8:
  00000	48 83 ec 38	 sub	 rsp, 56			; 00000038H
  00004	48 c7 44 24 20
	fe ff ff ff	 mov	 QWORD PTR $T1[rsp], -2

; 107  : 			if (_Myostr.rdbuf() != 0)

  0000d	48 8b 11	 mov	 rdx, QWORD PTR [rcx]
  00010	48 8b 02	 mov	 rax, QWORD PTR [rdx]
  00013	48 63 48 04	 movsxd	 rcx, DWORD PTR [rax+4]
  00017	48 8b 4c 11 48	 mov	 rcx, QWORD PTR [rcx+rdx+72]
  0001c	48 85 c9	 test	 rcx, rcx
  0001f	74 07		 je	 SHORT $LN2@Sentry_bas

; 108  : 				_Myostr.rdbuf()->_Unlock();

  00021	48 8b 01	 mov	 rax, QWORD PTR [rcx]
  00024	ff 50 10	 call	 QWORD PTR [rax+16]
  00027	90		 npad	 1
$LN2@Sentry_bas:

; 109  : 			}

  00028	48 83 c4 38	 add	 rsp, 56			; 00000038H
  0002c	c3		 ret	 0
??1_Sentry_base@?$basic_ostream@DU?$char_traits@D@std@@@std@@QEAA@XZ ENDP ; std::basic_ostream<char,std::char_traits<char> >::_Sentry_base::~_Sentry_base
_TEXT	ENDS
; Function compile flags: /Ogtpy
; File c:\users\alist_000\cppmisc\packages\visualcpptools.14.0.24629\lib\native\include\ostream
;	COMDAT ??0_Sentry_base@?$basic_ostream@DU?$char_traits@D@std@@@std@@QEAA@AEAV12@@Z
_TEXT	SEGMENT
this$ = 48
_Ostr$ = 56
??0_Sentry_base@?$basic_ostream@DU?$char_traits@D@std@@@std@@QEAA@AEAV12@@Z PROC ; std::basic_ostream<char,std::char_traits<char> >::_Sentry_base::_Sentry_base, COMDAT

; 100  : 			{	// lock the stream buffer, if there

$LN10:
  00000	40 53		 push	 rbx
  00002	48 83 ec 20	 sub	 rsp, 32			; 00000020H

; 99   : 			: _Myostr(_Ostr)

  00006	48 89 11	 mov	 QWORD PTR [rcx], rdx

; 100  : 			{	// lock the stream buffer, if there

  00009	48 8b d9	 mov	 rbx, rcx

; 101  : 			if (_Myostr.rdbuf() != 0)

  0000c	48 8b 02	 mov	 rax, QWORD PTR [rdx]
  0000f	4c 63 40 04	 movsxd	 r8, DWORD PTR [rax+4]
  00013	49 8b 4c 10 48	 mov	 rcx, QWORD PTR [r8+rdx+72]
  00018	48 85 c9	 test	 rcx, rcx
  0001b	74 06		 je	 SHORT $LN8@Sentry_bas

; 102  : 				_Myostr.rdbuf()->_Lock();

  0001d	48 8b 01	 mov	 rax, QWORD PTR [rcx]
  00020	ff 50 08	 call	 QWORD PTR [rax+8]
$LN8@Sentry_bas:

; 103  : 			}

  00023	48 8b c3	 mov	 rax, rbx
  00026	48 83 c4 20	 add	 rsp, 32			; 00000020H
  0002a	5b		 pop	 rbx
  0002b	c3		 ret	 0
??0_Sentry_base@?$basic_ostream@DU?$char_traits@D@std@@@std@@QEAA@AEAV12@@Z ENDP ; std::basic_ostream<char,std::char_traits<char> >::_Sentry_base::_Sentry_base
_TEXT	ENDS
; Function compile flags: /Ogtpy
; File c:\users\alist_000\cppmisc\packages\visualcpptools.14.0.24629\lib\native\include\vector
;	COMDAT ?_Myend@?$_Vector_alloc@U?$_Vec_base_types@DV?$allocator@D@std@@@std@@@std@@QEBAAEBQEADXZ
_TEXT	SEGMENT
this$ = 8
?_Myend@?$_Vector_alloc@U?$_Vec_base_types@DV?$allocator@D@std@@@std@@@std@@QEBAAEBQEADXZ PROC ; std::_Vector_alloc<std::_Vec_base_types<char,std::allocator<char> > >::_Myend, COMDAT

; 678  : 		return (_Get_data()._Myend);

  00000	48 8d 41 10	 lea	 rax, QWORD PTR [rcx+16]

; 679  : 		}

  00004	c3		 ret	 0
?_Myend@?$_Vector_alloc@U?$_Vec_base_types@DV?$allocator@D@std@@@std@@@std@@QEBAAEBQEADXZ ENDP ; std::_Vector_alloc<std::_Vec_base_types<char,std::allocator<char> > >::_Myend
_TEXT	ENDS
; Function compile flags: /Ogtpy
; File c:\users\alist_000\cppmisc\packages\visualcpptools.14.0.24629\lib\native\include\vector
;	COMDAT ?_Getal@?$_Vector_alloc@U?$_Vec_base_types@DV?$allocator@D@std@@@std@@@std@@QEBAAEBU?$_Wrap_alloc@V?$allocator@D@std@@@2@XZ
_TEXT	SEGMENT
this$ = 8
?_Getal@?$_Vector_alloc@U?$_Vec_base_types@DV?$allocator@D@std@@@std@@@std@@QEBAAEBU?$_Wrap_alloc@V?$allocator@D@std@@@2@XZ PROC ; std::_Vector_alloc<std::_Vec_base_types<char,std::allocator<char> > >::_Getal, COMDAT

; 638  : 		return (_Mypair._Get_first());

  00000	48 8b c1	 mov	 rax, rcx

; 639  : 		}

  00003	c3		 ret	 0
?_Getal@?$_Vector_alloc@U?$_Vec_base_types@DV?$allocator@D@std@@@std@@@std@@QEBAAEBU?$_Wrap_alloc@V?$allocator@D@std@@@2@XZ ENDP ; std::_Vector_alloc<std::_Vec_base_types<char,std::allocator<char> > >::_Getal
_TEXT	ENDS
; Function compile flags: /Ogtpy
; File c:\users\alist_000\cppmisc\packages\visualcpptools.14.0.24629\lib\native\include\vector
; File c:\users\alist_000\cppmisc\packages\visualcpptools.14.0.24629\lib\native\include\xutility
; File c:\users\alist_000\cppmisc\packages\visualcpptools.14.0.24629\lib\native\include\vector
;	COMDAT ?_Umove_if_noexcept1@?$vector@DV?$allocator@D@std@@@std@@AEAAXPEAD00U?$integral_constant@_N$00@2@@Z
_TEXT	SEGMENT
this$dead$ = 8
_First$ = 16
_Last$ = 24
_Dest$ = 32
__formal$dead$ = 40
?_Umove_if_noexcept1@?$vector@DV?$allocator@D@std@@@std@@AEAAXPEAD00U?$integral_constant@_N$00@2@@Z PROC ; std::vector<char,std::allocator<char> >::_Umove_if_noexcept1, COMDAT
; File c:\users\alist_000\cppmisc\packages\visualcpptools.14.0.24629\lib\native\include\xutility

; 2232 : 	const size_t _Count = _Last_ch - _First_ch;

  00000	4c 2b c2	 sub	 r8, rdx

; 2233 : 	_CSTD memmove(_Dest_ch, _First_ch, _Count);

  00003	49 8b c9	 mov	 rcx, r9
  00006	e9 00 00 00 00	 jmp	 memmove
?_Umove_if_noexcept1@?$vector@DV?$allocator@D@std@@@std@@AEAAXPEAD00U?$integral_constant@_N$00@2@@Z ENDP ; std::vector<char,std::allocator<char> >::_Umove_if_noexcept1
_TEXT	ENDS
; Function compile flags: /Ogtpy
; File c:\users\alist_000\cppmisc\packages\visualcpptools.14.0.24629\lib\native\include\xstring
;	COMDAT ??0_Bxty@?$_String_val@U?$_Simple_types@D@std@@@std@@QEAA@XZ
_TEXT	SEGMENT
this$ = 8
??0_Bxty@?$_String_val@U?$_Simple_types@D@std@@@std@@QEAA@XZ PROC ; std::_String_val<std::_Simple_types<char> >::_Bxty::_Bxty, COMDAT

; 1644 : 			{	// user-provided, for fancy pointers
; 1645 : 			}

  00000	48 8b c1	 mov	 rax, rcx
  00003	c3		 ret	 0
??0_Bxty@?$_String_val@U?$_Simple_types@D@std@@@std@@QEAA@XZ ENDP ; std::_String_val<std::_Simple_types<char> >::_Bxty::_Bxty
_TEXT	ENDS
; Function compile flags: /Ogtpy
; File c:\users\alist_000\cppmisc\packages\visualcpptools.14.0.24629\lib\native\include\xmemory0
;	COMDAT ??0?$allocator@D@std@@QEAA@XZ
_TEXT	SEGMENT
this$ = 8
??0?$allocator@D@std@@QEAA@XZ PROC			; std::allocator<char>::allocator<char>, COMDAT

; 796  : 		{	// construct default allocator (do nothing)
; 797  : 		}

  00000	48 8b c1	 mov	 rax, rcx
  00003	c3		 ret	 0
??0?$allocator@D@std@@QEAA@XZ ENDP			; std::allocator<char>::allocator<char>
_TEXT	ENDS
; Function compile flags: /Ogtpy
; File c:\users\alist_000\cppmisc\packages\visualcpptools.14.0.24629\lib\native\include\ostream
; File c:\users\alist_000\cppmisc\packages\visualcpptools.14.0.24629\lib\native\include\xiosbase
; File c:\users\alist_000\cppmisc\packages\visualcpptools.14.0.24629\lib\native\include\ostream
; File c:\users\alist_000\cppmisc\packages\visualcpptools.14.0.24629\lib\native\include\ios
; File c:\users\alist_000\cppmisc\packages\visualcpptools.14.0.24629\lib\native\include\streambuf
; File c:\users\alist_000\cppmisc\packages\visualcpptools.14.0.24629\lib\native\include\ostream
; File c:\users\alist_000\cppmisc\packages\visualcpptools.14.0.24629\lib\native\include\ios
; File c:\users\alist_000\cppmisc\packages\visualcpptools.14.0.24629\lib\native\include\xiosbase
; File c:\users\alist_000\cppmisc\packages\visualcpptools.14.0.24629\lib\native\include\ostream
;	COMDAT ?_Osfx@?$basic_ostream@DU?$char_traits@D@std@@@std@@QEAAXXZ
_TEXT	SEGMENT
$T1 = 32
$T2 = 48
$T3 = 56
$T4 = 96
$T5 = 136
this$ = 192
?_Osfx@?$basic_ostream@DU?$char_traits@D@std@@@std@@QEAAXXZ PROC ; std::basic_ostream<char,std::char_traits<char> >::_Osfx, COMDAT

; 165  : 		{	// perform any wrapup

$LN44:
  00000	40 53		 push	 rbx
  00002	48 81 ec b0 00
	00 00		 sub	 rsp, 176		; 000000b0H
  00009	48 c7 44 24 30
	fe ff ff ff	 mov	 QWORD PTR $T2[rsp], -2
  00012	48 8b d9	 mov	 rbx, rcx

; 167  : 		if (this->good() && this->flags() & ios_base::unitbuf)

  00015	48 8b 01	 mov	 rax, QWORD PTR [rcx]
  00018	48 63 50 04	 movsxd	 rdx, DWORD PTR [rax+4]
; File c:\users\alist_000\cppmisc\packages\visualcpptools.14.0.24629\lib\native\include\xiosbase

; 339  : 		return (rdstate() == goodbit);

  0001c	83 7c 0a 10 00	 cmp	 DWORD PTR [rdx+rcx+16], 0
; File c:\users\alist_000\cppmisc\packages\visualcpptools.14.0.24629\lib\native\include\ostream

; 167  : 		if (this->good() && this->flags() & ios_base::unitbuf)

  00021	0f 85 e3 00 00
	00		 jne	 $LN37@Osfx
  00027	f6 44 0a 18 02	 test	 BYTE PTR [rdx+rcx+24], 2
  0002c	0f 84 d8 00 00
	00		 je	 $LN37@Osfx
; File c:\users\alist_000\cppmisc\packages\visualcpptools.14.0.24629\lib\native\include\ios

; 92   : 		return (_Mystrbuf);

  00032	48 8b 4c 0a 48	 mov	 rcx, QWORD PTR [rdx+rcx+72]
; File c:\users\alist_000\cppmisc\packages\visualcpptools.14.0.24629\lib\native\include\streambuf

; 145  : 		return (sync());

  00037	48 8b 01	 mov	 rax, QWORD PTR [rcx]
  0003a	ff 50 68	 call	 QWORD PTR [rax+104]
; File c:\users\alist_000\cppmisc\packages\visualcpptools.14.0.24629\lib\native\include\ostream

; 168  : 			if (_Myios::rdbuf()->pubsync() == -1)	// flush stream as needed

  0003d	83 f8 ff	 cmp	 eax, -1
  00040	0f 85 c4 00 00
	00		 jne	 $LN37@Osfx

; 169  : 				_Myios::setstate(ios_base::badbit);

  00046	48 8b 03	 mov	 rax, QWORD PTR [rbx]
  00049	48 63 50 04	 movsxd	 rdx, DWORD PTR [rax+4]
  0004d	48 03 d3	 add	 rdx, rbx
; File c:\users\alist_000\cppmisc\packages\visualcpptools.14.0.24629\lib\native\include\ios

; 60   : 			clear((iostate)((int)rdstate() | (int)_State), _Reraise);

  00050	8b 4a 10	 mov	 ecx, DWORD PTR [rdx+16]
  00053	83 c9 04	 or	 ecx, 4
  00056	48 83 7a 48 00	 cmp	 QWORD PTR [rdx+72], 0
  0005b	0f 45 4a 10	 cmovne	 ecx, DWORD PTR [rdx+16]
; File c:\users\alist_000\cppmisc\packages\visualcpptools.14.0.24629\lib\native\include\xiosbase

; 288  : 		_Mystate = (iostate)(_State & _Statmask);

  0005f	83 e1 13	 and	 ecx, 19
  00062	83 c9 04	 or	 ecx, 4
  00065	89 4a 10	 mov	 DWORD PTR [rdx+16], ecx

; 289  : 		if ((_Mystate & _Except) == 0)

  00068	8b 42 14	 mov	 eax, DWORD PTR [rdx+20]
  0006b	23 c1		 and	 eax, ecx
  0006d	0f 84 97 00 00
	00		 je	 $LN37@Osfx

; 294  : 			_THROW_NCEE(failure, "ios_base::badbit set");

  00073	ba 01 00 00 00	 mov	 edx, 1
  00078	48 8d 4c 24 20	 lea	 rcx, QWORD PTR $T1[rsp]

; 290  : 			;
; 291  : 		else if (_Reraise)
; 292  : 			_RERAISE;
; 293  : 		else if (_Mystate & _Except & badbit)

  0007d	a8 04		 test	 al, 4
  0007f	74 2a		 je	 SHORT $LN34@Osfx

; 294  : 			_THROW_NCEE(failure, "ios_base::badbit set");

  00081	e8 00 00 00 00	 call	 ?make_error_code@std@@YA?AVerror_code@1@W4io_errc@1@@Z ; std::make_error_code
  00086	4c 8b c0	 mov	 r8, rax
  00089	48 8d 15 00 00
	00 00		 lea	 rdx, OFFSET FLAT:??_C@_0BF@PHHKMMFD@ios_base?3?3badbit?5set?$AA@
  00090	48 8d 4c 24 38	 lea	 rcx, QWORD PTR $T3[rsp]
  00095	e8 00 00 00 00	 call	 ??0failure@ios_base@std@@QEAA@PEBDAEBVerror_code@2@@Z ; std::ios_base::failure::failure
  0009a	48 8d 15 00 00
	00 00		 lea	 rdx, OFFSET FLAT:_TI5?AVfailure@ios_base@std@@
  000a1	48 8d 4c 24 38	 lea	 rcx, QWORD PTR $T3[rsp]
  000a6	e8 00 00 00 00	 call	 _CxxThrowException
$LN34@Osfx:

; 295  : 		else if (_Mystate & _Except & failbit)

  000ab	a8 02		 test	 al, 2
  000ad	74 2a		 je	 SHORT $LN36@Osfx

; 296  : 			_THROW_NCEE(failure, "ios_base::failbit set");

  000af	e8 00 00 00 00	 call	 ?make_error_code@std@@YA?AVerror_code@1@W4io_errc@1@@Z ; std::make_error_code
  000b4	4c 8b c0	 mov	 r8, rax
  000b7	48 8d 15 00 00
	00 00		 lea	 rdx, OFFSET FLAT:??_C@_0BG@FMKFHCIL@ios_base?3?3failbit?5set?$AA@
  000be	48 8d 4c 24 60	 lea	 rcx, QWORD PTR $T4[rsp]
  000c3	e8 00 00 00 00	 call	 ??0failure@ios_base@std@@QEAA@PEBDAEBVerror_code@2@@Z ; std::ios_base::failure::failure
  000c8	48 8d 15 00 00
	00 00		 lea	 rdx, OFFSET FLAT:_TI5?AVfailure@ios_base@std@@
  000cf	48 8d 4c 24 60	 lea	 rcx, QWORD PTR $T4[rsp]
  000d4	e8 00 00 00 00	 call	 _CxxThrowException
$LN36@Osfx:

; 297  : 		else
; 298  : 			_THROW_NCEE(failure, "ios_base::eofbit set");

  000d9	e8 00 00 00 00	 call	 ?make_error_code@std@@YA?AVerror_code@1@W4io_errc@1@@Z ; std::make_error_code
  000de	4c 8b c0	 mov	 r8, rax
  000e1	48 8d 15 00 00
	00 00		 lea	 rdx, OFFSET FLAT:??_C@_0BF@OOHOMBOF@ios_base?3?3eofbit?5set?$AA@
  000e8	48 8d 8c 24 88
	00 00 00	 lea	 rcx, QWORD PTR $T5[rsp]
  000f0	e8 00 00 00 00	 call	 ??0failure@ios_base@std@@QEAA@PEBDAEBVerror_code@2@@Z ; std::ios_base::failure::failure
  000f5	48 8d 15 00 00
	00 00		 lea	 rdx, OFFSET FLAT:_TI5?AVfailure@ios_base@std@@
  000fc	48 8d 8c 24 88
	00 00 00	 lea	 rcx, QWORD PTR $T5[rsp]
  00104	e8 00 00 00 00	 call	 _CxxThrowException
  00109	90		 npad	 1
$LN37@Osfx:
$LN9@Osfx:
; File c:\users\alist_000\cppmisc\packages\visualcpptools.14.0.24629\lib\native\include\ostream

; 172  : 		}

  0010a	48 81 c4 b0 00
	00 00		 add	 rsp, 176		; 000000b0H
  00111	5b		 pop	 rbx
  00112	c3		 ret	 0
$LN42@Osfx:
?_Osfx@?$basic_ostream@DU?$char_traits@D@std@@@std@@QEAAXXZ ENDP ; std::basic_ostream<char,std::char_traits<char> >::_Osfx
_TEXT	ENDS
;	COMDAT text$x
text$x	SEGMENT
$T1 = 32
$T2 = 48
$T3 = 56
$T4 = 96
$T5 = 136
this$ = 192
?catch$0@?0??_Osfx@?$basic_ostream@DU?$char_traits@D@std@@@std@@QEAAXXZ@4HA PROC ; `std::basic_ostream<char,std::char_traits<char> >::_Osfx'::`1'::catch$0

; 170  : 		_CATCH_ALL

  00000	48 89 54 24 10	 mov	 QWORD PTR [rsp+16], rdx
  00005	55		 push	 rbp
  00006	48 83 ec 20	 sub	 rsp, 32			; 00000020H
  0000a	48 8b ea	 mov	 rbp, rdx
__catch$?_Osfx@?$basic_ostream@DU?$char_traits@D@std@@@std@@QEAAXXZ$0:

; 170  : 		_CATCH_ALL
; 171  : 		_CATCH_END

  0000d	48 8d 05 00 00
	00 00		 lea	 rax, $LN9@catch$0
  00014	48 83 c4 20	 add	 rsp, 32			; 00000020H
  00018	5d		 pop	 rbp
  00019	c3		 ret	 0
  0001a	cc		 int	 3
?catch$0@?0??_Osfx@?$basic_ostream@DU?$char_traits@D@std@@@std@@QEAAXXZ@4HA ENDP ; `std::basic_ostream<char,std::char_traits<char> >::_Osfx'::`1'::catch$0
text$x	ENDS
; Function compile flags: /Ogtpy
;	COMDAT text$x
text$x	SEGMENT
$T1 = 32
$T2 = 48
$T3 = 56
$T4 = 96
$T5 = 136
this$ = 192
?catch$0@?0??_Osfx@?$basic_ostream@DU?$char_traits@D@std@@@std@@QEAAXXZ@4HA PROC ; `std::basic_ostream<char,std::char_traits<char> >::_Osfx'::`1'::catch$0

; 170  : 		_CATCH_ALL

  00000	48 89 54 24 10	 mov	 QWORD PTR [rsp+16], rdx
  00005	55		 push	 rbp
  00006	48 83 ec 20	 sub	 rsp, 32			; 00000020H
  0000a	48 8b ea	 mov	 rbp, rdx
__catch$?_Osfx@?$basic_ostream@DU?$char_traits@D@std@@@std@@QEAAXXZ$0:

; 171  : 		_CATCH_END

  0000d	48 8d 05 00 00
	00 00		 lea	 rax, $LN9@catch$0
  00014	48 83 c4 20	 add	 rsp, 32			; 00000020H
  00018	5d		 pop	 rbp
  00019	c3		 ret	 0
  0001a	cc		 int	 3
?catch$0@?0??_Osfx@?$basic_ostream@DU?$char_traits@D@std@@@std@@QEAAXXZ@4HA ENDP ; `std::basic_ostream<char,std::char_traits<char> >::_Osfx'::`1'::catch$0
text$x	ENDS
; Function compile flags: /Ogtpy
; File c:\users\alist_000\cppmisc\packages\visualcpptools.14.0.24629\lib\native\include\streambuf
;	COMDAT ?_Pnavail@?$basic_streambuf@DU?$char_traits@D@std@@@std@@IEBA_JXZ
_TEXT	SEGMENT
this$ = 8
?_Pnavail@?$basic_streambuf@DU?$char_traits@D@std@@@std@@IEBA_JXZ PROC ; std::basic_streambuf<char,std::char_traits<char> >::_Pnavail, COMDAT

; 314  : 		return (*_IPnext != 0 ? *_IPcount : 0);

  00000	48 8b 41 40	 mov	 rax, QWORD PTR [rcx+64]
  00004	48 83 38 00	 cmp	 QWORD PTR [rax], 0
  00008	74 08		 je	 SHORT $LN3@Pnavail
  0000a	48 8b 41 58	 mov	 rax, QWORD PTR [rcx+88]
  0000e	48 63 00	 movsxd	 rax, DWORD PTR [rax]

; 315  : 		}

  00011	c3		 ret	 0
$LN3@Pnavail:

; 314  : 		return (*_IPnext != 0 ? *_IPcount : 0);

  00012	33 c0		 xor	 eax, eax
  00014	48 98		 cdqe

; 315  : 		}

  00016	c3		 ret	 0
?_Pnavail@?$basic_streambuf@DU?$char_traits@D@std@@@std@@IEBA_JXZ ENDP ; std::basic_streambuf<char,std::char_traits<char> >::_Pnavail
_TEXT	ENDS
; Function compile flags: /Ogtpy
; File c:\users\alist_000\cppmisc\packages\visualcpptools.14.0.24629\lib\native\include\streambuf
;	COMDAT ?_Pninc@?$basic_streambuf@DU?$char_traits@D@std@@@std@@IEAAPEADXZ
_TEXT	SEGMENT
this$ = 8
?_Pninc@?$basic_streambuf@DU?$char_traits@D@std@@@std@@IEAAPEADXZ PROC ; std::basic_streambuf<char,std::char_traits<char> >::_Pninc, COMDAT

; 308  : 		--*_IPcount;

  00000	48 8b 41 58	 mov	 rax, QWORD PTR [rcx+88]
  00004	ff 08		 dec	 DWORD PTR [rax]

; 309  : 		return ((*_IPnext)++);

  00006	48 8b 51 40	 mov	 rdx, QWORD PTR [rcx+64]
  0000a	48 8b 02	 mov	 rax, QWORD PTR [rdx]
  0000d	48 8d 48 01	 lea	 rcx, QWORD PTR [rax+1]
  00011	48 89 0a	 mov	 QWORD PTR [rdx], rcx

; 310  : 		}

  00014	c3		 ret	 0
?_Pninc@?$basic_streambuf@DU?$char_traits@D@std@@@std@@IEAAPEADXZ ENDP ; std::basic_streambuf<char,std::char_traits<char> >::_Pninc
_TEXT	ENDS
; Function compile flags: /Ogtpy
; File c:\users\alist_000\cppmisc\packages\visualcpptools.14.0.24629\lib\native\include\streambuf
;	COMDAT ?pubsync@?$basic_streambuf@DU?$char_traits@D@std@@@std@@QEAAHXZ
_TEXT	SEGMENT
this$ = 8
?pubsync@?$basic_streambuf@DU?$char_traits@D@std@@@std@@QEAAHXZ PROC ; std::basic_streambuf<char,std::char_traits<char> >::pubsync, COMDAT

; 145  : 		return (sync());

  00000	48 8b 01	 mov	 rax, QWORD PTR [rcx]
  00003	48 ff 60 68	 rex_jmp QWORD PTR [rax+104]
?pubsync@?$basic_streambuf@DU?$char_traits@D@std@@@std@@QEAAHXZ ENDP ; std::basic_streambuf<char,std::char_traits<char> >::pubsync
_TEXT	ENDS
; Function compile flags: /Ogtpy
; File c:\users\alist_000\cppmisc\packages\visualcpptools.14.0.24629\lib\native\include\ios
;	COMDAT ?tie@?$basic_ios@DU?$char_traits@D@std@@@std@@QEBAPEAV?$basic_ostream@DU?$char_traits@D@std@@@2@XZ
_TEXT	SEGMENT
this$ = 8
?tie@?$basic_ios@DU?$char_traits@D@std@@@std@@QEBAPEAV?$basic_ostream@DU?$char_traits@D@std@@@2@XZ PROC ; std::basic_ios<char,std::char_traits<char> >::tie, COMDAT

; 80   : 		return (_Tiestr);

  00000	48 8b 41 50	 mov	 rax, QWORD PTR [rcx+80]

; 81   : 		}

  00004	c3		 ret	 0
?tie@?$basic_ios@DU?$char_traits@D@std@@@std@@QEBAPEAV?$basic_ostream@DU?$char_traits@D@std@@@2@XZ ENDP ; std::basic_ios<char,std::char_traits<char> >::tie
_TEXT	ENDS
; Function compile flags: /Ogtpy
; File c:\users\alist_000\cppmisc\packages\visualcpptools.14.0.24629\lib\native\include\ios
;	COMDAT ?clear@?$basic_ios@DU?$char_traits@D@std@@@std@@QEAAXH_N@Z
_TEXT	SEGMENT
this$ = 8
_State$ = 16
_Reraise$ = 24
?clear@?$basic_ios@DU?$char_traits@D@std@@@std@@QEAAXH_N@Z PROC ; std::basic_ios<char,std::char_traits<char> >::clear, COMDAT

; 44   : 		{	// set state, possibly reraise exception

  00000	8b c2		 mov	 eax, edx
  00002	83 ca 04	 or	 edx, 4
  00005	48 83 79 48 00	 cmp	 QWORD PTR [rcx+72], 0
  0000a	0f 45 d0	 cmovne	 edx, eax

; 45   : 		ios_base::clear((iostate)(_Mystrbuf == 0

  0000d	e9 00 00 00 00	 jmp	 ?clear@ios_base@std@@QEAAXH_N@Z ; std::ios_base::clear
?clear@?$basic_ios@DU?$char_traits@D@std@@@std@@QEAAXH_N@Z ENDP ; std::basic_ios<char,std::char_traits<char> >::clear
_TEXT	ENDS
; Function compile flags: /Ogtpy
; File c:\users\alist_000\cppmisc\packages\visualcpptools.14.0.24629\lib\native\include\xutility
;	COMDAT ?_Get_first@?$_Compressed_pair@U?$_Wrap_alloc@V?$allocator@D@std@@@std@@V?$_Vector_val@U?$_Simple_types@D@std@@@2@$00@std@@QEBAAEBU?$_Wrap_alloc@V?$allocator@D@std@@@2@XZ
_TEXT	SEGMENT
this$ = 8
?_Get_first@?$_Compressed_pair@U?$_Wrap_alloc@V?$allocator@D@std@@@std@@V?$_Vector_val@U?$_Simple_types@D@std@@@2@$00@std@@QEBAAEBU?$_Wrap_alloc@V?$allocator@D@std@@@2@XZ PROC ; std::_Compressed_pair<std::_Wrap_alloc<std::allocator<char> >,std::_Vector_val<std::_Simple_types<char> >,1>::_Get_first, COMDAT

; 314  : 		return (*this);

  00000	48 8b c1	 mov	 rax, rcx

; 315  : 		}

  00003	c3		 ret	 0
?_Get_first@?$_Compressed_pair@U?$_Wrap_alloc@V?$allocator@D@std@@@std@@V?$_Vector_val@U?$_Simple_types@D@std@@@2@$00@std@@QEBAAEBU?$_Wrap_alloc@V?$allocator@D@std@@@2@XZ ENDP ; std::_Compressed_pair<std::_Wrap_alloc<std::allocator<char> >,std::_Vector_val<std::_Simple_types<char> >,1>::_Get_first
_TEXT	ENDS
; Function compile flags: /Ogtpy
; File c:\users\alist_000\cppmisc\packages\visualcpptools.14.0.24629\lib\native\include\type_traits
;	COMDAT ??$forward@U?$_Wrap_alloc@V?$allocator@D@std@@@std@@@std@@YA$$QEAU?$_Wrap_alloc@V?$allocator@D@std@@@0@AEAU10@@Z
_TEXT	SEGMENT
_Arg$ = 8
??$forward@U?$_Wrap_alloc@V?$allocator@D@std@@@std@@@std@@YA$$QEAU?$_Wrap_alloc@V?$allocator@D@std@@@0@AEAU10@@Z PROC ; std::forward<std::_Wrap_alloc<std::allocator<char> > >, COMDAT

; 1330 : 	return (static_cast<_Ty&&>(_Arg));

  00000	48 8b c1	 mov	 rax, rcx

; 1331 : 	}

  00003	c3		 ret	 0
??$forward@U?$_Wrap_alloc@V?$allocator@D@std@@@std@@@std@@YA$$QEAU?$_Wrap_alloc@V?$allocator@D@std@@@0@AEAU10@@Z ENDP ; std::forward<std::_Wrap_alloc<std::allocator<char> > >
_TEXT	ENDS
; Function compile flags: /Ogtpy
; File c:\users\alist_000\cppmisc\packages\visualcpptools.14.0.24629\lib\native\include\xutility
; File c:\users\alist_000\cppmisc\packages\visualcpptools.14.0.24629\lib\native\include\vector
; File c:\users\alist_000\cppmisc\packages\visualcpptools.14.0.24629\lib\native\include\xutility
;	COMDAT ??$?0U?$_Wrap_alloc@V?$allocator@D@std@@@std@@$$V@?$_Compressed_pair@U?$_Wrap_alloc@V?$allocator@D@std@@@std@@V?$_Vector_val@U?$_Simple_types@D@std@@@2@$00@std@@QEAA@U_One_then_variadic_args_t@1@$$QEAU?$_Wrap_alloc@V?$allocator@D@std@@@1@@Z
_TEXT	SEGMENT
this$ = 8
__formal$dead$ = 16
_Val1$dead$ = 24
??$?0U?$_Wrap_alloc@V?$allocator@D@std@@@std@@$$V@?$_Compressed_pair@U?$_Wrap_alloc@V?$allocator@D@std@@@std@@V?$_Vector_val@U?$_Simple_types@D@std@@@2@$00@std@@QEAA@U_One_then_variadic_args_t@1@$$QEAU?$_Wrap_alloc@V?$allocator@D@std@@@1@@Z PROC ; std::_Compressed_pair<std::_Wrap_alloc<std::allocator<char> >,std::_Vector_val<std::_Simple_types<char> >,1>::_Compressed_pair<std::_Wrap_alloc<std::allocator<char> >,std::_Vector_val<std::_Simple_types<char> >,1><std::_Wrap_alloc<std::allocator<char> > >, COMDAT
; File c:\users\alist_000\cppmisc\packages\visualcpptools.14.0.24629\lib\native\include\vector

; 478  : 		: _Myfirst(),

  00000	33 c0		 xor	 eax, eax
  00002	48 89 01	 mov	 QWORD PTR [rcx], rax

; 479  : 		_Mylast(),

  00005	48 89 41 08	 mov	 QWORD PTR [rcx+8], rax

; 480  : 		_Myend()

  00009	48 89 41 10	 mov	 QWORD PTR [rcx+16], rax
; File c:\users\alist_000\cppmisc\packages\visualcpptools.14.0.24629\lib\native\include\xutility

; 304  : 		}

  0000d	48 8b c1	 mov	 rax, rcx
  00010	c3		 ret	 0
??$?0U?$_Wrap_alloc@V?$allocator@D@std@@@std@@$$V@?$_Compressed_pair@U?$_Wrap_alloc@V?$allocator@D@std@@@std@@V?$_Vector_val@U?$_Simple_types@D@std@@@2@$00@std@@QEAA@U_One_then_variadic_args_t@1@$$QEAU?$_Wrap_alloc@V?$allocator@D@std@@@1@@Z ENDP ; std::_Compressed_pair<std::_Wrap_alloc<std::allocator<char> >,std::_Vector_val<std::_Simple_types<char> >,1>::_Compressed_pair<std::_Wrap_alloc<std::allocator<char> >,std::_Vector_val<std::_Simple_types<char> >,1><std::_Wrap_alloc<std::allocator<char> > >
_TEXT	ENDS
; Function compile flags: /Ogtpy
; File c:\users\alist_000\cppmisc\packages\visualcpptools.14.0.24629\lib\native\include\xutility
; File c:\users\alist_000\cppmisc\packages\visualcpptools.14.0.24629\lib\native\include\xstring
; File c:\users\alist_000\cppmisc\packages\visualcpptools.14.0.24629\lib\native\include\xutility
;	COMDAT ??$?0U?$_Wrap_alloc@V?$allocator@D@std@@@std@@$$V@?$_Compressed_pair@U?$_Wrap_alloc@V?$allocator@D@std@@@std@@V?$_String_val@U?$_Simple_types@D@std@@@2@$00@std@@QEAA@U_One_then_variadic_args_t@1@$$QEAU?$_Wrap_alloc@V?$allocator@D@std@@@1@@Z
_TEXT	SEGMENT
this$ = 8
__formal$ = 16
_Val1$ = 24
??$?0U?$_Wrap_alloc@V?$allocator@D@std@@@std@@$$V@?$_Compressed_pair@U?$_Wrap_alloc@V?$allocator@D@std@@@std@@V?$_String_val@U?$_Simple_types@D@std@@@2@$00@std@@QEAA@U_One_then_variadic_args_t@1@$$QEAU?$_Wrap_alloc@V?$allocator@D@std@@@1@@Z PROC ; std::_Compressed_pair<std::_Wrap_alloc<std::allocator<char> >,std::_String_val<std::_Simple_types<char> >,1>::_Compressed_pair<std::_Wrap_alloc<std::allocator<char> >,std::_String_val<std::_Simple_types<char> >,1><std::_Wrap_alloc<std::allocator<char> > >, COMDAT
; File c:\users\alist_000\cppmisc\packages\visualcpptools.14.0.24629\lib\native\include\xstring

; 1606 : 		_Mysize(0),

  00000	33 c0		 xor	 eax, eax
  00002	48 89 41 10	 mov	 QWORD PTR [rcx+16], rax

; 1607 : 		_Myres(0)

  00006	48 89 41 18	 mov	 QWORD PTR [rcx+24], rax
; File c:\users\alist_000\cppmisc\packages\visualcpptools.14.0.24629\lib\native\include\xutility

; 304  : 		}

  0000a	48 8b c1	 mov	 rax, rcx
  0000d	c3		 ret	 0
??$?0U?$_Wrap_alloc@V?$allocator@D@std@@@std@@$$V@?$_Compressed_pair@U?$_Wrap_alloc@V?$allocator@D@std@@@std@@V?$_String_val@U?$_Simple_types@D@std@@@2@$00@std@@QEAA@U_One_then_variadic_args_t@1@$$QEAU?$_Wrap_alloc@V?$allocator@D@std@@@1@@Z ENDP ; std::_Compressed_pair<std::_Wrap_alloc<std::allocator<char> >,std::_String_val<std::_Simple_types<char> >,1>::_Compressed_pair<std::_Wrap_alloc<std::allocator<char> >,std::_String_val<std::_Simple_types<char> >,1><std::_Wrap_alloc<std::allocator<char> > >
_TEXT	ENDS
; Function compile flags: /Ogtpy
; File c:\users\alist_000\cppmisc\packages\visualcpptools.14.0.24629\lib\native\include\xmemory
;	COMDAT ??$_Uninitialized_default_fill_n1@PEAD_KV?$allocator@D@std@@@std@@YAPEADPEAD_KAEAU?$_Wrap_alloc@V?$allocator@D@std@@@0@U?$integral_constant@_N$00@0@@Z
_TEXT	SEGMENT
_First$ = 48
_Count$ = 56
__formal$dead$ = 64
__formal$dead$ = 72
??$_Uninitialized_default_fill_n1@PEAD_KV?$allocator@D@std@@@std@@YAPEADPEAD_KAEAU?$_Wrap_alloc@V?$allocator@D@std@@@0@U?$integral_constant@_N$00@0@@Z PROC ; std::_Uninitialized_default_fill_n1<char * __ptr64,unsigned __int64,std::allocator<char> >, COMDAT

; 475  : 	{	// value-initialize _Count objects to raw _First, using default _Alloc construct, all-bits-zero type

$LN4:
  00000	48 89 5c 24 08	 mov	 QWORD PTR [rsp+8], rbx
  00005	57		 push	 rdi
  00006	48 83 ec 20	 sub	 rsp, 32			; 00000020H
  0000a	48 8b fa	 mov	 rdi, rdx

; 476  : 	_CSTD memset(_First, 0, _Count * sizeof(_Iter_value_t<_FwdIt>));

  0000d	4c 8b c2	 mov	 r8, rdx
  00010	33 d2		 xor	 edx, edx
  00012	48 8b d9	 mov	 rbx, rcx
  00015	e8 00 00 00 00	 call	 memset

; 477  : 	return (_First + _Count);

  0001a	48 8d 04 3b	 lea	 rax, QWORD PTR [rbx+rdi]

; 478  : 	}

  0001e	48 8b 5c 24 30	 mov	 rbx, QWORD PTR [rsp+48]
  00023	48 83 c4 20	 add	 rsp, 32			; 00000020H
  00027	5f		 pop	 rdi
  00028	c3		 ret	 0
??$_Uninitialized_default_fill_n1@PEAD_KV?$allocator@D@std@@@std@@YAPEADPEAD_KAEAU?$_Wrap_alloc@V?$allocator@D@std@@@0@U?$integral_constant@_N$00@0@@Z ENDP ; std::_Uninitialized_default_fill_n1<char * __ptr64,unsigned __int64,std::allocator<char> >
_TEXT	ENDS
; Function compile flags: /Ogtpy
; File c:\users\alist_000\cppmisc\packages\visualcpptools.14.0.24629\lib\native\include\type_traits
;	COMDAT ??$forward@V?$allocator@D@std@@@std@@YA$$QEAV?$allocator@D@0@AEAV10@@Z
_TEXT	SEGMENT
_Arg$ = 8
??$forward@V?$allocator@D@std@@@std@@YA$$QEAV?$allocator@D@0@AEAV10@@Z PROC ; std::forward<std::allocator<char> >, COMDAT

; 1330 : 	return (static_cast<_Ty&&>(_Arg));

  00000	48 8b c1	 mov	 rax, rcx

; 1331 : 	}

  00003	c3		 ret	 0
??$forward@V?$allocator@D@std@@@std@@YA$$QEAV?$allocator@D@0@AEAV10@@Z ENDP ; std::forward<std::allocator<char> >
_TEXT	ENDS
; Function compile flags: /Ogtpy
; File c:\users\alist_000\cppmisc\packages\visualcpptools.14.0.24629\lib\native\include\xmemory0
;	COMDAT ??$destroy@PEAD@?$allocator_traits@V?$allocator@D@std@@@std@@SAXAEAV?$allocator@D@1@PEAPEAD@Z
_TEXT	SEGMENT
_Al$ = 8
_Ptr$ = 16
??$destroy@PEAD@?$allocator_traits@V?$allocator@D@std@@@std@@SAXAEAV?$allocator@D@1@PEAPEAD@Z PROC ; std::allocator_traits<std::allocator<char> >::destroy<char * __ptr64>, COMDAT

; 958  : 		_Al.destroy(_Ptr);
; 959  : 		}

  00000	c2 00 00	 ret	 0
??$destroy@PEAD@?$allocator_traits@V?$allocator@D@std@@@std@@SAXAEAV?$allocator@D@1@PEAPEAD@Z ENDP ; std::allocator_traits<std::allocator<char> >::destroy<char * __ptr64>
_TEXT	ENDS
; Function compile flags: /Ogtpy
; File c:\users\alist_000\cppmisc\packages\visualcpptools.14.0.24629\lib\native\include\type_traits
;	COMDAT ??$forward@AEAPEAD@std@@YAAEAPEADAEAPEAD@Z
_TEXT	SEGMENT
_Arg$ = 8
??$forward@AEAPEAD@std@@YAAEAPEADAEAPEAD@Z PROC		; std::forward<char * __ptr64 & __ptr64>, COMDAT

; 1330 : 	return (static_cast<_Ty&&>(_Arg));

  00000	48 8b c1	 mov	 rax, rcx

; 1331 : 	}

  00003	c3		 ret	 0
??$forward@AEAPEAD@std@@YAAEAPEADAEAPEAD@Z ENDP		; std::forward<char * __ptr64 & __ptr64>
_TEXT	ENDS
; Function compile flags: /Ogtpy
; File c:\users\alist_000\cppmisc\packages\visualcpptools.14.0.24629\lib\native\include\xmemory0
;	COMDAT ??$construct@PEADAEAPEAD@?$allocator_traits@V?$allocator@D@std@@@std@@SAXAEAV?$allocator@D@1@PEAPEADAEAPEAD@Z
_TEXT	SEGMENT
_Al$ = 8
_Ptr$ = 16
<_Args_0>$ = 24
??$construct@PEADAEAPEAD@?$allocator_traits@V?$allocator@D@std@@@std@@SAXAEAV?$allocator@D@1@PEAPEADAEAPEAD@Z PROC ; std::allocator_traits<std::allocator<char> >::construct<char * __ptr64,char * __ptr64 & __ptr64>, COMDAT

; 833  : 		::new ((void *)_Ptr) _Objty(_STD forward<_Types>(_Args)...);

  00000	48 85 d2	 test	 rdx, rdx
  00003	74 06		 je	 SHORT $LN8@construct
  00005	49 8b 00	 mov	 rax, QWORD PTR [r8]
  00008	48 89 02	 mov	 QWORD PTR [rdx], rax
$LN8@construct:

; 952  : 		_Al.construct(_Ptr, _STD forward<_Types>(_Args)...);
; 953  : 		}

  0000b	c3		 ret	 0
??$construct@PEADAEAPEAD@?$allocator_traits@V?$allocator@D@std@@@std@@SAXAEAV?$allocator@D@1@PEAPEADAEAPEAD@Z ENDP ; std::allocator_traits<std::allocator<char> >::construct<char * __ptr64,char * __ptr64 & __ptr64>
_TEXT	ENDS
; Function compile flags: /Ogtpy
; File c:\users\alist_000\cppmisc\packages\visualcpptools.14.0.24629\lib\native\include\xmemory0
;	COMDAT ??$_Destroy_range1@V?$allocator@D@std@@PEAD@std@@YAXPEAD0AEAU?$_Wrap_alloc@V?$allocator@D@std@@@0@U?$integral_constant@_N$00@0@@Z
_TEXT	SEGMENT
__formal$dead$ = 8
__formal$dead$ = 16
__formal$dead$ = 24
__formal$dead$ = 32
??$_Destroy_range1@V?$allocator@D@std@@PEAD@std@@YAXPEAD0AEAU?$_Wrap_alloc@V?$allocator@D@std@@@0@U?$integral_constant@_N$00@0@@Z PROC ; std::_Destroy_range1<std::allocator<char>,char * __ptr64>, COMDAT

; 1201 : 		// nothing to do
; 1202 : 	}

  00000	c2 00 00	 ret	 0
??$_Destroy_range1@V?$allocator@D@std@@PEAD@std@@YAXPEAD0AEAU?$_Wrap_alloc@V?$allocator@D@std@@@0@U?$integral_constant@_N$00@0@@Z ENDP ; std::_Destroy_range1<std::allocator<char>,char * __ptr64>
_TEXT	ENDS
; Function compile flags: /Ogtpy
; File c:\users\alist_000\cppmisc\packages\visualcpptools.14.0.24629\lib\native\include\xmemory
; File c:\users\alist_000\cppmisc\packages\visualcpptools.14.0.24629\lib\native\include\xutility
; File c:\users\alist_000\cppmisc\packages\visualcpptools.14.0.24629\lib\native\include\xmemory
;	COMDAT ??$_Uninitialized_move@PEADPEADV?$allocator@D@std@@@std@@YAPEADPEAD00AEAU?$_Wrap_alloc@V?$allocator@D@std@@@0@@Z
_TEXT	SEGMENT
_First$ = 48
_Last$ = 56
_Dest$ = 64
_Al$dead$ = 72
??$_Uninitialized_move@PEADPEADV?$allocator@D@std@@@std@@YAPEADPEAD00AEAU?$_Wrap_alloc@V?$allocator@D@std@@@0@@Z PROC ; std::_Uninitialized_move<char * __ptr64,char * __ptr64,std::allocator<char> >, COMDAT

; 312  : 	{	// move [_First, _Last) to raw _Dest, using _Al

$LN20:
  00000	48 89 5c 24 08	 mov	 QWORD PTR [rsp+8], rbx
  00005	57		 push	 rdi
  00006	48 83 ec 20	 sub	 rsp, 32			; 00000020H
  0000a	48 8b da	 mov	 rbx, rdx
  0000d	49 8b f8	 mov	 rdi, r8
; File c:\users\alist_000\cppmisc\packages\visualcpptools.14.0.24629\lib\native\include\xutility

; 2232 : 	const size_t _Count = _Last_ch - _First_ch;

  00010	48 2b d9	 sub	 rbx, rcx

; 2233 : 	_CSTD memmove(_Dest_ch, _First_ch, _Count);

  00013	48 8b d1	 mov	 rdx, rcx
  00016	4c 8b c3	 mov	 r8, rbx
  00019	48 8b cf	 mov	 rcx, rdi
  0001c	e8 00 00 00 00	 call	 memmove

; 2234 : 	return (reinterpret_cast<_OutIt>(_Dest_ch + _Count));

  00021	48 8d 04 3b	 lea	 rax, QWORD PTR [rbx+rdi]
; File c:\users\alist_000\cppmisc\packages\visualcpptools.14.0.24629\lib\native\include\xmemory

; 318  : 	}

  00025	48 8b 5c 24 30	 mov	 rbx, QWORD PTR [rsp+48]
  0002a	48 83 c4 20	 add	 rsp, 32			; 00000020H
  0002e	5f		 pop	 rdi
  0002f	c3		 ret	 0
??$_Uninitialized_move@PEADPEADV?$allocator@D@std@@@std@@YAPEADPEAD00AEAU?$_Wrap_alloc@V?$allocator@D@std@@@0@@Z ENDP ; std::_Uninitialized_move<char * __ptr64,char * __ptr64,std::allocator<char> >
_TEXT	ENDS
; Function compile flags: /Ogtpy
; File c:\users\alist_000\cppmisc\packages\visualcpptools.14.0.24629\lib\native\include\xmemory0
;	COMDAT ??0?$_Wrap_alloc@V?$allocator@D@std@@@std@@QEAA@$$QEAU01@@Z
_TEXT	SEGMENT
this$ = 8
_Right$ = 16
??0?$_Wrap_alloc@V?$allocator@D@std@@@std@@QEAA@$$QEAU01@@Z PROC ; std::_Wrap_alloc<std::allocator<char> >::_Wrap_alloc<std::allocator<char> >, COMDAT

; 1041 : 		}

  00000	48 8b c1	 mov	 rax, rcx
  00003	c3		 ret	 0
??0?$_Wrap_alloc@V?$allocator@D@std@@@std@@QEAA@$$QEAU01@@Z ENDP ; std::_Wrap_alloc<std::allocator<char> >::_Wrap_alloc<std::allocator<char> >
_TEXT	ENDS
; Function compile flags: /Ogtpy
; File c:\users\alist_000\cppmisc\packages\visualcpptools.14.0.24629\lib\native\include\xmemory0
;	COMDAT ??$destroy@PEAD@?$allocator@D@std@@QEAAXPEAPEAD@Z
_TEXT	SEGMENT
this$ = 8
_Ptr$ = 16
??$destroy@PEAD@?$allocator@D@std@@QEAAXPEAPEAD@Z PROC	; std::allocator<char>::destroy<char * __ptr64>, COMDAT

; 839  : 		_Ptr->~_Uty();
; 840  : 		}

  00000	c2 00 00	 ret	 0
??$destroy@PEAD@?$allocator@D@std@@QEAAXPEAPEAD@Z ENDP	; std::allocator<char>::destroy<char * __ptr64>
_TEXT	ENDS
; Function compile flags: /Ogtpy
; File c:\users\alist_000\cppmisc\packages\visualcpptools.14.0.24629\lib\native\include\xmemory0
;	COMDAT ??$construct@PEADAEAPEAD@?$allocator@D@std@@QEAAXPEAPEADAEAPEAD@Z
_TEXT	SEGMENT
this$ = 8
_Ptr$ = 16
<_Args_0>$ = 24
??$construct@PEADAEAPEAD@?$allocator@D@std@@QEAAXPEAPEADAEAPEAD@Z PROC ; std::allocator<char>::construct<char * __ptr64,char * __ptr64 & __ptr64>, COMDAT

; 833  : 		::new ((void *)_Ptr) _Objty(_STD forward<_Types>(_Args)...);

  00000	48 85 d2	 test	 rdx, rdx
  00003	74 06		 je	 SHORT $LN3@construct
  00005	49 8b 00	 mov	 rax, QWORD PTR [r8]
  00008	48 89 02	 mov	 QWORD PTR [rdx], rax
$LN3@construct:

; 834  : 		}

  0000b	c3		 ret	 0
??$construct@PEADAEAPEAD@?$allocator@D@std@@QEAAXPEAPEADAEAPEAD@Z ENDP ; std::allocator<char>::construct<char * __ptr64,char * __ptr64 & __ptr64>
_TEXT	ENDS
; Function compile flags: /Ogtpy
; File c:\users\alist_000\cppmisc\packages\visualcpptools.14.0.24629\lib\native\include\xutility
;	COMDAT ??$_Unchecked@PEAD@std@@YAPEADPEAD@Z
_TEXT	SEGMENT
_Src$ = 8
??$_Unchecked@PEAD@std@@YAPEADPEAD@Z PROC		; std::_Unchecked<char * __ptr64>, COMDAT

; 442  : 	return (_Src);

  00000	48 8b c1	 mov	 rax, rcx

; 443  : 	}

  00003	c3		 ret	 0
??$_Unchecked@PEAD@std@@YAPEADPEAD@Z ENDP		; std::_Unchecked<char * __ptr64>
_TEXT	ENDS
; Function compile flags: /Ogtpy
; File c:\users\alist_000\cppmisc\packages\visualcpptools.14.0.24629\lib\native\include\xmemory
; File c:\users\alist_000\cppmisc\packages\visualcpptools.14.0.24629\lib\native\include\xutility
; File c:\users\alist_000\cppmisc\packages\visualcpptools.14.0.24629\lib\native\include\xmemory
;	COMDAT ??$_Uninitialized_move_al_unchecked@PEADPEADV?$allocator@D@std@@@std@@YAPEADPEAD00AEAU?$_Wrap_alloc@V?$allocator@D@std@@@0@@Z
_TEXT	SEGMENT
_First$ = 48
_Last$ = 56
_Dest$ = 64
_Al$dead$ = 72
??$_Uninitialized_move_al_unchecked@PEADPEADV?$allocator@D@std@@@std@@YAPEADPEAD00AEAU?$_Wrap_alloc@V?$allocator@D@std@@@0@@Z PROC ; std::_Uninitialized_move_al_unchecked<char * __ptr64,char * __ptr64,std::allocator<char> >, COMDAT

; 301  : 	{	// move [_First, _Last) to raw _Dest, using _Al, choose optimization

$LN10:
  00000	48 89 5c 24 08	 mov	 QWORD PTR [rsp+8], rbx
  00005	57		 push	 rdi
  00006	48 83 ec 20	 sub	 rsp, 32			; 00000020H
  0000a	48 8b da	 mov	 rbx, rdx
  0000d	49 8b f8	 mov	 rdi, r8
; File c:\users\alist_000\cppmisc\packages\visualcpptools.14.0.24629\lib\native\include\xutility

; 2232 : 	const size_t _Count = _Last_ch - _First_ch;

  00010	48 2b d9	 sub	 rbx, rcx

; 2233 : 	_CSTD memmove(_Dest_ch, _First_ch, _Count);

  00013	48 8b d1	 mov	 rdx, rcx
  00016	4c 8b c3	 mov	 r8, rbx
  00019	48 8b cf	 mov	 rcx, rdi
  0001c	e8 00 00 00 00	 call	 memmove

; 2234 : 	return (reinterpret_cast<_OutIt>(_Dest_ch + _Count));

  00021	48 8d 04 3b	 lea	 rax, QWORD PTR [rbx+rdi]
; File c:\users\alist_000\cppmisc\packages\visualcpptools.14.0.24629\lib\native\include\xmemory

; 305  : 	}

  00025	48 8b 5c 24 30	 mov	 rbx, QWORD PTR [rsp+48]
  0002a	48 83 c4 20	 add	 rsp, 32			; 00000020H
  0002e	5f		 pop	 rdi
  0002f	c3		 ret	 0
??$_Uninitialized_move_al_unchecked@PEADPEADV?$allocator@D@std@@@std@@YAPEADPEAD00AEAU?$_Wrap_alloc@V?$allocator@D@std@@@0@@Z ENDP ; std::_Uninitialized_move_al_unchecked<char * __ptr64,char * __ptr64,std::allocator<char> >
_TEXT	ENDS
; Function compile flags: /Ogtpy
; File c:\users\alist_000\cppmisc\packages\visualcpptools.14.0.24629\lib\native\include\xutility
;	COMDAT ??$_Rechecked@PEADPEAD@std@@YAAEAPEADAEAPEADPEAD@Z
_TEXT	SEGMENT
_Dest$ = 8
_Src$ = 16
??$_Rechecked@PEADPEAD@std@@YAAEAPEADAEAPEADPEAD@Z PROC	; std::_Rechecked<char * __ptr64,char * __ptr64>, COMDAT

; 472  : 	_Dest = _Src;

  00000	48 89 11	 mov	 QWORD PTR [rcx], rdx

; 473  : 	return (_Dest);

  00003	48 8b c1	 mov	 rax, rcx

; 474  : 	}

  00006	c3		 ret	 0
??$_Rechecked@PEADPEAD@std@@YAAEAPEADAEAPEADPEAD@Z ENDP	; std::_Rechecked<char * __ptr64,char * __ptr64>
_TEXT	ENDS
; Function compile flags: /Ogtpy
; File c:\users\alist_000\cppmisc\packages\visualcpptools.14.0.24629\lib\native\include\xutility
;	COMDAT ??$_Ptr_move_cat@DD@std@@YA?AU_Really_trivial_ptr_iterator_tag@0@AEBQEAD0@Z
_TEXT	SEGMENT
__$ReturnUdt$ = 8
__formal$dead$ = 16
__formal$dead$ = 24
??$_Ptr_move_cat@DD@std@@YA?AU_Really_trivial_ptr_iterator_tag@0@AEBQEAD0@Z PROC ; std::_Ptr_move_cat<char,char>, COMDAT

; 824  : 	return {};

  00000	48 8b c1	 mov	 rax, rcx

; 825  : 	}

  00003	c3		 ret	 0
??$_Ptr_move_cat@DD@std@@YA?AU_Really_trivial_ptr_iterator_tag@0@AEBQEAD0@Z ENDP ; std::_Ptr_move_cat<char,char>
_TEXT	ENDS
; Function compile flags: /Ogtpy
; File c:\users\alist_000\cppmisc\packages\visualcpptools.14.0.24629\lib\native\include\xmemory
; File c:\users\alist_000\cppmisc\packages\visualcpptools.14.0.24629\lib\native\include\xutility
; File c:\users\alist_000\cppmisc\packages\visualcpptools.14.0.24629\lib\native\include\xmemory
;	COMDAT ??$_Uninitialized_move_al_unchecked1@DDV?$allocator@D@std@@@std@@YAPEADPEAD00AEAU?$_Wrap_alloc@V?$allocator@D@std@@@0@U_Really_trivial_ptr_iterator_tag@0@U?$integral_constant@_N$00@0@@Z
_TEXT	SEGMENT
_First$ = 48
_Last$ = 56
_Dest$ = 64
__formal$dead$ = 72
__formal$dead$ = 80
__formal$dead$ = 88
??$_Uninitialized_move_al_unchecked1@DDV?$allocator@D@std@@@std@@YAPEADPEAD00AEAU?$_Wrap_alloc@V?$allocator@D@std@@@0@U_Really_trivial_ptr_iterator_tag@0@U?$integral_constant@_N$00@0@@Z PROC ; std::_Uninitialized_move_al_unchecked1<char,char,std::allocator<char> >, COMDAT

; 292  : 	{	// move [_First, _Last) to raw _Dest, using default _Alloc construct, memmove optimization

$LN6:
  00000	48 89 5c 24 08	 mov	 QWORD PTR [rsp+8], rbx
  00005	57		 push	 rdi
  00006	48 83 ec 20	 sub	 rsp, 32			; 00000020H
  0000a	48 8b da	 mov	 rbx, rdx
  0000d	49 8b f8	 mov	 rdi, r8
; File c:\users\alist_000\cppmisc\packages\visualcpptools.14.0.24629\lib\native\include\xutility

; 2232 : 	const size_t _Count = _Last_ch - _First_ch;

  00010	48 2b d9	 sub	 rbx, rcx

; 2233 : 	_CSTD memmove(_Dest_ch, _First_ch, _Count);

  00013	48 8b d1	 mov	 rdx, rcx
  00016	4c 8b c3	 mov	 r8, rbx
  00019	48 8b cf	 mov	 rcx, rdi
  0001c	e8 00 00 00 00	 call	 memmove

; 2234 : 	return (reinterpret_cast<_OutIt>(_Dest_ch + _Count));

  00021	48 8d 04 3b	 lea	 rax, QWORD PTR [rbx+rdi]
; File c:\users\alist_000\cppmisc\packages\visualcpptools.14.0.24629\lib\native\include\xmemory

; 294  : 	}

  00025	48 8b 5c 24 30	 mov	 rbx, QWORD PTR [rsp+48]
  0002a	48 83 c4 20	 add	 rsp, 32			; 00000020H
  0002e	5f		 pop	 rdi
  0002f	c3		 ret	 0
??$_Uninitialized_move_al_unchecked1@DDV?$allocator@D@std@@@std@@YAPEADPEAD00AEAU?$_Wrap_alloc@V?$allocator@D@std@@@0@U_Really_trivial_ptr_iterator_tag@0@U?$integral_constant@_N$00@0@@Z ENDP ; std::_Uninitialized_move_al_unchecked1<char,char,std::allocator<char> >
_TEXT	ENDS
; Function compile flags: /Ogtpy
; File c:\users\alist_000\cppmisc\packages\visualcpptools.14.0.24629\lib\native\include\xutility
;	COMDAT ??$_Copy_memmove@PEADPEAD@std@@YAPEADPEAD00@Z
_TEXT	SEGMENT
_First$ = 48
_Last$ = 56
_Dest$ = 64
??$_Copy_memmove@PEADPEAD@std@@YAPEADPEAD00@Z PROC	; std::_Copy_memmove<char * __ptr64,char * __ptr64>, COMDAT

; 2228 : 	{	// implement copy-like function as memmove

$LN4:
  00000	48 89 5c 24 08	 mov	 QWORD PTR [rsp+8], rbx
  00005	57		 push	 rdi
  00006	48 83 ec 20	 sub	 rsp, 32			; 00000020H
  0000a	48 8b da	 mov	 rbx, rdx
  0000d	49 8b f8	 mov	 rdi, r8

; 2229 : 	const char * const _First_ch = reinterpret_cast<const char *>(_First);
; 2230 : 	const char * const _Last_ch = reinterpret_cast<const char *>(_Last);
; 2231 : 	char * const _Dest_ch = reinterpret_cast<char *>(_Dest);
; 2232 : 	const size_t _Count = _Last_ch - _First_ch;

  00010	48 2b d9	 sub	 rbx, rcx

; 2233 : 	_CSTD memmove(_Dest_ch, _First_ch, _Count);

  00013	48 8b d1	 mov	 rdx, rcx
  00016	4c 8b c3	 mov	 r8, rbx
  00019	48 8b cf	 mov	 rcx, rdi
  0001c	e8 00 00 00 00	 call	 memmove

; 2234 : 	return (reinterpret_cast<_OutIt>(_Dest_ch + _Count));

  00021	48 8d 04 3b	 lea	 rax, QWORD PTR [rbx+rdi]

; 2235 : 	}

  00025	48 8b 5c 24 30	 mov	 rbx, QWORD PTR [rsp+48]
  0002a	48 83 c4 20	 add	 rsp, 32			; 00000020H
  0002e	5f		 pop	 rdi
  0002f	c3		 ret	 0
??$_Copy_memmove@PEADPEAD@std@@YAPEADPEAD00@Z ENDP	; std::_Copy_memmove<char * __ptr64,char * __ptr64>
_TEXT	ENDS
END
