; Listing generated by Microsoft (R) Optimizing Compiler Version 19.10.24629.0 

include listing.inc


PUBLIC	??_C@_0BC@EOODALEL@Unknown?5exception?$AA@	; `string'
PUBLIC	??_C@_02LMMGGCAJ@?3?5?$AA@			; `string'
PUBLIC	??_C@_07DCLBNMLN@generic?$AA@			; `string'
PUBLIC	??_C@_08LLGCOLLL@iostream?$AA@			; `string'
PUBLIC	??_C@_0BG@PADBLCHM@iostream?5stream?5error?$AA@	; `string'
PUBLIC	??_C@_0BF@PHHKMMFD@ios_base?3?3badbit?5set?$AA@	; `string'
PUBLIC	??_C@_0BG@FMKFHCIL@ios_base?3?3failbit?5set?$AA@ ; `string'
PUBLIC	??_C@_0BF@OOHOMBOF@ios_base?3?3eofbit?5set?$AA@	; `string'
PUBLIC	??_C@_0BD@OLBABOEK@vector?$DMT?$DO?5too?5long?$AA@ ; `string'
PUBLIC	??_C@_0BA@JFNIOLAK@string?5too?5long?$AA@	; `string'
PUBLIC	??_C@_0BI@CFPLBAOH@invalid?5string?5position?$AA@ ; `string'
PUBLIC	??_R0?AVfailure@ios_base@std@@@8		; std::ios_base::failure `RTTI Type Descriptor'
PUBLIC	??_R0?AVruntime_error@std@@@8			; std::runtime_error `RTTI Type Descriptor'
PUBLIC	??_R4exception@std@@6B@				; std::exception::`RTTI Complete Object Locator'
PUBLIC	??_R2system_error@std@@8			; std::system_error::`RTTI Base Class Array'
PUBLIC	??_R1A@?0A@EA@system_error@std@@8		; std::system_error::`RTTI Base Class Descriptor at (0,-1,0,64)'
PUBLIC	??_R1A@?0A@EA@_Iostream_error_category@std@@8	; std::_Iostream_error_category::`RTTI Base Class Descriptor at (0,-1,0,64)'
PUBLIC	_CT??_R0?AVexception@std@@@824
PUBLIC	??_7error_category@std@@6B@			; std::error_category::`vftable'
PUBLIC	??_R4runtime_error@std@@6B@			; std::runtime_error::`RTTI Complete Object Locator'
PUBLIC	??_R4_System_error@std@@6B@			; std::_System_error::`RTTI Complete Object Locator'
PUBLIC	??_R4_Generic_error_category@std@@6B@		; std::_Generic_error_category::`RTTI Complete Object Locator'
PUBLIC	??_7_Generic_error_category@std@@6B@		; std::_Generic_error_category::`vftable'
PUBLIC	_CT??_R0?AVfailure@ios_base@std@@@840
PUBLIC	??_7_Iostream_error_category@std@@6B@		; std::_Iostream_error_category::`vftable'
PUBLIC	??_R0?AVerror_category@std@@@8			; std::error_category `RTTI Type Descriptor'
PUBLIC	??_R1A@?0A@EA@runtime_error@std@@8		; std::runtime_error::`RTTI Base Class Descriptor at (0,-1,0,64)'
PUBLIC	??_R2_System_error@std@@8			; std::_System_error::`RTTI Base Class Array'
PUBLIC	??_R0?AVsystem_error@std@@@8			; std::system_error `RTTI Type Descriptor'
PUBLIC	??_R1A@?0A@EA@exception@std@@8			; std::exception::`RTTI Base Class Descriptor at (0,-1,0,64)'
PUBLIC	??_R4_Iostream_error_category@std@@6B@		; std::_Iostream_error_category::`RTTI Complete Object Locator'
PUBLIC	??_R1A@?0A@EA@_Pad@std@@8			; std::_Pad::`RTTI Base Class Descriptor at (0,-1,0,64)'
PUBLIC	??_R4system_error@std@@6B@			; std::system_error::`RTTI Complete Object Locator'
PUBLIC	??_R1A@?0A@EA@_Generic_error_category@std@@8	; std::_Generic_error_category::`RTTI Base Class Descriptor at (0,-1,0,64)'
PUBLIC	??_R3_System_error@std@@8			; std::_System_error::`RTTI Class Hierarchy Descriptor'
PUBLIC	??_R0?AV_Generic_error_category@std@@@8		; std::_Generic_error_category `RTTI Type Descriptor'
PUBLIC	??_R3_Iostream_error_category@std@@8		; std::_Iostream_error_category::`RTTI Class Hierarchy Descriptor'
PUBLIC	??_R2exception@std@@8				; std::exception::`RTTI Base Class Array'
PUBLIC	??_R4failure@ios_base@std@@6B@			; std::ios_base::failure::`RTTI Complete Object Locator'
PUBLIC	??_7_Pad@std@@6B@				; std::_Pad::`vftable'
PUBLIC	??_R3_Generic_error_category@std@@8		; std::_Generic_error_category::`RTTI Class Hierarchy Descriptor'
PUBLIC	??_R2_Iostream_error_category@std@@8		; std::_Iostream_error_category::`RTTI Base Class Array'
PUBLIC	_CT??_R0?AVruntime_error@std@@@824
PUBLIC	??_R2error_category@std@@8			; std::error_category::`RTTI Base Class Array'
PUBLIC	??_R0?AV_Iostream_error_category@std@@@8	; std::_Iostream_error_category `RTTI Type Descriptor'
PUBLIC	??_R2failure@ios_base@std@@8			; std::ios_base::failure::`RTTI Base Class Array'
PUBLIC	??_R4error_category@std@@6B@			; std::error_category::`RTTI Complete Object Locator'
PUBLIC	??_R3failure@ios_base@std@@8			; std::ios_base::failure::`RTTI Class Hierarchy Descriptor'
PUBLIC	??_7exception@std@@6B@				; std::exception::`vftable'
PUBLIC	_CTA5?AVfailure@ios_base@std@@
PUBLIC	??_R3exception@std@@8				; std::exception::`RTTI Class Hierarchy Descriptor'
PUBLIC	??_7runtime_error@std@@6B@			; std::runtime_error::`vftable'
PUBLIC	??_7_System_error@std@@6B@			; std::_System_error::`vftable'
PUBLIC	??_R1A@?0A@EA@failure@ios_base@std@@8		; std::ios_base::failure::`RTTI Base Class Descriptor at (0,-1,0,64)'
PUBLIC	?npos@?$basic_string@DU?$char_traits@D@std@@V?$allocator@D@2@@std@@2_KB ; std::basic_string<char,std::char_traits<char>,std::allocator<char> >::npos
PUBLIC	??_R2_Generic_error_category@std@@8		; std::_Generic_error_category::`RTTI Base Class Array'
PUBLIC	??_R1A@?0A@EA@_System_error@std@@8		; std::_System_error::`RTTI Base Class Descriptor at (0,-1,0,64)'
PUBLIC	??_R3error_category@std@@8			; std::error_category::`RTTI Class Hierarchy Descriptor'
PUBLIC	??_R0?AV_Pad@std@@@8				; std::_Pad `RTTI Type Descriptor'
PUBLIC	??_R4_Pad@std@@6B@				; std::_Pad::`RTTI Complete Object Locator'
PUBLIC	??_R3_Pad@std@@8				; std::_Pad::`RTTI Class Hierarchy Descriptor'
PUBLIC	??_R2runtime_error@std@@8			; std::runtime_error::`RTTI Base Class Array'
PUBLIC	_CT??_R0?AV_System_error@std@@@840
PUBLIC	_CT??_R0?AVsystem_error@std@@@840
PUBLIC	??_R0?AV_System_error@std@@@8			; std::_System_error `RTTI Type Descriptor'
PUBLIC	_TI5?AVfailure@ios_base@std@@
PUBLIC	??_R2_Pad@std@@8				; std::_Pad::`RTTI Base Class Array'
PUBLIC	??_R3system_error@std@@8			; std::system_error::`RTTI Class Hierarchy Descriptor'
PUBLIC	??_R0?AVexception@std@@@8			; std::exception `RTTI Type Descriptor'
PUBLIC	??_7system_error@std@@6B@			; std::system_error::`vftable'
PUBLIC	??_R3runtime_error@std@@8			; std::runtime_error::`RTTI Class Hierarchy Descriptor'
PUBLIC	??_7failure@ios_base@std@@6B@			; std::ios_base::failure::`vftable'
PUBLIC	??_R1A@?0A@EA@error_category@std@@8		; std::error_category::`RTTI Base Class Descriptor at (0,-1,0,64)'
EXTRN	_invalid_parameter_noinfo_noreturn:PROC
EXTRN	_Mtx_unlock:PROC
EXTRN	_Thrd_join:PROC
EXTRN	_Cnd_init:PROC
EXTRN	_Mtx_destroy:PROC
EXTRN	_Xtime_get_ticks:PROC
EXTRN	??_7type_info@@6B@:BYTE				; type_info::`vftable'
EXTRN	__std_terminate:PROC
EXTRN	_Thrd_id:PROC
EXTRN	_Thrd_start:PROC
EXTRN	_Init_thread_abort:PROC
EXTRN	_Mtx_init:PROC
EXTRN	_Cnd_wait:PROC
EXTRN	_Thrd_sleep:PROC
EXTRN	_Cnd_destroy:PROC
EXTRN	_Cnd_do_broadcast_at_thread_exit:PROC
EXTRN	_Init_thread_header:PROC
EXTRN	_Mtx_lock:PROC
EXTRN	terminate:PROC
EXTRN	_purecall:PROC
EXTRN	??3@YAXPEAX_K@Z:PROC				; operator delete
EXTRN	??3@YAXPEAX@Z:PROC				; operator delete
EXTRN	atexit:PROC
EXTRN	__std_exception_copy:PROC
EXTRN	_Init_thread_footer:PROC
EXTRN	?_Syserror_map@std@@YAPEBDH@Z:PROC		; std::_Syserror_map
EXTRN	?_Xlength_error@std@@YAXPEBD@Z:PROC		; std::_Xlength_error
EXTRN	?_Throw_C_error@std@@YAXH@Z:PROC		; std::_Throw_C_error
EXTRN	?_Xout_of_range@std@@YAXPEBD@Z:PROC		; std::_Xout_of_range
EXTRN	?_Xbad_alloc@std@@YAXXZ:PROC			; std::_Xbad_alloc
EXTRN	?uncaught_exception@std@@YA_NXZ:PROC		; std::uncaught_exception
EXTRN	?cout@std@@3V?$basic_ostream@DU?$char_traits@D@std@@@1@A:BYTE ; std::cout
EXTRN	?_Throw_Cpp_error@std@@YAXH@Z:PROC		; std::_Throw_Cpp_error
EXTRN	??2@YAPEAX_K@Z:PROC				; operator new
EXTRN	_Init_thread_epoch:DWORD
EXTRN	memmove:PROC
EXTRN	_Cnd_signal:PROC
EXTRN	__std_exception_destroy:PROC
EXTRN	__security_check_cookie:PROC
EXTRN	__CxxFrameHandler3:PROC
;	COMDAT ??_R1A@?0A@EA@error_category@std@@8
rdata$r	SEGMENT
??_R1A@?0A@EA@error_category@std@@8 DD imagerel ??_R0?AVerror_category@std@@@8 ; std::error_category::`RTTI Base Class Descriptor at (0,-1,0,64)'
	DD	00H
	DD	00H
	DD	0ffffffffH
	DD	00H
	DD	040H
	DD	imagerel ??_R3error_category@std@@8
rdata$r	ENDS
;	COMDAT ??_7failure@ios_base@std@@6B@
CONST	SEGMENT
??_7failure@ios_base@std@@6B@ DQ FLAT:??_R4failure@ios_base@std@@6B@ ; std::ios_base::failure::`vftable'
	DQ	FLAT:??_Efailure@ios_base@std@@UEAAPEAXI@Z
	DQ	FLAT:?what@exception@std@@UEBAPEBDXZ
CONST	ENDS
;	COMDAT ??_R3runtime_error@std@@8
rdata$r	SEGMENT
??_R3runtime_error@std@@8 DD 00H			; std::runtime_error::`RTTI Class Hierarchy Descriptor'
	DD	00H
	DD	02H
	DD	imagerel ??_R2runtime_error@std@@8
rdata$r	ENDS
;	COMDAT ??_7system_error@std@@6B@
CONST	SEGMENT
??_7system_error@std@@6B@ DQ FLAT:??_R4system_error@std@@6B@ ; std::system_error::`vftable'
	DQ	FLAT:??_Esystem_error@std@@UEAAPEAXI@Z
	DQ	FLAT:?what@exception@std@@UEBAPEBDXZ
CONST	ENDS
;	COMDAT ??_R0?AVexception@std@@@8
data$r	SEGMENT
??_R0?AVexception@std@@@8 DQ FLAT:??_7type_info@@6B@	; std::exception `RTTI Type Descriptor'
	DQ	0000000000000000H
	DB	'.?AVexception@std@@', 00H
data$r	ENDS
;	COMDAT ??_R3system_error@std@@8
rdata$r	SEGMENT
??_R3system_error@std@@8 DD 00H				; std::system_error::`RTTI Class Hierarchy Descriptor'
	DD	00H
	DD	04H
	DD	imagerel ??_R2system_error@std@@8
rdata$r	ENDS
;	COMDAT ??_R2_Pad@std@@8
rdata$r	SEGMENT
??_R2_Pad@std@@8 DD imagerel ??_R1A@?0A@EA@_Pad@std@@8	; std::_Pad::`RTTI Base Class Array'
	ORG $+3
rdata$r	ENDS
;	COMDAT _TI5?AVfailure@ios_base@std@@
xdata$x	SEGMENT
_TI5?AVfailure@ios_base@std@@ DD 00H
	DD	imagerel ??1failure@ios_base@std@@UEAA@XZ
	DD	00H
	DD	imagerel _CTA5?AVfailure@ios_base@std@@
xdata$x	ENDS
;	COMDAT ??_R0?AV_System_error@std@@@8
data$r	SEGMENT
??_R0?AV_System_error@std@@@8 DQ FLAT:??_7type_info@@6B@ ; std::_System_error `RTTI Type Descriptor'
	DQ	0000000000000000H
	DB	'.?AV_System_error@std@@', 00H
data$r	ENDS
;	COMDAT _CT??_R0?AVsystem_error@std@@@840
xdata$x	SEGMENT
_CT??_R0?AVsystem_error@std@@@840 DD 00H
	DD	imagerel ??_R0?AVsystem_error@std@@@8
	DD	00H
	DD	0ffffffffH
	ORG $+4
	DD	028H
	DD	imagerel ??0system_error@std@@QEAA@AEBV01@@Z
xdata$x	ENDS
;	COMDAT _CT??_R0?AV_System_error@std@@@840
xdata$x	SEGMENT
_CT??_R0?AV_System_error@std@@@840 DD 00H
	DD	imagerel ??_R0?AV_System_error@std@@@8
	DD	00H
	DD	0ffffffffH
	ORG $+4
	DD	028H
	DD	imagerel ??0_System_error@std@@QEAA@AEBV01@@Z
xdata$x	ENDS
;	COMDAT ??_R2runtime_error@std@@8
rdata$r	SEGMENT
??_R2runtime_error@std@@8 DD imagerel ??_R1A@?0A@EA@runtime_error@std@@8 ; std::runtime_error::`RTTI Base Class Array'
	DD	imagerel ??_R1A@?0A@EA@exception@std@@8
	ORG $+3
rdata$r	ENDS
;	COMDAT ??_R3_Pad@std@@8
rdata$r	SEGMENT
??_R3_Pad@std@@8 DD 00H					; std::_Pad::`RTTI Class Hierarchy Descriptor'
	DD	00H
	DD	01H
	DD	imagerel ??_R2_Pad@std@@8
rdata$r	ENDS
;	COMDAT ??_R4_Pad@std@@6B@
rdata$r	SEGMENT
??_R4_Pad@std@@6B@ DD 01H				; std::_Pad::`RTTI Complete Object Locator'
	DD	00H
	DD	00H
	DD	imagerel ??_R0?AV_Pad@std@@@8
	DD	imagerel ??_R3_Pad@std@@8
	DD	imagerel ??_R4_Pad@std@@6B@
rdata$r	ENDS
;	COMDAT ??_R2?$_LaunchPad@V?$unique_ptr@V?$tuple@V<lambda_e77d7e1e559843f44c4e0b6d970cdb28>@@@std@@U?$default_delete@V?$tuple@V<lambda_e77d7e1e559843f44c4e0b6d970cdb28>@@@std@@@2@@std@@@std@@8
rdata$r	SEGMENT
??_R2?$_LaunchPad@V?$unique_ptr@V?$tuple@V<lambda_e77d7e1e559843f44c4e0b6d970cdb28>@@@std@@U?$default_delete@V?$tuple@V<lambda_e77d7e1e559843f44c4e0b6d970cdb28>@@@std@@@2@@std@@@std@@8 DD imagerel ??_R1A@?0A@EA@?$_LaunchPad@V?$unique_ptr@V?$tuple@V<lambda_e77d7e1e559843f44c4e0b6d970cdb28>@@@std@@U?$default_delete@V?$tuple@V<lambda_e77d7e1e559843f44c4e0b6d970cdb28>@@@std@@@2@@std@@@std@@8 ; std::_LaunchPad<std::unique_ptr<std::tuple<<lambda_e77d7e1e559843f44c4e0b6d970cdb28> >,std::default_delete<std::tuple<<lambda_e77d7e1e559843f44c4e0b6d970cdb28> > > > >::`RTTI Base Class Array'
	DD	imagerel ??_R1A@?0A@EA@_Pad@std@@8
	ORG $+3
rdata$r	ENDS
;	COMDAT ??_R0?AV_Pad@std@@@8
data$r	SEGMENT
??_R0?AV_Pad@std@@@8 DQ FLAT:??_7type_info@@6B@		; std::_Pad `RTTI Type Descriptor'
	DQ	0000000000000000H
	DB	'.?AV_Pad@std@@', 00H
data$r	ENDS
;	COMDAT ??_R3error_category@std@@8
rdata$r	SEGMENT
??_R3error_category@std@@8 DD 00H			; std::error_category::`RTTI Class Hierarchy Descriptor'
	DD	00H
	DD	01H
	DD	imagerel ??_R2error_category@std@@8
rdata$r	ENDS
;	COMDAT ??_R1A@?0A@EA@_System_error@std@@8
rdata$r	SEGMENT
??_R1A@?0A@EA@_System_error@std@@8 DD imagerel ??_R0?AV_System_error@std@@@8 ; std::_System_error::`RTTI Base Class Descriptor at (0,-1,0,64)'
	DD	02H
	DD	00H
	DD	0ffffffffH
	DD	00H
	DD	040H
	DD	imagerel ??_R3_System_error@std@@8
rdata$r	ENDS
;	COMDAT ??_R2_Generic_error_category@std@@8
rdata$r	SEGMENT
??_R2_Generic_error_category@std@@8 DD imagerel ??_R1A@?0A@EA@_Generic_error_category@std@@8 ; std::_Generic_error_category::`RTTI Base Class Array'
	DD	imagerel ??_R1A@?0A@EA@error_category@std@@8
	ORG $+3
rdata$r	ENDS
;	COMDAT ?npos@?$basic_string@DU?$char_traits@D@std@@V?$allocator@D@2@@std@@2_KB
CONST	SEGMENT
?npos@?$basic_string@DU?$char_traits@D@std@@V?$allocator@D@2@@std@@2_KB DQ ffffffffffffffffH ; std::basic_string<char,std::char_traits<char>,std::allocator<char> >::npos
CONST	ENDS
;	COMDAT ??_R1A@?0A@EA@?$_LaunchPad@V?$unique_ptr@V?$tuple@V<lambda_e77d7e1e559843f44c4e0b6d970cdb28>@@@std@@U?$default_delete@V?$tuple@V<lambda_e77d7e1e559843f44c4e0b6d970cdb28>@@@std@@@2@@std@@@std@@8
rdata$r	SEGMENT
??_R1A@?0A@EA@?$_LaunchPad@V?$unique_ptr@V?$tuple@V<lambda_e77d7e1e559843f44c4e0b6d970cdb28>@@@std@@U?$default_delete@V?$tuple@V<lambda_e77d7e1e559843f44c4e0b6d970cdb28>@@@std@@@2@@std@@@std@@8 DD imagerel ??_R0?AV?$_LaunchPad@V?$unique_ptr@V?$tuple@V<lambda_e77d7e1e559843f44c4e0b6d970cdb28>@@@std@@U?$default_delete@V?$tuple@V<lambda_e77d7e1e559843f44c4e0b6d970cdb28>@@@std@@@2@@std@@@std@@@8 ; std::_LaunchPad<std::unique_ptr<std::tuple<<lambda_e77d7e1e559843f44c4e0b6d970cdb28> >,std::default_delete<std::tuple<<lambda_e77d7e1e559843f44c4e0b6d970cdb28> > > > >::`RTTI Base Class Descriptor at (0,-1,0,64)'
	DD	01H
	DD	00H
	DD	0ffffffffH
	DD	00H
	DD	040H
	DD	imagerel ??_R3?$_LaunchPad@V?$unique_ptr@V?$tuple@V<lambda_e77d7e1e559843f44c4e0b6d970cdb28>@@@std@@U?$default_delete@V?$tuple@V<lambda_e77d7e1e559843f44c4e0b6d970cdb28>@@@std@@@2@@std@@@std@@8
rdata$r	ENDS
;	COMDAT ??_R1A@?0A@EA@failure@ios_base@std@@8
rdata$r	SEGMENT
??_R1A@?0A@EA@failure@ios_base@std@@8 DD imagerel ??_R0?AVfailure@ios_base@std@@@8 ; std::ios_base::failure::`RTTI Base Class Descriptor at (0,-1,0,64)'
	DD	04H
	DD	00H
	DD	0ffffffffH
	DD	00H
	DD	040H
	DD	imagerel ??_R3failure@ios_base@std@@8
rdata$r	ENDS
;	COMDAT ??_7_System_error@std@@6B@
CONST	SEGMENT
??_7_System_error@std@@6B@ DQ FLAT:??_R4_System_error@std@@6B@ ; std::_System_error::`vftable'
	DQ	FLAT:??_E_System_error@std@@UEAAPEAXI@Z
	DQ	FLAT:?what@exception@std@@UEBAPEBDXZ
CONST	ENDS
;	COMDAT ??_7runtime_error@std@@6B@
CONST	SEGMENT
??_7runtime_error@std@@6B@ DQ FLAT:??_R4runtime_error@std@@6B@ ; std::runtime_error::`vftable'
	DQ	FLAT:??_Eruntime_error@std@@UEAAPEAXI@Z
	DQ	FLAT:?what@exception@std@@UEBAPEBDXZ
CONST	ENDS
;	COMDAT ??_R3exception@std@@8
rdata$r	SEGMENT
??_R3exception@std@@8 DD 00H				; std::exception::`RTTI Class Hierarchy Descriptor'
	DD	00H
	DD	01H
	DD	imagerel ??_R2exception@std@@8
rdata$r	ENDS
;	COMDAT _CTA5?AVfailure@ios_base@std@@
xdata$x	SEGMENT
_CTA5?AVfailure@ios_base@std@@ DD 05H
	DD	imagerel _CT??_R0?AVfailure@ios_base@std@@@840
	DD	imagerel _CT??_R0?AVsystem_error@std@@@840
	DD	imagerel _CT??_R0?AV_System_error@std@@@840
	DD	imagerel _CT??_R0?AVruntime_error@std@@@824
	DD	imagerel _CT??_R0?AVexception@std@@@824
xdata$x	ENDS
;	COMDAT ??_7exception@std@@6B@
CONST	SEGMENT
??_7exception@std@@6B@ DQ FLAT:??_R4exception@std@@6B@	; std::exception::`vftable'
	DQ	FLAT:??_Eexception@std@@UEAAPEAXI@Z
	DQ	FLAT:?what@exception@std@@UEBAPEBDXZ
CONST	ENDS
;	COMDAT ??_R3failure@ios_base@std@@8
rdata$r	SEGMENT
??_R3failure@ios_base@std@@8 DD 00H			; std::ios_base::failure::`RTTI Class Hierarchy Descriptor'
	DD	00H
	DD	05H
	DD	imagerel ??_R2failure@ios_base@std@@8
rdata$r	ENDS
;	COMDAT ??_R4error_category@std@@6B@
rdata$r	SEGMENT
??_R4error_category@std@@6B@ DD 01H			; std::error_category::`RTTI Complete Object Locator'
	DD	00H
	DD	00H
	DD	imagerel ??_R0?AVerror_category@std@@@8
	DD	imagerel ??_R3error_category@std@@8
	DD	imagerel ??_R4error_category@std@@6B@
rdata$r	ENDS
;	COMDAT ??_R2failure@ios_base@std@@8
rdata$r	SEGMENT
??_R2failure@ios_base@std@@8 DD imagerel ??_R1A@?0A@EA@failure@ios_base@std@@8 ; std::ios_base::failure::`RTTI Base Class Array'
	DD	imagerel ??_R1A@?0A@EA@system_error@std@@8
	DD	imagerel ??_R1A@?0A@EA@_System_error@std@@8
	DD	imagerel ??_R1A@?0A@EA@runtime_error@std@@8
	DD	imagerel ??_R1A@?0A@EA@exception@std@@8
	ORG $+3
rdata$r	ENDS
;	COMDAT ??_R0?AV_Iostream_error_category@std@@@8
data$r	SEGMENT
??_R0?AV_Iostream_error_category@std@@@8 DQ FLAT:??_7type_info@@6B@ ; std::_Iostream_error_category `RTTI Type Descriptor'
	DQ	0000000000000000H
	DB	'.?AV_Iostream_error_category@std@@', 00H
data$r	ENDS
;	COMDAT ??_R2error_category@std@@8
rdata$r	SEGMENT
??_R2error_category@std@@8 DD imagerel ??_R1A@?0A@EA@error_category@std@@8 ; std::error_category::`RTTI Base Class Array'
	ORG $+3
rdata$r	ENDS
;	COMDAT _CT??_R0?AVruntime_error@std@@@824
xdata$x	SEGMENT
_CT??_R0?AVruntime_error@std@@@824 DD 00H
	DD	imagerel ??_R0?AVruntime_error@std@@@8
	DD	00H
	DD	0ffffffffH
	ORG $+4
	DD	018H
	DD	imagerel ??0runtime_error@std@@QEAA@AEBV01@@Z
xdata$x	ENDS
;	COMDAT ??_R2_Iostream_error_category@std@@8
rdata$r	SEGMENT
??_R2_Iostream_error_category@std@@8 DD imagerel ??_R1A@?0A@EA@_Iostream_error_category@std@@8 ; std::_Iostream_error_category::`RTTI Base Class Array'
	DD	imagerel ??_R1A@?0A@EA@_Generic_error_category@std@@8
	DD	imagerel ??_R1A@?0A@EA@error_category@std@@8
	ORG $+3
rdata$r	ENDS
;	COMDAT ??_R3_Generic_error_category@std@@8
rdata$r	SEGMENT
??_R3_Generic_error_category@std@@8 DD 00H		; std::_Generic_error_category::`RTTI Class Hierarchy Descriptor'
	DD	00H
	DD	02H
	DD	imagerel ??_R2_Generic_error_category@std@@8
rdata$r	ENDS
;	COMDAT ??_7_Pad@std@@6B@
CONST	SEGMENT
??_7_Pad@std@@6B@ DQ FLAT:??_R4_Pad@std@@6B@		; std::_Pad::`vftable'
	DQ	FLAT:_purecall
CONST	ENDS
;	COMDAT ??_R4failure@ios_base@std@@6B@
rdata$r	SEGMENT
??_R4failure@ios_base@std@@6B@ DD 01H			; std::ios_base::failure::`RTTI Complete Object Locator'
	DD	00H
	DD	00H
	DD	imagerel ??_R0?AVfailure@ios_base@std@@@8
	DD	imagerel ??_R3failure@ios_base@std@@8
	DD	imagerel ??_R4failure@ios_base@std@@6B@
rdata$r	ENDS
;	COMDAT ??_R2exception@std@@8
rdata$r	SEGMENT
??_R2exception@std@@8 DD imagerel ??_R1A@?0A@EA@exception@std@@8 ; std::exception::`RTTI Base Class Array'
	ORG $+3
rdata$r	ENDS
;	COMDAT ??_R3_Iostream_error_category@std@@8
rdata$r	SEGMENT
??_R3_Iostream_error_category@std@@8 DD 00H		; std::_Iostream_error_category::`RTTI Class Hierarchy Descriptor'
	DD	00H
	DD	03H
	DD	imagerel ??_R2_Iostream_error_category@std@@8
rdata$r	ENDS
;	COMDAT ??_R0?AV?$_LaunchPad@V?$unique_ptr@V?$tuple@V<lambda_e77d7e1e559843f44c4e0b6d970cdb28>@@@std@@U?$default_delete@V?$tuple@V<lambda_e77d7e1e559843f44c4e0b6d970cdb28>@@@std@@@2@@std@@@std@@@8
data$r	SEGMENT
??_R0?AV?$_LaunchPad@V?$unique_ptr@V?$tuple@V<lambda_e77d7e1e559843f44c4e0b6d970cdb28>@@@std@@U?$default_delete@V?$tuple@V<lambda_e77d7e1e559843f44c4e0b6d970cdb28>@@@std@@@2@@std@@@std@@@8 DQ FLAT:??_7type_info@@6B@ ; std::_LaunchPad<std::unique_ptr<std::tuple<<lambda_e77d7e1e559843f44c4e0b6d970cdb28> >,std::default_delete<std::tuple<<lambda_e77d7e1e559843f44c4e0b6d970cdb28> > > > > `RTTI Type Descriptor'
	DQ	0000000000000000H
	DB	'.?AV?$_LaunchPad@V?$unique_ptr@V?$tuple@V<lambda_e77d7e1'
	DB	'e559843f44c4e0b6d970cdb28>@@@std@@U?$default_delete@V?$tuple@'
	DB	'V<lambda_e77d7e1e559843f44c4e0b6d970cdb28>@@@std@@@2@@std@@@s'
	DB	'td@@', 00H
data$r	ENDS
;	COMDAT ??_R0?AV_Generic_error_category@std@@@8
data$r	SEGMENT
??_R0?AV_Generic_error_category@std@@@8 DQ FLAT:??_7type_info@@6B@ ; std::_Generic_error_category `RTTI Type Descriptor'
	DQ	0000000000000000H
	DB	'.?AV_Generic_error_category@std@@', 00H
data$r	ENDS
;	COMDAT ??_R3_System_error@std@@8
rdata$r	SEGMENT
??_R3_System_error@std@@8 DD 00H			; std::_System_error::`RTTI Class Hierarchy Descriptor'
	DD	00H
	DD	03H
	DD	imagerel ??_R2_System_error@std@@8
rdata$r	ENDS
;	COMDAT ??_R1A@?0A@EA@_Generic_error_category@std@@8
rdata$r	SEGMENT
??_R1A@?0A@EA@_Generic_error_category@std@@8 DD imagerel ??_R0?AV_Generic_error_category@std@@@8 ; std::_Generic_error_category::`RTTI Base Class Descriptor at (0,-1,0,64)'
	DD	01H
	DD	00H
	DD	0ffffffffH
	DD	00H
	DD	040H
	DD	imagerel ??_R3_Generic_error_category@std@@8
rdata$r	ENDS
;	COMDAT ??_R4system_error@std@@6B@
rdata$r	SEGMENT
??_R4system_error@std@@6B@ DD 01H			; std::system_error::`RTTI Complete Object Locator'
	DD	00H
	DD	00H
	DD	imagerel ??_R0?AVsystem_error@std@@@8
	DD	imagerel ??_R3system_error@std@@8
	DD	imagerel ??_R4system_error@std@@6B@
rdata$r	ENDS
;	COMDAT ??_7?$_LaunchPad@V?$unique_ptr@V?$tuple@V<lambda_e77d7e1e559843f44c4e0b6d970cdb28>@@@std@@U?$default_delete@V?$tuple@V<lambda_e77d7e1e559843f44c4e0b6d970cdb28>@@@std@@@2@@std@@@std@@6B@
CONST	SEGMENT
??_7?$_LaunchPad@V?$unique_ptr@V?$tuple@V<lambda_e77d7e1e559843f44c4e0b6d970cdb28>@@@std@@U?$default_delete@V?$tuple@V<lambda_e77d7e1e559843f44c4e0b6d970cdb28>@@@std@@@2@@std@@@std@@6B@ DQ FLAT:??_R4?$_LaunchPad@V?$unique_ptr@V?$tuple@V<lambda_e77d7e1e559843f44c4e0b6d970cdb28>@@@std@@U?$default_delete@V?$tuple@V<lambda_e77d7e1e559843f44c4e0b6d970cdb28>@@@std@@@2@@std@@@std@@6B@ ; std::_LaunchPad<std::unique_ptr<std::tuple<<lambda_e77d7e1e559843f44c4e0b6d970cdb28> >,std::default_delete<std::tuple<<lambda_e77d7e1e559843f44c4e0b6d970cdb28> > > > >::`vftable'
	DQ	FLAT:?_Go@?$_LaunchPad@V?$unique_ptr@V?$tuple@V<lambda_e77d7e1e559843f44c4e0b6d970cdb28>@@@std@@U?$default_delete@V?$tuple@V<lambda_e77d7e1e559843f44c4e0b6d970cdb28>@@@std@@@2@@std@@@std@@UEAAXXZ
CONST	ENDS
;	COMDAT ??_R1A@?0A@EA@_Pad@std@@8
rdata$r	SEGMENT
??_R1A@?0A@EA@_Pad@std@@8 DD imagerel ??_R0?AV_Pad@std@@@8 ; std::_Pad::`RTTI Base Class Descriptor at (0,-1,0,64)'
	DD	00H
	DD	00H
	DD	0ffffffffH
	DD	00H
	DD	040H
	DD	imagerel ??_R3_Pad@std@@8
rdata$r	ENDS
;	COMDAT ??_R4_Iostream_error_category@std@@6B@
rdata$r	SEGMENT
??_R4_Iostream_error_category@std@@6B@ DD 01H		; std::_Iostream_error_category::`RTTI Complete Object Locator'
	DD	00H
	DD	00H
	DD	imagerel ??_R0?AV_Iostream_error_category@std@@@8
	DD	imagerel ??_R3_Iostream_error_category@std@@8
	DD	imagerel ??_R4_Iostream_error_category@std@@6B@
rdata$r	ENDS
;	COMDAT ??_R1A@?0A@EA@exception@std@@8
rdata$r	SEGMENT
??_R1A@?0A@EA@exception@std@@8 DD imagerel ??_R0?AVexception@std@@@8 ; std::exception::`RTTI Base Class Descriptor at (0,-1,0,64)'
	DD	00H
	DD	00H
	DD	0ffffffffH
	DD	00H
	DD	040H
	DD	imagerel ??_R3exception@std@@8
rdata$r	ENDS
;	COMDAT ??_R3?$_LaunchPad@V?$unique_ptr@V?$tuple@V<lambda_e77d7e1e559843f44c4e0b6d970cdb28>@@@std@@U?$default_delete@V?$tuple@V<lambda_e77d7e1e559843f44c4e0b6d970cdb28>@@@std@@@2@@std@@@std@@8
rdata$r	SEGMENT
??_R3?$_LaunchPad@V?$unique_ptr@V?$tuple@V<lambda_e77d7e1e559843f44c4e0b6d970cdb28>@@@std@@U?$default_delete@V?$tuple@V<lambda_e77d7e1e559843f44c4e0b6d970cdb28>@@@std@@@2@@std@@@std@@8 DD 00H ; std::_LaunchPad<std::unique_ptr<std::tuple<<lambda_e77d7e1e559843f44c4e0b6d970cdb28> >,std::default_delete<std::tuple<<lambda_e77d7e1e559843f44c4e0b6d970cdb28> > > > >::`RTTI Class Hierarchy Descriptor'
	DD	00H
	DD	02H
	DD	imagerel ??_R2?$_LaunchPad@V?$unique_ptr@V?$tuple@V<lambda_e77d7e1e559843f44c4e0b6d970cdb28>@@@std@@U?$default_delete@V?$tuple@V<lambda_e77d7e1e559843f44c4e0b6d970cdb28>@@@std@@@2@@std@@@std@@8
rdata$r	ENDS
;	COMDAT ??_R0?AVsystem_error@std@@@8
data$r	SEGMENT
??_R0?AVsystem_error@std@@@8 DQ FLAT:??_7type_info@@6B@	; std::system_error `RTTI Type Descriptor'
	DQ	0000000000000000H
	DB	'.?AVsystem_error@std@@', 00H
data$r	ENDS
;	COMDAT ??_R2_System_error@std@@8
rdata$r	SEGMENT
??_R2_System_error@std@@8 DD imagerel ??_R1A@?0A@EA@_System_error@std@@8 ; std::_System_error::`RTTI Base Class Array'
	DD	imagerel ??_R1A@?0A@EA@runtime_error@std@@8
	DD	imagerel ??_R1A@?0A@EA@exception@std@@8
	ORG $+3
rdata$r	ENDS
;	COMDAT ??_R1A@?0A@EA@runtime_error@std@@8
rdata$r	SEGMENT
??_R1A@?0A@EA@runtime_error@std@@8 DD imagerel ??_R0?AVruntime_error@std@@@8 ; std::runtime_error::`RTTI Base Class Descriptor at (0,-1,0,64)'
	DD	01H
	DD	00H
	DD	0ffffffffH
	DD	00H
	DD	040H
	DD	imagerel ??_R3runtime_error@std@@8
rdata$r	ENDS
;	COMDAT ??_R0?AVerror_category@std@@@8
data$r	SEGMENT
??_R0?AVerror_category@std@@@8 DQ FLAT:??_7type_info@@6B@ ; std::error_category `RTTI Type Descriptor'
	DQ	0000000000000000H
	DB	'.?AVerror_category@std@@', 00H
data$r	ENDS
;	COMDAT ??_7_Iostream_error_category@std@@6B@
CONST	SEGMENT
??_7_Iostream_error_category@std@@6B@ DQ FLAT:??_R4_Iostream_error_category@std@@6B@ ; std::_Iostream_error_category::`vftable'
	DQ	FLAT:??_E_Iostream_error_category@std@@UEAAPEAXI@Z
	DQ	FLAT:?name@_Iostream_error_category@std@@UEBAPEBDXZ
	DQ	FLAT:?message@_Iostream_error_category@std@@UEBA?AV?$basic_string@DU?$char_traits@D@std@@V?$allocator@D@2@@2@H@Z
	DQ	FLAT:?default_error_condition@error_category@std@@UEBA?AVerror_condition@2@H@Z
	DQ	FLAT:?equivalent@error_category@std@@UEBA_NAEBVerror_code@2@H@Z
	DQ	FLAT:?equivalent@error_category@std@@UEBA_NHAEBVerror_condition@2@@Z
CONST	ENDS
;	COMDAT _CT??_R0?AVfailure@ios_base@std@@@840
xdata$x	SEGMENT
_CT??_R0?AVfailure@ios_base@std@@@840 DD 00H
	DD	imagerel ??_R0?AVfailure@ios_base@std@@@8
	DD	00H
	DD	0ffffffffH
	ORG $+4
	DD	028H
	DD	imagerel ??0failure@ios_base@std@@QEAA@AEBV012@@Z
xdata$x	ENDS
;	COMDAT ??_7_Generic_error_category@std@@6B@
CONST	SEGMENT
??_7_Generic_error_category@std@@6B@ DQ FLAT:??_R4_Generic_error_category@std@@6B@ ; std::_Generic_error_category::`vftable'
	DQ	FLAT:??_E_Generic_error_category@std@@UEAAPEAXI@Z
	DQ	FLAT:?name@_Generic_error_category@std@@UEBAPEBDXZ
	DQ	FLAT:?message@_Generic_error_category@std@@UEBA?AV?$basic_string@DU?$char_traits@D@std@@V?$allocator@D@2@@2@H@Z
	DQ	FLAT:?default_error_condition@error_category@std@@UEBA?AVerror_condition@2@H@Z
	DQ	FLAT:?equivalent@error_category@std@@UEBA_NAEBVerror_code@2@H@Z
	DQ	FLAT:?equivalent@error_category@std@@UEBA_NHAEBVerror_condition@2@@Z
CONST	ENDS
;	COMDAT ??_R4_Generic_error_category@std@@6B@
rdata$r	SEGMENT
??_R4_Generic_error_category@std@@6B@ DD 01H		; std::_Generic_error_category::`RTTI Complete Object Locator'
	DD	00H
	DD	00H
	DD	imagerel ??_R0?AV_Generic_error_category@std@@@8
	DD	imagerel ??_R3_Generic_error_category@std@@8
	DD	imagerel ??_R4_Generic_error_category@std@@6B@
rdata$r	ENDS
;	COMDAT ??_R4_System_error@std@@6B@
rdata$r	SEGMENT
??_R4_System_error@std@@6B@ DD 01H			; std::_System_error::`RTTI Complete Object Locator'
	DD	00H
	DD	00H
	DD	imagerel ??_R0?AV_System_error@std@@@8
	DD	imagerel ??_R3_System_error@std@@8
	DD	imagerel ??_R4_System_error@std@@6B@
rdata$r	ENDS
;	COMDAT ??_R4runtime_error@std@@6B@
rdata$r	SEGMENT
??_R4runtime_error@std@@6B@ DD 01H			; std::runtime_error::`RTTI Complete Object Locator'
	DD	00H
	DD	00H
	DD	imagerel ??_R0?AVruntime_error@std@@@8
	DD	imagerel ??_R3runtime_error@std@@8
	DD	imagerel ??_R4runtime_error@std@@6B@
rdata$r	ENDS
;	COMDAT ??_7error_category@std@@6B@
CONST	SEGMENT
??_7error_category@std@@6B@ DQ FLAT:??_R4error_category@std@@6B@ ; std::error_category::`vftable'
	DQ	FLAT:??_Eerror_category@std@@UEAAPEAXI@Z
	DQ	FLAT:_purecall
	DQ	FLAT:_purecall
	DQ	FLAT:?default_error_condition@error_category@std@@UEBA?AVerror_condition@2@H@Z
	DQ	FLAT:?equivalent@error_category@std@@UEBA_NAEBVerror_code@2@H@Z
	DQ	FLAT:?equivalent@error_category@std@@UEBA_NHAEBVerror_condition@2@@Z
CONST	ENDS
;	COMDAT _CT??_R0?AVexception@std@@@824
xdata$x	SEGMENT
_CT??_R0?AVexception@std@@@824 DD 00H
	DD	imagerel ??_R0?AVexception@std@@@8
	DD	00H
	DD	0ffffffffH
	ORG $+4
	DD	018H
	DD	imagerel ??0exception@std@@QEAA@AEBV01@@Z
xdata$x	ENDS
;	COMDAT ??_R1A@?0A@EA@_Iostream_error_category@std@@8
rdata$r	SEGMENT
??_R1A@?0A@EA@_Iostream_error_category@std@@8 DD imagerel ??_R0?AV_Iostream_error_category@std@@@8 ; std::_Iostream_error_category::`RTTI Base Class Descriptor at (0,-1,0,64)'
	DD	02H
	DD	00H
	DD	0ffffffffH
	DD	00H
	DD	040H
	DD	imagerel ??_R3_Iostream_error_category@std@@8
rdata$r	ENDS
;	COMDAT ??_R1A@?0A@EA@system_error@std@@8
rdata$r	SEGMENT
??_R1A@?0A@EA@system_error@std@@8 DD imagerel ??_R0?AVsystem_error@std@@@8 ; std::system_error::`RTTI Base Class Descriptor at (0,-1,0,64)'
	DD	03H
	DD	00H
	DD	0ffffffffH
	DD	00H
	DD	040H
	DD	imagerel ??_R3system_error@std@@8
rdata$r	ENDS
;	COMDAT ??_R2system_error@std@@8
rdata$r	SEGMENT
??_R2system_error@std@@8 DD imagerel ??_R1A@?0A@EA@system_error@std@@8 ; std::system_error::`RTTI Base Class Array'
	DD	imagerel ??_R1A@?0A@EA@_System_error@std@@8
	DD	imagerel ??_R1A@?0A@EA@runtime_error@std@@8
	DD	imagerel ??_R1A@?0A@EA@exception@std@@8
	ORG $+3
rdata$r	ENDS
;	COMDAT ??_R4?$_LaunchPad@V?$unique_ptr@V?$tuple@V<lambda_e77d7e1e559843f44c4e0b6d970cdb28>@@@std@@U?$default_delete@V?$tuple@V<lambda_e77d7e1e559843f44c4e0b6d970cdb28>@@@std@@@2@@std@@@std@@6B@
rdata$r	SEGMENT
??_R4?$_LaunchPad@V?$unique_ptr@V?$tuple@V<lambda_e77d7e1e559843f44c4e0b6d970cdb28>@@@std@@U?$default_delete@V?$tuple@V<lambda_e77d7e1e559843f44c4e0b6d970cdb28>@@@std@@@2@@std@@@std@@6B@ DD 01H ; std::_LaunchPad<std::unique_ptr<std::tuple<<lambda_e77d7e1e559843f44c4e0b6d970cdb28> >,std::default_delete<std::tuple<<lambda_e77d7e1e559843f44c4e0b6d970cdb28> > > > >::`RTTI Complete Object Locator'
	DD	00H
	DD	00H
	DD	imagerel ??_R0?AV?$_LaunchPad@V?$unique_ptr@V?$tuple@V<lambda_e77d7e1e559843f44c4e0b6d970cdb28>@@@std@@U?$default_delete@V?$tuple@V<lambda_e77d7e1e559843f44c4e0b6d970cdb28>@@@std@@@2@@std@@@std@@@8
	DD	imagerel ??_R3?$_LaunchPad@V?$unique_ptr@V?$tuple@V<lambda_e77d7e1e559843f44c4e0b6d970cdb28>@@@std@@U?$default_delete@V?$tuple@V<lambda_e77d7e1e559843f44c4e0b6d970cdb28>@@@std@@@2@@std@@@std@@8
	DD	imagerel ??_R4?$_LaunchPad@V?$unique_ptr@V?$tuple@V<lambda_e77d7e1e559843f44c4e0b6d970cdb28>@@@std@@U?$default_delete@V?$tuple@V<lambda_e77d7e1e559843f44c4e0b6d970cdb28>@@@std@@@2@@std@@@std@@6B@
rdata$r	ENDS
;	COMDAT ??_R4exception@std@@6B@
rdata$r	SEGMENT
??_R4exception@std@@6B@ DD 01H				; std::exception::`RTTI Complete Object Locator'
	DD	00H
	DD	00H
	DD	imagerel ??_R0?AVexception@std@@@8
	DD	imagerel ??_R3exception@std@@8
	DD	imagerel ??_R4exception@std@@6B@
rdata$r	ENDS
;	COMDAT ??_R0?AVruntime_error@std@@@8
data$r	SEGMENT
??_R0?AVruntime_error@std@@@8 DQ FLAT:??_7type_info@@6B@ ; std::runtime_error `RTTI Type Descriptor'
	DQ	0000000000000000H
	DB	'.?AVruntime_error@std@@', 00H
data$r	ENDS
;	COMDAT ??_R0?AVfailure@ios_base@std@@@8
data$r	SEGMENT
??_R0?AVfailure@ios_base@std@@@8 DQ FLAT:??_7type_info@@6B@ ; std::ios_base::failure `RTTI Type Descriptor'
	DQ	0000000000000000H
	DB	'.?AVfailure@ios_base@std@@', 00H
data$r	ENDS
;	COMDAT ??_C@_0BI@CFPLBAOH@invalid?5string?5position?$AA@
CONST	SEGMENT
??_C@_0BI@CFPLBAOH@invalid?5string?5position?$AA@ DB 'invalid string posi'
	DB	'tion', 00H					; `string'
CONST	ENDS
;	COMDAT ??_C@_0BA@JFNIOLAK@string?5too?5long?$AA@
CONST	SEGMENT
??_C@_0BA@JFNIOLAK@string?5too?5long?$AA@ DB 'string too long', 00H ; `string'
CONST	ENDS
;	COMDAT ??_C@_0BD@OLBABOEK@vector?$DMT?$DO?5too?5long?$AA@
CONST	SEGMENT
??_C@_0BD@OLBABOEK@vector?$DMT?$DO?5too?5long?$AA@ DB 'vector<T> too long'
	DB	00H						; `string'
$SG4294967235 DB 'creating', 0aH, 00H
	ORG $+6
$SG4294967234 DB 'joining', 0aH, 00H
CONST	ENDS
;	COMDAT ??_C@_0BF@OOHOMBOF@ios_base?3?3eofbit?5set?$AA@
CONST	SEGMENT
??_C@_0BF@OOHOMBOF@ios_base?3?3eofbit?5set?$AA@ DB 'ios_base::eofbit set', 00H ; `string'
CONST	ENDS
;	COMDAT ??_C@_0BG@FMKFHCIL@ios_base?3?3failbit?5set?$AA@
CONST	SEGMENT
??_C@_0BG@FMKFHCIL@ios_base?3?3failbit?5set?$AA@ DB 'ios_base::failbit se'
	DB	't', 00H					; `string'
CONST	ENDS
;	COMDAT ??_C@_0BF@PHHKMMFD@ios_base?3?3badbit?5set?$AA@
CONST	SEGMENT
??_C@_0BF@PHHKMMFD@ios_base?3?3badbit?5set?$AA@ DB 'ios_base::badbit set', 00H ; `string'
CONST	ENDS
;	COMDAT ??_C@_0BG@PADBLCHM@iostream?5stream?5error?$AA@
CONST	SEGMENT
??_C@_0BG@PADBLCHM@iostream?5stream?5error?$AA@ DB 'iostream stream error'
	DB	00H						; `string'
CONST	ENDS
;	COMDAT ??_C@_08LLGCOLLL@iostream?$AA@
CONST	SEGMENT
??_C@_08LLGCOLLL@iostream?$AA@ DB 'iostream', 00H	; `string'
CONST	ENDS
;	COMDAT ??_C@_07DCLBNMLN@generic?$AA@
CONST	SEGMENT
??_C@_07DCLBNMLN@generic?$AA@ DB 'generic', 00H		; `string'
CONST	ENDS
;	COMDAT ??_C@_02LMMGGCAJ@?3?5?$AA@
CONST	SEGMENT
??_C@_02LMMGGCAJ@?3?5?$AA@ DB ': ', 00H			; `string'
CONST	ENDS
;	COMDAT ??_C@_0BC@EOODALEL@Unknown?5exception?$AA@
CONST	SEGMENT
??_C@_0BC@EOODALEL@Unknown?5exception?$AA@ DB 'Unknown exception', 00H ; `string'
CONST	ENDS
PUBLIC	??$?0U_Exact_args_t@std@@$0A@@?$tuple@$$V@std@@QEAA@U_Exact_args_t@1@@Z ; std::tuple<>::tuple<><std::_Exact_args_t,0>
PUBLIC	??$construct@Vthread@std@@V12@@?$allocator@Vthread@std@@@std@@QEAAXPEAVthread@1@$$QEAV21@@Z ; std::allocator<std::thread>::construct<std::thread,std::thread>
PUBLIC	??$construct@Vthread@std@@V12@@?$allocator_traits@V?$allocator@Vthread@std@@@std@@@std@@SAXAEAV?$allocator@Vthread@std@@@1@PEAVthread@1@$$QEAV31@@Z ; std::allocator_traits<std::allocator<std::thread> >::construct<std::thread,std::thread>
PUBLIC	??$forward@Vthread@std@@@std@@YA$$QEAVthread@0@AEAV10@@Z ; std::forward<std::thread>
PUBLIC	??_Gthread@std@@QEAAPEAXI@Z			; std::thread::`scalar deleting destructor'
PUBLIC	??$construct@Vthread@std@@V12@@?$_Wrap_alloc@V?$allocator@Vthread@std@@@std@@@std@@QEAAXPEAVthread@1@$$QEAV21@@Z ; std::_Wrap_alloc<std::allocator<std::thread> >::construct<std::thread,std::thread>
PUBLIC	??$destroy@Vthread@std@@@?$allocator@Vthread@std@@@std@@QEAAXPEAVthread@1@@Z ; std::allocator<std::thread>::destroy<std::thread>
PUBLIC	??$duration_cast@V?$duration@_JU?$ratio@$00$0DLJKMKAA@@std@@@chrono@std@@_JU?$ratio@$00$00@3@@chrono@std@@YA?AV?$duration@_JU?$ratio@$00$0DLJKMKAA@@std@@@01@AEBV?$duration@_JU?$ratio@$00$00@std@@@01@@Z ; std::chrono::duration_cast<std::chrono::duration<__int64,std::ratio<1,1000000000> >,__int64,std::ratio<1,1> >
PUBLIC	??$duration_cast@V?$duration@_JU?$ratio@$00$0DLJKMKAA@@std@@@chrono@std@@_JU?$ratio@$00$0JIJGIA@@3@@chrono@std@@YA?AV?$duration@_JU?$ratio@$00$0DLJKMKAA@@std@@@01@AEBV?$duration@_JU?$ratio@$00$0JIJGIA@@std@@@01@@Z ; std::chrono::duration_cast<std::chrono::duration<__int64,std::ratio<1,1000000000> >,__int64,std::ratio<1,10000000> >
PUBLIC	??$?MHU?$ratio@$0OBA@$00@std@@HU01@@chrono@std@@YA_NAEBV?$duration@HU?$ratio@$0OBA@$00@std@@@01@0@Z ; std::chrono::operator<<int,std::ratio<3600,1>,int,std::ratio<3600,1> >
PUBLIC	??$move@AEAVthread@std@@@std@@YA$$QEAVthread@0@AEAV10@@Z ; std::move<std::thread & __ptr64>
PUBLIC	?count@?$duration@HU?$ratio@$0OBA@$00@std@@@chrono@std@@QEBAHXZ ; std::chrono::duration<int,std::ratio<3600,1> >::count
PUBLIC	??$?0U?$integral_constant@_N$00@std@@@_Any_tag@std@@QEAA@$$QEAU?$integral_constant@_N$00@1@@Z ; std::_Any_tag::_Any_tag<std::integral_constant<bool,1> >
PUBLIC	??$_Uninitialized_move_al_unchecked1@PEAVthread@std@@PEAV12@V?$allocator@Vthread@std@@@2@@std@@YAPEAVthread@0@PEAV10@00AEAU?$_Wrap_alloc@V?$allocator@Vthread@std@@@std@@@0@U_General_ptr_iterator_tag@0@U_Any_tag@0@@Z ; std::_Uninitialized_move_al_unchecked1<std::thread * __ptr64,std::thread * __ptr64,std::allocator<std::thread> >
PUBLIC	??$_Ptr_move_cat@Vthread@std@@V12@@std@@YA?AU_General_ptr_iterator_tag@0@AEBQEAVthread@0@0@Z ; std::_Ptr_move_cat<std::thread,std::thread>
PUBLIC	??$construct@PEADAEAPEAD@?$allocator@D@std@@QEAAXPEAPEADAEAPEAD@Z ; std::allocator<char>::construct<char * __ptr64,char * __ptr64 & __ptr64>
PUBLIC	??$destroy@PEAD@?$allocator@D@std@@QEAAXPEAPEAD@Z ; std::allocator<char>::destroy<char * __ptr64>
PUBLIC	??$destroy@Vthread@std@@@?$allocator_traits@V?$allocator@Vthread@std@@@std@@@std@@SAXAEAV?$allocator@Vthread@std@@@1@PEAVthread@1@@Z ; std::allocator_traits<std::allocator<std::thread> >::destroy<std::thread>
PUBLIC	??$?0_JU?$ratio@$00$00@std@@X@?$duration@_JU?$ratio@$00$0DLJKMKAA@@std@@@chrono@std@@QEAA@AEBV?$duration@_JU?$ratio@$00$00@std@@@12@@Z ; std::chrono::duration<__int64,std::ratio<1,1000000000> >::duration<__int64,std::ratio<1,1000000000> ><__int64,std::ratio<1,1>,void>
PUBLIC	??$?0_JX@?$duration@_JU?$ratio@$00$00@std@@@chrono@std@@QEAA@AEB_J@Z ; std::chrono::duration<__int64,std::ratio<1,1> >::duration<__int64,std::ratio<1,1> ><__int64,void>
PUBLIC	??$duration_cast@V?$duration@_JU?$ratio@$00$00@std@@@chrono@std@@_JU?$ratio@$00$0DLJKMKAA@@3@@chrono@std@@YA?AV?$duration@_JU?$ratio@$00$00@std@@@01@AEBV?$duration@_JU?$ratio@$00$0DLJKMKAA@@std@@@01@@Z ; std::chrono::duration_cast<std::chrono::duration<__int64,std::ratio<1,1> >,__int64,std::ratio<1,1000000000> >
PUBLIC	??$duration_cast@V?$duration@_JU?$ratio@$00$0DLJKMKAA@@std@@@chrono@std@@HU?$ratio@$0OBA@$00@3@@chrono@std@@YA?AV?$duration@_JU?$ratio@$00$0DLJKMKAA@@std@@@01@AEBV?$duration@HU?$ratio@$0OBA@$00@std@@@01@@Z ; std::chrono::duration_cast<std::chrono::duration<__int64,std::ratio<1,1000000000> >,int,std::ratio<3600,1> >
PUBLIC	??$?0_JU?$ratio@$00$0JIJGIA@@std@@X@?$duration@_JU?$ratio@$00$0DLJKMKAA@@std@@@chrono@std@@QEAA@AEBV?$duration@_JU?$ratio@$00$0JIJGIA@@std@@@12@@Z ; std::chrono::duration<__int64,std::ratio<1,1000000000> >::duration<__int64,std::ratio<1,1000000000> ><__int64,std::ratio<1,10000000>,void>
PUBLIC	??$?NHU?$ratio@$0OBA@$00@std@@HU01@@chrono@std@@YA_NAEBV?$duration@HU?$ratio@$0OBA@$00@std@@@01@0@Z ; std::chrono::operator<=<int,std::ratio<3600,1>,int,std::ratio<3600,1> >
PUBLIC	?zero@?$duration_values@H@chrono@std@@SAHXZ	; std::chrono::duration_values<int>::zero
PUBLIC	?count@?$duration@_JU?$ratio@$00$0DLJKMKAA@@std@@@chrono@std@@QEBA_JXZ ; std::chrono::duration<__int64,std::ratio<1,1000000000> >::count
PUBLIC	??Y?$duration@_JU?$ratio@$00$0DLJKMKAA@@std@@@chrono@std@@QEAAAEAV012@AEBV012@@Z ; std::chrono::duration<__int64,std::ratio<1,1000000000> >::operator+=
PUBLIC	??Z?$duration@_JU?$ratio@$00$0DLJKMKAA@@std@@@chrono@std@@QEAAAEAV012@AEBV012@@Z ; std::chrono::duration<__int64,std::ratio<1,1000000000> >::operator-=
PUBLIC	?count@?$duration@_JU?$ratio@$00$00@std@@@chrono@std@@QEBA_JXZ ; std::chrono::duration<__int64,std::ratio<1,1> >::count
PUBLIC	?zero@?$duration@HU?$ratio@$0OBA@$00@std@@@chrono@std@@SA?AV123@XZ ; std::chrono::duration<int,std::ratio<3600,1> >::zero
PUBLIC	??0?$_Wrap_alloc@V?$allocator@D@std@@@std@@QEAA@$$QEAU01@@Z ; std::_Wrap_alloc<std::allocator<char> >::_Wrap_alloc<std::allocator<char> >
PUBLIC	?_Orphan_range@?$vector@Vthread@std@@V?$allocator@Vthread@std@@@2@@std@@AEBAXPEAVthread@2@0@Z ; std::vector<std::thread,std::allocator<std::thread> >::_Orphan_range
PUBLIC	??$_Rechecked@PEAVthread@std@@PEAV12@@std@@YAAEAPEAVthread@0@AEAPEAV10@PEAV10@@Z ; std::_Rechecked<std::thread * __ptr64,std::thread * __ptr64>
PUBLIC	??$_Uninitialized_move_al_unchecked@PEAVthread@std@@PEAV12@V?$allocator@Vthread@std@@@2@@std@@YAPEAVthread@0@PEAV10@00AEAU?$_Wrap_alloc@V?$allocator@Vthread@std@@@std@@@0@@Z ; std::_Uninitialized_move_al_unchecked<std::thread * __ptr64,std::thread * __ptr64,std::allocator<std::thread> >
PUBLIC	??$_Unchecked@PEAVthread@std@@@std@@YAPEAVthread@0@PEAV10@@Z ; std::_Unchecked<std::thread * __ptr64>
PUBLIC	??$_Destroy_range1@V?$allocator@Vthread@std@@@std@@PEAVthread@2@@std@@YAXPEAVthread@0@0AEAU?$_Wrap_alloc@V?$allocator@Vthread@std@@@std@@@0@U?$integral_constant@_N$0A@@0@@Z ; std::_Destroy_range1<std::allocator<std::thread>,std::thread * __ptr64>
PUBLIC	??$construct@PEADAEAPEAD@?$allocator_traits@V?$allocator@D@std@@@std@@SAXAEAV?$allocator@D@1@PEAPEADAEAPEAD@Z ; std::allocator_traits<std::allocator<char> >::construct<char * __ptr64,char * __ptr64 & __ptr64>
PUBLIC	??$forward@AEAPEAD@std@@YAAEAPEADAEAPEAD@Z	; std::forward<char * __ptr64 & __ptr64>
PUBLIC	??$destroy@PEAD@?$allocator_traits@V?$allocator@D@std@@@std@@SAXAEAV?$allocator@D@1@PEAPEAD@Z ; std::allocator_traits<std::allocator<char> >::destroy<char * __ptr64>
PUBLIC	??$forward@V?$allocator@D@std@@@std@@YA$$QEAV?$allocator@D@0@AEAV10@@Z ; std::forward<std::allocator<char> >
PUBLIC	??$?0U?$_Wrap_alloc@V?$allocator@D@std@@@std@@$$V@?$_Compressed_pair@U?$_Wrap_alloc@V?$allocator@D@std@@@std@@V?$_String_val@U?$_Simple_types@D@std@@@2@$00@std@@QEAA@U_One_then_variadic_args_t@1@$$QEAU?$_Wrap_alloc@V?$allocator@D@std@@@1@@Z ; std::_Compressed_pair<std::_Wrap_alloc<std::allocator<char> >,std::_String_val<std::_Simple_types<char> >,1>::_Compressed_pair<std::_Wrap_alloc<std::allocator<char> >,std::_String_val<std::_Simple_types<char> >,1><std::_Wrap_alloc<std::allocator<char> > >
PUBLIC	??$forward@U?$_Wrap_alloc@V?$allocator@D@std@@@std@@@std@@YA$$QEAU?$_Wrap_alloc@V?$allocator@D@std@@@0@AEAU10@@Z ; std::forward<std::_Wrap_alloc<std::allocator<char> > >
PUBLIC	??$destroy@Vthread@std@@@?$_Wrap_alloc@V?$allocator@Vthread@std@@@std@@@std@@QEAAXPEAVthread@1@@Z ; std::_Wrap_alloc<std::allocator<std::thread> >::destroy<std::thread>
PUBLIC	??$_Unfancy@Vthread@std@@@std@@YAPEAVthread@0@PEAV10@@Z ; std::_Unfancy<std::thread>
PUBLIC	??$_To_xtime@HU?$ratio@$0OBA@$00@std@@@std@@YA?AUxtime@@AEBV?$duration@HU?$ratio@$0OBA@$00@std@@@chrono@0@@Z ; std::_To_xtime<int,std::ratio<3600,1> >
PUBLIC	?pubsync@?$basic_streambuf@DU?$char_traits@D@std@@@std@@QEAAHXZ ; std::basic_streambuf<char,std::char_traits<char> >::pubsync
PUBLIC	?clear@?$basic_ios@DU?$char_traits@D@std@@@std@@QEAAXH_N@Z ; std::basic_ios<char,std::char_traits<char> >::clear
PUBLIC	?tie@?$basic_ios@DU?$char_traits@D@std@@@std@@QEBAPEAV?$basic_ostream@DU?$char_traits@D@std@@@2@XZ ; std::basic_ios<char,std::char_traits<char> >::tie
PUBLIC	?_Pninc@?$basic_streambuf@DU?$char_traits@D@std@@@std@@IEAAPEADXZ ; std::basic_streambuf<char,std::char_traits<char> >::_Pninc
PUBLIC	?_Pnavail@?$basic_streambuf@DU?$char_traits@D@std@@@std@@IEBA_JXZ ; std::basic_streambuf<char,std::char_traits<char> >::_Pnavail
PUBLIC	?_Osfx@?$basic_ostream@DU?$char_traits@D@std@@@std@@QEAAXXZ ; std::basic_ostream<char,std::char_traits<char> >::_Osfx
PUBLIC	?flush@?$basic_ostream@DU?$char_traits@D@std@@@std@@QEAAAEAV12@XZ ; std::basic_ostream<char,std::char_traits<char> >::flush
PUBLIC	??0?$allocator@D@std@@QEAA@XZ			; std::allocator<char>::allocator<char>
PUBLIC	??0_Bxty@?$_String_val@U?$_Simple_types@D@std@@@std@@QEAA@XZ ; std::_String_val<std::_Simple_types<char> >::_Bxty::_Bxty
PUBLIC	??0?$allocator@Vthread@std@@@std@@QEAA@XZ	; std::allocator<std::thread>::allocator<std::thread>
PUBLIC	??0_Sentry_base@?$basic_ostream@DU?$char_traits@D@std@@@std@@QEAA@AEAV12@@Z ; std::basic_ostream<char,std::char_traits<char> >::_Sentry_base::_Sentry_base
PUBLIC	??1_Sentry_base@?$basic_ostream@DU?$char_traits@D@std@@@std@@QEAA@XZ ; std::basic_ostream<char,std::char_traits<char> >::_Sentry_base::~_Sentry_base
PUBLIC	?setstate@?$basic_ios@DU?$char_traits@D@std@@@std@@QEAAXH_N@Z ; std::basic_ios<char,std::char_traits<char> >::setstate
PUBLIC	?rdbuf@?$basic_ios@DU?$char_traits@D@std@@@std@@QEBAPEAV?$basic_streambuf@DU?$char_traits@D@std@@@2@XZ ; std::basic_ios<char,std::char_traits<char> >::rdbuf
PUBLIC	?fill@?$basic_ios@DU?$char_traits@D@std@@@std@@QEBADXZ ; std::basic_ios<char,std::char_traits<char> >::fill
PUBLIC	?sputc@?$basic_streambuf@DU?$char_traits@D@std@@@std@@QEAAHD@Z ; std::basic_streambuf<char,std::char_traits<char> >::sputc
PUBLIC	?sputn@?$basic_streambuf@DU?$char_traits@D@std@@@std@@QEAA_JPEBD_J@Z ; std::basic_streambuf<char,std::char_traits<char> >::sputn
PUBLIC	??0?$_Wrap_alloc@V?$allocator@D@std@@@std@@QEAA@XZ ; std::_Wrap_alloc<std::allocator<char> >::_Wrap_alloc<std::allocator<char> >
PUBLIC	??0?$_String_val@U?$_Simple_types@D@std@@@std@@QEAA@XZ ; std::_String_val<std::_Simple_types<char> >::_String_val<std::_Simple_types<char> >
PUBLIC	?_Has_unused_capacity@?$vector@Vthread@std@@V?$allocator@Vthread@std@@@2@@std@@AEBA_NXZ ; std::vector<std::thread,std::allocator<std::thread> >::_Has_unused_capacity
PUBLIC	?_Calculate_growth@?$vector@Vthread@std@@V?$allocator@Vthread@std@@@2@@std@@AEBA_K_K@Z ; std::vector<std::thread,std::allocator<std::thread> >::_Calculate_growth
PUBLIC	??0?$_Wrap_alloc@V?$allocator@Vthread@std@@@std@@@std@@QEAA@XZ ; std::_Wrap_alloc<std::allocator<std::thread> >::_Wrap_alloc<std::allocator<std::thread> >
PUBLIC	??0?$_Vector_val@U?$_Simple_types@Vthread@std@@@std@@@std@@QEAA@XZ ; std::_Vector_val<std::_Simple_types<std::thread> >::_Vector_val<std::_Simple_types<std::thread> >
PUBLIC	??0sentry@?$basic_ostream@DU?$char_traits@D@std@@@std@@QEAA@AEAV12@@Z ; std::basic_ostream<char,std::char_traits<char> >::sentry::sentry
PUBLIC	??1sentry@?$basic_ostream@DU?$char_traits@D@std@@@std@@QEAA@XZ ; std::basic_ostream<char,std::char_traits<char> >::sentry::~sentry
PUBLIC	??Bsentry@?$basic_ostream@DU?$char_traits@D@std@@@std@@QEBA_NXZ ; std::basic_ostream<char,std::char_traits<char> >::sentry::operator bool
PUBLIC	??0?$_Immortalizer@V_Iostream_error_category@std@@@std@@QEAA@XZ ; std::_Immortalizer<std::_Iostream_error_category>::_Immortalizer<std::_Iostream_error_category>
PUBLIC	??1?$_Immortalizer@V_Iostream_error_category@std@@@std@@QEAA@XZ ; std::_Immortalizer<std::_Iostream_error_category>::~_Immortalizer<std::_Iostream_error_category>
PUBLIC	??__F_Static@?1???$_Immortalize@V_Iostream_error_category@std@@@std@@YAAEAV_Iostream_error_category@0@XZ@YAXXZ ; `std::_Immortalize<std::_Iostream_error_category>'::`2'::`dynamic atexit destructor for '_Static''
PUBLIC	??$_Uninitialized_move@PEAVthread@std@@PEAV12@V?$allocator@Vthread@std@@@2@@std@@YAPEAVthread@0@PEAV10@00AEAU?$_Wrap_alloc@V?$allocator@Vthread@std@@@std@@@0@@Z ; std::_Uninitialized_move<std::thread * __ptr64,std::thread * __ptr64,std::allocator<std::thread> >
PUBLIC	??$_Min_value@_K@std@@YAAEB_KAEB_K0@Z		; std::_Min_value<unsigned __int64>
PUBLIC	??$_Unfancy@D@std@@YAPEADPEAD@Z			; std::_Unfancy<char>
PUBLIC	??$_Destroy_range@V?$allocator@Vthread@std@@@std@@PEAVthread@2@@std@@YAXPEAVthread@0@0AEAU?$_Wrap_alloc@V?$allocator@Vthread@std@@@std@@@0@@Z ; std::_Destroy_range<std::allocator<std::thread>,std::thread * __ptr64>
PUBLIC	??$construct@PEADAEAPEAD@?$_Wrap_alloc@V?$allocator@D@std@@@std@@QEAAXPEAPEADAEAPEAD@Z ; std::_Wrap_alloc<std::allocator<char> >::construct<char * __ptr64,char * __ptr64 & __ptr64>
PUBLIC	??$destroy@PEAD@?$_Wrap_alloc@V?$allocator@D@std@@@std@@QEAAXPEAPEAD@Z ; std::_Wrap_alloc<std::allocator<char> >::destroy<char * __ptr64>
PUBLIC	??$addressof@PEAD@std@@YAPEAPEADAEAPEAD@Z	; std::addressof<char * __ptr64>
PUBLIC	??$?0$$V@?$_Compressed_pair@U?$_Wrap_alloc@V?$allocator@D@std@@@std@@V?$_String_val@U?$_Simple_types@D@std@@@2@$00@std@@QEAA@U_Zero_then_variadic_args_t@1@@Z ; std::_Compressed_pair<std::_Wrap_alloc<std::allocator<char> >,std::_String_val<std::_Simple_types<char> >,1>::_Compressed_pair<std::_Wrap_alloc<std::allocator<char> >,std::_String_val<std::_Simple_types<char> >,1><>
PUBLIC	??$?0V?$allocator@D@std@@@?$_Wrap_alloc@V?$allocator@D@std@@@std@@QEAA@$$QEAV?$allocator@D@1@@Z ; std::_Wrap_alloc<std::allocator<char> >::_Wrap_alloc<std::allocator<char> ><std::allocator<char> >
PUBLIC	??$?0$$V@?$_Compressed_pair@U?$_Wrap_alloc@V?$allocator@Vthread@std@@@std@@@std@@V?$_Vector_val@U?$_Simple_types@Vthread@std@@@std@@@2@$00@std@@QEAA@U_Zero_then_variadic_args_t@1@@Z ; std::_Compressed_pair<std::_Wrap_alloc<std::allocator<std::thread> >,std::_Vector_val<std::_Simple_types<std::thread> >,1>::_Compressed_pair<std::_Wrap_alloc<std::allocator<std::thread> >,std::_Vector_val<std::_Simple_types<std::thread> >,1><>
PUBLIC	??$move@AEAV?$basic_string@DU?$char_traits@D@std@@V?$allocator@D@2@@std@@@std@@YA$$QEAV?$basic_string@DU?$char_traits@D@std@@V?$allocator@D@2@@0@AEAV10@@Z ; std::move<std::basic_string<char,std::char_traits<char>,std::allocator<char> > & __ptr64>
PUBLIC	??$?0U?$_Wrap_alloc@V?$allocator@D@std@@@std@@X@?$_String_alloc@U?$_String_base_types@DV?$allocator@D@std@@@std@@@std@@QEAA@$$QEAU?$_Wrap_alloc@V?$allocator@D@std@@@1@@Z ; std::_String_alloc<std::_String_base_types<char,std::allocator<char> > >::_String_alloc<std::_String_base_types<char,std::allocator<char> > ><std::_Wrap_alloc<std::allocator<char> >,void>
PUBLIC	??$move@AEAU?$_Wrap_alloc@V?$allocator@D@std@@@std@@@std@@YA$$QEAU?$_Wrap_alloc@V?$allocator@D@std@@@0@AEAU10@@Z ; std::move<std::_Wrap_alloc<std::allocator<char> > & __ptr64>
PUBLIC	??$sleep_for@HU?$ratio@$0OBA@$00@std@@@this_thread@std@@YAXAEBV?$duration@HU?$ratio@$0OBA@$00@std@@@chrono@1@@Z ; std::this_thread::sleep_for<int,std::ratio<3600,1> >
PUBLIC	??$?0HX@?$duration@HU?$ratio@$0OBA@$00@std@@@chrono@std@@QEAA@AEBH@Z ; std::chrono::duration<int,std::ratio<3600,1> >::duration<int,std::ratio<3600,1> ><int,void>
PUBLIC	??$?6U?$char_traits@D@std@@@std@@YAAEAV?$basic_ostream@DU?$char_traits@D@std@@@0@AEAV10@PEBD@Z ; std::operator<<<std::char_traits<char> >
PUBLIC	??$_Immortalize@V_Iostream_error_category@std@@@std@@YAAEAV_Iostream_error_category@0@XZ ; std::_Immortalize<std::_Iostream_error_category>
PUBLIC	??$?0_JX@?$duration@_JU?$ratio@$00$0DLJKMKAA@@std@@@chrono@std@@QEAA@AEB_J@Z ; std::chrono::duration<__int64,std::ratio<1,1000000000> >::duration<__int64,std::ratio<1,1000000000> ><__int64,void>
PUBLIC	??$?0_JX@?$duration@_JU?$ratio@$00$0JIJGIA@@std@@@chrono@std@@QEAA@AEB_J@Z ; std::chrono::duration<__int64,std::ratio<1,10000000> >::duration<__int64,std::ratio<1,10000000> ><__int64,void>
PUBLIC	?max_size@?$allocator@D@std@@QEBA_KXZ		; std::allocator<char>::max_size
PUBLIC	?max_size@?$allocator_traits@V?$allocator@D@std@@@std@@SA_KAEBV?$allocator@D@2@@Z ; std::allocator_traits<std::allocator<char> >::max_size
PUBLIC	?allocate@?$allocator@D@std@@QEAAPEAD_K@Z	; std::allocator<char>::allocate
PUBLIC	?max_size@?$_Wrap_alloc@V?$allocator@D@std@@@std@@QEBA_KU_Nil@2@@Z ; std::_Wrap_alloc<std::allocator<char> >::max_size
PUBLIC	?max_size@?$basic_string@DU?$char_traits@D@std@@V?$allocator@D@2@@std@@QEBA_KXZ ; std::basic_string<char,std::char_traits<char>,std::allocator<char> >::max_size
PUBLIC	?allocate@?$_Wrap_alloc@V?$allocator@D@std@@@std@@QEAAPEAD_K@Z ; std::_Wrap_alloc<std::allocator<char> >::allocate
PUBLIC	?max_size@?$allocator@Vthread@std@@@std@@QEBA_KXZ ; std::allocator<std::thread>::max_size
PUBLIC	?_Get_second@?$_Compressed_pair@U?$_Wrap_alloc@V?$allocator@Vthread@std@@@std@@@std@@V?$_Vector_val@U?$_Simple_types@Vthread@std@@@std@@@2@$00@std@@QEBAAEBV?$_Vector_val@U?$_Simple_types@Vthread@std@@@std@@@2@XZ ; std::_Compressed_pair<std::_Wrap_alloc<std::allocator<std::thread> >,std::_Vector_val<std::_Simple_types<std::thread> >,1>::_Get_second
PUBLIC	??0?$allocator@D@std@@QEAA@AEBV01@@Z		; std::allocator<char>::allocator<char>
PUBLIC	?deallocate@?$allocator@D@std@@QEAAXPEAD_K@Z	; std::allocator<char>::deallocate
PUBLIC	?erase@?$basic_string@DU?$char_traits@D@std@@V?$allocator@D@2@@std@@QEAAAEAV12@_K@Z ; std::basic_string<char,std::char_traits<char>,std::allocator<char> >::erase
PUBLIC	?erase@?$basic_string@DU?$char_traits@D@std@@V?$allocator@D@2@@std@@QEAAAEAV12@_K0@Z ; std::basic_string<char,std::char_traits<char>,std::allocator<char> >::erase
PUBLIC	?_Copy@?$basic_string@DU?$char_traits@D@std@@V?$allocator@D@2@@std@@QEAAX_K@Z ; std::basic_string<char,std::char_traits<char>,std::allocator<char> >::_Copy
PUBLIC	?_Xran@?$basic_string@DU?$char_traits@D@std@@V?$allocator@D@2@@std@@SAXXZ ; std::basic_string<char,std::char_traits<char>,std::allocator<char> >::_Xran
PUBLIC	?_Orphan_all@?$_String_alloc@U?$_String_base_types@DV?$allocator@D@std@@@std@@@std@@QEAAXXZ ; std::_String_alloc<std::_String_base_types<char,std::allocator<char> > >::_Orphan_all
PUBLIC	?_Get_second@?$_Compressed_pair@U?$_Wrap_alloc@V?$allocator@D@std@@@std@@V?$_String_val@U?$_Simple_types@D@std@@@2@$00@std@@QEAAAEAV?$_String_val@U?$_Simple_types@D@std@@@2@XZ ; std::_Compressed_pair<std::_Wrap_alloc<std::allocator<char> >,std::_String_val<std::_Simple_types<char> >,1>::_Get_second
PUBLIC	?_Get_second@?$_Compressed_pair@U?$_Wrap_alloc@V?$allocator@D@std@@@std@@V?$_String_val@U?$_Simple_types@D@std@@@2@$00@std@@QEBAAEBV?$_String_val@U?$_Simple_types@D@std@@@2@XZ ; std::_Compressed_pair<std::_Wrap_alloc<std::allocator<char> >,std::_String_val<std::_Simple_types<char> >,1>::_Get_second
PUBLIC	?deallocate@?$allocator@Vthread@std@@@std@@QEAAXPEAVthread@2@_K@Z ; std::allocator<std::thread>::deallocate
PUBLIC	?allocate@?$allocator@Vthread@std@@@std@@QEAAPEAVthread@2@_K@Z ; std::allocator<std::thread>::allocate
PUBLIC	?_Umove_if_noexcept1@?$vector@Vthread@std@@V?$allocator@Vthread@std@@@2@@std@@AEAAXPEAVthread@2@00U?$integral_constant@_N$00@2@@Z ; std::vector<std::thread,std::allocator<std::thread> >::_Umove_if_noexcept1
PUBLIC	?_Get_data@?$_Vector_alloc@U?$_Vec_base_types@Vthread@std@@V?$allocator@Vthread@std@@@2@@std@@@std@@QEBAAEBV?$_Vector_val@U?$_Simple_types@Vthread@std@@@std@@@2@XZ ; std::_Vector_alloc<std::_Vec_base_types<std::thread,std::allocator<std::thread> > >::_Get_data
PUBLIC	?_Mylast@?$_Vector_alloc@U?$_Vec_base_types@Vthread@std@@V?$allocator@Vthread@std@@@2@@std@@@std@@QEBAAEBQEAVthread@2@XZ ; std::_Vector_alloc<std::_Vec_base_types<std::thread,std::allocator<std::thread> > >::_Mylast
PUBLIC	?max_size@?$allocator_traits@V?$allocator@Vthread@std@@@std@@@std@@SA_KAEBV?$allocator@Vthread@std@@@2@@Z ; std::allocator_traits<std::allocator<std::thread> >::max_size
PUBLIC	?_Get_first@?$_Compressed_pair@U?$_Wrap_alloc@V?$allocator@Vthread@std@@@std@@@std@@V?$_Vector_val@U?$_Simple_types@Vthread@std@@@std@@@2@$00@std@@QEAAAEAU?$_Wrap_alloc@V?$allocator@Vthread@std@@@std@@@2@XZ ; std::_Compressed_pair<std::_Wrap_alloc<std::allocator<std::thread> >,std::_Vector_val<std::_Simple_types<std::thread> >,1>::_Get_first
PUBLIC	?_Get_first@?$_Compressed_pair@U?$_Wrap_alloc@V?$allocator@Vthread@std@@@std@@@std@@V?$_Vector_val@U?$_Simple_types@Vthread@std@@@std@@@2@$00@std@@QEBAAEBU?$_Wrap_alloc@V?$allocator@Vthread@std@@@std@@@2@XZ ; std::_Compressed_pair<std::_Wrap_alloc<std::allocator<std::thread> >,std::_Vector_val<std::_Simple_types<std::thread> >,1>::_Get_first
PUBLIC	?assign@?$basic_string@DU?$char_traits@D@std@@V?$allocator@D@2@@std@@QEAAAEAV12@AEBV12@_K_K@Z ; std::basic_string<char,std::char_traits<char>,std::allocator<char> >::assign
PUBLIC	?assign@?$basic_string@DU?$char_traits@D@std@@V?$allocator@D@2@@std@@QEAAAEAV12@QEBD_K@Z ; std::basic_string<char,std::char_traits<char>,std::allocator<char> >::assign
PUBLIC	?_Clamp_suffix_size@?$basic_string@DU?$char_traits@D@std@@V?$allocator@D@2@@std@@QEBA_K_K0@Z ; std::basic_string<char,std::char_traits<char>,std::allocator<char> >::_Clamp_suffix_size
PUBLIC	?_Eos@?$basic_string@DU?$char_traits@D@std@@V?$allocator@D@2@@std@@QEAAX_K@Z ; std::basic_string<char,std::char_traits<char>,std::allocator<char> >::_Eos
PUBLIC	?_Grow@?$basic_string@DU?$char_traits@D@std@@V?$allocator@D@2@@std@@QEAA_N_K@Z ; std::basic_string<char,std::char_traits<char>,std::allocator<char> >::_Grow
PUBLIC	?_Inside@?$basic_string@DU?$char_traits@D@std@@V?$allocator@D@2@@std@@QEBA_NQEBD@Z ; std::basic_string<char,std::char_traits<char>,std::allocator<char> >::_Inside
PUBLIC	?_Xlen@?$basic_string@DU?$char_traits@D@std@@V?$allocator@D@2@@std@@SAXXZ ; std::basic_string<char,std::char_traits<char>,std::allocator<char> >::_Xlen
PUBLIC	?_Check_offset@?$basic_string@DU?$char_traits@D@std@@V?$allocator@D@2@@std@@QEBAX_K@Z ; std::basic_string<char,std::char_traits<char>,std::allocator<char> >::_Check_offset
PUBLIC	?_Get_data@?$_String_alloc@U?$_String_base_types@DV?$allocator@D@std@@@std@@@std@@QEAAAEAV?$_String_val@U?$_Simple_types@D@std@@@2@XZ ; std::_String_alloc<std::_String_base_types<char,std::allocator<char> > >::_Get_data
PUBLIC	?_Get_data@?$_String_alloc@U?$_String_base_types@DV?$allocator@D@std@@@std@@@std@@QEBAAEBV?$_String_val@U?$_Simple_types@D@std@@@2@XZ ; std::_String_alloc<std::_String_base_types<char,std::allocator<char> > >::_Get_data
PUBLIC	?_Mysize@?$_String_alloc@U?$_String_base_types@DV?$allocator@D@std@@@std@@@std@@QEAAAEA_KXZ ; std::_String_alloc<std::_String_base_types<char,std::allocator<char> > >::_Mysize
PUBLIC	?_Myres@?$_String_alloc@U?$_String_base_types@DV?$allocator@D@std@@@std@@@std@@QEAAAEA_KXZ ; std::_String_alloc<std::_String_base_types<char,std::allocator<char> > >::_Myres
PUBLIC	?deallocate@?$_Wrap_alloc@V?$allocator@D@std@@@std@@QEAAXPEAD_K@Z ; std::_Wrap_alloc<std::allocator<char> >::deallocate
PUBLIC	?select_on_container_copy_construction@?$allocator_traits@V?$allocator@D@std@@@std@@SA?AV?$allocator@D@2@AEBV32@@Z ; std::allocator_traits<std::allocator<char> >::select_on_container_copy_construction
PUBLIC	?_Myptr@?$_String_val@U?$_Simple_types@D@std@@@std@@QEAAPEADXZ ; std::_String_val<std::_Simple_types<char> >::_Myptr
PUBLIC	?_Myptr@?$_String_val@U?$_Simple_types@D@std@@@std@@QEBAPEBDXZ ; std::_String_val<std::_Simple_types<char> >::_Myptr
PUBLIC	?_Large_string_engaged@?$_String_val@U?$_Simple_types@D@std@@@std@@QEBA_NXZ ; std::_String_val<std::_Simple_types<char> >::_Large_string_engaged
PUBLIC	?_Get_first@?$_Compressed_pair@U?$_Wrap_alloc@V?$allocator@D@std@@@std@@V?$_String_val@U?$_Simple_types@D@std@@@2@$00@std@@QEAAAEAU?$_Wrap_alloc@V?$allocator@D@std@@@2@XZ ; std::_Compressed_pair<std::_Wrap_alloc<std::allocator<char> >,std::_String_val<std::_Simple_types<char> >,1>::_Get_first
PUBLIC	?_Get_first@?$_Compressed_pair@U?$_Wrap_alloc@V?$allocator@D@std@@@std@@V?$_String_val@U?$_Simple_types@D@std@@@2@$00@std@@QEBAAEBU?$_Wrap_alloc@V?$allocator@D@std@@@2@XZ ; std::_Compressed_pair<std::_Wrap_alloc<std::allocator<char> >,std::_String_val<std::_Simple_types<char> >,1>::_Get_first
PUBLIC	?size@?$vector@Vthread@std@@V?$allocator@Vthread@std@@@2@@std@@QEBA_KXZ ; std::vector<std::thread,std::allocator<std::thread> >::size
PUBLIC	?_Umove_if_noexcept@?$vector@Vthread@std@@V?$allocator@Vthread@std@@@2@@std@@AEAAXPEAVthread@2@00@Z ; std::vector<std::thread,std::allocator<std::thread> >::_Umove_if_noexcept
PUBLIC	?_Destroy@?$vector@Vthread@std@@V?$allocator@Vthread@std@@@2@@std@@AEAAXPEAVthread@2@0@Z ; std::vector<std::thread,std::allocator<std::thread> >::_Destroy
PUBLIC	?_Change_array@?$vector@Vthread@std@@V?$allocator@Vthread@std@@@2@@std@@AEAAXQEAVthread@2@_K1@Z ; std::vector<std::thread,std::allocator<std::thread> >::_Change_array
PUBLIC	?_Orphan_all@?$_Vector_alloc@U?$_Vec_base_types@Vthread@std@@V?$allocator@Vthread@std@@@2@@std@@@std@@QEAAXXZ ; std::_Vector_alloc<std::_Vec_base_types<std::thread,std::allocator<std::thread> > >::_Orphan_all
PUBLIC	?_Getal@?$_Vector_alloc@U?$_Vec_base_types@Vthread@std@@V?$allocator@Vthread@std@@@2@@std@@@std@@QEAAAEAU?$_Wrap_alloc@V?$allocator@Vthread@std@@@std@@@2@XZ ; std::_Vector_alloc<std::_Vec_base_types<std::thread,std::allocator<std::thread> > >::_Getal
PUBLIC	?_Getal@?$_Vector_alloc@U?$_Vec_base_types@Vthread@std@@V?$allocator@Vthread@std@@@2@@std@@@std@@QEBAAEBU?$_Wrap_alloc@V?$allocator@Vthread@std@@@std@@@2@XZ ; std::_Vector_alloc<std::_Vec_base_types<std::thread,std::allocator<std::thread> > >::_Getal
PUBLIC	?_Myfirst@?$_Vector_alloc@U?$_Vec_base_types@Vthread@std@@V?$allocator@Vthread@std@@@2@@std@@@std@@QEBAAEBQEAVthread@2@XZ ; std::_Vector_alloc<std::_Vec_base_types<std::thread,std::allocator<std::thread> > >::_Myfirst
PUBLIC	?_Myend@?$_Vector_alloc@U?$_Vec_base_types@Vthread@std@@V?$allocator@Vthread@std@@@2@@std@@@std@@QEAAAEAPEAVthread@2@XZ ; std::_Vector_alloc<std::_Vec_base_types<std::thread,std::allocator<std::thread> > >::_Myend
PUBLIC	?_Myend@?$_Vector_alloc@U?$_Vec_base_types@Vthread@std@@V?$allocator@Vthread@std@@@2@@std@@@std@@QEBAAEBQEAVthread@2@XZ ; std::_Vector_alloc<std::_Vec_base_types<std::thread,std::allocator<std::thread> > >::_Myend
PUBLIC	?allocate@?$_Wrap_alloc@V?$allocator@Vthread@std@@@std@@@std@@QEAAPEAVthread@2@_K@Z ; std::_Wrap_alloc<std::allocator<std::thread> >::allocate
PUBLIC	?deallocate@?$_Wrap_alloc@V?$allocator@Vthread@std@@@std@@@std@@QEAAXPEAVthread@2@_K@Z ; std::_Wrap_alloc<std::allocator<std::thread> >::deallocate
PUBLIC	?max_size@?$_Wrap_alloc@V?$allocator@Vthread@std@@@std@@@std@@QEBA_KU_Nil@2@@Z ; std::_Wrap_alloc<std::allocator<std::thread> >::max_size
PUBLIC	??0?$_Vector_const_iterator@V?$_Vector_val@U?$_Simple_types@Vthread@std@@@std@@@std@@@std@@QEAA@PEAVthread@1@PEBU_Container_base0@1@@Z ; std::_Vector_const_iterator<std::_Vector_val<std::_Simple_types<std::thread> > >::_Vector_const_iterator<std::_Vector_val<std::_Simple_types<std::thread> > >
PUBLIC	?_Compat@?$_Vector_const_iterator@V?$_Vector_val@U?$_Simple_types@Vthread@std@@@std@@@std@@@std@@QEBAXAEBV12@@Z ; std::_Vector_const_iterator<std::_Vector_val<std::_Simple_types<std::thread> > >::_Compat
PUBLIC	?_Get_second@?$_Compressed_pair@U?$_Wrap_alloc@V?$allocator@Vthread@std@@@std@@@std@@V?$_Vector_val@U?$_Simple_types@Vthread@std@@@std@@@2@$00@std@@QEAAAEAV?$_Vector_val@U?$_Simple_types@Vthread@std@@@std@@@2@XZ ; std::_Compressed_pair<std::_Wrap_alloc<std::allocator<std::thread> >,std::_Vector_val<std::_Simple_types<std::thread> >,1>::_Get_second
PUBLIC	?_Assign_rv_contents@?$basic_string@DU?$char_traits@D@std@@V?$allocator@D@2@@std@@QEAAX$$QEAV12@@Z ; std::basic_string<char,std::char_traits<char>,std::allocator<char> >::_Assign_rv_contents
PUBLIC	?_Assign_lv_contents@?$basic_string@DU?$char_traits@D@std@@V?$allocator@D@2@@std@@QEAAXAEBV12@@Z ; std::basic_string<char,std::char_traits<char>,std::allocator<char> >::_Assign_lv_contents
PUBLIC	?append@?$basic_string@DU?$char_traits@D@std@@V?$allocator@D@2@@std@@QEAAAEAV12@AEBV12@_K_K@Z ; std::basic_string<char,std::char_traits<char>,std::allocator<char> >::append
PUBLIC	?append@?$basic_string@DU?$char_traits@D@std@@V?$allocator@D@2@@std@@QEAAAEAV12@QEBD_K@Z ; std::basic_string<char,std::char_traits<char>,std::allocator<char> >::append
PUBLIC	?assign@?$basic_string@DU?$char_traits@D@std@@V?$allocator@D@2@@std@@QEAAAEAV12@QEBD@Z ; std::basic_string<char,std::char_traits<char>,std::allocator<char> >::assign
PUBLIC	?_Tidy_init@?$basic_string@DU?$char_traits@D@std@@V?$allocator@D@2@@std@@QEAAXXZ ; std::basic_string<char,std::char_traits<char>,std::allocator<char> >::_Tidy_init
PUBLIC	?_Tidy_deallocate_only@?$basic_string@DU?$char_traits@D@std@@V?$allocator@D@2@@std@@QEAAXXZ ; std::basic_string<char,std::char_traits<char>,std::allocator<char> >::_Tidy_deallocate_only
PUBLIC	?_Myptr@?$_String_alloc@U?$_String_base_types@DV?$allocator@D@std@@@std@@@std@@QEAAPEADXZ ; std::_String_alloc<std::_String_base_types<char,std::allocator<char> > >::_Myptr
PUBLIC	?_Myptr@?$_String_alloc@U?$_String_base_types@DV?$allocator@D@std@@@std@@@std@@QEBAPEBDXZ ; std::_String_alloc<std::_String_base_types<char,std::allocator<char> > >::_Myptr
PUBLIC	??0?$_String_alloc@U?$_String_base_types@DV?$allocator@D@std@@@std@@@std@@QEAA@XZ ; std::_String_alloc<std::_String_base_types<char,std::allocator<char> > >::_String_alloc<std::_String_base_types<char,std::allocator<char> > >
PUBLIC	?_Getal@?$_String_alloc@U?$_String_base_types@DV?$allocator@D@std@@@std@@@std@@QEAAAEAU?$_Wrap_alloc@V?$allocator@D@std@@@2@XZ ; std::_String_alloc<std::_String_base_types<char,std::allocator<char> > >::_Getal
PUBLIC	?_Getal@?$_String_alloc@U?$_String_base_types@DV?$allocator@D@std@@@std@@@std@@QEBAAEBU?$_Wrap_alloc@V?$allocator@D@std@@@2@XZ ; std::_String_alloc<std::_String_base_types<char,std::allocator<char> > >::_Getal
PUBLIC	?_Mysize@?$_String_alloc@U?$_String_base_types@DV?$allocator@D@std@@@std@@@std@@QEBAAEB_KXZ ; std::_String_alloc<std::_String_base_types<char,std::allocator<char> > >::_Mysize
PUBLIC	?select_on_container_copy_construction@?$_Wrap_alloc@V?$allocator@D@std@@@std@@QEBA?AU12@U_Nil@2@@Z ; std::_Wrap_alloc<std::allocator<char> >::select_on_container_copy_construction
PUBLIC	??1_Bxty@?$_String_val@U?$_Simple_types@D@std@@@std@@QEAA@XZ ; std::_String_val<std::_Simple_types<char> >::_Bxty::~_Bxty
PUBLIC	?_Reallocate_exactly@?$vector@Vthread@std@@V?$allocator@Vthread@std@@@2@@std@@AEAAX_K@Z ; std::vector<std::thread,std::allocator<std::thread> >::_Reallocate_exactly
PUBLIC	?max_size@?$vector@Vthread@std@@V?$allocator@Vthread@std@@@2@@std@@QEBA_KXZ ; std::vector<std::thread,std::allocator<std::thread> >::max_size
PUBLIC	?capacity@?$vector@Vthread@std@@V?$allocator@Vthread@std@@@2@@std@@QEBA_KXZ ; std::vector<std::thread,std::allocator<std::thread> >::capacity
PUBLIC	?_Tidy@?$vector@Vthread@std@@V?$allocator@Vthread@std@@@2@@std@@AEAAXXZ ; std::vector<std::thread,std::allocator<std::thread> >::_Tidy
PUBLIC	?_Xlength@?$vector@Vthread@std@@V?$allocator@Vthread@std@@@2@@std@@CAXXZ ; std::vector<std::thread,std::allocator<std::thread> >::_Xlength
PUBLIC	??0?$_Vector_alloc@U?$_Vec_base_types@Vthread@std@@V?$allocator@Vthread@std@@@2@@std@@@std@@QEAA@XZ ; std::_Vector_alloc<std::_Vec_base_types<std::thread,std::allocator<std::thread> > >::_Vector_alloc<std::_Vec_base_types<std::thread,std::allocator<std::thread> > >
PUBLIC	?_Get_data@?$_Vector_alloc@U?$_Vec_base_types@Vthread@std@@V?$allocator@Vthread@std@@@2@@std@@@std@@QEAAAEAV?$_Vector_val@U?$_Simple_types@Vthread@std@@@std@@@2@XZ ; std::_Vector_alloc<std::_Vec_base_types<std::thread,std::allocator<std::thread> > >::_Get_data
PUBLIC	?_Myfirst@?$_Vector_alloc@U?$_Vec_base_types@Vthread@std@@V?$allocator@Vthread@std@@@2@@std@@@std@@QEAAAEAPEAVthread@2@XZ ; std::_Vector_alloc<std::_Vec_base_types<std::thread,std::allocator<std::thread> > >::_Myfirst
PUBLIC	?_Mylast@?$_Vector_alloc@U?$_Vec_base_types@Vthread@std@@V?$allocator@Vthread@std@@@2@@std@@@std@@QEAAAEAPEAVthread@2@XZ ; std::_Vector_alloc<std::_Vec_base_types<std::thread,std::allocator<std::thread> > >::_Mylast
PUBLIC	??0?$_Vector_iterator@V?$_Vector_val@U?$_Simple_types@Vthread@std@@@std@@@std@@@std@@QEAA@PEAVthread@1@PEBU_Container_base0@1@@Z ; std::_Vector_iterator<std::_Vector_val<std::_Simple_types<std::thread> > >::_Vector_iterator<std::_Vector_val<std::_Simple_types<std::thread> > >
PUBLIC	??D?$_Vector_const_iterator@V?$_Vector_val@U?$_Simple_types@Vthread@std@@@std@@@std@@@std@@QEBAAEBVthread@1@XZ ; std::_Vector_const_iterator<std::_Vector_val<std::_Simple_types<std::thread> > >::operator*
PUBLIC	??E?$_Vector_const_iterator@V?$_Vector_val@U?$_Simple_types@Vthread@std@@@std@@@std@@@std@@QEAAAEAV01@XZ ; std::_Vector_const_iterator<std::_Vector_val<std::_Simple_types<std::thread> > >::operator++
PUBLIC	??8?$_Vector_const_iterator@V?$_Vector_val@U?$_Simple_types@Vthread@std@@@std@@@std@@@std@@QEBA_NAEBV01@@Z ; std::_Vector_const_iterator<std::_Vector_val<std::_Simple_types<std::thread> > >::operator==
PUBLIC	??1?$_String_val@U?$_Simple_types@D@std@@@std@@QEAA@XZ ; std::_String_val<std::_Simple_types<char> >::~_String_val<std::_Simple_types<char> >
PUBLIC	??1?$_Compressed_pair@U?$_Wrap_alloc@V?$allocator@D@std@@@std@@V?$_String_val@U?$_Simple_types@D@std@@@2@$00@std@@QEAA@XZ ; std::_Compressed_pair<std::_Wrap_alloc<std::allocator<char> >,std::_String_val<std::_Simple_types<char> >,1>::~_Compressed_pair<std::_Wrap_alloc<std::allocator<char> >,std::_String_val<std::_Simple_types<char> >,1>
PUBLIC	??1?$_String_alloc@U?$_String_base_types@DV?$allocator@D@std@@@std@@@std@@QEAA@XZ ; std::_String_alloc<std::_String_base_types<char,std::allocator<char> > >::~_String_alloc<std::_String_base_types<char,std::allocator<char> > >
PUBLIC	?count@?$duration@_JU?$ratio@$00$0JIJGIA@@std@@@chrono@std@@QEBA_JXZ ; std::chrono::duration<__int64,std::ratio<1,10000000> >::count
PUBLIC	??0?$time_point@Usystem_clock@chrono@std@@V?$duration@_JU?$ratio@$00$0JIJGIA@@std@@@23@@chrono@std@@QEAA@AEBV?$duration@_JU?$ratio@$00$0JIJGIA@@std@@@12@@Z ; std::chrono::time_point<std::chrono::system_clock,std::chrono::duration<__int64,std::ratio<1,10000000> > >::time_point<std::chrono::system_clock,std::chrono::duration<__int64,std::ratio<1,10000000> > >
PUBLIC	?time_since_epoch@?$time_point@Usystem_clock@chrono@std@@V?$duration@_JU?$ratio@$00$0JIJGIA@@std@@@23@@chrono@std@@QEBA?AV?$duration@_JU?$ratio@$00$0JIJGIA@@std@@@23@XZ ; std::chrono::time_point<std::chrono::system_clock,std::chrono::duration<__int64,std::ratio<1,10000000> > >::time_since_epoch
PUBLIC	??0?$basic_string@DU?$char_traits@D@std@@V?$allocator@D@2@@std@@QEAA@AEBV01@@Z ; std::basic_string<char,std::char_traits<char>,std::allocator<char> >::basic_string<char,std::char_traits<char>,std::allocator<char> >
PUBLIC	??0?$basic_string@DU?$char_traits@D@std@@V?$allocator@D@2@@std@@QEAA@QEBD@Z ; std::basic_string<char,std::char_traits<char>,std::allocator<char> >::basic_string<char,std::char_traits<char>,std::allocator<char> >
PUBLIC	??0?$basic_string@DU?$char_traits@D@std@@V?$allocator@D@2@@std@@QEAA@$$QEAV01@@Z ; std::basic_string<char,std::char_traits<char>,std::allocator<char> >::basic_string<char,std::char_traits<char>,std::allocator<char> >
PUBLIC	??1?$basic_string@DU?$char_traits@D@std@@V?$allocator@D@2@@std@@QEAA@XZ ; std::basic_string<char,std::char_traits<char>,std::allocator<char> >::~basic_string<char,std::char_traits<char>,std::allocator<char> >
PUBLIC	?append@?$basic_string@DU?$char_traits@D@std@@V?$allocator@D@2@@std@@QEAAAEAV12@AEBV12@@Z ; std::basic_string<char,std::char_traits<char>,std::allocator<char> >::append
PUBLIC	?append@?$basic_string@DU?$char_traits@D@std@@V?$allocator@D@2@@std@@QEAAAEAV12@QEBD@Z ; std::basic_string<char,std::char_traits<char>,std::allocator<char> >::append
PUBLIC	?c_str@?$basic_string@DU?$char_traits@D@std@@V?$allocator@D@2@@std@@QEBAPEBDXZ ; std::basic_string<char,std::char_traits<char>,std::allocator<char> >::c_str
PUBLIC	?empty@?$basic_string@DU?$char_traits@D@std@@V?$allocator@D@2@@std@@QEBA_NXZ ; std::basic_string<char,std::char_traits<char>,std::allocator<char> >::empty
PUBLIC	??0?$vector@Vthread@std@@V?$allocator@Vthread@std@@@2@@std@@QEAA@XZ ; std::vector<std::thread,std::allocator<std::thread> >::vector<std::thread,std::allocator<std::thread> >
PUBLIC	??1?$vector@Vthread@std@@V?$allocator@Vthread@std@@@2@@std@@QEAA@XZ ; std::vector<std::thread,std::allocator<std::thread> >::~vector<std::thread,std::allocator<std::thread> >
PUBLIC	?reserve@?$vector@Vthread@std@@V?$allocator@Vthread@std@@@2@@std@@QEAAX_K@Z ; std::vector<std::thread,std::allocator<std::thread> >::reserve
PUBLIC	?begin@?$vector@Vthread@std@@V?$allocator@Vthread@std@@@2@@std@@QEAA?AV?$_Vector_iterator@V?$_Vector_val@U?$_Simple_types@Vthread@std@@@std@@@std@@@2@XZ ; std::vector<std::thread,std::allocator<std::thread> >::begin
PUBLIC	?end@?$vector@Vthread@std@@V?$allocator@Vthread@std@@@2@@std@@QEAA?AV?$_Vector_iterator@V?$_Vector_val@U?$_Simple_types@Vthread@std@@@std@@@std@@@2@XZ ; std::vector<std::thread,std::allocator<std::thread> >::end
PUBLIC	??D?$_Vector_iterator@V?$_Vector_val@U?$_Simple_types@Vthread@std@@@std@@@std@@@std@@QEBAAEAVthread@1@XZ ; std::_Vector_iterator<std::_Vector_val<std::_Simple_types<std::thread> > >::operator*
PUBLIC	??E?$_Vector_iterator@V?$_Vector_val@U?$_Simple_types@Vthread@std@@@std@@@std@@@std@@QEAAAEAV01@XZ ; std::_Vector_iterator<std::_Vector_val<std::_Simple_types<std::thread> > >::operator++
PUBLIC	??9?$_Vector_const_iterator@V?$_Vector_val@U?$_Simple_types@Vthread@std@@@std@@@std@@@std@@QEBA_NAEBV01@@Z ; std::_Vector_const_iterator<std::_Vector_val<std::_Simple_types<std::thread> > >::operator!=
PUBLIC	main
PUBLIC	??8std@@YA_NVid@thread@0@0@Z			; std::operator==
PUBLIC	?get_id@this_thread@std@@YA?AVid@thread@2@XZ	; std::this_thread::get_id
PUBLIC	?get_id@thread@std@@QEBA?AVid@12@XZ		; std::thread::get_id
PUBLIC	?join@thread@std@@QEAAXXZ			; std::thread::join
PUBLIC	??0id@thread@std@@AEAA@I@Z			; std::thread::id::id
PUBLIC	?sleep_until@this_thread@std@@YAXPEBUxtime@@@Z	; std::this_thread::sleep_until
PUBLIC	?joinable@thread@std@@QEBA_NXZ			; std::thread::joinable
PUBLIC	??0thread@std@@QEAA@$$QEAV01@@Z			; std::thread::thread
PUBLIC	??1thread@std@@QEAA@XZ				; std::thread::~thread
PUBLIC	?_Call_func@_Pad@std@@CAIPEAX@Z			; std::_Pad::_Call_func
PUBLIC	?_Release@_Pad@std@@QEAAXXZ			; std::_Pad::_Release
PUBLIC	?_Launch@_Pad@std@@QEAAXPEAU_Thrd_imp_t@@@Z	; std::_Pad::_Launch
PUBLIC	??1_Pad@std@@QEAA@XZ				; std::_Pad::~_Pad
PUBLIC	??0_Pad@std@@QEAA@XZ				; std::_Pad::_Pad
PUBLIC	?_Release@_Auto_mtx@std@@QEAAXXZ		; std::_Auto_mtx::_Release
PUBLIC	??1_Auto_mtx@std@@QEAA@XZ			; std::_Auto_mtx::~_Auto_mtx
PUBLIC	??0_Auto_mtx@std@@QEAA@PEAU_Mtx_internal_imp_t@@@Z ; std::_Auto_mtx::_Auto_mtx
PUBLIC	?_Release@_Auto_cnd@std@@QEAAXXZ		; std::_Auto_cnd::_Release
PUBLIC	??1_Auto_cnd@std@@QEAA@XZ			; std::_Auto_cnd::~_Auto_cnd
PUBLIC	??0_Auto_cnd@std@@QEAA@PEAU_Cnd_internal_imp_t@@@Z ; std::_Auto_cnd::_Auto_cnd
PUBLIC	?_Cnd_signalX@std@@YAHPEAU_Cnd_internal_imp_t@@@Z ; std::_Cnd_signalX
PUBLIC	?_Cnd_waitX@std@@YAHPEAU_Cnd_internal_imp_t@@PEAU_Mtx_internal_imp_t@@@Z ; std::_Cnd_waitX
PUBLIC	?_Cnd_initX@std@@YAHPEAPEAU_Cnd_internal_imp_t@@@Z ; std::_Cnd_initX
PUBLIC	?_Mtx_unlockX@std@@YAHPEAU_Mtx_internal_imp_t@@@Z ; std::_Mtx_unlockX
PUBLIC	?_Mtx_lockX@std@@YAHPEAU_Mtx_internal_imp_t@@@Z	; std::_Mtx_lockX
PUBLIC	?_Mtx_initX@std@@YAHPEAPEAU_Mtx_internal_imp_t@@H@Z ; std::_Mtx_initX
PUBLIC	?_Thrd_startX@std@@YAHPEAU_Thrd_imp_t@@P6AIPEAX@Z1@Z ; std::_Thrd_startX
PUBLIC	?_Check_C_return@std@@YAHH@Z			; std::_Check_C_return
PUBLIC	??0_System_error@std@@QEAA@AEBV01@@Z		; std::_System_error::_System_error
PUBLIC	??0system_error@std@@QEAA@AEBV01@@Z		; std::system_error::system_error
PUBLIC	??0failure@ios_base@std@@QEAA@AEBV012@@Z	; std::ios_base::failure::failure
PUBLIC	??1failure@ios_base@std@@UEAA@XZ		; std::ios_base::failure::~failure
PUBLIC	??_Gfailure@ios_base@std@@UEAAPEAXI@Z		; std::ios_base::failure::`scalar deleting destructor'
PUBLIC	?width@ios_base@std@@QEAA_J_J@Z			; std::ios_base::width
PUBLIC	?width@ios_base@std@@QEBA_JXZ			; std::ios_base::width
PUBLIC	?flags@ios_base@std@@QEBAHXZ			; std::ios_base::flags
PUBLIC	?good@ios_base@std@@QEBA_NXZ			; std::ios_base::good
PUBLIC	?rdstate@ios_base@std@@QEBAHXZ			; std::ios_base::rdstate
PUBLIC	?clear@ios_base@std@@QEAAXH_N@Z			; std::ios_base::clear
PUBLIC	??0failure@ios_base@std@@QEAA@PEBDAEBVerror_code@2@@Z ; std::ios_base::failure::failure
PUBLIC	?iostream_category@std@@YAAEBVerror_category@1@XZ ; std::iostream_category
PUBLIC	??1_Iostream_error_category@std@@UEAA@XZ	; std::_Iostream_error_category::~_Iostream_error_category
PUBLIC	??_G_Iostream_error_category@std@@UEAAPEAXI@Z	; std::_Iostream_error_category::`scalar deleting destructor'
PUBLIC	?message@_Iostream_error_category@std@@UEBA?AV?$basic_string@DU?$char_traits@D@std@@V?$allocator@D@2@@2@H@Z ; std::_Iostream_error_category::message
PUBLIC	?name@_Iostream_error_category@std@@UEBAPEBDXZ	; std::_Iostream_error_category::name
PUBLIC	??0_Iostream_error_category@std@@QEAA@XZ	; std::_Iostream_error_category::_Iostream_error_category
PUBLIC	??1_Generic_error_category@std@@UEAA@XZ		; std::_Generic_error_category::~_Generic_error_category
PUBLIC	??_G_Generic_error_category@std@@UEAAPEAXI@Z	; std::_Generic_error_category::`scalar deleting destructor'
PUBLIC	?message@_Generic_error_category@std@@UEBA?AV?$basic_string@DU?$char_traits@D@std@@V?$allocator@D@2@@2@H@Z ; std::_Generic_error_category::message
PUBLIC	?name@_Generic_error_category@std@@UEBAPEBDXZ	; std::_Generic_error_category::name
PUBLIC	??0_Generic_error_category@std@@QEAA@XZ		; std::_Generic_error_category::_Generic_error_category
PUBLIC	??1system_error@std@@UEAA@XZ			; std::system_error::~system_error
PUBLIC	??_Gsystem_error@std@@UEAAPEAXI@Z		; std::system_error::`scalar deleting destructor'
PUBLIC	??0system_error@std@@QEAA@Verror_code@1@PEBD@Z	; std::system_error::system_error
PUBLIC	??1_System_error@std@@UEAA@XZ			; std::_System_error::~_System_error
PUBLIC	??_G_System_error@std@@UEAAPEAXI@Z		; std::_System_error::`scalar deleting destructor'
PUBLIC	??0_System_error@std@@IEAA@Verror_code@1@AEBV?$basic_string@DU?$char_traits@D@std@@V?$allocator@D@2@@1@@Z ; std::_System_error::_System_error
PUBLIC	?_Makestr@_System_error@std@@CA?AV?$basic_string@DU?$char_traits@D@std@@V?$allocator@D@2@@2@Verror_code@2@V32@@Z ; std::_System_error::_Makestr
PUBLIC	?make_error_code@std@@YA?AVerror_code@1@W4io_errc@1@@Z ; std::make_error_code
PUBLIC	?equivalent@error_category@std@@UEBA_NAEBVerror_code@2@H@Z ; std::error_category::equivalent
PUBLIC	?equivalent@error_category@std@@UEBA_NHAEBVerror_condition@2@@Z ; std::error_category::equivalent
PUBLIC	?default_error_condition@error_category@std@@UEBA?AVerror_condition@2@H@Z ; std::error_category::default_error_condition
PUBLIC	??8std@@YA_NAEBVerror_condition@0@0@Z		; std::operator==
PUBLIC	?category@error_condition@std@@QEBAAEBVerror_category@2@XZ ; std::error_condition::category
PUBLIC	?value@error_condition@std@@QEBAHXZ		; std::error_condition::value
PUBLIC	??0error_condition@std@@QEAA@HAEBVerror_category@1@@Z ; std::error_condition::error_condition
PUBLIC	?message@error_code@std@@QEBA?AV?$basic_string@DU?$char_traits@D@std@@V?$allocator@D@2@@2@XZ ; std::error_code::message
PUBLIC	?category@error_code@std@@QEBAAEBVerror_category@2@XZ ; std::error_code::category
PUBLIC	?value@error_code@std@@QEBAHXZ			; std::error_code::value
PUBLIC	??0error_code@std@@QEAA@HAEBVerror_category@1@@Z ; std::error_code::error_code
PUBLIC	??_Gerror_category@std@@UEAAPEAXI@Z		; std::error_category::`scalar deleting destructor'
PUBLIC	??8error_category@std@@QEBA_NAEBV01@@Z		; std::error_category::operator==
PUBLIC	??1error_category@std@@UEAA@XZ			; std::error_category::~error_category
PUBLIC	??0error_category@std@@QEAA@XZ			; std::error_category::error_category
PUBLIC	??0runtime_error@std@@QEAA@AEBV01@@Z		; std::runtime_error::runtime_error
PUBLIC	??1runtime_error@std@@UEAA@XZ			; std::runtime_error::~runtime_error
PUBLIC	??_Gruntime_error@std@@UEAAPEAXI@Z		; std::runtime_error::`scalar deleting destructor'
PUBLIC	??0runtime_error@std@@QEAA@AEBV?$basic_string@DU?$char_traits@D@std@@V?$allocator@D@2@@1@@Z ; std::runtime_error::runtime_error
PUBLIC	?now@system_clock@chrono@std@@SA?AV?$time_point@Usystem_clock@chrono@std@@V?$duration@_JU?$ratio@$00$0JIJGIA@@std@@@23@@23@XZ ; std::chrono::system_clock::now
PUBLIC	?_Deallocate@std@@YAXPEAX_K1@Z			; std::_Deallocate
PUBLIC	?_Allocate@std@@YAPEAX_K0_N@Z			; std::_Allocate
PUBLIC	?_Adopt@_Iterator_base0@std@@QEAAXPEBX@Z	; std::_Iterator_base0::_Adopt
PUBLIC	?_Orphan_all@_Container_base0@std@@QEAAXXZ	; std::_Container_base0::_Orphan_all
PUBLIC	?eof@?$char_traits@D@std@@SAHXZ			; std::char_traits<char>::eof
PUBLIC	?eq_int_type@?$char_traits@D@std@@SA_NAEBH0@Z	; std::char_traits<char>::eq_int_type
PUBLIC	?to_int_type@?$char_traits@D@std@@SAHAEBD@Z	; std::char_traits<char>::to_int_type
PUBLIC	?assign@?$char_traits@D@std@@SAXAEADAEBD@Z	; std::char_traits<char>::assign
PUBLIC	?move@?$char_traits@D@std@@SAPEADQEADQEBD_K@Z	; std::char_traits<char>::move
PUBLIC	?copy@?$char_traits@D@std@@SAPEADQEADQEBD_K@Z	; std::char_traits<char>::copy
PUBLIC	?length@?$char_traits@D@std@@SA_KQEBD@Z		; std::char_traits<char>::length
PUBLIC	??3@YAXPEAX0@Z					; operator delete
PUBLIC	??2@YAPEAX_KPEAX@Z				; operator new
PUBLIC	??_Gexception@std@@UEAAPEAXI@Z			; std::exception::`scalar deleting destructor'
PUBLIC	?what@exception@std@@UEBAPEBDXZ			; std::exception::what
PUBLIC	??1exception@std@@UEAA@XZ			; std::exception::~exception
PUBLIC	??0exception@std@@QEAA@AEBV01@@Z		; std::exception::exception
PUBLIC	??0exception@std@@QEAA@QEBD@Z			; std::exception::exception
PUBLIC	?$TSS0@?1???$_Immortalize@V_Iostream_error_category@std@@@std@@YAAEAV_Iostream_error_category@1@XZ@4HA ; TSS0<`template-parameter-2',unsigned int,std::V_Iostream_error_category::mortalize>
PUBLIC	?_Static@?1???$_Immortalize@V_Iostream_error_category@std@@@std@@YAAEAV_Iostream_error_category@1@XZ@4U?$_Immortalizer@V_Iostream_error_category@std@@@1@A ; `std::_Immortalize<std::_Iostream_error_category>'::`2'::_Static
EXTRN	??_E_System_error@std@@UEAAPEAXI@Z:PROC		; std::_System_error::`vector deleting destructor'
EXTRN	??_Eexception@std@@UEAAPEAXI@Z:PROC		; std::exception::`vector deleting destructor'
EXTRN	??_Efailure@ios_base@std@@UEAAPEAXI@Z:PROC	; std::ios_base::failure::`vector deleting destructor'
EXTRN	??_E_Iostream_error_category@std@@UEAAPEAXI@Z:PROC ; std::_Iostream_error_category::`vector deleting destructor'
EXTRN	??_Esystem_error@std@@UEAAPEAXI@Z:PROC		; std::system_error::`vector deleting destructor'
EXTRN	??_Eruntime_error@std@@UEAAPEAXI@Z:PROC		; std::runtime_error::`vector deleting destructor'
EXTRN	??_Eerror_category@std@@UEAAPEAXI@Z:PROC	; std::error_category::`vector deleting destructor'
EXTRN	??_E_Generic_error_category@std@@UEAAPEAXI@Z:PROC ; std::_Generic_error_category::`vector deleting destructor'
EXTRN	_CxxThrowException:PROC
EXTRN	__GSHandlerCheck:PROC
EXTRN	__GSHandlerCheck_EH:PROC
EXTRN	memcpy:PROC
EXTRN	__security_cookie:QWORD
EXTRN	_tls_index:DWORD
;	COMDAT ?$TSS0@?1???$_Immortalize@V_Iostream_error_category@std@@@std@@YAAEAV_Iostream_error_category@1@XZ@4HA
_BSS	SEGMENT
?$TSS0@?1???$_Immortalize@V_Iostream_error_category@std@@@std@@YAAEAV_Iostream_error_category@1@XZ@4HA DD 01H DUP (?) ; TSS0<`template-parameter-2',unsigned int,std::V_Iostream_error_category::mortalize>
_BSS	ENDS
;	COMDAT ?_Static@?1???$_Immortalize@V_Iostream_error_category@std@@@std@@YAAEAV_Iostream_error_category@1@XZ@4U?$_Immortalizer@V_Iostream_error_category@std@@@1@A
_BSS	SEGMENT
?_Static@?1???$_Immortalize@V_Iostream_error_category@std@@@std@@YAAEAV_Iostream_error_category@1@XZ@4U?$_Immortalizer@V_Iostream_error_category@std@@@1@A DB 010H DUP (?) ; `std::_Immortalize<std::_Iostream_error_category>'::`2'::_Static
_BSS	ENDS
;	COMDAT pdata
pdata	SEGMENT
$pdata$??$?0V?$unique_ptr@V?$tuple@V<lambda_e77d7e1e559843f44c4e0b6d970cdb28>@@@std@@U?$default_delete@V?$tuple@V<lambda_e77d7e1e559843f44c4e0b6d970cdb28>@@@std@@@2@@std@@@?$_LaunchPad@V?$unique_ptr@V?$tuple@V<lambda_e77d7e1e559843f44c4e0b6d970cdb28>@@@std@@U?$default_delete@V?$tuple@V<lambda_e77d7e1e559843f44c4e0b6d970cdb28>@@@std@@@2@@std@@@std@@QEAA@$$QEAV?$unique_ptr@V?$tuple@V<lambda_e77d7e1e559843f44c4e0b6d970cdb28>@@@std@@U?$default_delete@V?$tuple@V<lambda_e77d7e1e559843f44c4e0b6d970cdb28>@@@std@@@2@@1@@Z DD imagerel ??$?0V?$unique_ptr@V?$tuple@V<lambda_e77d7e1e559843f44c4e0b6d970cdb28>@@@std@@U?$default_delete@V?$tuple@V<lambda_e77d7e1e559843f44c4e0b6d970cdb28>@@@std@@@2@@std@@@?$_LaunchPad@V?$unique_ptr@V?$tuple@V<lambda_e77d7e1e559843f44c4e0b6d970cdb28>@@@std@@U?$default_delete@V?$tuple@V<lambda_e77d7e1e559843f44c4e0b6d970cdb28>@@@std@@@2@@std@@@std@@QEAA@$$QEAV?$unique_ptr@V?$tuple@V<lambda_e77d7e1e559843f44c4e0b6d970cdb28>@@@std@@U?$default_delete@V?$tuple@V<lambda_e77d7e1e559843f44c4e0b6d970cdb28>@@@std@@@2@@1@@Z
	DD	imagerel ??$?0V?$unique_ptr@V?$tuple@V<lambda_e77d7e1e559843f44c4e0b6d970cdb28>@@@std@@U?$default_delete@V?$tuple@V<lambda_e77d7e1e559843f44c4e0b6d970cdb28>@@@std@@@2@@std@@@?$_LaunchPad@V?$unique_ptr@V?$tuple@V<lambda_e77d7e1e559843f44c4e0b6d970cdb28>@@@std@@U?$default_delete@V?$tuple@V<lambda_e77d7e1e559843f44c4e0b6d970cdb28>@@@std@@@2@@std@@@std@@QEAA@$$QEAV?$unique_ptr@V?$tuple@V<lambda_e77d7e1e559843f44c4e0b6d970cdb28>@@@std@@U?$default_delete@V?$tuple@V<lambda_e77d7e1e559843f44c4e0b6d970cdb28>@@@std@@@2@@1@@Z+59
	DD	imagerel $unwind$??$?0V?$unique_ptr@V?$tuple@V<lambda_e77d7e1e559843f44c4e0b6d970cdb28>@@@std@@U?$default_delete@V?$tuple@V<lambda_e77d7e1e559843f44c4e0b6d970cdb28>@@@std@@@2@@std@@@?$_LaunchPad@V?$unique_ptr@V?$tuple@V<lambda_e77d7e1e559843f44c4e0b6d970cdb28>@@@std@@U?$default_delete@V?$tuple@V<lambda_e77d7e1e559843f44c4e0b6d970cdb28>@@@std@@@2@@std@@@std@@QEAA@$$QEAV?$unique_ptr@V?$tuple@V<lambda_e77d7e1e559843f44c4e0b6d970cdb28>@@@std@@U?$default_delete@V?$tuple@V<lambda_e77d7e1e559843f44c4e0b6d970cdb28>@@@std@@@2@@1@@Z
pdata	ENDS
;	COMDAT pdata
pdata	SEGMENT
$pdata$?_Run@?$_LaunchPad@V?$unique_ptr@V?$tuple@V<lambda_e77d7e1e559843f44c4e0b6d970cdb28>@@@std@@U?$default_delete@V?$tuple@V<lambda_e77d7e1e559843f44c4e0b6d970cdb28>@@@std@@@2@@std@@@std@@CAXPEAV12@@Z DD imagerel ?_Run@?$_LaunchPad@V?$unique_ptr@V?$tuple@V<lambda_e77d7e1e559843f44c4e0b6d970cdb28>@@@std@@U?$default_delete@V?$tuple@V<lambda_e77d7e1e559843f44c4e0b6d970cdb28>@@@std@@@2@@std@@@std@@CAXPEAV12@@Z
	DD	imagerel ?_Run@?$_LaunchPad@V?$unique_ptr@V?$tuple@V<lambda_e77d7e1e559843f44c4e0b6d970cdb28>@@@std@@U?$default_delete@V?$tuple@V<lambda_e77d7e1e559843f44c4e0b6d970cdb28>@@@std@@@2@@std@@@std@@CAXPEAV12@@Z+141
	DD	imagerel $unwind$?_Run@?$_LaunchPad@V?$unique_ptr@V?$tuple@V<lambda_e77d7e1e559843f44c4e0b6d970cdb28>@@@std@@U?$default_delete@V?$tuple@V<lambda_e77d7e1e559843f44c4e0b6d970cdb28>@@@std@@@2@@std@@@std@@CAXPEAV12@@Z
pdata	ENDS
;	COMDAT pdata
pdata	SEGMENT
$pdata$??1?$_LaunchPad@V?$unique_ptr@V?$tuple@V<lambda_e77d7e1e559843f44c4e0b6d970cdb28>@@@std@@U?$default_delete@V?$tuple@V<lambda_e77d7e1e559843f44c4e0b6d970cdb28>@@@std@@@2@@std@@@std@@QEAA@XZ DD imagerel ??1?$_LaunchPad@V?$unique_ptr@V?$tuple@V<lambda_e77d7e1e559843f44c4e0b6d970cdb28>@@@std@@U?$default_delete@V?$tuple@V<lambda_e77d7e1e559843f44c4e0b6d970cdb28>@@@std@@@2@@std@@@std@@QEAA@XZ
	DD	imagerel ??1?$_LaunchPad@V?$unique_ptr@V?$tuple@V<lambda_e77d7e1e559843f44c4e0b6d970cdb28>@@@std@@U?$default_delete@V?$tuple@V<lambda_e77d7e1e559843f44c4e0b6d970cdb28>@@@std@@@2@@std@@@std@@QEAA@XZ+111
	DD	imagerel $unwind$??1?$_LaunchPad@V?$unique_ptr@V?$tuple@V<lambda_e77d7e1e559843f44c4e0b6d970cdb28>@@@std@@U?$default_delete@V?$tuple@V<lambda_e77d7e1e559843f44c4e0b6d970cdb28>@@@std@@@2@@std@@@std@@QEAA@XZ
pdata	ENDS
;	COMDAT pdata
pdata	SEGMENT
$pdata$??$_Launch@V?$unique_ptr@V?$tuple@V<lambda_e77d7e1e559843f44c4e0b6d970cdb28>@@@std@@U?$default_delete@V?$tuple@V<lambda_e77d7e1e559843f44c4e0b6d970cdb28>@@@std@@@2@@std@@@std@@YAXPEAU_Thrd_imp_t@@$$QEAV?$unique_ptr@V?$tuple@V<lambda_e77d7e1e559843f44c4e0b6d970cdb28>@@@std@@U?$default_delete@V?$tuple@V<lambda_e77d7e1e559843f44c4e0b6d970cdb28>@@@std@@@2@@0@@Z DD imagerel ??$_Launch@V?$unique_ptr@V?$tuple@V<lambda_e77d7e1e559843f44c4e0b6d970cdb28>@@@std@@U?$default_delete@V?$tuple@V<lambda_e77d7e1e559843f44c4e0b6d970cdb28>@@@std@@@2@@std@@@std@@YAXPEAU_Thrd_imp_t@@$$QEAV?$unique_ptr@V?$tuple@V<lambda_e77d7e1e559843f44c4e0b6d970cdb28>@@@std@@U?$default_delete@V?$tuple@V<lambda_e77d7e1e559843f44c4e0b6d970cdb28>@@@std@@@2@@0@@Z
	DD	imagerel ??$_Launch@V?$unique_ptr@V?$tuple@V<lambda_e77d7e1e559843f44c4e0b6d970cdb28>@@@std@@U?$default_delete@V?$tuple@V<lambda_e77d7e1e559843f44c4e0b6d970cdb28>@@@std@@@2@@std@@@std@@YAXPEAU_Thrd_imp_t@@$$QEAV?$unique_ptr@V?$tuple@V<lambda_e77d7e1e559843f44c4e0b6d970cdb28>@@@std@@U?$default_delete@V?$tuple@V<lambda_e77d7e1e559843f44c4e0b6d970cdb28>@@@std@@@2@@0@@Z+347
	DD	imagerel $unwind$??$_Launch@V?$unique_ptr@V?$tuple@V<lambda_e77d7e1e559843f44c4e0b6d970cdb28>@@@std@@U?$default_delete@V?$tuple@V<lambda_e77d7e1e559843f44c4e0b6d970cdb28>@@@std@@@2@@std@@@std@@YAXPEAU_Thrd_imp_t@@$$QEAV?$unique_ptr@V?$tuple@V<lambda_e77d7e1e559843f44c4e0b6d970cdb28>@@@std@@U?$default_delete@V?$tuple@V<lambda_e77d7e1e559843f44c4e0b6d970cdb28>@@@std@@@2@@0@@Z
pdata	ENDS
;	COMDAT pdata
pdata	SEGMENT
$pdata$??$make_unique@V?$tuple@V<lambda_e77d7e1e559843f44c4e0b6d970cdb28>@@@std@@V<lambda_e77d7e1e559843f44c4e0b6d970cdb28>@@@std@@YA?AV?$unique_ptr@V?$tuple@V<lambda_e77d7e1e559843f44c4e0b6d970cdb28>@@@std@@U?$default_delete@V?$tuple@V<lambda_e77d7e1e559843f44c4e0b6d970cdb28>@@@std@@@2@@0@$$QEAV<lambda_e77d7e1e559843f44c4e0b6d970cdb28>@@@Z DD imagerel ??$make_unique@V?$tuple@V<lambda_e77d7e1e559843f44c4e0b6d970cdb28>@@@std@@V<lambda_e77d7e1e559843f44c4e0b6d970cdb28>@@@std@@YA?AV?$unique_ptr@V?$tuple@V<lambda_e77d7e1e559843f44c4e0b6d970cdb28>@@@std@@U?$default_delete@V?$tuple@V<lambda_e77d7e1e559843f44c4e0b6d970cdb28>@@@std@@@2@@0@$$QEAV<lambda_e77d7e1e559843f44c4e0b6d970cdb28>@@@Z
	DD	imagerel ??$make_unique@V?$tuple@V<lambda_e77d7e1e559843f44c4e0b6d970cdb28>@@@std@@V<lambda_e77d7e1e559843f44c4e0b6d970cdb28>@@@std@@YA?AV?$unique_ptr@V?$tuple@V<lambda_e77d7e1e559843f44c4e0b6d970cdb28>@@@std@@U?$default_delete@V?$tuple@V<lambda_e77d7e1e559843f44c4e0b6d970cdb28>@@@std@@@2@@0@$$QEAV<lambda_e77d7e1e559843f44c4e0b6d970cdb28>@@@Z+44
	DD	imagerel $unwind$??$make_unique@V?$tuple@V<lambda_e77d7e1e559843f44c4e0b6d970cdb28>@@@std@@V<lambda_e77d7e1e559843f44c4e0b6d970cdb28>@@@std@@YA?AV?$unique_ptr@V?$tuple@V<lambda_e77d7e1e559843f44c4e0b6d970cdb28>@@@std@@U?$default_delete@V?$tuple@V<lambda_e77d7e1e559843f44c4e0b6d970cdb28>@@@std@@@2@@0@$$QEAV<lambda_e77d7e1e559843f44c4e0b6d970cdb28>@@@Z
pdata	ENDS
;	COMDAT pdata
pdata	SEGMENT
$pdata$??$?0V<lambda_e77d7e1e559843f44c4e0b6d970cdb28>@@$$VX@thread@std@@QEAA@$$QEAV<lambda_e77d7e1e559843f44c4e0b6d970cdb28>@@@Z DD imagerel ??$?0V<lambda_e77d7e1e559843f44c4e0b6d970cdb28>@@$$VX@thread@std@@QEAA@$$QEAV<lambda_e77d7e1e559843f44c4e0b6d970cdb28>@@@Z
	DD	imagerel ??$?0V<lambda_e77d7e1e559843f44c4e0b6d970cdb28>@@$$VX@thread@std@@QEAA@$$QEAV<lambda_e77d7e1e559843f44c4e0b6d970cdb28>@@@Z+74
	DD	imagerel $unwind$??$?0V<lambda_e77d7e1e559843f44c4e0b6d970cdb28>@@$$VX@thread@std@@QEAA@$$QEAV<lambda_e77d7e1e559843f44c4e0b6d970cdb28>@@@Z
pdata	ENDS
;	COMDAT pdata
pdata	SEGMENT
$pdata$??_Gthread@std@@QEAAPEAXI@Z DD imagerel $LN15
	DD	imagerel $LN15+24
	DD	imagerel $unwind$??_Gthread@std@@QEAAPEAXI@Z
pdata	ENDS
;	COMDAT pdata
pdata	SEGMENT
$pdata$??$destroy@Vthread@std@@@?$allocator@Vthread@std@@@std@@QEAAXPEAVthread@1@@Z DD imagerel $LN19
	DD	imagerel $LN19+21
	DD	imagerel $unwind$??$destroy@Vthread@std@@@?$allocator@Vthread@std@@@std@@QEAAXPEAVthread@1@@Z
pdata	ENDS
;	COMDAT pdata
pdata	SEGMENT
$pdata$??$construct@Vthread@std@@V<lambda_e77d7e1e559843f44c4e0b6d970cdb28>@@@?$allocator@Vthread@std@@@std@@QEAAXPEAVthread@1@$$QEAV<lambda_e77d7e1e559843f44c4e0b6d970cdb28>@@@Z DD imagerel ??$construct@Vthread@std@@V<lambda_e77d7e1e559843f44c4e0b6d970cdb28>@@@?$allocator@Vthread@std@@@std@@QEAAXPEAVthread@1@$$QEAV<lambda_e77d7e1e559843f44c4e0b6d970cdb28>@@@Z
	DD	imagerel ??$construct@Vthread@std@@V<lambda_e77d7e1e559843f44c4e0b6d970cdb28>@@@?$allocator@Vthread@std@@@std@@QEAAXPEAVthread@1@$$QEAV<lambda_e77d7e1e559843f44c4e0b6d970cdb28>@@@Z+92
	DD	imagerel $unwind$??$construct@Vthread@std@@V<lambda_e77d7e1e559843f44c4e0b6d970cdb28>@@@?$allocator@Vthread@std@@@std@@QEAAXPEAVthread@1@$$QEAV<lambda_e77d7e1e559843f44c4e0b6d970cdb28>@@@Z
pdata	ENDS
;	COMDAT pdata
pdata	SEGMENT
$pdata$?dtor$0@?0???$construct@Vthread@std@@V<lambda_e77d7e1e559843f44c4e0b6d970cdb28>@@@?$allocator@Vthread@std@@@std@@QEAAXPEAVthread@1@$$QEAV<lambda_e77d7e1e559843f44c4e0b6d970cdb28>@@@Z@4HA DD imagerel ?dtor$0@?0???$construct@Vthread@std@@V<lambda_e77d7e1e559843f44c4e0b6d970cdb28>@@@?$allocator@Vthread@std@@@std@@QEAAXPEAVthread@1@$$QEAV<lambda_e77d7e1e559843f44c4e0b6d970cdb28>@@@Z@4HA
	DD	imagerel ?dtor$0@?0???$construct@Vthread@std@@V<lambda_e77d7e1e559843f44c4e0b6d970cdb28>@@@?$allocator@Vthread@std@@@std@@QEAAXPEAVthread@1@$$QEAV<lambda_e77d7e1e559843f44c4e0b6d970cdb28>@@@Z@4HA+28
	DD	imagerel $unwind$?dtor$0@?0???$construct@Vthread@std@@V<lambda_e77d7e1e559843f44c4e0b6d970cdb28>@@@?$allocator@Vthread@std@@@std@@QEAAXPEAVthread@1@$$QEAV<lambda_e77d7e1e559843f44c4e0b6d970cdb28>@@@Z@4HA
pdata	ENDS
;	COMDAT pdata
pdata	SEGMENT
$pdata$??$destroy@Vthread@std@@@?$allocator_traits@V?$allocator@Vthread@std@@@std@@@std@@SAXAEAV?$allocator@Vthread@std@@@1@PEAVthread@1@@Z DD imagerel $LN22
	DD	imagerel $LN22+21
	DD	imagerel $unwind$??$destroy@Vthread@std@@@?$allocator_traits@V?$allocator@Vthread@std@@@std@@@std@@SAXAEAV?$allocator@Vthread@std@@@1@PEAVthread@1@@Z
pdata	ENDS
;	COMDAT pdata
pdata	SEGMENT
$pdata$??$construct@Vthread@std@@V<lambda_e77d7e1e559843f44c4e0b6d970cdb28>@@@?$allocator_traits@V?$allocator@Vthread@std@@@std@@@std@@SAXAEAV?$allocator@Vthread@std@@@1@PEAVthread@1@$$QEAV<lambda_e77d7e1e559843f44c4e0b6d970cdb28>@@@Z DD imagerel ??$construct@Vthread@std@@V<lambda_e77d7e1e559843f44c4e0b6d970cdb28>@@@?$allocator_traits@V?$allocator@Vthread@std@@@std@@@std@@SAXAEAV?$allocator@Vthread@std@@@1@PEAVthread@1@$$QEAV<lambda_e77d7e1e559843f44c4e0b6d970cdb28>@@@Z
	DD	imagerel ??$construct@Vthread@std@@V<lambda_e77d7e1e559843f44c4e0b6d970cdb28>@@@?$allocator_traits@V?$allocator@Vthread@std@@@std@@@std@@SAXAEAV?$allocator@Vthread@std@@@1@PEAVthread@1@$$QEAV<lambda_e77d7e1e559843f44c4e0b6d970cdb28>@@@Z+92
	DD	imagerel $unwind$??$construct@Vthread@std@@V<lambda_e77d7e1e559843f44c4e0b6d970cdb28>@@@?$allocator_traits@V?$allocator@Vthread@std@@@std@@@std@@SAXAEAV?$allocator@Vthread@std@@@1@PEAVthread@1@$$QEAV<lambda_e77d7e1e559843f44c4e0b6d970cdb28>@@@Z
pdata	ENDS
;	COMDAT pdata
pdata	SEGMENT
$pdata$?dtor$1@?0???$construct@Vthread@std@@V<lambda_e77d7e1e559843f44c4e0b6d970cdb28>@@@?$allocator_traits@V?$allocator@Vthread@std@@@std@@@std@@SAXAEAV?$allocator@Vthread@std@@@1@PEAVthread@1@$$QEAV<lambda_e77d7e1e559843f44c4e0b6d970cdb28>@@@Z@4HA DD imagerel ?dtor$1@?0???$construct@Vthread@std@@V<lambda_e77d7e1e559843f44c4e0b6d970cdb28>@@@?$allocator_traits@V?$allocator@Vthread@std@@@std@@@std@@SAXAEAV?$allocator@Vthread@std@@@1@PEAVthread@1@$$QEAV<lambda_e77d7e1e559843f44c4e0b6d970cdb28>@@@Z@4HA
	DD	imagerel ?dtor$1@?0???$construct@Vthread@std@@V<lambda_e77d7e1e559843f44c4e0b6d970cdb28>@@@?$allocator_traits@V?$allocator@Vthread@std@@@std@@@std@@SAXAEAV?$allocator@Vthread@std@@@1@PEAVthread@1@$$QEAV<lambda_e77d7e1e559843f44c4e0b6d970cdb28>@@@Z@4HA+28
	DD	imagerel $unwind$?dtor$1@?0???$construct@Vthread@std@@V<lambda_e77d7e1e559843f44c4e0b6d970cdb28>@@@?$allocator_traits@V?$allocator@Vthread@std@@@std@@@std@@SAXAEAV?$allocator@Vthread@std@@@1@PEAVthread@1@$$QEAV<lambda_e77d7e1e559843f44c4e0b6d970cdb28>@@@Z@4HA
pdata	ENDS
;	COMDAT pdata
pdata	SEGMENT
$pdata$??$_Uninitialized_move_al_unchecked@PEAVthread@std@@PEAV12@V?$allocator@Vthread@std@@@2@@std@@YAPEAVthread@0@PEAV10@00AEAU?$_Wrap_alloc@V?$allocator@Vthread@std@@@std@@@0@@Z DD imagerel $LN9
	DD	imagerel $LN9+14
	DD	imagerel $unwind$??$_Uninitialized_move_al_unchecked@PEAVthread@std@@PEAV12@V?$allocator@Vthread@std@@@2@@std@@YAPEAVthread@0@PEAV10@00AEAU?$_Wrap_alloc@V?$allocator@Vthread@std@@@std@@@0@@Z
pdata	ENDS
;	COMDAT pdata
pdata	SEGMENT
$pdata$??$_Destroy_range1@V?$allocator@Vthread@std@@@std@@PEAVthread@2@@std@@YAXPEAVthread@0@0AEAU?$_Wrap_alloc@V?$allocator@Vthread@std@@@std@@@0@U?$integral_constant@_N$0A@@0@@Z DD imagerel $LN37
	DD	imagerel $LN37+42
	DD	imagerel $unwind$??$_Destroy_range1@V?$allocator@Vthread@std@@@std@@PEAVthread@2@@std@@YAXPEAVthread@0@0AEAU?$_Wrap_alloc@V?$allocator@Vthread@std@@@std@@@0@U?$integral_constant@_N$0A@@0@@Z
pdata	ENDS
;	COMDAT pdata
pdata	SEGMENT
$pdata$??$destroy@Vthread@std@@@?$_Wrap_alloc@V?$allocator@Vthread@std@@@std@@@std@@QEAAXPEAVthread@1@@Z DD imagerel $LN25
	DD	imagerel $LN25+21
	DD	imagerel $unwind$??$destroy@Vthread@std@@@?$_Wrap_alloc@V?$allocator@Vthread@std@@@std@@@std@@QEAAXPEAVthread@1@@Z
pdata	ENDS
;	COMDAT pdata
pdata	SEGMENT
$pdata$??$construct@Vthread@std@@V<lambda_e77d7e1e559843f44c4e0b6d970cdb28>@@@?$_Wrap_alloc@V?$allocator@Vthread@std@@@std@@@std@@QEAAXPEAVthread@1@$$QEAV<lambda_e77d7e1e559843f44c4e0b6d970cdb28>@@@Z DD imagerel ??$construct@Vthread@std@@V<lambda_e77d7e1e559843f44c4e0b6d970cdb28>@@@?$_Wrap_alloc@V?$allocator@Vthread@std@@@std@@@std@@QEAAXPEAVthread@1@$$QEAV<lambda_e77d7e1e559843f44c4e0b6d970cdb28>@@@Z
	DD	imagerel ??$construct@Vthread@std@@V<lambda_e77d7e1e559843f44c4e0b6d970cdb28>@@@?$_Wrap_alloc@V?$allocator@Vthread@std@@@std@@@std@@QEAAXPEAVthread@1@$$QEAV<lambda_e77d7e1e559843f44c4e0b6d970cdb28>@@@Z+92
	DD	imagerel $unwind$??$construct@Vthread@std@@V<lambda_e77d7e1e559843f44c4e0b6d970cdb28>@@@?$_Wrap_alloc@V?$allocator@Vthread@std@@@std@@@std@@QEAAXPEAVthread@1@$$QEAV<lambda_e77d7e1e559843f44c4e0b6d970cdb28>@@@Z
pdata	ENDS
;	COMDAT pdata
pdata	SEGMENT
$pdata$?dtor$2@?0???$construct@Vthread@std@@V<lambda_e77d7e1e559843f44c4e0b6d970cdb28>@@@?$_Wrap_alloc@V?$allocator@Vthread@std@@@std@@@std@@QEAAXPEAVthread@1@$$QEAV<lambda_e77d7e1e559843f44c4e0b6d970cdb28>@@@Z@4HA DD imagerel ?dtor$2@?0???$construct@Vthread@std@@V<lambda_e77d7e1e559843f44c4e0b6d970cdb28>@@@?$_Wrap_alloc@V?$allocator@Vthread@std@@@std@@@std@@QEAAXPEAVthread@1@$$QEAV<lambda_e77d7e1e559843f44c4e0b6d970cdb28>@@@Z@4HA
	DD	imagerel ?dtor$2@?0???$construct@Vthread@std@@V<lambda_e77d7e1e559843f44c4e0b6d970cdb28>@@@?$_Wrap_alloc@V?$allocator@Vthread@std@@@std@@@std@@QEAAXPEAVthread@1@$$QEAV<lambda_e77d7e1e559843f44c4e0b6d970cdb28>@@@Z@4HA+28
	DD	imagerel $unwind$?dtor$2@?0???$construct@Vthread@std@@V<lambda_e77d7e1e559843f44c4e0b6d970cdb28>@@@?$_Wrap_alloc@V?$allocator@Vthread@std@@@std@@@std@@QEAAXPEAVthread@1@$$QEAV<lambda_e77d7e1e559843f44c4e0b6d970cdb28>@@@Z@4HA
pdata	ENDS
;	COMDAT pdata
pdata	SEGMENT
$pdata$??$_Emplace_back_with_unused_capacity@V<lambda_e77d7e1e559843f44c4e0b6d970cdb28>@@@?$vector@Vthread@std@@V?$allocator@Vthread@std@@@2@@std@@AEAAX$$QEAV<lambda_e77d7e1e559843f44c4e0b6d970cdb28>@@@Z DD imagerel ??$_Emplace_back_with_unused_capacity@V<lambda_e77d7e1e559843f44c4e0b6d970cdb28>@@@?$vector@Vthread@std@@V?$allocator@Vthread@std@@@2@@std@@AEAAX$$QEAV<lambda_e77d7e1e559843f44c4e0b6d970cdb28>@@@Z
	DD	imagerel ??$_Emplace_back_with_unused_capacity@V<lambda_e77d7e1e559843f44c4e0b6d970cdb28>@@@?$vector@Vthread@std@@V?$allocator@Vthread@std@@@2@@std@@AEAAX$$QEAV<lambda_e77d7e1e559843f44c4e0b6d970cdb28>@@@Z+106
	DD	imagerel $unwind$??$_Emplace_back_with_unused_capacity@V<lambda_e77d7e1e559843f44c4e0b6d970cdb28>@@@?$vector@Vthread@std@@V?$allocator@Vthread@std@@@2@@std@@AEAAX$$QEAV<lambda_e77d7e1e559843f44c4e0b6d970cdb28>@@@Z
pdata	ENDS
;	COMDAT pdata
pdata	SEGMENT
$pdata$?dtor$8@?0???$_Emplace_back_with_unused_capacity@V<lambda_e77d7e1e559843f44c4e0b6d970cdb28>@@@?$vector@Vthread@std@@V?$allocator@Vthread@std@@@2@@std@@AEAAX$$QEAV<lambda_e77d7e1e559843f44c4e0b6d970cdb28>@@@Z@4HA DD imagerel ?dtor$8@?0???$_Emplace_back_with_unused_capacity@V<lambda_e77d7e1e559843f44c4e0b6d970cdb28>@@@?$vector@Vthread@std@@V?$allocator@Vthread@std@@@2@@std@@AEAAX$$QEAV<lambda_e77d7e1e559843f44c4e0b6d970cdb28>@@@Z@4HA
	DD	imagerel ?dtor$8@?0???$_Emplace_back_with_unused_capacity@V<lambda_e77d7e1e559843f44c4e0b6d970cdb28>@@@?$vector@Vthread@std@@V?$allocator@Vthread@std@@@2@@std@@AEAAX$$QEAV<lambda_e77d7e1e559843f44c4e0b6d970cdb28>@@@Z@4HA+28
	DD	imagerel $unwind$?dtor$8@?0???$_Emplace_back_with_unused_capacity@V<lambda_e77d7e1e559843f44c4e0b6d970cdb28>@@@?$vector@Vthread@std@@V?$allocator@Vthread@std@@@2@@std@@AEAAX$$QEAV<lambda_e77d7e1e559843f44c4e0b6d970cdb28>@@@Z@4HA
pdata	ENDS
;	COMDAT pdata
pdata	SEGMENT
$pdata$??$_To_xtime@HU?$ratio@$0OBA@$00@std@@@std@@YA?AUxtime@@AEBV?$duration@HU?$ratio@$0OBA@$00@std@@@chrono@0@@Z DD imagerel $LN144
	DD	imagerel $LN144+130
	DD	imagerel $unwind$??$_To_xtime@HU?$ratio@$0OBA@$00@std@@@std@@YA?AUxtime@@AEBV?$duration@HU?$ratio@$0OBA@$00@std@@@chrono@0@@Z
pdata	ENDS
;	COMDAT pdata
pdata	SEGMENT
$pdata$?_Osfx@?$basic_ostream@DU?$char_traits@D@std@@@std@@QEAAXXZ DD imagerel $LN44
	DD	imagerel $LN44+275
	DD	imagerel $unwind$?_Osfx@?$basic_ostream@DU?$char_traits@D@std@@@std@@QEAAXXZ
pdata	ENDS
;	COMDAT pdata
pdata	SEGMENT
$pdata$?catch$0@?0??_Osfx@?$basic_ostream@DU?$char_traits@D@std@@@std@@QEAAXXZ@4HA DD imagerel ?catch$0@?0??_Osfx@?$basic_ostream@DU?$char_traits@D@std@@@std@@QEAAXXZ@4HA
	DD	imagerel ?catch$0@?0??_Osfx@?$basic_ostream@DU?$char_traits@D@std@@@std@@QEAAXXZ@4HA+27
	DD	imagerel $unwind$?catch$0@?0??_Osfx@?$basic_ostream@DU?$char_traits@D@std@@@std@@QEAAXXZ@4HA
pdata	ENDS
;	COMDAT pdata
pdata	SEGMENT
$pdata$?flush@?$basic_ostream@DU?$char_traits@D@std@@@std@@QEAAAEAV12@XZ DD imagerel $LN74
	DD	imagerel $LN74+339
	DD	imagerel $unwind$?flush@?$basic_ostream@DU?$char_traits@D@std@@@std@@QEAAAEAV12@XZ
pdata	ENDS
;	COMDAT pdata
pdata	SEGMENT
$pdata$??0_Sentry_base@?$basic_ostream@DU?$char_traits@D@std@@@std@@QEAA@AEAV12@@Z DD imagerel $LN10
	DD	imagerel $LN10+44
	DD	imagerel $unwind$??0_Sentry_base@?$basic_ostream@DU?$char_traits@D@std@@@std@@QEAA@AEAV12@@Z
pdata	ENDS
;	COMDAT pdata
pdata	SEGMENT
$pdata$??1_Sentry_base@?$basic_ostream@DU?$char_traits@D@std@@@std@@QEAA@XZ DD imagerel $LN8
	DD	imagerel $LN8+45
	DD	imagerel $unwind$??1_Sentry_base@?$basic_ostream@DU?$char_traits@D@std@@@std@@QEAA@XZ
pdata	ENDS
;	COMDAT pdata
pdata	SEGMENT
$pdata$??0sentry@?$basic_ostream@DU?$char_traits@D@std@@@std@@QEAA@AEAV12@@Z DD imagerel $LN26
	DD	imagerel $LN26+123
	DD	imagerel $unwind$??0sentry@?$basic_ostream@DU?$char_traits@D@std@@@std@@QEAA@AEAV12@@Z
pdata	ENDS
;	COMDAT pdata
pdata	SEGMENT
$pdata$??1sentry@?$basic_ostream@DU?$char_traits@D@std@@@std@@QEAA@XZ DD imagerel $LN13
	DD	imagerel $LN13+70
	DD	imagerel $unwind$??1sentry@?$basic_ostream@DU?$char_traits@D@std@@@std@@QEAA@XZ
pdata	ENDS
;	COMDAT pdata
pdata	SEGMENT
$pdata$??$_Uninitialized_move@PEAVthread@std@@PEAV12@V?$allocator@Vthread@std@@@2@@std@@YAPEAVthread@0@PEAV10@00AEAU?$_Wrap_alloc@V?$allocator@Vthread@std@@@std@@@0@@Z DD imagerel $LN19
	DD	imagerel $LN19+14
	DD	imagerel $unwind$??$_Uninitialized_move@PEAVthread@std@@PEAV12@V?$allocator@Vthread@std@@@2@@std@@YAPEAVthread@0@PEAV10@00AEAU?$_Wrap_alloc@V?$allocator@Vthread@std@@@std@@@0@@Z
pdata	ENDS
;	COMDAT pdata
pdata	SEGMENT
$pdata$??$_Destroy_range@V?$allocator@Vthread@std@@@std@@PEAVthread@2@@std@@YAXPEAVthread@0@0AEAU?$_Wrap_alloc@V?$allocator@Vthread@std@@@std@@@0@@Z DD imagerel $LN40
	DD	imagerel $LN40+42
	DD	imagerel $unwind$??$_Destroy_range@V?$allocator@Vthread@std@@@std@@PEAVthread@2@@std@@YAXPEAVthread@0@0AEAU?$_Wrap_alloc@V?$allocator@Vthread@std@@@std@@@0@@Z
pdata	ENDS
;	COMDAT pdata
pdata	SEGMENT
$pdata$??$emplace_back@V<lambda_e77d7e1e559843f44c4e0b6d970cdb28>@@@?$vector@Vthread@std@@V?$allocator@Vthread@std@@@2@@std@@QEAAX$$QEAV<lambda_e77d7e1e559843f44c4e0b6d970cdb28>@@@Z DD imagerel ??$emplace_back@V<lambda_e77d7e1e559843f44c4e0b6d970cdb28>@@@?$vector@Vthread@std@@V?$allocator@Vthread@std@@@2@@std@@QEAAX$$QEAV<lambda_e77d7e1e559843f44c4e0b6d970cdb28>@@@Z
	DD	imagerel ??$emplace_back@V<lambda_e77d7e1e559843f44c4e0b6d970cdb28>@@@?$vector@Vthread@std@@V?$allocator@Vthread@std@@@2@@std@@QEAAX$$QEAV<lambda_e77d7e1e559843f44c4e0b6d970cdb28>@@@Z+345
	DD	imagerel $unwind$??$emplace_back@V<lambda_e77d7e1e559843f44c4e0b6d970cdb28>@@@?$vector@Vthread@std@@V?$allocator@Vthread@std@@@2@@std@@QEAAX$$QEAV<lambda_e77d7e1e559843f44c4e0b6d970cdb28>@@@Z
pdata	ENDS
;	COMDAT pdata
pdata	SEGMENT
$pdata$?dtor$16@?0???$emplace_back@V<lambda_e77d7e1e559843f44c4e0b6d970cdb28>@@@?$vector@Vthread@std@@V?$allocator@Vthread@std@@@2@@std@@QEAAX$$QEAV<lambda_e77d7e1e559843f44c4e0b6d970cdb28>@@@Z@4HA DD imagerel ?dtor$16@?0???$emplace_back@V<lambda_e77d7e1e559843f44c4e0b6d970cdb28>@@@?$vector@Vthread@std@@V?$allocator@Vthread@std@@@2@@std@@QEAAX$$QEAV<lambda_e77d7e1e559843f44c4e0b6d970cdb28>@@@Z@4HA
	DD	imagerel ?dtor$16@?0???$emplace_back@V<lambda_e77d7e1e559843f44c4e0b6d970cdb28>@@@?$vector@Vthread@std@@V?$allocator@Vthread@std@@@2@@std@@QEAAX$$QEAV<lambda_e77d7e1e559843f44c4e0b6d970cdb28>@@@Z@4HA+34
	DD	imagerel $unwind$?dtor$16@?0???$emplace_back@V<lambda_e77d7e1e559843f44c4e0b6d970cdb28>@@@?$vector@Vthread@std@@V?$allocator@Vthread@std@@@2@@std@@QEAAX$$QEAV<lambda_e77d7e1e559843f44c4e0b6d970cdb28>@@@Z@4HA
pdata	ENDS
;	COMDAT pdata
pdata	SEGMENT
$pdata$?dtor$72@?0???$emplace_back@V<lambda_e77d7e1e559843f44c4e0b6d970cdb28>@@@?$vector@Vthread@std@@V?$allocator@Vthread@std@@@2@@std@@QEAAX$$QEAV<lambda_e77d7e1e559843f44c4e0b6d970cdb28>@@@Z@4HA DD imagerel ?dtor$72@?0???$emplace_back@V<lambda_e77d7e1e559843f44c4e0b6d970cdb28>@@@?$vector@Vthread@std@@V?$allocator@Vthread@std@@@2@@std@@QEAAX$$QEAV<lambda_e77d7e1e559843f44c4e0b6d970cdb28>@@@Z@4HA
	DD	imagerel ?dtor$72@?0???$emplace_back@V<lambda_e77d7e1e559843f44c4e0b6d970cdb28>@@@?$vector@Vthread@std@@V?$allocator@Vthread@std@@@2@@std@@QEAAX$$QEAV<lambda_e77d7e1e559843f44c4e0b6d970cdb28>@@@Z@4HA+28
	DD	imagerel $unwind$?dtor$72@?0???$emplace_back@V<lambda_e77d7e1e559843f44c4e0b6d970cdb28>@@@?$vector@Vthread@std@@V?$allocator@Vthread@std@@@2@@std@@QEAAX$$QEAV<lambda_e77d7e1e559843f44c4e0b6d970cdb28>@@@Z@4HA
pdata	ENDS
;	COMDAT pdata
pdata	SEGMENT
$pdata$?catch$95@?0???$emplace_back@V<lambda_e77d7e1e559843f44c4e0b6d970cdb28>@@@?$vector@Vthread@std@@V?$allocator@Vthread@std@@@2@@std@@QEAAX$$QEAV<lambda_e77d7e1e559843f44c4e0b6d970cdb28>@@@Z@4HA DD imagerel ?catch$95@?0???$emplace_back@V<lambda_e77d7e1e559843f44c4e0b6d970cdb28>@@@?$vector@Vthread@std@@V?$allocator@Vthread@std@@@2@@std@@QEAAX$$QEAV<lambda_e77d7e1e559843f44c4e0b6d970cdb28>@@@Z@4HA
	DD	imagerel ?catch$95@?0???$emplace_back@V<lambda_e77d7e1e559843f44c4e0b6d970cdb28>@@@?$vector@Vthread@std@@V?$allocator@Vthread@std@@@2@@std@@QEAAX$$QEAV<lambda_e77d7e1e559843f44c4e0b6d970cdb28>@@@Z@4HA+79
	DD	imagerel $unwind$?catch$95@?0???$emplace_back@V<lambda_e77d7e1e559843f44c4e0b6d970cdb28>@@@?$vector@Vthread@std@@V?$allocator@Vthread@std@@@2@@std@@QEAAX$$QEAV<lambda_e77d7e1e559843f44c4e0b6d970cdb28>@@@Z@4HA
pdata	ENDS
;	COMDAT pdata
pdata	SEGMENT
$pdata$??$sleep_for@HU?$ratio@$0OBA@$00@std@@@this_thread@std@@YAXAEBV?$duration@HU?$ratio@$0OBA@$00@std@@@chrono@1@@Z DD imagerel $LN147
	DD	imagerel $LN147+158
	DD	imagerel $unwind$??$sleep_for@HU?$ratio@$0OBA@$00@std@@@this_thread@std@@YAXAEBV?$duration@HU?$ratio@$0OBA@$00@std@@@chrono@1@@Z
pdata	ENDS
;	COMDAT pdata
pdata	SEGMENT
$pdata$??$?6U?$char_traits@D@std@@@std@@YAAEAV?$basic_ostream@DU?$char_traits@D@std@@@0@AEAV10@PEBD@Z DD imagerel $LN191
	DD	imagerel $LN191+776
	DD	imagerel $unwind$??$?6U?$char_traits@D@std@@@std@@YAAEAV?$basic_ostream@DU?$char_traits@D@std@@@0@AEAV10@PEBD@Z
pdata	ENDS
;	COMDAT pdata
pdata	SEGMENT
$pdata$?catch$13@?0???$?6U?$char_traits@D@std@@@std@@YAAEAV?$basic_ostream@DU?$char_traits@D@std@@@0@AEAV10@PEBD@Z@4HA DD imagerel ?catch$13@?0???$?6U?$char_traits@D@std@@@std@@YAAEAV?$basic_ostream@DU?$char_traits@D@std@@@0@AEAV10@PEBD@Z@4HA
	DD	imagerel ?catch$13@?0???$?6U?$char_traits@D@std@@@std@@YAAEAV?$basic_ostream@DU?$char_traits@D@std@@@0@AEAV10@PEBD@Z@4HA+83
	DD	imagerel $unwind$?catch$13@?0???$?6U?$char_traits@D@std@@@std@@YAAEAV?$basic_ostream@DU?$char_traits@D@std@@@0@AEAV10@PEBD@Z@4HA
pdata	ENDS
;	COMDAT pdata
pdata	SEGMENT
$pdata$??$_Immortalize@V_Iostream_error_category@std@@@std@@YAAEAV_Iostream_error_category@0@XZ DD imagerel $LN23
	DD	imagerel $LN23+116
	DD	imagerel $unwind$??$_Immortalize@V_Iostream_error_category@std@@@std@@YAAEAV_Iostream_error_category@0@XZ
pdata	ENDS
;	COMDAT pdata
pdata	SEGMENT
$pdata$?allocate@?$allocator@D@std@@QEAAPEAD_K@Z DD imagerel $LN16
	DD	imagerel $LN16+83
	DD	imagerel $unwind$?allocate@?$allocator@D@std@@QEAAPEAD_K@Z
pdata	ENDS
;	COMDAT pdata
pdata	SEGMENT
$pdata$?allocate@?$_Wrap_alloc@V?$allocator@D@std@@@std@@QEAAPEAD_K@Z DD imagerel $LN19
	DD	imagerel $LN19+83
	DD	imagerel $unwind$?allocate@?$_Wrap_alloc@V?$allocator@D@std@@@std@@QEAAPEAD_K@Z
pdata	ENDS
;	COMDAT pdata
pdata	SEGMENT
$pdata$?deallocate@?$allocator@D@std@@QEAAXPEAD_K@Z DD imagerel $LN18
	DD	imagerel $LN18+81
	DD	imagerel $unwind$?deallocate@?$allocator@D@std@@QEAAXPEAD_K@Z
pdata	ENDS
;	COMDAT pdata
pdata	SEGMENT
$pdata$?erase@?$basic_string@DU?$char_traits@D@std@@V?$allocator@D@2@@std@@QEAAAEAV12@_K@Z DD imagerel $LN38
	DD	imagerel $LN38+54
	DD	imagerel $unwind$?erase@?$basic_string@DU?$char_traits@D@std@@V?$allocator@D@2@@std@@QEAAAEAV12@_K@Z
pdata	ENDS
;	COMDAT pdata
pdata	SEGMENT
$pdata$?erase@?$basic_string@DU?$char_traits@D@std@@V?$allocator@D@2@@std@@QEAAAEAV12@_K0@Z DD imagerel $LN97
	DD	imagerel $LN97+191
	DD	imagerel $unwind$?erase@?$basic_string@DU?$char_traits@D@std@@V?$allocator@D@2@@std@@QEAAAEAV12@_K0@Z
pdata	ENDS
;	COMDAT pdata
pdata	SEGMENT
$pdata$?_Copy@?$basic_string@DU?$char_traits@D@std@@V?$allocator@D@2@@std@@QEAAX_K@Z DD imagerel $LN118
	DD	imagerel $LN118+335
	DD	imagerel $unwind$?_Copy@?$basic_string@DU?$char_traits@D@std@@V?$allocator@D@2@@std@@QEAAX_K@Z
pdata	ENDS
;	COMDAT pdata
pdata	SEGMENT
$pdata$?catch$16@?0??_Copy@?$basic_string@DU?$char_traits@D@std@@V?$allocator@D@2@@std@@QEAAX_K@Z@4HA DD imagerel ?catch$16@?0??_Copy@?$basic_string@DU?$char_traits@D@std@@V?$allocator@D@2@@std@@QEAAX_K@Z@4HA
	DD	imagerel ?catch$16@?0??_Copy@?$basic_string@DU?$char_traits@D@std@@V?$allocator@D@2@@std@@QEAAX_K@Z@4HA+51
	DD	imagerel $unwind$?catch$16@?0??_Copy@?$basic_string@DU?$char_traits@D@std@@V?$allocator@D@2@@std@@QEAAX_K@Z@4HA
pdata	ENDS
;	COMDAT pdata
pdata	SEGMENT
$pdata$?_Xran@?$basic_string@DU?$char_traits@D@std@@V?$allocator@D@2@@std@@SAXXZ DD imagerel $LN4
	DD	imagerel $LN4+17
	DD	imagerel $unwind$?_Xran@?$basic_string@DU?$char_traits@D@std@@V?$allocator@D@2@@std@@SAXXZ
pdata	ENDS
;	COMDAT pdata
pdata	SEGMENT
$pdata$?deallocate@?$allocator@Vthread@std@@@std@@QEAAXPEAVthread@2@_K@Z DD imagerel $LN19
	DD	imagerel $LN19+106
	DD	imagerel $unwind$?deallocate@?$allocator@Vthread@std@@@std@@QEAAXPEAVthread@2@_K@Z
pdata	ENDS
;	COMDAT pdata
pdata	SEGMENT
$pdata$?allocate@?$allocator@Vthread@std@@@std@@QEAAPEAVthread@2@_K@Z DD imagerel $LN17
	DD	imagerel $LN17+108
	DD	imagerel $unwind$?allocate@?$allocator@Vthread@std@@@std@@QEAAPEAVthread@2@_K@Z
pdata	ENDS
;	COMDAT pdata
pdata	SEGMENT
$pdata$?_Umove_if_noexcept1@?$vector@Vthread@std@@V?$allocator@Vthread@std@@@2@@std@@AEAAXPEAVthread@2@00U?$integral_constant@_N$00@2@@Z DD imagerel $LN27
	DD	imagerel $LN27+26
	DD	imagerel $unwind$?_Umove_if_noexcept1@?$vector@Vthread@std@@V?$allocator@Vthread@std@@@2@@std@@AEAAXPEAVthread@2@00U?$integral_constant@_N$00@2@@Z
pdata	ENDS
;	COMDAT pdata
pdata	SEGMENT
$pdata$?assign@?$basic_string@DU?$char_traits@D@std@@V?$allocator@D@2@@std@@QEAAAEAV12@AEBV12@_K_K@Z DD imagerel $LN159
	DD	imagerel $LN159+248
	DD	imagerel $unwind$?assign@?$basic_string@DU?$char_traits@D@std@@V?$allocator@D@2@@std@@QEAAAEAV12@AEBV12@_K_K@Z
pdata	ENDS
;	COMDAT pdata
pdata	SEGMENT
$pdata$?assign@?$basic_string@DU?$char_traits@D@std@@V?$allocator@D@2@@std@@QEAAAEAV12@QEBD_K@Z DD imagerel $LN112
	DD	imagerel $LN112+246
	DD	imagerel $unwind$?assign@?$basic_string@DU?$char_traits@D@std@@V?$allocator@D@2@@std@@QEAAAEAV12@QEBD_K@Z
pdata	ENDS
;	COMDAT pdata
pdata	SEGMENT
$pdata$?_Grow@?$basic_string@DU?$char_traits@D@std@@V?$allocator@D@2@@std@@QEAA_N_K@Z DD imagerel $LN34
	DD	imagerel $LN34+51
	DD	imagerel $unwind$?_Grow@?$basic_string@DU?$char_traits@D@std@@V?$allocator@D@2@@std@@QEAA_N_K@Z
pdata	ENDS
;	COMDAT pdata
pdata	SEGMENT
$pdata$?_Xlen@?$basic_string@DU?$char_traits@D@std@@V?$allocator@D@2@@std@@SAXXZ DD imagerel $LN4
	DD	imagerel $LN4+17
	DD	imagerel $unwind$?_Xlen@?$basic_string@DU?$char_traits@D@std@@V?$allocator@D@2@@std@@SAXXZ
pdata	ENDS
;	COMDAT pdata
pdata	SEGMENT
$pdata$?_Check_offset@?$basic_string@DU?$char_traits@D@std@@V?$allocator@D@2@@std@@QEBAX_K@Z DD imagerel $LN16
	DD	imagerel $LN16+21
	DD	imagerel $unwind$?_Check_offset@?$basic_string@DU?$char_traits@D@std@@V?$allocator@D@2@@std@@QEBAX_K@Z
pdata	ENDS
;	COMDAT pdata
pdata	SEGMENT
$pdata$?deallocate@?$_Wrap_alloc@V?$allocator@D@std@@@std@@QEAAXPEAD_K@Z DD imagerel $LN21
	DD	imagerel $LN21+81
	DD	imagerel $unwind$?deallocate@?$_Wrap_alloc@V?$allocator@D@std@@@std@@QEAAXPEAD_K@Z
pdata	ENDS
;	COMDAT pdata
pdata	SEGMENT
$pdata$?_Umove_if_noexcept@?$vector@Vthread@std@@V?$allocator@Vthread@std@@@2@@std@@AEAAXPEAVthread@2@00@Z DD imagerel $LN29
	DD	imagerel $LN29+26
	DD	imagerel $unwind$?_Umove_if_noexcept@?$vector@Vthread@std@@V?$allocator@Vthread@std@@@2@@std@@AEAAXPEAVthread@2@00@Z
pdata	ENDS
;	COMDAT pdata
pdata	SEGMENT
$pdata$?_Destroy@?$vector@Vthread@std@@V?$allocator@Vthread@std@@@2@@std@@AEAAXPEAVthread@2@0@Z DD imagerel $LN49
	DD	imagerel $LN49+42
	DD	imagerel $unwind$?_Destroy@?$vector@Vthread@std@@V?$allocator@Vthread@std@@@2@@std@@AEAAXPEAVthread@2@0@Z
pdata	ENDS
;	COMDAT pdata
pdata	SEGMENT
$pdata$?_Change_array@?$vector@Vthread@std@@V?$allocator@Vthread@std@@@2@@std@@AEAAXQEAVthread@2@_K1@Z DD imagerel $LN159
	DD	imagerel $LN159+228
	DD	imagerel $unwind$?_Change_array@?$vector@Vthread@std@@V?$allocator@Vthread@std@@@2@@std@@AEAAXQEAVthread@2@_K1@Z
pdata	ENDS
;	COMDAT pdata
pdata	SEGMENT
$pdata$?allocate@?$_Wrap_alloc@V?$allocator@Vthread@std@@@std@@@std@@QEAAPEAVthread@2@_K@Z DD imagerel $LN20
	DD	imagerel $LN20+108
	DD	imagerel $unwind$?allocate@?$_Wrap_alloc@V?$allocator@Vthread@std@@@std@@@std@@QEAAPEAVthread@2@_K@Z
pdata	ENDS
;	COMDAT pdata
pdata	SEGMENT
$pdata$?deallocate@?$_Wrap_alloc@V?$allocator@Vthread@std@@@std@@@std@@QEAAXPEAVthread@2@_K@Z DD imagerel $LN22
	DD	imagerel $LN22+106
	DD	imagerel $unwind$?deallocate@?$_Wrap_alloc@V?$allocator@Vthread@std@@@std@@@std@@QEAAXPEAVthread@2@_K@Z
pdata	ENDS
;	COMDAT pdata
pdata	SEGMENT
$pdata$?_Assign_rv_contents@?$basic_string@DU?$char_traits@D@std@@V?$allocator@D@2@@std@@QEAAX$$QEAV12@@Z DD imagerel $LN62
	DD	imagerel $LN62+101
	DD	imagerel $unwind$?_Assign_rv_contents@?$basic_string@DU?$char_traits@D@std@@V?$allocator@D@2@@std@@QEAAX$$QEAV12@@Z
pdata	ENDS
;	COMDAT pdata
pdata	SEGMENT
$pdata$?append@?$basic_string@DU?$char_traits@D@std@@V?$allocator@D@2@@std@@QEAAAEAV12@AEBV12@_K_K@Z DD imagerel $LN151
	DD	imagerel $LN151+75
	DD	imagerel $unwind$?append@?$basic_string@DU?$char_traits@D@std@@V?$allocator@D@2@@std@@QEAAAEAV12@AEBV12@_K_K@Z
pdata	ENDS
;	COMDAT pdata
pdata	SEGMENT
$pdata$0$?append@?$basic_string@DU?$char_traits@D@std@@V?$allocator@D@2@@std@@QEAAAEAV12@AEBV12@_K_K@Z DD imagerel $LN151+75
	DD	imagerel $LN151+232
	DD	imagerel $chain$0$?append@?$basic_string@DU?$char_traits@D@std@@V?$allocator@D@2@@std@@QEAAAEAV12@AEBV12@_K_K@Z
pdata	ENDS
;	COMDAT pdata
pdata	SEGMENT
$pdata$1$?append@?$basic_string@DU?$char_traits@D@std@@V?$allocator@D@2@@std@@QEAAAEAV12@AEBV12@_K_K@Z DD imagerel $LN151+232
	DD	imagerel $LN151+244
	DD	imagerel $chain$1$?append@?$basic_string@DU?$char_traits@D@std@@V?$allocator@D@2@@std@@QEAAAEAV12@AEBV12@_K_K@Z
pdata	ENDS
;	COMDAT pdata
pdata	SEGMENT
$pdata$?append@?$basic_string@DU?$char_traits@D@std@@V?$allocator@D@2@@std@@QEAAAEAV12@QEBD_K@Z DD imagerel $LN142
	DD	imagerel $LN142+119
	DD	imagerel $unwind$?append@?$basic_string@DU?$char_traits@D@std@@V?$allocator@D@2@@std@@QEAAAEAV12@QEBD_K@Z
pdata	ENDS
;	COMDAT pdata
pdata	SEGMENT
$pdata$0$?append@?$basic_string@DU?$char_traits@D@std@@V?$allocator@D@2@@std@@QEAAAEAV12@QEBD_K@Z DD imagerel $LN142+119
	DD	imagerel $LN142+257
	DD	imagerel $chain$0$?append@?$basic_string@DU?$char_traits@D@std@@V?$allocator@D@2@@std@@QEAAAEAV12@QEBD_K@Z
pdata	ENDS
;	COMDAT pdata
pdata	SEGMENT
$pdata$1$?append@?$basic_string@DU?$char_traits@D@std@@V?$allocator@D@2@@std@@QEAAAEAV12@QEBD_K@Z DD imagerel $LN142+257
	DD	imagerel $LN142+263
	DD	imagerel $chain$1$?append@?$basic_string@DU?$char_traits@D@std@@V?$allocator@D@2@@std@@QEAAAEAV12@QEBD_K@Z
pdata	ENDS
;	COMDAT pdata
pdata	SEGMENT
$pdata$?_Tidy_deallocate_only@?$basic_string@DU?$char_traits@D@std@@V?$allocator@D@2@@std@@QEAAXXZ DD imagerel $LN42
	DD	imagerel $LN42+98
	DD	imagerel $unwind$?_Tidy_deallocate_only@?$basic_string@DU?$char_traits@D@std@@V?$allocator@D@2@@std@@QEAAXXZ
pdata	ENDS
;	COMDAT pdata
pdata	SEGMENT
$pdata$?_Reallocate_exactly@?$vector@Vthread@std@@V?$allocator@Vthread@std@@@2@@std@@AEAAX_K@Z DD imagerel $LN98
	DD	imagerel $LN98+91
	DD	imagerel $unwind$?_Reallocate_exactly@?$vector@Vthread@std@@V?$allocator@Vthread@std@@@2@@std@@AEAAX_K@Z
pdata	ENDS
;	COMDAT pdata
pdata	SEGMENT
$pdata$?_Tidy@?$vector@Vthread@std@@V?$allocator@Vthread@std@@@2@@std@@AEAAXXZ DD imagerel $LN159
	DD	imagerel $LN159+177
	DD	imagerel $unwind$?_Tidy@?$vector@Vthread@std@@V?$allocator@Vthread@std@@@2@@std@@AEAAXXZ
pdata	ENDS
;	COMDAT pdata
pdata	SEGMENT
$pdata$?_Xlength@?$vector@Vthread@std@@V?$allocator@Vthread@std@@@2@@std@@CAXXZ DD imagerel $LN4
	DD	imagerel $LN4+17
	DD	imagerel $unwind$?_Xlength@?$vector@Vthread@std@@V?$allocator@Vthread@std@@@2@@std@@CAXXZ
pdata	ENDS
;	COMDAT pdata
pdata	SEGMENT
$pdata$??0?$basic_string@DU?$char_traits@D@std@@V?$allocator@D@2@@std@@QEAA@AEBV01@@Z DD imagerel $LN42
	DD	imagerel $LN42+49
	DD	imagerel $unwind$??0?$basic_string@DU?$char_traits@D@std@@V?$allocator@D@2@@std@@QEAA@AEBV01@@Z
pdata	ENDS
;	COMDAT pdata
pdata	SEGMENT
$pdata$??0?$basic_string@DU?$char_traits@D@std@@V?$allocator@D@2@@std@@QEAA@QEBD@Z DD imagerel $LN27
	DD	imagerel $LN27+56
	DD	imagerel $unwind$??0?$basic_string@DU?$char_traits@D@std@@V?$allocator@D@2@@std@@QEAA@QEBD@Z
pdata	ENDS
;	COMDAT pdata
pdata	SEGMENT
$pdata$??0?$basic_string@DU?$char_traits@D@std@@V?$allocator@D@2@@std@@QEAA@$$QEAV01@@Z DD imagerel $LN99
	DD	imagerel $LN99+118
	DD	imagerel $unwind$??0?$basic_string@DU?$char_traits@D@std@@V?$allocator@D@2@@std@@QEAA@$$QEAV01@@Z
pdata	ENDS
;	COMDAT pdata
pdata	SEGMENT
$pdata$??1?$basic_string@DU?$char_traits@D@std@@V?$allocator@D@2@@std@@QEAA@XZ DD imagerel $LN45
	DD	imagerel $LN45+98
	DD	imagerel $unwind$??1?$basic_string@DU?$char_traits@D@std@@V?$allocator@D@2@@std@@QEAA@XZ
pdata	ENDS
;	COMDAT pdata
pdata	SEGMENT
$pdata$??R<lambda_e77d7e1e559843f44c4e0b6d970cdb28>@@QEBAXXZ DD imagerel ??R<lambda_e77d7e1e559843f44c4e0b6d970cdb28>@@QEBAXXZ
	DD	imagerel ??R<lambda_e77d7e1e559843f44c4e0b6d970cdb28>@@QEBAXXZ+127
	DD	imagerel $unwind$??R<lambda_e77d7e1e559843f44c4e0b6d970cdb28>@@QEBAXXZ
pdata	ENDS
pdata	SEGMENT
$pdata$main DD	imagerel $LN311
	DD	imagerel $LN311+397
	DD	imagerel $unwind$main
pdata	ENDS
;	COMDAT pdata
pdata	SEGMENT
$pdata$?get_id@this_thread@std@@YA?AVid@thread@2@XZ DD imagerel $LN6
	DD	imagerel $LN6+25
	DD	imagerel $unwind$?get_id@this_thread@std@@YA?AVid@thread@2@XZ
pdata	ENDS
;	COMDAT pdata
pdata	SEGMENT
$pdata$?join@thread@std@@QEAAXXZ DD imagerel $LN25
	DD	imagerel $LN25+109
	DD	imagerel $unwind$?join@thread@std@@QEAAXXZ
pdata	ENDS
;	COMDAT pdata
pdata	SEGMENT
$pdata$??1thread@std@@QEAA@XZ DD imagerel $LN10
	DD	imagerel $LN10+21
	DD	imagerel $unwind$??1thread@std@@QEAA@XZ
pdata	ENDS
;	COMDAT pdata
pdata	SEGMENT
$pdata$?_Call_func@_Pad@std@@CAIPEAX@Z DD imagerel $LN4
	DD	imagerel $LN4+21
	DD	imagerel $unwind$?_Call_func@_Pad@std@@CAIPEAX@Z
pdata	ENDS
;	COMDAT pdata
pdata	SEGMENT
$pdata$?_Release@_Pad@std@@QEAAXXZ DD imagerel $LN19
	DD	imagerel $LN19+84
	DD	imagerel $unwind$?_Release@_Pad@std@@QEAAXXZ
pdata	ENDS
;	COMDAT pdata
pdata	SEGMENT
$pdata$?_Launch@_Pad@std@@QEAAXPEAU_Thrd_imp_t@@@Z DD imagerel $LN19
	DD	imagerel $LN19+100
	DD	imagerel $unwind$?_Launch@_Pad@std@@QEAAXPEAU_Thrd_imp_t@@@Z
pdata	ENDS
;	COMDAT pdata
pdata	SEGMENT
$pdata$??1_Pad@std@@QEAA@XZ DD imagerel $LN22
	DD	imagerel $LN22+86
	DD	imagerel $unwind$??1_Pad@std@@QEAA@XZ
pdata	ENDS
;	COMDAT pdata
pdata	SEGMENT
$pdata$??0_Pad@std@@QEAA@XZ DD imagerel $LN36
	DD	imagerel $LN36+141
	DD	imagerel $unwind$??0_Pad@std@@QEAA@XZ
pdata	ENDS
;	COMDAT pdata
pdata	SEGMENT
$pdata$?_Cnd_signalX@std@@YAHPEAU_Cnd_internal_imp_t@@@Z DD imagerel $LN8
	DD	imagerel $LN8+32
	DD	imagerel $unwind$?_Cnd_signalX@std@@YAHPEAU_Cnd_internal_imp_t@@@Z
pdata	ENDS
;	COMDAT pdata
pdata	SEGMENT
$pdata$?_Cnd_waitX@std@@YAHPEAU_Cnd_internal_imp_t@@PEAU_Mtx_internal_imp_t@@@Z DD imagerel $LN8
	DD	imagerel $LN8+32
	DD	imagerel $unwind$?_Cnd_waitX@std@@YAHPEAU_Cnd_internal_imp_t@@PEAU_Mtx_internal_imp_t@@@Z
pdata	ENDS
;	COMDAT pdata
pdata	SEGMENT
$pdata$?_Cnd_initX@std@@YAHPEAPEAU_Cnd_internal_imp_t@@@Z DD imagerel $LN8
	DD	imagerel $LN8+32
	DD	imagerel $unwind$?_Cnd_initX@std@@YAHPEAPEAU_Cnd_internal_imp_t@@@Z
pdata	ENDS
;	COMDAT pdata
pdata	SEGMENT
$pdata$?_Mtx_unlockX@std@@YAHPEAU_Mtx_internal_imp_t@@@Z DD imagerel $LN8
	DD	imagerel $LN8+32
	DD	imagerel $unwind$?_Mtx_unlockX@std@@YAHPEAU_Mtx_internal_imp_t@@@Z
pdata	ENDS
;	COMDAT pdata
pdata	SEGMENT
$pdata$?_Mtx_lockX@std@@YAHPEAU_Mtx_internal_imp_t@@@Z DD imagerel $LN8
	DD	imagerel $LN8+32
	DD	imagerel $unwind$?_Mtx_lockX@std@@YAHPEAU_Mtx_internal_imp_t@@@Z
pdata	ENDS
;	COMDAT pdata
pdata	SEGMENT
$pdata$?_Mtx_initX@std@@YAHPEAPEAU_Mtx_internal_imp_t@@H@Z DD imagerel $LN8
	DD	imagerel $LN8+37
	DD	imagerel $unwind$?_Mtx_initX@std@@YAHPEAPEAU_Mtx_internal_imp_t@@H@Z
pdata	ENDS
;	COMDAT pdata
pdata	SEGMENT
$pdata$?_Thrd_startX@std@@YAHPEAU_Thrd_imp_t@@P6AIPEAX@Z1@Z DD imagerel $LN8
	DD	imagerel $LN8+48
	DD	imagerel $unwind$?_Thrd_startX@std@@YAHPEAU_Thrd_imp_t@@P6AIPEAX@Z1@Z
pdata	ENDS
;	COMDAT pdata
pdata	SEGMENT
$pdata$?_Check_C_return@std@@YAHH@Z DD imagerel $LN6
	DD	imagerel $LN6+25
	DD	imagerel $unwind$?_Check_C_return@std@@YAHH@Z
pdata	ENDS
;	COMDAT pdata
pdata	SEGMENT
$pdata$??0_System_error@std@@QEAA@AEBV01@@Z DD imagerel $LN9
	DD	imagerel $LN9+80
	DD	imagerel $unwind$??0_System_error@std@@QEAA@AEBV01@@Z
pdata	ENDS
;	COMDAT pdata
pdata	SEGMENT
$pdata$??0system_error@std@@QEAA@AEBV01@@Z DD imagerel $LN12
	DD	imagerel $LN12+90
	DD	imagerel $unwind$??0system_error@std@@QEAA@AEBV01@@Z
pdata	ENDS
;	COMDAT pdata
pdata	SEGMENT
$pdata$??0failure@ios_base@std@@QEAA@AEBV012@@Z DD imagerel $LN15
	DD	imagerel $LN15+90
	DD	imagerel $unwind$??0failure@ios_base@std@@QEAA@AEBV012@@Z
pdata	ENDS
;	COMDAT pdata
pdata	SEGMENT
$pdata$??_Gfailure@ios_base@std@@UEAAPEAXI@Z DD imagerel $LN20
	DD	imagerel $LN20+66
	DD	imagerel $unwind$??_Gfailure@ios_base@std@@UEAAPEAXI@Z
pdata	ENDS
;	COMDAT pdata
pdata	SEGMENT
$pdata$?clear@ios_base@std@@QEAAXH_N@Z DD imagerel $LN17
	DD	imagerel $LN17+186
	DD	imagerel $unwind$?clear@ios_base@std@@QEAAXH_N@Z
pdata	ENDS
;	COMDAT pdata
pdata	SEGMENT
$pdata$??0failure@ios_base@std@@QEAA@PEBDAEBVerror_code@2@@Z DD imagerel $LN5
	DD	imagerel $LN5+50
	DD	imagerel $unwind$??0failure@ios_base@std@@QEAA@PEBDAEBVerror_code@2@@Z
pdata	ENDS
;	COMDAT pdata
pdata	SEGMENT
$pdata$?iostream_category@std@@YAAEBVerror_category@1@XZ DD imagerel $LN25
	DD	imagerel $LN25+116
	DD	imagerel $unwind$?iostream_category@std@@YAAEBVerror_category@1@XZ
pdata	ENDS
;	COMDAT pdata
pdata	SEGMENT
$pdata$??_G_Iostream_error_category@std@@UEAAPEAXI@Z DD imagerel $LN15
	DD	imagerel $LN15+43
	DD	imagerel $unwind$??_G_Iostream_error_category@std@@UEAAPEAXI@Z
pdata	ENDS
;	COMDAT pdata
pdata	SEGMENT
$pdata$?message@_Iostream_error_category@std@@UEBA?AV?$basic_string@DU?$char_traits@D@std@@V?$allocator@D@2@@2@H@Z DD imagerel $LN33
	DD	imagerel $LN33+77
	DD	imagerel $unwind$?message@_Iostream_error_category@std@@UEBA?AV?$basic_string@DU?$char_traits@D@std@@V?$allocator@D@2@@2@H@Z
pdata	ENDS
;	COMDAT pdata
pdata	SEGMENT
$pdata$??_G_Generic_error_category@std@@UEAAPEAXI@Z DD imagerel $LN12
	DD	imagerel $LN12+43
	DD	imagerel $unwind$??_G_Generic_error_category@std@@UEAAPEAXI@Z
pdata	ENDS
;	COMDAT pdata
pdata	SEGMENT
$pdata$?message@_Generic_error_category@std@@UEBA?AV?$basic_string@DU?$char_traits@D@std@@V?$allocator@D@2@@2@H@Z DD imagerel $LN31
	DD	imagerel $LN31+78
	DD	imagerel $unwind$?message@_Generic_error_category@std@@UEBA?AV?$basic_string@DU?$char_traits@D@std@@V?$allocator@D@2@@2@H@Z
pdata	ENDS
;	COMDAT pdata
pdata	SEGMENT
$pdata$??_Gsystem_error@std@@UEAAPEAXI@Z DD imagerel $LN17
	DD	imagerel $LN17+66
	DD	imagerel $unwind$??_Gsystem_error@std@@UEAAPEAXI@Z
pdata	ENDS
;	COMDAT pdata
pdata	SEGMENT
$pdata$??0system_error@std@@QEAA@Verror_code@1@PEBD@Z DD imagerel $LN71
	DD	imagerel $LN71+248
	DD	imagerel $unwind$??0system_error@std@@QEAA@Verror_code@1@PEBD@Z
pdata	ENDS
;	COMDAT pdata
pdata	SEGMENT
$pdata$??_G_System_error@std@@UEAAPEAXI@Z DD imagerel $LN14
	DD	imagerel $LN14+66
	DD	imagerel $unwind$??_G_System_error@std@@UEAAPEAXI@Z
pdata	ENDS
;	COMDAT pdata
pdata	SEGMENT
$pdata$??0_System_error@std@@IEAA@Verror_code@1@AEBV?$basic_string@DU?$char_traits@D@std@@V?$allocator@D@2@@1@@Z DD imagerel $LN115
	DD	imagerel $LN115+309
	DD	imagerel $unwind$??0_System_error@std@@IEAA@Verror_code@1@AEBV?$basic_string@DU?$char_traits@D@std@@V?$allocator@D@2@@1@@Z
pdata	ENDS
;	COMDAT pdata
pdata	SEGMENT
$pdata$?_Makestr@_System_error@std@@CA?AV?$basic_string@DU?$char_traits@D@std@@V?$allocator@D@2@@2@Verror_code@2@V32@@Z DD imagerel $LN205
	DD	imagerel $LN205+405
	DD	imagerel $unwind$?_Makestr@_System_error@std@@CA?AV?$basic_string@DU?$char_traits@D@std@@V?$allocator@D@2@@2@Verror_code@2@V32@@Z
pdata	ENDS
;	COMDAT pdata
pdata	SEGMENT
$pdata$?make_error_code@std@@YA?AVerror_code@1@W4io_errc@1@@Z DD imagerel $LN29
	DD	imagerel $LN29+143
	DD	imagerel $unwind$?make_error_code@std@@YA?AVerror_code@1@W4io_errc@1@@Z
pdata	ENDS
;	COMDAT pdata
pdata	SEGMENT
$pdata$?equivalent@error_category@std@@UEBA_NHAEBVerror_condition@2@@Z DD imagerel $LN32
	DD	imagerel $LN32+95
	DD	imagerel $unwind$?equivalent@error_category@std@@UEBA_NHAEBVerror_condition@2@@Z
pdata	ENDS
;	COMDAT pdata
pdata	SEGMENT
$pdata$?message@error_code@std@@QEBA?AV?$basic_string@DU?$char_traits@D@std@@V?$allocator@D@2@@2@XZ DD imagerel $LN12
	DD	imagerel $LN12+39
	DD	imagerel $unwind$?message@error_code@std@@QEBA?AV?$basic_string@DU?$char_traits@D@std@@V?$allocator@D@2@@2@XZ
pdata	ENDS
;	COMDAT pdata
pdata	SEGMENT
$pdata$??_Gerror_category@std@@UEAAPEAXI@Z DD imagerel $LN9
	DD	imagerel $LN9+43
	DD	imagerel $unwind$??_Gerror_category@std@@UEAAPEAXI@Z
pdata	ENDS
;	COMDAT pdata
pdata	SEGMENT
$pdata$??0runtime_error@std@@QEAA@AEBV01@@Z DD imagerel $LN6
	DD	imagerel $LN6+63
	DD	imagerel $unwind$??0runtime_error@std@@QEAA@AEBV01@@Z
pdata	ENDS
;	COMDAT pdata
pdata	SEGMENT
$pdata$??_Gruntime_error@std@@UEAAPEAXI@Z DD imagerel $LN11
	DD	imagerel $LN11+66
	DD	imagerel $unwind$??_Gruntime_error@std@@UEAAPEAXI@Z
pdata	ENDS
;	COMDAT pdata
pdata	SEGMENT
$pdata$??0runtime_error@std@@QEAA@AEBV?$basic_string@DU?$char_traits@D@std@@V?$allocator@D@2@@1@@Z DD imagerel $LN25
	DD	imagerel $LN25+84
	DD	imagerel $unwind$??0runtime_error@std@@QEAA@AEBV?$basic_string@DU?$char_traits@D@std@@V?$allocator@D@2@@1@@Z
pdata	ENDS
;	COMDAT pdata
pdata	SEGMENT
$pdata$?now@system_clock@chrono@std@@SA?AV?$time_point@Usystem_clock@chrono@std@@V?$duration@_JU?$ratio@$00$0JIJGIA@@std@@@23@@23@XZ DD imagerel $LN8
	DD	imagerel $LN8+26
	DD	imagerel $unwind$?now@system_clock@chrono@std@@SA?AV?$time_point@Usystem_clock@chrono@std@@V?$duration@_JU?$ratio@$00$0JIJGIA@@std@@@23@@23@XZ
pdata	ENDS
;	COMDAT pdata
pdata	SEGMENT
$pdata$?_Deallocate@std@@YAXPEAX_K1@Z DD imagerel $LN16
	DD	imagerel $LN16+105
	DD	imagerel $unwind$?_Deallocate@std@@YAXPEAX_K1@Z
pdata	ENDS
;	COMDAT pdata
pdata	SEGMENT
$pdata$?_Allocate@std@@YAPEAX_K0_N@Z DD imagerel $LN14
	DD	imagerel $LN14+113
	DD	imagerel $unwind$?_Allocate@std@@YAPEAX_K0_N@Z
pdata	ENDS
;	COMDAT pdata
pdata	SEGMENT
$pdata$?copy@?$char_traits@D@std@@SAPEADQEADQEBD_K@Z DD imagerel $LN4
	DD	imagerel $LN4+23
	DD	imagerel $unwind$?copy@?$char_traits@D@std@@SAPEADQEADQEBD_K@Z
pdata	ENDS
;	COMDAT pdata
pdata	SEGMENT
$pdata$??_Gexception@std@@UEAAPEAXI@Z DD imagerel $LN8
	DD	imagerel $LN8+66
	DD	imagerel $unwind$??_Gexception@std@@UEAAPEAXI@Z
pdata	ENDS
;	COMDAT pdata
pdata	SEGMENT
$pdata$??0exception@std@@QEAA@AEBV01@@Z DD imagerel $LN4
	DD	imagerel $LN4+53
	DD	imagerel $unwind$??0exception@std@@QEAA@AEBV01@@Z
pdata	ENDS
;	COMDAT pdata
pdata	SEGMENT
$pdata$??0exception@std@@QEAA@QEBD@Z DD imagerel $LN4
	DD	imagerel $LN4+64
	DD	imagerel $unwind$??0exception@std@@QEAA@QEBD@Z
pdata	ENDS
;	COMDAT xdata
xdata	SEGMENT
$unwind$??0exception@std@@QEAA@QEBD@Z DD 020601H
	DD	030025206H
xdata	ENDS
;	COMDAT xdata
xdata	SEGMENT
$unwind$??0exception@std@@QEAA@AEBV01@@Z DD 020601H
	DD	030023206H
xdata	ENDS
;	COMDAT xdata
xdata	SEGMENT
$unwind$??_Gexception@std@@UEAAPEAXI@Z DD 040a01H
	DD	06340aH
	DD	07006320aH
xdata	ENDS
;	COMDAT xdata
xdata	SEGMENT
$unwind$?copy@?$char_traits@D@std@@SAPEADQEADQEBD_K@Z DD 020601H
	DD	030023206H
xdata	ENDS
;	COMDAT xdata
xdata	SEGMENT
$unwind$?_Allocate@std@@YAPEAX_K0_N@Z DD 010401H
	DD	04204H
xdata	ENDS
;	COMDAT xdata
xdata	SEGMENT
$unwind$?_Deallocate@std@@YAXPEAX_K1@Z DD 010401H
	DD	04204H
xdata	ENDS
;	COMDAT xdata
xdata	SEGMENT
$unwind$?now@system_clock@chrono@std@@SA?AV?$time_point@Usystem_clock@chrono@std@@V?$duration@_JU?$ratio@$00$0JIJGIA@@std@@@23@@23@XZ DD 020601H
	DD	030023206H
xdata	ENDS
;	COMDAT xdata
xdata	SEGMENT
$unwind$??0runtime_error@std@@QEAA@AEBV?$basic_string@DU?$char_traits@D@std@@V?$allocator@D@2@@1@@Z DD 020601H
	DD	030025206H
xdata	ENDS
;	COMDAT xdata
xdata	SEGMENT
$unwind$??_Gruntime_error@std@@UEAAPEAXI@Z DD 040a01H
	DD	06340aH
	DD	07006320aH
xdata	ENDS
;	COMDAT xdata
xdata	SEGMENT
$unwind$??0runtime_error@std@@QEAA@AEBV01@@Z DD 020601H
	DD	030023206H
xdata	ENDS
;	COMDAT xdata
xdata	SEGMENT
$unwind$??_Gerror_category@std@@UEAAPEAXI@Z DD 020601H
	DD	030023206H
xdata	ENDS
;	COMDAT xdata
xdata	SEGMENT
$unwind$?message@error_code@std@@QEBA?AV?$basic_string@DU?$char_traits@D@std@@V?$allocator@D@2@@2@XZ DD 020601H
	DD	030025206H
xdata	ENDS
;	COMDAT xdata
xdata	SEGMENT
$unwind$?equivalent@error_category@std@@UEBA_NHAEBVerror_condition@2@@Z DD 020601H
	DD	030025206H
xdata	ENDS
;	COMDAT xdata
xdata	SEGMENT
$unwind$?make_error_code@std@@YA?AVerror_code@1@W4io_errc@1@@Z DD 040a01H
	DD	06340aH
	DD	07006320aH
xdata	ENDS
;	COMDAT xdata
xdata	SEGMENT
$ip2state$?_Makestr@_System_error@std@@CA?AV?$basic_string@DU?$char_traits@D@std@@V?$allocator@D@2@@2@Verror_code@2@V32@@Z DD imagerel ?_Makestr@_System_error@std@@CA?AV?$basic_string@DU?$char_traits@D@std@@V?$allocator@D@2@@2@Verror_code@2@V32@@Z
	DD	0ffffffffH
	DD	imagerel ?_Makestr@_System_error@std@@CA?AV?$basic_string@DU?$char_traits@D@std@@V?$allocator@D@2@@2@Verror_code@2@V32@@Z+60
	DD	00H
	DD	imagerel ?_Makestr@_System_error@std@@CA?AV?$basic_string@DU?$char_traits@D@std@@V?$allocator@D@2@@2@Verror_code@2@V32@@Z+99
	DD	01H
	DD	imagerel ?_Makestr@_System_error@std@@CA?AV?$basic_string@DU?$char_traits@D@std@@V?$allocator@D@2@@2@Verror_code@2@V32@@Z+118
	DD	00H
	DD	imagerel ?_Makestr@_System_error@std@@CA?AV?$basic_string@DU?$char_traits@D@std@@V?$allocator@D@2@@2@Verror_code@2@V32@@Z+288
	DD	0ffffffffH
xdata	ENDS
;	COMDAT xdata
xdata	SEGMENT
$stateUnwindMap$?_Makestr@_System_error@std@@CA?AV?$basic_string@DU?$char_traits@D@std@@V?$allocator@D@2@@2@Verror_code@2@V32@@Z DD 0ffffffffH
	DD	imagerel ?dtor$0@?0??_Makestr@_System_error@std@@CA?AV?$basic_string@DU?$char_traits@D@std@@V?$allocator@D@2@@2@Verror_code@2@V32@@Z@4HA
	DD	00H
	DD	imagerel ?dtor$1@?0??_Makestr@_System_error@std@@CA?AV?$basic_string@DU?$char_traits@D@std@@V?$allocator@D@2@@2@Verror_code@2@V32@@Z@4HA
xdata	ENDS
;	COMDAT CONST
CONST	SEGMENT
$cppxdata$?_Makestr@_System_error@std@@CA?AV?$basic_string@DU?$char_traits@D@std@@V?$allocator@D@2@@2@Verror_code@2@V32@@Z DD 019930522H
	DD	02H
	DD	imagerel $stateUnwindMap$?_Makestr@_System_error@std@@CA?AV?$basic_string@DU?$char_traits@D@std@@V?$allocator@D@2@@2@Verror_code@2@V32@@Z
	DD	00H
	DD	00H
	DD	05H
	DD	imagerel $ip2state$?_Makestr@_System_error@std@@CA?AV?$basic_string@DU?$char_traits@D@std@@V?$allocator@D@2@@2@Verror_code@2@V32@@Z
	DD	028H
	DD	00H
	DD	01H
CONST	ENDS
;	COMDAT xdata
xdata	SEGMENT
$unwind$?_Makestr@_System_error@std@@CA?AV?$basic_string@DU?$char_traits@D@std@@V?$allocator@D@2@@2@Verror_code@2@V32@@Z DD 062819H
	DD	0133419H
	DD	07004b208H
	DD	050026003H
	DD	imagerel __GSHandlerCheck_EH
	DD	imagerel $cppxdata$?_Makestr@_System_error@std@@CA?AV?$basic_string@DU?$char_traits@D@std@@V?$allocator@D@2@@2@Verror_code@2@V32@@Z
	DD	05aH
xdata	ENDS
;	COMDAT xdata
xdata	SEGMENT
$unwind$??0_System_error@std@@IEAA@Verror_code@1@AEBV?$basic_string@DU?$char_traits@D@std@@V?$allocator@D@2@@1@@Z DD 041c19H
	DD	015340dH
	DD	07006f20dH
	DD	imagerel __GSHandlerCheck
	DD	070H
xdata	ENDS
;	COMDAT xdata
xdata	SEGMENT
$unwind$??_G_System_error@std@@UEAAPEAXI@Z DD 040a01H
	DD	06340aH
	DD	07006320aH
xdata	ENDS
;	COMDAT xdata
xdata	SEGMENT
$ip2state$??0system_error@std@@QEAA@Verror_code@1@PEBD@Z DD imagerel ??0system_error@std@@QEAA@Verror_code@1@PEBD@Z
	DD	0ffffffffH
	DD	imagerel ??0system_error@std@@QEAA@Verror_code@1@PEBD@Z+93
	DD	00H
	DD	imagerel ??0system_error@std@@QEAA@Verror_code@1@PEBD@Z+120
	DD	0ffffffffH
xdata	ENDS
;	COMDAT xdata
xdata	SEGMENT
$stateUnwindMap$??0system_error@std@@QEAA@Verror_code@1@PEBD@Z DD 0ffffffffH
	DD	imagerel ?dtor$0@?0???0system_error@std@@QEAA@Verror_code@1@PEBD@Z@4HA
xdata	ENDS
;	COMDAT CONST
CONST	SEGMENT
$cppxdata$??0system_error@std@@QEAA@Verror_code@1@PEBD@Z DD 019930522H
	DD	01H
	DD	imagerel $stateUnwindMap$??0system_error@std@@QEAA@Verror_code@1@PEBD@Z
	DD	00H
	DD	00H
	DD	03H
	DD	imagerel $ip2state$??0system_error@std@@QEAA@Verror_code@1@PEBD@Z
	DD	020H
	DD	00H
	DD	01H
CONST	ENDS
;	COMDAT xdata
xdata	SEGMENT
$unwind$??0system_error@std@@QEAA@Verror_code@1@PEBD@Z DD 042319H
	DD	0133414H
	DD	07004d208H
	DD	imagerel __GSHandlerCheck_EH
	DD	imagerel $cppxdata$??0system_error@std@@QEAA@Verror_code@1@PEBD@Z
	DD	062H
xdata	ENDS
;	COMDAT xdata
xdata	SEGMENT
$unwind$??_Gsystem_error@std@@UEAAPEAXI@Z DD 040a01H
	DD	06340aH
	DD	07006320aH
xdata	ENDS
;	COMDAT xdata
xdata	SEGMENT
$unwind$?message@_Generic_error_category@std@@UEBA?AV?$basic_string@DU?$char_traits@D@std@@V?$allocator@D@2@@2@H@Z DD 020601H
	DD	030025206H
xdata	ENDS
;	COMDAT xdata
xdata	SEGMENT
$unwind$??_G_Generic_error_category@std@@UEAAPEAXI@Z DD 020601H
	DD	030023206H
xdata	ENDS
;	COMDAT xdata
xdata	SEGMENT
$unwind$?message@_Iostream_error_category@std@@UEBA?AV?$basic_string@DU?$char_traits@D@std@@V?$allocator@D@2@@2@H@Z DD 020601H
	DD	030025206H
xdata	ENDS
;	COMDAT xdata
xdata	SEGMENT
$unwind$??_G_Iostream_error_category@std@@UEAAPEAXI@Z DD 020601H
	DD	030023206H
xdata	ENDS
;	COMDAT xdata
xdata	SEGMENT
$unwind$?iostream_category@std@@YAAEBVerror_category@1@XZ DD 010401H
	DD	04204H
xdata	ENDS
;	COMDAT xdata
xdata	SEGMENT
$unwind$??0failure@ios_base@std@@QEAA@PEBDAEBVerror_code@2@@Z DD 020601H
	DD	030025206H
xdata	ENDS
;	COMDAT xdata
xdata	SEGMENT
$unwind$?clear@ios_base@std@@QEAAXH_N@Z DD 010401H
	DD	0c204H
xdata	ENDS
;	COMDAT xdata
xdata	SEGMENT
$unwind$??_Gfailure@ios_base@std@@UEAAPEAXI@Z DD 040a01H
	DD	06340aH
	DD	07006320aH
xdata	ENDS
;	COMDAT xdata
xdata	SEGMENT
$unwind$??0failure@ios_base@std@@QEAA@AEBV012@@Z DD 040a01H
	DD	06340aH
	DD	07006320aH
xdata	ENDS
;	COMDAT xdata
xdata	SEGMENT
$unwind$??0system_error@std@@QEAA@AEBV01@@Z DD 040a01H
	DD	06340aH
	DD	07006320aH
xdata	ENDS
;	COMDAT xdata
xdata	SEGMENT
$unwind$??0_System_error@std@@QEAA@AEBV01@@Z DD 040a01H
	DD	06340aH
	DD	07006320aH
xdata	ENDS
;	COMDAT xdata
xdata	SEGMENT
$unwind$?_Check_C_return@std@@YAHH@Z DD 020601H
	DD	030023206H
xdata	ENDS
;	COMDAT xdata
xdata	SEGMENT
$unwind$?_Thrd_startX@std@@YAHPEAU_Thrd_imp_t@@P6AIPEAX@Z1@Z DD 020601H
	DD	030023206H
xdata	ENDS
;	COMDAT xdata
xdata	SEGMENT
$unwind$?_Mtx_initX@std@@YAHPEAPEAU_Mtx_internal_imp_t@@H@Z DD 020601H
	DD	030023206H
xdata	ENDS
;	COMDAT xdata
xdata	SEGMENT
$unwind$?_Mtx_lockX@std@@YAHPEAU_Mtx_internal_imp_t@@@Z DD 020601H
	DD	030023206H
xdata	ENDS
;	COMDAT xdata
xdata	SEGMENT
$unwind$?_Mtx_unlockX@std@@YAHPEAU_Mtx_internal_imp_t@@@Z DD 020601H
	DD	030023206H
xdata	ENDS
;	COMDAT xdata
xdata	SEGMENT
$unwind$?_Cnd_initX@std@@YAHPEAPEAU_Cnd_internal_imp_t@@@Z DD 020601H
	DD	030023206H
xdata	ENDS
;	COMDAT xdata
xdata	SEGMENT
$unwind$?_Cnd_waitX@std@@YAHPEAU_Cnd_internal_imp_t@@PEAU_Mtx_internal_imp_t@@@Z DD 020601H
	DD	030023206H
xdata	ENDS
;	COMDAT xdata
xdata	SEGMENT
$unwind$?_Cnd_signalX@std@@YAHPEAU_Cnd_internal_imp_t@@@Z DD 020601H
	DD	030023206H
xdata	ENDS
;	COMDAT xdata
xdata	SEGMENT
$ip2state$??0_Pad@std@@QEAA@XZ DD imagerel ??0_Pad@std@@QEAA@XZ
	DD	0ffffffffH
	DD	imagerel ??0_Pad@std@@QEAA@XZ+67
	DD	00H
	DD	imagerel ??0_Pad@std@@QEAA@XZ+106
	DD	01H
	DD	imagerel ??0_Pad@std@@QEAA@XZ+127
	DD	0ffffffffH
xdata	ENDS
;	COMDAT xdata
xdata	SEGMENT
$stateUnwindMap$??0_Pad@std@@QEAA@XZ DD 0ffffffffH
	DD	imagerel ?dtor$0@?0???0_Pad@std@@QEAA@XZ@4HA
	DD	00H
	DD	imagerel ?dtor$1@?0???0_Pad@std@@QEAA@XZ@4HA
xdata	ENDS
;	COMDAT CONST
CONST	SEGMENT
$cppxdata$??0_Pad@std@@QEAA@XZ DD 019930522H
	DD	02H
	DD	imagerel $stateUnwindMap$??0_Pad@std@@QEAA@XZ
	DD	00H
	DD	00H
	DD	04H
	DD	imagerel $ip2state$??0_Pad@std@@QEAA@XZ
	DD	020H
	DD	00H
	DD	01H
CONST	ENDS
;	COMDAT xdata
xdata	SEGMENT
$unwind$??0_Pad@std@@QEAA@XZ DD 041411H
	DD	0c3414H
	DD	070029206H
	DD	imagerel __CxxFrameHandler3
	DD	imagerel $cppxdata$??0_Pad@std@@QEAA@XZ
xdata	ENDS
;	COMDAT xdata
xdata	SEGMENT
$ip2state$??1_Pad@std@@QEAA@XZ DD imagerel ??1_Pad@std@@QEAA@XZ
	DD	0ffffffffH
xdata	ENDS
;	COMDAT CONST
CONST	SEGMENT
$cppxdata$??1_Pad@std@@QEAA@XZ DD 019930522H
	DD	00H
	DD	00H
	DD	00H
	DD	00H
	DD	01H
	DD	imagerel $ip2state$??1_Pad@std@@QEAA@XZ
	DD	020H
	DD	00H
	DD	05H
CONST	ENDS
;	COMDAT xdata
xdata	SEGMENT
$unwind$??1_Pad@std@@QEAA@XZ DD 041419H
	DD	083414H
	DD	070025206H
	DD	imagerel __CxxFrameHandler3
	DD	imagerel $cppxdata$??1_Pad@std@@QEAA@XZ
xdata	ENDS
;	COMDAT xdata
xdata	SEGMENT
$unwind$?_Launch@_Pad@std@@QEAAXPEAU_Thrd_imp_t@@@Z DD 020601H
	DD	030023206H
xdata	ENDS
;	COMDAT xdata
xdata	SEGMENT
$unwind$?_Release@_Pad@std@@QEAAXXZ DD 020601H
	DD	030023206H
xdata	ENDS
;	COMDAT xdata
xdata	SEGMENT
$unwind$?_Call_func@_Pad@std@@CAIPEAX@Z DD 010401H
	DD	04204H
xdata	ENDS
;	COMDAT xdata
xdata	SEGMENT
$unwind$??1thread@std@@QEAA@XZ DD 010401H
	DD	04204H
xdata	ENDS
;	COMDAT xdata
xdata	SEGMENT
$unwind$?join@thread@std@@QEAAXXZ DD 020601H
	DD	030025206H
xdata	ENDS
;	COMDAT xdata
xdata	SEGMENT
$unwind$?get_id@this_thread@std@@YA?AVid@thread@2@XZ DD 020601H
	DD	030023206H
	ORG $+7
$cppxdata$main DD 019930522H
	DD	01H
	DD	imagerel $stateUnwindMap$main
	DD	00H
	DD	00H
	DD	03H
	DD	imagerel $ip2state$main
	DD	020H
	DD	00H
	DD	01H
CONST	ENDS
xdata	SEGMENT
$unwind$main DD	061811H
	DD	0106418H
	DD	0f3414H
	DD	07004b208H
	DD	imagerel __CxxFrameHandler3
	DD	imagerel $cppxdata$main
$stateUnwindMap$main DD 0ffffffffH
	DD	imagerel main$dtor$0
$ip2state$main DD imagerel main
	DD	0ffffffffH
	DD	imagerel main+38
	DD	00H
	DD	imagerel main+230
	DD	0ffffffffH
xdata	ENDS
;	COMDAT xdata
xdata	SEGMENT
$unwind$??R<lambda_e77d7e1e559843f44c4e0b6d970cdb28>@@QEBAXXZ DD 011319H
	DD	08204H
	DD	imagerel __GSHandlerCheck
	DD	030H
xdata	ENDS
;	COMDAT xdata
xdata	SEGMENT
$unwind$??1?$basic_string@DU?$char_traits@D@std@@V?$allocator@D@2@@std@@QEAA@XZ DD 010401H
	DD	04204H
xdata	ENDS
;	COMDAT xdata
xdata	SEGMENT
$unwind$??0?$basic_string@DU?$char_traits@D@std@@V?$allocator@D@2@@std@@QEAA@$$QEAV01@@Z DD 040a01H
	DD	06340aH
	DD	07006320aH
xdata	ENDS
;	COMDAT xdata
xdata	SEGMENT
$unwind$??0?$basic_string@DU?$char_traits@D@std@@V?$allocator@D@2@@std@@QEAA@QEBD@Z DD 020601H
	DD	030023206H
xdata	ENDS
;	COMDAT xdata
xdata	SEGMENT
$unwind$??0?$basic_string@DU?$char_traits@D@std@@V?$allocator@D@2@@std@@QEAA@AEBV01@@Z DD 020601H
	DD	030023206H
xdata	ENDS
;	COMDAT xdata
xdata	SEGMENT
$unwind$?_Xlength@?$vector@Vthread@std@@V?$allocator@Vthread@std@@@2@@std@@CAXXZ DD 010401H
	DD	04204H
xdata	ENDS
;	COMDAT xdata
xdata	SEGMENT
$unwind$?_Tidy@?$vector@Vthread@std@@V?$allocator@Vthread@std@@@2@@std@@AEAAXXZ DD 020601H
	DD	030023206H
xdata	ENDS
;	COMDAT xdata
xdata	SEGMENT
$unwind$?_Reallocate_exactly@?$vector@Vthread@std@@V?$allocator@Vthread@std@@@2@@std@@AEAAX_K@Z DD 040a01H
	DD	08340aH
	DD	07006520aH
xdata	ENDS
;	COMDAT xdata
xdata	SEGMENT
$unwind$?_Tidy_deallocate_only@?$basic_string@DU?$char_traits@D@std@@V?$allocator@D@2@@std@@QEAAXXZ DD 010401H
	DD	04204H
xdata	ENDS
;	COMDAT xdata
xdata	SEGMENT
$chain$1$?append@?$basic_string@DU?$char_traits@D@std@@V?$allocator@D@2@@std@@QEAAAEAV12@QEBD_K@Z DD 021H
	DD	imagerel $LN142
	DD	imagerel $LN142+119
	DD	imagerel $unwind$?append@?$basic_string@DU?$char_traits@D@std@@V?$allocator@D@2@@std@@QEAAAEAV12@QEBD_K@Z
xdata	ENDS
;	COMDAT xdata
xdata	SEGMENT
$chain$0$?append@?$basic_string@DU?$char_traits@D@std@@V?$allocator@D@2@@std@@QEAAAEAV12@QEBD_K@Z DD 020521H
	DD	067405H
	DD	imagerel $LN142
	DD	imagerel $LN142+119
	DD	imagerel $unwind$?append@?$basic_string@DU?$char_traits@D@std@@V?$allocator@D@2@@std@@QEAAAEAV12@QEBD_K@Z
xdata	ENDS
;	COMDAT xdata
xdata	SEGMENT
$unwind$?append@?$basic_string@DU?$char_traits@D@std@@V?$allocator@D@2@@std@@QEAAAEAV12@QEBD_K@Z DD 060f01H
	DD	08540fH
	DD	07340fH
	DD	0600b320fH
xdata	ENDS
;	COMDAT xdata
xdata	SEGMENT
$chain$1$?append@?$basic_string@DU?$char_traits@D@std@@V?$allocator@D@2@@std@@QEAAAEAV12@AEBV12@_K_K@Z DD 021H
	DD	imagerel $LN151
	DD	imagerel $LN151+75
	DD	imagerel $unwind$?append@?$basic_string@DU?$char_traits@D@std@@V?$allocator@D@2@@std@@QEAAAEAV12@AEBV12@_K_K@Z
xdata	ENDS
;	COMDAT xdata
xdata	SEGMENT
$chain$0$?append@?$basic_string@DU?$char_traits@D@std@@V?$allocator@D@2@@std@@QEAAAEAV12@AEBV12@_K_K@Z DD 020521H
	DD	067405H
	DD	imagerel $LN151
	DD	imagerel $LN151+75
	DD	imagerel $unwind$?append@?$basic_string@DU?$char_traits@D@std@@V?$allocator@D@2@@std@@QEAAAEAV12@AEBV12@_K_K@Z
xdata	ENDS
;	COMDAT xdata
xdata	SEGMENT
$unwind$?append@?$basic_string@DU?$char_traits@D@std@@V?$allocator@D@2@@std@@QEAAAEAV12@AEBV12@_K_K@Z DD 081501H
	DD	096415H
	DD	085415H
	DD	073415H
	DD	0e0113215H
xdata	ENDS
;	COMDAT xdata
xdata	SEGMENT
$unwind$?_Assign_rv_contents@?$basic_string@DU?$char_traits@D@std@@V?$allocator@D@2@@std@@QEAAX$$QEAV12@@Z DD 040a01H
	DD	06340aH
	DD	07006320aH
xdata	ENDS
;	COMDAT xdata
xdata	SEGMENT
$unwind$?deallocate@?$_Wrap_alloc@V?$allocator@Vthread@std@@@std@@@std@@QEAAXPEAVthread@2@_K@Z DD 010401H
	DD	04204H
xdata	ENDS
;	COMDAT xdata
xdata	SEGMENT
$unwind$?allocate@?$_Wrap_alloc@V?$allocator@Vthread@std@@@std@@@std@@QEAAPEAVthread@2@_K@Z DD 010401H
	DD	04204H
xdata	ENDS
;	COMDAT xdata
xdata	SEGMENT
$unwind$?_Change_array@?$vector@Vthread@std@@V?$allocator@Vthread@std@@@2@@std@@AEAAXQEAVthread@2@_K1@Z DD 081401H
	DD	086414H
	DD	075414H
	DD	063414H
	DD	070103214H
xdata	ENDS
;	COMDAT xdata
xdata	SEGMENT
$unwind$?_Destroy@?$vector@Vthread@std@@V?$allocator@Vthread@std@@@2@@std@@AEAAXPEAVthread@2@0@Z DD 010401H
	DD	04204H
xdata	ENDS
;	COMDAT xdata
xdata	SEGMENT
$unwind$?_Umove_if_noexcept@?$vector@Vthread@std@@V?$allocator@Vthread@std@@@2@@std@@AEAAXPEAVthread@2@00@Z DD 010401H
	DD	06204H
xdata	ENDS
;	COMDAT xdata
xdata	SEGMENT
$unwind$?deallocate@?$_Wrap_alloc@V?$allocator@D@std@@@std@@QEAAXPEAD_K@Z DD 010401H
	DD	04204H
xdata	ENDS
;	COMDAT xdata
xdata	SEGMENT
$unwind$?_Check_offset@?$basic_string@DU?$char_traits@D@std@@V?$allocator@D@2@@std@@QEBAX_K@Z DD 010401H
	DD	04204H
xdata	ENDS
;	COMDAT xdata
xdata	SEGMENT
$unwind$?_Xlen@?$basic_string@DU?$char_traits@D@std@@V?$allocator@D@2@@std@@SAXXZ DD 010401H
	DD	04204H
xdata	ENDS
;	COMDAT xdata
xdata	SEGMENT
$unwind$?_Grow@?$basic_string@DU?$char_traits@D@std@@V?$allocator@D@2@@std@@QEAA_N_K@Z DD 010401H
	DD	04204H
xdata	ENDS
;	COMDAT xdata
xdata	SEGMENT
$unwind$?assign@?$basic_string@DU?$char_traits@D@std@@V?$allocator@D@2@@std@@QEAAAEAV12@QEBD_K@Z DD 060f01H
	DD	07640fH
	DD	06340fH
	DD	0700b320fH
xdata	ENDS
;	COMDAT xdata
xdata	SEGMENT
$unwind$?assign@?$basic_string@DU?$char_traits@D@std@@V?$allocator@D@2@@std@@QEAAAEAV12@AEBV12@_K_K@Z DD 081501H
	DD	087415H
	DD	076415H
	DD	063415H
	DD	0e0113215H
xdata	ENDS
;	COMDAT xdata
xdata	SEGMENT
$unwind$?_Umove_if_noexcept1@?$vector@Vthread@std@@V?$allocator@Vthread@std@@@2@@std@@AEAAXPEAVthread@2@00U?$integral_constant@_N$00@2@@Z DD 010401H
	DD	06204H
xdata	ENDS
;	COMDAT xdata
xdata	SEGMENT
$unwind$?allocate@?$allocator@Vthread@std@@@std@@QEAAPEAVthread@2@_K@Z DD 010401H
	DD	04204H
xdata	ENDS
;	COMDAT xdata
xdata	SEGMENT
$unwind$?deallocate@?$allocator@Vthread@std@@@std@@QEAAXPEAVthread@2@_K@Z DD 010401H
	DD	04204H
xdata	ENDS
;	COMDAT xdata
xdata	SEGMENT
$unwind$?_Xran@?$basic_string@DU?$char_traits@D@std@@V?$allocator@D@2@@std@@SAXXZ DD 010401H
	DD	04204H
xdata	ENDS
;	COMDAT xdata
xdata	SEGMENT
$unwind$?catch$16@?0??_Copy@?$basic_string@DU?$char_traits@D@std@@V?$allocator@D@2@@std@@QEAAX_K@Z@4HA DD 020a19H
	DD	05006320aH
	DD	imagerel __CxxFrameHandler3
	DD	imagerel $cppxdata$?_Copy@?$basic_string@DU?$char_traits@D@std@@V?$allocator@D@2@@std@@QEAAX_K@Z
xdata	ENDS
;	COMDAT xdata
xdata	SEGMENT
$ip2state$?_Copy@?$basic_string@DU?$char_traits@D@std@@V?$allocator@D@2@@std@@QEAAX_K@Z DD imagerel ?_Copy@?$basic_string@DU?$char_traits@D@std@@V?$allocator@D@2@@std@@QEAAX_K@Z
	DD	0ffffffffH
	DD	imagerel ?_Copy@?$basic_string@DU?$char_traits@D@std@@V?$allocator@D@2@@std@@QEAAX_K@Z+119
	DD	00H
	DD	imagerel ?_Copy@?$basic_string@DU?$char_traits@D@std@@V?$allocator@D@2@@std@@QEAAX_K@Z+185
	DD	0ffffffffH
	DD	imagerel ?catch$16@?0??_Copy@?$basic_string@DU?$char_traits@D@std@@V?$allocator@D@2@@std@@QEAAX_K@Z@4HA
	DD	00H
	DD	imagerel ?catch$16@?0??_Copy@?$basic_string@DU?$char_traits@D@std@@V?$allocator@D@2@@std@@QEAAX_K@Z@4HA+13
	DD	01H
	DD	imagerel ?catch$16@?0??_Copy@?$basic_string@DU?$char_traits@D@std@@V?$allocator@D@2@@std@@QEAAX_K@Z@4HA+37
	DD	00H
xdata	ENDS
;	COMDAT xdata
xdata	SEGMENT
$handlerMap$0$?_Copy@?$basic_string@DU?$char_traits@D@std@@V?$allocator@D@2@@std@@QEAAX_K@Z DD 040H
	DD	00H
	DD	00H
	DD	imagerel ?catch$16@?0??_Copy@?$basic_string@DU?$char_traits@D@std@@V?$allocator@D@2@@std@@QEAAX_K@Z@4HA
	DD	038H
xdata	ENDS
;	COMDAT xdata
xdata	SEGMENT
$tryMap$?_Copy@?$basic_string@DU?$char_traits@D@std@@V?$allocator@D@2@@std@@QEAAX_K@Z DD 00H
	DD	00H
	DD	01H
	DD	01H
	DD	imagerel $handlerMap$0$?_Copy@?$basic_string@DU?$char_traits@D@std@@V?$allocator@D@2@@std@@QEAAX_K@Z
xdata	ENDS
;	COMDAT xdata
xdata	SEGMENT
$stateUnwindMap$?_Copy@?$basic_string@DU?$char_traits@D@std@@V?$allocator@D@2@@std@@QEAAX_K@Z DD 0ffffffffH
	DD	00H
	DD	0ffffffffH
	DD	00H
xdata	ENDS
;	COMDAT CONST
CONST	SEGMENT
$cppxdata$?_Copy@?$basic_string@DU?$char_traits@D@std@@V?$allocator@D@2@@std@@QEAAX_K@Z DD 019930522H
	DD	02H
	DD	imagerel $stateUnwindMap$?_Copy@?$basic_string@DU?$char_traits@D@std@@V?$allocator@D@2@@std@@QEAAX_K@Z
	DD	01H
	DD	imagerel $tryMap$?_Copy@?$basic_string@DU?$char_traits@D@std@@V?$allocator@D@2@@std@@QEAAX_K@Z
	DD	06H
	DD	imagerel $ip2state$?_Copy@?$basic_string@DU?$char_traits@D@std@@V?$allocator@D@2@@std@@QEAAX_K@Z
	DD	020H
	DD	00H
	DD	01H
CONST	ENDS
;	COMDAT xdata
xdata	SEGMENT
$unwind$?_Copy@?$basic_string@DU?$char_traits@D@std@@V?$allocator@D@2@@std@@QEAAX_K@Z DD 051c19H
	DD	0e00f6213H
	DD	0600c700dH
	DD	0300bH
	DD	imagerel __CxxFrameHandler3
	DD	imagerel $cppxdata$?_Copy@?$basic_string@DU?$char_traits@D@std@@V?$allocator@D@2@@std@@QEAAX_K@Z
xdata	ENDS
;	COMDAT xdata
xdata	SEGMENT
$unwind$?erase@?$basic_string@DU?$char_traits@D@std@@V?$allocator@D@2@@std@@QEAAAEAV12@_K0@Z DD 040a01H
	DD	06340aH
	DD	07006320aH
xdata	ENDS
;	COMDAT xdata
xdata	SEGMENT
$unwind$?erase@?$basic_string@DU?$char_traits@D@std@@V?$allocator@D@2@@std@@QEAAAEAV12@_K@Z DD 010401H
	DD	04204H
xdata	ENDS
;	COMDAT xdata
xdata	SEGMENT
$unwind$?deallocate@?$allocator@D@std@@QEAAXPEAD_K@Z DD 010401H
	DD	04204H
xdata	ENDS
;	COMDAT xdata
xdata	SEGMENT
$unwind$?allocate@?$_Wrap_alloc@V?$allocator@D@std@@@std@@QEAAPEAD_K@Z DD 010401H
	DD	04204H
xdata	ENDS
;	COMDAT xdata
xdata	SEGMENT
$unwind$?allocate@?$allocator@D@std@@QEAAPEAD_K@Z DD 010401H
	DD	04204H
xdata	ENDS
;	COMDAT xdata
xdata	SEGMENT
$unwind$??$_Immortalize@V_Iostream_error_category@std@@@std@@YAAEAV_Iostream_error_category@0@XZ DD 010401H
	DD	04204H
xdata	ENDS
;	COMDAT xdata
xdata	SEGMENT
$unwind$?catch$13@?0???$?6U?$char_traits@D@std@@@std@@YAAEAV?$basic_ostream@DU?$char_traits@D@std@@@0@AEAV10@PEBD@Z@4HA DD 020a19H
	DD	05006320aH
	DD	imagerel __CxxFrameHandler3
	DD	imagerel $cppxdata$??$?6U?$char_traits@D@std@@@std@@YAAEAV?$basic_ostream@DU?$char_traits@D@std@@@0@AEAV10@PEBD@Z
xdata	ENDS
;	COMDAT xdata
xdata	SEGMENT
$ip2state$??$?6U?$char_traits@D@std@@@std@@YAAEAV?$basic_ostream@DU?$char_traits@D@std@@@0@AEAV10@PEBD@Z DD imagerel ??$?6U?$char_traits@D@std@@@std@@YAAEAV?$basic_ostream@DU?$char_traits@D@std@@@0@AEAV10@PEBD@Z
	DD	0ffffffffH
	DD	imagerel ??$?6U?$char_traits@D@std@@@std@@YAAEAV?$basic_ostream@DU?$char_traits@D@std@@@0@AEAV10@PEBD@Z+141
	DD	00H
	DD	imagerel ??$?6U?$char_traits@D@std@@@std@@YAAEAV?$basic_ostream@DU?$char_traits@D@std@@@0@AEAV10@PEBD@Z+195
	DD	01H
	DD	imagerel ??$?6U?$char_traits@D@std@@@std@@YAAEAV?$basic_ostream@DU?$char_traits@D@std@@@0@AEAV10@PEBD@Z+209
	DD	02H
	DD	imagerel ??$?6U?$char_traits@D@std@@@std@@YAAEAV?$basic_ostream@DU?$char_traits@D@std@@@0@AEAV10@PEBD@Z+478
	DD	01H
	DD	imagerel ??$?6U?$char_traits@D@std@@@std@@YAAEAV?$basic_ostream@DU?$char_traits@D@std@@@0@AEAV10@PEBD@Z+706
	DD	04H
	DD	imagerel ??$?6U?$char_traits@D@std@@@std@@YAAEAV?$basic_ostream@DU?$char_traits@D@std@@@0@AEAV10@PEBD@Z+724
	DD	05H
	DD	imagerel ??$?6U?$char_traits@D@std@@@std@@YAAEAV?$basic_ostream@DU?$char_traits@D@std@@@0@AEAV10@PEBD@Z+749
	DD	0ffffffffH
	DD	imagerel ?catch$13@?0???$?6U?$char_traits@D@std@@@std@@YAAEAV?$basic_ostream@DU?$char_traits@D@std@@@0@AEAV10@PEBD@Z@4HA
	DD	00H
	DD	imagerel ?catch$13@?0???$?6U?$char_traits@D@std@@@std@@YAAEAV?$basic_ostream@DU?$char_traits@D@std@@@0@AEAV10@PEBD@Z@4HA+13
	DD	03H
	DD	imagerel ?catch$13@?0???$?6U?$char_traits@D@std@@@std@@YAAEAV?$basic_ostream@DU?$char_traits@D@std@@@0@AEAV10@PEBD@Z@4HA+57
	DD	00H
	DD	imagerel ?catch$13@?0???$?6U?$char_traits@D@std@@@std@@YAAEAV?$basic_ostream@DU?$char_traits@D@std@@@0@AEAV10@PEBD@Z@4HA+66
	DD	03H
	DD	imagerel ?catch$13@?0???$?6U?$char_traits@D@std@@@std@@YAAEAV?$basic_ostream@DU?$char_traits@D@std@@@0@AEAV10@PEBD@Z@4HA+76
	DD	00H
xdata	ENDS
;	COMDAT xdata
xdata	SEGMENT
$handlerMap$0$??$?6U?$char_traits@D@std@@@std@@YAAEAV?$basic_ostream@DU?$char_traits@D@std@@@0@AEAV10@PEBD@Z DD 040H
	DD	00H
	DD	00H
	DD	imagerel ?catch$13@?0???$?6U?$char_traits@D@std@@@std@@YAAEAV?$basic_ostream@DU?$char_traits@D@std@@@0@AEAV10@PEBD@Z@4HA
	DD	038H
xdata	ENDS
;	COMDAT xdata
xdata	SEGMENT
$tryMap$??$?6U?$char_traits@D@std@@@std@@YAAEAV?$basic_ostream@DU?$char_traits@D@std@@@0@AEAV10@PEBD@Z DD 02H
	DD	02H
	DD	03H
	DD	01H
	DD	imagerel $handlerMap$0$??$?6U?$char_traits@D@std@@@std@@YAAEAV?$basic_ostream@DU?$char_traits@D@std@@@0@AEAV10@PEBD@Z
xdata	ENDS
;	COMDAT xdata
xdata	SEGMENT
$stateUnwindMap$??$?6U?$char_traits@D@std@@@std@@YAAEAV?$basic_ostream@DU?$char_traits@D@std@@@0@AEAV10@PEBD@Z DD 0ffffffffH
	DD	imagerel ?dtor$2@?0???$?6U?$char_traits@D@std@@@std@@YAAEAV?$basic_ostream@DU?$char_traits@D@std@@@0@AEAV10@PEBD@Z@4HA
	DD	0ffffffffH
	DD	imagerel ?dtor$0@?0???$?6U?$char_traits@D@std@@@std@@YAAEAV?$basic_ostream@DU?$char_traits@D@std@@@0@AEAV10@PEBD@Z@4HA
	DD	01H
	DD	00H
	DD	01H
	DD	00H
	DD	0ffffffffH
	DD	imagerel __std_terminate
	DD	04H
	DD	imagerel __std_terminate
xdata	ENDS
;	COMDAT CONST
CONST	SEGMENT
$cppxdata$??$?6U?$char_traits@D@std@@@std@@YAAEAV?$basic_ostream@DU?$char_traits@D@std@@@0@AEAV10@PEBD@Z DD 019930522H
	DD	06H
	DD	imagerel $stateUnwindMap$??$?6U?$char_traits@D@std@@@std@@YAAEAV?$basic_ostream@DU?$char_traits@D@std@@@0@AEAV10@PEBD@Z
	DD	01H
	DD	imagerel $tryMap$??$?6U?$char_traits@D@std@@@std@@YAAEAV?$basic_ostream@DU?$char_traits@D@std@@@0@AEAV10@PEBD@Z
	DD	0dH
	DD	imagerel $ip2state$??$?6U?$char_traits@D@std@@@std@@YAAEAV?$basic_ostream@DU?$char_traits@D@std@@@0@AEAV10@PEBD@Z
	DD	040H
	DD	00H
	DD	01H
CONST	ENDS
;	COMDAT xdata
xdata	SEGMENT
$unwind$??$?6U?$char_traits@D@std@@@std@@YAAEAV?$basic_ostream@DU?$char_traits@D@std@@@0@AEAV10@PEBD@Z DD 092519H
	DD	01f3425H
	DD	0180114H
	DD	0e00bf00dH
	DD	07007c009H
	DD	06006H
	DD	imagerel __CxxFrameHandler3
	DD	imagerel $cppxdata$??$?6U?$char_traits@D@std@@@std@@YAAEAV?$basic_ostream@DU?$char_traits@D@std@@@0@AEAV10@PEBD@Z
xdata	ENDS
;	COMDAT xdata
xdata	SEGMENT
$unwind$??$sleep_for@HU?$ratio@$0OBA@$00@std@@@this_thread@std@@YAXAEBV?$duration@HU?$ratio@$0OBA@$00@std@@@chrono@1@@Z DD 021519H
	DD	030027206H
	DD	imagerel __GSHandlerCheck
	DD	030H
xdata	ENDS
;	COMDAT xdata
xdata	SEGMENT
$unwind$?catch$95@?0???$emplace_back@V<lambda_e77d7e1e559843f44c4e0b6d970cdb28>@@@?$vector@Vthread@std@@V?$allocator@Vthread@std@@@2@@std@@QEAAX$$QEAV<lambda_e77d7e1e559843f44c4e0b6d970cdb28>@@@Z@4HA DD 030b19H
	DD	05007620bH
	DD	03006H
	DD	imagerel __CxxFrameHandler3
	DD	imagerel $cppxdata$??$emplace_back@V<lambda_e77d7e1e559843f44c4e0b6d970cdb28>@@@?$vector@Vthread@std@@V?$allocator@Vthread@std@@@2@@std@@QEAAX$$QEAV<lambda_e77d7e1e559843f44c4e0b6d970cdb28>@@@Z
xdata	ENDS
;	COMDAT xdata
xdata	SEGMENT
$unwind$?dtor$72@?0???$emplace_back@V<lambda_e77d7e1e559843f44c4e0b6d970cdb28>@@@?$vector@Vthread@std@@V?$allocator@Vthread@std@@@2@@std@@QEAAX$$QEAV<lambda_e77d7e1e559843f44c4e0b6d970cdb28>@@@Z@4HA DD 020601H
	DD	050023206H
xdata	ENDS
;	COMDAT xdata
xdata	SEGMENT
$unwind$?dtor$16@?0???$emplace_back@V<lambda_e77d7e1e559843f44c4e0b6d970cdb28>@@@?$vector@Vthread@std@@V?$allocator@Vthread@std@@@2@@std@@QEAAX$$QEAV<lambda_e77d7e1e559843f44c4e0b6d970cdb28>@@@Z@4HA DD 020601H
	DD	050023206H
xdata	ENDS
;	COMDAT xdata
xdata	SEGMENT
$ip2state$??$emplace_back@V<lambda_e77d7e1e559843f44c4e0b6d970cdb28>@@@?$vector@Vthread@std@@V?$allocator@Vthread@std@@@2@@std@@QEAAX$$QEAV<lambda_e77d7e1e559843f44c4e0b6d970cdb28>@@@Z DD imagerel ??$emplace_back@V<lambda_e77d7e1e559843f44c4e0b6d970cdb28>@@@?$vector@Vthread@std@@V?$allocator@Vthread@std@@@2@@std@@QEAAX$$QEAV<lambda_e77d7e1e559843f44c4e0b6d970cdb28>@@@Z
	DD	0ffffffffH
	DD	imagerel ??$emplace_back@V<lambda_e77d7e1e559843f44c4e0b6d970cdb28>@@@?$vector@Vthread@std@@V?$allocator@Vthread@std@@@2@@std@@QEAAX$$QEAV<lambda_e77d7e1e559843f44c4e0b6d970cdb28>@@@Z+50
	DD	00H
	DD	imagerel ??$emplace_back@V<lambda_e77d7e1e559843f44c4e0b6d970cdb28>@@@?$vector@Vthread@std@@V?$allocator@Vthread@std@@@2@@std@@QEAAX$$QEAV<lambda_e77d7e1e559843f44c4e0b6d970cdb28>@@@Z+65
	DD	01H
	DD	imagerel ??$emplace_back@V<lambda_e77d7e1e559843f44c4e0b6d970cdb28>@@@?$vector@Vthread@std@@V?$allocator@Vthread@std@@@2@@std@@QEAAX$$QEAV<lambda_e77d7e1e559843f44c4e0b6d970cdb28>@@@Z+77
	DD	00H
	DD	imagerel ??$emplace_back@V<lambda_e77d7e1e559843f44c4e0b6d970cdb28>@@@?$vector@Vthread@std@@V?$allocator@Vthread@std@@@2@@std@@QEAAX$$QEAV<lambda_e77d7e1e559843f44c4e0b6d970cdb28>@@@Z+101
	DD	0ffffffffH
	DD	imagerel ??$emplace_back@V<lambda_e77d7e1e559843f44c4e0b6d970cdb28>@@@?$vector@Vthread@std@@V?$allocator@Vthread@std@@@2@@std@@QEAAX$$QEAV<lambda_e77d7e1e559843f44c4e0b6d970cdb28>@@@Z+223
	DD	02H
	DD	imagerel ??$emplace_back@V<lambda_e77d7e1e559843f44c4e0b6d970cdb28>@@@?$vector@Vthread@std@@V?$allocator@Vthread@std@@@2@@std@@QEAAX$$QEAV<lambda_e77d7e1e559843f44c4e0b6d970cdb28>@@@Z+240
	DD	03H
	DD	imagerel ??$emplace_back@V<lambda_e77d7e1e559843f44c4e0b6d970cdb28>@@@?$vector@Vthread@std@@V?$allocator@Vthread@std@@@2@@std@@QEAAX$$QEAV<lambda_e77d7e1e559843f44c4e0b6d970cdb28>@@@Z+256
	DD	04H
	DD	imagerel ??$emplace_back@V<lambda_e77d7e1e559843f44c4e0b6d970cdb28>@@@?$vector@Vthread@std@@V?$allocator@Vthread@std@@@2@@std@@QEAAX$$QEAV<lambda_e77d7e1e559843f44c4e0b6d970cdb28>@@@Z+268
	DD	03H
	DD	imagerel ??$emplace_back@V<lambda_e77d7e1e559843f44c4e0b6d970cdb28>@@@?$vector@Vthread@std@@V?$allocator@Vthread@std@@@2@@std@@QEAAX$$QEAV<lambda_e77d7e1e559843f44c4e0b6d970cdb28>@@@Z+292
	DD	02H
	DD	imagerel ??$emplace_back@V<lambda_e77d7e1e559843f44c4e0b6d970cdb28>@@@?$vector@Vthread@std@@V?$allocator@Vthread@std@@@2@@std@@QEAAX$$QEAV<lambda_e77d7e1e559843f44c4e0b6d970cdb28>@@@Z+316
	DD	0ffffffffH
	DD	imagerel ?catch$95@?0???$emplace_back@V<lambda_e77d7e1e559843f44c4e0b6d970cdb28>@@@?$vector@Vthread@std@@V?$allocator@Vthread@std@@@2@@std@@QEAAX$$QEAV<lambda_e77d7e1e559843f44c4e0b6d970cdb28>@@@Z@4HA
	DD	00H
	DD	imagerel ?catch$95@?0???$emplace_back@V<lambda_e77d7e1e559843f44c4e0b6d970cdb28>@@@?$vector@Vthread@std@@V?$allocator@Vthread@std@@@2@@std@@QEAAX$$QEAV<lambda_e77d7e1e559843f44c4e0b6d970cdb28>@@@Z@4HA+14
	DD	05H
xdata	ENDS
;	COMDAT xdata
xdata	SEGMENT
$handlerMap$0$??$emplace_back@V<lambda_e77d7e1e559843f44c4e0b6d970cdb28>@@@?$vector@Vthread@std@@V?$allocator@Vthread@std@@@2@@std@@QEAAX$$QEAV<lambda_e77d7e1e559843f44c4e0b6d970cdb28>@@@Z DD 040H
	DD	00H
	DD	00H
	DD	imagerel ?catch$95@?0???$emplace_back@V<lambda_e77d7e1e559843f44c4e0b6d970cdb28>@@@?$vector@Vthread@std@@V?$allocator@Vthread@std@@@2@@std@@QEAAX$$QEAV<lambda_e77d7e1e559843f44c4e0b6d970cdb28>@@@Z@4HA
	DD	058H
xdata	ENDS
;	COMDAT xdata
xdata	SEGMENT
$tryMap$??$emplace_back@V<lambda_e77d7e1e559843f44c4e0b6d970cdb28>@@@?$vector@Vthread@std@@V?$allocator@Vthread@std@@@2@@std@@QEAAX$$QEAV<lambda_e77d7e1e559843f44c4e0b6d970cdb28>@@@Z DD 02H
	DD	04H
	DD	05H
	DD	01H
	DD	imagerel $handlerMap$0$??$emplace_back@V<lambda_e77d7e1e559843f44c4e0b6d970cdb28>@@@?$vector@Vthread@std@@V?$allocator@Vthread@std@@@2@@std@@QEAAX$$QEAV<lambda_e77d7e1e559843f44c4e0b6d970cdb28>@@@Z
xdata	ENDS
;	COMDAT xdata
xdata	SEGMENT
$stateUnwindMap$??$emplace_back@V<lambda_e77d7e1e559843f44c4e0b6d970cdb28>@@@?$vector@Vthread@std@@V?$allocator@Vthread@std@@@2@@std@@QEAAX$$QEAV<lambda_e77d7e1e559843f44c4e0b6d970cdb28>@@@Z DD 0ffffffffH
	DD	imagerel ?dtor$16@?0???$emplace_back@V<lambda_e77d7e1e559843f44c4e0b6d970cdb28>@@@?$vector@Vthread@std@@V?$allocator@Vthread@std@@@2@@std@@QEAAX$$QEAV<lambda_e77d7e1e559843f44c4e0b6d970cdb28>@@@Z@4HA
	DD	00H
	DD	imagerel ?dtor$18@?0???$emplace_back@V<lambda_e77d7e1e559843f44c4e0b6d970cdb28>@@@?$vector@Vthread@std@@V?$allocator@Vthread@std@@@2@@std@@QEAAX$$QEAV<lambda_e77d7e1e559843f44c4e0b6d970cdb28>@@@Z@4HA
	DD	0ffffffffH
	DD	00H
	DD	02H
	DD	imagerel ?dtor$72@?0???$emplace_back@V<lambda_e77d7e1e559843f44c4e0b6d970cdb28>@@@?$vector@Vthread@std@@V?$allocator@Vthread@std@@@2@@std@@QEAAX$$QEAV<lambda_e77d7e1e559843f44c4e0b6d970cdb28>@@@Z@4HA
	DD	03H
	DD	imagerel ?dtor$74@?0???$emplace_back@V<lambda_e77d7e1e559843f44c4e0b6d970cdb28>@@@?$vector@Vthread@std@@V?$allocator@Vthread@std@@@2@@std@@QEAAX$$QEAV<lambda_e77d7e1e559843f44c4e0b6d970cdb28>@@@Z@4HA
	DD	0ffffffffH
	DD	00H
xdata	ENDS
;	COMDAT CONST
CONST	SEGMENT
$cppxdata$??$emplace_back@V<lambda_e77d7e1e559843f44c4e0b6d970cdb28>@@@?$vector@Vthread@std@@V?$allocator@Vthread@std@@@2@@std@@QEAAX$$QEAV<lambda_e77d7e1e559843f44c4e0b6d970cdb28>@@@Z DD 019930522H
	DD	06H
	DD	imagerel $stateUnwindMap$??$emplace_back@V<lambda_e77d7e1e559843f44c4e0b6d970cdb28>@@@?$vector@Vthread@std@@V?$allocator@Vthread@std@@@2@@std@@QEAAX$$QEAV<lambda_e77d7e1e559843f44c4e0b6d970cdb28>@@@Z
	DD	01H
	DD	imagerel $tryMap$??$emplace_back@V<lambda_e77d7e1e559843f44c4e0b6d970cdb28>@@@?$vector@Vthread@std@@V?$allocator@Vthread@std@@@2@@std@@QEAAX$$QEAV<lambda_e77d7e1e559843f44c4e0b6d970cdb28>@@@Z
	DD	0dH
	DD	imagerel $ip2state$??$emplace_back@V<lambda_e77d7e1e559843f44c4e0b6d970cdb28>@@@?$vector@Vthread@std@@V?$allocator@Vthread@std@@@2@@std@@QEAAX$$QEAV<lambda_e77d7e1e559843f44c4e0b6d970cdb28>@@@Z
	DD	038H
	DD	00H
	DD	01H
CONST	ENDS
;	COMDAT xdata
xdata	SEGMENT
$unwind$??$emplace_back@V<lambda_e77d7e1e559843f44c4e0b6d970cdb28>@@@?$vector@Vthread@std@@V?$allocator@Vthread@std@@@2@@std@@QEAAX$$QEAV<lambda_e77d7e1e559843f44c4e0b6d970cdb28>@@@Z DD 061a19H
	DD	0f00e9212H
	DD	0700ae00cH
	DD	030086009H
	DD	imagerel __CxxFrameHandler3
	DD	imagerel $cppxdata$??$emplace_back@V<lambda_e77d7e1e559843f44c4e0b6d970cdb28>@@@?$vector@Vthread@std@@V?$allocator@Vthread@std@@@2@@std@@QEAAX$$QEAV<lambda_e77d7e1e559843f44c4e0b6d970cdb28>@@@Z
xdata	ENDS
;	COMDAT xdata
xdata	SEGMENT
$unwind$??$_Destroy_range@V?$allocator@Vthread@std@@@std@@PEAVthread@2@@std@@YAXPEAVthread@0@0AEAU?$_Wrap_alloc@V?$allocator@Vthread@std@@@std@@@0@@Z DD 010401H
	DD	04204H
xdata	ENDS
;	COMDAT xdata
xdata	SEGMENT
$unwind$??$_Uninitialized_move@PEAVthread@std@@PEAV12@V?$allocator@Vthread@std@@@2@@std@@YAPEAVthread@0@PEAV10@00AEAU?$_Wrap_alloc@V?$allocator@Vthread@std@@@std@@@0@@Z DD 010401H
	DD	06204H
xdata	ENDS
;	COMDAT xdata
xdata	SEGMENT
$ip2state$??1sentry@?$basic_ostream@DU?$char_traits@D@std@@@std@@QEAA@XZ DD imagerel ??1sentry@?$basic_ostream@DU?$char_traits@D@std@@@std@@QEAA@XZ
	DD	0ffffffffH
	DD	imagerel ??1sentry@?$basic_ostream@DU?$char_traits@D@std@@@std@@QEAA@XZ+37
	DD	00H
	DD	imagerel ??1sentry@?$basic_ostream@DU?$char_traits@D@std@@@std@@QEAA@XZ+64
	DD	0ffffffffH
xdata	ENDS
;	COMDAT xdata
xdata	SEGMENT
$stateUnwindMap$??1sentry@?$basic_ostream@DU?$char_traits@D@std@@@std@@QEAA@XZ DD 0ffffffffH
	DD	imagerel __std_terminate
xdata	ENDS
;	COMDAT CONST
CONST	SEGMENT
$cppxdata$??1sentry@?$basic_ostream@DU?$char_traits@D@std@@@std@@QEAA@XZ DD 019930522H
	DD	01H
	DD	imagerel $stateUnwindMap$??1sentry@?$basic_ostream@DU?$char_traits@D@std@@@std@@QEAA@XZ
	DD	00H
	DD	00H
	DD	03H
	DD	imagerel $ip2state$??1sentry@?$basic_ostream@DU?$char_traits@D@std@@@std@@QEAA@XZ
	DD	020H
	DD	00H
	DD	05H
CONST	ENDS
;	COMDAT xdata
xdata	SEGMENT
$unwind$??1sentry@?$basic_ostream@DU?$char_traits@D@std@@@std@@QEAA@XZ DD 020f19H
	DD	030025206H
	DD	imagerel __CxxFrameHandler3
	DD	imagerel $cppxdata$??1sentry@?$basic_ostream@DU?$char_traits@D@std@@@std@@QEAA@XZ
xdata	ENDS
;	COMDAT xdata
xdata	SEGMENT
$ip2state$??0sentry@?$basic_ostream@DU?$char_traits@D@std@@@std@@QEAA@AEAV12@@Z DD imagerel ??0sentry@?$basic_ostream@DU?$char_traits@D@std@@@std@@QEAA@AEAV12@@Z
	DD	0ffffffffH
	DD	imagerel ??0sentry@?$basic_ostream@DU?$char_traits@D@std@@@std@@QEAA@AEAV12@@Z+57
	DD	00H
	DD	imagerel ??0sentry@?$basic_ostream@DU?$char_traits@D@std@@@std@@QEAA@AEAV12@@Z+109
	DD	0ffffffffH
xdata	ENDS
;	COMDAT xdata
xdata	SEGMENT
$stateUnwindMap$??0sentry@?$basic_ostream@DU?$char_traits@D@std@@@std@@QEAA@AEAV12@@Z DD 0ffffffffH
	DD	imagerel ?dtor$0@?0???0sentry@?$basic_ostream@DU?$char_traits@D@std@@@std@@QEAA@AEAV12@@Z@4HA
xdata	ENDS
;	COMDAT CONST
CONST	SEGMENT
$cppxdata$??0sentry@?$basic_ostream@DU?$char_traits@D@std@@@std@@QEAA@AEAV12@@Z DD 019930522H
	DD	01H
	DD	imagerel $stateUnwindMap$??0sentry@?$basic_ostream@DU?$char_traits@D@std@@@std@@QEAA@AEAV12@@Z
	DD	00H
	DD	00H
	DD	03H
	DD	imagerel $ip2state$??0sentry@?$basic_ostream@DU?$char_traits@D@std@@@std@@QEAA@AEAV12@@Z
	DD	020H
	DD	00H
	DD	01H
CONST	ENDS
;	COMDAT xdata
xdata	SEGMENT
$unwind$??0sentry@?$basic_ostream@DU?$char_traits@D@std@@@std@@QEAA@AEAV12@@Z DD 041811H
	DD	093418H
	DD	07006520aH
	DD	imagerel __CxxFrameHandler3
	DD	imagerel $cppxdata$??0sentry@?$basic_ostream@DU?$char_traits@D@std@@@std@@QEAA@AEAV12@@Z
xdata	ENDS
;	COMDAT xdata
xdata	SEGMENT
$ip2state$??1_Sentry_base@?$basic_ostream@DU?$char_traits@D@std@@@std@@QEAA@XZ DD imagerel ??1_Sentry_base@?$basic_ostream@DU?$char_traits@D@std@@@std@@QEAA@XZ
	DD	0ffffffffH
xdata	ENDS
;	COMDAT CONST
CONST	SEGMENT
$cppxdata$??1_Sentry_base@?$basic_ostream@DU?$char_traits@D@std@@@std@@QEAA@XZ DD 019930522H
	DD	00H
	DD	00H
	DD	00H
	DD	00H
	DD	01H
	DD	imagerel $ip2state$??1_Sentry_base@?$basic_ostream@DU?$char_traits@D@std@@@std@@QEAA@XZ
	DD	020H
	DD	00H
	DD	05H
CONST	ENDS
;	COMDAT xdata
xdata	SEGMENT
$unwind$??1_Sentry_base@?$basic_ostream@DU?$char_traits@D@std@@@std@@QEAA@XZ DD 010d19H
	DD	06204H
	DD	imagerel __CxxFrameHandler3
	DD	imagerel $cppxdata$??1_Sentry_base@?$basic_ostream@DU?$char_traits@D@std@@@std@@QEAA@XZ
xdata	ENDS
;	COMDAT xdata
xdata	SEGMENT
$unwind$??0_Sentry_base@?$basic_ostream@DU?$char_traits@D@std@@@std@@QEAA@AEAV12@@Z DD 020601H
	DD	030023206H
xdata	ENDS
;	COMDAT xdata
xdata	SEGMENT
$ip2state$?flush@?$basic_ostream@DU?$char_traits@D@std@@@std@@QEAAAEAV12@XZ DD imagerel ?flush@?$basic_ostream@DU?$char_traits@D@std@@@std@@QEAAAEAV12@XZ
	DD	0ffffffffH
	DD	imagerel ?flush@?$basic_ostream@DU?$char_traits@D@std@@@std@@QEAAAEAV12@XZ+51
	DD	00H
	DD	imagerel ?flush@?$basic_ostream@DU?$char_traits@D@std@@@std@@QEAAAEAV12@XZ+281
	DD	01H
	DD	imagerel ?flush@?$basic_ostream@DU?$char_traits@D@std@@@std@@QEAAAEAV12@XZ+301
	DD	02H
	DD	imagerel ?flush@?$basic_ostream@DU?$char_traits@D@std@@@std@@QEAAAEAV12@XZ+330
	DD	0ffffffffH
xdata	ENDS
;	COMDAT xdata
xdata	SEGMENT
$stateUnwindMap$?flush@?$basic_ostream@DU?$char_traits@D@std@@@std@@QEAAAEAV12@XZ DD 0ffffffffH
	DD	imagerel ?dtor$0@?0??flush@?$basic_ostream@DU?$char_traits@D@std@@@std@@QEAAAEAV12@XZ@4HA
	DD	0ffffffffH
	DD	imagerel __std_terminate
	DD	01H
	DD	imagerel __std_terminate
xdata	ENDS
;	COMDAT CONST
CONST	SEGMENT
$cppxdata$?flush@?$basic_ostream@DU?$char_traits@D@std@@@std@@QEAAAEAV12@XZ DD 019930522H
	DD	03H
	DD	imagerel $stateUnwindMap$?flush@?$basic_ostream@DU?$char_traits@D@std@@@std@@QEAAAEAV12@XZ
	DD	00H
	DD	00H
	DD	05H
	DD	imagerel $ip2state$?flush@?$basic_ostream@DU?$char_traits@D@std@@@std@@QEAAAEAV12@XZ
	DD	020H
	DD	00H
	DD	01H
CONST	ENDS
;	COMDAT xdata
xdata	SEGMENT
$unwind$?flush@?$basic_ostream@DU?$char_traits@D@std@@@std@@QEAAAEAV12@XZ DD 020f11H
	DD	03002d206H
	DD	imagerel __CxxFrameHandler3
	DD	imagerel $cppxdata$?flush@?$basic_ostream@DU?$char_traits@D@std@@@std@@QEAAAEAV12@XZ
xdata	ENDS
;	COMDAT xdata
xdata	SEGMENT
$unwind$?catch$0@?0??_Osfx@?$basic_ostream@DU?$char_traits@D@std@@@std@@QEAAXXZ@4HA DD 020a19H
	DD	05006320aH
	DD	imagerel __CxxFrameHandler3
	DD	imagerel $cppxdata$?_Osfx@?$basic_ostream@DU?$char_traits@D@std@@@std@@QEAAXXZ
xdata	ENDS
;	COMDAT xdata
xdata	SEGMENT
$ip2state$?_Osfx@?$basic_ostream@DU?$char_traits@D@std@@@std@@QEAAXXZ DD imagerel ?_Osfx@?$basic_ostream@DU?$char_traits@D@std@@@std@@QEAAXXZ
	DD	0ffffffffH
	DD	imagerel ?_Osfx@?$basic_ostream@DU?$char_traits@D@std@@@std@@QEAAXXZ+21
	DD	00H
	DD	imagerel ?_Osfx@?$basic_ostream@DU?$char_traits@D@std@@@std@@QEAAXXZ+266
	DD	0ffffffffH
	DD	imagerel ?catch$0@?0??_Osfx@?$basic_ostream@DU?$char_traits@D@std@@@std@@QEAAXXZ@4HA
	DD	00H
xdata	ENDS
;	COMDAT xdata
xdata	SEGMENT
$handlerMap$0$?_Osfx@?$basic_ostream@DU?$char_traits@D@std@@@std@@QEAAXXZ DD 040H
	DD	00H
	DD	00H
	DD	imagerel ?catch$0@?0??_Osfx@?$basic_ostream@DU?$char_traits@D@std@@@std@@QEAAXXZ@4HA
	DD	038H
xdata	ENDS
;	COMDAT xdata
xdata	SEGMENT
$tryMap$?_Osfx@?$basic_ostream@DU?$char_traits@D@std@@@std@@QEAAXXZ DD 00H
	DD	00H
	DD	01H
	DD	01H
	DD	imagerel $handlerMap$0$?_Osfx@?$basic_ostream@DU?$char_traits@D@std@@@std@@QEAAXXZ
xdata	ENDS
;	COMDAT xdata
xdata	SEGMENT
$stateUnwindMap$?_Osfx@?$basic_ostream@DU?$char_traits@D@std@@@std@@QEAAXXZ DD 0ffffffffH
	DD	00H
	DD	0ffffffffH
	DD	00H
xdata	ENDS
;	COMDAT CONST
CONST	SEGMENT
$cppxdata$?_Osfx@?$basic_ostream@DU?$char_traits@D@std@@@std@@QEAAXXZ DD 019930522H
	DD	02H
	DD	imagerel $stateUnwindMap$?_Osfx@?$basic_ostream@DU?$char_traits@D@std@@@std@@QEAAXXZ
	DD	01H
	DD	imagerel $tryMap$?_Osfx@?$basic_ostream@DU?$char_traits@D@std@@@std@@QEAAXXZ
	DD	04H
	DD	imagerel $ip2state$?_Osfx@?$basic_ostream@DU?$char_traits@D@std@@@std@@QEAAXXZ
	DD	030H
	DD	00H
	DD	01H
CONST	ENDS
;	COMDAT xdata
xdata	SEGMENT
$unwind$?_Osfx@?$basic_ostream@DU?$char_traits@D@std@@@std@@QEAAXXZ DD 031219H
	DD	0160109H
	DD	03002H
	DD	imagerel __CxxFrameHandler3
	DD	imagerel $cppxdata$?_Osfx@?$basic_ostream@DU?$char_traits@D@std@@@std@@QEAAXXZ
xdata	ENDS
;	COMDAT xdata
xdata	SEGMENT
$unwind$??$_To_xtime@HU?$ratio@$0OBA@$00@std@@@std@@YA?AUxtime@@AEBV?$duration@HU?$ratio@$0OBA@$00@std@@@chrono@0@@Z DD 040a01H
	DD	06340aH
	DD	07006320aH
xdata	ENDS
;	COMDAT xdata
xdata	SEGMENT
$unwind$?dtor$8@?0???$_Emplace_back_with_unused_capacity@V<lambda_e77d7e1e559843f44c4e0b6d970cdb28>@@@?$vector@Vthread@std@@V?$allocator@Vthread@std@@@2@@std@@AEAAX$$QEAV<lambda_e77d7e1e559843f44c4e0b6d970cdb28>@@@Z@4HA DD 020601H
	DD	050023206H
xdata	ENDS
;	COMDAT xdata
xdata	SEGMENT
$ip2state$??$_Emplace_back_with_unused_capacity@V<lambda_e77d7e1e559843f44c4e0b6d970cdb28>@@@?$vector@Vthread@std@@V?$allocator@Vthread@std@@@2@@std@@AEAAX$$QEAV<lambda_e77d7e1e559843f44c4e0b6d970cdb28>@@@Z DD imagerel ??$_Emplace_back_with_unused_capacity@V<lambda_e77d7e1e559843f44c4e0b6d970cdb28>@@@?$vector@Vthread@std@@V?$allocator@Vthread@std@@@2@@std@@AEAAX$$QEAV<lambda_e77d7e1e559843f44c4e0b6d970cdb28>@@@Z
	DD	0ffffffffH
	DD	imagerel ??$_Emplace_back_with_unused_capacity@V<lambda_e77d7e1e559843f44c4e0b6d970cdb28>@@@?$vector@Vthread@std@@V?$allocator@Vthread@std@@@2@@std@@AEAAX$$QEAV<lambda_e77d7e1e559843f44c4e0b6d970cdb28>@@@Z+41
	DD	00H
	DD	imagerel ??$_Emplace_back_with_unused_capacity@V<lambda_e77d7e1e559843f44c4e0b6d970cdb28>@@@?$vector@Vthread@std@@V?$allocator@Vthread@std@@@2@@std@@AEAAX$$QEAV<lambda_e77d7e1e559843f44c4e0b6d970cdb28>@@@Z+57
	DD	01H
	DD	imagerel ??$_Emplace_back_with_unused_capacity@V<lambda_e77d7e1e559843f44c4e0b6d970cdb28>@@@?$vector@Vthread@std@@V?$allocator@Vthread@std@@@2@@std@@AEAAX$$QEAV<lambda_e77d7e1e559843f44c4e0b6d970cdb28>@@@Z+69
	DD	00H
	DD	imagerel ??$_Emplace_back_with_unused_capacity@V<lambda_e77d7e1e559843f44c4e0b6d970cdb28>@@@?$vector@Vthread@std@@V?$allocator@Vthread@std@@@2@@std@@AEAAX$$QEAV<lambda_e77d7e1e559843f44c4e0b6d970cdb28>@@@Z+90
	DD	0ffffffffH
xdata	ENDS
;	COMDAT xdata
xdata	SEGMENT
$stateUnwindMap$??$_Emplace_back_with_unused_capacity@V<lambda_e77d7e1e559843f44c4e0b6d970cdb28>@@@?$vector@Vthread@std@@V?$allocator@Vthread@std@@@2@@std@@AEAAX$$QEAV<lambda_e77d7e1e559843f44c4e0b6d970cdb28>@@@Z DD 0ffffffffH
	DD	imagerel ?dtor$8@?0???$_Emplace_back_with_unused_capacity@V<lambda_e77d7e1e559843f44c4e0b6d970cdb28>@@@?$vector@Vthread@std@@V?$allocator@Vthread@std@@@2@@std@@AEAAX$$QEAV<lambda_e77d7e1e559843f44c4e0b6d970cdb28>@@@Z@4HA
	DD	00H
	DD	imagerel ?dtor$10@?0???$_Emplace_back_with_unused_capacity@V<lambda_e77d7e1e559843f44c4e0b6d970cdb28>@@@?$vector@Vthread@std@@V?$allocator@Vthread@std@@@2@@std@@AEAAX$$QEAV<lambda_e77d7e1e559843f44c4e0b6d970cdb28>@@@Z@4HA
xdata	ENDS
;	COMDAT CONST
CONST	SEGMENT
$cppxdata$??$_Emplace_back_with_unused_capacity@V<lambda_e77d7e1e559843f44c4e0b6d970cdb28>@@@?$vector@Vthread@std@@V?$allocator@Vthread@std@@@2@@std@@AEAAX$$QEAV<lambda_e77d7e1e559843f44c4e0b6d970cdb28>@@@Z DD 019930522H
	DD	02H
	DD	imagerel $stateUnwindMap$??$_Emplace_back_with_unused_capacity@V<lambda_e77d7e1e559843f44c4e0b6d970cdb28>@@@?$vector@Vthread@std@@V?$allocator@Vthread@std@@@2@@std@@AEAAX$$QEAV<lambda_e77d7e1e559843f44c4e0b6d970cdb28>@@@Z
	DD	00H
	DD	00H
	DD	05H
	DD	imagerel $ip2state$??$_Emplace_back_with_unused_capacity@V<lambda_e77d7e1e559843f44c4e0b6d970cdb28>@@@?$vector@Vthread@std@@V?$allocator@Vthread@std@@@2@@std@@AEAAX$$QEAV<lambda_e77d7e1e559843f44c4e0b6d970cdb28>@@@Z
	DD	020H
	DD	00H
	DD	01H
CONST	ENDS
;	COMDAT xdata
xdata	SEGMENT
$unwind$??$_Emplace_back_with_unused_capacity@V<lambda_e77d7e1e559843f44c4e0b6d970cdb28>@@@?$vector@Vthread@std@@V?$allocator@Vthread@std@@@2@@std@@AEAAX$$QEAV<lambda_e77d7e1e559843f44c4e0b6d970cdb28>@@@Z DD 041811H
	DD	0b3418H
	DD	07006520aH
	DD	imagerel __CxxFrameHandler3
	DD	imagerel $cppxdata$??$_Emplace_back_with_unused_capacity@V<lambda_e77d7e1e559843f44c4e0b6d970cdb28>@@@?$vector@Vthread@std@@V?$allocator@Vthread@std@@@2@@std@@AEAAX$$QEAV<lambda_e77d7e1e559843f44c4e0b6d970cdb28>@@@Z
xdata	ENDS
;	COMDAT xdata
xdata	SEGMENT
$unwind$?dtor$2@?0???$construct@Vthread@std@@V<lambda_e77d7e1e559843f44c4e0b6d970cdb28>@@@?$_Wrap_alloc@V?$allocator@Vthread@std@@@std@@@std@@QEAAXPEAVthread@1@$$QEAV<lambda_e77d7e1e559843f44c4e0b6d970cdb28>@@@Z@4HA DD 020601H
	DD	050023206H
xdata	ENDS
;	COMDAT xdata
xdata	SEGMENT
$ip2state$??$construct@Vthread@std@@V<lambda_e77d7e1e559843f44c4e0b6d970cdb28>@@@?$_Wrap_alloc@V?$allocator@Vthread@std@@@std@@@std@@QEAAXPEAVthread@1@$$QEAV<lambda_e77d7e1e559843f44c4e0b6d970cdb28>@@@Z DD imagerel ??$construct@Vthread@std@@V<lambda_e77d7e1e559843f44c4e0b6d970cdb28>@@@?$_Wrap_alloc@V?$allocator@Vthread@std@@@std@@@std@@QEAAXPEAVthread@1@$$QEAV<lambda_e77d7e1e559843f44c4e0b6d970cdb28>@@@Z
	DD	0ffffffffH
	DD	imagerel ??$construct@Vthread@std@@V<lambda_e77d7e1e559843f44c4e0b6d970cdb28>@@@?$_Wrap_alloc@V?$allocator@Vthread@std@@@std@@@std@@QEAAXPEAVthread@1@$$QEAV<lambda_e77d7e1e559843f44c4e0b6d970cdb28>@@@Z+37
	DD	00H
	DD	imagerel ??$construct@Vthread@std@@V<lambda_e77d7e1e559843f44c4e0b6d970cdb28>@@@?$_Wrap_alloc@V?$allocator@Vthread@std@@@std@@@std@@QEAAXPEAVthread@1@$$QEAV<lambda_e77d7e1e559843f44c4e0b6d970cdb28>@@@Z+53
	DD	01H
	DD	imagerel ??$construct@Vthread@std@@V<lambda_e77d7e1e559843f44c4e0b6d970cdb28>@@@?$_Wrap_alloc@V?$allocator@Vthread@std@@@std@@@std@@QEAAXPEAVthread@1@$$QEAV<lambda_e77d7e1e559843f44c4e0b6d970cdb28>@@@Z+65
	DD	00H
	DD	imagerel ??$construct@Vthread@std@@V<lambda_e77d7e1e559843f44c4e0b6d970cdb28>@@@?$_Wrap_alloc@V?$allocator@Vthread@std@@@std@@@std@@QEAAXPEAVthread@1@$$QEAV<lambda_e77d7e1e559843f44c4e0b6d970cdb28>@@@Z+86
	DD	0ffffffffH
xdata	ENDS
;	COMDAT xdata
xdata	SEGMENT
$stateUnwindMap$??$construct@Vthread@std@@V<lambda_e77d7e1e559843f44c4e0b6d970cdb28>@@@?$_Wrap_alloc@V?$allocator@Vthread@std@@@std@@@std@@QEAAXPEAVthread@1@$$QEAV<lambda_e77d7e1e559843f44c4e0b6d970cdb28>@@@Z DD 0ffffffffH
	DD	imagerel ?dtor$2@?0???$construct@Vthread@std@@V<lambda_e77d7e1e559843f44c4e0b6d970cdb28>@@@?$_Wrap_alloc@V?$allocator@Vthread@std@@@std@@@std@@QEAAXPEAVthread@1@$$QEAV<lambda_e77d7e1e559843f44c4e0b6d970cdb28>@@@Z@4HA
	DD	00H
	DD	imagerel ?dtor$4@?0???$construct@Vthread@std@@V<lambda_e77d7e1e559843f44c4e0b6d970cdb28>@@@?$_Wrap_alloc@V?$allocator@Vthread@std@@@std@@@std@@QEAAXPEAVthread@1@$$QEAV<lambda_e77d7e1e559843f44c4e0b6d970cdb28>@@@Z@4HA
xdata	ENDS
;	COMDAT CONST
CONST	SEGMENT
$cppxdata$??$construct@Vthread@std@@V<lambda_e77d7e1e559843f44c4e0b6d970cdb28>@@@?$_Wrap_alloc@V?$allocator@Vthread@std@@@std@@@std@@QEAAXPEAVthread@1@$$QEAV<lambda_e77d7e1e559843f44c4e0b6d970cdb28>@@@Z DD 019930522H
	DD	02H
	DD	imagerel $stateUnwindMap$??$construct@Vthread@std@@V<lambda_e77d7e1e559843f44c4e0b6d970cdb28>@@@?$_Wrap_alloc@V?$allocator@Vthread@std@@@std@@@std@@QEAAXPEAVthread@1@$$QEAV<lambda_e77d7e1e559843f44c4e0b6d970cdb28>@@@Z
	DD	00H
	DD	00H
	DD	05H
	DD	imagerel $ip2state$??$construct@Vthread@std@@V<lambda_e77d7e1e559843f44c4e0b6d970cdb28>@@@?$_Wrap_alloc@V?$allocator@Vthread@std@@@std@@@std@@QEAAXPEAVthread@1@$$QEAV<lambda_e77d7e1e559843f44c4e0b6d970cdb28>@@@Z
	DD	020H
	DD	00H
	DD	01H
CONST	ENDS
;	COMDAT xdata
xdata	SEGMENT
$unwind$??$construct@Vthread@std@@V<lambda_e77d7e1e559843f44c4e0b6d970cdb28>@@@?$_Wrap_alloc@V?$allocator@Vthread@std@@@std@@@std@@QEAAXPEAVthread@1@$$QEAV<lambda_e77d7e1e559843f44c4e0b6d970cdb28>@@@Z DD 021d11H
	DD	030105214H
	DD	imagerel __CxxFrameHandler3
	DD	imagerel $cppxdata$??$construct@Vthread@std@@V<lambda_e77d7e1e559843f44c4e0b6d970cdb28>@@@?$_Wrap_alloc@V?$allocator@Vthread@std@@@std@@@std@@QEAAXPEAVthread@1@$$QEAV<lambda_e77d7e1e559843f44c4e0b6d970cdb28>@@@Z
xdata	ENDS
;	COMDAT xdata
xdata	SEGMENT
$unwind$??$destroy@Vthread@std@@@?$_Wrap_alloc@V?$allocator@Vthread@std@@@std@@@std@@QEAAXPEAVthread@1@@Z DD 010401H
	DD	04204H
xdata	ENDS
;	COMDAT xdata
xdata	SEGMENT
$unwind$??$_Destroy_range1@V?$allocator@Vthread@std@@@std@@PEAVthread@2@@std@@YAXPEAVthread@0@0AEAU?$_Wrap_alloc@V?$allocator@Vthread@std@@@std@@@0@U?$integral_constant@_N$0A@@0@@Z DD 010401H
	DD	04204H
xdata	ENDS
;	COMDAT xdata
xdata	SEGMENT
$unwind$??$_Uninitialized_move_al_unchecked@PEAVthread@std@@PEAV12@V?$allocator@Vthread@std@@@2@@std@@YAPEAVthread@0@PEAV10@00AEAU?$_Wrap_alloc@V?$allocator@Vthread@std@@@std@@@0@@Z DD 010401H
	DD	06204H
xdata	ENDS
;	COMDAT xdata
xdata	SEGMENT
$unwind$?dtor$1@?0???$construct@Vthread@std@@V<lambda_e77d7e1e559843f44c4e0b6d970cdb28>@@@?$allocator_traits@V?$allocator@Vthread@std@@@std@@@std@@SAXAEAV?$allocator@Vthread@std@@@1@PEAVthread@1@$$QEAV<lambda_e77d7e1e559843f44c4e0b6d970cdb28>@@@Z@4HA DD 020601H
	DD	050023206H
xdata	ENDS
;	COMDAT xdata
xdata	SEGMENT
$ip2state$??$construct@Vthread@std@@V<lambda_e77d7e1e559843f44c4e0b6d970cdb28>@@@?$allocator_traits@V?$allocator@Vthread@std@@@std@@@std@@SAXAEAV?$allocator@Vthread@std@@@1@PEAVthread@1@$$QEAV<lambda_e77d7e1e559843f44c4e0b6d970cdb28>@@@Z DD imagerel ??$construct@Vthread@std@@V<lambda_e77d7e1e559843f44c4e0b6d970cdb28>@@@?$allocator_traits@V?$allocator@Vthread@std@@@std@@@std@@SAXAEAV?$allocator@Vthread@std@@@1@PEAVthread@1@$$QEAV<lambda_e77d7e1e559843f44c4e0b6d970cdb28>@@@Z
	DD	0ffffffffH
	DD	imagerel ??$construct@Vthread@std@@V<lambda_e77d7e1e559843f44c4e0b6d970cdb28>@@@?$allocator_traits@V?$allocator@Vthread@std@@@std@@@std@@SAXAEAV?$allocator@Vthread@std@@@1@PEAVthread@1@$$QEAV<lambda_e77d7e1e559843f44c4e0b6d970cdb28>@@@Z+37
	DD	00H
	DD	imagerel ??$construct@Vthread@std@@V<lambda_e77d7e1e559843f44c4e0b6d970cdb28>@@@?$allocator_traits@V?$allocator@Vthread@std@@@std@@@std@@SAXAEAV?$allocator@Vthread@std@@@1@PEAVthread@1@$$QEAV<lambda_e77d7e1e559843f44c4e0b6d970cdb28>@@@Z+53
	DD	01H
	DD	imagerel ??$construct@Vthread@std@@V<lambda_e77d7e1e559843f44c4e0b6d970cdb28>@@@?$allocator_traits@V?$allocator@Vthread@std@@@std@@@std@@SAXAEAV?$allocator@Vthread@std@@@1@PEAVthread@1@$$QEAV<lambda_e77d7e1e559843f44c4e0b6d970cdb28>@@@Z+65
	DD	00H
	DD	imagerel ??$construct@Vthread@std@@V<lambda_e77d7e1e559843f44c4e0b6d970cdb28>@@@?$allocator_traits@V?$allocator@Vthread@std@@@std@@@std@@SAXAEAV?$allocator@Vthread@std@@@1@PEAVthread@1@$$QEAV<lambda_e77d7e1e559843f44c4e0b6d970cdb28>@@@Z+86
	DD	0ffffffffH
xdata	ENDS
;	COMDAT xdata
xdata	SEGMENT
$stateUnwindMap$??$construct@Vthread@std@@V<lambda_e77d7e1e559843f44c4e0b6d970cdb28>@@@?$allocator_traits@V?$allocator@Vthread@std@@@std@@@std@@SAXAEAV?$allocator@Vthread@std@@@1@PEAVthread@1@$$QEAV<lambda_e77d7e1e559843f44c4e0b6d970cdb28>@@@Z DD 0ffffffffH
	DD	imagerel ?dtor$1@?0???$construct@Vthread@std@@V<lambda_e77d7e1e559843f44c4e0b6d970cdb28>@@@?$allocator_traits@V?$allocator@Vthread@std@@@std@@@std@@SAXAEAV?$allocator@Vthread@std@@@1@PEAVthread@1@$$QEAV<lambda_e77d7e1e559843f44c4e0b6d970cdb28>@@@Z@4HA
	DD	00H
	DD	imagerel ?dtor$3@?0???$construct@Vthread@std@@V<lambda_e77d7e1e559843f44c4e0b6d970cdb28>@@@?$allocator_traits@V?$allocator@Vthread@std@@@std@@@std@@SAXAEAV?$allocator@Vthread@std@@@1@PEAVthread@1@$$QEAV<lambda_e77d7e1e559843f44c4e0b6d970cdb28>@@@Z@4HA
xdata	ENDS
;	COMDAT CONST
CONST	SEGMENT
$cppxdata$??$construct@Vthread@std@@V<lambda_e77d7e1e559843f44c4e0b6d970cdb28>@@@?$allocator_traits@V?$allocator@Vthread@std@@@std@@@std@@SAXAEAV?$allocator@Vthread@std@@@1@PEAVthread@1@$$QEAV<lambda_e77d7e1e559843f44c4e0b6d970cdb28>@@@Z DD 019930522H
	DD	02H
	DD	imagerel $stateUnwindMap$??$construct@Vthread@std@@V<lambda_e77d7e1e559843f44c4e0b6d970cdb28>@@@?$allocator_traits@V?$allocator@Vthread@std@@@std@@@std@@SAXAEAV?$allocator@Vthread@std@@@1@PEAVthread@1@$$QEAV<lambda_e77d7e1e559843f44c4e0b6d970cdb28>@@@Z
	DD	00H
	DD	00H
	DD	05H
	DD	imagerel $ip2state$??$construct@Vthread@std@@V<lambda_e77d7e1e559843f44c4e0b6d970cdb28>@@@?$allocator_traits@V?$allocator@Vthread@std@@@std@@@std@@SAXAEAV?$allocator@Vthread@std@@@1@PEAVthread@1@$$QEAV<lambda_e77d7e1e559843f44c4e0b6d970cdb28>@@@Z
	DD	020H
	DD	00H
	DD	01H
CONST	ENDS
;	COMDAT xdata
xdata	SEGMENT
$unwind$??$construct@Vthread@std@@V<lambda_e77d7e1e559843f44c4e0b6d970cdb28>@@@?$allocator_traits@V?$allocator@Vthread@std@@@std@@@std@@SAXAEAV?$allocator@Vthread@std@@@1@PEAVthread@1@$$QEAV<lambda_e77d7e1e559843f44c4e0b6d970cdb28>@@@Z DD 021d11H
	DD	030105214H
	DD	imagerel __CxxFrameHandler3
	DD	imagerel $cppxdata$??$construct@Vthread@std@@V<lambda_e77d7e1e559843f44c4e0b6d970cdb28>@@@?$allocator_traits@V?$allocator@Vthread@std@@@std@@@std@@SAXAEAV?$allocator@Vthread@std@@@1@PEAVthread@1@$$QEAV<lambda_e77d7e1e559843f44c4e0b6d970cdb28>@@@Z
xdata	ENDS
;	COMDAT xdata
xdata	SEGMENT
$unwind$??$destroy@Vthread@std@@@?$allocator_traits@V?$allocator@Vthread@std@@@std@@@std@@SAXAEAV?$allocator@Vthread@std@@@1@PEAVthread@1@@Z DD 010401H
	DD	04204H
xdata	ENDS
;	COMDAT xdata
xdata	SEGMENT
$unwind$?dtor$0@?0???$construct@Vthread@std@@V<lambda_e77d7e1e559843f44c4e0b6d970cdb28>@@@?$allocator@Vthread@std@@@std@@QEAAXPEAVthread@1@$$QEAV<lambda_e77d7e1e559843f44c4e0b6d970cdb28>@@@Z@4HA DD 020601H
	DD	050023206H
xdata	ENDS
;	COMDAT xdata
xdata	SEGMENT
$ip2state$??$construct@Vthread@std@@V<lambda_e77d7e1e559843f44c4e0b6d970cdb28>@@@?$allocator@Vthread@std@@@std@@QEAAXPEAVthread@1@$$QEAV<lambda_e77d7e1e559843f44c4e0b6d970cdb28>@@@Z DD imagerel ??$construct@Vthread@std@@V<lambda_e77d7e1e559843f44c4e0b6d970cdb28>@@@?$allocator@Vthread@std@@@std@@QEAAXPEAVthread@1@$$QEAV<lambda_e77d7e1e559843f44c4e0b6d970cdb28>@@@Z
	DD	0ffffffffH
	DD	imagerel ??$construct@Vthread@std@@V<lambda_e77d7e1e559843f44c4e0b6d970cdb28>@@@?$allocator@Vthread@std@@@std@@QEAAXPEAVthread@1@$$QEAV<lambda_e77d7e1e559843f44c4e0b6d970cdb28>@@@Z+37
	DD	00H
	DD	imagerel ??$construct@Vthread@std@@V<lambda_e77d7e1e559843f44c4e0b6d970cdb28>@@@?$allocator@Vthread@std@@@std@@QEAAXPEAVthread@1@$$QEAV<lambda_e77d7e1e559843f44c4e0b6d970cdb28>@@@Z+53
	DD	01H
	DD	imagerel ??$construct@Vthread@std@@V<lambda_e77d7e1e559843f44c4e0b6d970cdb28>@@@?$allocator@Vthread@std@@@std@@QEAAXPEAVthread@1@$$QEAV<lambda_e77d7e1e559843f44c4e0b6d970cdb28>@@@Z+65
	DD	00H
	DD	imagerel ??$construct@Vthread@std@@V<lambda_e77d7e1e559843f44c4e0b6d970cdb28>@@@?$allocator@Vthread@std@@@std@@QEAAXPEAVthread@1@$$QEAV<lambda_e77d7e1e559843f44c4e0b6d970cdb28>@@@Z+86
	DD	0ffffffffH
xdata	ENDS
;	COMDAT xdata
xdata	SEGMENT
$stateUnwindMap$??$construct@Vthread@std@@V<lambda_e77d7e1e559843f44c4e0b6d970cdb28>@@@?$allocator@Vthread@std@@@std@@QEAAXPEAVthread@1@$$QEAV<lambda_e77d7e1e559843f44c4e0b6d970cdb28>@@@Z DD 0ffffffffH
	DD	imagerel ?dtor$0@?0???$construct@Vthread@std@@V<lambda_e77d7e1e559843f44c4e0b6d970cdb28>@@@?$allocator@Vthread@std@@@std@@QEAAXPEAVthread@1@$$QEAV<lambda_e77d7e1e559843f44c4e0b6d970cdb28>@@@Z@4HA
	DD	00H
	DD	imagerel ?dtor$2@?0???$construct@Vthread@std@@V<lambda_e77d7e1e559843f44c4e0b6d970cdb28>@@@?$allocator@Vthread@std@@@std@@QEAAXPEAVthread@1@$$QEAV<lambda_e77d7e1e559843f44c4e0b6d970cdb28>@@@Z@4HA
xdata	ENDS
;	COMDAT CONST
CONST	SEGMENT
$cppxdata$??$construct@Vthread@std@@V<lambda_e77d7e1e559843f44c4e0b6d970cdb28>@@@?$allocator@Vthread@std@@@std@@QEAAXPEAVthread@1@$$QEAV<lambda_e77d7e1e559843f44c4e0b6d970cdb28>@@@Z DD 019930522H
	DD	02H
	DD	imagerel $stateUnwindMap$??$construct@Vthread@std@@V<lambda_e77d7e1e559843f44c4e0b6d970cdb28>@@@?$allocator@Vthread@std@@@std@@QEAAXPEAVthread@1@$$QEAV<lambda_e77d7e1e559843f44c4e0b6d970cdb28>@@@Z
	DD	00H
	DD	00H
	DD	05H
	DD	imagerel $ip2state$??$construct@Vthread@std@@V<lambda_e77d7e1e559843f44c4e0b6d970cdb28>@@@?$allocator@Vthread@std@@@std@@QEAAXPEAVthread@1@$$QEAV<lambda_e77d7e1e559843f44c4e0b6d970cdb28>@@@Z
	DD	020H
	DD	00H
	DD	01H
CONST	ENDS
;	COMDAT xdata
xdata	SEGMENT
$unwind$??$construct@Vthread@std@@V<lambda_e77d7e1e559843f44c4e0b6d970cdb28>@@@?$allocator@Vthread@std@@@std@@QEAAXPEAVthread@1@$$QEAV<lambda_e77d7e1e559843f44c4e0b6d970cdb28>@@@Z DD 021d11H
	DD	030105214H
	DD	imagerel __CxxFrameHandler3
	DD	imagerel $cppxdata$??$construct@Vthread@std@@V<lambda_e77d7e1e559843f44c4e0b6d970cdb28>@@@?$allocator@Vthread@std@@@std@@QEAAXPEAVthread@1@$$QEAV<lambda_e77d7e1e559843f44c4e0b6d970cdb28>@@@Z
xdata	ENDS
;	COMDAT xdata
xdata	SEGMENT
$unwind$??$destroy@Vthread@std@@@?$allocator@Vthread@std@@@std@@QEAAXPEAVthread@1@@Z DD 010401H
	DD	04204H
xdata	ENDS
;	COMDAT xdata
xdata	SEGMENT
$unwind$??_Gthread@std@@QEAAPEAXI@Z DD 010401H
	DD	04204H
xdata	ENDS
;	COMDAT xdata
xdata	SEGMENT
$ip2state$??$?0V<lambda_e77d7e1e559843f44c4e0b6d970cdb28>@@$$VX@thread@std@@QEAA@$$QEAV<lambda_e77d7e1e559843f44c4e0b6d970cdb28>@@@Z DD imagerel ??$?0V<lambda_e77d7e1e559843f44c4e0b6d970cdb28>@@$$VX@thread@std@@QEAA@$$QEAV<lambda_e77d7e1e559843f44c4e0b6d970cdb28>@@@Z
	DD	0ffffffffH
	DD	imagerel ??$?0V<lambda_e77d7e1e559843f44c4e0b6d970cdb28>@@$$VX@thread@std@@QEAA@$$QEAV<lambda_e77d7e1e559843f44c4e0b6d970cdb28>@@@Z+33
	DD	00H
	DD	imagerel ??$?0V<lambda_e77d7e1e559843f44c4e0b6d970cdb28>@@$$VX@thread@std@@QEAA@$$QEAV<lambda_e77d7e1e559843f44c4e0b6d970cdb28>@@@Z+45
	DD	0ffffffffH
xdata	ENDS
;	COMDAT xdata
xdata	SEGMENT
$stateUnwindMap$??$?0V<lambda_e77d7e1e559843f44c4e0b6d970cdb28>@@$$VX@thread@std@@QEAA@$$QEAV<lambda_e77d7e1e559843f44c4e0b6d970cdb28>@@@Z DD 0ffffffffH
	DD	imagerel ?dtor$0@?0???$?0V<lambda_e77d7e1e559843f44c4e0b6d970cdb28>@@$$VX@thread@std@@QEAA@$$QEAV<lambda_e77d7e1e559843f44c4e0b6d970cdb28>@@@Z@4HA
xdata	ENDS
;	COMDAT CONST
CONST	SEGMENT
$cppxdata$??$?0V<lambda_e77d7e1e559843f44c4e0b6d970cdb28>@@$$VX@thread@std@@QEAA@$$QEAV<lambda_e77d7e1e559843f44c4e0b6d970cdb28>@@@Z DD 019930522H
	DD	01H
	DD	imagerel $stateUnwindMap$??$?0V<lambda_e77d7e1e559843f44c4e0b6d970cdb28>@@$$VX@thread@std@@QEAA@$$QEAV<lambda_e77d7e1e559843f44c4e0b6d970cdb28>@@@Z
	DD	00H
	DD	00H
	DD	03H
	DD	imagerel $ip2state$??$?0V<lambda_e77d7e1e559843f44c4e0b6d970cdb28>@@$$VX@thread@std@@QEAA@$$QEAV<lambda_e77d7e1e559843f44c4e0b6d970cdb28>@@@Z
	DD	020H
	DD	00H
	DD	01H
CONST	ENDS
;	COMDAT xdata
xdata	SEGMENT
$unwind$??$?0V<lambda_e77d7e1e559843f44c4e0b6d970cdb28>@@$$VX@thread@std@@QEAA@$$QEAV<lambda_e77d7e1e559843f44c4e0b6d970cdb28>@@@Z DD 021311H
	DD	03006520aH
	DD	imagerel __CxxFrameHandler3
	DD	imagerel $cppxdata$??$?0V<lambda_e77d7e1e559843f44c4e0b6d970cdb28>@@$$VX@thread@std@@QEAA@$$QEAV<lambda_e77d7e1e559843f44c4e0b6d970cdb28>@@@Z
xdata	ENDS
;	COMDAT xdata
xdata	SEGMENT
$unwind$??$make_unique@V?$tuple@V<lambda_e77d7e1e559843f44c4e0b6d970cdb28>@@@std@@V<lambda_e77d7e1e559843f44c4e0b6d970cdb28>@@@std@@YA?AV?$unique_ptr@V?$tuple@V<lambda_e77d7e1e559843f44c4e0b6d970cdb28>@@@std@@U?$default_delete@V?$tuple@V<lambda_e77d7e1e559843f44c4e0b6d970cdb28>@@@std@@@2@@0@$$QEAV<lambda_e77d7e1e559843f44c4e0b6d970cdb28>@@@Z DD 020601H
	DD	030025206H
xdata	ENDS
;	COMDAT xdata
xdata	SEGMENT
$ip2state$??$_Launch@V?$unique_ptr@V?$tuple@V<lambda_e77d7e1e559843f44c4e0b6d970cdb28>@@@std@@U?$default_delete@V?$tuple@V<lambda_e77d7e1e559843f44c4e0b6d970cdb28>@@@std@@@2@@std@@@std@@YAXPEAU_Thrd_imp_t@@$$QEAV?$unique_ptr@V?$tuple@V<lambda_e77d7e1e559843f44c4e0b6d970cdb28>@@@std@@U?$default_delete@V?$tuple@V<lambda_e77d7e1e559843f44c4e0b6d970cdb28>@@@std@@@2@@0@@Z DD imagerel ??$_Launch@V?$unique_ptr@V?$tuple@V<lambda_e77d7e1e559843f44c4e0b6d970cdb28>@@@std@@U?$default_delete@V?$tuple@V<lambda_e77d7e1e559843f44c4e0b6d970cdb28>@@@std@@@2@@std@@@std@@YAXPEAU_Thrd_imp_t@@$$QEAV?$unique_ptr@V?$tuple@V<lambda_e77d7e1e559843f44c4e0b6d970cdb28>@@@std@@U?$default_delete@V?$tuple@V<lambda_e77d7e1e559843f44c4e0b6d970cdb28>@@@std@@@2@@0@@Z
	DD	0ffffffffH
	DD	imagerel ??$_Launch@V?$unique_ptr@V?$tuple@V<lambda_e77d7e1e559843f44c4e0b6d970cdb28>@@@std@@U?$default_delete@V?$tuple@V<lambda_e77d7e1e559843f44c4e0b6d970cdb28>@@@std@@@2@@std@@@std@@YAXPEAU_Thrd_imp_t@@$$QEAV?$unique_ptr@V?$tuple@V<lambda_e77d7e1e559843f44c4e0b6d970cdb28>@@@std@@U?$default_delete@V?$tuple@V<lambda_e77d7e1e559843f44c4e0b6d970cdb28>@@@std@@@2@@0@@Z+76
	DD	00H
	DD	imagerel ??$_Launch@V?$unique_ptr@V?$tuple@V<lambda_e77d7e1e559843f44c4e0b6d970cdb28>@@@std@@U?$default_delete@V?$tuple@V<lambda_e77d7e1e559843f44c4e0b6d970cdb28>@@@std@@@2@@std@@@std@@YAXPEAU_Thrd_imp_t@@$$QEAV?$unique_ptr@V?$tuple@V<lambda_e77d7e1e559843f44c4e0b6d970cdb28>@@@std@@U?$default_delete@V?$tuple@V<lambda_e77d7e1e559843f44c4e0b6d970cdb28>@@@std@@@2@@0@@Z+117
	DD	01H
	DD	imagerel ??$_Launch@V?$unique_ptr@V?$tuple@V<lambda_e77d7e1e559843f44c4e0b6d970cdb28>@@@std@@U?$default_delete@V?$tuple@V<lambda_e77d7e1e559843f44c4e0b6d970cdb28>@@@std@@@2@@std@@@std@@YAXPEAU_Thrd_imp_t@@$$QEAV?$unique_ptr@V?$tuple@V<lambda_e77d7e1e559843f44c4e0b6d970cdb28>@@@std@@U?$default_delete@V?$tuple@V<lambda_e77d7e1e559843f44c4e0b6d970cdb28>@@@std@@@2@@0@@Z+139
	DD	0ffffffffH
	DD	imagerel ??$_Launch@V?$unique_ptr@V?$tuple@V<lambda_e77d7e1e559843f44c4e0b6d970cdb28>@@@std@@U?$default_delete@V?$tuple@V<lambda_e77d7e1e559843f44c4e0b6d970cdb28>@@@std@@@2@@std@@@std@@YAXPEAU_Thrd_imp_t@@$$QEAV?$unique_ptr@V?$tuple@V<lambda_e77d7e1e559843f44c4e0b6d970cdb28>@@@std@@U?$default_delete@V?$tuple@V<lambda_e77d7e1e559843f44c4e0b6d970cdb28>@@@std@@@2@@0@@Z+166
	DD	02H
	DD	imagerel ??$_Launch@V?$unique_ptr@V?$tuple@V<lambda_e77d7e1e559843f44c4e0b6d970cdb28>@@@std@@U?$default_delete@V?$tuple@V<lambda_e77d7e1e559843f44c4e0b6d970cdb28>@@@std@@@2@@std@@@std@@YAXPEAU_Thrd_imp_t@@$$QEAV?$unique_ptr@V?$tuple@V<lambda_e77d7e1e559843f44c4e0b6d970cdb28>@@@std@@U?$default_delete@V?$tuple@V<lambda_e77d7e1e559843f44c4e0b6d970cdb28>@@@std@@@2@@0@@Z+257
	DD	0ffffffffH
	DD	imagerel ??$_Launch@V?$unique_ptr@V?$tuple@V<lambda_e77d7e1e559843f44c4e0b6d970cdb28>@@@std@@U?$default_delete@V?$tuple@V<lambda_e77d7e1e559843f44c4e0b6d970cdb28>@@@std@@@2@@std@@@std@@YAXPEAU_Thrd_imp_t@@$$QEAV?$unique_ptr@V?$tuple@V<lambda_e77d7e1e559843f44c4e0b6d970cdb28>@@@std@@U?$default_delete@V?$tuple@V<lambda_e77d7e1e559843f44c4e0b6d970cdb28>@@@std@@@2@@0@@Z+278
	DD	03H
	DD	imagerel ??$_Launch@V?$unique_ptr@V?$tuple@V<lambda_e77d7e1e559843f44c4e0b6d970cdb28>@@@std@@U?$default_delete@V?$tuple@V<lambda_e77d7e1e559843f44c4e0b6d970cdb28>@@@std@@@2@@std@@@std@@YAXPEAU_Thrd_imp_t@@$$QEAV?$unique_ptr@V?$tuple@V<lambda_e77d7e1e559843f44c4e0b6d970cdb28>@@@std@@U?$default_delete@V?$tuple@V<lambda_e77d7e1e559843f44c4e0b6d970cdb28>@@@std@@@2@@0@@Z+329
	DD	0ffffffffH
xdata	ENDS
;	COMDAT xdata
xdata	SEGMENT
$stateUnwindMap$??$_Launch@V?$unique_ptr@V?$tuple@V<lambda_e77d7e1e559843f44c4e0b6d970cdb28>@@@std@@U?$default_delete@V?$tuple@V<lambda_e77d7e1e559843f44c4e0b6d970cdb28>@@@std@@@2@@std@@@std@@YAXPEAU_Thrd_imp_t@@$$QEAV?$unique_ptr@V?$tuple@V<lambda_e77d7e1e559843f44c4e0b6d970cdb28>@@@std@@U?$default_delete@V?$tuple@V<lambda_e77d7e1e559843f44c4e0b6d970cdb28>@@@std@@@2@@0@@Z DD 0ffffffffH
	DD	imagerel ?dtor$4@?0???$_Launch@V?$unique_ptr@V?$tuple@V<lambda_e77d7e1e559843f44c4e0b6d970cdb28>@@@std@@U?$default_delete@V?$tuple@V<lambda_e77d7e1e559843f44c4e0b6d970cdb28>@@@std@@@2@@std@@@std@@YAXPEAU_Thrd_imp_t@@$$QEAV?$unique_ptr@V?$tuple@V<lambda_e77d7e1e559843f44c4e0b6d970cdb28>@@@std@@U?$default_delete@V?$tuple@V<lambda_e77d7e1e559843f44c4e0b6d970cdb28>@@@std@@@2@@0@@Z@4HA
	DD	00H
	DD	imagerel ?dtor$5@?0???$_Launch@V?$unique_ptr@V?$tuple@V<lambda_e77d7e1e559843f44c4e0b6d970cdb28>@@@std@@U?$default_delete@V?$tuple@V<lambda_e77d7e1e559843f44c4e0b6d970cdb28>@@@std@@@2@@std@@@std@@YAXPEAU_Thrd_imp_t@@$$QEAV?$unique_ptr@V?$tuple@V<lambda_e77d7e1e559843f44c4e0b6d970cdb28>@@@std@@U?$default_delete@V?$tuple@V<lambda_e77d7e1e559843f44c4e0b6d970cdb28>@@@std@@@2@@0@@Z@4HA
	DD	0ffffffffH
	DD	imagerel ?dtor$0@?0???$_Launch@V?$unique_ptr@V?$tuple@V<lambda_e77d7e1e559843f44c4e0b6d970cdb28>@@@std@@U?$default_delete@V?$tuple@V<lambda_e77d7e1e559843f44c4e0b6d970cdb28>@@@std@@@2@@std@@@std@@YAXPEAU_Thrd_imp_t@@$$QEAV?$unique_ptr@V?$tuple@V<lambda_e77d7e1e559843f44c4e0b6d970cdb28>@@@std@@U?$default_delete@V?$tuple@V<lambda_e77d7e1e559843f44c4e0b6d970cdb28>@@@std@@@2@@0@@Z@4HA
	DD	0ffffffffH
	DD	imagerel __std_terminate
xdata	ENDS
;	COMDAT CONST
CONST	SEGMENT
$cppxdata$??$_Launch@V?$unique_ptr@V?$tuple@V<lambda_e77d7e1e559843f44c4e0b6d970cdb28>@@@std@@U?$default_delete@V?$tuple@V<lambda_e77d7e1e559843f44c4e0b6d970cdb28>@@@std@@@2@@std@@@std@@YAXPEAU_Thrd_imp_t@@$$QEAV?$unique_ptr@V?$tuple@V<lambda_e77d7e1e559843f44c4e0b6d970cdb28>@@@std@@U?$default_delete@V?$tuple@V<lambda_e77d7e1e559843f44c4e0b6d970cdb28>@@@std@@@2@@0@@Z DD 019930522H
	DD	04H
	DD	imagerel $stateUnwindMap$??$_Launch@V?$unique_ptr@V?$tuple@V<lambda_e77d7e1e559843f44c4e0b6d970cdb28>@@@std@@U?$default_delete@V?$tuple@V<lambda_e77d7e1e559843f44c4e0b6d970cdb28>@@@std@@@2@@std@@@std@@YAXPEAU_Thrd_imp_t@@$$QEAV?$unique_ptr@V?$tuple@V<lambda_e77d7e1e559843f44c4e0b6d970cdb28>@@@std@@U?$default_delete@V?$tuple@V<lambda_e77d7e1e559843f44c4e0b6d970cdb28>@@@std@@@2@@0@@Z
	DD	00H
	DD	00H
	DD	08H
	DD	imagerel $ip2state$??$_Launch@V?$unique_ptr@V?$tuple@V<lambda_e77d7e1e559843f44c4e0b6d970cdb28>@@@std@@U?$default_delete@V?$tuple@V<lambda_e77d7e1e559843f44c4e0b6d970cdb28>@@@std@@@2@@std@@@std@@YAXPEAU_Thrd_imp_t@@$$QEAV?$unique_ptr@V?$tuple@V<lambda_e77d7e1e559843f44c4e0b6d970cdb28>@@@std@@U?$default_delete@V?$tuple@V<lambda_e77d7e1e559843f44c4e0b6d970cdb28>@@@std@@@2@@0@@Z
	DD	020H
	DD	00H
	DD	01H
CONST	ENDS
;	COMDAT xdata
xdata	SEGMENT
$unwind$??$_Launch@V?$unique_ptr@V?$tuple@V<lambda_e77d7e1e559843f44c4e0b6d970cdb28>@@@std@@U?$default_delete@V?$tuple@V<lambda_e77d7e1e559843f44c4e0b6d970cdb28>@@@std@@@2@@std@@@std@@YAXPEAU_Thrd_imp_t@@$$QEAV?$unique_ptr@V?$tuple@V<lambda_e77d7e1e559843f44c4e0b6d970cdb28>@@@std@@U?$default_delete@V?$tuple@V<lambda_e77d7e1e559843f44c4e0b6d970cdb28>@@@std@@@2@@0@@Z DD 061811H
	DD	0116418H
	DD	0103414H
	DD	07004d208H
	DD	imagerel __CxxFrameHandler3
	DD	imagerel $cppxdata$??$_Launch@V?$unique_ptr@V?$tuple@V<lambda_e77d7e1e559843f44c4e0b6d970cdb28>@@@std@@U?$default_delete@V?$tuple@V<lambda_e77d7e1e559843f44c4e0b6d970cdb28>@@@std@@@2@@std@@@std@@YAXPEAU_Thrd_imp_t@@$$QEAV?$unique_ptr@V?$tuple@V<lambda_e77d7e1e559843f44c4e0b6d970cdb28>@@@std@@U?$default_delete@V?$tuple@V<lambda_e77d7e1e559843f44c4e0b6d970cdb28>@@@std@@@2@@0@@Z
xdata	ENDS
;	COMDAT xdata
xdata	SEGMENT
$ip2state$??1?$_LaunchPad@V?$unique_ptr@V?$tuple@V<lambda_e77d7e1e559843f44c4e0b6d970cdb28>@@@std@@U?$default_delete@V?$tuple@V<lambda_e77d7e1e559843f44c4e0b6d970cdb28>@@@std@@@2@@std@@@std@@QEAA@XZ DD imagerel ??1?$_LaunchPad@V?$unique_ptr@V?$tuple@V<lambda_e77d7e1e559843f44c4e0b6d970cdb28>@@@std@@U?$default_delete@V?$tuple@V<lambda_e77d7e1e559843f44c4e0b6d970cdb28>@@@std@@@2@@std@@@std@@QEAA@XZ
	DD	0ffffffffH
	DD	imagerel ??1?$_LaunchPad@V?$unique_ptr@V?$tuple@V<lambda_e77d7e1e559843f44c4e0b6d970cdb28>@@@std@@U?$default_delete@V?$tuple@V<lambda_e77d7e1e559843f44c4e0b6d970cdb28>@@@std@@@2@@std@@@std@@QEAA@XZ+43
	DD	00H
	DD	imagerel ??1?$_LaunchPad@V?$unique_ptr@V?$tuple@V<lambda_e77d7e1e559843f44c4e0b6d970cdb28>@@@std@@U?$default_delete@V?$tuple@V<lambda_e77d7e1e559843f44c4e0b6d970cdb28>@@@std@@@2@@std@@@std@@QEAA@XZ+100
	DD	0ffffffffH
xdata	ENDS
;	COMDAT xdata
xdata	SEGMENT
$stateUnwindMap$??1?$_LaunchPad@V?$unique_ptr@V?$tuple@V<lambda_e77d7e1e559843f44c4e0b6d970cdb28>@@@std@@U?$default_delete@V?$tuple@V<lambda_e77d7e1e559843f44c4e0b6d970cdb28>@@@std@@@2@@std@@@std@@QEAA@XZ DD 0ffffffffH
	DD	imagerel __std_terminate
xdata	ENDS
;	COMDAT CONST
CONST	SEGMENT
$cppxdata$??1?$_LaunchPad@V?$unique_ptr@V?$tuple@V<lambda_e77d7e1e559843f44c4e0b6d970cdb28>@@@std@@U?$default_delete@V?$tuple@V<lambda_e77d7e1e559843f44c4e0b6d970cdb28>@@@std@@@2@@std@@@std@@QEAA@XZ DD 019930522H
	DD	01H
	DD	imagerel $stateUnwindMap$??1?$_LaunchPad@V?$unique_ptr@V?$tuple@V<lambda_e77d7e1e559843f44c4e0b6d970cdb28>@@@std@@U?$default_delete@V?$tuple@V<lambda_e77d7e1e559843f44c4e0b6d970cdb28>@@@std@@@2@@std@@@std@@QEAA@XZ
	DD	00H
	DD	00H
	DD	03H
	DD	imagerel $ip2state$??1?$_LaunchPad@V?$unique_ptr@V?$tuple@V<lambda_e77d7e1e559843f44c4e0b6d970cdb28>@@@std@@U?$default_delete@V?$tuple@V<lambda_e77d7e1e559843f44c4e0b6d970cdb28>@@@std@@@2@@std@@@std@@QEAA@XZ
	DD	020H
	DD	00H
	DD	05H
CONST	ENDS
;	COMDAT xdata
xdata	SEGMENT
$unwind$??1?$_LaunchPad@V?$unique_ptr@V?$tuple@V<lambda_e77d7e1e559843f44c4e0b6d970cdb28>@@@std@@U?$default_delete@V?$tuple@V<lambda_e77d7e1e559843f44c4e0b6d970cdb28>@@@std@@@2@@std@@@std@@QEAA@XZ DD 041419H
	DD	083414H
	DD	070025206H
	DD	imagerel __CxxFrameHandler3
	DD	imagerel $cppxdata$??1?$_LaunchPad@V?$unique_ptr@V?$tuple@V<lambda_e77d7e1e559843f44c4e0b6d970cdb28>@@@std@@U?$default_delete@V?$tuple@V<lambda_e77d7e1e559843f44c4e0b6d970cdb28>@@@std@@@2@@std@@@std@@QEAA@XZ
xdata	ENDS
;	COMDAT xdata
xdata	SEGMENT
$ip2state$?_Run@?$_LaunchPad@V?$unique_ptr@V?$tuple@V<lambda_e77d7e1e559843f44c4e0b6d970cdb28>@@@std@@U?$default_delete@V?$tuple@V<lambda_e77d7e1e559843f44c4e0b6d970cdb28>@@@std@@@2@@std@@@std@@CAXPEAV12@@Z DD imagerel ?_Run@?$_LaunchPad@V?$unique_ptr@V?$tuple@V<lambda_e77d7e1e559843f44c4e0b6d970cdb28>@@@std@@U?$default_delete@V?$tuple@V<lambda_e77d7e1e559843f44c4e0b6d970cdb28>@@@std@@@2@@std@@@std@@CAXPEAV12@@Z
	DD	0ffffffffH
xdata	ENDS
;	COMDAT CONST
CONST	SEGMENT
$cppxdata$?_Run@?$_LaunchPad@V?$unique_ptr@V?$tuple@V<lambda_e77d7e1e559843f44c4e0b6d970cdb28>@@@std@@U?$default_delete@V?$tuple@V<lambda_e77d7e1e559843f44c4e0b6d970cdb28>@@@std@@@2@@std@@@std@@CAXPEAV12@@Z DD 019930522H
	DD	00H
	DD	00H
	DD	00H
	DD	00H
	DD	01H
	DD	imagerel $ip2state$?_Run@?$_LaunchPad@V?$unique_ptr@V?$tuple@V<lambda_e77d7e1e559843f44c4e0b6d970cdb28>@@@std@@U?$default_delete@V?$tuple@V<lambda_e77d7e1e559843f44c4e0b6d970cdb28>@@@std@@@2@@std@@@std@@CAXPEAV12@@Z
	DD	020H
	DD	00H
	DD	05H
CONST	ENDS
;	COMDAT xdata
xdata	SEGMENT
$unwind$?_Run@?$_LaunchPad@V?$unique_ptr@V?$tuple@V<lambda_e77d7e1e559843f44c4e0b6d970cdb28>@@@std@@U?$default_delete@V?$tuple@V<lambda_e77d7e1e559843f44c4e0b6d970cdb28>@@@std@@@2@@std@@@std@@CAXPEAV12@@Z DD 041419H
	DD	083414H
	DD	070025206H
	DD	imagerel __CxxFrameHandler3
	DD	imagerel $cppxdata$?_Run@?$_LaunchPad@V?$unique_ptr@V?$tuple@V<lambda_e77d7e1e559843f44c4e0b6d970cdb28>@@@std@@U?$default_delete@V?$tuple@V<lambda_e77d7e1e559843f44c4e0b6d970cdb28>@@@std@@@2@@std@@@std@@CAXPEAV12@@Z
xdata	ENDS
;	COMDAT xdata
xdata	SEGMENT
$unwind$??$?0V?$unique_ptr@V?$tuple@V<lambda_e77d7e1e559843f44c4e0b6d970cdb28>@@@std@@U?$default_delete@V?$tuple@V<lambda_e77d7e1e559843f44c4e0b6d970cdb28>@@@std@@@2@@std@@@?$_LaunchPad@V?$unique_ptr@V?$tuple@V<lambda_e77d7e1e559843f44c4e0b6d970cdb28>@@@std@@U?$default_delete@V?$tuple@V<lambda_e77d7e1e559843f44c4e0b6d970cdb28>@@@std@@@2@@std@@@std@@QEAA@$$QEAV?$unique_ptr@V?$tuple@V<lambda_e77d7e1e559843f44c4e0b6d970cdb28>@@@std@@U?$default_delete@V?$tuple@V<lambda_e77d7e1e559843f44c4e0b6d970cdb28>@@@std@@@2@@1@@Z DD 040a01H
	DD	06340aH
	DD	07006320aH
xdata	ENDS
; Function compile flags: /Ogtpy
; File c:\users\alist_000\cppmisc\packages\visualcpptools.14.0.24629\lib\native\include\vcruntime_exception.h
;	COMDAT ??0exception@std@@QEAA@QEBD@Z
_TEXT	SEGMENT
_InitData$ = 32
this$ = 64
_Message$ = 72
??0exception@std@@QEAA@QEBD@Z PROC			; std::exception::exception, COMDAT

; 53   :     {

$LN4:
  00000	40 53		 push	 rbx
  00002	48 83 ec 30	 sub	 rsp, 48			; 00000030H
  00006	48 8b d9	 mov	 rbx, rcx

; 54   :         __std_exception_data _InitData = { _Message, true };

  00009	c6 44 24 28 01	 mov	 BYTE PTR _InitData$[rsp+8], 1
  0000e	48 8b c2	 mov	 rax, rdx
  00011	48 8d 0d 00 00
	00 00		 lea	 rcx, OFFSET FLAT:??_7exception@std@@6B@
  00018	48 8d 53 08	 lea	 rdx, QWORD PTR [rbx+8]
  0001c	48 89 44 24 20	 mov	 QWORD PTR _InitData$[rsp], rax
  00021	48 89 0b	 mov	 QWORD PTR [rbx], rcx
  00024	33 c9		 xor	 ecx, ecx
  00026	48 89 0a	 mov	 QWORD PTR [rdx], rcx
  00029	48 89 4a 08	 mov	 QWORD PTR [rdx+8], rcx

; 55   :         __std_exception_copy(&_InitData, &_Data);

  0002d	48 8d 4c 24 20	 lea	 rcx, QWORD PTR _InitData$[rsp]
  00032	e8 00 00 00 00	 call	 __std_exception_copy

; 56   :     }

  00037	48 8b c3	 mov	 rax, rbx
  0003a	48 83 c4 30	 add	 rsp, 48			; 00000030H
  0003e	5b		 pop	 rbx
  0003f	c3		 ret	 0
??0exception@std@@QEAA@QEBD@Z ENDP			; std::exception::exception
_TEXT	ENDS
; Function compile flags: /Ogtpy
; File c:\users\alist_000\cppmisc\packages\visualcpptools.14.0.24629\lib\native\include\vcruntime_exception.h
;	COMDAT ??0exception@std@@QEAA@AEBV01@@Z
_TEXT	SEGMENT
this$ = 48
_Other$ = 56
??0exception@std@@QEAA@AEBV01@@Z PROC			; std::exception::exception, COMDAT

; 66   :     {

$LN4:
  00000	40 53		 push	 rbx
  00002	48 83 ec 20	 sub	 rsp, 32			; 00000020H
  00006	48 8b d9	 mov	 rbx, rcx
  00009	48 8b c2	 mov	 rax, rdx
  0000c	48 8d 53 08	 lea	 rdx, QWORD PTR [rbx+8]
  00010	48 8d 0d 00 00
	00 00		 lea	 rcx, OFFSET FLAT:??_7exception@std@@6B@
  00017	48 89 0b	 mov	 QWORD PTR [rbx], rcx
  0001a	33 c9		 xor	 ecx, ecx
  0001c	48 89 0a	 mov	 QWORD PTR [rdx], rcx
  0001f	48 89 4a 08	 mov	 QWORD PTR [rdx+8], rcx

; 67   :         __std_exception_copy(&_Other._Data, &_Data);

  00023	48 8d 48 08	 lea	 rcx, QWORD PTR [rax+8]
  00027	e8 00 00 00 00	 call	 __std_exception_copy

; 68   :     }

  0002c	48 8b c3	 mov	 rax, rbx
  0002f	48 83 c4 20	 add	 rsp, 32			; 00000020H
  00033	5b		 pop	 rbx
  00034	c3		 ret	 0
??0exception@std@@QEAA@AEBV01@@Z ENDP			; std::exception::exception
_TEXT	ENDS
; Function compile flags: /Ogtpy
; File c:\users\alist_000\cppmisc\packages\visualcpptools.14.0.24629\lib\native\include\vcruntime_exception.h
;	COMDAT ??1exception@std@@UEAA@XZ
_TEXT	SEGMENT
this$ = 8
??1exception@std@@UEAA@XZ PROC				; std::exception::~exception, COMDAT

; 83   :     {

  00000	48 8d 05 00 00
	00 00		 lea	 rax, OFFSET FLAT:??_7exception@std@@6B@
  00007	48 89 01	 mov	 QWORD PTR [rcx], rax

; 84   :         __std_exception_destroy(&_Data);

  0000a	48 83 c1 08	 add	 rcx, 8
  0000e	e9 00 00 00 00	 jmp	 __std_exception_destroy
??1exception@std@@UEAA@XZ ENDP				; std::exception::~exception
_TEXT	ENDS
; Function compile flags: /Ogtpy
; File c:\users\alist_000\cppmisc\packages\visualcpptools.14.0.24629\lib\native\include\vcruntime_exception.h
;	COMDAT ?what@exception@std@@UEBAPEBDXZ
_TEXT	SEGMENT
this$ = 8
?what@exception@std@@UEBAPEBDXZ PROC			; std::exception::what, COMDAT

; 89   :         return _Data._What ? _Data._What : "Unknown exception";

  00000	48 8b 51 08	 mov	 rdx, QWORD PTR [rcx+8]
  00004	48 8d 05 00 00
	00 00		 lea	 rax, OFFSET FLAT:??_C@_0BC@EOODALEL@Unknown?5exception?$AA@
  0000b	48 85 d2	 test	 rdx, rdx
  0000e	48 0f 45 c2	 cmovne	 rax, rdx

; 90   :     }

  00012	c3		 ret	 0
?what@exception@std@@UEBAPEBDXZ ENDP			; std::exception::what
_TEXT	ENDS
; Function compile flags: /Ogtpy
; File c:\users\alist_000\cppmisc\packages\visualcpptools.14.0.24629\lib\native\include\vcruntime_exception.h
;	COMDAT ??_Gexception@std@@UEAAPEAXI@Z
_TEXT	SEGMENT
this$ = 48
__flags$ = 56
??_Gexception@std@@UEAAPEAXI@Z PROC			; std::exception::`scalar deleting destructor', COMDAT
$LN8:
  00000	48 89 5c 24 08	 mov	 QWORD PTR [rsp+8], rbx
  00005	57		 push	 rdi
  00006	48 83 ec 20	 sub	 rsp, 32			; 00000020H

; 83   :     {

  0000a	48 8d 05 00 00
	00 00		 lea	 rax, OFFSET FLAT:??_7exception@std@@6B@
  00011	48 8b f9	 mov	 rdi, rcx
  00014	48 89 01	 mov	 QWORD PTR [rcx], rax
  00017	8b da		 mov	 ebx, edx

; 84   :         __std_exception_destroy(&_Data);

  00019	48 83 c1 08	 add	 rcx, 8
  0001d	e8 00 00 00 00	 call	 __std_exception_destroy
  00022	f6 c3 01	 test	 bl, 1
  00025	74 0d		 je	 SHORT $LN6@scalar
  00027	ba 18 00 00 00	 mov	 edx, 24
  0002c	48 8b cf	 mov	 rcx, rdi
  0002f	e8 00 00 00 00	 call	 ??3@YAXPEAX_K@Z		; operator delete
$LN6@scalar:
  00034	48 8b c7	 mov	 rax, rdi
  00037	48 8b 5c 24 30	 mov	 rbx, QWORD PTR [rsp+48]
  0003c	48 83 c4 20	 add	 rsp, 32			; 00000020H
  00040	5f		 pop	 rdi
  00041	c3		 ret	 0
??_Gexception@std@@UEAAPEAXI@Z ENDP			; std::exception::`scalar deleting destructor'
_TEXT	ENDS
; Function compile flags: /Ogtpy
; File c:\users\alist_000\cppmisc\packages\visualcpptools.14.0.24629\lib\native\include\vcruntime_new.h
;	COMDAT ??2@YAPEAX_KPEAX@Z
_TEXT	SEGMENT
_Size$ = 8
_Where$ = 16
??2@YAPEAX_KPEAX@Z PROC					; operator new, COMDAT

; 92   :         (void)_Size;
; 93   :         return _Where;

  00000	48 8b c2	 mov	 rax, rdx

; 94   :     }

  00003	c3		 ret	 0
??2@YAPEAX_KPEAX@Z ENDP					; operator new
_TEXT	ENDS
; Function compile flags: /Ogtpy
; File c:\users\alist_000\cppmisc\packages\visualcpptools.14.0.24629\lib\native\include\vcruntime_new.h
;	COMDAT ??3@YAXPEAX0@Z
_TEXT	SEGMENT
__formal$ = 8
__formal$ = 16
??3@YAXPEAX0@Z PROC					; operator delete, COMDAT

; 98   :         return;
; 99   :     }

  00000	c2 00 00	 ret	 0
??3@YAXPEAX0@Z ENDP					; operator delete
_TEXT	ENDS
; Function compile flags: /Ogtpy
; File c:\users\alist_000\cppmisc\packages\visualcpptools.14.0.24629\lib\native\include\iosfwd
;	COMDAT ?length@?$char_traits@D@std@@SA_KQEBD@Z
_TEXT	SEGMENT
_First$ = 8
?length@?$char_traits@D@std@@SA_KQEBD@Z PROC		; std::char_traits<char>::length, COMDAT

; 479  : 		return (_CSTD strlen(_First));

  00000	48 83 c8 ff	 or	 rax, -1
$LL3@length:
  00004	48 ff c0	 inc	 rax
  00007	80 3c 01 00	 cmp	 BYTE PTR [rcx+rax], 0
  0000b	75 f7		 jne	 SHORT $LL3@length

; 480  : 		}

  0000d	c3		 ret	 0
?length@?$char_traits@D@std@@SA_KQEBD@Z ENDP		; std::char_traits<char>::length
_TEXT	ENDS
; Function compile flags: /Ogtpy
; File c:\users\alist_000\cppmisc\packages\visualcpptools.14.0.24629\lib\native\include\iosfwd
;	COMDAT ?copy@?$char_traits@D@std@@SAPEADQEADQEBD_K@Z
_TEXT	SEGMENT
_First1$ = 48
_First2$ = 56
_Count$ = 64
?copy@?$char_traits@D@std@@SAPEADQEADQEBD_K@Z PROC	; std::char_traits<char>::copy, COMDAT

; 484  : 		{	// copy [_First2, _First2 + _Count) to [_First1, ...)

$LN4:
  00000	40 53		 push	 rbx
  00002	48 83 ec 20	 sub	 rsp, 32			; 00000020H
  00006	48 8b d9	 mov	 rbx, rcx

; 485  : 		return ((_Elem *)_CSTD memcpy(_First1, _First2, _Count));

  00009	e8 00 00 00 00	 call	 memcpy
  0000e	48 8b c3	 mov	 rax, rbx

; 486  : 		}

  00011	48 83 c4 20	 add	 rsp, 32			; 00000020H
  00015	5b		 pop	 rbx
  00016	c3		 ret	 0
?copy@?$char_traits@D@std@@SAPEADQEADQEBD_K@Z ENDP	; std::char_traits<char>::copy
_TEXT	ENDS
; Function compile flags: /Ogtpy
; File c:\users\alist_000\cppmisc\packages\visualcpptools.14.0.24629\lib\native\include\iosfwd
;	COMDAT ?move@?$char_traits@D@std@@SAPEADQEADQEBD_K@Z
_TEXT	SEGMENT
_First1$ = 8
_First2$ = 16
_Count$ = 24
?move@?$char_traits@D@std@@SAPEADQEADQEBD_K@Z PROC	; std::char_traits<char>::move, COMDAT

; 505  : 		return ((_Elem *)_CSTD memmove(_First1, _First2, _Count));

  00000	e9 00 00 00 00	 jmp	 memmove
?move@?$char_traits@D@std@@SAPEADQEADQEBD_K@Z ENDP	; std::char_traits<char>::move
_TEXT	ENDS
; Function compile flags: /Ogtpy
; File c:\users\alist_000\cppmisc\packages\visualcpptools.14.0.24629\lib\native\include\iosfwd
;	COMDAT ?assign@?$char_traits@D@std@@SAXAEADAEBD@Z
_TEXT	SEGMENT
_Left$ = 8
_Right$ = 16
?assign@?$char_traits@D@std@@SAXAEADAEBD@Z PROC		; std::char_traits<char>::assign, COMDAT

; 516  : 		_Left = _Right;

  00000	0f b6 02	 movzx	 eax, BYTE PTR [rdx]
  00003	88 01		 mov	 BYTE PTR [rcx], al

; 517  : 		}

  00005	c3		 ret	 0
?assign@?$char_traits@D@std@@SAXAEADAEBD@Z ENDP		; std::char_traits<char>::assign
_TEXT	ENDS
; Function compile flags: /Ogtpy
; File c:\users\alist_000\cppmisc\packages\visualcpptools.14.0.24629\lib\native\include\iosfwd
;	COMDAT ?to_int_type@?$char_traits@D@std@@SAHAEBD@Z
_TEXT	SEGMENT
_Ch$ = 8
?to_int_type@?$char_traits@D@std@@SAHAEBD@Z PROC	; std::char_traits<char>::to_int_type, COMDAT

; 536  : 		return ((unsigned char)_Ch);

  00000	0f b6 01	 movzx	 eax, BYTE PTR [rcx]

; 537  : 		}

  00003	c3		 ret	 0
?to_int_type@?$char_traits@D@std@@SAHAEBD@Z ENDP	; std::char_traits<char>::to_int_type
_TEXT	ENDS
; Function compile flags: /Ogtpy
; File c:\users\alist_000\cppmisc\packages\visualcpptools.14.0.24629\lib\native\include\iosfwd
;	COMDAT ?eq_int_type@?$char_traits@D@std@@SA_NAEBH0@Z
_TEXT	SEGMENT
_Left$ = 8
_Right$ = 16
?eq_int_type@?$char_traits@D@std@@SA_NAEBH0@Z PROC	; std::char_traits<char>::eq_int_type, COMDAT

; 540  : 		{	// test for metacharacter equality

  00000	8b 02		 mov	 eax, DWORD PTR [rdx]
  00002	39 01		 cmp	 DWORD PTR [rcx], eax
  00004	0f 94 c0	 sete	 al

; 541  : 		return (_Left == _Right);
; 542  : 		}

  00007	c3		 ret	 0
?eq_int_type@?$char_traits@D@std@@SA_NAEBH0@Z ENDP	; std::char_traits<char>::eq_int_type
_TEXT	ENDS
; Function compile flags: /Ogtpy
; File c:\users\alist_000\cppmisc\packages\visualcpptools.14.0.24629\lib\native\include\iosfwd
;	COMDAT ?eof@?$char_traits@D@std@@SAHXZ
_TEXT	SEGMENT
?eof@?$char_traits@D@std@@SAHXZ PROC			; std::char_traits<char>::eof, COMDAT

; 551  : 		return (EOF);

  00000	83 c8 ff	 or	 eax, -1

; 552  : 		}

  00003	c3		 ret	 0
?eof@?$char_traits@D@std@@SAHXZ ENDP			; std::char_traits<char>::eof
_TEXT	ENDS
; Function compile flags: /Ogtpy
; File c:\users\alist_000\cppmisc\packages\visualcpptools.14.0.24629\lib\native\include\xutility
;	COMDAT ?_Orphan_all@_Container_base0@std@@QEAAXXZ
_TEXT	SEGMENT
this$ = 8
?_Orphan_all@_Container_base0@std@@QEAAXXZ PROC		; std::_Container_base0::_Orphan_all, COMDAT

; 55   : 		}

  00000	c2 00 00	 ret	 0
?_Orphan_all@_Container_base0@std@@QEAAXXZ ENDP		; std::_Container_base0::_Orphan_all
_TEXT	ENDS
; Function compile flags: /Ogtpy
; File c:\users\alist_000\cppmisc\packages\visualcpptools.14.0.24629\lib\native\include\xutility
;	COMDAT ?_Adopt@_Iterator_base0@std@@QEAAXPEBX@Z
_TEXT	SEGMENT
this$ = 8
__formal$ = 16
?_Adopt@_Iterator_base0@std@@QEAAXPEBX@Z PROC		; std::_Iterator_base0::_Adopt, COMDAT

; 66   : 		}

  00000	c2 00 00	 ret	 0
?_Adopt@_Iterator_base0@std@@QEAAXPEBX@Z ENDP		; std::_Iterator_base0::_Adopt
_TEXT	ENDS
; Function compile flags: /Ogtpy
; File c:\users\alist_000\cppmisc\packages\visualcpptools.14.0.24629\lib\native\include\xmemory0
;	COMDAT ?_Allocate@std@@YAPEAX_K0_N@Z
_TEXT	SEGMENT
_Count$ = 48
_Sz$ = 56
_Try_aligned_allocation$ = 64
?_Allocate@std@@YAPEAX_K0_N@Z PROC			; std::_Allocate, COMDAT

; 50   : 	{	// allocate storage for _Count elements of size _Sz

$LN14:
  00000	48 83 ec 28	 sub	 rsp, 40			; 00000028H
  00004	4c 8b ca	 mov	 r9, rdx

; 51   : 	void *_Ptr = 0;
; 52   : 
; 53   : 	if (_Count == 0)

  00007	48 85 c9	 test	 rcx, rcx
  0000a	75 07		 jne	 SHORT $LN2@Allocate

; 54   : 		return (_Ptr);

  0000c	33 c0		 xor	 eax, eax

; 89   : 	}

  0000e	48 83 c4 28	 add	 rsp, 40			; 00000028H
  00012	c3		 ret	 0
$LN2@Allocate:

; 55   : 
; 56   : 	// check overflow of multiply
; 57   : 	if ((size_t)(-1) / _Sz < _Count)

  00013	33 d2		 xor	 edx, edx
  00015	48 83 c8 ff	 or	 rax, -1
  00019	49 f7 f1	 div	 r9
  0001c	48 3b c1	 cmp	 rax, rcx
  0001f	72 44		 jb	 SHORT $LN11@Allocate

; 59   : 	const size_t _User_size = _Count * _Sz;

  00021	49 0f af c9	 imul	 rcx, r9

; 60   : 
; 61   :  #if defined(_M_IX86) || defined(_M_X64)
; 62   : 	if (_Try_aligned_allocation
; 63   : 		&& _BIG_ALLOCATION_THRESHOLD <= _User_size)

  00025	45 84 c0	 test	 r8b, r8b
  00028	74 2e		 je	 SHORT $LN4@Allocate
  0002a	48 81 f9 00 10
	00 00		 cmp	 rcx, 4096		; 00001000H
  00031	72 25		 jb	 SHORT $LN4@Allocate

; 64   : 		{	// allocate large block
; 65   : 		static_assert(sizeof (void *) < _BIG_ALLOCATION_ALIGNMENT,
; 66   : 			"Big allocations should at least match vector register size");
; 67   : 		const size_t _Block_size = _NON_USER_SIZE + _User_size;

  00033	48 8d 41 27	 lea	 rax, QWORD PTR [rcx+39]

; 68   : 		if (_Block_size <= _User_size)

  00037	48 3b c1	 cmp	 rax, rcx
  0003a	76 2f		 jbe	 SHORT $LN13@Allocate

; 70   : 		const uintptr_t _Ptr_container =
; 71   : 			reinterpret_cast<uintptr_t>(::operator new(_Block_size));

  0003c	48 8b c8	 mov	 rcx, rax
  0003f	e8 00 00 00 00	 call	 ??2@YAPEAX_K@Z		; operator new

; 72   : 		_SCL_SECURE_ALWAYS_VALIDATE(_Ptr_container != 0);
; 73   : 		_Ptr = reinterpret_cast<void *>((_Ptr_container + _NON_USER_SIZE)

  00044	48 8d 48 27	 lea	 rcx, QWORD PTR [rax+39]
  00048	48 83 e1 e0	 and	 rcx, -32		; ffffffffffffffe0H

; 74   : 			& ~(_BIG_ALLOCATION_ALIGNMENT - 1));
; 75   : 		static_cast<uintptr_t *>(_Ptr)[-1] = _Ptr_container;

  0004c	48 89 41 f8	 mov	 QWORD PTR [rcx-8], rax

; 86   : 		_SCL_SECURE_ALWAYS_VALIDATE(_Ptr != 0);
; 87   : 		}
; 88   : 	return (_Ptr);

  00050	48 8b c1	 mov	 rax, rcx

; 89   : 	}

  00053	48 83 c4 28	 add	 rsp, 40			; 00000028H
  00057	c3		 ret	 0
$LN4@Allocate:

; 76   : 
; 77   :  #ifdef _DEBUG
; 78   : 		static_cast<uintptr_t *>(_Ptr)[-2] = _BIG_ALLOCATION_SENTINEL;
; 79   :  #endif /* _DEBUG */
; 80   : 		}
; 81   : 	else
; 82   :  #endif /* defined(_M_IX86) || defined(_M_X64) */
; 83   : 
; 84   : 		{	// allocate normal block
; 85   : 		_Ptr = ::operator new(_User_size);

  00058	e8 00 00 00 00	 call	 ??2@YAPEAX_K@Z		; operator new
  0005d	48 8b c8	 mov	 rcx, rax

; 89   : 	}

  00060	48 83 c4 28	 add	 rsp, 40			; 00000028H
  00064	c3		 ret	 0
$LN11@Allocate:

; 58   : 		_Xbad_alloc();	// report no memory

  00065	e8 00 00 00 00	 call	 ?_Xbad_alloc@std@@YAXXZ	; std::_Xbad_alloc
  0006a	cc		 int	 3
$LN13@Allocate:

; 69   : 			_Xbad_alloc();	// report no memory

  0006b	e8 00 00 00 00	 call	 ?_Xbad_alloc@std@@YAXXZ	; std::_Xbad_alloc
  00070	cc		 int	 3
$LN10@Allocate:
?_Allocate@std@@YAPEAX_K0_N@Z ENDP			; std::_Allocate
_TEXT	ENDS
; Function compile flags: /Ogtpy
; File c:\users\alist_000\cppmisc\packages\visualcpptools.14.0.24629\lib\native\include\xmemory0
;	COMDAT ?_Deallocate@std@@YAXPEAX_K1@Z
_TEXT	SEGMENT
_Ptr$ = 48
_Count$ = 56
_Sz$ = 64
?_Deallocate@std@@YAXPEAX_K1@Z PROC			; std::_Deallocate, COMDAT

; 94   : 	{	// deallocate storage for _Count elements of size _Sz

$LN16:
  00000	48 83 ec 28	 sub	 rsp, 40			; 00000028H
  00004	4c 8b ca	 mov	 r9, rdx

; 95   :  #if defined(_M_IX86) || defined(_M_X64)
; 96   : 	_SCL_SECURE_ALWAYS_VALIDATE(_Count <= (size_t)(-1) / _Sz);

  00007	48 83 c8 ff	 or	 rax, -1
  0000b	33 d2		 xor	 edx, edx
  0000d	49 f7 f0	 div	 r8
  00010	4c 3b c8	 cmp	 r9, rax
  00013	77 36		 ja	 SHORT $LN10@Deallocate

; 97   : 	const size_t _User_size = _Count * _Sz;

  00015	4d 0f af c8	 imul	 r9, r8

; 98   : 	if (_BIG_ALLOCATION_THRESHOLD <= _User_size)

  00019	49 81 f9 00 10
	00 00		 cmp	 r9, 4096		; 00001000H
  00020	72 20		 jb	 SHORT $LN3@Deallocate

; 99   : 		{	// deallocate large block
; 100  : 		const uintptr_t _Ptr_user = reinterpret_cast<uintptr_t>(_Ptr);
; 101  : 		_SCL_SECURE_ALWAYS_VALIDATE(

  00022	f6 c1 1f	 test	 cl, 31
  00025	75 2a		 jne	 SHORT $LN12@Deallocate

; 102  : 			(_Ptr_user & (_BIG_ALLOCATION_ALIGNMENT - 1)) == 0);
; 103  : 		const uintptr_t _Ptr_ptr = _Ptr_user - sizeof(void *);
; 104  : 		const uintptr_t _Ptr_container =
; 105  : 			*reinterpret_cast<uintptr_t *>(_Ptr_ptr);

  00027	48 8b 41 f8	 mov	 rax, QWORD PTR [rcx-8]

; 106  : 
; 107  :  #ifdef _DEBUG
; 108  : 		// If the following asserts, it likely means that we are performing
; 109  : 		// an aligned delete on memory coming from an unaligned allocation.
; 110  : 		_SCL_SECURE_ALWAYS_VALIDATE(
; 111  : 			reinterpret_cast<uintptr_t *>(_Ptr_ptr)[-1] ==
; 112  : 				_BIG_ALLOCATION_SENTINEL);
; 113  :  #endif /* _DEBUG */
; 114  : 
; 115  : 		// Extra paranoia on aligned allocation/deallocation
; 116  : 		_SCL_SECURE_ALWAYS_VALIDATE(_Ptr_container < _Ptr_user);

  0002b	48 3b c1	 cmp	 rax, rcx
  0002e	73 27		 jae	 SHORT $LN13@Deallocate

; 117  : 
; 118  :  #ifdef _DEBUG
; 119  : 		_SCL_SECURE_ALWAYS_VALIDATE(2 * sizeof(void *)
; 120  : 			<= _Ptr_user - _Ptr_container);
; 121  : 
; 122  :  #else /* _DEBUG */
; 123  : 		_SCL_SECURE_ALWAYS_VALIDATE(sizeof(void *)

  00030	48 2b c8	 sub	 rcx, rax
  00033	48 83 f9 08	 cmp	 rcx, 8
  00037	72 24		 jb	 SHORT $LN14@Deallocate

; 124  : 			<= _Ptr_user - _Ptr_container);
; 125  :  #endif /* _DEBUG */
; 126  : 
; 127  : 		_SCL_SECURE_ALWAYS_VALIDATE(_Ptr_user - _Ptr_container

  00039	48 83 f9 27	 cmp	 rcx, 39			; 00000027H
  0003d	77 24		 ja	 SHORT $LN15@Deallocate

; 128  : 			<= _NON_USER_SIZE);
; 129  : 
; 130  : 		_Ptr = reinterpret_cast<void *>(_Ptr_container);

  0003f	48 8b c8	 mov	 rcx, rax
$LN3@Deallocate:

; 135  : 	}

  00042	48 83 c4 28	 add	 rsp, 40			; 00000028H

; 131  : 		}
; 132  :  #endif /* defined(_M_IX86) || defined(_M_X64) */
; 133  : 
; 134  : 	::operator delete(_Ptr);

  00046	e9 00 00 00 00	 jmp	 ??3@YAXPEAX@Z		; operator delete
$LN10@Deallocate:

; 95   :  #if defined(_M_IX86) || defined(_M_X64)
; 96   : 	_SCL_SECURE_ALWAYS_VALIDATE(_Count <= (size_t)(-1) / _Sz);

  0004b	e8 00 00 00 00	 call	 _invalid_parameter_noinfo_noreturn
  00050	cc		 int	 3
$LN12@Deallocate:

; 99   : 		{	// deallocate large block
; 100  : 		const uintptr_t _Ptr_user = reinterpret_cast<uintptr_t>(_Ptr);
; 101  : 		_SCL_SECURE_ALWAYS_VALIDATE(

  00051	e8 00 00 00 00	 call	 _invalid_parameter_noinfo_noreturn
  00056	cc		 int	 3
$LN13@Deallocate:

; 106  : 
; 107  :  #ifdef _DEBUG
; 108  : 		// If the following asserts, it likely means that we are performing
; 109  : 		// an aligned delete on memory coming from an unaligned allocation.
; 110  : 		_SCL_SECURE_ALWAYS_VALIDATE(
; 111  : 			reinterpret_cast<uintptr_t *>(_Ptr_ptr)[-1] ==
; 112  : 				_BIG_ALLOCATION_SENTINEL);
; 113  :  #endif /* _DEBUG */
; 114  : 
; 115  : 		// Extra paranoia on aligned allocation/deallocation
; 116  : 		_SCL_SECURE_ALWAYS_VALIDATE(_Ptr_container < _Ptr_user);

  00057	e8 00 00 00 00	 call	 _invalid_parameter_noinfo_noreturn
  0005c	cc		 int	 3
$LN14@Deallocate:

; 117  : 
; 118  :  #ifdef _DEBUG
; 119  : 		_SCL_SECURE_ALWAYS_VALIDATE(2 * sizeof(void *)
; 120  : 			<= _Ptr_user - _Ptr_container);
; 121  : 
; 122  :  #else /* _DEBUG */
; 123  : 		_SCL_SECURE_ALWAYS_VALIDATE(sizeof(void *)

  0005d	e8 00 00 00 00	 call	 _invalid_parameter_noinfo_noreturn
  00062	cc		 int	 3
$LN15@Deallocate:

; 124  : 			<= _Ptr_user - _Ptr_container);
; 125  :  #endif /* _DEBUG */
; 126  : 
; 127  : 		_SCL_SECURE_ALWAYS_VALIDATE(_Ptr_user - _Ptr_container

  00063	e8 00 00 00 00	 call	 _invalid_parameter_noinfo_noreturn
  00068	cc		 int	 3
$LN9@Deallocate:
?_Deallocate@std@@YAXPEAX_K1@Z ENDP			; std::_Deallocate
_TEXT	ENDS
; Function compile flags: /Ogtpy
; File c:\users\alist_000\cppmisc\packages\visualcpptools.14.0.24629\lib\native\include\chrono
;	COMDAT ?now@system_clock@chrono@std@@SA?AV?$time_point@Usystem_clock@chrono@std@@V?$duration@_JU?$ratio@$00$0JIJGIA@@std@@@23@@23@XZ
_TEXT	SEGMENT
__$ReturnUdt$ = 48
?now@system_clock@chrono@std@@SA?AV?$time_point@Usystem_clock@chrono@std@@V?$duration@_JU?$ratio@$00$0JIJGIA@@std@@@23@@23@XZ PROC ; std::chrono::system_clock::now, COMDAT

; 971  : 		{	// get current time

$LN8:
  00000	40 53		 push	 rbx
  00002	48 83 ec 20	 sub	 rsp, 32			; 00000020H
  00006	48 8b d9	 mov	 rbx, rcx

; 972  : 		return (time_point(duration(_Xtime_get_ticks())));

  00009	e8 00 00 00 00	 call	 _Xtime_get_ticks

; 241  : 		: _MyDur(_Other)

  0000e	48 89 03	 mov	 QWORD PTR [rbx], rax

; 972  : 		return (time_point(duration(_Xtime_get_ticks())));

  00011	48 8b c3	 mov	 rax, rbx

; 973  : 		}

  00014	48 83 c4 20	 add	 rsp, 32			; 00000020H
  00018	5b		 pop	 rbx
  00019	c3		 ret	 0
?now@system_clock@chrono@std@@SA?AV?$time_point@Usystem_clock@chrono@std@@V?$duration@_JU?$ratio@$00$0JIJGIA@@std@@@23@@23@XZ ENDP ; std::chrono::system_clock::now
_TEXT	ENDS
; Function compile flags: /Ogtpy
; File c:\users\alist_000\cppmisc\packages\visualcpptools.14.0.24629\lib\native\include\stdexcept
; File c:\users\alist_000\cppmisc\packages\visualcpptools.14.0.24629\lib\native\include\xstring
; File c:\users\alist_000\cppmisc\packages\visualcpptools.14.0.24629\lib\native\include\stdexcept
; File c:\users\alist_000\cppmisc\packages\visualcpptools.14.0.24629\lib\native\include\xstring
; File c:\users\alist_000\cppmisc\packages\visualcpptools.14.0.24629\lib\native\include\xstddef
; File c:\users\alist_000\cppmisc\packages\visualcpptools.14.0.24629\lib\native\include\vcruntime_exception.h
; File c:\users\alist_000\cppmisc\packages\visualcpptools.14.0.24629\lib\native\include\stdexcept
;	COMDAT ??0runtime_error@std@@QEAA@AEBV?$basic_string@DU?$char_traits@D@std@@V?$allocator@D@2@@1@@Z
_TEXT	SEGMENT
_InitData$1 = 32
this$ = 64
_Message$ = 72
??0runtime_error@std@@QEAA@AEBV?$basic_string@DU?$char_traits@D@std@@V?$allocator@D@2@@1@@Z PROC ; std::runtime_error::runtime_error, COMDAT

; 163  : 		{	// construct from message string

$LN25:
  00000	40 53		 push	 rbx
  00002	48 83 ec 30	 sub	 rsp, 48			; 00000030H
; File c:\users\alist_000\cppmisc\packages\visualcpptools.14.0.24629\lib\native\include\xstring

; 1638 : 		return (this->_BUF_SIZE <= _Myres);

  00006	48 83 7a 18 10	 cmp	 QWORD PTR [rdx+24], 16
; File c:\users\alist_000\cppmisc\packages\visualcpptools.14.0.24629\lib\native\include\stdexcept

; 163  : 		{	// construct from message string

  0000b	48 8b c2	 mov	 rax, rdx
  0000e	48 8b d9	 mov	 rbx, rcx
; File c:\users\alist_000\cppmisc\packages\visualcpptools.14.0.24629\lib\native\include\xstring

; 1631 : 		return (_Large_string_engaged()

  00011	72 03		 jb	 SHORT $LN16@runtime_er
; File c:\users\alist_000\cppmisc\packages\visualcpptools.14.0.24629\lib\native\include\xstddef

; 642  : 	return (_Ptr);

  00013	48 8b 02	 mov	 rax, QWORD PTR [rdx]
$LN16@runtime_er:
; File c:\users\alist_000\cppmisc\packages\visualcpptools.14.0.24629\lib\native\include\vcruntime_exception.h

; 52   :         : _Data()

  00016	48 8d 53 08	 lea	 rdx, QWORD PTR [rbx+8]

; 53   :     {
; 54   :         __std_exception_data _InitData = { _Message, true };

  0001a	48 89 44 24 20	 mov	 QWORD PTR _InitData$1[rsp], rax
  0001f	48 8d 0d 00 00
	00 00		 lea	 rcx, OFFSET FLAT:??_7exception@std@@6B@
  00026	c6 44 24 28 01	 mov	 BYTE PTR _InitData$1[rsp+8], 1
  0002b	48 89 0b	 mov	 QWORD PTR [rbx], rcx
  0002e	33 c9		 xor	 ecx, ecx
  00030	48 89 0a	 mov	 QWORD PTR [rdx], rcx
  00033	48 89 4a 08	 mov	 QWORD PTR [rdx+8], rcx

; 55   :         __std_exception_copy(&_InitData, &_Data);

  00037	48 8d 4c 24 20	 lea	 rcx, QWORD PTR _InitData$1[rsp]
  0003c	e8 00 00 00 00	 call	 __std_exception_copy
; File c:\users\alist_000\cppmisc\packages\visualcpptools.14.0.24629\lib\native\include\stdexcept

; 163  : 		{	// construct from message string

  00041	48 8d 05 00 00
	00 00		 lea	 rax, OFFSET FLAT:??_7runtime_error@std@@6B@
  00048	48 89 03	 mov	 QWORD PTR [rbx], rax

; 164  : 		}

  0004b	48 8b c3	 mov	 rax, rbx
  0004e	48 83 c4 30	 add	 rsp, 48			; 00000030H
  00052	5b		 pop	 rbx
  00053	c3		 ret	 0
??0runtime_error@std@@QEAA@AEBV?$basic_string@DU?$char_traits@D@std@@V?$allocator@D@2@@1@@Z ENDP ; std::runtime_error::runtime_error
_TEXT	ENDS
; Function compile flags: /Ogtpy
; File c:\users\alist_000\cppmisc\packages\visualcpptools.14.0.24629\lib\native\include\vcruntime_exception.h
;	COMDAT ??_Gruntime_error@std@@UEAAPEAXI@Z
_TEXT	SEGMENT
this$ = 48
__flags$ = 56
??_Gruntime_error@std@@UEAAPEAXI@Z PROC			; std::runtime_error::`scalar deleting destructor', COMDAT
$LN11:
  00000	48 89 5c 24 08	 mov	 QWORD PTR [rsp+8], rbx
  00005	57		 push	 rdi
  00006	48 83 ec 20	 sub	 rsp, 32			; 00000020H

; 83   :     {

  0000a	48 8d 05 00 00
	00 00		 lea	 rax, OFFSET FLAT:??_7exception@std@@6B@
  00011	48 8b f9	 mov	 rdi, rcx
  00014	48 89 01	 mov	 QWORD PTR [rcx], rax
  00017	8b da		 mov	 ebx, edx

; 84   :         __std_exception_destroy(&_Data);

  00019	48 83 c1 08	 add	 rcx, 8
  0001d	e8 00 00 00 00	 call	 __std_exception_destroy
  00022	f6 c3 01	 test	 bl, 1
  00025	74 0d		 je	 SHORT $LN9@scalar
  00027	ba 18 00 00 00	 mov	 edx, 24
  0002c	48 8b cf	 mov	 rcx, rdi
  0002f	e8 00 00 00 00	 call	 ??3@YAXPEAX_K@Z		; operator delete
$LN9@scalar:
  00034	48 8b c7	 mov	 rax, rdi
  00037	48 8b 5c 24 30	 mov	 rbx, QWORD PTR [rsp+48]
  0003c	48 83 c4 20	 add	 rsp, 32			; 00000020H
  00040	5f		 pop	 rdi
  00041	c3		 ret	 0
??_Gruntime_error@std@@UEAAPEAXI@Z ENDP			; std::runtime_error::`scalar deleting destructor'
_TEXT	ENDS
; Function compile flags: /Ogtpy
; File c:\users\alist_000\cppmisc\packages\visualcpptools.14.0.24629\lib\native\include\vcruntime_exception.h
;	COMDAT ??1runtime_error@std@@UEAA@XZ
_TEXT	SEGMENT
this$ = 8
??1runtime_error@std@@UEAA@XZ PROC			; std::runtime_error::~runtime_error, COMDAT

; 83   :     {

  00000	48 8d 05 00 00
	00 00		 lea	 rax, OFFSET FLAT:??_7exception@std@@6B@
  00007	48 89 01	 mov	 QWORD PTR [rcx], rax

; 84   :         __std_exception_destroy(&_Data);

  0000a	48 83 c1 08	 add	 rcx, 8
  0000e	e9 00 00 00 00	 jmp	 __std_exception_destroy
??1runtime_error@std@@UEAA@XZ ENDP			; std::runtime_error::~runtime_error
_TEXT	ENDS
; Function compile flags: /Ogtpy
; File c:\users\alist_000\cppmisc\packages\visualcpptools.14.0.24629\lib\native\include\vcruntime_exception.h
;	COMDAT ??0runtime_error@std@@QEAA@AEBV01@@Z
_TEXT	SEGMENT
this$ = 48
__that$ = 56
??0runtime_error@std@@QEAA@AEBV01@@Z PROC		; std::runtime_error::runtime_error, COMDAT
$LN6:
  00000	40 53		 push	 rbx
  00002	48 83 ec 20	 sub	 rsp, 32			; 00000020H
  00006	48 8b d9	 mov	 rbx, rcx
  00009	48 8b c2	 mov	 rax, rdx

; 65   :         : _Data()

  0000c	48 8d 53 08	 lea	 rdx, QWORD PTR [rbx+8]

; 66   :     {

  00010	48 8d 0d 00 00
	00 00		 lea	 rcx, OFFSET FLAT:??_7exception@std@@6B@
  00017	48 89 0b	 mov	 QWORD PTR [rbx], rcx
  0001a	33 c9		 xor	 ecx, ecx
  0001c	48 89 0a	 mov	 QWORD PTR [rdx], rcx
  0001f	48 89 4a 08	 mov	 QWORD PTR [rdx+8], rcx

; 67   :         __std_exception_copy(&_Other._Data, &_Data);

  00023	48 8d 48 08	 lea	 rcx, QWORD PTR [rax+8]
  00027	e8 00 00 00 00	 call	 __std_exception_copy
  0002c	48 8d 05 00 00
	00 00		 lea	 rax, OFFSET FLAT:??_7runtime_error@std@@6B@
  00033	48 89 03	 mov	 QWORD PTR [rbx], rax
  00036	48 8b c3	 mov	 rax, rbx
  00039	48 83 c4 20	 add	 rsp, 32			; 00000020H
  0003d	5b		 pop	 rbx
  0003e	c3		 ret	 0
??0runtime_error@std@@QEAA@AEBV01@@Z ENDP		; std::runtime_error::runtime_error
_TEXT	ENDS
; Function compile flags: /Ogtpy
; File c:\users\alist_000\cppmisc\packages\visualcpptools.14.0.24629\lib\native\include\system_error
;	COMDAT ??0error_category@std@@QEAA@XZ
_TEXT	SEGMENT
this$ = 8
??0error_category@std@@QEAA@XZ PROC			; std::error_category::error_category, COMDAT

; 165  : 		{	// default constructor

  00000	48 8d 05 00 00
	00 00		 lea	 rax, OFFSET FLAT:??_7error_category@std@@6B@

; 166  : 		_Addr = reinterpret_cast<uintptr_t>(this);

  00007	48 89 49 08	 mov	 QWORD PTR [rcx+8], rcx
  0000b	48 89 01	 mov	 QWORD PTR [rcx], rax

; 167  : 		}

  0000e	48 8b c1	 mov	 rax, rcx
  00011	c3		 ret	 0
??0error_category@std@@QEAA@XZ ENDP			; std::error_category::error_category
_TEXT	ENDS
; Function compile flags: /Ogtpy
; File c:\users\alist_000\cppmisc\packages\visualcpptools.14.0.24629\lib\native\include\system_error
;	COMDAT ??1error_category@std@@UEAA@XZ
_TEXT	SEGMENT
this$ = 8
??1error_category@std@@UEAA@XZ PROC			; std::error_category::~error_category, COMDAT

; 170  : 		{	// destroy the object

  00000	48 8d 05 00 00
	00 00		 lea	 rax, OFFSET FLAT:??_7error_category@std@@6B@
  00007	48 89 01	 mov	 QWORD PTR [rcx], rax

; 171  : 		}

  0000a	c3		 ret	 0
??1error_category@std@@UEAA@XZ ENDP			; std::error_category::~error_category
_TEXT	ENDS
; Function compile flags: /Ogtpy
; File c:\users\alist_000\cppmisc\packages\visualcpptools.14.0.24629\lib\native\include\system_error
;	COMDAT ??8error_category@std@@QEBA_NAEBV01@@Z
_TEXT	SEGMENT
this$ = 8
_Right$ = 16
??8error_category@std@@QEBA_NAEBV01@@Z PROC		; std::error_category::operator==, COMDAT

; 187  : 		{	// compare categories for equality

  00000	48 8b 42 08	 mov	 rax, QWORD PTR [rdx+8]
  00004	48 39 41 08	 cmp	 QWORD PTR [rcx+8], rax
  00008	0f 94 c0	 sete	 al

; 188  : 		return (_Addr == _Right._Addr);
; 189  : 		}

  0000b	c3		 ret	 0
??8error_category@std@@QEBA_NAEBV01@@Z ENDP		; std::error_category::operator==
_TEXT	ENDS
; Function compile flags: /Ogtpy
; File c:\users\alist_000\cppmisc\packages\visualcpptools.14.0.24629\lib\native\include\system_error
;	COMDAT ??_Gerror_category@std@@UEAAPEAXI@Z
_TEXT	SEGMENT
this$ = 48
__flags$ = 56
??_Gerror_category@std@@UEAAPEAXI@Z PROC		; std::error_category::`scalar deleting destructor', COMDAT
$LN9:
  00000	40 53		 push	 rbx
  00002	48 83 ec 20	 sub	 rsp, 32			; 00000020H

; 170  : 		{	// destroy the object

  00006	48 8d 05 00 00
	00 00		 lea	 rax, OFFSET FLAT:??_7error_category@std@@6B@
  0000d	48 8b d9	 mov	 rbx, rcx
  00010	48 89 01	 mov	 QWORD PTR [rcx], rax
  00013	f6 c2 01	 test	 dl, 1
  00016	74 0a		 je	 SHORT $LN7@scalar
  00018	ba 10 00 00 00	 mov	 edx, 16
  0001d	e8 00 00 00 00	 call	 ??3@YAXPEAX_K@Z		; operator delete
$LN7@scalar:
  00022	48 8b c3	 mov	 rax, rbx
  00025	48 83 c4 20	 add	 rsp, 32			; 00000020H
  00029	5b		 pop	 rbx
  0002a	c3		 ret	 0
??_Gerror_category@std@@UEAAPEAXI@Z ENDP		; std::error_category::`scalar deleting destructor'
_TEXT	ENDS
; Function compile flags: /Ogtpy
; File c:\users\alist_000\cppmisc\packages\visualcpptools.14.0.24629\lib\native\include\system_error
;	COMDAT ??0error_code@std@@QEAA@HAEBVerror_category@1@@Z
_TEXT	SEGMENT
this$ = 8
_Val$ = 16
_Cat$ = 24
??0error_code@std@@QEAA@HAEBVerror_category@1@@Z PROC	; std::error_code::error_code, COMDAT

; 229  : 		: _Myval(_Val), _Mycat(&_Cat)

  00000	89 11		 mov	 DWORD PTR [rcx], edx

; 231  : 		}

  00002	48 8b c1	 mov	 rax, rcx
  00005	4c 89 41 08	 mov	 QWORD PTR [rcx+8], r8
  00009	c3		 ret	 0
??0error_code@std@@QEAA@HAEBVerror_category@1@@Z ENDP	; std::error_code::error_code
_TEXT	ENDS
; Function compile flags: /Ogtpy
; File c:\users\alist_000\cppmisc\packages\visualcpptools.14.0.24629\lib\native\include\system_error
;	COMDAT ?value@error_code@std@@QEBAHXZ
_TEXT	SEGMENT
this$ = 8
?value@error_code@std@@QEBAHXZ PROC			; std::error_code::value, COMDAT

; 264  : 		return (_Myval);

  00000	8b 01		 mov	 eax, DWORD PTR [rcx]

; 265  : 		}

  00002	c3		 ret	 0
?value@error_code@std@@QEBAHXZ ENDP			; std::error_code::value
_TEXT	ENDS
; Function compile flags: /Ogtpy
; File c:\users\alist_000\cppmisc\packages\visualcpptools.14.0.24629\lib\native\include\system_error
;	COMDAT ?category@error_code@std@@QEBAAEBVerror_category@2@XZ
_TEXT	SEGMENT
this$ = 8
?category@error_code@std@@QEBAAEBVerror_category@2@XZ PROC ; std::error_code::category, COMDAT

; 269  : 		return (*_Mycat);

  00000	48 8b 41 08	 mov	 rax, QWORD PTR [rcx+8]

; 270  : 		}

  00004	c3		 ret	 0
?category@error_code@std@@QEBAAEBVerror_category@2@XZ ENDP ; std::error_code::category
_TEXT	ENDS
; Function compile flags: /Ogtpy
; File c:\users\alist_000\cppmisc\packages\visualcpptools.14.0.24629\lib\native\include\system_error
;	COMDAT ?message@error_code@std@@QEBA?AV?$basic_string@DU?$char_traits@D@std@@V?$allocator@D@2@@2@XZ
_TEXT	SEGMENT
$T1 = 32
this$ = 64
__$ReturnUdt$ = 72
?message@error_code@std@@QEBA?AV?$basic_string@DU?$char_traits@D@std@@V?$allocator@D@2@@2@XZ PROC ; std::error_code::message, COMDAT

; 275  : 		{	// get name of error code

$LN12:
  00000	40 53		 push	 rbx
  00002	48 83 ec 30	 sub	 rsp, 48			; 00000030H

; 276  : 		return (category().message(value()));

  00006	44 8b 01	 mov	 r8d, DWORD PTR [rcx]
  00009	48 8b da	 mov	 rbx, rdx

; 269  : 		return (*_Mycat);

  0000c	48 8b 49 08	 mov	 rcx, QWORD PTR [rcx+8]
  00010	c7 44 24 20 00
	00 00 00	 mov	 DWORD PTR $T1[rsp], 0

; 276  : 		return (category().message(value()));

  00018	48 8b 01	 mov	 rax, QWORD PTR [rcx]
  0001b	ff 50 10	 call	 QWORD PTR [rax+16]
  0001e	48 8b c3	 mov	 rax, rbx

; 277  : 		}

  00021	48 83 c4 30	 add	 rsp, 48			; 00000030H
  00025	5b		 pop	 rbx
  00026	c3		 ret	 0
?message@error_code@std@@QEBA?AV?$basic_string@DU?$char_traits@D@std@@V?$allocator@D@2@@2@XZ ENDP ; std::error_code::message
_TEXT	ENDS
; Function compile flags: /Ogtpy
; File c:\users\alist_000\cppmisc\packages\visualcpptools.14.0.24629\lib\native\include\system_error
;	COMDAT ??0error_condition@std@@QEAA@HAEBVerror_category@1@@Z
_TEXT	SEGMENT
this$ = 8
_Val$ = 16
_Cat$ = 24
??0error_condition@std@@QEAA@HAEBVerror_category@1@@Z PROC ; std::error_condition::error_condition, COMDAT

; 302  : 		: _Myval(_Val), _Mycat(&_Cat)

  00000	89 11		 mov	 DWORD PTR [rcx], edx

; 304  : 		}

  00002	48 8b c1	 mov	 rax, rcx
  00005	4c 89 41 08	 mov	 QWORD PTR [rcx+8], r8
  00009	c3		 ret	 0
??0error_condition@std@@QEAA@HAEBVerror_category@1@@Z ENDP ; std::error_condition::error_condition
_TEXT	ENDS
; Function compile flags: /Ogtpy
; File c:\users\alist_000\cppmisc\packages\visualcpptools.14.0.24629\lib\native\include\system_error
;	COMDAT ?value@error_condition@std@@QEBAHXZ
_TEXT	SEGMENT
this$ = 8
?value@error_condition@std@@QEBAHXZ PROC		; std::error_condition::value, COMDAT

; 337  : 		return (_Myval);

  00000	8b 01		 mov	 eax, DWORD PTR [rcx]

; 338  : 		}

  00002	c3		 ret	 0
?value@error_condition@std@@QEBAHXZ ENDP		; std::error_condition::value
_TEXT	ENDS
; Function compile flags: /Ogtpy
; File c:\users\alist_000\cppmisc\packages\visualcpptools.14.0.24629\lib\native\include\system_error
;	COMDAT ?category@error_condition@std@@QEBAAEBVerror_category@2@XZ
_TEXT	SEGMENT
this$ = 8
?category@error_condition@std@@QEBAAEBVerror_category@2@XZ PROC ; std::error_condition::category, COMDAT

; 342  : 		return (*_Mycat);

  00000	48 8b 41 08	 mov	 rax, QWORD PTR [rcx+8]

; 343  : 		}

  00004	c3		 ret	 0
?category@error_condition@std@@QEBAAEBVerror_category@2@XZ ENDP ; std::error_condition::category
_TEXT	ENDS
; Function compile flags: /Ogtpy
; File c:\users\alist_000\cppmisc\packages\visualcpptools.14.0.24629\lib\native\include\system_error
;	COMDAT ??8std@@YA_NAEBVerror_condition@0@0@Z
_TEXT	SEGMENT
_Left$ = 8
_Right$ = 16
??8std@@YA_NAEBVerror_condition@0@0@Z PROC		; std::operator==, COMDAT

; 188  : 		return (_Addr == _Right._Addr);

  00000	48 8b 42 08	 mov	 rax, QWORD PTR [rdx+8]
  00004	4c 8b 49 08	 mov	 r9, QWORD PTR [rcx+8]
  00008	4c 8b 40 08	 mov	 r8, QWORD PTR [rax+8]
  0000c	4d 39 41 08	 cmp	 QWORD PTR [r9+8], r8

; 389  : 	return (_Left.category() == _Right.category()

  00010	75 09		 jne	 SHORT $LN3@operator
  00012	8b 02		 mov	 eax, DWORD PTR [rdx]
  00014	39 01		 cmp	 DWORD PTR [rcx], eax
  00016	75 03		 jne	 SHORT $LN3@operator
  00018	b0 01		 mov	 al, 1

; 390  : 		&& _Left.value() == _Right.value());
; 391  : 	}

  0001a	c3		 ret	 0
$LN3@operator:

; 389  : 	return (_Left.category() == _Right.category()

  0001b	32 c0		 xor	 al, al

; 390  : 		&& _Left.value() == _Right.value());
; 391  : 	}

  0001d	c3		 ret	 0
??8std@@YA_NAEBVerror_condition@0@0@Z ENDP		; std::operator==
_TEXT	ENDS
; Function compile flags: /Ogtpy
; File c:\users\alist_000\cppmisc\packages\visualcpptools.14.0.24629\lib\native\include\system_error
;	COMDAT ?default_error_condition@error_category@std@@UEBA?AVerror_condition@2@H@Z
_TEXT	SEGMENT
this$ = 8
__$ReturnUdt$ = 16
_Errval$ = 24
?default_error_condition@error_category@std@@UEBA?AVerror_condition@2@H@Z PROC ; std::error_category::default_error_condition, COMDAT

; 302  : 		: _Myval(_Val), _Mycat(&_Cat)

  00000	44 89 02	 mov	 DWORD PTR [rdx], r8d

; 445  : 	return (error_condition(_Errval, *this));

  00003	48 8b c2	 mov	 rax, rdx

; 302  : 		: _Myval(_Val), _Mycat(&_Cat)

  00006	48 89 4a 08	 mov	 QWORD PTR [rdx+8], rcx

; 446  : 	}

  0000a	c3		 ret	 0
?default_error_condition@error_category@std@@UEBA?AVerror_condition@2@H@Z ENDP ; std::error_category::default_error_condition
_TEXT	ENDS
; Function compile flags: /Ogtpy
; File c:\users\alist_000\cppmisc\packages\visualcpptools.14.0.24629\lib\native\include\system_error
;	COMDAT ?equivalent@error_category@std@@UEBA_NHAEBVerror_condition@2@@Z
_TEXT	SEGMENT
$T1 = 32
this$ = 64
_Errval$ = 72
_Cond$ = 80
?equivalent@error_category@std@@UEBA_NHAEBVerror_condition@2@@Z PROC ; std::error_category::equivalent, COMDAT

; 451  : 	{	// test if error code same condition

$LN32:
  00000	40 53		 push	 rbx
  00002	48 83 ec 30	 sub	 rsp, 48			; 00000030H
  00006	48 8b 01	 mov	 rax, QWORD PTR [rcx]
  00009	49 8b d8	 mov	 rbx, r8
  0000c	4c 8b 48 18	 mov	 r9, QWORD PTR [rax+24]
  00010	48 8d 05 00 00
	00 00		 lea	 rax, OFFSET FLAT:?default_error_condition@error_category@std@@UEBA?AVerror_condition@2@H@Z ; std::error_category::default_error_condition
  00017	4c 3b c8	 cmp	 r9, rax
  0001a	75 36		 jne	 SHORT $LN31@equivalent

; 302  : 		: _Myval(_Val), _Mycat(&_Cat)

  0001c	89 54 24 20	 mov	 DWORD PTR $T1[rsp], edx

; 445  : 	return (error_condition(_Errval, *this));

  00020	48 8d 44 24 20	 lea	 rax, QWORD PTR $T1[rsp]

; 302  : 		: _Myval(_Val), _Mycat(&_Cat)

  00025	48 89 4c 24 28	 mov	 QWORD PTR $T1[rsp+8], rcx
$LN3@equivalent:

; 188  : 		return (_Addr == _Right._Addr);

  0002a	48 8b 4b 08	 mov	 rcx, QWORD PTR [rbx+8]
  0002e	4c 8b 40 08	 mov	 r8, QWORD PTR [rax+8]
  00032	48 8b 51 08	 mov	 rdx, QWORD PTR [rcx+8]
  00036	49 39 50 08	 cmp	 QWORD PTR [r8+8], rdx

; 389  : 	return (_Left.category() == _Right.category()

  0003a	75 0e		 jne	 SHORT $LN13@equivalent
  0003c	8b 0b		 mov	 ecx, DWORD PTR [rbx]
  0003e	39 08		 cmp	 DWORD PTR [rax], ecx
  00040	75 08		 jne	 SHORT $LN13@equivalent

; 452  : 	return (default_error_condition(_Errval) == _Cond);

  00042	b0 01		 mov	 al, 1

; 453  : 	}

  00044	48 83 c4 30	 add	 rsp, 48			; 00000030H
  00048	5b		 pop	 rbx
  00049	c3		 ret	 0
$LN13@equivalent:

; 452  : 	return (default_error_condition(_Errval) == _Cond);

  0004a	32 c0		 xor	 al, al

; 453  : 	}

  0004c	48 83 c4 30	 add	 rsp, 48			; 00000030H
  00050	5b		 pop	 rbx
  00051	c3		 ret	 0
$LN31@equivalent:
  00052	44 8b c2	 mov	 r8d, edx
  00055	48 8d 54 24 20	 lea	 rdx, QWORD PTR $T1[rsp]

; 452  : 	return (default_error_condition(_Errval) == _Cond);

  0005a	41 ff d1	 call	 r9
  0005d	eb cb		 jmp	 SHORT $LN3@equivalent
?equivalent@error_category@std@@UEBA_NHAEBVerror_condition@2@@Z ENDP ; std::error_category::equivalent
_TEXT	ENDS
; Function compile flags: /Ogtpy
; File c:\users\alist_000\cppmisc\packages\visualcpptools.14.0.24629\lib\native\include\system_error
;	COMDAT ?equivalent@error_category@std@@UEBA_NAEBVerror_code@2@H@Z
_TEXT	SEGMENT
this$ = 8
_Code$ = 16
_Errval$ = 24
?equivalent@error_category@std@@UEBA_NAEBVerror_code@2@H@Z PROC ; std::error_category::equivalent, COMDAT

; 188  : 		return (_Addr == _Right._Addr);

  00000	48 8b 42 08	 mov	 rax, QWORD PTR [rdx+8]
  00004	4c 8b 48 08	 mov	 r9, QWORD PTR [rax+8]
  00008	4c 39 49 08	 cmp	 QWORD PTR [rcx+8], r9

; 459  : 	return (*this == _Code.category() && _Code.value() == _Errval);

  0000c	75 08		 jne	 SHORT $LN3@equivalent
  0000e	44 39 02	 cmp	 DWORD PTR [rdx], r8d
  00011	75 03		 jne	 SHORT $LN3@equivalent
  00013	b0 01		 mov	 al, 1

; 460  : 	}

  00015	c3		 ret	 0
$LN3@equivalent:

; 459  : 	return (*this == _Code.category() && _Code.value() == _Errval);

  00016	32 c0		 xor	 al, al

; 460  : 	}

  00018	c3		 ret	 0
?equivalent@error_category@std@@UEBA_NAEBVerror_code@2@H@Z ENDP ; std::error_category::equivalent
_TEXT	ENDS
; Function compile flags: /Ogtpy
; File c:\users\alist_000\cppmisc\packages\visualcpptools.14.0.24629\lib\native\include\system_error
;	COMDAT ?make_error_code@std@@YA?AVerror_code@1@W4io_errc@1@@Z
_TEXT	SEGMENT
__$ReturnUdt$ = 48
_Errno$ = 56
?make_error_code@std@@YA?AVerror_code@1@W4io_errc@1@@Z PROC ; std::make_error_code, COMDAT

; 475  : 	{	// make an error_code

$LN29:
  00000	48 89 5c 24 08	 mov	 QWORD PTR [rsp+8], rbx
  00005	57		 push	 rdi
  00006	48 83 ec 20	 sub	 rsp, 32			; 00000020H

; 694  : 	/* MAGIC */ static _Immortalizer<_Ty> _Static;

  0000a	65 48 8b 04 25
	58 00 00 00	 mov	 rax, QWORD PTR gs:88

; 475  : 	{	// make an error_code

  00013	48 8b d9	 mov	 rbx, rcx

; 694  : 	/* MAGIC */ static _Immortalizer<_Ty> _Static;

  00016	b9 00 00 00 00	 mov	 ecx, OFFSET FLAT:_Init_thread_epoch

; 475  : 	{	// make an error_code

  0001b	8b fa		 mov	 edi, edx

; 694  : 	/* MAGIC */ static _Immortalizer<_Ty> _Static;

  0001d	4c 8b 00	 mov	 r8, QWORD PTR [rax]
  00020	42 8b 04 01	 mov	 eax, DWORD PTR [rcx+r8]
  00024	39 05 00 00 00
	00		 cmp	 DWORD PTR ?$TSS0@?1???$_Immortalize@V_Iostream_error_category@std@@@std@@YAAEAV_Iostream_error_category@1@XZ@4HA, eax ; TSS0<`template-parameter-2',unsigned int,std::V_Iostream_error_category::mortalize>
  0002a	7f 1b		 jg	 SHORT $LN27@make_error
$LN7@make_error:

; 229  : 		: _Myval(_Val), _Mycat(&_Cat)

  0002c	48 8d 05 00 00
	00 00		 lea	 rax, OFFSET FLAT:?_Static@?1???$_Immortalize@V_Iostream_error_category@std@@@std@@YAAEAV_Iostream_error_category@1@XZ@4U?$_Immortalizer@V_Iostream_error_category@std@@@1@A ; `std::_Immortalize<std::_Iostream_error_category>'::`2'::_Static
  00033	89 3b		 mov	 DWORD PTR [rbx], edi
  00035	48 89 43 08	 mov	 QWORD PTR [rbx+8], rax

; 476  : 	return (error_code((int)_Errno, iostream_category()));

  00039	48 8b c3	 mov	 rax, rbx

; 477  : 	}

  0003c	48 8b 5c 24 30	 mov	 rbx, QWORD PTR [rsp+48]
  00041	48 83 c4 20	 add	 rsp, 32			; 00000020H
  00045	5f		 pop	 rdi
  00046	c3		 ret	 0
$LN27@make_error:

; 694  : 	/* MAGIC */ static _Immortalizer<_Ty> _Static;

  00047	48 8d 0d 00 00
	00 00		 lea	 rcx, OFFSET FLAT:?$TSS0@?1???$_Immortalize@V_Iostream_error_category@std@@@std@@YAAEAV_Iostream_error_category@1@XZ@4HA ; TSS0<`template-parameter-2',unsigned int,std::V_Iostream_error_category::mortalize>
  0004e	e8 00 00 00 00	 call	 _Init_thread_header
  00053	83 3d 00 00 00
	00 ff		 cmp	 DWORD PTR ?$TSS0@?1???$_Immortalize@V_Iostream_error_category@std@@@std@@YAAEAV_Iostream_error_category@1@XZ@4HA, -1 ; TSS0<`template-parameter-2',unsigned int,std::V_Iostream_error_category::mortalize>
  0005a	75 d0		 jne	 SHORT $LN7@make_error

; 612  : 		{	// default constructor

  0005c	48 8d 05 00 00
	00 00		 lea	 rax, OFFSET FLAT:??_7_Iostream_error_category@std@@6B@

; 613  : 		_Addr = _Iostream_addr;

  00063	48 c7 05 08 00
	00 00 05 00 00
	00		 mov	 QWORD PTR ?_Static@?1???$_Immortalize@V_Iostream_error_category@std@@@std@@YAAEAV_Iostream_error_category@1@XZ@4U?$_Immortalizer@V_Iostream_error_category@std@@@1@A+8, 5

; 694  : 	/* MAGIC */ static _Immortalizer<_Ty> _Static;

  0006e	48 8d 0d 00 00
	00 00		 lea	 rcx, OFFSET FLAT:??__F_Static@?1???$_Immortalize@V_Iostream_error_category@std@@@std@@YAAEAV_Iostream_error_category@0@XZ@YAXXZ ; `std::_Immortalize<std::_Iostream_error_category>'::`2'::`dynamic atexit destructor for '_Static''

; 612  : 		{	// default constructor

  00075	48 89 05 00 00
	00 00		 mov	 QWORD PTR ?_Static@?1???$_Immortalize@V_Iostream_error_category@std@@@std@@YAAEAV_Iostream_error_category@1@XZ@4U?$_Immortalizer@V_Iostream_error_category@std@@@1@A, rax

; 694  : 	/* MAGIC */ static _Immortalizer<_Ty> _Static;

  0007c	e8 00 00 00 00	 call	 atexit
  00081	48 8d 0d 00 00
	00 00		 lea	 rcx, OFFSET FLAT:?$TSS0@?1???$_Immortalize@V_Iostream_error_category@std@@@std@@YAAEAV_Iostream_error_category@1@XZ@4HA ; TSS0<`template-parameter-2',unsigned int,std::V_Iostream_error_category::mortalize>
  00088	e8 00 00 00 00	 call	 _Init_thread_footer
  0008d	eb 9d		 jmp	 SHORT $LN7@make_error
?make_error_code@std@@YA?AVerror_code@1@W4io_errc@1@@Z ENDP ; std::make_error_code
_TEXT	ENDS
; Function compile flags: /Ogtpy
; File c:\users\alist_000\cppmisc\packages\visualcpptools.14.0.24629\lib\native\include\system_error
; File c:\users\alist_000\cppmisc\packages\visualcpptools.14.0.24629\lib\native\include\xstring
; File c:\users\alist_000\cppmisc\packages\visualcpptools.14.0.24629\lib\native\include\system_error
; File c:\users\alist_000\cppmisc\packages\visualcpptools.14.0.24629\lib\native\include\xstring
; File c:\users\alist_000\cppmisc\packages\visualcpptools.14.0.24629\lib\native\include\xmemory0
; File c:\users\alist_000\cppmisc\packages\visualcpptools.14.0.24629\lib\native\include\xstring
; File c:\users\alist_000\cppmisc\packages\visualcpptools.14.0.24629\lib\native\include\iosfwd
; File c:\users\alist_000\cppmisc\packages\visualcpptools.14.0.24629\lib\native\include\xstring
; File c:\users\alist_000\cppmisc\packages\visualcpptools.14.0.24629\lib\native\include\xmemory0
; File c:\users\alist_000\cppmisc\packages\visualcpptools.14.0.24629\lib\native\include\xstring
; File c:\users\alist_000\cppmisc\packages\visualcpptools.14.0.24629\lib\native\include\iosfwd
; File c:\users\alist_000\cppmisc\packages\visualcpptools.14.0.24629\lib\native\include\xstring
; File c:\users\alist_000\cppmisc\packages\visualcpptools.14.0.24629\lib\native\include\iosfwd
; File c:\users\alist_000\cppmisc\packages\visualcpptools.14.0.24629\lib\native\include\xstring
; File c:\users\alist_000\cppmisc\packages\visualcpptools.14.0.24629\lib\native\include\xmemory0
; File c:\users\alist_000\cppmisc\packages\visualcpptools.14.0.24629\lib\native\include\system_error
;	COMDAT ?_Makestr@_System_error@std@@CA?AV?$basic_string@DU?$char_traits@D@std@@V?$allocator@D@2@@2@Verror_code@2@V32@@Z
_TEXT	SEGMENT
$T1 = 32
$T2 = 40
_Message$GSCopy$ = 48
$T3 = 56
__$ArrayPad$ = 88
__$ReturnUdt$ = 128
_Errcode$ = 136
_Message$ = 144
?_Makestr@_System_error@std@@CA?AV?$basic_string@DU?$char_traits@D@std@@V?$allocator@D@2@@2@Verror_code@2@V32@@Z PROC ; std::_System_error::_Makestr, COMDAT

; 509  : 		{	// compose error message

$LN205:
  00000	40 55		 push	 rbp
  00002	56		 push	 rsi
  00003	57		 push	 rdi
  00004	48 83 ec 60	 sub	 rsp, 96			; 00000060H
  00008	48 c7 44 24 28
	fe ff ff ff	 mov	 QWORD PTR $T2[rsp], -2
  00011	48 89 9c 24 98
	00 00 00	 mov	 QWORD PTR [rsp+152], rbx
  00019	48 8b 05 00 00
	00 00		 mov	 rax, QWORD PTR __security_cookie
  00020	48 33 c4	 xor	 rax, rsp
  00023	48 89 44 24 58	 mov	 QWORD PTR __$ArrayPad$[rsp], rax
  00028	49 8b d8	 mov	 rbx, r8
  0002b	48 8b f2	 mov	 rsi, rdx
  0002e	48 8b f9	 mov	 rdi, rcx
  00031	48 89 5c 24 30	 mov	 QWORD PTR _Message$GSCopy$[rsp], rbx
  00036	33 ed		 xor	 ebp, ebp
  00038	89 6c 24 20	 mov	 DWORD PTR $T1[rsp], ebp
  0003c	49 39 68 10	 cmp	 QWORD PTR [r8+16], rbp

; 510  : 		if (!_Message.empty())

  00040	74 13		 je	 SHORT $LN2@Makestr
; File c:\users\alist_000\cppmisc\packages\visualcpptools.14.0.24629\lib\native\include\xstring

; 2285 : 		return (append(_Ptr, _Traits::length(_Ptr)));

  00042	44 8d 45 02	 lea	 r8d, QWORD PTR [rbp+2]
  00046	48 8d 15 00 00
	00 00		 lea	 rdx, OFFSET FLAT:??_C@_02LMMGGCAJ@?3?5?$AA@
  0004d	48 8b cb	 mov	 rcx, rbx
  00050	e8 00 00 00 00	 call	 ?append@?$basic_string@DU?$char_traits@D@std@@V?$allocator@D@2@@std@@QEAAAEAV12@QEBD_K@Z ; std::basic_string<char,std::char_traits<char>,std::allocator<char> >::append
$LN2@Makestr:
; File c:\users\alist_000\cppmisc\packages\visualcpptools.14.0.24629\lib\native\include\system_error

; 512  : 		_Message.append(_Errcode.message());

  00055	48 8d 54 24 38	 lea	 rdx, QWORD PTR $T3[rsp]
  0005a	48 8b ce	 mov	 rcx, rsi
  0005d	e8 00 00 00 00	 call	 ?message@error_code@std@@QEBA?AV?$basic_string@DU?$char_traits@D@std@@V?$allocator@D@2@@2@XZ ; std::error_code::message
  00062	90		 npad	 1
; File c:\users\alist_000\cppmisc\packages\visualcpptools.14.0.24629\lib\native\include\xstring

; 2226 : 		return (append(_Right, 0, npos));

  00063	49 83 c9 ff	 or	 r9, -1
  00067	45 33 c0	 xor	 r8d, r8d
  0006a	48 8b d0	 mov	 rdx, rax
  0006d	48 8b cb	 mov	 rcx, rbx
  00070	e8 00 00 00 00	 call	 ?append@?$basic_string@DU?$char_traits@D@std@@V?$allocator@D@2@@std@@QEAAAEAV12@AEBV12@_K_K@Z ; std::basic_string<char,std::char_traits<char>,std::allocator<char> >::append
  00075	90		 npad	 1

; 1638 : 		return (this->_BUF_SIZE <= _Myres);

  00076	48 8b 44 24 50	 mov	 rax, QWORD PTR $T3[rsp+24]
  0007b	48 83 f8 10	 cmp	 rax, 16

; 3549 : 		if (_My_data._Large_string_engaged())

  0007f	72 4d		 jb	 SHORT $LN61@Makestr

; 3550 : 			{
; 3551 : 			pointer _Ptr = _My_data._Bx._Ptr;
; 3552 : 			auto& _Al = this->_Getal();
; 3553 : 			_Al.destroy(_STD addressof(_My_data._Bx._Ptr));
; 3554 : 			_Al.deallocate(_Ptr, _My_data._Myres + 1);

  00081	48 ff c0	 inc	 rax
; File c:\users\alist_000\cppmisc\packages\visualcpptools.14.0.24629\lib\native\include\xmemory0

; 816  : 		_Deallocate(_Ptr, _Count, sizeof (_Ty));

  00084	48 8b 4c 24 38	 mov	 rcx, QWORD PTR $T3[rsp]

; 98   : 	if (_BIG_ALLOCATION_THRESHOLD <= _User_size)

  00089	48 3d 00 10 00
	00		 cmp	 rax, 4096		; 00001000H
  0008f	72 38		 jb	 SHORT $LN56@Makestr

; 99   : 		{	// deallocate large block
; 100  : 		const uintptr_t _Ptr_user = reinterpret_cast<uintptr_t>(_Ptr);
; 101  : 		_SCL_SECURE_ALWAYS_VALIDATE(

  00091	f6 c1 1f	 test	 cl, 31
  00094	74 06		 je	 SHORT $LN57@Makestr
  00096	e8 00 00 00 00	 call	 _invalid_parameter_noinfo_noreturn
  0009b	cc		 int	 3
$LN57@Makestr:

; 102  : 			(_Ptr_user & (_BIG_ALLOCATION_ALIGNMENT - 1)) == 0);
; 103  : 		const uintptr_t _Ptr_ptr = _Ptr_user - sizeof(void *);
; 104  : 		const uintptr_t _Ptr_container =
; 105  : 			*reinterpret_cast<uintptr_t *>(_Ptr_ptr);

  0009c	48 8b 41 f8	 mov	 rax, QWORD PTR [rcx-8]

; 106  : 
; 107  :  #ifdef _DEBUG
; 108  : 		// If the following asserts, it likely means that we are performing
; 109  : 		// an aligned delete on memory coming from an unaligned allocation.
; 110  : 		_SCL_SECURE_ALWAYS_VALIDATE(
; 111  : 			reinterpret_cast<uintptr_t *>(_Ptr_ptr)[-1] ==
; 112  : 				_BIG_ALLOCATION_SENTINEL);
; 113  :  #endif /* _DEBUG */
; 114  : 
; 115  : 		// Extra paranoia on aligned allocation/deallocation
; 116  : 		_SCL_SECURE_ALWAYS_VALIDATE(_Ptr_container < _Ptr_user);

  000a0	48 3b c1	 cmp	 rax, rcx
  000a3	72 06		 jb	 SHORT $LN58@Makestr
  000a5	e8 00 00 00 00	 call	 _invalid_parameter_noinfo_noreturn
  000aa	cc		 int	 3
$LN58@Makestr:

; 117  : 
; 118  :  #ifdef _DEBUG
; 119  : 		_SCL_SECURE_ALWAYS_VALIDATE(2 * sizeof(void *)
; 120  : 			<= _Ptr_user - _Ptr_container);
; 121  : 
; 122  :  #else /* _DEBUG */
; 123  : 		_SCL_SECURE_ALWAYS_VALIDATE(sizeof(void *)

  000ab	48 2b c8	 sub	 rcx, rax
  000ae	48 83 f9 08	 cmp	 rcx, 8
  000b2	73 06		 jae	 SHORT $LN59@Makestr
  000b4	e8 00 00 00 00	 call	 _invalid_parameter_noinfo_noreturn
  000b9	cc		 int	 3
$LN59@Makestr:

; 124  : 			<= _Ptr_user - _Ptr_container);
; 125  :  #endif /* _DEBUG */
; 126  : 
; 127  : 		_SCL_SECURE_ALWAYS_VALIDATE(_Ptr_user - _Ptr_container

  000ba	48 83 f9 27	 cmp	 rcx, 39			; 00000027H
  000be	76 06		 jbe	 SHORT $LN60@Makestr
  000c0	e8 00 00 00 00	 call	 _invalid_parameter_noinfo_noreturn
  000c5	cc		 int	 3
$LN60@Makestr:

; 128  : 			<= _NON_USER_SIZE);
; 129  : 
; 130  : 		_Ptr = reinterpret_cast<void *>(_Ptr_container);

  000c6	48 8b c8	 mov	 rcx, rax
$LN56@Makestr:

; 131  : 		}
; 132  :  #endif /* defined(_M_IX86) || defined(_M_X64) */
; 133  : 
; 134  : 	::operator delete(_Ptr);

  000c9	e8 00 00 00 00	 call	 ??3@YAXPEAX@Z		; operator delete
$LN61@Makestr:
; File c:\users\alist_000\cppmisc\packages\visualcpptools.14.0.24629\lib\native\include\xstring

; 3539 : 		_My_data._Mysize = 0;

  000ce	48 89 6f 10	 mov	 QWORD PTR [rdi+16], rbp

; 3540 : 		_My_data._Myres = this->_BUF_SIZE - 1;

  000d2	48 c7 47 18 0f
	00 00 00	 mov	 QWORD PTR [rdi+24], 15
; File c:\users\alist_000\cppmisc\packages\visualcpptools.14.0.24629\lib\native\include\iosfwd

; 516  : 		_Left = _Right;

  000da	c6 07 00	 mov	 BYTE PTR [rdi], 0
; File c:\users\alist_000\cppmisc\packages\visualcpptools.14.0.24629\lib\native\include\xstring

; 1638 : 		return (this->_BUF_SIZE <= _Myres);

  000dd	48 83 7b 18 10	 cmp	 QWORD PTR [rbx+24], 16

; 2100 : 		if (_Right_data._Large_string_engaged())

  000e2	72 0b		 jb	 SHORT $LN106@Makestr
; File c:\users\alist_000\cppmisc\packages\visualcpptools.14.0.24629\lib\native\include\xmemory0

; 833  : 		::new ((void *)_Ptr) _Objty(_STD forward<_Types>(_Args)...);

  000e4	48 8b 03	 mov	 rax, QWORD PTR [rbx]
  000e7	48 89 07	 mov	 QWORD PTR [rdi], rax
; File c:\users\alist_000\cppmisc\packages\visualcpptools.14.0.24629\lib\native\include\xstring

; 2103 : 			_Right_data._Bx._Ptr = pointer();

  000ea	48 89 2b	 mov	 QWORD PTR [rbx], rbp

; 2104 : 			}
; 2105 : 		else

  000ed	eb 12		 jmp	 SHORT $LN152@Makestr
$LN106@Makestr:

; 2106 : 			{	// copy small string buffer
; 2107 : 			_Traits::copy(_My_data._Bx._Buf, _Right_data._Bx._Buf, _Right_data._Mysize + 1);

  000ef	4c 8b 43 10	 mov	 r8, QWORD PTR [rbx+16]
  000f3	49 ff c0	 inc	 r8
; File c:\users\alist_000\cppmisc\packages\visualcpptools.14.0.24629\lib\native\include\iosfwd

; 485  : 		return ((_Elem *)_CSTD memcpy(_First1, _First2, _Count));

  000f6	48 8b d3	 mov	 rdx, rbx
  000f9	48 8b cf	 mov	 rcx, rdi
  000fc	e8 00 00 00 00	 call	 memcpy
$LN152@Makestr:
; File c:\users\alist_000\cppmisc\packages\visualcpptools.14.0.24629\lib\native\include\xstring

; 2109 : 		_My_data._Mysize = _Right_data._Mysize;

  00101	48 8b 43 10	 mov	 rax, QWORD PTR [rbx+16]
  00105	48 89 47 10	 mov	 QWORD PTR [rdi+16], rax

; 2110 : 		_My_data._Myres = _Right_data._Myres;

  00109	48 8b 43 18	 mov	 rax, QWORD PTR [rbx+24]
  0010d	48 89 47 18	 mov	 QWORD PTR [rdi+24], rax

; 3539 : 		_My_data._Mysize = 0;

  00111	48 89 6b 10	 mov	 QWORD PTR [rbx+16], rbp

; 3540 : 		_My_data._Myres = this->_BUF_SIZE - 1;

  00115	48 c7 43 18 0f
	00 00 00	 mov	 QWORD PTR [rbx+24], 15
; File c:\users\alist_000\cppmisc\packages\visualcpptools.14.0.24629\lib\native\include\iosfwd

; 516  : 		_Left = _Right;

  0011d	c6 03 00	 mov	 BYTE PTR [rbx], 0
; File c:\users\alist_000\cppmisc\packages\visualcpptools.14.0.24629\lib\native\include\xstring

; 1638 : 		return (this->_BUF_SIZE <= _Myres);

  00120	48 8b 43 18	 mov	 rax, QWORD PTR [rbx+24]
  00124	48 83 f8 10	 cmp	 rax, 16

; 3549 : 		if (_My_data._Large_string_engaged())

  00128	72 4b		 jb	 SHORT $LN199@Makestr

; 3550 : 			{
; 3551 : 			pointer _Ptr = _My_data._Bx._Ptr;
; 3552 : 			auto& _Al = this->_Getal();
; 3553 : 			_Al.destroy(_STD addressof(_My_data._Bx._Ptr));
; 3554 : 			_Al.deallocate(_Ptr, _My_data._Myres + 1);

  0012a	48 ff c0	 inc	 rax
; File c:\users\alist_000\cppmisc\packages\visualcpptools.14.0.24629\lib\native\include\xmemory0

; 816  : 		_Deallocate(_Ptr, _Count, sizeof (_Ty));

  0012d	48 8b 0b	 mov	 rcx, QWORD PTR [rbx]

; 98   : 	if (_BIG_ALLOCATION_THRESHOLD <= _User_size)

  00130	48 3d 00 10 00
	00		 cmp	 rax, 4096		; 00001000H
  00136	72 38		 jb	 SHORT $LN194@Makestr

; 99   : 		{	// deallocate large block
; 100  : 		const uintptr_t _Ptr_user = reinterpret_cast<uintptr_t>(_Ptr);
; 101  : 		_SCL_SECURE_ALWAYS_VALIDATE(

  00138	f6 c1 1f	 test	 cl, 31
  0013b	74 06		 je	 SHORT $LN195@Makestr
  0013d	e8 00 00 00 00	 call	 _invalid_parameter_noinfo_noreturn
  00142	cc		 int	 3
$LN195@Makestr:

