; Listing generated by Microsoft (R) Optimizing Compiler Version 19.10.24629.0 

include listing.inc


PUBLIC	??_C@_0BC@EOODALEL@Unknown?5exception?$AA@	; `string'
PUBLIC	??_C@_02LMMGGCAJ@?3?5?$AA@			; `string'
PUBLIC	??_C@_07DCLBNMLN@generic?$AA@			; `string'
PUBLIC	??_C@_08LLGCOLLL@iostream?$AA@			; `string'
PUBLIC	??_C@_0BG@PADBLCHM@iostream?5stream?5error?$AA@	; `string'
PUBLIC	??_C@_0BF@PHHKMMFD@ios_base?3?3badbit?5set?$AA@	; `string'
PUBLIC	??_C@_0BG@FMKFHCIL@ios_base?3?3failbit?5set?$AA@ ; `string'
PUBLIC	??_C@_0BF@OOHOMBOF@ios_base?3?3eofbit?5set?$AA@	; `string'
PUBLIC	??_C@_0BD@OLBABOEK@vector?$DMT?$DO?5too?5long?$AA@ ; `string'
PUBLIC	??_C@_0BA@JFNIOLAK@string?5too?5long?$AA@	; `string'
PUBLIC	??_C@_0BI@CFPLBAOH@invalid?5string?5position?$AA@ ; `string'
PUBLIC	??_R0?AVfailure@ios_base@std@@@8		; std::ios_base::failure `RTTI Type Descriptor'
PUBLIC	??_R0?AVruntime_error@std@@@8			; std::runtime_error `RTTI Type Descriptor'
PUBLIC	??_R4exception@std@@6B@				; std::exception::`RTTI Complete Object Locator'
PUBLIC	??_R2system_error@std@@8			; std::system_error::`RTTI Base Class Array'
PUBLIC	??_R1A@?0A@EA@system_error@std@@8		; std::system_error::`RTTI Base Class Descriptor at (0,-1,0,64)'
PUBLIC	??_R1A@?0A@EA@_Iostream_error_category@std@@8	; std::_Iostream_error_category::`RTTI Base Class Descriptor at (0,-1,0,64)'
PUBLIC	_CT??_R0?AVexception@std@@@824
PUBLIC	??_7error_category@std@@6B@			; std::error_category::`vftable'
PUBLIC	??_R4runtime_error@std@@6B@			; std::runtime_error::`RTTI Complete Object Locator'
PUBLIC	??_R4_System_error@std@@6B@			; std::_System_error::`RTTI Complete Object Locator'
PUBLIC	??_R4_Generic_error_category@std@@6B@		; std::_Generic_error_category::`RTTI Complete Object Locator'
PUBLIC	??_7_Generic_error_category@std@@6B@		; std::_Generic_error_category::`vftable'
PUBLIC	_CT??_R0?AVfailure@ios_base@std@@@840
PUBLIC	??_7_Iostream_error_category@std@@6B@		; std::_Iostream_error_category::`vftable'
PUBLIC	??_R0?AVerror_category@std@@@8			; std::error_category `RTTI Type Descriptor'
PUBLIC	??_R1A@?0A@EA@runtime_error@std@@8		; std::runtime_error::`RTTI Base Class Descriptor at (0,-1,0,64)'
PUBLIC	??_R2_System_error@std@@8			; std::_System_error::`RTTI Base Class Array'
PUBLIC	??_R0?AVsystem_error@std@@@8			; std::system_error `RTTI Type Descriptor'
PUBLIC	??_R1A@?0A@EA@exception@std@@8			; std::exception::`RTTI Base Class Descriptor at (0,-1,0,64)'
PUBLIC	??_R4_Iostream_error_category@std@@6B@		; std::_Iostream_error_category::`RTTI Complete Object Locator'
PUBLIC	??_R1A@?0A@EA@_Pad@std@@8			; std::_Pad::`RTTI Base Class Descriptor at (0,-1,0,64)'
PUBLIC	??_R4system_error@std@@6B@			; std::system_error::`RTTI Complete Object Locator'
PUBLIC	??_R1A@?0A@EA@_Generic_error_category@std@@8	; std::_Generic_error_category::`RTTI Base Class Descriptor at (0,-1,0,64)'
PUBLIC	??_R3_System_error@std@@8			; std::_System_error::`RTTI Class Hierarchy Descriptor'
PUBLIC	??_R0?AV_Generic_error_category@std@@@8		; std::_Generic_error_category `RTTI Type Descriptor'
PUBLIC	??_R3_Iostream_error_category@std@@8		; std::_Iostream_error_category::`RTTI Class Hierarchy Descriptor'
PUBLIC	??_R2exception@std@@8				; std::exception::`RTTI Base Class Array'
PUBLIC	??_R4failure@ios_base@std@@6B@			; std::ios_base::failure::`RTTI Complete Object Locator'
PUBLIC	??_7_Pad@std@@6B@				; std::_Pad::`vftable'
PUBLIC	??_R3_Generic_error_category@std@@8		; std::_Generic_error_category::`RTTI Class Hierarchy Descriptor'
PUBLIC	??_R2_Iostream_error_category@std@@8		; std::_Iostream_error_category::`RTTI Base Class Array'
PUBLIC	_CT??_R0?AVruntime_error@std@@@824
PUBLIC	??_R2error_category@std@@8			; std::error_category::`RTTI Base Class Array'
PUBLIC	??_R0?AV_Iostream_error_category@std@@@8	; std::_Iostream_error_category `RTTI Type Descriptor'
PUBLIC	??_R2failure@ios_base@std@@8			; std::ios_base::failure::`RTTI Base Class Array'
PUBLIC	??_R4error_category@std@@6B@			; std::error_category::`RTTI Complete Object Locator'
PUBLIC	??_R3failure@ios_base@std@@8			; std::ios_base::failure::`RTTI Class Hierarchy Descriptor'
PUBLIC	??_7exception@std@@6B@				; std::exception::`vftable'
PUBLIC	_CTA5?AVfailure@ios_base@std@@
PUBLIC	??_R3exception@std@@8				; std::exception::`RTTI Class Hierarchy Descriptor'
PUBLIC	??_7runtime_error@std@@6B@			; std::runtime_error::`vftable'
PUBLIC	??_7_System_error@std@@6B@			; std::_System_error::`vftable'
PUBLIC	??_R1A@?0A@EA@failure@ios_base@std@@8		; std::ios_base::failure::`RTTI Base Class Descriptor at (0,-1,0,64)'
PUBLIC	?npos@?$basic_string@DU?$char_traits@D@std@@V?$allocator@D@2@@std@@2_KB ; std::basic_string<char,std::char_traits<char>,std::allocator<char> >::npos
PUBLIC	??_R2_Generic_error_category@std@@8		; std::_Generic_error_category::`RTTI Base Class Array'
PUBLIC	??_R1A@?0A@EA@_System_error@std@@8		; std::_System_error::`RTTI Base Class Descriptor at (0,-1,0,64)'
PUBLIC	??_R3error_category@std@@8			; std::error_category::`RTTI Class Hierarchy Descriptor'
PUBLIC	??_R0?AV_Pad@std@@@8				; std::_Pad `RTTI Type Descriptor'
PUBLIC	??_R4_Pad@std@@6B@				; std::_Pad::`RTTI Complete Object Locator'
PUBLIC	??_R3_Pad@std@@8				; std::_Pad::`RTTI Class Hierarchy Descriptor'
PUBLIC	??_R2runtime_error@std@@8			; std::runtime_error::`RTTI Base Class Array'
PUBLIC	_CT??_R0?AV_System_error@std@@@840
PUBLIC	_CT??_R0?AVsystem_error@std@@@840
PUBLIC	??_R0?AV_System_error@std@@@8			; std::_System_error `RTTI Type Descriptor'
PUBLIC	_TI5?AVfailure@ios_base@std@@
PUBLIC	??_R2_Pad@std@@8				; std::_Pad::`RTTI Base Class Array'
PUBLIC	??_R3system_error@std@@8			; std::system_error::`RTTI Class Hierarchy Descriptor'
PUBLIC	??_R0?AVexception@std@@@8			; std::exception `RTTI Type Descriptor'
PUBLIC	??_7system_error@std@@6B@			; std::system_error::`vftable'
PUBLIC	??_R3runtime_error@std@@8			; std::runtime_error::`RTTI Class Hierarchy Descriptor'
PUBLIC	??_7failure@ios_base@std@@6B@			; std::ios_base::failure::`vftable'
PUBLIC	??_R1A@?0A@EA@error_category@std@@8		; std::error_category::`RTTI Base Class Descriptor at (0,-1,0,64)'
EXTRN	_invalid_parameter_noinfo_noreturn:PROC
EXTRN	_Mtx_unlock:PROC
EXTRN	_Thrd_join:PROC
EXTRN	_Cnd_init:PROC
EXTRN	_Mtx_destroy:PROC
EXTRN	_Xtime_get_ticks:PROC
EXTRN	??_7type_info@@6B@:BYTE				; type_info::`vftable'
EXTRN	__std_terminate:PROC
EXTRN	_Thrd_id:PROC
EXTRN	_Thrd_start:PROC
EXTRN	_Init_thread_abort:PROC
EXTRN	_Mtx_init:PROC
EXTRN	_Cnd_wait:PROC
EXTRN	_Thrd_sleep:PROC
EXTRN	_Cnd_destroy:PROC
EXTRN	_Cnd_do_broadcast_at_thread_exit:PROC
EXTRN	_Init_thread_header:PROC
EXTRN	_Mtx_lock:PROC
EXTRN	terminate:PROC
EXTRN	_purecall:PROC
EXTRN	??3@YAXPEAX_K@Z:PROC				; operator delete
EXTRN	??3@YAXPEAX@Z:PROC				; operator delete
EXTRN	atexit:PROC
EXTRN	__std_exception_copy:PROC
EXTRN	_Init_thread_footer:PROC
EXTRN	?_Syserror_map@std@@YAPEBDH@Z:PROC		; std::_Syserror_map
EXTRN	?_Xlength_error@std@@YAXPEBD@Z:PROC		; std::_Xlength_error
EXTRN	?_Throw_C_error@std@@YAXH@Z:PROC		; std::_Throw_C_error
EXTRN	?_Xout_of_range@std@@YAXPEBD@Z:PROC		; std::_Xout_of_range
EXTRN	?_Xbad_alloc@std@@YAXXZ:PROC			; std::_Xbad_alloc
EXTRN	?uncaught_exception@std@@YA_NXZ:PROC		; std::uncaught_exception
EXTRN	?cout@std@@3V?$basic_ostream@DU?$char_traits@D@std@@@1@A:BYTE ; std::cout
EXTRN	?_Throw_Cpp_error@std@@YAXH@Z:PROC		; std::_Throw_Cpp_error
EXTRN	??2@YAPEAX_K@Z:PROC				; operator new
EXTRN	_Init_thread_epoch:DWORD
EXTRN	memmove:PROC
EXTRN	_Cnd_signal:PROC
EXTRN	__std_exception_destroy:PROC
EXTRN	__security_check_cookie:PROC
EXTRN	__CxxFrameHandler3:PROC
;	COMDAT ??_R1A@?0A@EA@error_category@std@@8
rdata$r	SEGMENT
??_R1A@?0A@EA@error_category@std@@8 DD imagerel ??_R0?AVerror_category@std@@@8 ; std::error_category::`RTTI Base Class Descriptor at (0,-1,0,64)'
	DD	00H
	DD	00H
	DD	0ffffffffH
	DD	00H
	DD	040H
	DD	imagerel ??_R3error_category@std@@8
rdata$r	ENDS
;	COMDAT ??_7failure@ios_base@std@@6B@
CONST	SEGMENT
??_7failure@ios_base@std@@6B@ DQ FLAT:??_R4failure@ios_base@std@@6B@ ; std::ios_base::failure::`vftable'
	DQ	FLAT:??_Efailure@ios_base@std@@UEAAPEAXI@Z
	DQ	FLAT:?what@exception@std@@UEBAPEBDXZ
CONST	ENDS
;	COMDAT ??_R3runtime_error@std@@8
rdata$r	SEGMENT
??_R3runtime_error@std@@8 DD 00H			; std::runtime_error::`RTTI Class Hierarchy Descriptor'
	DD	00H
	DD	02H
	DD	imagerel ??_R2runtime_error@std@@8
rdata$r	ENDS
;	COMDAT ??_7system_error@std@@6B@
CONST	SEGMENT
??_7system_error@std@@6B@ DQ FLAT:??_R4system_error@std@@6B@ ; std::system_error::`vftable'
	DQ	FLAT:??_Esystem_error@std@@UEAAPEAXI@Z
	DQ	FLAT:?what@exception@std@@UEBAPEBDXZ
CONST	ENDS
;	COMDAT ??_R0?AVexception@std@@@8
data$r	SEGMENT
??_R0?AVexception@std@@@8 DQ FLAT:??_7type_info@@6B@	; std::exception `RTTI Type Descriptor'
	DQ	0000000000000000H
	DB	'.?AVexception@std@@', 00H
data$r	ENDS
;	COMDAT ??_R3system_error@std@@8
rdata$r	SEGMENT
??_R3system_error@std@@8 DD 00H				; std::system_error::`RTTI Class Hierarchy Descriptor'
	DD	00H
	DD	04H
	DD	imagerel ??_R2system_error@std@@8
rdata$r	ENDS
;	COMDAT ??_R2_Pad@std@@8
rdata$r	SEGMENT
??_R2_Pad@std@@8 DD imagerel ??_R1A@?0A@EA@_Pad@std@@8	; std::_Pad::`RTTI Base Class Array'
	ORG $+3
rdata$r	ENDS
;	COMDAT _TI5?AVfailure@ios_base@std@@
xdata$x	SEGMENT
_TI5?AVfailure@ios_base@std@@ DD 00H
	DD	imagerel ??1failure@ios_base@std@@UEAA@XZ
	DD	00H
	DD	imagerel _CTA5?AVfailure@ios_base@std@@
xdata$x	ENDS
;	COMDAT ??_R0?AV_System_error@std@@@8
data$r	SEGMENT
??_R0?AV_System_error@std@@@8 DQ FLAT:??_7type_info@@6B@ ; std::_System_error `RTTI Type Descriptor'
	DQ	0000000000000000H
	DB	'.?AV_System_error@std@@', 00H
data$r	ENDS
;	COMDAT _CT??_R0?AVsystem_error@std@@@840
xdata$x	SEGMENT
_CT??_R0?AVsystem_error@std@@@840 DD 00H
	DD	imagerel ??_R0?AVsystem_error@std@@@8
	DD	00H
	DD	0ffffffffH
	ORG $+4
	DD	028H
	DD	imagerel ??0system_error@std@@QEAA@AEBV01@@Z
xdata$x	ENDS
;	COMDAT _CT??_R0?AV_System_error@std@@@840
xdata$x	SEGMENT
_CT??_R0?AV_System_error@std@@@840 DD 00H
	DD	imagerel ??_R0?AV_System_error@std@@@8
	DD	00H
	DD	0ffffffffH
	ORG $+4
	DD	028H
	DD	imagerel ??0_System_error@std@@QEAA@AEBV01@@Z
xdata$x	ENDS
;	COMDAT ??_R2runtime_error@std@@8
rdata$r	SEGMENT
??_R2runtime_error@std@@8 DD imagerel ??_R1A@?0A@EA@runtime_error@std@@8 ; std::runtime_error::`RTTI Base Class Array'
	DD	imagerel ??_R1A@?0A@EA@exception@std@@8
	ORG $+3
rdata$r	ENDS
;	COMDAT ??_R3_Pad@std@@8
rdata$r	SEGMENT
??_R3_Pad@std@@8 DD 00H					; std::_Pad::`RTTI Class Hierarchy Descriptor'
	DD	00H
	DD	01H
	DD	imagerel ??_R2_Pad@std@@8
rdata$r	ENDS
;	COMDAT ??_R4_Pad@std@@6B@
rdata$r	SEGMENT
??_R4_Pad@std@@6B@ DD 01H				; std::_Pad::`RTTI Complete Object Locator'
	DD	00H
	DD	00H
	DD	imagerel ??_R0?AV_Pad@std@@@8
	DD	imagerel ??_R3_Pad@std@@8
	DD	imagerel ??_R4_Pad@std@@6B@
rdata$r	ENDS
;	COMDAT ??_R2?$_LaunchPad@V?$unique_ptr@V?$tuple@V<lambda_e77d7e1e559843f44c4e0b6d970cdb28>@@@std@@U?$default_delete@V?$tuple@V<lambda_e77d7e1e559843f44c4e0b6d970cdb28>@@@std@@@2@@std@@@std@@8
rdata$r	SEGMENT
??_R2?$_LaunchPad@V?$unique_ptr@V?$tuple@V<lambda_e77d7e1e559843f44c4e0b6d970cdb28>@@@std@@U?$default_delete@V?$tuple@V<lambda_e77d7e1e559843f44c4e0b6d970cdb28>@@@std@@@2@@std@@@std@@8 DD imagerel ??_R1A@?0A@EA@?$_LaunchPad@V?$unique_ptr@V?$tuple@V<lambda_e77d7e1e559843f44c4e0b6d970cdb28>@@@std@@U?$default_delete@V?$tuple@V<lambda_e77d7e1e559843f44c4e0b6d970cdb28>@@@std@@@2@@std@@@std@@8 ; std::_LaunchPad<std::unique_ptr<std::tuple<<lambda_e77d7e1e559843f44c4e0b6d970cdb28> >,std::default_delete<std::tuple<<lambda_e77d7e1e559843f44c4e0b6d970cdb28> > > > >::`RTTI Base Class Array'
	DD	imagerel ??_R1A@?0A@EA@_Pad@std@@8
	ORG $+3
rdata$r	ENDS
;	COMDAT ??_R0?AV_Pad@std@@@8
data$r	SEGMENT
??_R0?AV_Pad@std@@@8 DQ FLAT:??_7type_info@@6B@		; std::_Pad `RTTI Type Descriptor'
	DQ	0000000000000000H
	DB	'.?AV_Pad@std@@', 00H
data$r	ENDS
;	COMDAT ??_R3error_category@std@@8
rdata$r	SEGMENT
??_R3error_category@std@@8 DD 00H			; std::error_category::`RTTI Class Hierarchy Descriptor'
	DD	00H
	DD	01H
	DD	imagerel ??_R2error_category@std@@8
rdata$r	ENDS
;	COMDAT ??_R1A@?0A@EA@_System_error@std@@8
rdata$r	SEGMENT
??_R1A@?0A@EA@_System_error@std@@8 DD imagerel ??_R0?AV_System_error@std@@@8 ; std::_System_error::`RTTI Base Class Descriptor at (0,-1,0,64)'
	DD	02H
	DD	00H
	DD	0ffffffffH
	DD	00H
	DD	040H
	DD	imagerel ??_R3_System_error@std@@8
rdata$r	ENDS
;	COMDAT ??_R2_Generic_error_category@std@@8
rdata$r	SEGMENT
??_R2_Generic_error_category@std@@8 DD imagerel ??_R1A@?0A@EA@_Generic_error_category@std@@8 ; std::_Generic_error_category::`RTTI Base Class Array'
	DD	imagerel ??_R1A@?0A@EA@error_category@std@@8
	ORG $+3
rdata$r	ENDS
;	COMDAT ?npos@?$basic_string@DU?$char_traits@D@std@@V?$allocator@D@2@@std@@2_KB
CONST	SEGMENT
?npos@?$basic_string@DU?$char_traits@D@std@@V?$allocator@D@2@@std@@2_KB DQ ffffffffffffffffH ; std::basic_string<char,std::char_traits<char>,std::allocator<char> >::npos
CONST	ENDS
;	COMDAT ??_R1A@?0A@EA@?$_LaunchPad@V?$unique_ptr@V?$tuple@V<lambda_e77d7e1e559843f44c4e0b6d970cdb28>@@@std@@U?$default_delete@V?$tuple@V<lambda_e77d7e1e559843f44c4e0b6d970cdb28>@@@std@@@2@@std@@@std@@8
rdata$r	SEGMENT
??_R1A@?0A@EA@?$_LaunchPad@V?$unique_ptr@V?$tuple@V<lambda_e77d7e1e559843f44c4e0b6d970cdb28>@@@std@@U?$default_delete@V?$tuple@V<lambda_e77d7e1e559843f44c4e0b6d970cdb28>@@@std@@@2@@std@@@std@@8 DD imagerel ??_R0?AV?$_LaunchPad@V?$unique_ptr@V?$tuple@V<lambda_e77d7e1e559843f44c4e0b6d970cdb28>@@@std@@U?$default_delete@V?$tuple@V<lambda_e77d7e1e559843f44c4e0b6d970cdb28>@@@std@@@2@@std@@@std@@@8 ; std::_LaunchPad<std::unique_ptr<std::tuple<<lambda_e77d7e1e559843f44c4e0b6d970cdb28> >,std::default_delete<std::tuple<<lambda_e77d7e1e559843f44c4e0b6d970cdb28> > > > >::`RTTI Base Class Descriptor at (0,-1,0,64)'
	DD	01H
	DD	00H
	DD	0ffffffffH
	DD	00H
	DD	040H
	DD	imagerel ??_R3?$_LaunchPad@V?$unique_ptr@V?$tuple@V<lambda_e77d7e1e559843f44c4e0b6d970cdb28>@@@std@@U?$default_delete@V?$tuple@V<lambda_e77d7e1e559843f44c4e0b6d970cdb28>@@@std@@@2@@std@@@std@@8
rdata$r	ENDS
;	COMDAT ??_R1A@?0A@EA@failure@ios_base@std@@8
rdata$r	SEGMENT
??_R1A@?0A@EA@failure@ios_base@std@@8 DD imagerel ??_R0?AVfailure@ios_base@std@@@8 ; std::ios_base::failure::`RTTI Base Class Descriptor at (0,-1,0,64)'
	DD	04H
	DD	00H
	DD	0ffffffffH
	DD	00H
	DD	040H
	DD	imagerel ??_R3failure@ios_base@std@@8
rdata$r	ENDS
;	COMDAT ??_7_System_error@std@@6B@
CONST	SEGMENT
??_7_System_error@std@@6B@ DQ FLAT:??_R4_System_error@std@@6B@ ; std::_System_error::`vftable'
	DQ	FLAT:??_E_System_error@std@@UEAAPEAXI@Z
	DQ	FLAT:?what@exception@std@@UEBAPEBDXZ
CONST	ENDS
;	COMDAT ??_7runtime_error@std@@6B@
CONST	SEGMENT
??_7runtime_error@std@@6B@ DQ FLAT:??_R4runtime_error@std@@6B@ ; std::runtime_error::`vftable'
	DQ	FLAT:??_Eruntime_error@std@@UEAAPEAXI@Z
	DQ	FLAT:?what@exception@std@@UEBAPEBDXZ
CONST	ENDS
;	COMDAT ??_R3exception@std@@8
rdata$r	SEGMENT
??_R3exception@std@@8 DD 00H				; std::exception::`RTTI Class Hierarchy Descriptor'
	DD	00H
	DD	01H
	DD	imagerel ??_R2exception@std@@8
rdata$r	ENDS
;	COMDAT _CTA5?AVfailure@ios_base@std@@
xdata$x	SEGMENT
_CTA5?AVfailure@ios_base@std@@ DD 05H
	DD	imagerel _CT??_R0?AVfailure@ios_base@std@@@840
	DD	imagerel _CT??_R0?AVsystem_error@std@@@840
	DD	imagerel _CT??_R0?AV_System_error@std@@@840
	DD	imagerel _CT??_R0?AVruntime_error@std@@@824
	DD	imagerel _CT??_R0?AVexception@std@@@824
xdata$x	ENDS
;	COMDAT ??_7exception@std@@6B@
CONST	SEGMENT
??_7exception@std@@6B@ DQ FLAT:??_R4exception@std@@6B@	; std::exception::`vftable'
	DQ	FLAT:??_Eexception@std@@UEAAPEAXI@Z
	DQ	FLAT:?what@exception@std@@UEBAPEBDXZ
CONST	ENDS
;	COMDAT ??_R3failure@ios_base@std@@8
rdata$r	SEGMENT
??_R3failure@ios_base@std@@8 DD 00H			; std::ios_base::failure::`RTTI Class Hierarchy Descriptor'
	DD	00H
	DD	05H
	DD	imagerel ??_R2failure@ios_base@std@@8
rdata$r	ENDS
;	COMDAT ??_R4error_category@std@@6B@
rdata$r	SEGMENT
??_R4error_category@std@@6B@ DD 01H			; std::error_category::`RTTI Complete Object Locator'
	DD	00H
	DD	00H
	DD	imagerel ??_R0?AVerror_category@std@@@8
	DD	imagerel ??_R3error_category@std@@8
	DD	imagerel ??_R4error_category@std@@6B@
rdata$r	ENDS
;	COMDAT ??_R2failure@ios_base@std@@8
rdata$r	SEGMENT
??_R2failure@ios_base@std@@8 DD imagerel ??_R1A@?0A@EA@failure@ios_base@std@@8 ; std::ios_base::failure::`RTTI Base Class Array'
	DD	imagerel ??_R1A@?0A@EA@system_error@std@@8
	DD	imagerel ??_R1A@?0A@EA@_System_error@std@@8
	DD	imagerel ??_R1A@?0A@EA@runtime_error@std@@8
	DD	imagerel ??_R1A@?0A@EA@exception@std@@8
	ORG $+3
rdata$r	ENDS
;	COMDAT ??_R0?AV_Iostream_error_category@std@@@8
data$r	SEGMENT
??_R0?AV_Iostream_error_category@std@@@8 DQ FLAT:??_7type_info@@6B@ ; std::_Iostream_error_category `RTTI Type Descriptor'
	DQ	0000000000000000H
	DB	'.?AV_Iostream_error_category@std@@', 00H
data$r	ENDS
;	COMDAT ??_R2error_category@std@@8
rdata$r	SEGMENT
??_R2error_category@std@@8 DD imagerel ??_R1A@?0A@EA@error_category@std@@8 ; std::error_category::`RTTI Base Class Array'
	ORG $+3
rdata$r	ENDS
;	COMDAT _CT??_R0?AVruntime_error@std@@@824
xdata$x	SEGMENT
_CT??_R0?AVruntime_error@std@@@824 DD 00H
	DD	imagerel ??_R0?AVruntime_error@std@@@8
	DD	00H
	DD	0ffffffffH
	ORG $+4
	DD	018H
	DD	imagerel ??0runtime_error@std@@QEAA@AEBV01@@Z
xdata$x	ENDS
;	COMDAT ??_R2_Iostream_error_category@std@@8
rdata$r	SEGMENT
??_R2_Iostream_error_category@std@@8 DD imagerel ??_R1A@?0A@EA@_Iostream_error_category@std@@8 ; std::_Iostream_error_category::`RTTI Base Class Array'
	DD	imagerel ??_R1A@?0A@EA@_Generic_error_category@std@@8
	DD	imagerel ??_R1A@?0A@EA@error_category@std@@8
	ORG $+3
rdata$r	ENDS
;	COMDAT ??_R3_Generic_error_category@std@@8
rdata$r	SEGMENT
??_R3_Generic_error_category@std@@8 DD 00H		; std::_Generic_error_category::`RTTI Class Hierarchy Descriptor'
	DD	00H
	DD	02H
	DD	imagerel ??_R2_Generic_error_category@std@@8
rdata$r	ENDS
;	COMDAT ??_7_Pad@std@@6B@
CONST	SEGMENT
??_7_Pad@std@@6B@ DQ FLAT:??_R4_Pad@std@@6B@		; std::_Pad::`vftable'
	DQ	FLAT:_purecall
CONST	ENDS
;	COMDAT ??_R4failure@ios_base@std@@6B@
rdata$r	SEGMENT
??_R4failure@ios_base@std@@6B@ DD 01H			; std::ios_base::failure::`RTTI Complete Object Locator'
	DD	00H
	DD	00H
	DD	imagerel ??_R0?AVfailure@ios_base@std@@@8
	DD	imagerel ??_R3failure@ios_base@std@@8
	DD	imagerel ??_R4failure@ios_base@std@@6B@
rdata$r	ENDS
;	COMDAT ??_R2exception@std@@8
rdata$r	SEGMENT
??_R2exception@std@@8 DD imagerel ??_R1A@?0A@EA@exception@std@@8 ; std::exception::`RTTI Base Class Array'
	ORG $+3
rdata$r	ENDS
;	COMDAT ??_R3_Iostream_error_category@std@@8
rdata$r	SEGMENT
??_R3_Iostream_error_category@std@@8 DD 00H		; std::_Iostream_error_category::`RTTI Class Hierarchy Descriptor'
	DD	00H
	DD	03H
	DD	imagerel ??_R2_Iostream_error_category@std@@8
rdata$r	ENDS
;	COMDAT ??_R0?AV?$_LaunchPad@V?$unique_ptr@V?$tuple@V<lambda_e77d7e1e559843f44c4e0b6d970cdb28>@@@std@@U?$default_delete@V?$tuple@V<lambda_e77d7e1e559843f44c4e0b6d970cdb28>@@@std@@@2@@std@@@std@@@8
data$r	SEGMENT
??_R0?AV?$_LaunchPad@V?$unique_ptr@V?$tuple@V<lambda_e77d7e1e559843f44c4e0b6d970cdb28>@@@std@@U?$default_delete@V?$tuple@V<lambda_e77d7e1e559843f44c4e0b6d970cdb28>@@@std@@@2@@std@@@std@@@8 DQ FLAT:??_7type_info@@6B@ ; std::_LaunchPad<std::unique_ptr<std::tuple<<lambda_e77d7e1e559843f44c4e0b6d970cdb28> >,std::default_delete<std::tuple<<lambda_e77d7e1e559843f44c4e0b6d970cdb28> > > > > `RTTI Type Descriptor'
	DQ	0000000000000000H
	DB	'.?AV?$_LaunchPad@V?$unique_ptr@V?$tuple@V<lambda_e77d7e1'
	DB	'e559843f44c4e0b6d970cdb28>@@@std@@U?$default_delete@V?$tuple@'
	DB	'V<lambda_e77d7e1e559843f44c4e0b6d970cdb28>@@@std@@@2@@std@@@s'
	DB	'td@@', 00H
data$r	ENDS
;	COMDAT ??_R0?AV_Generic_error_category@std@@@8
data$r	SEGMENT
??_R0?AV_Generic_error_category@std@@@8 DQ FLAT:??_7type_info@@6B@ ; std::_Generic_error_category `RTTI Type Descriptor'
	DQ	0000000000000000H
	DB	'.?AV_Generic_error_category@std@@', 00H
data$r	ENDS
;	COMDAT ??_R3_System_error@std@@8
rdata$r	SEGMENT
??_R3_System_error@std@@8 DD 00H			; std::_System_error::`RTTI Class Hierarchy Descriptor'
	DD	00H
	DD	03H
	DD	imagerel ??_R2_System_error@std@@8
rdata$r	ENDS
;	COMDAT ??_R1A@?0A@EA@_Generic_error_category@std@@8
rdata$r	SEGMENT
??_R1A@?0A@EA@_Generic_error_category@std@@8 DD imagerel ??_R0?AV_Generic_error_category@std@@@8 ; std::_Generic_error_category::`RTTI Base Class Descriptor at (0,-1,0,64)'
	DD	01H
	DD	00H
	DD	0ffffffffH
	DD	00H
	DD	040H
	DD	imagerel ??_R3_Generic_error_category@std@@8
rdata$r	ENDS
;	COMDAT ??_R4system_error@std@@6B@
rdata$r	SEGMENT
??_R4system_error@std@@6B@ DD 01H			; std::system_error::`RTTI Complete Object Locator'
	DD	00H
	DD	00H
	DD	imagerel ??_R0?AVsystem_error@std@@@8
	DD	imagerel ??_R3system_error@std@@8
	DD	imagerel ??_R4system_error@std@@6B@
rdata$r	ENDS
;	COMDAT ??_7?$_LaunchPad@V?$unique_ptr@V?$tuple@V<lambda_e77d7e1e559843f44c4e0b6d970cdb28>@@@std@@U?$default_delete@V?$tuple@V<lambda_e77d7e1e559843f44c4e0b6d970cdb28>@@@std@@@2@@std@@@std@@6B@
CONST	SEGMENT
??_7?$_LaunchPad@V?$unique_ptr@V?$tuple@V<lambda_e77d7e1e559843f44c4e0b6d970cdb28>@@@std@@U?$default_delete@V?$tuple@V<lambda_e77d7e1e559843f44c4e0b6d970cdb28>@@@std@@@2@@std@@@std@@6B@ DQ FLAT:??_R4?$_LaunchPad@V?$unique_ptr@V?$tuple@V<lambda_e77d7e1e559843f44c4e0b6d970cdb28>@@@std@@U?$default_delete@V?$tuple@V<lambda_e77d7e1e559843f44c4e0b6d970cdb28>@@@std@@@2@@std@@@std@@6B@ ; std::_LaunchPad<std::unique_ptr<std::tuple<<lambda_e77d7e1e559843f44c4e0b6d970cdb28> >,std::default_delete<std::tuple<<lambda_e77d7e1e559843f44c4e0b6d970cdb28> > > > >::`vftable'
	DQ	FLAT:?_Go@?$_LaunchPad@V?$unique_ptr@V?$tuple@V<lambda_e77d7e1e559843f44c4e0b6d970cdb28>@@@std@@U?$default_delete@V?$tuple@V<lambda_e77d7e1e559843f44c4e0b6d970cdb28>@@@std@@@2@@std@@@std@@UEAAXXZ
CONST	ENDS
;	COMDAT ??_R1A@?0A@EA@_Pad@std@@8
rdata$r	SEGMENT
??_R1A@?0A@EA@_Pad@std@@8 DD imagerel ??_R0?AV_Pad@std@@@8 ; std::_Pad::`RTTI Base Class Descriptor at (0,-1,0,64)'
	DD	00H
	DD	00H
	DD	0ffffffffH
	DD	00H
	DD	040H
	DD	imagerel ??_R3_Pad@std@@8
rdata$r	ENDS
;	COMDAT ??_R4_Iostream_error_category@std@@6B@
rdata$r	SEGMENT
??_R4_Iostream_error_category@std@@6B@ DD 01H		; std::_Iostream_error_category::`RTTI Complete Object Locator'
	DD	00H
	DD	00H
	DD	imagerel ??_R0?AV_Iostream_error_category@std@@@8
	DD	imagerel ??_R3_Iostream_error_category@std@@8
	DD	imagerel ??_R4_Iostream_error_category@std@@6B@
rdata$r	ENDS
;	COMDAT ??_R1A@?0A@EA@exception@std@@8
rdata$r	SEGMENT
??_R1A@?0A@EA@exception@std@@8 DD imagerel ??_R0?AVexception@std@@@8 ; std::exception::`RTTI Base Class Descriptor at (0,-1,0,64)'
	DD	00H
	DD	00H
	DD	0ffffffffH
	DD	00H
	DD	040H
	DD	imagerel ??_R3exception@std@@8
rdata$r	ENDS
;	COMDAT ??_R3?$_LaunchPad@V?$unique_ptr@V?$tuple@V<lambda_e77d7e1e559843f44c4e0b6d970cdb28>@@@std@@U?$default_delete@V?$tuple@V<lambda_e77d7e1e559843f44c4e0b6d970cdb28>@@@std@@@2@@std@@@std@@8
rdata$r	SEGMENT
??_R3?$_LaunchPad@V?$unique_ptr@V?$tuple@V<lambda_e77d7e1e559843f44c4e0b6d970cdb28>@@@std@@U?$default_delete@V?$tuple@V<lambda_e77d7e1e559843f44c4e0b6d970cdb28>@@@std@@@2@@std@@@std@@8 DD 00H ; std::_LaunchPad<std::unique_ptr<std::tuple<<lambda_e77d7e1e559843f44c4e0b6d970cdb28> >,std::default_delete<std::tuple<<lambda_e77d7e1e559843f44c4e0b6d970cdb28> > > > >::`RTTI Class Hierarchy Descriptor'
	DD	00H
	DD	02H
	DD	imagerel ??_R2?$_LaunchPad@V?$unique_ptr@V?$tuple@V<lambda_e77d7e1e559843f44c4e0b6d970cdb28>@@@std@@U?$default_delete@V?$tuple@V<lambda_e77d7e1e559843f44c4e0b6d970cdb28>@@@std@@@2@@std@@@std@@8
rdata$r	ENDS
;	COMDAT ??_R0?AVsystem_error@std@@@8
data$r	SEGMENT
??_R0?AVsystem_error@std@@@8 DQ FLAT:??_7type_info@@6B@	; std::system_error `RTTI Type Descriptor'
	DQ	0000000000000000H
	DB	'.?AVsystem_error@std@@', 00H
data$r	ENDS
;	COMDAT ??_R2_System_error@std@@8
rdata$r	SEGMENT
??_R2_System_error@std@@8 DD imagerel ??_R1A@?0A@EA@_System_error@std@@8 ; std::_System_error::`RTTI Base Class Array'
	DD	imagerel ??_R1A@?0A@EA@runtime_error@std@@8
	DD	imagerel ??_R1A@?0A@EA@exception@std@@8
	ORG $+3
rdata$r	ENDS
;	COMDAT ??_R1A@?0A@EA@runtime_error@std@@8
rdata$r	SEGMENT
??_R1A@?0A@EA@runtime_error@std@@8 DD imagerel ??_R0?AVruntime_error@std@@@8 ; std::runtime_error::`RTTI Base Class Descriptor at (0,-1,0,64)'
	DD	01H
	DD	00H
	DD	0ffffffffH
	DD	00H
	DD	040H
	DD	imagerel ??_R3runtime_error@std@@8
rdata$r	ENDS
;	COMDAT ??_R0?AVerror_category@std@@@8
data$r	SEGMENT
??_R0?AVerror_category@std@@@8 DQ FLAT:??_7type_info@@6B@ ; std::error_category `RTTI Type Descriptor'
	DQ	0000000000000000H
	DB	'.?AVerror_category@std@@', 00H
data$r	ENDS
;	COMDAT ??_7_Iostream_error_category@std@@6B@
CONST	SEGMENT
??_7_Iostream_error_category@std@@6B@ DQ FLAT:??_R4_Iostream_error_category@std@@6B@ ; std::_Iostream_error_category::`vftable'
	DQ	FLAT:??_E_Iostream_error_category@std@@UEAAPEAXI@Z
	DQ	FLAT:?name@_Iostream_error_category@std@@UEBAPEBDXZ
	DQ	FLAT:?message@_Iostream_error_category@std@@UEBA?AV?$basic_string@DU?$char_traits@D@std@@V?$allocator@D@2@@2@H@Z
	DQ	FLAT:?default_error_condition@error_category@std@@UEBA?AVerror_condition@2@H@Z
	DQ	FLAT:?equivalent@error_category@std@@UEBA_NAEBVerror_code@2@H@Z
	DQ	FLAT:?equivalent@error_category@std@@UEBA_NHAEBVerror_condition@2@@Z
CONST	ENDS
;	COMDAT _CT??_R0?AVfailure@ios_base@std@@@840
xdata$x	SEGMENT
_CT??_R0?AVfailure@ios_base@std@@@840 DD 00H
	DD	imagerel ??_R0?AVfailure@ios_base@std@@@8
	DD	00H
	DD	0ffffffffH
	ORG $+4
	DD	028H
	DD	imagerel ??0failure@ios_base@std@@QEAA@AEBV012@@Z
xdata$x	ENDS
;	COMDAT ??_7_Generic_error_category@std@@6B@
CONST	SEGMENT
??_7_Generic_error_category@std@@6B@ DQ FLAT:??_R4_Generic_error_category@std@@6B@ ; std::_Generic_error_category::`vftable'
	DQ	FLAT:??_E_Generic_error_category@std@@UEAAPEAXI@Z
	DQ	FLAT:?name@_Generic_error_category@std@@UEBAPEBDXZ
	DQ	FLAT:?message@_Generic_error_category@std@@UEBA?AV?$basic_string@DU?$char_traits@D@std@@V?$allocator@D@2@@2@H@Z
	DQ	FLAT:?default_error_condition@error_category@std@@UEBA?AVerror_condition@2@H@Z
	DQ	FLAT:?equivalent@error_category@std@@UEBA_NAEBVerror_code@2@H@Z
	DQ	FLAT:?equivalent@error_category@std@@UEBA_NHAEBVerror_condition@2@@Z
CONST	ENDS
;	COMDAT ??_R4_Generic_error_category@std@@6B@
rdata$r	SEGMENT
??_R4_Generic_error_category@std@@6B@ DD 01H		; std::_Generic_error_category::`RTTI Complete Object Locator'
	DD	00H
	DD	00H
	DD	imagerel ??_R0?AV_Generic_error_category@std@@@8
	DD	imagerel ??_R3_Generic_error_category@std@@8
	DD	imagerel ??_R4_Generic_error_category@std@@6B@
rdata$r	ENDS
;	COMDAT ??_R4_System_error@std@@6B@
rdata$r	SEGMENT
??_R4_System_error@std@@6B@ DD 01H			; std::_System_error::`RTTI Complete Object Locator'
	DD	00H
	DD	00H
	DD	imagerel ??_R0?AV_System_error@std@@@8
	DD	imagerel ??_R3_System_error@std@@8
	DD	imagerel ??_R4_System_error@std@@6B@
rdata$r	ENDS
;	COMDAT ??_R4runtime_error@std@@6B@
rdata$r	SEGMENT
??_R4runtime_error@std@@6B@ DD 01H			; std::runtime_error::`RTTI Complete Object Locator'
	DD	00H
	DD	00H
	DD	imagerel ??_R0?AVruntime_error@std@@@8
	DD	imagerel ??_R3runtime_error@std@@8
	DD	imagerel ??_R4runtime_error@std@@6B@
rdata$r	ENDS
;	COMDAT ??_7error_category@std@@6B@
CONST	SEGMENT
??_7error_category@std@@6B@ DQ FLAT:??_R4error_category@std@@6B@ ; std::error_category::`vftable'
	DQ	FLAT:??_Eerror_category@std@@UEAAPEAXI@Z
	DQ	FLAT:_purecall
	DQ	FLAT:_purecall
	DQ	FLAT:?default_error_condition@error_category@std@@UEBA?AVerror_condition@2@H@Z
	DQ	FLAT:?equivalent@error_category@std@@UEBA_NAEBVerror_code@2@H@Z
	DQ	FLAT:?equivalent@error_category@std@@UEBA_NHAEBVerror_condition@2@@Z
CONST	ENDS
;	COMDAT _CT??_R0?AVexception@std@@@824
xdata$x	SEGMENT
_CT??_R0?AVexception@std@@@824 DD 00H
	DD	imagerel ??_R0?AVexception@std@@@8
	DD	00H
	DD	0ffffffffH
	ORG $+4
	DD	018H
	DD	imagerel ??0exception@std@@QEAA@AEBV01@@Z
xdata$x	ENDS
;	COMDAT ??_R1A@?0A@EA@_Iostream_error_category@std@@8
rdata$r	SEGMENT
??_R1A@?0A@EA@_Iostream_error_category@std@@8 DD imagerel ??_R0?AV_Iostream_error_category@std@@@8 ; std::_Iostream_error_category::`RTTI Base Class Descriptor at (0,-1,0,64)'
	DD	02H
	DD	00H
	DD	0ffffffffH
	DD	00H
	DD	040H
	DD	imagerel ??_R3_Iostream_error_category@std@@8
rdata$r	ENDS
;	COMDAT ??_R1A@?0A@EA@system_error@std@@8
rdata$r	SEGMENT
??_R1A@?0A@EA@system_error@std@@8 DD imagerel ??_R0?AVsystem_error@std@@@8 ; std::system_error::`RTTI Base Class Descriptor at (0,-1,0,64)'
	DD	03H
	DD	00H
	DD	0ffffffffH
	DD	00H
	DD	040H
	DD	imagerel ??_R3system_error@std@@8
rdata$r	ENDS
;	COMDAT ??_R2system_error@std@@8
rdata$r	SEGMENT
??_R2system_error@std@@8 DD imagerel ??_R1A@?0A@EA@system_error@std@@8 ; std::system_error::`RTTI Base Class Array'
	DD	imagerel ??_R1A@?0A@EA@_System_error@std@@8
	DD	imagerel ??_R1A@?0A@EA@runtime_error@std@@8
	DD	imagerel ??_R1A@?0A@EA@exception@std@@8
	ORG $+3
rdata$r	ENDS
;	COMDAT ??_R4?$_LaunchPad@V?$unique_ptr@V?$tuple@V<lambda_e77d7e1e559843f44c4e0b6d970cdb28>@@@std@@U?$default_delete@V?$tuple@V<lambda_e77d7e1e559843f44c4e0b6d970cdb28>@@@std@@@2@@std@@@std@@6B@
rdata$r	SEGMENT
??_R4?$_LaunchPad@V?$unique_ptr@V?$tuple@V<lambda_e77d7e1e559843f44c4e0b6d970cdb28>@@@std@@U?$default_delete@V?$tuple@V<lambda_e77d7e1e559843f44c4e0b6d970cdb28>@@@std@@@2@@std@@@std@@6B@ DD 01H ; std::_LaunchPad<std::unique_ptr<std::tuple<<lambda_e77d7e1e559843f44c4e0b6d970cdb28> >,std::default_delete<std::tuple<<lambda_e77d7e1e559843f44c4e0b6d970cdb28> > > > >::`RTTI Complete Object Locator'
	DD	00H
	DD	00H
	DD	imagerel ??_R0?AV?$_LaunchPad@V?$unique_ptr@V?$tuple@V<lambda_e77d7e1e559843f44c4e0b6d970cdb28>@@@std@@U?$default_delete@V?$tuple@V<lambda_e77d7e1e559843f44c4e0b6d970cdb28>@@@std@@@2@@std@@@std@@@8
	DD	imagerel ??_R3?$_LaunchPad@V?$unique_ptr@V?$tuple@V<lambda_e77d7e1e559843f44c4e0b6d970cdb28>@@@std@@U?$default_delete@V?$tuple@V<lambda_e77d7e1e559843f44c4e0b6d970cdb28>@@@std@@@2@@std@@@std@@8
	DD	imagerel ??_R4?$_LaunchPad@V?$unique_ptr@V?$tuple@V<lambda_e77d7e1e559843f44c4e0b6d970cdb28>@@@std@@U?$default_delete@V?$tuple@V<lambda_e77d7e1e559843f44c4e0b6d970cdb28>@@@std@@@2@@std@@@std@@6B@
rdata$r	ENDS
;	COMDAT ??_R4exception@std@@6B@
rdata$r	SEGMENT
??_R4exception@std@@6B@ DD 01H				; std::exception::`RTTI Complete Object Locator'
	DD	00H
	DD	00H
	DD	imagerel ??_R0?AVexception@std@@@8
	DD	imagerel ??_R3exception@std@@8
	DD	imagerel ??_R4exception@std@@6B@
rdata$r	ENDS
;	COMDAT ??_R0?AVruntime_error@std@@@8
data$r	SEGMENT
??_R0?AVruntime_error@std@@@8 DQ FLAT:??_7type_info@@6B@ ; std::runtime_error `RTTI Type Descriptor'
	DQ	0000000000000000H
	DB	'.?AVruntime_error@std@@', 00H
data$r	ENDS
;	COMDAT ??_R0?AVfailure@ios_base@std@@@8
data$r	SEGMENT
??_R0?AVfailure@ios_base@std@@@8 DQ FLAT:??_7type_info@@6B@ ; std::ios_base::failure `RTTI Type Descriptor'
	DQ	0000000000000000H
	DB	'.?AVfailure@ios_base@std@@', 00H
data$r	ENDS
;	COMDAT ??_C@_0BI@CFPLBAOH@invalid?5string?5position?$AA@
CONST	SEGMENT
??_C@_0BI@CFPLBAOH@invalid?5string?5position?$AA@ DB 'invalid string posi'
	DB	'tion', 00H					; `string'
CONST	ENDS
;	COMDAT ??_C@_0BA@JFNIOLAK@string?5too?5long?$AA@
CONST	SEGMENT
??_C@_0BA@JFNIOLAK@string?5too?5long?$AA@ DB 'string too long', 00H ; `string'
CONST	ENDS
;	COMDAT ??_C@_0BD@OLBABOEK@vector?$DMT?$DO?5too?5long?$AA@
CONST	SEGMENT
??_C@_0BD@OLBABOEK@vector?$DMT?$DO?5too?5long?$AA@ DB 'vector<T> too long'
	DB	00H						; `string'
$SG4294967235 DB 'creating', 0aH, 00H
	ORG $+6
$SG4294967234 DB 'joining', 0aH, 00H
CONST	ENDS
;	COMDAT ??_C@_0BF@OOHOMBOF@ios_base?3?3eofbit?5set?$AA@
CONST	SEGMENT
??_C@_0BF@OOHOMBOF@ios_base?3?3eofbit?5set?$AA@ DB 'ios_base::eofbit set', 00H ; `string'
CONST	ENDS
;	COMDAT ??_C@_0BG@FMKFHCIL@ios_base?3?3failbit?5set?$AA@
CONST	SEGMENT
??_C@_0BG@FMKFHCIL@ios_base?3?3failbit?5set?$AA@ DB 'ios_base::failbit se'
	DB	't', 00H					; `string'
CONST	ENDS
;	COMDAT ??_C@_0BF@PHHKMMFD@ios_base?3?3badbit?5set?$AA@
CONST	SEGMENT
??_C@_0BF@PHHKMMFD@ios_base?3?3badbit?5set?$AA@ DB 'ios_base::badbit set', 00H ; `string'
CONST	ENDS
;	COMDAT ??_C@_0BG@PADBLCHM@iostream?5stream?5error?$AA@
CONST	SEGMENT
??_C@_0BG@PADBLCHM@iostream?5stream?5error?$AA@ DB 'iostream stream error'
	DB	00H						; `string'
CONST	ENDS
;	COMDAT ??_C@_08LLGCOLLL@iostream?$AA@
CONST	SEGMENT
??_C@_08LLGCOLLL@iostream?$AA@ DB 'iostream', 00H	; `string'
CONST	ENDS
;	COMDAT ??_C@_07DCLBNMLN@generic?$AA@
CONST	SEGMENT
??_C@_07DCLBNMLN@generic?$AA@ DB 'generic', 00H		; `string'
CONST	ENDS
;	COMDAT ??_C@_02LMMGGCAJ@?3?5?$AA@
CONST	SEGMENT
??_C@_02LMMGGCAJ@?3?5?$AA@ DB ': ', 00H			; `string'
CONST	ENDS
;	COMDAT ??_C@_0BC@EOODALEL@Unknown?5exception?$AA@
CONST	SEGMENT
??_C@_0BC@EOODALEL@Unknown?5exception?$AA@ DB 'Unknown exception', 00H ; `string'
CONST	ENDS
PUBLIC	??$?0U_Exact_args_t@std@@$0A@@?$tuple@$$V@std@@QEAA@U_Exact_args_t@1@@Z ; std::tuple<>::tuple<><std::_Exact_args_t,0>
PUBLIC	??$construct@Vthread@std@@V12@@?$allocator@Vthread@std@@@std@@QEAAXPEAVthread@1@$$QEAV21@@Z ; std::allocator<std::thread>::construct<std::thread,std::thread>
PUBLIC	??$construct@Vthread@std@@V12@@?$allocator_traits@V?$allocator@Vthread@std@@@std@@@std@@SAXAEAV?$allocator@Vthread@std@@@1@PEAVthread@1@$$QEAV31@@Z ; std::allocator_traits<std::allocator<std::thread> >::construct<std::thread,std::thread>
PUBLIC	??$forward@Vthread@std@@@std@@YA$$QEAVthread@0@AEAV10@@Z ; std::forward<std::thread>
PUBLIC	??_Gthread@std@@QEAAPEAXI@Z			; std::thread::`scalar deleting destructor'
PUBLIC	??$construct@Vthread@std@@V12@@?$_Wrap_alloc@V?$allocator@Vthread@std@@@std@@@std@@QEAAXPEAVthread@1@$$QEAV21@@Z ; std::_Wrap_alloc<std::allocator<std::thread> >::construct<std::thread,std::thread>
PUBLIC	??$destroy@Vthread@std@@@?$allocator@Vthread@std@@@std@@QEAAXPEAVthread@1@@Z ; std::allocator<std::thread>::destroy<std::thread>
PUBLIC	??$duration_cast@V?$duration@_JU?$ratio@$00$0DLJKMKAA@@std@@@chrono@std@@_JU?$ratio@$00$00@3@@chrono@std@@YA?AV?$duration@_JU?$ratio@$00$0DLJKMKAA@@std@@@01@AEBV?$duration@_JU?$ratio@$00$00@std@@@01@@Z ; std::chrono::duration_cast<std::chrono::duration<__int64,std::ratio<1,1000000000> >,__int64,std::ratio<1,1> >
PUBLIC	??$duration_cast@V?$duration@_JU?$ratio@$00$0DLJKMKAA@@std@@@chrono@std@@_JU?$ratio@$00$0JIJGIA@@3@@chrono@std@@YA?AV?$duration@_JU?$ratio@$00$0DLJKMKAA@@std@@@01@AEBV?$duration@_JU?$ratio@$00$0JIJGIA@@std@@@01@@Z ; std::chrono::duration_cast<std::chrono::duration<__int64,std::ratio<1,1000000000> >,__int64,std::ratio<1,10000000> >
PUBLIC	??$?MHU?$ratio@$0OBA@$00@std@@HU01@@chrono@std@@YA_NAEBV?$duration@HU?$ratio@$0OBA@$00@std@@@01@0@Z ; std::chrono::operator<<int,std::ratio<3600,1>,int,std::ratio<3600,1> >
PUBLIC	??$move@AEAVthread@std@@@std@@YA$$QEAVthread@0@AEAV10@@Z ; std::move<std::thread & __ptr64>
PUBLIC	?count@?$duration@HU?$ratio@$0OBA@$00@std@@@chrono@std@@QEBAHXZ ; std::chrono::duration<int,std::ratio<3600,1> >::count
PUBLIC	??$?0U?$integral_constant@_N$00@std@@@_Any_tag@std@@QEAA@$$QEAU?$integral_constant@_N$00@1@@Z ; std::_Any_tag::_Any_tag<std::integral_constant<bool,1> >
PUBLIC	??$_Uninitialized_move_al_unchecked1@PEAVthread@std@@PEAV12@V?$allocator@Vthread@std@@@2@@std@@YAPEAVthread@0@PEAV10@00AEAU?$_Wrap_alloc@V?$allocator@Vthread@std@@@std@@@0@U_General_ptr_iterator_tag@0@U_Any_tag@0@@Z ; std::_Uninitialized_move_al_unchecked1<std::thread * __ptr64,std::thread * __ptr64,std::allocator<std::thread> >
PUBLIC	??$_Ptr_move_cat@Vthread@std@@V12@@std@@YA?AU_General_ptr_iterator_tag@0@AEBQEAVthread@0@0@Z ; std::_Ptr_move_cat<std::thread,std::thread>
PUBLIC	??$construct@PEADAEAPEAD@?$allocator@D@std@@QEAAXPEAPEADAEAPEAD@Z ; std::allocator<char>::construct<char * __ptr64,char * __ptr64 & __ptr64>
PUBLIC	??$destroy@PEAD@?$allocator@D@std@@QEAAXPEAPEAD@Z ; std::allocator<char>::destroy<char * __ptr64>
PUBLIC	??$destroy@Vthread@std@@@?$allocator_traits@V?$allocator@Vthread@std@@@std@@@std@@SAXAEAV?$allocator@Vthread@std@@@1@PEAVthread@1@@Z ; std::allocator_traits<std::allocator<std::thread> >::destroy<std::thread>
PUBLIC	??$?0_JU?$ratio@$00$00@std@@X@?$duration@_JU?$ratio@$00$0DLJKMKAA@@std@@@chrono@std@@QEAA@AEBV?$duration@_JU?$ratio@$00$00@std@@@12@@Z ; std::chrono::duration<__int64,std::ratio<1,1000000000> >::duration<__int64,std::ratio<1,1000000000> ><__int64,std::ratio<1,1>,void>
PUBLIC	??$?0_JX@?$duration@_JU?$ratio@$00$00@std@@@chrono@std@@QEAA@AEB_J@Z ; std::chrono::duration<__int64,std::ratio<1,1> >::duration<__int64,std::ratio<1,1> ><__int64,void>
PUBLIC	??$duration_cast@V?$duration@_JU?$ratio@$00$00@std@@@chrono@std@@_JU?$ratio@$00$0DLJKMKAA@@3@@chrono@std@@YA?AV?$duration@_JU?$ratio@$00$00@std@@@01@AEBV?$duration@_JU?$ratio@$00$0DLJKMKAA@@std@@@01@@Z ; std::chrono::duration_cast<std::chrono::duration<__int64,std::ratio<1,1> >,__int64,std::ratio<1,1000000000> >
PUBLIC	??$duration_cast@V?$duration@_JU?$ratio@$00$0DLJKMKAA@@std@@@chrono@std@@HU?$ratio@$0OBA@$00@3@@chrono@std@@YA?AV?$duration@_JU?$ratio@$00$0DLJKMKAA@@std@@@01@AEBV?$duration@HU?$ratio@$0OBA@$00@std@@@01@@Z ; std::chrono::duration_cast<std::chrono::duration<__int64,std::ratio<1,1000000000> >,int,std::ratio<3600,1> >
PUBLIC	??$?0_JU?$ratio@$00$0JIJGIA@@std@@X@?$duration@_JU?$ratio@$00$0DLJKMKAA@@std@@@chrono@std@@QEAA@AEBV?$duration@_JU?$ratio@$00$0JIJGIA@@std@@@12@@Z ; std::chrono::duration<__int64,std::ratio<1,1000000000> >::duration<__int64,std::ratio<1,1000000000> ><__int64,std::ratio<1,10000000>,void>
PUBLIC	??$?NHU?$ratio@$0OBA@$00@std@@HU01@@chrono@std@@YA_NAEBV?$duration@HU?$ratio@$0OBA@$00@std@@@01@0@Z ; std::chrono::operator<=<int,std::ratio<3600,1>,int,std::ratio<3600,1> >
PUBLIC	?zero@?$duration_values@H@chrono@std@@SAHXZ	; std::chrono::duration_values<int>::zero
PUBLIC	?count@?$duration@_JU?$ratio@$00$0DLJKMKAA@@std@@@chrono@std@@QEBA_JXZ ; std::chrono::duration<__int64,std::ratio<1,1000000000> >::count
PUBLIC	??Y?$duration@_JU?$ratio@$00$0DLJKMKAA@@std@@@chrono@std@@QEAAAEAV012@AEBV012@@Z ; std::chrono::duration<__int64,std::ratio<1,1000000000> >::operator+=
PUBLIC	??Z?$duration@_JU?$ratio@$00$0DLJKMKAA@@std@@@chrono@std@@QEAAAEAV012@AEBV012@@Z ; std::chrono::duration<__int64,std::ratio<1,1000000000> >::operator-=
PUBLIC	?count@?$duration@_JU?$ratio@$00$00@std@@@chrono@std@@QEBA_JXZ ; std::chrono::duration<__int64,std::ratio<1,1> >::count
PUBLIC	?zero@?$duration@HU?$ratio@$0OBA@$00@std@@@chrono@std@@SA?AV123@XZ ; std::chrono::duration<int,std::ratio<3600,1> >::zero
PUBLIC	??0?$_Wrap_alloc@V?$allocator@D@std@@@std@@QEAA@$$QEAU01@@Z ; std::_Wrap_alloc<std::allocator<char> >::_Wrap_alloc<std::allocator<char> >
PUBLIC	?_Orphan_range@?$vector@Vthread@std@@V?$allocator@Vthread@std@@@2@@std@@AEBAXPEAVthread@2@0@Z ; std::vector<std::thread,std::allocator<std::thread> >::_Orphan_range
PUBLIC	??$_Rechecked@PEAVthread@std@@PEAV12@@std@@YAAEAPEAVthread@0@AEAPEAV10@PEAV10@@Z ; std::_Rechecked<std::thread * __ptr64,std::thread * __ptr64>
PUBLIC	??$_Uninitialized_move_al_unchecked@PEAVthread@std@@PEAV12@V?$allocator@Vthread@std@@@2@@std@@YAPEAVthread@0@PEAV10@00AEAU?$_Wrap_alloc@V?$allocator@Vthread@std@@@std@@@0@@Z ; std::_Uninitialized_move_al_unchecked<std::thread * __ptr64,std::thread * __ptr64,std::allocator<std::thread> >
PUBLIC	??$_Unchecked@PEAVthread@std@@@std@@YAPEAVthread@0@PEAV10@@Z ; std::_Unchecked<std::thread * __ptr64>
PUBLIC	??$_Destroy_range1@V?$allocator@Vthread@std@@@std@@PEAVthread@2@@std@@YAXPEAVthread@0@0AEAU?$_Wrap_alloc@V?$allocator@Vthread@std@@@std@@@0@U?$integral_constant@_N$0A@@0@@Z ; std::_Destroy_range1<std::allocator<std::thread>,std::thread * __ptr64>
PUBLIC	??$construct@PEADAEAPEAD@?$allocator_traits@V?$allocator@D@std@@@std@@SAXAEAV?$allocator@D@1@PEAPEADAEAPEAD@Z ; std::allocator_traits<std::allocator<char> >::construct<char * __ptr64,char * __ptr64 & __ptr64>
PUBLIC	??$forward@AEAPEAD@std@@YAAEAPEADAEAPEAD@Z	; std::forward<char * __ptr64 & __ptr64>
PUBLIC	??$destroy@PEAD@?$allocator_traits@V?$allocator@D@std@@@std@@SAXAEAV?$allocator@D@1@PEAPEAD@Z ; std::allocator_traits<std::allocator<char> >::destroy<char * __ptr64>
PUBLIC	??$forward@V?$allocator@D@std@@@std@@YA$$QEAV?$allocator@D@0@AEAV10@@Z ; std::forward<std::allocator<char> >
PUBLIC	??$?0U?$_Wrap_alloc@V?$allocator@D@std@@@std@@$$V@?$_Compressed_pair@U?$_Wrap_alloc@V?$allocator@D@std@@@std@@V?$_String_val@U?$_Simple_types@D@std@@@2@$00@std@@QEAA@U_One_then_variadic_args_t@1@$$QEAU?$_Wrap_alloc@V?$allocator@D@std@@@1@@Z ; std::_Compressed_pair<std::_Wrap_alloc<std::allocator<char> >,std::_String_val<std::_Simple_types<char> >,1>::_Compressed_pair<std::_Wrap_alloc<std::allocator<char> >,std::_String_val<std::_Simple_types<char> >,1><std::_Wrap_alloc<std::allocator<char> > >
PUBLIC	??$forward@U?$_Wrap_alloc@V?$allocator@D@std@@@std@@@std@@YA$$QEAU?$_Wrap_alloc@V?$allocator@D@std@@@0@AEAU10@@Z ; std::forward<std::_Wrap_alloc<std::allocator<char> > >
PUBLIC	??$destroy@Vthread@std@@@?$_Wrap_alloc@V?$allocator@Vthread@std@@@std@@@std@@QEAAXPEAVthread@1@@Z ; std::_Wrap_alloc<std::allocator<std::thread> >::destroy<std::thread>
PUBLIC	??$_Unfancy@Vthread@std@@@std@@YAPEAVthread@0@PEAV10@@Z ; std::_Unfancy<std::thread>
PUBLIC	??$_To_xtime@HU?$ratio@$0OBA@$00@std@@@std@@YA?AUxtime@@AEBV?$duration@HU?$ratio@$0OBA@$00@std@@@chrono@0@@Z ; std::_To_xtime<int,std::ratio<3600,1> >
PUBLIC	?pubsync@?$basic_streambuf@DU?$char_traits@D@std@@@std@@QEAAHXZ ; std::basic_streambuf<char,std::char_traits<char> >::pubsync
PUBLIC	?clear@?$basic_ios@DU?$char_traits@D@std@@@std@@QEAAXH_N@Z ; std::basic_ios<char,std::char_traits<char> >::clear
PUBLIC	?tie@?$basic_ios@DU?$char_traits@D@std@@@std@@QEBAPEAV?$basic_ostream@DU?$char_traits@D@std@@@2@XZ ; std::basic_ios<char,std::char_traits<char> >::tie
PUBLIC	?_Pninc@?$basic_streambuf@DU?$char_traits@D@std@@@std@@IEAAPEADXZ ; std::basic_streambuf<char,std::char_traits<char> >::_Pninc
PUBLIC	?_Pnavail@?$basic_streambuf@DU?$char_traits@D@std@@@std@@IEBA_JXZ ; std::basic_streambuf<char,std::char_traits<char> >::_Pnavail
PUBLIC	?_Osfx@?$basic_ostream@DU?$char_traits@D@std@@@std@@QEAAXXZ ; std::basic_ostream<char,std::char_traits<char> >::_Osfx
PUBLIC	?flush@?$basic_ostream@DU?$char_traits@D@std@@@std@@QEAAAEAV12@XZ ; std::basic_ostream<char,std::char_traits<char> >::flush
PUBLIC	??0?$allocator@D@std@@QEAA@XZ			; std::allocator<char>::allocator<char>
PUBLIC	??0_Bxty@?$_String_val@U?$_Simple_types@D@std@@@std@@QEAA@XZ ; std::_String_val<std::_Simple_types<char> >::_Bxty::_Bxty
PUBLIC	??0?$allocator@Vthread@std@@@std@@QEAA@XZ	; std::allocator<std::thread>::allocator<std::thread>
PUBLIC	??0_Sentry_base@?$basic_ostream@DU?$char_traits@D@std@@@std@@QEAA@AEAV12@@Z ; std::basic_ostream<char,std::char_traits<char> >::_Sentry_base::_Sentry_base
PUBLIC	??1_Sentry_base@?$basic_ostream@DU?$char_traits@D@std@@@std@@QEAA@XZ ; std::basic_ostream<char,std::char_traits<char> >::_Sentry_base::~_Sentry_base
PUBLIC	?setstate@?$basic_ios@DU?$char_traits@D@std@@@std@@QEAAXH_N@Z ; std::basic_ios<char,std::char_traits<char> >::setstate
PUBLIC	?rdbuf@?$basic_ios@DU?$char_traits@D@std@@@std@@QEBAPEAV?$basic_streambuf@DU?$char_traits@D@std@@@2@XZ ; std::basic_ios<char,std::char_traits<char> >::rdbuf
PUBLIC	?fill@?$basic_ios@DU?$char_traits@D@std@@@std@@QEBADXZ ; std::basic_ios<char,std::char_traits<char> >::fill
PUBLIC	?sputc@?$basic_streambuf@DU?$char_traits@D@std@@@std@@QEAAHD@Z ; std::basic_streambuf<char,std::char_traits<char> >::sputc
PUBLIC	?sputn@?$basic_streambuf@DU?$char_traits@D@std@@@std@@QEAA_JPEBD_J@Z ; std::basic_streambuf<char,std::char_traits<char> >::sputn
PUBLIC	??0?$_Wrap_alloc@V?$allocator@D@std@@@std@@QEAA@XZ ; std::_Wrap_alloc<std::allocator<char> >::_Wrap_alloc<std::allocator<char> >
PUBLIC	??0?$_String_val@U?$_Simple_types@D@std@@@std@@QEAA@XZ ; std::_String_val<std::_Simple_types<char> >::_String_val<std::_Simple_types<char> >
PUBLIC	?_Has_unused_capacity@?$vector@Vthread@std@@V?$allocator@Vthread@std@@@2@@std@@AEBA_NXZ ; std::vector<std::thread,std::allocator<std::thread> >::_Has_unused_capacity
PUBLIC	?_Calculate_growth@?$vector@Vthread@std@@V?$allocator@Vthread@std@@@2@@std@@AEBA_K_K@Z ; std::vector<std::thread,std::allocator<std::thread> >::_Calculate_growth
PUBLIC	??0?$_Wrap_alloc@V?$allocator@Vthread@std@@@std@@@std@@QEAA@XZ ; std::_Wrap_alloc<std::allocator<std::thread> >::_Wrap_alloc<std::allocator<std::thread> >
PUBLIC	??0?$_Vector_val@U?$_Simple_types@Vthread@std@@@std@@@std@@QEAA@XZ ; std::_Vector_val<std::_Simple_types<std::thread> >::_Vector_val<std::_Simple_types<std::thread> >
PUBLIC	??0sentry@?$basic_ostream@DU?$char_traits@D@std@@@std@@QEAA@AEAV12@@Z ; std::basic_ostream<char,std::char_traits<char> >::sentry::sentry
PUBLIC	??1sentry@?$basic_ostream@DU?$char_traits@D@std@@@std@@QEAA@XZ ; std::basic_ostream<char,std::char_traits<char> >::sentry::~sentry
PUBLIC	??Bsentry@?$basic_ostream@DU?$char_traits@D@std@@@std@@QEBA_NXZ ; std::basic_ostream<char,std::char_traits<char> >::sentry::operator bool
PUBLIC	??0?$_Immortalizer@V_Iostream_error_category@std@@@std@@QEAA@XZ ; std::_Immortalizer<std::_Iostream_error_category>::_Immortalizer<std::_Iostream_error_category>
PUBLIC	??1?$_Immortalizer@V_Iostream_error_category@std@@@std@@QEAA@XZ ; std::_Immortalizer<std::_Iostream_error_category>::~_Immortalizer<std::_Iostream_error_category>
PUBLIC	??__F_Static@?1???$_Immortalize@V_Iostream_error_category@std@@@std@@YAAEAV_Iostream_error_category@0@XZ@YAXXZ ; `std::_Immortalize<std::_Iostream_error_category>'::`2'::`dynamic atexit destructor for '_Static''
PUBLIC	??$_Uninitialized_move@PEAVthread@std@@PEAV12@V?$allocator@Vthread@std@@@2@@std@@YAPEAVthread@0@PEAV10@00AEAU?$_Wrap_alloc@V?$allocator@Vthread@std@@@std@@@0@@Z ; std::_Uninitialized_move<std::thread * __ptr64,std::thread * __ptr64,std::allocator<std::thread> >
PUBLIC	??$_Min_value@_K@std@@YAAEB_KAEB_K0@Z		; std::_Min_value<unsigned __int64>
PUBLIC	??$_Unfancy@D@std@@YAPEADPEAD@Z			; std::_Unfancy<char>
PUBLIC	??$_Destroy_range@V?$allocator@Vthread@std@@@std@@PEAVthread@2@@std@@YAXPEAVthread@0@0AEAU?$_Wrap_alloc@V?$allocator@Vthread@std@@@std@@@0@@Z ; std::_Destroy_range<std::allocator<std::thread>,std::thread * __ptr64>
PUBLIC	??$construct@PEADAEAPEAD@?$_Wrap_alloc@V?$allocator@D@std@@@std@@QEAAXPEAPEADAEAPEAD@Z ; std::_Wrap_alloc<std::allocator<char> >::construct<char * __ptr64,char * __ptr64 & __ptr64>
PUBLIC	??$destroy@PEAD@?$_Wrap_alloc@V?$allocator@D@std@@@std@@QEAAXPEAPEAD@Z ; std::_Wrap_alloc<std::allocator<char> >::destroy<char * __ptr64>
PUBLIC	??$addressof@PEAD@std@@YAPEAPEADAEAPEAD@Z	; std::addressof<char * __ptr64>
PUBLIC	??$?0$$V@?$_Compressed_pair@U?$_Wrap_alloc@V?$allocator@D@std@@@std@@V?$_String_val@U?$_Simple_types@D@std@@@2@$00@std@@QEAA@U_Zero_then_variadic_args_t@1@@Z ; std::_Compressed_pair<std::_Wrap_alloc<std::allocator<char> >,std::_String_val<std::_Simple_types<char> >,1>::_Compressed_pair<std::_Wrap_alloc<std::allocator<char> >,std::_String_val<std::_Simple_types<char> >,1><>
PUBLIC	??$?0V?$allocator@D@std@@@?$_Wrap_alloc@V?$allocator@D@std@@@std@@QEAA@$$QEAV?$allocator@D@1@@Z ; std::_Wrap_alloc<std::allocator<char> >::_Wrap_alloc<std::allocator<char> ><std::allocator<char> >
PUBLIC	??$?0$$V@?$_Compressed_pair@U?$_Wrap_alloc@V?$allocator@Vthread@std@@@std@@@std@@V?$_Vector_val@U?$_Simple_types@Vthread@std@@@std@@@2@$00@std@@QEAA@U_Zero_then_variadic_args_t@1@@Z ; std::_Compressed_pair<std::_Wrap_alloc<std::allocator<std::thread> >,std::_Vector_val<std::_Simple_types<std::thread> >,1>::_Compressed_pair<std::_Wrap_alloc<std::allocator<std::thread> >,std::_Vector_val<std::_Simple_types<std::thread> >,1><>
PUBLIC	??$move@AEAV?$basic_string@DU?$char_traits@D@std@@V?$allocator@D@2@@std@@@std@@YA$$QEAV?$basic_string@DU?$char_traits@D@std@@V?$allocator@D@2@@0@AEAV10@@Z ; std::move<std::basic_string<char,std::char_traits<char>,std::allocator<char> > & __ptr64>
PUBLIC	??$?0U?$_Wrap_alloc@V?$allocator@D@std@@@std@@X@?$_String_alloc@U?$_String_base_types@DV?$allocator@D@std@@@std@@@std@@QEAA@$$QEAU?$_Wrap_alloc@V?$allocator@D@std@@@1@@Z ; std::_String_alloc<std::_String_base_types<char,std::allocator<char> > >::_String_alloc<std::_String_base_types<char,std::allocator<char> > ><std::_Wrap_alloc<std::allocator<char> >,void>
PUBLIC	??$move@AEAU?$_Wrap_alloc@V?$allocator@D@std@@@std@@@std@@YA$$QEAU?$_Wrap_alloc@V?$allocator@D@std@@@0@AEAU10@@Z ; std::move<std::_Wrap_alloc<std::allocator<char> > & __ptr64>
PUBLIC	??$sleep_for@HU?$ratio@$0OBA@$00@std@@@this_thread@std@@YAXAEBV?$duration@HU?$ratio@$0OBA@$00@std@@@chrono@1@@Z ; std::this_thread::sleep_for<int,std::ratio<3600,1> >
PUBLIC	??$?0HX@?$duration@HU?$ratio@$0OBA@$00@std@@@chrono@std@@QEAA@AEBH@Z ; std::chrono::duration<int,std::ratio<3600,1> >::duration<int,std::ratio<3600,1> ><int,void>
PUBLIC	??$?6U?$char_traits@D@std@@@std@@YAAEAV?$basic_ostream@DU?$char_traits@D@std@@@0@AEAV10@PEBD@Z ; std::operator<<<std::char_traits<char> >
PUBLIC	??$_Immortalize@V_Iostream_error_category@std@@@std@@YAAEAV_Iostream_error_category@0@XZ ; std::_Immortalize<std::_Iostream_error_category>
PUBLIC	??$?0_JX@?$duration@_JU?$ratio@$00$0DLJKMKAA@@std@@@chrono@std@@QEAA@AEB_J@Z ; std::chrono::duration<__int64,std::ratio<1,1000000000> >::duration<__int64,std::ratio<1,1000000000> ><__int64,void>
PUBLIC	??$?0_JX@?$duration@_JU?$ratio@$00$0JIJGIA@@std@@@chrono@std@@QEAA@AEB_J@Z ; std::chrono::duration<__int64,std::ratio<1,10000000> >::duration<__int64,std::ratio<1,10000000> ><__int64,void>
PUBLIC	?max_size@?$allocator@D@std@@QEBA_KXZ		; std::allocator<char>::max_size
PUBLIC	?max_size@?$allocator_traits@V?$allocator@D@std@@@std@@SA_KAEBV?$allocator@D@2@@Z ; std::allocator_traits<std::allocator<char> >::max_size
PUBLIC	?allocate@?$allocator@D@std@@QEAAPEAD_K@Z	; std::allocator<char>::allocate
PUBLIC	?max_size@?$_Wrap_alloc@V?$allocator@D@std@@@std@@QEBA_KU_Nil@2@@Z ; std::_Wrap_alloc<std::allocator<char> >::max_size
PUBLIC	?max_size@?$basic_string@DU?$char_traits@D@std@@V?$allocator@D@2@@std@@QEBA_KXZ ; std::basic_string<char,std::char_traits<char>,std::allocator<char> >::max_size
PUBLIC	?allocate@?$_Wrap_alloc@V?$allocator@D@std@@@std@@QEAAPEAD_K@Z ; std::_Wrap_alloc<std::allocator<char> >::allocate
PUBLIC	?max_size@?$allocator@Vthread@std@@@std@@QEBA_KXZ ; std::allocator<std::thread>::max_size
PUBLIC	?_Get_second@?$_Compressed_pair@U?$_Wrap_alloc@V?$allocator@Vthread@std@@@std@@@std@@V?$_Vector_val@U?$_Simple_types@Vthread@std@@@std@@@2@$00@std@@QEBAAEBV?$_Vector_val@U?$_Simple_types@Vthread@std@@@std@@@2@XZ ; std::_Compressed_pair<std::_Wrap_alloc<std::allocator<std::thread> >,std::_Vector_val<std::_Simple_types<std::thread> >,1>::_Get_second
PUBLIC	??0?$allocator@D@std@@QEAA@AEBV01@@Z		; std::allocator<char>::allocator<char>
PUBLIC	?deallocate@?$allocator@D@std@@QEAAXPEAD_K@Z	; std::allocator<char>::deallocate
PUBLIC	?erase@?$basic_string@DU?$char_traits@D@std@@V?$allocator@D@2@@std@@QEAAAEAV12@_K@Z ; std::basic_string<char,std::char_traits<char>,std::allocator<char> >::erase
PUBLIC	?erase@?$basic_string@DU?$char_traits@D@std@@V?$allocator@D@2@@std@@QEAAAEAV12@_K0@Z ; std::basic_string<char,std::char_traits<char>,std::allocator<char> >::erase
PUBLIC	?_Copy@?$basic_string@DU?$char_traits@D@std@@V?$allocator@D@2@@std@@QEAAX_K@Z ; std::basic_string<char,std::char_traits<char>,std::allocator<char> >::_Copy
PUBLIC	?_Xran@?$basic_string@DU?$char_traits@D@std@@V?$allocator@D@2@@std@@SAXXZ ; std::basic_string<char,std::char_traits<char>,std::allocator<char> >::_Xran
PUBLIC	?_Orphan_all@?$_String_alloc@U?$_String_base_types@DV?$allocator@D@std@@@std@@@std@@QEAAXXZ ; std::_String_alloc<std::_String_base_types<char,std::allocator<char> > >::_Orphan_all
PUBLIC	?_Get_second@?$_Compressed_pair@U?$_Wrap_alloc@V?$allocator@D@std@@@std@@V?$_String_val@U?$_Simple_types@D@std@@@2@$00@std@@QEAAAEAV?$_String_val@U?$_Simple_types@D@std@@@2@XZ ; std::_Compressed_pair<std::_Wrap_alloc<std::allocator<char> >,std::_String_val<std::_Simple_types<char> >,1>::_Get_second
PUBLIC	?_Get_second@?$_Compressed_pair@U?$_Wrap_alloc@V?$allocator@D@std@@@std@@V?$_String_val@U?$_Simple_types@D@std@@@2@$00@std@@QEBAAEBV?$_String_val@U?$_Simple_types@D@std@@@2@XZ ; std::_Compressed_pair<std::_Wrap_alloc<std::allocator<char> >,std::_String_val<std::_Simple_types<char> >,1>::_Get_second
PUBLIC	?deallocate@?$allocator@Vthread@std@@@std@@QEAAXPEAVthread@2@_K@Z ; std::allocator<std::thread>::deallocate
PUBLIC	?allocate@?$allocator@Vthread@std@@@std@@QEAAPEAVthread@2@_K@Z ; std::allocator<std::thread>::allocate
PUBLIC	?_Umove_if_noexcept1@?$vector@Vthread@std@@V?$allocator@Vthread@std@@@2@@std@@AEAAXPEAVthread@2@00U?$integral_constant@_N$00@2@@Z ; std::vector<std::thread,std::allocator<std::thread> >::_Umove_if_noexcept1
PUBLIC	?_Get_data@?$_Vector_alloc@U?$_Vec_base_types@Vthread@std@@V?$allocator@Vthread@std@@@2@@std@@@std@@QEBAAEBV?$_Vector_val@U?$_Simple_types@Vthread@std@@@std@@@2@XZ ; std::_Vector_alloc<std::_Vec_base_types<std::thread,std::allocator<std::thread> > >::_Get_data
PUBLIC	?_Mylast@?$_Vector_alloc@U?$_Vec_base_types@Vthread@std@@V?$allocator@Vthread@std@@@2@@std@@@std@@QEBAAEBQEAVthread@2@XZ ; std::_Vector_alloc<std::_Vec_base_types<std::thread,std::allocator<std::thread> > >::_Mylast
PUBLIC	?max_size@?$allocator_traits@V?$allocator@Vthread@std@@@std@@@std@@SA_KAEBV?$allocator@Vthread@std@@@2@@Z ; std::allocator_traits<std::allocator<std::thread> >::max_size
PUBLIC	?_Get_first@?$_Compressed_pair@U?$_Wrap_alloc@V?$allocator@Vthread@std@@@std@@@std@@V?$_Vector_val@U?$_Simple_types@Vthread@std@@@std@@@2@$00@std@@QEAAAEAU?$_Wrap_alloc@V?$allocator@Vthread@std@@@std@@@2@XZ ; std::_Compressed_pair<std::_Wrap_alloc<std::allocator<std::thread> >,std::_Vector_val<std::_Simple_types<std::thread> >,1>::_Get_first
PUBLIC	?_Get_first@?$_Compressed_pair@U?$_Wrap_alloc@V?$allocator@Vthread@std@@@std@@@std@@V?$_Vector_val@U?$_Simple_types@Vthread@std@@@std@@@2@$00@std@@QEBAAEBU?$_Wrap_alloc@V?$allocator@Vthread@std@@@std@@@2@XZ ; std::_Compressed_pair<std::_Wrap_alloc<std::allocator<std::thread> >,std::_Vector_val<std::_Simple_types<std::thread> >,1>::_Get_first
PUBLIC	?assign@?$basic_string@DU?$char_traits@D@std@@V?$allocator@D@2@@std@@QEAAAEAV12@AEBV12@_K_K@Z ; std::basic_string<char,std::char_traits<char>,std::allocator<char> >::assign
PUBLIC	?assign@?$basic_string@DU?$char_traits@D@std@@V?$allocator@D@2@@std@@QEAAAEAV12@QEBD_K@Z ; std::basic_string<char,std::char_traits<char>,std::allocator<char> >::assign
PUBLIC	?_Clamp_suffix_size@?$basic_string@DU?$char_traits@D@std@@V?$allocator@D@2@@std@@QEBA_K_K0@Z ; std::basic_string<char,std::char_traits<char>,std::allocator<char> >::_Clamp_suffix_size
PUBLIC	?_Eos@?$basic_string@DU?$char_traits@D@std@@V?$allocator@D@2@@std@@QEAAX_K@Z ; std::basic_string<char,std::char_traits<char>,std::allocator<char> >::_Eos
PUBLIC	?_Grow@?$basic_string@DU?$char_traits@D@std@@V?$allocator@D@2@@std@@QEAA_N_K@Z ; std::basic_string<char,std::char_traits<char>,std::allocator<char> >::_Grow
PUBLIC	?_Inside@?$basic_string@DU?$char_traits@D@std@@V?$allocator@D@2@@std@@QEBA_NQEBD@Z ; std::basic_string<char,std::char_traits<char>,std::allocator<char> >::_Inside
PUBLIC	?_Xlen@?$basic_string@DU?$char_traits@D@std@@V?$allocator@D@2@@std@@SAXXZ ; std::basic_string<char,std::char_traits<char>,std::allocator<char> >::_Xlen
PUBLIC	?_Check_offset@?$basic_string@DU?$char_traits@D@std@@V?$allocator@D@2@@std@@QEBAX_K@Z ; std::basic_string<char,std::char_traits<char>,std::allocator<char> >::_Check_offset
PUBLIC	?_Get_data@?$_String_alloc@U?$_String_base_types@DV?$allocator@D@std@@@std@@@std@@QEAAAEAV?$_String_val@U?$_Simple_types@D@std@@@2@XZ ; std::_String_alloc<std::_String_base_types<char,std::allocator<char> > >::_Get_data
PUBLIC	?_Get_data@?$_String_alloc@U?$_String_base_types@DV?$allocator@D@std@@@std@@@std@@QEBAAEBV?$_String_val@U?$_Simple_types@D@std@@@2@XZ ; std::_String_alloc<std::_String_base_types<char,std::allocator<char> > >::_Get_data
PUBLIC	?_Mysize@?$_String_alloc@U?$_String_base_types@DV?$allocator@D@std@@@std@@@std@@QEAAAEA_KXZ ; std::_String_alloc<std::_String_base_types<char,std::allocator<char> > >::_Mysize
PUBLIC	?_Myres@?$_String_alloc@U?$_String_base_types@DV?$allocator@D@std@@@std@@@std@@QEAAAEA_KXZ ; std::_String_alloc<std::_String_base_types<char,std::allocator<char> > >::_Myres
PUBLIC	?deallocate@?$_Wrap_alloc@V?$allocator@D@std@@@std@@QEAAXPEAD_K@Z ; std::_Wrap_alloc<std::allocator<char> >::deallocate
PUBLIC	?select_on_container_copy_construction@?$allocator_traits@V?$allocator@D@std@@@std@@SA?AV?$allocator@D@2@AEBV32@@Z ; std::allocator_traits<std::allocator<char> >::select_on_container_copy_construction
PUBLIC	?_Myptr@?$_String_val@U?$_Simple_types@D@std@@@std@@QEAAPEADXZ ; std::_String_val<std::_Simple_types<char> >::_Myptr
PUBLIC	?_Myptr@?$_String_val@U?$_Simple_types@D@std@@@std@@QEBAPEBDXZ ; std::_String_val<std::_Simple_types<char> >::_Myptr
PUBLIC	?_Large_string_engaged@?$_String_val@U?$_Simple_types@D@std@@@std@@QEBA_NXZ ; std::_String_val<std::_Simple_types<char> >::_Large_string_engaged
PUBLIC	?_Get_first@?$_Compressed_pair@U?$_Wrap_alloc@V?$allocator@D@std@@@std@@V?$_String_val@U?$_Simple_types@D@std@@@2@$00@std@@QEAAAEAU?$_Wrap_alloc@V?$allocator@D@std@@@2@XZ ; std::_Compressed_pair<std::_Wrap_alloc<std::allocator<char> >,std::_String_val<std::_Simple_types<char> >,1>::_Get_first
PUBLIC	?_Get_first@?$_Compressed_pair@U?$_Wrap_alloc@V?$allocator@D@std@@@std@@V?$_String_val@U?$_Simple_types@D@std@@@2@$00@std@@QEBAAEBU?$_Wrap_alloc@V?$allocator@D@std@@@2@XZ ; std::_Compressed_pair<std::_Wrap_alloc<std::allocator<char> >,std::_String_val<std::_Simple_types<char> >,1>::_Get_first
PUBLIC	?size@?$vector@Vthread@std@@V?$allocator@Vthread@std@@@2@@std@@QEBA_KXZ ; std::vector<std::thread,std::allocator<std::thread> >::size
PUBLIC	?_Umove_if_noexcept@?$vector@Vthread@std@@V?$allocator@Vthread@std@@@2@@std@@AEAAXPEAVthread@2@00@Z ; std::vector<std::thread,std::allocator<std::thread> >::_Umove_if_noexcept
PUBLIC	?_Destroy@?$vector@Vthread@std@@V?$allocator@Vthread@std@@@2@@std@@AEAAXPEAVthread@2@0@Z ; std::vector<std::thread,std::allocator<std::thread> >::_Destroy
PUBLIC	?_Change_array@?$vector@Vthread@std@@V?$allocator@Vthread@std@@@2@@std@@AEAAXQEAVthread@2@_K1@Z ; std::vector<std::thread,std::allocator<std::thread> >::_Change_array
PUBLIC	?_Orphan_all@?$_Vector_alloc@U?$_Vec_base_types@Vthread@std@@V?$allocator@Vthread@std@@@2@@std@@@std@@QEAAXXZ ; std::_Vector_alloc<std::_Vec_base_types<std::thread,std::allocator<std::thread> > >::_Orphan_all
PUBLIC	?_Getal@?$_Vector_alloc@U?$_Vec_base_types@Vthread@std@@V?$allocator@Vthread@std@@@2@@std@@@std@@QEAAAEAU?$_Wrap_alloc@V?$allocator@Vthread@std@@@std@@@2@XZ ; std::_Vector_alloc<std::_Vec_base_types<std::thread,std::allocator<std::thread> > >::_Getal
PUBLIC	?_Getal@?$_Vector_alloc@U?$_Vec_base_types@Vthread@std@@V?$allocator@Vthread@std@@@2@@std@@@std@@QEBAAEBU?$_Wrap_alloc@V?$allocator@Vthread@std@@@std@@@2@XZ ; std::_Vector_alloc<std::_Vec_base_types<std::thread,std::allocator<std::thread> > >::_Getal
PUBLIC	?_Myfirst@?$_Vector_alloc@U?$_Vec_base_types@Vthread@std@@V?$allocator@Vthread@std@@@2@@std@@@std@@QEBAAEBQEAVthread@2@XZ ; std::_Vector_alloc<std::_Vec_base_types<std::thread,std::allocator<std::thread> > >::_Myfirst
PUBLIC	?_Myend@?$_Vector_alloc@U?$_Vec_base_types@Vthread@std@@V?$allocator@Vthread@std@@@2@@std@@@std@@QEAAAEAPEAVthread@2@XZ ; std::_Vector_alloc<std::_Vec_base_types<std::thread,std::allocator<std::thread> > >::_Myend
PUBLIC	?_Myend@?$_Vector_alloc@U?$_Vec_base_types@Vthread@std@@V?$allocator@Vthread@std@@@2@@std@@@std@@QEBAAEBQEAVthread@2@XZ ; std::_Vector_alloc<std::_Vec_base_types<std::thread,std::allocator<std::thread> > >::_Myend
PUBLIC	?allocate@?$_Wrap_alloc@V?$allocator@Vthread@std@@@std@@@std@@QEAAPEAVthread@2@_K@Z ; std::_Wrap_alloc<std::allocator<std::thread> >::allocate
PUBLIC	?deallocate@?$_Wrap_alloc@V?$allocator@Vthread@std@@@std@@@std@@QEAAXPEAVthread@2@_K@Z ; std::_Wrap_alloc<std::allocator<std::thread> >::deallocate
PUBLIC	?max_size@?$_Wrap_alloc@V?$allocator@Vthread@std@@@std@@@std@@QEBA_KU_Nil@2@@Z ; std::_Wrap_alloc<std::allocator<std::thread> >::max_size
PUBLIC	??0?$_Vector_const_iterator@V?$_Vector_val@U?$_Simple_types@Vthread@std@@@std@@@std@@@std@@QEAA@PEAVthread@1@PEBU_Container_base0@1@@Z ; std::_Vector_const_iterator<std::_Vector_val<std::_Simple_types<std::thread> > >::_Vector_const_iterator<std::_Vector_val<std::_Simple_types<std::thread> > >
PUBLIC	?_Compat@?$_Vector_const_iterator@V?$_Vector_val@U?$_Simple_types@Vthread@std@@@std@@@std@@@std@@QEBAXAEBV12@@Z ; std::_Vector_const_iterator<std::_Vector_val<std::_Simple_types<std::thread> > >::_Compat
PUBLIC	?_Get_second@?$_Compressed_pair@U?$_Wrap_alloc@V?$allocator@Vthread@std@@@std@@@std@@V?$_Vector_val@U?$_Simple_types@Vthread@std@@@std@@@2@$00@std@@QEAAAEAV?$_Vector_val@U?$_Simple_types@Vthread@std@@@std@@@2@XZ ; std::_Compressed_pair<std::_Wrap_alloc<std::allocator<std::thread> >,std::_Vector_val<std::_Simple_types<std::thread> >,1>::_Get_second
PUBLIC	?_Assign_rv_contents@?$basic_string@DU?$char_traits@D@std@@V?$allocator@D@2@@std@@QEAAX$$QEAV12@@Z ; std::basic_string<char,std::char_traits<char>,std::allocator<char> >::_Assign_rv_contents
PUBLIC	?_Assign_lv_contents@?$basic_string@DU?$char_traits@D@std@@V?$allocator@D@2@@std@@QEAAXAEBV12@@Z ; std::basic_string<char,std::char_traits<char>,std::allocator<char> >::_Assign_lv_contents
PUBLIC	?append@?$basic_string@DU?$char_traits@D@std@@V?$allocator@D@2@@std@@QEAAAEAV12@AEBV12@_K_K@Z ; std::basic_string<char,std::char_traits<char>,std::allocator<char> >::append
PUBLIC	?append@?$basic_string@DU?$char_traits@D@std@@V?$allocator@D@2@@std@@QEAAAEAV12@QEBD_K@Z ; std::basic_string<char,std::char_traits<char>,std::allocator<char> >::append
PUBLIC	?assign@?$basic_string@DU?$char_traits@D@std@@V?$allocator@D@2@@std@@QEAAAEAV12@QEBD@Z ; std::basic_string<char,std::char_traits<char>,std::allocator<char> >::assign
PUBLIC	?_Tidy_init@?$basic_string@DU?$char_traits@D@std@@V?$allocator@D@2@@std@@QEAAXXZ ; std::basic_string<char,std::char_traits<char>,std::allocator<char> >::_Tidy_init
PUBLIC	?_Tidy_deallocate_only@?$basic_string@DU?$char_traits@D@std@@V?$allocator@D@2@@std@@QEAAXXZ ; std::basic_string<char,std::char_traits<char>,std::allocator<char> >::_Tidy_deallocate_only
PUBLIC	?_Myptr@?$_String_alloc@U?$_String_base_types@DV?$allocator@D@std@@@std@@@std@@QEAAPEADXZ ; std::_String_alloc<std::_String_base_types<char,std::allocator<char> > >::_Myptr
PUBLIC	?_Myptr@?$_String_alloc@U?$_String_base_types@DV?$allocator@D@std@@@std@@@std@@QEBAPEBDXZ ; std::_String_alloc<std::_String_base_types<char,std::allocator<char> > >::_Myptr
PUBLIC	??0?$_String_alloc@U?$_String_base_types@DV?$allocator@D@std@@@std@@@std@@QEAA@XZ ; std::_String_alloc<std::_String_base_types<char,std::allocator<char> > >::_String_alloc<std::_String_base_types<char,std::allocator<char> > >
PUBLIC	?_Getal@?$_String_alloc@U?$_String_base_types@DV?$allocator@D@std@@@std@@@std@@QEAAAEAU?$_Wrap_alloc@V?$allocator@D@std@@@2@XZ ; std::_String_alloc<std::_String_base_types<char,std::allocator<char> > >::_Getal
PUBLIC	?_Getal@?$_String_alloc@U?$_String_base_types@DV?$allocator@D@std@@@std@@@std@@QEBAAEBU?$_Wrap_alloc@V?$allocator@D@std@@@2@XZ ; std::_String_alloc<std::_String_base_types<char,std::allocator<char> > >::_Getal
PUBLIC	?_Mysize@?$_String_alloc@U?$_String_base_types@DV?$allocator@D@std@@@std@@@std@@QEBAAEB_KXZ ; std::_String_alloc<std::_String_base_types<char,std::allocator<char> > >::_Mysize
PUBLIC	?select_on_container_copy_construction@?$_Wrap_alloc@V?$allocator@D@std@@@std@@QEBA?AU12@U_Nil@2@@Z ; std::_Wrap_alloc<std::allocator<char> >::select_on_container_copy_construction
PUBLIC	??1_Bxty@?$_String_val@U?$_Simple_types@D@std@@@std@@QEAA@XZ ; std::_String_val<std::_Simple_types<char> >::_Bxty::~_Bxty
PUBLIC	?_Reallocate_exactly@?$vector@Vthread@std@@V?$allocator@Vthread@std@@@2@@std@@AEAAX_K@Z ; std::vector<std::thread,std::allocator<std::thread> >::_Reallocate_exactly
PUBLIC	?max_size@?$vector@Vthread@std@@V?$allocator@Vthread@std@@@2@@std@@QEBA_KXZ ; std::vector<std::thread,std::allocator<std::thread> >::max_size
PUBLIC	?capacity@?$vector@Vthread@std@@V?$allocator@Vthread@std@@@2@@std@@QEBA_KXZ ; std::vector<std::thread,std::allocator<std::thread> >::capacity
PUBLIC	?_Tidy@?$vector@Vthread@std@@V?$allocator@Vthread@std@@@2@@std@@AEAAXXZ ; std::vector<std::thread,std::allocator<std::thread> >::_Tidy
PUBLIC	?_Xlength@?$vector@Vthread@std@@V?$allocator@Vthread@std@@@2@@std@@CAXXZ ; std::vector<std::thread,std::allocator<std::thread> >::_Xlength
PUBLIC	??0?$_Vector_alloc@U?$_Vec_base_types@Vthread@std@@V?$allocator@Vthread@std@@@2@@std@@@std@@QEAA@XZ ; std::_Vector_alloc<std::_Vec_base_types<std::thread,std::allocator<std::thread> > >::_Vector_alloc<std::_Vec_base_types<std::thread,std::allocator<std::thread> > >
PUBLIC	?_Get_data@?$_Vector_alloc@U?$_Vec_base_types@Vthread@std@@V?$allocator@Vthread@std@@@2@@std@@@std@@QEAAAEAV?$_Vector_val@U?$_Simple_types@Vthread@std@@@std@@@2@XZ ; std::_Vector_alloc<std::_Vec_base_types<std::thread,std::allocator<std::thread> > >::_Get_data
PUBLIC	?_Myfirst@?$_Vector_alloc@U?$_Vec_base_types@Vthread@std@@V?$allocator@Vthread@std@@@2@@std@@@std@@QEAAAEAPEAVthread@2@XZ ; std::_Vector_alloc<std::_Vec_base_types<std::thread,std::allocator<std::thread> > >::_Myfirst
PUBLIC	?_Mylast@?$_Vector_alloc@U?$_Vec_base_types@Vthread@std@@V?$allocator@Vthread@std@@@2@@std@@@std@@QEAAAEAPEAVthread@2@XZ ; std::_Vector_alloc<std::_Vec_base_types<std::thread,std::allocator<std::thread> > >::_Mylast
PUBLIC	??0?$_Vector_iterator@V?$_Vector_val@U?$_Simple_types@Vthread@std@@@std@@@std@@@std@@QEAA@PEAVthread@1@PEBU_Container_base0@1@@Z ; std::_Vector_iterator<std::_Vector_val<std::_Simple_types<std::thread> > >::_Vector_iterator<std::_Vector_val<std::_Simple_types<std::thread> > >
PUBLIC	??D?$_Vector_const_iterator@V?$_Vector_val@U?$_Simple_types@Vthread@std@@@std@@@std@@@std@@QEBAAEBVthread@1@XZ ; std::_Vector_const_iterator<std::_Vector_val<std::_Simple_types<std::thread> > >::operator*
PUBLIC	??E?$_Vector_const_iterator@V?$_Vector_val@U?$_Simple_types@Vthread@std@@@std@@@std@@@std@@QEAAAEAV01@XZ ; std::_Vector_const_iterator<std::_Vector_val<std::_Simple_types<std::thread> > >::operator++
PUBLIC	??8?$_Vector_const_iterator@V?$_Vector_val@U?$_Simple_types@Vthread@std@@@std@@@std@@@std@@QEBA_NAEBV01@@Z ; std::_Vector_const_iterator<std::_Vector_val<std::_Simple_types<std::thread> > >::operator==
PUBLIC	??1?$_String_val@U?$_Simple_types@D@std@@@std@@QEAA@XZ ; std::_String_val<std::_Simple_types<char> >::~_String_val<std::_Simple_types<char> >
PUBLIC	??1?$_Compressed_pair@U?$_Wrap_alloc@V?$allocator@D@std@@@std@@V?$_String_val@U?$_Simple_types@D@std@@@2@$00@std@@QEAA@XZ ; std::_Compressed_pair<std::_Wrap_alloc<std::allocator<char> >,std::_String_val<std::_Simple_types<char> >,1>::~_Compressed_pair<std::_Wrap_alloc<std::allocator<char> >,std::_String_val<std::_Simple_types<char> >,1>
PUBLIC	??1?$_String_alloc@U?$_String_base_types@DV?$allocator@D@std@@@std@@@std@@QEAA@XZ ; std::_String_alloc<std::_String_base_types<char,std::allocator<char> > >::~_String_alloc<std::_String_base_types<char,std::allocator<char> > >
PUBLIC	?count@?$duration@_JU?$ratio@$00$0JIJGIA@@std@@@chrono@std@@QEBA_JXZ ; std::chrono::duration<__int64,std::ratio<1,10000000> >::count
PUBLIC	??0?$time_point@Usystem_clock@chrono@std@@V?$duration@_JU?$ratio@$00$0JIJGIA@@std@@@23@@chrono@std@@QEAA@AEBV?$duration@_JU?$ratio@$00$0JIJGIA@@std@@@12@@Z ; std::chrono::time_point<std::chrono::system_clock,std::chrono::duration<__int64,std::ratio<1,10000000> > >::time_point<std::chrono::system_clock,std::chrono::duration<__int64,std::ratio<1,10000000> > >
PUBLIC	?time_since_epoch@?$time_point@Usystem_clock@chrono@std@@V?$duration@_JU?$ratio@$00$0JIJGIA@@std@@@23@@chrono@std@@QEBA?AV?$duration@_JU?$ratio@$00$0JIJGIA@@std@@@23@XZ ; std::chrono::time_point<std::chrono::system_clock,std::chrono::duration<__int64,std::ratio<1,10000000> > >::time_since_epoch
PUBLIC	??0?$basic_string@DU?$char_traits@D@std@@V?$allocator@D@2@@std@@QEAA@AEBV01@@Z ; std::basic_string<char,std::char_traits<char>,std::allocator<char> >::basic_string<char,std::char_traits<char>,std::allocator<char> >
PUBLIC	??0?$basic_string@DU?$char_traits@D@std@@V?$allocator@D@2@@std@@QEAA@QEBD@Z ; std::basic_string<char,std::char_traits<char>,std::allocator<char> >::basic_string<char,std::char_traits<char>,std::allocator<char> >
PUBLIC	??0?$basic_string@DU?$char_traits@D@std@@V?$allocator@D@2@@std@@QEAA@$$QEAV01@@Z ; std::basic_string<char,std::char_traits<char>,std::allocator<char> >::basic_string<char,std::char_traits<char>,std::allocator<char> >
PUBLIC	??1?$basic_string@DU?$char_traits@D@std@@V?$allocator@D@2@@std@@QEAA@XZ ; std::basic_string<char,std::char_traits<char>,std::allocator<char> >::~basic_string<char,std::char_traits<char>,std::allocator<char> >
PUBLIC	?append@?$basic_string@DU?$char_traits@D@std@@V?$allocator@D@2@@std@@QEAAAEAV12@AEBV12@@Z ; std::basic_string<char,std::char_traits<char>,std::allocator<char> >::append
PUBLIC	?append@?$basic_string@DU?$char_traits@D@std@@V?$allocator@D@2@@std@@QEAAAEAV12@QEBD@Z ; std::basic_string<char,std::char_traits<char>,std::allocator<char> >::append
PUBLIC	?c_str@?$basic_string@DU?$char_traits@D@std@@V?$allocator@D@2@@std@@QEBAPEBDXZ ; std::basic_string<char,std::char_traits<char>,std::allocator<char> >::c_str
PUBLIC	?empty@?$basic_string@DU?$char_traits@D@std@@V?$allocator@D@2@@std@@QEBA_NXZ ; std::basic_string<char,std::char_traits<char>,std::allocator<char> >::empty
PUBLIC	??0?$vector@Vthread@std@@V?$allocator@Vthread@std@@@2@@std@@QEAA@XZ ; std::vector<std::thread,std::allocator<std::thread> >::vector<std::thread,std::allocator<std::thread> >
PUBLIC	??1?$vector@Vthread@std@@V?$allocator@Vthread@std@@@2@@std@@QEAA@XZ ; std::vector<std::thread,std::allocator<std::thread> >::~vector<std::thread,std::allocator<std::thread> >
PUBLIC	?reserve@?$vector@Vthread@std@@V?$allocator@Vthread@std@@@2@@std@@QEAAX_K@Z ; std::vector<std::thread,std::allocator<std::thread> >::reserve
PUBLIC	?begin@?$vector@Vthread@std@@V?$allocator@Vthread@std@@@2@@std@@QEAA?AV?$_Vector_iterator@V?$_Vector_val@U?$_Simple_types@Vthread@std@@@std@@@std@@@2@XZ ; std::vector<std::thread,std::allocator<std::thread> >::begin
PUBLIC	?end@?$vector@Vthread@std@@V?$allocator@Vthread@std@@@2@@std@@QEAA?AV?$_Vector_iterator@V?$_Vector_val@U?$_Simple_types@Vthread@std@@@std@@@std@@@2@XZ ; std::vector<std::thread,std::allocator<std::thread> >::end
PUBLIC	??D?$_Vector_iterator@V?$_Vector_val@U?$_Simple_types@Vthread@std@@@std@@@std@@@std@@QEBAAEAVthread@1@XZ ; std::_Vector_iterator<std::_Vector_val<std::_Simple_types<std::thread> > >::operator*
PUBLIC	??E?$_Vector_iterator@V?$_Vector_val@U?$_Simple_types@Vthread@std@@@std@@@std@@@std@@QEAAAEAV01@XZ ; std::_Vector_iterator<std::_Vector_val<std::_Simple_types<std::thread> > >::operator++
PUBLIC	??9?$_Vector_const_iterator@V?$_Vector_val@U?$_Simple_types@Vthread@std@@@std@@@std@@@std@@QEBA_NAEBV01@@Z ; std::_Vector_const_iterator<std::_Vector_val<std::_Simple_types<std::thread> > >::operator!=
PUBLIC	main
PUBLIC	??8std@@YA_NVid@thread@0@0@Z			; std::operator==
PUBLIC	?get_id@this_thread@std@@YA?AVid@thread@2@XZ	; std::this_thread::get_id
PUBLIC	?get_id@thread@std@@QEBA?AVid@12@XZ		; std::thread::get_id
PUBLIC	?join@thread@std@@QEAAXXZ			; std::thread::join
PUBLIC	??0id@thread@std@@AEAA@I@Z			; std::thread::id::id
PUBLIC	?sleep_until@this_thread@std@@YAXPEBUxtime@@@Z	; std::this_thread::sleep_until
PUBLIC	?joinable@thread@std@@QEBA_NXZ			; std::thread::joinable
PUBLIC	??0thread@std@@QEAA@$$QEAV01@@Z			; std::thread::thread
PUBLIC	??1thread@std@@QEAA@XZ				; std::thread::~thread
PUBLIC	?_Call_func@_Pad@std@@CAIPEAX@Z			; std::_Pad::_Call_func
PUBLIC	?_Release@_Pad@std@@QEAAXXZ			; std::_Pad::_Release
PUBLIC	?_Launch@_Pad@std@@QEAAXPEAU_Thrd_imp_t@@@Z	; std::_Pad::_Launch
PUBLIC	??1_Pad@std@@QEAA@XZ				; std::_Pad::~_Pad
PUBLIC	??0_Pad@std@@QEAA@XZ				; std::_Pad::_Pad
PUBLIC	?_Release@_Auto_mtx@std@@QEAAXXZ		; std::_Auto_mtx::_Release
PUBLIC	??1_Auto_mtx@std@@QEAA@XZ			; std::_Auto_mtx::~_Auto_mtx
PUBLIC	??0_Auto_mtx@std@@QEAA@PEAU_Mtx_internal_imp_t@@@Z ; std::_Auto_mtx::_Auto_mtx
PUBLIC	?_Release@_Auto_cnd@std@@QEAAXXZ		; std::_Auto_cnd::_Release
PUBLIC	??1_Auto_cnd@std@@QEAA@XZ			; std::_Auto_cnd::~_Auto_cnd
PUBLIC	??0_Auto_cnd@std@@QEAA@PEAU_Cnd_internal_imp_t@@@Z ; std::_Auto_cnd::_Auto_cnd
PUBLIC	?_Cnd_signalX@std@@YAHPEAU_Cnd_internal_imp_t@@@Z ; std::_Cnd_signalX
PUBLIC	?_Cnd_waitX@std@@YAHPEAU_Cnd_internal_imp_t@@PEAU_Mtx_internal_imp_t@@@Z ; std::_Cnd_waitX
PUBLIC	?_Cnd_initX@std@@YAHPEAPEAU_Cnd_internal_imp_t@@@Z ; std::_Cnd_initX
PUBLIC	?_Mtx_unlockX@std@@YAHPEAU_Mtx_internal_imp_t@@@Z ; std::_Mtx_unlockX
PUBLIC	?_Mtx_lockX@std@@YAHPEAU_Mtx_internal_imp_t@@@Z	; std::_Mtx_lockX
PUBLIC	?_Mtx_initX@std@@YAHPEAPEAU_Mtx_internal_imp_t@@H@Z ; std::_Mtx_initX
PUBLIC	?_Thrd_startX@std@@YAHPEAU_Thrd_imp_t@@P6AIPEAX@Z1@Z ; std::_Thrd_startX
PUBLIC	?_Check_C_return@std@@YAHH@Z			; std::_Check_C_return
PUBLIC	??0_System_error@std@@QEAA@AEBV01@@Z		; std::_System_error::_System_error
PUBLIC	??0system_error@std@@QEAA@AEBV01@@Z		; std::system_error::system_error
PUBLIC	??0failure@ios_base@std@@QEAA@AEBV012@@Z	; std::ios_base::failure::failure
PUBLIC	??1failure@ios_base@std@@UEAA@XZ		; std::ios_base::failure::~failure
PUBLIC	??_Gfailure@ios_base@std@@UEAAPEAXI@Z		; std::ios_base::failure::`scalar deleting destructor'
PUBLIC	?width@ios_base@std@@QEAA_J_J@Z			; std::ios_base::width
PUBLIC	?width@ios_base@std@@QEBA_JXZ			; std::ios_base::width
PUBLIC	?flags@ios_base@std@@QEBAHXZ			; std::ios_base::flags
PUBLIC	?good@ios_base@std@@QEBA_NXZ			; std::ios_base::good
PUBLIC	?rdstate@ios_base@std@@QEBAHXZ			; std::ios_base::rdstate
PUBLIC	?clear@ios_base@std@@QEAAXH_N@Z			; std::ios_base::clear
PUBLIC	??0failure@ios_base@std@@QEAA@PEBDAEBVerror_code@2@@Z ; std::ios_base::failure::failure
PUBLIC	?iostream_category@std@@YAAEBVerror_category@1@XZ ; std::iostream_category
PUBLIC	??1_Iostream_error_category@std@@UEAA@XZ	; std::_Iostream_error_category::~_Iostream_error_category
PUBLIC	??_G_Iostream_error_category@std@@UEAAPEAXI@Z	; std::_Iostream_error_category::`scalar deleting destructor'
PUBLIC	?message@_Iostream_error_category@std@@UEBA?AV?$basic_string@DU?$char_traits@D@std@@V?$allocator@D@2@@2@H@Z ; std::_Iostream_error_category::message
PUBLIC	?name@_Iostream_error_category@std@@UEBAPEBDXZ	; std::_Iostream_error_category::name
PUBLIC	??0_Iostream_error_category@std@@QEAA@XZ	; std::_Iostream_error_category::_Iostream_error_category
PUBLIC	??1_Generic_error_category@std@@UEAA@XZ		; std::_Generic_error_category::~_Generic_error_category
PUBLIC	??_G_Generic_error_category@std@@UEAAPEAXI@Z	; std::_Generic_error_category::`scalar deleting destructor'
PUBLIC	?message@_Generic_error_category@std@@UEBA?AV?$basic_string@DU?$char_traits@D@std@@V?$allocator@D@2@@2@H@Z ; std::_Generic_error_category::message
PUBLIC	?name@_Generic_error_category@std@@UEBAPEBDXZ	; std::_Generic_error_category::name
PUBLIC	??0_Generic_error_category@std@@QEAA@XZ		; std::_Generic_error_category::_Generic_error_category
PUBLIC	??1system_error@std@@UEAA@XZ			; std::system_error::~system_error
PUBLIC	??_Gsystem_error@std@@UEAAPEAXI@Z		; std::system_error::`scalar deleting destructor'
PUBLIC	??0system_error@std@@QEAA@Verror_code@1@PEBD@Z	; std::system_error::system_error
PUBLIC	??1_System_error@std@@UEAA@XZ			; std::_System_error::~_System_error
PUBLIC	??_G_System_error@std@@UEAAPEAXI@Z		; std::_System_error::`scalar deleting destructor'
PUBLIC	??0_System_error@std@@IEAA@Verror_code@1@AEBV?$basic_string@DU?$char_traits@D@std@@V?$allocator@D@2@@1@@Z ; std::_System_error::_System_error
PUBLIC	?_Makestr@_System_error@std@@CA?AV?$basic_string@DU?$char_traits@D@std@@V?$allocator@D@2@@2@Verror_code@2@V32@@Z ; std::_System_error::_Makestr
PUBLIC	?make_error_code@std@@YA?AVerror_code@1@W4io_errc@1@@Z ; std::make_error_code
PUBLIC	?equivalent@error_category@std@@UEBA_NAEBVerror_code@2@H@Z ; std::error_category::equivalent
PUBLIC	?equivalent@error_category@std@@UEBA_NHAEBVerror_condition@2@@Z ; std::error_category::equivalent
PUBLIC	?default_error_condition@error_category@std@@UEBA?AVerror_condition@2@H@Z ; std::error_category::default_error_condition
PUBLIC	??8std@@YA_NAEBVerror_condition@0@0@Z		; std::operator==
PUBLIC	?category@error_condition@std@@QEBAAEBVerror_category@2@XZ ; std::error_condition::category
PUBLIC	?value@error_condition@std@@QEBAHXZ		; std::error_condition::value
PUBLIC	??0error_condition@std@@QEAA@HAEBVerror_category@1@@Z ; std::error_condition::error_condition
PUBLIC	?message@error_code@std@@QEBA?AV?$basic_string@DU?$char_traits@D@std@@V?$allocator@D@2@@2@XZ ; std::error_code::message
PUBLIC	?category@error_code@std@@QEBAAEBVerror_category@2@XZ ; std::error_code::category
PUBLIC	?value@error_code@std@@QEBAHXZ			; std::error_code::value
PUBLIC	??0error_code@std@@QEAA@HAEBVerror_category@1@@Z ; std::error_code::error_code
PUBLIC	??_Gerror_category@std@@UEAAPEAXI@Z		; std::error_category::`scalar deleting destructor'
PUBLIC	??8error_category@std@@QEBA_NAEBV01@@Z		; std::error_category::operator==
PUBLIC	??1error_category@std@@UEAA@XZ			; std::error_category::~error_category
PUBLIC	??0error_category@std@@QEAA@XZ			; std::error_category::error_category
PUBLIC	??0runtime_error@std@@QEAA@AEBV01@@Z		; std::runtime_error::runtime_error
PUBLIC	??1runtime_error@std@@UEAA@XZ			; std::runtime_error::~runtime_error
PUBLIC	??_Gruntime_error@std@@UEAAPEAXI@Z		; std::runtime_error::`scalar deleting destructor'
PUBLIC	??0runtime_error@std@@QEAA@AEBV?$basic_string@DU?$char_traits@D@std@@V?$allocator@D@2@@1@@Z ; std::runtime_error::runtime_error
PUBLIC	?now@system_clock@chrono@std@@SA?AV?$time_point@Usystem_clock@chrono@std@@V?$duration@_JU?$ratio@$00$0JIJGIA@@std@@@23@@23@XZ ; std::chrono::system_clock::now
PUBLIC	?_Deallocate@std@@YAXPEAX_K1@Z			; std::_Deallocate
PUBLIC	?_Allocate@std@@YAPEAX_K0_N@Z			; std::_Allocate
PUBLIC	?_Adopt@_Iterator_base0@std@@QEAAXPEBX@Z	; std::_Iterator_base0::_Adopt
PUBLIC	?_Orphan_all@_Container_base0@std@@QEAAXXZ	; std::_Container_base0::_Orphan_all
PUBLIC	?eof@?$char_traits@D@std@@SAHXZ			; std::char_traits<char>::eof
PUBLIC	?eq_int_type@?$char_traits@D@std@@SA_NAEBH0@Z	; std::char_traits<char>::eq_int_type
PUBLIC	?to_int_type@?$char_traits@D@std@@SAHAEBD@Z	; std::char_traits<char>::to_int_type
PUBLIC	?assign@?$char_traits@D@std@@SAXAEADAEBD@Z	; std::char_traits<char>::assign
PUBLIC	?move@?$char_traits@D@std@@SAPEADQEADQEBD_K@Z	; std::char_traits<char>::move
PUBLIC	?copy@?$char_traits@D@std@@SAPEADQEADQEBD_K@Z	; std::char_traits<char>::copy
PUBLIC	?length@?$char_traits@D@std@@SA_KQEBD@Z		; std::char_traits<char>::length
PUBLIC	??3@YAXPEAX0@Z					; operator delete
PUBLIC	??2@YAPEAX_KPEAX@Z				; operator new
PUBLIC	??_Gexception@std@@UEAAPEAXI@Z			; std::exception::`scalar deleting destructor'
PUBLIC	?what@exception@std@@UEBAPEBDXZ			; std::exception::what
PUBLIC	??1exception@std@@UEAA@XZ			; std::exception::~exception
PUBLIC	??0exception@std@@QEAA@AEBV01@@Z		; std::exception::exception
PUBLIC	??0exception@std@@QEAA@QEBD@Z			; std::exception::exception
PUBLIC	?$TSS0@?1???$_Immortalize@V_Iostream_error_category@std@@@std@@YAAEAV_Iostream_error_category@1@XZ@4HA ; TSS0<`template-parameter-2',unsigned int,std::V_Iostream_error_category::mortalize>
PUBLIC	?_Static@?1???$_Immortalize@V_Iostream_error_category@std@@@std@@YAAEAV_Iostream_error_category@1@XZ@4U?$_Immortalizer@V_Iostream_error_category@std@@@1@A ; `std::_Immortalize<std::_Iostream_error_category>'::`2'::_Static
EXTRN	??_E_System_error@std@@UEAAPEAXI@Z:PROC		; std::_System_error::`vector deleting destructor'
EXTRN	??_Eexception@std@@UEAAPEAXI@Z:PROC		; std::exception::`vector deleting destructor'
EXTRN	??_Efailure@ios_base@std@@UEAAPEAXI@Z:PROC	; std::ios_base::failure::`vector deleting destructor'
EXTRN	??_E_Iostream_error_category@std@@UEAAPEAXI@Z:PROC ; std::_Iostream_error_category::`vector deleting destructor'
EXTRN	??_Esystem_error@std@@UEAAPEAXI@Z:PROC		; std::system_error::`vector deleting destructor'
EXTRN	??_Eruntime_error@std@@UEAAPEAXI@Z:PROC		; std::runtime_error::`vector deleting destructor'
EXTRN	??_Eerror_category@std@@UEAAPEAXI@Z:PROC	; std::error_category::`vector deleting destructor'
EXTRN	??_E_Generic_error_category@std@@UEAAPEAXI@Z:PROC ; std::_Generic_error_category::`vector deleting destructor'
EXTRN	_CxxThrowException:PROC
EXTRN	__GSHandlerCheck:PROC
EXTRN	__GSHandlerCheck_EH:PROC
EXTRN	memcpy:PROC
EXTRN	__security_cookie:QWORD
EXTRN	_tls_index:DWORD
;	COMDAT ?$TSS0@?1???$_Immortalize@V_Iostream_error_category@std@@@std@@YAAEAV_Iostream_error_category@1@XZ@4HA
_BSS	SEGMENT
?$TSS0@?1???$_Immortalize@V_Iostream_error_category@std@@@std@@YAAEAV_Iostream_error_category@1@XZ@4HA DD 01H DUP (?) ; TSS0<`template-parameter-2',unsigned int,std::V_Iostream_error_category::mortalize>
_BSS	ENDS
;	COMDAT ?_Static@?1???$_Immortalize@V_Iostream_error_category@std@@@std@@YAAEAV_Iostream_error_category@1@XZ@4U?$_Immortalizer@V_Iostream_error_category@std@@@1@A
_BSS	SEGMENT
?_Static@?1???$_Immortalize@V_Iostream_error_category@std@@@std@@YAAEAV_Iostream_error_category@1@XZ@4U?$_Immortalizer@V_Iostream_error_category@std@@@1@A DB 010H DUP (?) ; `std::_Immortalize<std::_Iostream_error_category>'::`2'::_Static
_BSS	ENDS
;	COMDAT pdata
pdata	SEGMENT
$pdata$??$?0V?$unique_ptr@V?$tuple@V<lambda_e77d7e1e559843f44c4e0b6d970cdb28>@@@std@@U?$default_delete@V?$tuple@V<lambda_e77d7e1e559843f44c4e0b6d970cdb28>@@@std@@@2@@std@@@?$_LaunchPad@V?$unique_ptr@V?$tuple@V<lambda_e77d7e1e559843f44c4e0b6d970cdb28>@@@std@@U?$default_delete@V?$tuple@V<lambda_e77d7e1e559843f44c4e0b6d970cdb28>@@@std@@@2@@std@@@std@@QEAA@$$QEAV?$unique_ptr@V?$tuple@V<lambda_e77d7e1e559843f44c4e0b6d970cdb28>@@@std@@U?$default_delete@V?$tuple@V<lambda_e77d7e1e559843f44c4e0b6d970cdb28>@@@std@@@2@@1@@Z DD imagerel ??$?0V?$unique_ptr@V?$tuple@V<lambda_e77d7e1e559843f44c4e0b6d970cdb28>@@@std@@U?$default_delete@V?$tuple@V<lambda_e77d7e1e559843f44c4e0b6d970cdb28>@@@std@@@2@@std@@@?$_LaunchPad@V?$unique_ptr@V?$tuple@V<lambda_e77d7e1e559843f44c4e0b6d970cdb28>@@@std@@U?$default_delete@V?$tuple@V<lambda_e77d7e1e559843f44c4e0b6d970cdb28>@@@std@@@2@@std@@@std@@QEAA@$$QEAV?$unique_ptr@V?$tuple@V<lambda_e77d7e1e559843f44c4e0b6d970cdb28>@@@std@@U?$default_delete@V?$tuple@V<lambda_e77d7e1e559843f44c4e0b6d970cdb28>@@@std@@@2@@1@@Z
	DD	imagerel ??$?0V?$unique_ptr@V?$tuple@V<lambda_e77d7e1e559843f44c4e0b6d970cdb28>@@@std@@U?$default_delete@V?$tuple@V<lambda_e77d7e1e559843f44c4e0b6d970cdb28>@@@std@@@2@@std@@@?$_LaunchPad@V?$unique_ptr@V?$tuple@V<lambda_e77d7e1e559843f44c4e0b6d970cdb28>@@@std@@U?$default_delete@V?$tuple@V<lambda_e77d7e1e559843f44c4e0b6d970cdb28>@@@std@@@2@@std@@@std@@QEAA@$$QEAV?$unique_ptr@V?$tuple@V<lambda_e77d7e1e559843f44c4e0b6d970cdb28>@@@std@@U?$default_delete@V?$tuple@V<lambda_e77d7e1e559843f44c4e0b6d970cdb28>@@@std@@@2@@1@@Z+59
	DD	imagerel $unwind$??$?0V?$unique_ptr@V?$tuple@V<lambda_e77d7e1e559843f44c4e0b6d970cdb28>@@@std@@U?$default_delete@V?$tuple@V<lambda_e77d7e1e559843f44c4e0b6d970cdb28>@@@std@@@2@@std@@@?$_LaunchPad@V?$unique_ptr@V?$tuple@V<lambda_e77d7e1e559843f44c4e0b6d970cdb28>@@@std@@U?$default_delete@V?$tuple@V<lambda_e77d7e1e559843f44c4e0b6d970cdb28>@@@std@@@2@@std@@@std@@QEAA@$$QEAV?$unique_ptr@V?$tuple@V<lambda_e77d7e1e559843f44c4e0b6d970cdb28>@@@std@@U?$default_delete@V?$tuple@V<lambda_e77d7e1e559843f44c4e0b6d970cdb28>@@@std@@@2@@1@@Z
pdata	ENDS
;	COMDAT pdata
pdata	SEGMENT
$pdata$?_Run@?$_LaunchPad@V?$unique_ptr@V?$tuple@V<lambda_e77d7e1e559843f44c4e0b6d970cdb28>@@@std@@U?$default_delete@V?$tuple@V<lambda_e77d7e1e559843f44c4e0b6d970cdb28>@@@std@@@2@@std@@@std@@CAXPEAV12@@Z DD imagerel ?_Run@?$_LaunchPad@V?$unique_ptr@V?$tuple@V<lambda_e77d7e1e559843f44c4e0b6d970cdb28>@@@std@@U?$default_delete@V?$tuple@V<lambda_e77d7e1e559843f44c4e0b6d970cdb28>@@@std@@@2@@std@@@std@@CAXPEAV12@@Z
	DD	imagerel ?_Run@?$_LaunchPad@V?$unique_ptr@V?$tuple@V<lambda_e77d7e1e559843f44c4e0b6d970cdb28>@@@std@@U?$default_delete@V?$tuple@V<lambda_e77d7e1e559843f44c4e0b6d970cdb28>@@@std@@@2@@std@@@std@@CAXPEAV12@@Z+141
	DD	imagerel $unwind$?_Run@?$_LaunchPad@V?$unique_ptr@V?$tuple@V<lambda_e77d7e1e559843f44c4e0b6d970cdb28>@@@std@@U?$default_delete@V?$tuple@V<lambda_e77d7e1e559843f44c4e0b6d970cdb28>@@@std@@@2@@std@@@std@@CAXPEAV12@@Z
pdata	ENDS
;	COMDAT pdata
pdata	SEGMENT
$pdata$??1?$_LaunchPad@V?$unique_ptr@V?$tuple@V<lambda_e77d7e1e559843f44c4e0b6d970cdb28>@@@std@@U?$default_delete@V?$tuple@V<lambda_e77d7e1e559843f44c4e0b6d970cdb28>@@@std@@@2@@std@@@std@@QEAA@XZ DD imagerel ??1?$_LaunchPad@V?$unique_ptr@V?$tuple@V<lambda_e77d7e1e559843f44c4e0b6d970cdb28>@@@std@@U?$default_delete@V?$tuple@V<lambda_e77d7e1e559843f44c4e0b6d970cdb28>@@@std@@@2@@std@@@std@@QEAA@XZ
	DD	imagerel ??1?$_LaunchPad@V?$unique_ptr@V?$tuple@V<lambda_e77d7e1e559843f44c4e0b6d970cdb28>@@@std@@U?$default_delete@V?$tuple@V<lambda_e77d7e1e559843f44c4e0b6d970cdb28>@@@std@@@2@@std@@@std@@QEAA@XZ+111
	DD	imagerel $unwind$??1?$_LaunchPad@V?$unique_ptr@V?$tuple@V<lambda_e77d7e1e559843f44c4e0b6d970cdb28>@@@std@@U?$default_delete@V?$tuple@V<lambda_e77d7e1e559843f44c4e0b6d970cdb28>@@@std@@@2@@std@@@std@@QEAA@XZ
pdata	ENDS
;	COMDAT pdata
pdata	SEGMENT
$pdata$??$_Launch@V?$unique_ptr@V?$tuple@V<lambda_e77d7e1e559843f44c4e0b6d970cdb28>@@@std@@U?$default_delete@V?$tuple@V<lambda_e77d7e1e559843f44c4e0b6d970cdb28>@@@std@@@2@@std@@@std@@YAXPEAU_Thrd_imp_t@@$$QEAV?$unique_ptr@V?$tuple@V<lambda_e77d7e1e559843f44c4e0b6d970cdb28>@@@std@@U?$default_delete@V?$tuple@V<lambda_e77d7e1e559843f44c4e0b6d970cdb28>@@@std@@@2@@0@@Z DD imagerel ??$_Launch@V?$unique_ptr@V?$tuple@V<lambda_e77d7e1e559843f44c4e0b6d970cdb28>@@@std@@U?$default_delete@V?$tuple@V<lambda_e77d7e1e559843f44c4e0b6d970cdb28>@@@std@@@2@@std@@@std@@YAXPEAU_Thrd_imp_t@@$$QEAV?$unique_ptr@V?$tuple@V<lambda_e77d7e1e559843f44c4e0b6d970cdb28>@@@std@@U?$default_delete@V?$tuple@V<lambda_e77d7e1e559843f44c4e0b6d970cdb28>@@@std@@@2@@0@@Z
	DD	imagerel ??$_Launch@V?$unique_ptr@V?$tuple@V<lambda_e77d7e1e559843f44c4e0b6d970cdb28>@@@std@@U?$default_delete@V?$tuple@V<lambda_e77d7e1e559843f44c4e0b6d970cdb28>@@@std@@@2@@std@@@std@@YAXPEAU_Thrd_imp_t@@$$QEAV?$unique_ptr@V?$tuple@V<lambda_e77d7e1e559843f44c4e0b6d970cdb28>@@@std@@U?$default_delete@V?$tuple@V<lambda_e77d7e1e559843f44c4e0b6d970cdb28>@@@std@@@2@@0@@Z+347
	DD	imagerel $unwind$??$_Launch@V?$unique_ptr@V?$tuple@V<lambda_e77d7e1e559843f44c4e0b6d970cdb28>@@@std@@U?$default_delete@V?$tuple@V<lambda_e77d7e1e559843f44c4e0b6d970cdb28>@@@std@@@2@@std@@@std@@YAXPEAU_Thrd_imp_t@@$$QEAV?$unique_ptr@V?$tuple@V<lambda_e77d7e1e559843f44c4e0b6d970cdb28>@@@std@@U?$default_delete@V?$tuple@V<lambda_e77d7e1e559843f44c4e0b6d970cdb28>@@@std@@@2@@0@@Z
pdata	ENDS
;	COMDAT pdata
pdata	SEGMENT
$pdata$??$make_unique@V?$tuple@V<lambda_e77d7e1e559843f44c4e0b6d970cdb28>@@@std@@V<lambda_e77d7e1e559843f44c4e0b6d970cdb28>@@@std@@YA?AV?$unique_ptr@V?$tuple@V<lambda_e77d7e1e559843f44c4e0b6d970cdb28>@@@std@@U?$default_delete@V?$tuple@V<lambda_e77d7e1e559843f44c4e0b6d970cdb28>@@@std@@@2@@0@$$QEAV<lambda_e77d7e1e559843f44c4e0b6d970cdb28>@@@Z DD imagerel ??$make_unique@V?$tuple@V<lambda_e77d7e1e559843f44c4e0b6d970cdb28>@@@std@@V<lambda_e77d7e1e559843f44c4e0b6d970cdb28>@@@std@@YA?AV?$unique_ptr@V?$tuple@V<lambda_e77d7e1e559843f44c4e0b6d970cdb28>@@@std@@U?$default_delete@V?$tuple@V<lambda_e77d7e1e559843f44c4e0b6d970cdb28>@@@std@@@2@@0@$$QEAV<lambda_e77d7e1e559843f44c4e0b6d970cdb28>@@@Z
	DD	imagerel ??$make_unique@V?$tuple@V<lambda_e77d7e1e559843f44c4e0b6d970cdb28>@@@std@@V<lambda_e77d7e1e559843f44c4e0b6d970cdb28>@@@std@@YA?AV?$unique_ptr@V?$tuple@V<lambda_e77d7e1e559843f44c4e0b6d970cdb28>@@@std@@U?$default_delete@V?$tuple@V<lambda_e77d7e1e559843f44c4e0b6d970cdb28>@@@std@@@2@@0@$$QEAV<lambda_e77d7e1e559843f44c4e0b6d970cdb28>@@@Z+44
	DD	imagerel $unwind$??$make_unique@V?$tuple@V<lambda_e77d7e1e559843f44c4e0b6d970cdb28>@@@std@@V<lambda_e77d7e1e559843f44c4e0b6d970cdb28>@@@std@@YA?AV?$unique_ptr@V?$tuple@V<lambda_e77d7e1e559843f44c4e0b6d970cdb28>@@@std@@U?$default_delete@V?$tuple@V<lambda_e77d7e1e559843f44c4e0b6d970cdb28>@@@std@@@2@@0@$$QEAV<lambda_e77d7e1e559843f44c4e0b6d970cdb28>@@@Z
pdata	ENDS
;	COMDAT pdata
pdata	SEGMENT
$pdata$??$?0V<lambda_e77d7e1e559843f44c4e0b6d970cdb28>@@$$VX@thread@std@@QEAA@$$QEAV<lambda_e77d7e1e559843f44c4e0b6d970cdb28>@@@Z DD imagerel ??$?0V<lambda_e77d7e1e559843f44c4e0b6d970cdb28>@@$$VX@thread@std@@QEAA@$$QEAV<lambda_e77d7e1e559843f44c4e0b6d970cdb28>@@@Z
	DD	imagerel ??$?0V<lambda_e77d7e1e559843f44c4e0b6d970cdb28>@@$$VX@thread@std@@QEAA@$$QEAV<lambda_e77d7e1e559843f44c4e0b6d970cdb28>@@@Z+74
	DD	imagerel $unwind$??$?0V<lambda_e77d7e1e559843f44c4e0b6d970cdb28>@@$$VX@thread@std@@QEAA@$$QEAV<lambda_e77d7e1e559843f44c4e0b6d970cdb28>@@@Z
pdata	ENDS
;	COMDAT pdata
pdata	SEGMENT
$pdata$??_Gthread@std@@QEAAPEAXI@Z DD imagerel $LN15
	DD	imagerel $LN15+24
	DD	imagerel $unwind$??_Gthread@std@@QEAAPEAXI@Z
pdata	ENDS
;	COMDAT pdata
pdata	SEGMENT
$pdata$??$destroy@Vthread@std@@@?$allocator@Vthread@std@@@std@@QEAAXPEAVthread@1@@Z DD imagerel $LN19
	DD	imagerel $LN19+21
	DD	imagerel $unwind$??$destroy@Vthread@std@@@?$allocator@Vthread@std@@@std@@QEAAXPEAVthread@1@@Z
pdata	ENDS
;	COMDAT pdata
pdata	SEGMENT
$pdata$??$construct@Vthread@std@@V<lambda_e77d7e1e559843f44c4e0b6d970cdb28>@@@?$allocator@Vthread@std@@@std@@QEAAXPEAVthread@1@$$QEAV<lambda_e77d7e1e559843f44c4e0b6d970cdb28>@@@Z DD imagerel ??$construct@Vthread@std@@V<lambda_e77d7e1e559843f44c4e0b6d970cdb28>@@@?$allocator@Vthread@std@@@std@@QEAAXPEAVthread@1@$$QEAV<lambda_e77d7e1e559843f44c4e0b6d970cdb28>@@@Z
	DD	imagerel ??$construct@Vthread@std@@V<lambda_e77d7e1e559843f44c4e0b6d970cdb28>@@@?$allocator@Vthread@std@@@std@@QEAAXPEAVthread@1@$$QEAV<lambda_e77d7e1e559843f44c4e0b6d970cdb28>@@@Z+92
	DD	imagerel $unwind$??$construct@Vthread@std@@V<lambda_e77d7e1e559843f44c4e0b6d970cdb28>@@@?$allocator@Vthread@std@@@std@@QEAAXPEAVthread@1@$$QEAV<lambda_e77d7e1e559843f44c4e0b6d970cdb28>@@@Z
pdata	ENDS
;	COMDAT pdata
pdata	SEGMENT
$pdata$?dtor$0@?0???$construct@Vthread@std@@V<lambda_e77d7e1e559843f44c4e0b6d970cdb28>@@@?$allocator@Vthread@std@@@std@@QEAAXPEAVthread@1@$$QEAV<lambda_e77d7e1e559843f44c4e0b6d970cdb28>@@@Z@4HA DD imagerel ?dtor$0@?0???$construct@Vthread@std@@V<lambda_e77d7e1e559843f44c4e0b6d970cdb28>@@@?$allocator@Vthread@std@@@std@@QEAAXPEAVthread@1@$$QEAV<lambda_e77d7e1e559843f44c4e0b6d970cdb28>@@@Z@4HA
	DD	imagerel ?dtor$0@?0???$construct@Vthread@std@@V<lambda_e77d7e1e559843f44c4e0b6d970cdb28>@@@?$allocator@Vthread@std@@@std@@QEAAXPEAVthread@1@$$QEAV<lambda_e77d7e1e559843f44c4e0b6d970cdb28>@@@Z@4HA+28
	DD	imagerel $unwind$?dtor$0@?0???$construct@Vthread@std@@V<lambda_e77d7e1e559843f44c4e0b6d970cdb28>@@@?$allocator@Vthread@std@@@std@@QEAAXPEAVthread@1@$$QEAV<lambda_e77d7e1e559843f44c4e0b6d970cdb28>@@@Z@4HA
pdata	ENDS
;	COMDAT pdata
pdata	SEGMENT
$pdata$??$destroy@Vthread@std@@@?$allocator_traits@V?$allocator@Vthread@std@@@std@@@std@@SAXAEAV?$allocator@Vthread@std@@@1@PEAVthread@1@@Z DD imagerel $LN22
	DD	imagerel $LN22+21
	DD	imagerel $unwind$??$destroy@Vthread@std@@@?$allocator_traits@V?$allocator@Vthread@std@@@std@@@std@@SAXAEAV?$allocator@Vthread@std@@@1@PEAVthread@1@@Z
pdata	ENDS
;	COMDAT pdata
pdata	SEGMENT
$pdata$??$construct@Vthread@std@@V<lambda_e77d7e1e559843f44c4e0b6d970cdb28>@@@?$allocator_traits@V?$allocator@Vthread@std@@@std@@@std@@SAXAEAV?$allocator@Vthread@std@@@1@PEAVthread@1@$$QEAV<lambda_e77d7e1e559843f44c4e0b6d970cdb28>@@@Z DD imagerel ??$construct@Vthread@std@@V<lambda_e77d7e1e559843f44c4e0b6d970cdb28>@@@?$allocator_traits@V?$allocator@Vthread@std@@@std@@@std@@SAXAEAV?$allocator@Vthread@std@@@1@PEAVthread@1@$$QEAV<lambda_e77d7e1e559843f44c4e0b6d970cdb28>@@@Z
	DD	imagerel ??$construct@Vthread@std@@V<lambda_e77d7e1e559843f44c4e0b6d970cdb28>@@@?$allocator_traits@V?$allocator@Vthread@std@@@std@@@std@@SAXAEAV?$allocator@Vthread@std@@@1@PEAVthread@1@$$QEAV<lambda_e77d7e1e559843f44c4e0b6d970cdb28>@@@Z+92
	DD	imagerel $unwind$??$construct@Vthread@std@@V<lambda_e77d7e1e559843f44c4e0b6d970cdb28>@@@?$allocator_traits@V?$allocator@Vthread@std@@@std@@@std@@SAXAEAV?$allocator@Vthread@std@@@1@PEAVthread@1@$$QEAV<lambda_e77d7e1e559843f44c4e0b6d970cdb28>@@@Z
pdata	ENDS
;	COMDAT pdata
pdata	SEGMENT
$pdata$?dtor$1@?0???$construct@Vthread@std@@V<lambda_e77d7e1e559843f44c4e0b6d970cdb28>@@@?$allocator_traits@V?$allocator@Vthread@std@@@std@@@std@@SAXAEAV?$allocator@Vthread@std@@@1@PEAVthread@1@$$QEAV<lambda_e77d7e1e559843f44c4e0b6d970cdb28>@@@Z@4HA DD imagerel ?dtor$1@?0???$construct@Vthread@std@@V<lambda_e77d7e1e559843f44c4e0b6d970cdb28>@@@?$allocator_traits@V?$allocator@Vthread@std@@@std@@@std@@SAXAEAV?$allocator@Vthread@std@@@1@PEAVthread@1@$$QEAV<lambda_e77d7e1e559843f44c4e0b6d970cdb28>@@@Z@4HA
	DD	imagerel ?dtor$1@?0???$construct@Vthread@std@@V<lambda_e77d7e1e559843f44c4e0b6d970cdb28>@@@?$allocator_traits@V?$allocator@Vthread@std@@@std@@@std@@SAXAEAV?$allocator@Vthread@std@@@1@PEAVthread@1@$$QEAV<lambda_e77d7e1e559843f44c4e0b6d970cdb28>@@@Z@4HA+28
	DD	imagerel $unwind$?dtor$1@?0???$construct@Vthread@std@@V<lambda_e77d7e1e559843f44c4e0b6d970cdb28>@@@?$allocator_traits@V?$allocator@Vthread@std@@@std@@@std@@SAXAEAV?$allocator@Vthread@std@@@1@PEAVthread@1@$$QEAV<lambda_e77d7e1e559843f44c4e0b6d970cdb28>@@@Z@4HA
pdata	ENDS
;	COMDAT pdata
pdata	SEGMENT
$pdata$??$_Uninitialized_move_al_unchecked@PEAVthread@std@@PEAV12@V?$allocator@Vthread@std@@@2@@std@@YAPEAVthread@0@PEAV10@00AEAU?$_Wrap_alloc@V?$allocator@Vthread@std@@@std@@@0@@Z DD imagerel $LN9
	DD	imagerel $LN9+14
	DD	imagerel $unwind$??$_Uninitialized_move_al_unchecked@PEAVthread@std@@PEAV12@V?$allocator@Vthread@std@@@2@@std@@YAPEAVthread@0@PEAV10@00AEAU?$_Wrap_alloc@V?$allocator@Vthread@std@@@std@@@0@@Z
pdata	ENDS
;	COMDAT pdata
pdata	SEGMENT
$pdata$??$_Destroy_range1@V?$allocator@Vthread@std@@@std@@PEAVthread@2@@std@@YAXPEAVthread@0@0AEAU?$_Wrap_alloc@V?$allocator@Vthread@std@@@std@@@0@U?$integral_constant@_N$0A@@0@@Z DD imagerel $LN37
	DD	imagerel $LN37+42
	DD	imagerel $unwind$??$_Destroy_range1@V?$allocator@Vthread@std@@@std@@PEAVthread@2@@std@@YAXPEAVthread@0@0AEAU?$_Wrap_alloc@V?$allocator@Vthread@std@@@std@@@0@U?$integral_constant@_N$0A@@0@@Z
pdata	ENDS
;	COMDAT pdata
pdata	SEGMENT
$pdata$??$destroy@Vthread@std@@@?$_Wrap_alloc@V?$allocator@Vthread@std@@@std@@@std@@QEAAXPEAVthread@1@@Z DD imagerel $LN25
	DD	imagerel $LN25+21
	DD	imagerel $unwind$??$destroy@Vthread@std@@@?$_Wrap_alloc@V?$allocator@Vthread@std@@@std@@@std@@QEAAXPEAVthread@1@@Z
pdata	ENDS
;	COMDAT pdata
pdata	SEGMENT
$pdata$??$construct@Vthread@std@@V<lambda_e77d7e1e559843f44c4e0b6d970cdb28>@@@?$_Wrap_alloc@V?$allocator@Vthread@std@@@std@@@std@@QEAAXPEAVthread@1@$$QEAV<lambda_e77d7e1e559843f44c4e0b6d970cdb28>@@@Z DD imagerel ??$construct@Vthread@std@@V<lambda_e77d7e1e559843f44c4e0b6d970cdb28>@@@?$_Wrap_alloc@V?$allocator@Vthread@std@@@std@@@std@@QEAAXPEAVthread@1@$$QEAV<lambda_e77d7e1e559843f44c4e0b6d970cdb28>@@@Z
	DD	imagerel ??$construct@Vthread@std@@V<lambda_e77d7e1e559843f44c4e0b6d970cdb28>@@@?$_Wrap_alloc@V?$allocator@Vthread@std@@@std@@@std@@QEAAXPEAVthread@1@$$QEAV<lambda_e77d7e1e559843f44c4e0b6d970cdb28>@@@Z+92
	DD	imagerel $unwind$??$construct@Vthread@std@@V<lambda_e77d7e1e559843f44c4e0b6d970cdb28>@@@?$_Wrap_alloc@V?$allocator@Vthread@std@@@std@@@std@@QEAAXPEAVthread@1@$$QEAV<lambda_e77d7e1e559843f44c4e0b6d970cdb28>@@@Z
pdata	ENDS
;	COMDAT pdata
pdata	SEGMENT
$pdata$?dtor$2@?0???$construct@Vthread@std@@V<lambda_e77d7e1e559843f44c4e0b6d970cdb28>@@@?$_Wrap_alloc@V?$allocator@Vthread@std@@@std@@@std@@QEAAXPEAVthread@1@$$QEAV<lambda_e77d7e1e559843f44c4e0b6d970cdb28>@@@Z@4HA DD imagerel ?dtor$2@?0???$construct@Vthread@std@@V<lambda_e77d7e1e559843f44c4e0b6d970cdb28>@@@?$_Wrap_alloc@V?$allocator@Vthread@std@@@std@@@std@@QEAAXPEAVthread@1@$$QEAV<lambda_e77d7e1e559843f44c4e0b6d970cdb28>@@@Z@4HA
	DD	imagerel ?dtor$2@?0???$construct@Vthread@std@@V<lambda_e77d7e1e559843f44c4e0b6d970cdb28>@@@?$_Wrap_alloc@V?$allocator@Vthread@std@@@std@@@std@@QEAAXPEAVthread@1@$$QEAV<lambda_e77d7e1e559843f44c4e0b6d970cdb28>@@@Z@4HA+28
	DD	imagerel $unwind$?dtor$2@?0???$construct@Vthread@std@@V<lambda_e77d7e1e559843f44c4e0b6d970cdb28>@@@?$_Wrap_alloc@V?$allocator@Vthread@std@@@std@@@std@@QEAAXPEAVthread@1@$$QEAV<lambda_e77d7e1e559843f44c4e0b6d970cdb28>@@@Z@4HA
pdata	ENDS
;	COMDAT pdata
pdata	SEGMENT
$pdata$??$_Emplace_back_with_unused_capacity@V<lambda_e77d7e1e559843f44c4e0b6d970cdb28>@@@?$vector@Vthread@std@@V?$allocator@Vthread@std@@@2@@std@@AEAAX$$QEAV<lambda_e77d7e1e559843f44c4e0b6d970cdb28>@@@Z DD imagerel ??$_Emplace_back_with_unused_capacity@V<lambda_e77d7e1e559843f44c4e0b6d970cdb28>@@@?$vector@Vthread@std@@V?$allocator@Vthread@std@@@2@@std@@AEAAX$$QEAV<lambda_e77d7e1e559843f44c4e0b6d970cdb28>@@@Z
	DD	imagerel ??$_Emplace_back_with_unused_capacity@V<lambda_e77d7e1e559843f44c4e0b6d970cdb28>@@@?$vector@Vthread@std@@V?$allocator@Vthread@std@@@2@@std@@AEAAX$$QEAV<lambda_e77d7e1e559843f44c4e0b6d970cdb28>@@@Z+106
	DD	imagerel $unwind$??$_Emplace_back_with_unused_capacity@V<lambda_e77d7e1e559843f44c4e0b6d970cdb28>@@@?$vector@Vthread@std@@V?$allocator@Vthread@std@@@2@@std@@AEAAX$$QEAV<lambda_e77d7e1e559843f44c4e0b6d970cdb28>@@@Z
pdata	ENDS
;	COMDAT pdata
pdata	SEGMENT
$pdata$?dtor$8@?0???$_Emplace_back_with_unused_capacity@V<lambda_e77d7e1e559843f44c4e0b6d970cdb28>@@@?$vector@Vthread@std@@V?$allocator@Vthread@std@@@2@@std@@AEAAX$$QEAV<lambda_e77d7e1e559843f44c4e0b6d970cdb28>@@@Z@4HA DD imagerel ?dtor$8@?0???$_Emplace_back_with_unused_capacity@V<lambda_e77d7e1e559843f44c4e0b6d970cdb28>@@@?$vector@Vthread@std@@V?$allocator@Vthread@std@@@2@@std@@AEAAX$$QEAV<lambda_e77d7e1e559843f44c4e0b6d970cdb28>@@@Z@4HA
	DD	imagerel ?dtor$8@?0???$_Emplace_back_with_unused_capacity@V<lambda_e77d7e1e559843f44c4e0b6d970cdb28>@@@?$vector@Vthread@std@@V?$allocator@Vthread@std@@@2@@std@@AEAAX$$QEAV<lambda_e77d7e1e559843f44c4e0b6d970cdb28>@@@Z@4HA+28
	DD	imagerel $unwind$?dtor$8@?0???$_Emplace_back_with_unused_capacity@V<lambda_e77d7e1e559843f44c4e0b6d970cdb28>@@@?$vector@Vthread@std@@V?$allocator@Vthread@std@@@2@@std@@AEAAX$$QEAV<lambda_e77d7e1e559843f44c4e0b6d970cdb28>@@@Z@4HA
pdata	ENDS
;	COMDAT pdata
pdata	SEGMENT
$pdata$??$_To_xtime@HU?$ratio@$0OBA@$00@std@@@std@@YA?AUxtime@@AEBV?$duration@HU?$ratio@$0OBA@$00@std@@@chrono@0@@Z DD imagerel $LN144
	DD	imagerel $LN144+130
	DD	imagerel $unwind$??$_To_xtime@HU?$ratio@$0OBA@$00@std@@@std@@YA?AUxtime@@AEBV?$duration@HU?$ratio@$0OBA@$00@std@@@chrono@0@@Z
pdata	ENDS
;	COMDAT pdata
pdata	SEGMENT
$pdata$?_Osfx@?$basic_ostream@DU?$char_traits@D@std@@@std@@QEAAXXZ DD imagerel $LN44
	DD	imagerel $LN44+275
	DD	imagerel $unwind$?_Osfx@?$basic_ostream@DU?$char_traits@D@std@@@std@@QEAAXXZ
pdata	ENDS
;	COMDAT pdata
pdata	SEGMENT
$pdata$?catch$0@?0??_Osfx@?$basic_ostream@DU?$char_traits@D@std@@@std@@QEAAXXZ@4HA DD imagerel ?catch$0@?0??_Osfx@?$basic_ostream@DU?$char_traits@D@std@@@std@@QEAAXXZ@4HA
	DD	imagerel ?catch$0@?0??_Osfx@?$basic_ostream@DU?$char_traits@D@std@@@std@@QEAAXXZ@4HA+27
	DD	imagerel $unwind$?catch$0@?0??_Osfx@?$basic_ostream@DU?$char_traits@D@std@@@std@@QEAAXXZ@4HA
pdata	ENDS
;	COMDAT pdata
pdata	SEGMENT
$pdata$?flush@?$basic_ostream@DU?$char_traits@D@std@@@std@@QEAAAEAV12@XZ DD imagerel $LN74
	DD	imagerel $LN74+339
	DD	imagerel $unwind$?flush@?$basic_ostream@DU?$char_traits@D@std@@@std@@QEAAAEAV12@XZ
pdata	ENDS
;	COMDAT pdata
pdata	SEGMENT
$pdata$??0_Sentry_base@?$basic_ostream@DU?$char_traits@D@std@@@std@@QEAA@AEAV12@@Z DD imagerel $LN10
	DD	imagerel $LN10+44
	DD	imagerel $unwind$??0_Sentry_base@?$basic_ostream@DU?$char_traits@D@std@@@std@@QEAA@AEAV12@@Z
pdata	ENDS
;	COMDAT pdata
pdata	SEGMENT
$pdata$??1_Sentry_base@?$basic_ostream@DU?$char_traits@D@std@@@std@@QEAA@XZ DD imagerel $LN8
	DD	imagerel $LN8+45
	DD	imagerel $unwind$??1_Sentry_base@?$basic_ostream@DU?$char_traits@D@std@@@std@@QEAA@XZ
pdata	ENDS
;	COMDAT pdata
pdata	SEGMENT
$pdata$??0sentry@?$basic_ostream@DU?$char_traits@D@std@@@std@@QEAA@AEAV12@@Z DD imagerel $LN26
	DD	imagerel $LN26+123
	DD	imagerel $unwind$??0sentry@?$basic_ostream@DU?$char_traits@D@std@@@std@@QEAA@AEAV12@@Z
pdata	ENDS
;	COMDAT pdata
pdata	SEGMENT
$pdata$??1sentry@?$basic_ostream@DU?$char_traits@D@std@@@std@@QEAA@XZ DD imagerel $LN13
	DD	imagerel $LN13+70
	DD	imagerel $unwind$??1sentry@?$basic_ostream@DU?$char_traits@D@std@@@std@@QEAA@XZ
pdata	ENDS
;	COMDAT pdata
pdata	SEGMENT
$pdata$??$_Uninitialized_move@PEAVthread@std@@PEAV12@V?$allocator@Vthread@std@@@2@@std@@YAPEAVthread@0@PEAV10@00AEAU?$_Wrap_alloc@V?$allocator@Vthread@std@@@std@@@0@@Z DD imagerel $LN19
	DD	imagerel $LN19+14
	DD	imagerel $unwind$??$_Uninitialized_move@PEAVthread@std@@PEAV12@V?$allocator@Vthread@std@@@2@@std@@YAPEAVthread@0@PEAV10@00AEAU?$_Wrap_alloc@V?$allocator@Vthread@std@@@std@@@0@@Z
pdata	ENDS
;	COMDAT pdata
pdata	SEGMENT
$pdata$??$_Destroy_range@V?$allocator@Vthread@std@@@std@@PEAVthread@2@@std@@YAXPEAVthread@0@0AEAU?$_Wrap_alloc@V?$allocator@Vthread@std@@@std@@@0@@Z DD imagerel $LN40
	DD	imagerel $LN40+42
	DD	imagerel $unwind$??$_Destroy_range@V?$allocator@Vthread@std@@@std@@PEAVthread@2@@std@@YAXPEAVthread@0@0AEAU?$_Wrap_alloc@V?$allocator@Vthread@std@@@std@@@0@@Z
pdata	ENDS
;	COMDAT pdata
pdata	SEGMENT
$pdata$??$emplace_back@V<lambda_e77d7e1e559843f44c4e0b6d970cdb28>@@@?$vector@Vthread@std@@V?$allocator@Vthread@std@@@2@@std@@QEAAX$$QEAV<lambda_e77d7e1e559843f44c4e0b6d970cdb28>@@@Z DD imagerel ??$emplace_back@V<lambda_e77d7e1e559843f44c4e0b6d970cdb28>@@@?$vector@Vthread@std@@V?$allocator@Vthread@std@@@2@@std@@QEAAX$$QEAV<lambda_e77d7e1e559843f44c4e0b6d970cdb28>@@@Z
	DD	imagerel ??$emplace_back@V<lambda_e77d7e1e559843f44c4e0b6d970cdb28>@@@?$vector@Vthread@std@@V?$allocator@Vthread@std@@@2@@std@@QEAAX$$QEAV<lambda_e77d7e1e559843f44c4e0b6d970cdb28>@@@Z+345
	DD	imagerel $unwind$??$emplace_back@V<lambda_e77d7e1e559843f44c4e0b6d970cdb28>@@@?$vector@Vthread@std@@V?$allocator@Vthread@std@@@2@@std@@QEAAX$$QEAV<lambda_e77d7e1e559843f44c4e0b6d970cdb28>@@@Z
pdata	ENDS
;	COMDAT pdata
pdata	SEGMENT
$pdata$?dtor$16@?0???$emplace_back@V<lambda_e77d7e1e559843f44c4e0b6d970cdb28>@@@?$vector@Vthread@std@@V?$allocator@Vthread@std@@@2@@std@@QEAAX$$QEAV<lambda_e77d7e1e559843f44c4e0b6d970cdb28>@@@Z@4HA DD imagerel ?dtor$16@?0???$emplace_back@V<lambda_e77d7e1e559843f44c4e0b6d970cdb28>@@@?$vector@Vthread@std@@V?$allocator@Vthread@std@@@2@@std@@QEAAX$$QEAV<lambda_e77d7e1e559843f44c4e0b6d970cdb28>@@@Z@4HA
	DD	imagerel ?dtor$16@?0???$emplace_back@V<lambda_e77d7e1e559843f44c4e0b6d970cdb28>@@@?$vector@Vthread@std@@V?$allocator@Vthread@std@@@2@@std@@QEAAX$$QEAV<lambda_e77d7e1e559843f44c4e0b6d970cdb28>@@@Z@4HA+34
	DD	imagerel $unwind$?dtor$16@?0???$emplace_back@V<lambda_e77d7e1e559843f44c4e0b6d970cdb28>@@@?$vector@Vthread@std@@V?$allocator@Vthread@std@@@2@@std@@QEAAX$$QEAV<lambda_e77d7e1e559843f44c4e0b6d970cdb28>@@@Z@4HA
pdata	ENDS
;	COMDAT pdata
pdata	SEGMENT
$pdata$?dtor$72@?0???$emplace_back@V<lambda_e77d7e1e559843f44c4e0b6d970cdb28>@@@?$vector@Vthread@std@@V?$allocator@Vthread@std@@@2@@std@@QEAAX$$QEAV<lambda_e77d7e1e559843f44c4e0b6d970cdb28>@@@Z@4HA DD imagerel ?dtor$72@?0???$emplace_back@V<lambda_e77d7e1e559843f44c4e0b6d970cdb28>@@@?$vector@Vthread@std@@V?$allocator@Vthread@std@@@2@@std@@QEAAX$$QEAV<lambda_e77d7e1e559843f44c4e0b6d970cdb28>@@@Z@4HA
	DD	imagerel ?dtor$72@?0???$emplace_back@V<lambda_e77d7e1e559843f44c4e0b6d970cdb28>@@@?$vector@Vthread@std@@V?$allocator@Vthread@std@@@2@@std@@QEAAX$$QEAV<lambda_e77d7e1e559843f44c4e0b6d970cdb28>@@@Z@4HA+28
	DD	imagerel $unwind$?dtor$72@?0???$emplace_back@V<lambda_e77d7e1e559843f44c4e0b6d970cdb28>@@@?$vector@Vthread@std@@V?$allocator@Vthread@std@@@2@@std@@QEAAX$$QEAV<lambda_e77d7e1e559843f44c4e0b6d970cdb28>@@@Z@4HA
pdata	ENDS
;	COMDAT pdata
pdata	SEGMENT
$pdata$?catch$95@?0???$emplace_back@V<lambda_e77d7e1e559843f44c4e0b6d970cdb28>@@@?$vector@Vthread@std@@V?$allocator@Vthread@std@@@2@@std@@QEAAX$$QEAV<lambda_e77d7e1e559843f44c4e0b6d970cdb28>@@@Z@4HA DD imagerel ?catch$95@?0???$emplace_back@V<lambda_e77d7e1e559843f44c4e0b6d970cdb28>@@@?$vector@Vthread@std@@V?$allocator@Vthread@std@@@2@@std@@QEAAX$$QEAV<lambda_e77d7e1e559843f44c4e0b6d970cdb28>@@@Z@4HA
	DD	imagerel ?catch$95@?0???$emplace_back@V<lambda_e77d7e1e559843f44c4e0b6d970cdb28>@@@?$vector@Vthread@std@@V?$allocator@Vthread@std@@@2@@std@@QEAAX$$QEAV<lambda_e77d7e1e559843f44c4e0b6d970cdb28>@@@Z@4HA+79
	DD	imagerel $unwind$?catch$95@?0???$emplace_back@V<lambda_e77d7e1e559843f44c4e0b6d970cdb28>@@@?$vector@Vthread@std@@V?$allocator@Vthread@std@@@2@@std@@QEAAX$$QEAV<lambda_e77d7e1e559843f44c4e0b6d970cdb28>@@@Z@4HA
pdata	ENDS
;	COMDAT pdata
pdata	SEGMENT
$pdata$??$sleep_for@HU?$ratio@$0OBA@$00@std@@@this_thread@std@@YAXAEBV?$duration@HU?$ratio@$0OBA@$00@std@@@chrono@1@@Z DD imagerel $LN147
	DD	imagerel $LN147+158
	DD	imagerel $unwind$??$sleep_for@HU?$ratio@$0OBA@$00@std@@@this_thread@std@@YAXAEBV?$duration@HU?$ratio@$0OBA@$00@std@@@chrono@1@@Z
pdata	ENDS
;	COMDAT pdata
pdata	SEGMENT
$pdata$??$?6U?$char_traits@D@std@@@std@@YAAEAV?$basic_ostream@DU?$char_traits@D@std@@@0@AEAV10@PEBD@Z DD imagerel $LN191
	DD	imagerel $LN191+776
	DD	imagerel $unwind$??$?6U?$char_traits@D@std@@@std@@YAAEAV?$basic_ostream@DU?$char_traits@D@std@@@0@AEAV10@PEBD@Z
pdata	ENDS
;	COMDAT pdata
pdata	SEGMENT
$pdata$?catch$13@?0???$?6U?$char_traits@D@std@@@std@@YAAEAV?$basic_ostream@DU?$char_traits@D@std@@@0@AEAV10@PEBD@Z@4HA DD imagerel ?catch$13@?0???$?6U?$char_traits@D@std@@@std@@YAAEAV?$basic_ostream@DU?$char_traits@D@std@@@0@AEAV10@PEBD@Z@4HA
	DD	imagerel ?catch$13@?0???$?6U?$char_traits@D@std@@@std@@YAAEAV?$basic_ostream@DU?$char_traits@D@std@@@0@AEAV10@PEBD@Z@4HA+83
	DD	imagerel $unwind$?catch$13@?0???$?6U?$char_traits@D@std@@@std@@YAAEAV?$basic_ostream@DU?$char_traits@D@std@@@0@AEAV10@PEBD@Z@4HA
pdata	ENDS
;	COMDAT pdata
pdata	SEGMENT
$pdata$??$_Immortalize@V_Iostream_error_category@std@@@std@@YAAEAV_Iostream_error_category@0@XZ DD imagerel $LN23
	DD	imagerel $LN23+116
	DD	imagerel $unwind$??$_Immortalize@V_Iostream_error_category@std@@@std@@YAAEAV_Iostream_error_category@0@XZ
pdata	ENDS
;	COMDAT pdata
pdata	SEGMENT
$pdata$?allocate@?$allocator@D@std@@QEAAPEAD_K@Z DD imagerel $LN16
	DD	imagerel $LN16+83
	DD	imagerel $unwind$?allocate@?$allocator@D@std@@QEAAPEAD_K@Z
pdata	ENDS
;	COMDAT pdata
pdata	SEGMENT
$pdata$?allocate@?$_Wrap_alloc@V?$allocator@D@std@@@std@@QEAAPEAD_K@Z DD imagerel $LN19
	DD	imagerel $LN19+83
	DD	imagerel $unwind$?allocate@?$_Wrap_alloc@V?$allocator@D@std@@@std@@QEAAPEAD_K@Z
pdata	ENDS
;	COMDAT pdata
pdata	SEGMENT
$pdata$?deallocate@?$allocator@D@std@@QEAAXPEAD_K@Z DD imagerel $LN18
	DD	imagerel $LN18+81
	DD	imagerel $unwind$?deallocate@?$allocator@D@std@@QEAAXPEAD_K@Z
pdata	ENDS
;	COMDAT pdata
pdata	SEGMENT
$pdata$?erase@?$basic_string@DU?$char_traits@D@std@@V?$allocator@D@2@@std@@QEAAAEAV12@_K@Z DD imagerel $LN38
	DD	imagerel $LN38+54
	DD	imagerel $unwind$?erase@?$basic_string@DU?$char_traits@D@std@@V?$allocator@D@2@@std@@QEAAAEAV12@_K@Z
pdata	ENDS
;	COMDAT pdata
pdata	SEGMENT
$pdata$?erase@?$basic_string@DU?$char_traits@D@std@@V?$allocator@D@2@@std@@QEAAAEAV12@_K0@Z DD imagerel $LN97
	DD	imagerel $LN97+191
	DD	imagerel $unwind$?erase@?$basic_string@DU?$char_traits@D@std@@V?$allocator@D@2@@std@@QEAAAEAV12@_K0@Z
pdata	ENDS
;	COMDAT pdata
pdata	SEGMENT
$pdata$?_Copy@?$basic_string@DU?$char_traits@D@std@@V?$allocator@D@2@@std@@QEAAX_K@Z DD imagerel $LN118
	DD	imagerel $LN118+335
	DD	imagerel $unwind$?_Copy@?$basic_string@DU?$char_traits@D@std@@V?$allocator@D@2@@std@@QEAAX_K@Z
pdata	ENDS
;	COMDAT pdata
pdata	SEGMENT
$pdata$?catch$16@?0??_Copy@?$basic_string@DU?$char_traits@D@std@@V?$allocator@D@2@@std@@QEAAX_K@Z@4HA DD imagerel ?catch$16@?0??_Copy@?$basic_string@DU?$char_traits@D@std@@V?$allocator@D@2@@std@@QEAAX_K@Z@4HA
	DD	imagerel ?catch$16@?0??_Copy@?$basic_string@DU?$char_traits@D@std@@V?$allocator@D@2@@std@@QEAAX_K@Z@4HA+51
	DD	imagerel $unwind$?catch$16@?0??_Copy@?$basic_string@DU?$char_traits@D@std@@V?$allocator@D@2@@std@@QEAAX_K@Z@4HA
pdata	ENDS
;	COMDAT pdata
pdata	SEGMENT
$pdata$?_Xran@?$basic_string@DU?$char_traits@D@std@@V?$allocator@D@2@@std@@SAXXZ DD imagerel $LN4
	DD	imagerel $LN4+17
	DD	imagerel $unwind$?_Xran@?$basic_string@DU?$char_traits@D@std@@V?$allocator@D@2@@std@@SAXXZ
pdata	ENDS
;	COMDAT pdata
pdata	SEGMENT
$pdata$?deallocate@?$allocator@Vthread@std@@@std@@QEAAXPEAVthread@2@_K@Z DD imagerel $LN19
	DD	imagerel $LN19+106
	DD	imagerel $unwind$?deallocate@?$allocator@Vthread@std@@@std@@QEAAXPEAVthread@2@_K@Z
pdata	ENDS
;	COMDAT pdata
pdata	SEGMENT
$pdata$?allocate@?$allocator@Vthread@std@@@std@@QEAAPEAVthread@2@_K@Z DD imagerel $LN17
	DD	imagerel $LN17+108
	DD	imagerel $unwind$?allocate@?$allocator@Vthread@std@@@std@@QEAAPEAVthread@2@_K@Z
pdata	ENDS
;	COMDAT pdata
pdata	SEGMENT
$pdata$?_Umove_if_noexcept1@?$vector@Vthread@std@@V?$allocator@Vthread@std@@@2@@std@@AEAAXPEAVthread@2@00U?$integral_constant@_N$00@2@@Z DD imagerel $LN27
	DD	imagerel $LN27+26
	DD	imagerel $unwind$?_Umove_if_noexcept1@?$vector@Vthread@std@@V?$allocator@Vthread@std@@@2@@std@@AEAAXPEAVthread@2@00U?$integral_constant@_N$00@2@@Z
pdata	ENDS
;	COMDAT pdata
pdata	SEGMENT
$pdata$?assign@?$basic_string@DU?$char_traits@D@std@@V?$allocator@D@2@@std@@QEAAAEAV12@AEBV12@_K_K@Z DD imagerel $LN159
	DD	imagerel $LN159+248
	DD	imagerel $unwind$?assign@?$basic_string@DU?$char_traits@D@std@@V?$allocator@D@2@@std@@QEAAAEAV12@AEBV12@_K_K@Z
pdata	ENDS
;	COMDAT pdata
pdata	SEGMENT
$pdata$?assign@?$basic_string@DU?$char_traits@D@std@@V?$allocator@D@2@@std@@QEAAAEAV12@QEBD_K@Z DD imagerel $LN112
	DD	imagerel $LN112+246
	DD	imagerel $unwind$?assign@?$basic_string@DU?$char_traits@D@std@@V?$allocator@D@2@@std@@QEAAAEAV12@QEBD_K@Z
pdata	ENDS
;	COMDAT pdata
pdata	SEGMENT
$pdata$?_Grow@?$basic_string@DU?$char_traits@D@std@@V?$allocator@D@2@@std@@QEAA_N_K@Z DD imagerel $LN34
	DD	imagerel $LN34+51
	DD	imagerel $unwind$?_Grow@?$basic_string@DU?$char_traits@D@std@@V?$allocator@D@2@@std@@QEAA_N_K@Z
pdata	ENDS
;	COMDAT pdata
pdata	SEGMENT
$pdata$?_Xlen@?$basic_string@DU?$char_traits@D@std@@V?$allocator@D@2@@std@@SAXXZ DD imagerel $LN4
	DD	imagerel $LN4+17
	DD	imagerel $unwind$?_Xlen@?$basic_string@DU?$char_traits@D@std@@V?$allocator@D@2@@std@@SAXXZ
pdata	ENDS
;	COMDAT pdata
pdata	SEGMENT
$pdata$?_Check_offset@?$basic_string@DU?$char_traits@D@std@@V?$allocator@D@2@@std@@QEBAX_K@Z DD imagerel $LN16
	DD	imagerel $LN16+21
	DD	imagerel $unwind$?_Check_offset@?$basic_string@DU?$char_traits@D@std@@V?$allocator@D@2@@std@@QEBAX_K@Z
pdata	ENDS
;	COMDAT pdata
pdata	SEGMENT
$pdata$?deallocate@?$_Wrap_alloc@V?$allocator@D@std@@@std@@QEAAXPEAD_K@Z DD imagerel $LN21
	DD	imagerel $LN21+81
	DD	imagerel $unwind$?deallocate@?$_Wrap_alloc@V?$allocator@D@std@@@std@@QEAAXPEAD_K@Z
pdata	ENDS
;	COMDAT pdata
pdata	SEGMENT
$pdata$?_Umove_if_noexcept@?$vector@Vthread@std@@V?$allocator@Vthread@std@@@2@@std@@AEAAXPEAVthread@2@00@Z DD imagerel $LN29
	DD	imagerel $LN29+26
	DD	imagerel $unwind$?_Umove_if_noexcept@?$vector@Vthread@std@@V?$allocator@Vthread@std@@@2@@std@@AEAAXPEAVthread@2@00@Z
pdata	ENDS
;	COMDAT pdata
pdata	SEGMENT
$pdata$?_Destroy@?$vector@Vthread@std@@V?$allocator@Vthread@std@@@2@@std@@AEAAXPEAVthread@2@0@Z DD imagerel $LN49
	DD	imagerel $LN49+42
	DD	imagerel $unwind$?_Destroy@?$vector@Vthread@std@@V?$allocator@Vthread@std@@@2@@std@@AEAAXPEAVthread@2@0@Z
pdata	ENDS
;	COMDAT pdata
pdata	SEGMENT
$pdata$?_Change_array@?$vector@Vthread@std@@V?$allocator@Vthread@std@@@2@@std@@AEAAXQEAVthread@2@_K1@Z DD imagerel $LN159
	DD	imagerel $LN159+228
	DD	imagerel $unwind$?_Change_array@?$vector@Vthread@std@@V?$allocator@Vthread@std@@@2@@std@@AEAAXQEAVthread@2@_K1@Z
pdata	ENDS
;	COMDAT pdata
pdata	SEGMENT
$pdata$?allocate@?$_Wrap_alloc@V?$allocator@Vthread@std@@@std@@@std@@QEAAPEAVthread@2@_K@Z DD imagerel $LN20
	DD	imagerel $LN20+108
	DD	imagerel $unwind$?allocate@?$_Wrap_alloc@V?$allocator@Vthread@std@@@std@@@std@@QEAAPEAVthread@2@_K@Z
pdata	ENDS
;	COMDAT pdata
pdata	SEGMENT
$pdata$?deallocate@?$_Wrap_alloc@V?$allocator@Vthread@std@@@std@@@std@@QEAAXPEAVthread@2@_K@Z DD imagerel $LN22
	DD	imagerel $LN22+106
	DD	imagerel $unwind$?deallocate@?$_Wrap_alloc@V?$allocator@Vthread@std@@@std@@@std@@QEAAXPEAVthread@2@_K@Z
pdata	ENDS
;	COMDAT pdata
pdata	SEGMENT
$pdata$?_Assign_rv_contents@?$basic_string@DU?$char_traits@D@std@@V?$allocator@D@2@@std@@QEAAX$$QEAV12@@Z DD imagerel $LN62
	DD	imagerel $LN62+101
	DD	imagerel $unwind$?_Assign_rv_contents@?$basic_string@DU?$char_traits@D@std@@V?$allocator@D@2@@std@@QEAAX$$QEAV12@@Z
pdata	ENDS
;	COMDAT pdata
pdata	SEGMENT
$pdata$?append@?$basic_string@DU?$char_traits@D@std@@V?$allocator@D@2@@std@@QEAAAEAV12@AEBV12@_K_K@Z DD imagerel $LN151
	DD	imagerel $LN151+75
	DD	imagerel $unwind$?append@?$basic_string@DU?$char_traits@D@std@@V?$allocator@D@2@@std@@QEAAAEAV12@AEBV12@_K_K@Z
pdata	ENDS
;	COMDAT pdata
pdata	SEGMENT
$pdata$0$?append@?$basic_string@DU?$char_traits@D@std@@V?$allocator@D@2@@std@@QEAAAEAV12@AEBV12@_K_K@Z DD imagerel $LN151+75
	DD	imagerel $LN151+232
	DD	imagerel $chain$0$?append@?$basic_string@DU?$char_traits@D@std@@V?$allocator@D@2@@std@@QEAAAEAV12@AEBV12@_K_K@Z
pdata	ENDS
;	COMDAT pdata
pdata	SEGMENT
$pdata$1$?append@?$basic_string@DU?$char_traits@D@std@@V?$allocator@D@2@@std@@QEAAAEAV12@AEBV12@_K_K@Z DD imagerel $LN151+232
	DD	imagerel $LN151+244
	DD	imagerel $chain$1$?append@?$basic_string@DU?$char_traits@D@std@@V?$allocator@D@2@@std@@QEAAAEAV12@AEBV12@_K_K@Z
pdata	ENDS
;	COMDAT pdata
pdata	SEGMENT
$pdata$?append@?$basic_string@DU?$char_traits@D@std@@V?$allocator@D@2@@std@@QEAAAEAV12@QEBD_K@Z DD imagerel $LN142
	DD	imagerel $LN142+119
	DD	imagerel $unwind$?append@?$basic_string@DU?$char_traits@D@std@@V?$allocator@D@2@@std@@QEAAAEAV12@QEBD_K@Z
pdata	ENDS
;	COMDAT pdata
pdata	SEGMENT
$pdata$0$?append@?$basic_string@DU?$char_traits@D@std@@V?$allocator@D@2@@std@@QEAAAEAV12@QEBD_K@Z DD imagerel $LN142+119
	DD	imagerel $LN142+257
	DD	imagerel $chain$0$?append@?$basic_string@DU?$char_traits@D@std@@V?$allocator@D@2@@std@@QEAAAEAV12@QEBD_K@Z
pdata	ENDS
;	COMDAT pdata
pdata	SEGMENT
$pdata$1$?append@?$basic_string@DU?$char_traits@D@std@@V?$allocator@D@2@@std@@QEAAAEAV12@QEBD_K@Z DD imagerel $LN142+257
	DD	imagerel $LN142+263
	DD	imagerel $chain$1$?append@?$basic_string@DU?$char_traits@D@std@@V?$allocator@D@2@@std@@QEAAAEAV12@QEBD_K@Z
pdata	ENDS
;	COMDAT pdata
pdata	SEGMENT
$pdata$?_Tidy_deallocate_only@?$basic_string@DU?$char_traits@D@std@@V?$allocator@D@2@@std@@QEAAXXZ DD imagerel $LN42
	DD	imagerel $LN42+98
	DD	imagerel $unwind$?_Tidy_deallocate_only@?$basic_string@DU?$char_traits@D@std@@V?$allocator@D@2@@std@@QEAAXXZ
pdata	ENDS
;	COMDAT pdata
pdata	SEGMENT
$pdata$?_Reallocate_exactly@?$vector@Vthread@std@@V?$allocator@Vthread@std@@@2@@std@@AEAAX_K@Z DD imagerel $LN98
	DD	imagerel $LN98+91
	DD	imagerel $unwind$?_Reallocate_exactly@?$vector@Vthread@std@@V?$allocator@Vthread@std@@@2@@std@@AEAAX_K@Z
pdata	ENDS
;	COMDAT pdata
pdata	SEGMENT
$pdata$?_Tidy@?$vector@Vthread@std@@V?$allocator@Vthread@std@@@2@@std@@AEAAXXZ DD imagerel $LN159
	DD	imagerel $LN159+177
	DD	imagerel $unwind$?_Tidy@?$vector@Vthread@std@@V?$allocator@Vthread@std@@@2@@std@@AEAAXXZ
pdata	ENDS
;	COMDAT pdata
pdata	SEGMENT
$pdata$?_Xlength@?$vector@Vthread@std@@V?$allocator@Vthread@std@@@2@@std@@CAXXZ DD imagerel $LN4
	DD	imagerel $LN4+17
	DD	imagerel $unwind$?_Xlength@?$vector@Vthread@std@@V?$allocator@Vthread@std@@@2@@std@@CAXXZ
pdata	ENDS
;	COMDAT pdata
pdata	SEGMENT
$pdata$??0?$basic_string@DU?$char_traits@D@std@@V?$allocator@D@2@@std@@QEAA@AEBV01@@Z DD imagerel $LN42
	DD	imagerel $LN42+49
	DD	imagerel $unwind$??0?$basic_string@DU?$char_traits@D@std@@V?$allocator@D@2@@std@@QEAA@AEBV01@@Z
pdata	ENDS
;	COMDAT pdata
pdata	SEGMENT
$pdata$??0?$basic_string@DU?$char_traits@D@std@@V?$allocator@D@2@@std@@QEAA@QEBD@Z DD imagerel $LN27
	DD	imagerel $LN27+56
	DD	imagerel $unwind$??0?$basic_string@DU?$char_traits@D@std@@V?$allocator@D@2@@std@@QEAA@QEBD@Z
pdata	ENDS
;	COMDAT pdata
pdata	SEGMENT
$pdata$??0?$basic_string@DU?$char_traits@D@std@@V?$allocator@D@2@@std@@QEAA@$$QEAV01@@Z DD imagerel $LN99
	DD	imagerel $LN99+118
	DD	imagerel $unwind$??0?$basic_string@DU?$char_traits@D@std@@V?$allocator@D@2@@std@@QEAA@$$QEAV01@@Z
pdata	ENDS
;	COMDAT pdata
pdata	SEGMENT
$pdata$??1?$basic_string@DU?$char_traits@D@std@@V?$allocator@D@2@@std@@QEAA@XZ DD imagerel $LN45
	DD	imagerel $LN45+98
	DD	imagerel $unwind$??1?$basic_string@DU?$char_traits@D@std@@V?$allocator@D@2@@std@@QEAA@XZ
pdata	ENDS
;	COMDAT pdata
pdata	SEGMENT
$pdata$??R<lambda_e77d7e1e559843f44c4e0b6d970cdb28>@@QEBAXXZ DD imagerel ??R<lambda_e77d7e1e559843f44c4e0b6d970cdb28>@@QEBAXXZ
	DD	imagerel ??R<lambda_e77d7e1e559843f44c4e0b6d970cdb28>@@QEBAXXZ+127
	DD	imagerel $unwind$??R<lambda_e77d7e1e559843f44c4e0b6d970cdb28>@@QEBAXXZ
pdata	ENDS
pdata	SEGMENT
$pdata$main DD	imagerel $LN311
	DD	imagerel $LN311+397
	DD	imagerel $unwind$main
pdata	ENDS
;	COMDAT pdata
pdata	SEGMENT
$pdata$?get_id@this_thread@std@@YA?AVid@thread@2@XZ DD imagerel $LN6
	DD	imagerel $LN6+25
	DD	imagerel $unwind$?get_id@this_thread@std@@YA?AVid@thread@2@XZ
pdata	ENDS
;	COMDAT pdata
pdata	SEGMENT
$pdata$?join@thread@std@@QEAAXXZ DD imagerel $LN25
	DD	imagerel $LN25+109
	DD	imagerel $unwind$?join@thread@std@@QEAAXXZ
pdata	ENDS
;	COMDAT pdata
pdata	SEGMENT
$pdata$??1thread@std@@QEAA@XZ DD imagerel $LN10
	DD	imagerel $LN10+21
	DD	imagerel $unwind$??1thread@std@@QEAA@XZ
pdata	ENDS
;	COMDAT pdata
pdata	SEGMENT
$pdata$?_Call_func@_Pad@std@@CAIPEAX@Z DD imagerel $LN4
	DD	imagerel $LN4+21
	DD	imagerel $unwind$?_Call_func@_Pad@std@@CAIPEAX@Z
pdata	ENDS
;	COMDAT pdata
pdata	SEGMENT
$pdata$?_Release@_Pad@std@@QEAAXXZ DD imagerel $LN19
	DD	imagerel $LN19+84
	DD	imagerel $unwind$?_Release@_Pad@std@@QEAAXXZ
pdata	ENDS
;	COMDAT pdata
pdata	SEGMENT
$pdata$?_Launch@_Pad@std@@QEAAXPEAU_Thrd_imp_t@@@Z DD imagerel $LN19
	DD	imagerel $LN19+100
	DD	imagerel $unwind$?_Launch@_Pad@std@@QEAAXPEAU_Thrd_imp_t@@@Z
pdata	ENDS
;	COMDAT pdata
pdata	SEGMENT
$pdata$??1_Pad@std@@QEAA@XZ DD imagerel $LN22
	DD	imagerel $LN22+86
	DD	imagerel $unwind$??1_Pad@std@@QEAA@XZ
pdata	ENDS
;	COMDAT pdata
pdata	SEGMENT
$pdata$??0_Pad@std@@QEAA@XZ DD imagerel $LN36
	DD	imagerel $LN36+141
	DD	imagerel $unwind$??0_Pad@std@@QEAA@XZ
pdata	ENDS
;	COMDAT pdata
pdata	SEGMENT
$pdata$?_Cnd_signalX@std@@YAHPEAU_Cnd_internal_imp_t@@@Z DD imagerel $LN8
	DD	imagerel $LN8+32
	DD	imagerel $unwind$?_Cnd_signalX@std@@YAHPEAU_Cnd_internal_imp_t@@@Z
pdata	ENDS
;	COMDAT pdata
pdata	SEGMENT
$pdata$?_Cnd_waitX@std@@YAHPEAU_Cnd_internal_imp_t@@PEAU_Mtx_internal_imp_t@@@Z DD imagerel $LN8
	DD	imagerel $LN8+32
	DD	imagerel $unwind$?_Cnd_waitX@std@@YAHPEAU_Cnd_internal_imp_t@@PEAU_Mtx_internal_imp_t@@@Z
pdata	ENDS
;	COMDAT pdata
pdata	SEGMENT
$pdata$?_Cnd_initX@std@@YAHPEAPEAU_Cnd_internal_imp_t@@@Z DD imagerel $LN8
	DD	imagerel $LN8+32
	DD	imagerel $unwind$?_Cnd_initX@std@@YAHPEAPEAU_Cnd_internal_imp_t@@@Z
pdata	ENDS
;	COMDAT pdata
pdata	SEGMENT
$pdata$?_Mtx_unlockX@std@@YAHPEAU_Mtx_internal_imp_t@@@Z DD imagerel $LN8
	DD	imagerel $LN8+32
	DD	imagerel $unwind$?_Mtx_unlockX@std@@YAHPEAU_Mtx_internal_imp_t@@@Z
pdata	ENDS
;	COMDAT pdata
pdata	SEGMENT
$pdata$?_Mtx_lockX@std@@YAHPEAU_Mtx_internal_imp_t@@@Z DD imagerel $LN8
	DD	imagerel $LN8+32
	DD	imagerel $unwind$?_Mtx_lockX@std@@YAHPEAU_Mtx_internal_imp_t@@@Z
pdata	ENDS
;	COMDAT pdata
pdata	SEGMENT
$pdata$?_Mtx_initX@std@@YAHPEAPEAU_Mtx_internal_imp_t@@H@Z DD imagerel $LN8
	DD	imagerel $LN8+37
	DD	imagerel $unwind$?_Mtx_initX@std@@YAHPEAPEAU_Mtx_internal_imp_t@@H@Z
pdata	ENDS
;	COMDAT pdata
pdata	SEGMENT
$pdata$?_Thrd_startX@std@@YAHPEAU_Thrd_imp_t@@P6AIPEAX@Z1@Z DD imagerel $LN8
	DD	imagerel $LN8+48
	DD	imagerel $unwind$?_Thrd_startX@std@@YAHPEAU_Thrd_imp_t@@P6AIPEAX@Z1@Z
pdata	ENDS
;	COMDAT pdata
pdata	SEGMENT
$pdata$?_Check_C_return@std@@YAHH@Z DD imagerel $LN6
	DD	imagerel $LN6+25
	DD	imagerel $unwind$?_Check_C_return@std@@YAHH@Z
pdata	ENDS
;	COMDAT pdata
pdata	SEGMENT
$pdata$??0_System_error@std@@QEAA@AEBV01@@Z DD imagerel $LN9
	DD	imagerel $LN9+80
	DD	imagerel $unwind$??0_System_error@std@@QEAA@AEBV01@@Z
pdata	ENDS
;	COMDAT pdata
pdata	SEGMENT
$pdata$??0system_error@std@@QEAA@AEBV01@@Z DD imagerel $LN12
	DD	imagerel $LN12+90
	DD	imagerel $unwind$??0system_error@std@@QEAA@AEBV01@@Z
pdata	ENDS
;	COMDAT pdata
pdata	SEGMENT
$pdata$??0failure@ios_base@std@@QEAA@AEBV012@@Z DD imagerel $LN15
	DD	imagerel $LN15+90
	DD	imagerel $unwind$??0failure@ios_base@std@@QEAA@AEBV012@@Z
pdata	ENDS
;	COMDAT pdata
pdata	SEGMENT
$pdata$??_Gfailure@ios_base@std@@UEAAPEAXI@Z DD imagerel $LN20
	DD	imagerel $LN20+66
	DD	imagerel $unwind$??_Gfailure@ios_base@std@@UEAAPEAXI@Z
pdata	ENDS
;	COMDAT pdata
pdata	SEGMENT
$pdata$?clear@ios_base@std@@QEAAXH_N@Z DD imagerel $LN17
	DD	imagerel $LN17+186
	DD	imagerel $unwind$?clear@ios_base@std@@QEAAXH_N@Z
pdata	ENDS
;	COMDAT pdata
pdata	SEGMENT
$pdata$??0failure@ios_base@std@@QEAA@PEBDAEBVerror_code@2@@Z DD imagerel $LN5
	DD	imagerel $LN5+50
	DD	imagerel $unwind$??0failure@ios_base@std@@QEAA@PEBDAEBVerror_code@2@@Z
pdata	ENDS
;	COMDAT pdata
pdata	SEGMENT
$pdata$?iostream_category@std@@YAAEBVerror_category@1@XZ DD imagerel $LN25
	DD	imagerel $LN25+116
	DD	imagerel $unwind$?iostream_category@std@@YAAEBVerror_category@1@XZ
pdata	ENDS
;	COMDAT pdata
pdata	SEGMENT
$pdata$??_G_Iostream_error_category@std@@UEAAPEAXI@Z DD imagerel $LN15
	DD	imagerel $LN15+43
	DD	imagerel $unwind$??_G_Iostream_error_category@std@@UEAAPEAXI@Z
pdata	ENDS
;	COMDAT pdata
pdata	SEGMENT
$pdata$?message@_Iostream_error_category@std@@UEBA?AV?$basic_string@DU?$char_traits@D@std@@V?$allocator@D@2@@2@H@Z DD imagerel $LN33
	DD	imagerel $LN33+77
	DD	imagerel $unwind$?message@_Iostream_error_category@std@@UEBA?AV?$basic_string@DU?$char_traits@D@std@@V?$allocator@D@2@@2@H@Z
pdata	ENDS
;	COMDAT pdata
pdata	SEGMENT
$pdata$??_G_Generic_error_category@std@@UEAAPEAXI@Z DD imagerel $LN12
	DD	imagerel $LN12+43
	DD	imagerel $unwind$??_G_Generic_error_category@std@@UEAAPEAXI@Z
pdata	ENDS
;	COMDAT pdata
pdata	SEGMENT
$pdata$?message@_Generic_error_category@std@@UEBA?AV?$basic_string@DU?$char_traits@D@std@@V?$allocator@D@2@@2@H@Z DD imagerel $LN31
	DD	imagerel $LN31+78
	DD	imagerel $unwind$?message@_Generic_error_category@std@@UEBA?AV?$basic_string@DU?$char_traits@D@std@@V?$allocator@D@2@@2@H@Z
pdata	ENDS
;	COMDAT pdata
pdata	SEGMENT
$pdata$??_Gsystem_error@std@@UEAAPEAXI@Z DD imagerel $LN17
	DD	imagerel $LN17+66
	DD	imagerel $unwind$??_Gsystem_error@std@@UEAAPEAXI@Z
pdata	ENDS
;	COMDAT pdata
pdata	SEGMENT
$pdata$??0system_error@std@@QEAA@Verror_code@1@PEBD@Z DD imagerel $LN71
	DD	imagerel $LN71+248
	DD	imagerel $unwind$??0system_error@std@@QEAA@Verror_code@1@PEBD@Z
pdata	ENDS
;	COMDAT pdata
pdata	SEGMENT
$pdata$??_G_System_error@std@@UEAAPEAXI@Z DD imagerel $LN14
	DD	imagerel $LN14+66
	DD	imagerel $unwind$??_G_System_error@std@@UEAAPEAXI@Z
pdata	ENDS
;	COMDAT pdata
pdata	SEGMENT
$pdata$??0_System_error@std@@IEAA@Verror_code@1@AEBV?$basic_string@DU?$char_traits@D@std@@V?$allocator@D@2@@1@@Z DD imagerel $LN115
	DD	imagerel $LN115+309
	DD	imagerel $unwind$??0_System_error@std@@IEAA@Verror_code@1@AEBV?$basic_string@DU?$char_traits@D@std@@V?$allocator@D@2@@1@@Z
pdata	ENDS
;	COMDAT pdata
pdata	SEGMENT
$pdata$?_Makestr@_System_error@std@@CA?AV?$basic_string@DU?$char_traits@D@std@@V?$allocator@D@2@@2@Verror_code@2@V32@@Z DD imagerel $LN205
	DD	imagerel $LN205+405
	DD	imagerel $unwind$?_Makestr@_System_error@std@@CA?AV?$basic_string@DU?$char_traits@D@std@@V?$allocator@D@2@@2@Verror_code@2@V32@@Z
pdata	ENDS
;	COMDAT pdata
pdata	SEGMENT
$pdata$?make_error_code@std@@YA?AVerror_code@1@W4io_errc@1@@Z DD imagerel $LN29
	DD	imagerel $LN29+143
	DD	imagerel $unwind$?make_error_code@std@@YA?AVerror_code@1@W4io_errc@1@@Z
pdata	ENDS
;	COMDAT pdata
pdata	SEGMENT
$pdata$?equivalent@error_category@std@@UEBA_NHAEBVerror_condition@2@@Z DD imagerel $LN32
	DD	imagerel $LN32+95
	DD	imagerel $unwind$?equivalent@error_category@std@@UEBA_NHAEBVerror_condition@2@@Z
pdata	ENDS
;	COMDAT pdata
pdata	SEGMENT
$pdata$?message@error_code@std@@QEBA?AV?$basic_string@DU?$char_traits@D@std@@V?$allocator@D@2@@2@XZ DD imagerel $LN12
	DD	imagerel $LN12+39
	DD	imagerel $unwind$?message@error_code@std@@QEBA?AV?$basic_string@DU?$char_traits@D@std@@V?$allocator@D@2@@2@XZ
pdata	ENDS
;	COMDAT pdata
pdata	SEGMENT
$pdata$??_Gerror_category@std@@UEAAPEAXI@Z DD imagerel $LN9
	DD	imagerel $LN9+43
	DD	imagerel $unwind$??_Gerror_category@std@@UEAAPEAXI@Z
pdata	ENDS
;	COMDAT pdata
pdata	SEGMENT
$pdata$??0runtime_error@std@@QEAA@AEBV01@@Z DD imagerel $LN6
	DD	imagerel $LN6+63
	DD	imagerel $unwind$??0runtime_error@std@@QEAA@AEBV01@@Z
pdata	ENDS
;	COMDAT pdata
pdata	SEGMENT
$pdata$??_Gruntime_error@std@@UEAAPEAXI@Z DD imagerel $LN11
	DD	imagerel $LN11+66
	DD	imagerel $unwind$??_Gruntime_error@std@@UEAAPEAXI@Z
pdata	ENDS
;	COMDAT pdata
pdata	SEGMENT
$pdata$??0runtime_error@std@@QEAA@AEBV?$basic_string@DU?$char_traits@D@std@@V?$allocator@D@2@@1@@Z DD imagerel $LN25
	DD	imagerel $LN25+84
	DD	imagerel $unwind$??0runtime_error@std@@QEAA@AEBV?$basic_string@DU?$char_traits@D@std@@V?$allocator@D@2@@1@@Z
pdata	ENDS
;	COMDAT pdata
pdata	SEGMENT
$pdata$?now@system_clock@chrono@std@@SA?AV?$time_point@Usystem_clock@chrono@std@@V?$duration@_JU?$ratio@$00$0JIJGIA@@std@@@23@@23@XZ DD imagerel $LN8
	DD	imagerel $LN8+26
	DD	imagerel $unwind$?now@system_clock@chrono@std@@SA?AV?$time_point@Usystem_clock@chrono@std@@V?$duration@_JU?$ratio@$00$0JIJGIA@@std@@@23@@23@XZ
pdata	ENDS
;	COMDAT pdata
pdata	SEGMENT
$pdata$?_Deallocate@std@@YAXPEAX_K1@Z DD imagerel $LN16
	DD	imagerel $LN16+105
	DD	imagerel $unwind$?_Deallocate@std@@YAXPEAX_K1@Z
pdata	ENDS
;	COMDAT pdata
pdata	SEGMENT
$pdata$?_Allocate@std@@YAPEAX_K0_N@Z DD imagerel $LN14
	DD	imagerel $LN14+113
	DD	imagerel $unwind$?_Allocate@std@@YAPEAX_K0_N@Z
pdata	ENDS
;	COMDAT pdata
pdata	SEGMENT
$pdata$?copy@?$char_traits@D@std@@SAPEADQEADQEBD_K@Z DD imagerel $LN4
	DD	imagerel $LN4+23
	DD	imagerel $unwind$?copy@?$char_traits@D@std@@SAPEADQEADQEBD_K@Z
pdata	ENDS
;	COMDAT pdata
pdata	SEGMENT
$pdata$??_Gexception@std@@UEAAPEAXI@Z DD imagerel $LN8
	DD	imagerel $LN8+66
	DD	imagerel $unwind$??_Gexception@std@@UEAAPEAXI@Z
pdata	ENDS
;	COMDAT pdata
pdata	SEGMENT
$pdata$??0exception@std@@QEAA@AEBV01@@Z DD imagerel $LN4
	DD	imagerel $LN4+53
	DD	imagerel $unwind$??0exception@std@@QEAA@AEBV01@@Z
pdata	ENDS
;	COMDAT pdata
pdata	SEGMENT
$pdata$??0exception@std@@QEAA@QEBD@Z DD imagerel $LN4
	DD	imagerel $LN4+64
	DD	imagerel $unwind$??0exception@std@@QEAA@QEBD@Z
pdata	ENDS
;	COMDAT xdata
xdata	SEGMENT
$unwind$??0exception@std@@QEAA@QEBD@Z DD 020601H
	DD	030025206H
xdata	ENDS
;	COMDAT xdata
xdata	SEGMENT
$unwind$??0exception@std@@QEAA@AEBV01@@Z DD 020601H
	DD	030023206H
xdata	ENDS
;	COMDAT xdata
xdata	SEGMENT
$unwind$??_Gexception@std@@UEAAPEAXI@Z DD 040a01H
	DD	06340aH
	DD	07006320aH
xdata	ENDS
;	COMDAT xdata
xdata	SEGMENT
$unwind$?copy@?$char_traits@D@std@@SAPEADQEADQEBD_K@Z DD 020601H
	DD	030023206H
xdata	ENDS
;	COMDAT xdata
xdata	SEGMENT
$unwind$?_Allocate@std@@YAPEAX_K0_N@Z DD 010401H
	DD	04204H
xdata	ENDS
;	COMDAT xdata
xdata	SEGMENT
$unwind$?_Deallocate@std@@YAXPEAX_K1@Z DD 010401H
	DD	04204H
xdata	ENDS
;	COMDAT xdata
xdata	SEGMENT
$unwind$?now@system_clock@chrono@std@@SA?AV?$time_point@Usystem_clock@chrono@std@@V?$duration@_JU?$ratio@$00$0JIJGIA@@std@@@23@@23@XZ DD 020601H
	DD	030023206H
xdata	ENDS
;	COMDAT xdata
xdata	SEGMENT
$unwind$??0runtime_error@std@@QEAA@AEBV?$basic_string@DU?$char_traits@D@std@@V?$allocator@D@2@@1@@Z DD 020601H
	DD	030025206H
xdata	ENDS
;	COMDAT xdata
xdata	SEGMENT
$unwind$??_Gruntime_error@std@@UEAAPEAXI@Z DD 040a01H
	DD	06340aH
	DD	07006320aH
xdata	ENDS
;	COMDAT xdata
xdata	SEGMENT
$unwind$??0runtime_error@std@@QEAA@AEBV01@@Z DD 020601H
	DD	030023206H
xdata	ENDS
;	COMDAT xdata
xdata	SEGMENT
$unwind$??_Gerror_category@std@@UEAAPEAXI@Z DD 020601H
	DD	030023206H
xdata	ENDS
;	COMDAT xdata
xdata	SEGMENT
$unwind$?message@error_code@std@@QEBA?AV?$basic_string@DU?$char_traits@D@std@@V?$allocator@D@2@@2@XZ DD 020601H
	DD	030025206H
xdata	ENDS
;	COMDAT xdata
xdata	SEGMENT
$unwind$?equivalent@error_category@std@@UEBA_NHAEBVerror_condition@2@@Z DD 020601H
	DD	030025206H
xdata	ENDS
;	COMDAT xdata
xdata	SEGMENT
$unwind$?make_error_code@std@@YA?AVerror_code@1@W4io_errc@1@@Z DD 040a01H
	DD	06340aH
	DD	07006320aH
xdata	ENDS
;	COMDAT xdata
xdata	SEGMENT
$ip2state$?_Makestr@_System_error@std@@CA?AV?$basic_string@DU?$char_traits@D@std@@V?$allocator@D@2@@2@Verror_code@2@V32@@Z DD imagerel ?_Makestr@_System_error@std@@CA?AV?$basic_string@DU?$char_traits@D@std@@V?$allocator@D@2@@2@Verror_code@2@V32@@Z
	DD	0ffffffffH
	DD	imagerel ?_Makestr@_System_error@std@@CA?AV?$basic_string@DU?$char_traits@D@std@@V?$allocator@D@2@@2@Verror_code@2@V32@@Z+60
	DD	00H
	DD	imagerel ?_Makestr@_System_error@std@@CA?AV?$basic_string@DU?$char_traits@D@std@@V?$allocator@D@2@@2@Verror_code@2@V32@@Z+99
	DD	01H
	DD	imagerel ?_Makestr@_System_error@std@@CA?AV?$basic_string@DU?$char_traits@D@std@@V?$allocator@D@2@@2@Verror_code@2@V32@@Z+118
	DD	00H
	DD	imagerel ?_Makestr@_System_error@std@@CA?AV?$basic_string@DU?$char_traits@D@std@@V?$allocator@D@2@@2@Verror_code@2@V32@@Z+288
	DD	0ffffffffH
xdata	ENDS
;	COMDAT xdata
xdata	SEGMENT
$stateUnwindMap$?_Makestr@_System_error@std@@CA?AV?$basic_string@DU?$char_traits@D@std@@V?$allocator@D@2@@2@Verror_code@2@V32@@Z DD 0ffffffffH
	DD	imagerel ?dtor$0@?0??_Makestr@_System_error@std@@CA?AV?$basic_string@DU?$char_traits@D@std@@V?$allocator@D@2@@2@Verror_code@2@V32@@Z@4HA
	DD	00H
	DD	imagerel ?dtor$1@?0??_Makestr@_System_error@std@@CA?AV?$basic_string@DU?$char_traits@D@std@@V?$allocator@D@2@@2@Verror_code@2@V32@@Z@4HA
xdata	ENDS
;	COMDAT CONST
CONST	SEGMENT
$cppxdata$?_Makestr@_System_error@std@@CA?AV?$basic_string@DU?$char_traits@D@std@@V?$allocator@D@2@@2@Verror_code@2@V32@@Z DD 019930522H
	DD	02H
	DD	imagerel $stateUnwindMap$?_Makestr@_System_error@std@@CA?AV?$basic_string@DU?$char_traits@D@std@@V?$allocator@D@2@@2@Verror_code@2@V32@@Z
	DD	00H
	DD	00H
	DD	05H
	DD	imagerel $ip2state$?_Makestr@_System_error@std@@CA?AV?$basic_string@DU?$char_traits@D@std@@V?$allocator@D@2@@2@Verror_code@2@V32@@Z
	DD	028H
	DD	00H
	DD	01H
CONST	ENDS
;	COMDAT xdata
xdata	SEGMENT
$unwind$?_Makestr@_System_error@std@@CA?AV?$basic_string@DU?$char_traits@D@std@@V?$allocator@D@2@@2@Verror_code@2@V32@@Z DD 062819H
	DD	0133419H
	DD	07004b208H
	DD	050026003H
	DD	imagerel __GSHandlerCheck_EH
	DD	imagerel $cppxdata$?_Makestr@_System_error@std@@CA?AV?$basic_string@DU?$char_traits@D@std@@V?$allocator@D@2@@2@Verror_code@2@V32@@Z
	DD	05aH
xdata	ENDS
;	COMDAT xdata
xdata	SEGMENT
$unwind$??0_System_error@std@@IEAA@Verror_code@1@AEBV?$basic_string@DU?$char_traits@D@std@@V?$allocator@D@2@@1@@Z DD 041c19H
	DD	015340dH
	DD	07006f20dH
	DD	imagerel __GSHandlerCheck
	DD	070H
xdata	ENDS
;	COMDAT xdata
xdata	SEGMENT
$unwind$??_G_System_error@std@@UEAAPEAXI@Z DD 040a01H
	DD	06340aH
	DD	07006320aH
xdata	ENDS
;	COMDAT xdata
xdata	SEGMENT
$ip2state$??0system_error@std@@QEAA@Verror_code@1@PEBD@Z DD imagerel ??0system_error@std@@QEAA@Verror_code@1@PEBD@Z
	DD	0ffffffffH
	DD	imagerel ??0system_error@std@@QEAA@Verror_code@1@PEBD@Z+93
	DD	00H
	DD	imagerel ??0system_error@std@@QEAA@Verror_code@1@PEBD@Z+120
	DD	0ffffffffH
xdata	ENDS
;	COMDAT xdata
xdata	SEGMENT
$stateUnwindMap$??0system_error@std@@QEAA@Verror_code@1@PEBD@Z DD 0ffffffffH
	DD	imagerel ?dtor$0@?0???0system_error@std@@QEAA@Verror_code@1@PEBD@Z@4HA
xdata	ENDS
;	COMDAT CONST
CONST	SEGMENT
$cppxdata$??0system_error@std@@QEAA@Verror_code@1@PEBD@Z DD 019930522H
	DD	01H
	DD	imagerel $stateUnwindMap$??0system_error@std@@QEAA@Verror_code@1@PEBD@Z
	DD	00H
	DD	00H
	DD	03H
	DD	imagerel $ip2state$??0system_error@std@@QEAA@Verror_code@1@PEBD@Z
	DD	020H
	DD	00H
	DD	01H
CONST	ENDS
;	COMDAT xdata
xdata	SEGMENT
$unwind$??0system_error@std@@QEAA@Verror_code@1@PEBD@Z DD 042319H
	DD	0133414H
	DD	07004d208H
	DD	imagerel __GSHandlerCheck_EH
	DD	imagerel $cppxdata$??0system_error@std@@QEAA@Verror_code@1@PEBD@Z
	DD	062H
xdata	ENDS
;	COMDAT xdata
xdata	SEGMENT
$unwind$??_Gsystem_error@std@@UEAAPEAXI@Z DD 040a01H
	DD	06340aH
	DD	07006320aH
xdata	ENDS
;	COMDAT xdata
xdata	SEGMENT
$unwind$?message@_Generic_error_category@std@@UEBA?AV?$basic_string@DU?$char_traits@D@std@@V?$allocator@D@2@@2@H@Z DD 020601H
	DD	030025206H
xdata	ENDS
;	COMDAT xdata
xdata	SEGMENT
$unwind$??_G_Generic_error_category@std@@UEAAPEAXI@Z DD 020601H
	DD	030023206H
xdata	ENDS
;	COMDAT xdata
xdata	SEGMENT
$unwind$?message@_Iostream_error_category@std@@UEBA?AV?$basic_string@DU?$char_traits@D@std@@V?$allocator@D@2@@2@H@Z DD 020601H
	DD	030025206H
xdata	ENDS
;	COMDAT xdata
xdata	SEGMENT
$unwind$??_G_Iostream_error_category@std@@UEAAPEAXI@Z DD 020601H
	DD	030023206H
xdata	ENDS
;	COMDAT xdata
xdata	SEGMENT
$unwind$?iostream_category@std@@YAAEBVerror_category@1@XZ DD 010401H
	DD	04204H
xdata	ENDS
;	COMDAT xdata
xdata	SEGMENT
$unwind$??0failure@ios_base@std@@QEAA@PEBDAEBVerror_code@2@@Z DD 020601H
	DD	030025206H
xdata	ENDS
;	COMDAT xdata
xdata	SEGMENT
$unwind$?clear@ios_base@std@@QEAAXH_N@Z DD 010401H
	DD	0c204H
xdata	ENDS
;	COMDAT xdata
xdata	SEGMENT
$unwind$??_Gfailure@ios_base@std@@UEAAPEAXI@Z DD 040a01H
	DD	06340aH
	DD	07006320aH
xdata	ENDS
;	COMDAT xdata
xdata	SEGMENT
$unwind$??0failure@ios_base@std@@QEAA@AEBV012@@Z DD 040a01H
	DD	06340aH
	DD	07006320aH
xdata	ENDS
;	COMDAT xdata
xdata	SEGMENT
$unwind$??0system_error@std@@QEAA@AEBV01@@Z DD 040a01H
	DD	06340aH
	DD	07006320aH
xdata	ENDS
;	COMDAT xdata
xdata	SEGMENT
$unwind$??0_System_error@std@@QEAA@AEBV01@@Z DD 040a01H
	DD	06340aH
	DD	07006320aH
xdata	ENDS
;	COMDAT xdata
xdata	SEGMENT
$unwind$?_Check_C_return@std@@YAHH@Z DD 020601H
	DD	030023206H
xdata	ENDS
;	COMDAT xdata
xdata	SEGMENT
$unwind$?_Thrd_startX@std@@YAHPEAU_Thrd_imp_t@@P6AIPEAX@Z1@Z DD 020601H
	DD	030023206H
xdata	ENDS
;	COMDAT xdata
xdata	SEGMENT
$unwind$?_Mtx_initX@std@@YAHPEAPEAU_Mtx_internal_imp_t@@H@Z DD 020601H
	DD	030023206H
xdata	ENDS
;	COMDAT xdata
xdata	SEGMENT
$unwind$?_Mtx_lockX@std@@YAHPEAU_Mtx_internal_imp_t@@@Z DD 020601H
	DD	030023206H
xdata	ENDS
;	COMDAT xdata
xdata	SEGMENT
$unwind$?_Mtx_unlockX@std@@YAHPEAU_Mtx_internal_imp_t@@@Z DD 020601H
	DD	030023206H
xdata	ENDS
;	COMDAT xdata
xdata	SEGMENT
$unwind$?_Cnd_initX@std@@YAHPEAPEAU_Cnd_internal_imp_t@@@Z DD 020601H
	DD	030023206H
xdata	ENDS
;	COMDAT xdata
xdata	SEGMENT
$unwind$?_Cnd_waitX@std@@YAHPEAU_Cnd_internal_imp_t@@PEAU_Mtx_internal_imp_t@@@Z DD 020601H
	DD	030023206H
xdata	ENDS
;	COMDAT xdata
xdata	SEGMENT
$unwind$?_Cnd_signalX@std@@YAHPEAU_Cnd_internal_imp_t@@@Z DD 020601H
	DD	030023206H
xdata	ENDS
;	COMDAT xdata
xdata	SEGMENT
$ip2state$??0_Pad@std@@QEAA@XZ DD imagerel ??0_Pad@std@@QEAA@XZ
	DD	0ffffffffH
	DD	imagerel ??0_Pad@std@@QEAA@XZ+67
	DD	00H
	DD	imagerel ??0_Pad@std@@QEAA@XZ+106
	DD	01H
	DD	imagerel ??0_Pad@std@@QEAA@XZ+127
	DD	0ffffffffH
xdata	ENDS
;	COMDAT xdata
xdata	SEGMENT
$stateUnwindMap$??0_Pad@std@@QEAA@XZ DD 0ffffffffH
	DD	imagerel ?dtor$0@?0???0_Pad@std@@QEAA@XZ@4HA
	DD	00H
	DD	imagerel ?dtor$1@?0???0_Pad@std@@QEAA@XZ@4HA
xdata	ENDS
;	COMDAT CONST
CONST	SEGMENT
$cppxdata$??0_Pad@std@@QEAA@XZ DD 019930522H
	DD	02H
	DD	imagerel $stateUnwindMap$??0_Pad@std@@QEAA@XZ
	DD	00H
	DD	00H
	DD	04H
	DD	imagerel $ip2state$??0_Pad@std@@QEAA@XZ
	DD	020H
	DD	00H
	DD	01H
CONST	ENDS
;	COMDAT xdata
xdata	SEGMENT
$unwind$??0_Pad@std@@QEAA@XZ DD 041411H
	DD	0c3414H
	DD	070029206H
	DD	imagerel __CxxFrameHandler3
	DD	imagerel $cppxdata$??0_Pad@std@@QEAA@XZ
xdata	ENDS
;	COMDAT xdata
xdata	SEGMENT
$ip2state$??1_Pad@std@@QEAA@XZ DD imagerel ??1_Pad@std@@QEAA@XZ
	DD	0ffffffffH
xdata	ENDS
;	COMDAT CONST
CONST	SEGMENT
$cppxdata$??1_Pad@std@@QEAA@XZ DD 019930522H
	DD	00H
	DD	00H
	DD	00H
	DD	00H
	DD	01H
	DD	imagerel $ip2state$??1_Pad@std@@QEAA@XZ
	DD	020H
	DD	00H
	DD	05H
CONST	ENDS
;	COMDAT xdata
xdata	SEGMENT
$unwind$??1_Pad@std@@QEAA@XZ DD 041419H
	DD	083414H
	DD	070025206H
	DD	imagerel __CxxFrameHandler3
	DD	imagerel $cppxdata$??1_Pad@std@@QEAA@XZ
xdata	ENDS
;	COMDAT xdata
xdata	SEGMENT
$unwind$?_Launch@_Pad@std@@QEAAXPEAU_Thrd_imp_t@@@Z DD 020601H
	DD	030023206H
xdata	ENDS
;	COMDAT xdata
xdata	SEGMENT
$unwind$?_Release@_Pad@std@@QEAAXXZ DD 020601H
	DD	030023206H
xdata	ENDS
;	COMDAT xdata
xdata	SEGMENT
$unwind$?_Call_func@_Pad@std@@CAIPEAX@Z DD 010401H
	DD	04204H
xdata	ENDS
;	COMDAT xdata
xdata	SEGMENT
$unwind$??1thread@std@@QEAA@XZ DD 010401H
	DD	04204H
xdata	ENDS
;	COMDAT xdata
xdata	SEGMENT
$unwind$?join@thread@std@@QEAAXXZ DD 020601H
	DD	030025206H
xdata	ENDS
;	COMDAT xdata
xdata	SEGMENT
$unwind$?get_id@this_thread@std@@YA?AVid@thread@2@XZ DD 020601H
	DD	030023206H
	ORG $+7
$cppxdata$main DD 019930522H
	DD	01H
	DD	imagerel $stateUnwindMap$main
	DD	00H
	DD	00H
	DD	03H
	DD	imagerel $ip2state$main
	DD	020H
	DD	00H
	DD	01H
CONST	ENDS
xdata	SEGMENT
$unwind$main DD	061811H
	DD	0106418H
	DD	0f3414H
	DD	07004b208H
	DD	imagerel __CxxFrameHandler3
	DD	imagerel $cppxdata$main
$stateUnwindMap$main DD 0ffffffffH
	DD	imagerel main$dtor$0
$ip2state$main DD imagerel main
	DD	0ffffffffH
	DD	imagerel main+38
	DD	00H
	DD	imagerel main+230
	DD	0ffffffffH
xdata	ENDS
;	COMDAT xdata
xdata	SEGMENT
$unwind$??R<lambda_e77d7e1e559843f44c4e0b6d970cdb28>@@QEBAXXZ DD 011319H
	DD	08204H
	DD	imagerel __GSHandlerCheck
	DD	030H
xdata	ENDS
;	COMDAT xdata
xdata	SEGMENT
$unwind$??1?$basic_string@DU?$char_traits@D@std@@V?$allocator@D@2@@std@@QEAA@XZ DD 010401H
	DD	04204H
xdata	ENDS
;	COMDAT xdata
xdata	SEGMENT
$unwind$??0?$basic_string@DU?$char_traits@D@std@@V?$allocator@D@2@@std@@QEAA@$$QEAV01@@Z DD 040a01H
	DD	06340aH
	DD	07006320aH
xdata	ENDS
;	COMDAT xdata
xdata	SEGMENT
$unwind$??0?$basic_string@DU?$char_traits@D@std@@V?$allocator@D@2@@std@@QEAA@QEBD@Z DD 020601H
	DD	030023206H
xdata	ENDS
;	COMDAT xdata
xdata	SEGMENT
$unwind$??0?$basic_string@DU?$char_traits@D@std@@V?$allocator@D@2@@std@@QEAA@AEBV01@@Z DD 020601H
	DD	030023206H
xdata	ENDS
;	COMDAT xdata
xdata	SEGMENT
$unwind$?_Xlength@?$vector@Vthread@std@@V?$allocator@Vthread@std@@@2@@std@@CAXXZ DD 010401H
	DD	04204H
xdata	ENDS
;	COMDAT xdata
xdata	SEGMENT
$unwind$?_Tidy@?$vector@Vthread@std@@V?$allocator@Vthread@std@@@2@@std@@AEAAXXZ DD 020601H
	DD	030023206H
xdata	ENDS
;	COMDAT xdata
xdata	SEGMENT
$unwind$?_Reallocate_exactly@?$vector@Vthread@std@@V?$allocator@Vthread@std@@@2@@std@@AEAAX_K@Z DD 040a01H
	DD	08340aH
	DD	07006520aH
xdata	ENDS
;	COMDAT xdata
xdata	SEGMENT
$unwind$?_Tidy_deallocate_only@?$basic_string@DU?$char_traits@D@std@@V?$allocator@D@2@@std@@QEAAXXZ DD 010401H
	DD	04204H
xdata	ENDS
;	COMDAT xdata
xdata	SEGMENT
$chain$1$?append@?$basic_string@DU?$char_traits@D@std@@V?$allocator@D@2@@std@@QEAAAEAV12@QEBD_K@Z DD 021H
	DD	imagerel $LN142
	DD	imagerel $LN142+119
	DD	imagerel $unwind$?append@?$basic_string@DU?$char_traits@D@std@@V?$allocator@D@2@@std@@QEAAAEAV12@QEBD_K@Z
xdata	ENDS
;	COMDAT xdata
xdata	SEGMENT
$chain$0$?append@?$basic_string@DU?$char_traits@D@std@@V?$allocator@D@2@@std@@QEAAAEAV12@QEBD_K@Z DD 020521H
	DD	067405H
	DD	imagerel $LN142
	DD	imagerel $LN142+119
	DD	imagerel $unwind$?append@?$basic_string@DU?$char_traits@D@std@@V?$allocator@D@2@@std@@QEAAAEAV12@QEBD_K@Z
xdata	ENDS
;	COMDAT xdata
xdata	SEGMENT
$unwind$?append@?$basic_string@DU?$char_traits@D@std@@V?$allocator@D@2@@std@@QEAAAEAV12@QEBD_K@Z DD 060f01H
	DD	08540fH
	DD	07340fH
	DD	0600b320fH
xdata	ENDS
;	COMDAT xdata
xdata	SEGMENT
$chain$1$?append@?$basic_string@DU?$char_traits@D@std@@V?$allocator@D@2@@std@@QEAAAEAV12@AEBV12@_K_K@Z DD 021H
	DD	imagerel $LN151
	DD	imagerel $LN151+75
	DD	imagerel $unwind$?append@?$basic_string@DU?$char_traits@D@std@@V?$allocator@D@2@@std@@QEAAAEAV12@AEBV12@_K_K@Z
xdata	ENDS
;	COMDAT xdata
xdata	SEGMENT
$chain$0$?append@?$basic_string@DU?$char_traits@D@std@@V?$allocator@D@2@@std@@QEAAAEAV12@AEBV12@_K_K@Z DD 020521H
	DD	067405H
	DD	imagerel $LN151
	DD	imagerel $LN151+75
	DD	imagerel $unwind$?append@?$basic_string@DU?$char_traits@D@std@@V?$allocator@D@2@@std@@QEAAAEAV12@AEBV12@_K_K@Z
xdata	ENDS
;	COMDAT xdata
xdata	SEGMENT
$unwind$?append@?$basic_string@DU?$char_traits@D@std@@V?$allocator@D@2@@std@@QEAAAEAV12@AEBV12@_K_K@Z DD 081501H
	DD	096415H
	DD	085415H
	DD	073415H
	DD	0e0113215H
xdata	ENDS
;	COMDAT xdata
xdata	SEGMENT
$unwind$?_Assign_rv_contents@?$basic_string@DU?$char_traits@D@std@@V?$allocator@D@2@@std@@QEAAX$$QEAV12@@Z DD 040a01H
	DD	06340aH
	DD	07006320aH
xdata	ENDS
;	COMDAT xdata
xdata	SEGMENT
$unwind$?deallocate@?$_Wrap_alloc@V?$allocator@Vthread@std@@@std@@@std@@QEAAXPEAVthread@2@_K@Z DD 010401H
	DD	04204H
xdata	ENDS
;	COMDAT xdata
xdata	SEGMENT
$unwind$?allocate@?$_Wrap_alloc@V?$allocator@Vthread@std@@@std@@@std@@QEAAPEAVthread@2@_K@Z DD 010401H
	DD	04204H
xdata	ENDS
;	COMDAT xdata
xdata	SEGMENT
$unwind$?_Change_array@?$vector@Vthread@std@@V?$allocator@Vthread@std@@@2@@std@@AEAAXQEAVthread@2@_K1@Z DD 081401H
	DD	086414H
	DD	075414H
	DD	063414H
	DD	070103214H
xdata	ENDS
;	COMDAT xdata
xdata	SEGMENT
$unwind$?_Destroy@?$vector@Vthread@std@@V?$allocator@Vthread@std@@@2@@std@@AEAAXPEAVthread@2@0@Z DD 010401H
	DD	04204H
xdata	ENDS
;	COMDAT xdata
xdata	SEGMENT
$unwind$?_Umove_if_noexcept@?$vector@Vthread@std@@V?$allocator@Vthread@std@@@2@@std@@AEAAXPEAVthread@2@00@Z DD 010401H
	DD	06204H
xdata	ENDS
;	COMDAT xdata
xdata	SEGMENT
$unwind$?deallocate@?$_Wrap_alloc@V?$allocator@D@std@@@std@@QEAAXPEAD_K@Z DD 010401H
	DD	04204H
xdata	ENDS
;	COMDAT xdata
xdata	SEGMENT
$unwind$?_Check_offset@?$basic_string@DU?$char_traits@D@std@@V?$allocator@D@2@@std@@QEBAX_K@Z DD 010401H
	DD	04204H
xdata	ENDS
;	COMDAT xdata
xdata	SEGMENT
$unwind$?_Xlen@?$basic_string@DU?$char_traits@D@std@@V?$allocator@D@2@@std@@SAXXZ DD 010401H
	DD	04204H
xdata	ENDS
;	COMDAT xdata
xdata	SEGMENT
$unwind$?_Grow@?$basic_string@DU?$char_traits@D@std@@V?$allocator@D@2@@std@@QEAA_N_K@Z DD 010401H
	DD	04204H
xdata	ENDS
;	COMDAT xdata
xdata	SEGMENT
$unwind$?assign@?$basic_string@DU?$char_traits@D@std@@V?$allocator@D@2@@std@@QEAAAEAV12@QEBD_K@Z DD 060f01H
	DD	07640fH
	DD	06340fH
	DD	0700b320fH
xdata	ENDS
;	COMDAT xdata
xdata	SEGMENT
$unwind$?assign@?$basic_string@DU?$char_traits@D@std@@V?$allocator@D@2@@std@@QEAAAEAV12@AEBV12@_K_K@Z DD 081501H
	DD	087415H
	DD	076415H
	DD	063415H
	DD	0e0113215H
xdata	ENDS
;	COMDAT xdata
xdata	SEGMENT
$unwind$?_Umove_if_noexcept1@?$vector@Vthread@std@@V?$allocator@Vthread@std@@@2@@std@@AEAAXPEAVthread@2@00U?$integral_constant@_N$00@2@@Z DD 010401H
	DD	06204H
xdata	ENDS
;	COMDAT xdata
xdata	SEGMENT
$unwind$?allocate@?$allocator@Vthread@std@@@std@@QEAAPEAVthread@2@_K@Z DD 010401H
	DD	04204H
xdata	ENDS
;	COMDAT xdata
xdata	SEGMENT
$unwind$?deallocate@?$allocator@Vthread@std@@@std@@QEAAXPEAVthread@2@_K@Z DD 010401H
	DD	04204H
xdata	ENDS
;	COMDAT xdata
xdata	SEGMENT
$unwind$?_Xran@?$basic_string@DU?$char_traits@D@std@@V?$allocator@D@2@@std@@SAXXZ DD 010401H
	DD	04204H
xdata	ENDS
;	COMDAT xdata
xdata	SEGMENT
$unwind$?catch$16@?0??_Copy@?$basic_string@DU?$char_traits@D@std@@V?$allocator@D@2@@std@@QEAAX_K@Z@4HA DD 020a19H
	DD	05006320aH
	DD	imagerel __CxxFrameHandler3
	DD	imagerel $cppxdata$?_Copy@?$basic_string@DU?$char_traits@D@std@@V?$allocator@D@2@@std@@QEAAX_K@Z
xdata	ENDS
;	COMDAT xdata
xdata	SEGMENT
$ip2state$?_Copy@?$basic_string@DU?$char_traits@D@std@@V?$allocator@D@2@@std@@QEAAX_K@Z DD imagerel ?_Copy@?$basic_string@DU?$char_traits@D@std@@V?$allocator@D@2@@std@@QEAAX_K@Z
	DD	0ffffffffH
	DD	imagerel ?_Copy@?$basic_string@DU?$char_traits@D@std@@V?$allocator@D@2@@std@@QEAAX_K@Z+119
	DD	00H
	DD	imagerel ?_Copy@?$basic_string@DU?$char_traits@D@std@@V?$allocator@D@2@@std@@QEAAX_K@Z+185
	DD	0ffffffffH
	DD	imagerel ?catch$16@?0??_Copy@?$basic_string@DU?$char_traits@D@std@@V?$allocator@D@2@@std@@QEAAX_K@Z@4HA
	DD	00H
	DD	imagerel ?catch$16@?0??_Copy@?$basic_string@DU?$char_traits@D@std@@V?$allocator@D@2@@std@@QEAAX_K@Z@4HA+13
	DD	01H
	DD	imagerel ?catch$16@?0??_Copy@?$basic_string@DU?$char_traits@D@std@@V?$allocator@D@2@@std@@QEAAX_K@Z@4HA+37
	DD	00H
xdata	ENDS
;	COMDAT xdata
xdata	SEGMENT
$handlerMap$0$?_Copy@?$basic_string@DU?$char_traits@D@std@@V?$allocator@D@2@@std@@QEAAX_K@Z DD 040H
	DD	00H
	DD	00H
	DD	imagerel ?catch$16@?0??_Copy@?$basic_string@DU?$char_traits@D@std@@V?$allocator@D@2@@std@@QEAAX_K@Z@4HA
	DD	038H
xdata	ENDS
;	COMDAT xdata
xdata	SEGMENT
$tryMap$?_Copy@?$basic_string@DU?$char_traits@D@std@@V?$allocator@D@2@@std@@QEAAX_K@Z DD 00H
	DD	00H
	DD	01H
	DD	01H
	DD	imagerel $handlerMap$0$?_Copy@?$basic_string@DU?$char_traits@D@std@@V?$allocator@D@2@@std@@QEAAX_K@Z
xdata	ENDS
;	COMDAT xdata
xdata	SEGMENT
$stateUnwindMap$?_Copy@?$basic_string@DU?$char_traits@D@std@@V?$allocator@D@2@@std@@QEAAX_K@Z DD 0ffffffffH
	DD	00H
	DD	0ffffffffH
	DD	00H
xdata	ENDS
;	COMDAT CONST
CONST	SEGMENT
$cppxdata$?_Copy@?$basic_string@DU?$char_traits@D@std@@V?$allocator@D@2@@std@@QEAAX_K@Z DD 019930522H
	DD	02H
	DD	imagerel $stateUnwindMap$?_Copy@?$basic_string@DU?$char_traits@D@std@@V?$allocator@D@2@@std@@QEAAX_K@Z
	DD	01H
	DD	imagerel $tryMap$?_Copy@?$basic_string@DU?$char_traits@D@std@@V?$allocator@D@2@@std@@QEAAX_K@Z
	DD	06H
	DD	imagerel $ip2state$?_Copy@?$basic_string@DU?$char_traits@D@std@@V?$allocator@D@2@@std@@QEAAX_K@Z
	DD	020H
	DD	00H
	DD	01H
CONST	ENDS
;	COMDAT xdata
xdata	SEGMENT
$unwind$?_Copy@?$basic_string@DU?$char_traits@D@std@@V?$allocator@D@2@@std@@QEAAX_K@Z DD 051c19H
	DD	0e00f6213H
	DD	0600c700dH
	DD	0300bH
	DD	imagerel __CxxFrameHandler3
	DD	imagerel $cppxdata$?_Copy@?$basic_string@DU?$char_traits@D@std@@V?$allocator@D@2@@std@@QEAAX_K@Z
xdata	ENDS
;	COMDAT xdata
xdata	SEGMENT
$unwind$?erase@?$basic_string@DU?$char_traits@D@std@@V?$allocator@D@2@@std@@QEAAAEAV12@_K0@Z DD 040a01H
	DD	06340aH
	DD	07006320aH
xdata	ENDS
;	COMDAT xdata
xdata	SEGMENT
$unwind$?erase@?$basic_string@DU?$char_traits@D@std@@V?$allocator@D@2@@std@@QEAAAEAV12@_K@Z DD 010401H
	DD	04204H
xdata	ENDS
;	COMDAT xdata
xdata	SEGMENT
$unwind$?deallocate@?$allocator@D@std@@QEAAXPEAD_K@Z DD 010401H
	DD	04204H
xdata	ENDS
;	COMDAT xdata
xdata	SEGMENT
$unwind$?allocate@?$_Wrap_alloc@V?$allocator@D@std@@@std@@QEAAPEAD_K@Z DD 010401H
	DD	04204H
xdata	ENDS
;	COMDAT xdata
xdata	SEGMENT
$unwind$?allocate@?$allocator@D@std@@QEAAPEAD_K@Z DD 010401H
	DD	04204H
xdata	ENDS
;	COMDAT xdata
xdata	SEGMENT
$unwind$??$_Immortalize@V_Iostream_error_category@std@@@std@@YAAEAV_Iostream_error_category@0@XZ DD 010401H
	DD	04204H
xdata	ENDS
;	COMDAT xdata
xdata	SEGMENT
$unwind$?catch$13@?0???$?6U?$char_traits@D@std@@@std@@YAAEAV?$basic_ostream@DU?$char_traits@D@std@@@0@AEAV10@PEBD@Z@4HA DD 020a19H
	DD	05006320aH
	DD	imagerel __CxxFrameHandler3
	DD	imagerel $cppxdata$??$?6U?$char_traits@D@std@@@std@@YAAEAV?$basic_ostream@DU?$char_traits@D@std@@@0@AEAV10@PEBD@Z
xdata	ENDS
;	COMDAT xdata
xdata	SEGMENT
$ip2state$??$?6U?$char_traits@D@std@@@std@@YAAEAV?$basic_ostream@DU?$char_traits@D@std@@@0@AEAV10@PEBD@Z DD imagerel ??$?6U?$char_traits@D@std@@@std@@YAAEAV?$basic_ostream@DU?$char_traits@D@std@@@0@AEAV10@PEBD@Z
	DD	0ffffffffH
	DD	imagerel ??$?6U?$char_traits@D@std@@@std@@YAAEAV?$basic_ostream@DU?$char_traits@D@std@@@0@AEAV10@PEBD@Z+141
	DD	00H
	DD	imagerel ??$?6U?$char_traits@D@std@@@std@@YAAEAV?$basic_ostream@DU?$char_traits@D@std@@@0@AEAV10@PEBD@Z+195
	DD	01H
	DD	imagerel ??$?6U?$char_traits@D@std@@@std@@YAAEAV?$basic_ostream@DU?$char_traits@D@std@@@0@AEAV10@PEBD@Z+209
	DD	02H
	DD	imagerel ??$?6U?$char_traits@D@std@@@std@@YAAEAV?$basic_ostream@DU?$char_traits@D@std@@@0@AEAV10@PEBD@Z+478
	DD	01H
	DD	imagerel ??$?6U?$char_traits@D@std@@@std@@YAAEAV?$basic_ostream@DU?$char_traits@D@std@@@0@AEAV10@PEBD@Z+706
	DD	04H
	DD	imagerel ??$?6U?$char_traits@D@std@@@std@@YAAEAV?$basic_ostream@DU?$char_traits@D@std@@@0@AEAV10@PEBD@Z+724
	DD	05H
	DD	imagerel ??$?6U?$char_traits@D@std@@@std@@YAAEAV?$basic_ostream@DU?$char_traits@D@std@@@0@AEAV10@PEBD@Z+749
	DD	0ffffffffH
	DD	imagerel ?catch$13@?0???$?6U?$char_traits@D@std@@@std@@YAAEAV?$basic_ostream@DU?$char_traits@D@std@@@0@AEAV10@PEBD@Z@4HA
	DD	00H
	DD	imagerel ?catch$13@?0???$?6U?$char_traits@D@std@@@std@@YAAEAV?$basic_ostream@DU?$char_traits@D@std@@@0@AEAV10@PEBD@Z@4HA+13
	DD	03H
	DD	imagerel ?catch$13@?0???$?6U?$char_traits@D@std@@@std@@YAAEAV?$basic_ostream@DU?$char_traits@D@std@@@0@AEAV10@PEBD@Z@4HA+57
	DD	00H
	DD	imagerel ?catch$13@?0???$?6U?$char_traits@D@std@@@std@@YAAEAV?$basic_ostream@DU?$char_traits@D@std@@@0@AEAV10@PEBD@Z@4HA+66
	DD	03H
	DD	imagerel ?catch$13@?0???$?6U?$char_traits@D@std@@@std@@YAAEAV?$basic_ostream@DU?$char_traits@D@std@@@0@AEAV10@PEBD@Z@4HA+76
	DD	00H
xdata	ENDS
;	COMDAT xdata
xdata	SEGMENT
$handlerMap$0$??$?6U?$char_traits@D@std@@@std@@YAAEAV?$basic_ostream@DU?$char_traits@D@std@@@0@AEAV10@PEBD@Z DD 040H
	DD	00H
	DD	00H
	DD	imagerel ?catch$13@?0???$?6U?$char_traits@D@std@@@std@@YAAEAV?$basic_ostream@DU?$char_traits@D@std@@@0@AEAV10@PEBD@Z@4HA
	DD	038H
xdata	ENDS
;	COMDAT xdata
xdata	SEGMENT
$tryMap$??$?6U?$char_traits@D@std@@@std@@YAAEAV?$basic_ostream@DU?$char_traits@D@std@@@0@AEAV10@PEBD@Z DD 02H
	DD	02H
	DD	03H
	DD	01H
	DD	imagerel $handlerMap$0$??$?6U?$char_traits@D@std@@@std@@YAAEAV?$basic_ostream@DU?$char_traits@D@std@@@0@AEAV10@PEBD@Z
xdata	ENDS
;	COMDAT xdata
xdata	SEGMENT
$stateUnwindMap$??$?6U?$char_traits@D@std@@@std@@YAAEAV?$basic_ostream@DU?$char_traits@D@std@@@0@AEAV10@PEBD@Z DD 0ffffffffH
	DD	imagerel ?dtor$2@?0???$?6U?$char_traits@D@std@@@std@@YAAEAV?$basic_ostream@DU?$char_traits@D@std@@@0@AEAV10@PEBD@Z@4HA
	DD	0ffffffffH
	DD	imagerel ?dtor$0@?0???$?6U?$char_traits@D@std@@@std@@YAAEAV?$basic_ostream@DU?$char_traits@D@std@@@0@AEAV10@PEBD@Z@4HA
	DD	01H
	DD	00H
	DD	01H
	DD	00H
	DD	0ffffffffH
	DD	imagerel __std_terminate
	DD	04H
	DD	imagerel __std_terminate
xdata	ENDS
;	COMDAT CONST
CONST	SEGMENT
$cppxdata$??$?6U?$char_traits@D@std@@@std@@YAAEAV?$basic_ostream@DU?$char_traits@D@std@@@0@AEAV10@PEBD@Z DD 019930522H
	DD	06H
	DD	imagerel $stateUnwindMap$??$?6U?$char_traits@D@std@@@std@@YAAEAV?$basic_ostream@DU?$char_traits@D@std@@@0@AEAV10@PEBD@Z
	DD	01H
	DD	imagerel $tryMap$??$?6U?$char_traits@D@std@@@std@@YAAEAV?$basic_ostream@DU?$char_traits@D@std@@@0@AEAV10@PEBD@Z
	DD	0dH
	DD	imagerel $ip2state$??$?6U?$char_traits@D@std@@@std@@YAAEAV?$basic_ostream@DU?$char_traits@D@std@@@0@AEAV10@PEBD@Z
	DD	040H
	DD	00H
	DD	01H
CONST	ENDS
;	COMDAT xdata
xdata	SEGMENT
$unwind$??$?6U?$char_traits@D@std@@@std@@YAAEAV?$basic_ostream@DU?$char_traits@D@std@@@0@AEAV10@PEBD@Z DD 092519H
	DD	01f3425H
	DD	0180114H
	DD	0e00bf00dH
	DD	07007c009H
	DD	06006H
	DD	imagerel __CxxFrameHandler3
	DD	imagerel $cppxdata$??$?6U?$char_traits@D@std@@@std@@YAAEAV?$basic_ostream@DU?$char_traits@D@std@@@0@AEAV10@PEBD@Z
xdata	ENDS
;	COMDAT xdata
xdata	SEGMENT
$unwind$??$sleep_for@HU?$ratio@$0OBA@$00@std@@@this_thread@std@@YAXAEBV?$duration@HU?$ratio@$0OBA@$00@std@@@chrono@1@@Z DD 021519H
	DD	030027206H
	DD	imagerel __GSHandlerCheck
	DD	030H
xdata	ENDS
;	COMDAT xdata
xdata	SEGMENT
$unwind$?catch$95@?0???$emplace_back@V<lambda_e77d7e1e559843f44c4e0b6d970cdb28>@@@?$vector@Vthread@std@@V?$allocator@Vthread@std@@@2@@std@@QEAAX$$QEAV<lambda_e77d7e1e559843f44c4e0b6d970cdb28>@@@Z@4HA DD 030b19H
	DD	05007620bH
	DD	03006H
	DD	imagerel __CxxFrameHandler3
	DD	imagerel $cppxdata$??$emplace_back@V<lambda_e77d7e1e559843f44c4e0b6d970cdb28>@@@?$vector@Vthread@std@@V?$allocator@Vthread@std@@@2@@std@@QEAAX$$QEAV<lambda_e77d7e1e559843f44c4e0b6d970cdb28>@@@Z
xdata	ENDS
;	COMDAT xdata
xdata	SEGMENT
$unwind$?dtor$72@?0???$emplace_back@V<lambda_e77d7e1e559843f44c4e0b6d970cdb28>@@@?$vector@Vthread@std@@V?$allocator@Vthread@std@@@2@@std@@QEAAX$$QEAV<lambda_e77d7e1e559843f44c4e0b6d970cdb28>@@@Z@4HA DD 020601H
	DD	050023206H
xdata	ENDS
;	COMDAT xdata
xdata	SEGMENT
$unwind$?dtor$16@?0???$emplace_back@V<lambda_e77d7e1e559843f44c4e0b6d970cdb28>@@@?$vector@Vthread@std@@V?$allocator@Vthread@std@@@2@@std@@QEAAX$$QEAV<lambda_e77d7e1e559843f44c4e0b6d970cdb28>@@@Z@4HA DD 020601H
	DD	050023206H
xdata	ENDS
;	COMDAT xdata
xdata	SEGMENT
$ip2state$??$emplace_back@V<lambda_e77d7e1e559843f44c4e0b6d970cdb28>@@@?$vector@Vthread@std@@V?$allocator@Vthread@std@@@2@@std@@QEAAX$$QEAV<lambda_e77d7e1e559843f44c4e0b6d970cdb28>@@@Z DD imagerel ??$emplace_back@V<lambda_e77d7e1e559843f44c4e0b6d970cdb28>@@@?$vector@Vthread@std@@V?$allocator@Vthread@std@@@2@@std@@QEAAX$$QEAV<lambda_e77d7e1e559843f44c4e0b6d970cdb28>@@@Z
	DD	0ffffffffH
	DD	imagerel ??$emplace_back@V<lambda_e77d7e1e559843f44c4e0b6d970cdb28>@@@?$vector@Vthread@std@@V?$allocator@Vthread@std@@@2@@std@@QEAAX$$QEAV<lambda_e77d7e1e559843f44c4e0b6d970cdb28>@@@Z+50
	DD	00H
	DD	imagerel ??$emplace_back@V<lambda_e77d7e1e559843f44c4e0b6d970cdb28>@@@?$vector@Vthread@std@@V?$allocator@Vthread@std@@@2@@std@@QEAAX$$QEAV<lambda_e77d7e1e559843f44c4e0b6d970cdb28>@@@Z+65
	DD	01H
	DD	imagerel ??$emplace_back@V<lambda_e77d7e1e559843f44c4e0b6d970cdb28>@@@?$vector@Vthread@std@@V?$allocator@Vthread@std@@@2@@std@@QEAAX$$QEAV<lambda_e77d7e1e559843f44c4e0b6d970cdb28>@@@Z+77
	DD	00H
	DD	imagerel ??$emplace_back@V<lambda_e77d7e1e559843f44c4e0b6d970cdb28>@@@?$vector@Vthread@std@@V?$allocator@Vthread@std@@@2@@std@@QEAAX$$QEAV<lambda_e77d7e1e559843f44c4e0b6d970cdb28>@@@Z+101
	DD	0ffffffffH
	DD	imagerel ??$emplace_back@V<lambda_e77d7e1e559843f44c4e0b6d970cdb28>@@@?$vector@Vthread@std@@V?$allocator@Vthread@std@@@2@@std@@QEAAX$$QEAV<lambda_e77d7e1e559843f44c4e0b6d970cdb28>@@@Z+223
	DD	02H
	DD	imagerel ??$emplace_back@V<lambda_e77d7e1e559843f44c4e0b6d970cdb28>@@@?$vector@Vthread@std@@V?$allocator@Vthread@std@@@2@@std@@QEAAX$$QEAV<lambda_e77d7e1e559843f44c4e0b6d970cdb28>@@@Z+240
	DD	03H
	DD	imagerel ??$emplace_back@V<lambda_e77d7e1e559843f44c4e0b6d970cdb28>@@@?$vector@Vthread@std@@V?$allocator@Vthread@std@@@2@@std@@QEAAX$$QEAV<lambda_e77d7e1e559843f44c4e0b6d970cdb28>@@@Z+256
	DD	04H
	DD	imagerel ??$emplace_back@V<lambda_e77d7e1e559843f44c4e0b6d970cdb28>@@@?$vector@Vthread@std@@V?$allocator@Vthread@std@@@2@@std@@QEAAX$$QEAV<lambda_e77d7e1e559843f44c4e0b6d970cdb28>@@@Z+268
	DD	03H
	DD	imagerel ??$emplace_back@V<lambda_e77d7e1e559843f44c4e0b6d970cdb28>@@@?$vector@Vthread@std@@V?$allocator@Vthread@std@@@2@@std@@QEAAX$$QEAV<lambda_e77d7e1e559843f44c4e0b6d970cdb28>@@@Z+292
	DD	02H
	DD	imagerel ??$emplace_back@V<lambda_e77d7e1e559843f44c4e0b6d970cdb28>@@@?$vector@Vthread@std@@V?$allocator@Vthread@std@@@2@@std@@QEAAX$$QEAV<lambda_e77d7e1e559843f44c4e0b6d970cdb28>@@@Z+316
	DD	0ffffffffH
	DD	imagerel ?catch$95@?0???$emplace_back@V<lambda_e77d7e1e559843f44c4e0b6d970cdb28>@@@?$vector@Vthread@std@@V?$allocator@Vthread@std@@@2@@std@@QEAAX$$QEAV<lambda_e77d7e1e559843f44c4e0b6d970cdb28>@@@Z@4HA
	DD	00H
	DD	imagerel ?catch$95@?0???$emplace_back@V<lambda_e77d7e1e559843f44c4e0b6d970cdb28>@@@?$vector@Vthread@std@@V?$allocator@Vthread@std@@@2@@std@@QEAAX$$QEAV<lambda_e77d7e1e559843f44c4e0b6d970cdb28>@@@Z@4HA+14
	DD	05H
xdata	ENDS
;	COMDAT xdata
xdata	SEGMENT
$handlerMap$0$??$emplace_back@V<lambda_e77d7e1e559843f44c4e0b6d970cdb28>@@@?$vector@Vthread@std@@V?$allocator@Vthread@std@@@2@@std@@QEAAX$$QEAV<lambda_e77d7e1e559843f44c4e0b6d970cdb28>@@@Z DD 040H
	DD	00H
	DD	00H
	DD	imagerel ?catch$95@?0???$emplace_back@V<lambda_e77d7e1e559843f44c4e0b6d970cdb28>@@@?$vector@Vthread@std@@V?$allocator@Vthread@std@@@2@@std@@QEAAX$$QEAV<lambda_e77d7e1e559843f44c4e0b6d970cdb28>@@@Z@4HA
	DD	058H
xdata	ENDS
;	COMDAT xdata
xdata	SEGMENT
$tryMap$??$emplace_back@V<lambda_e77d7e1e559843f44c4e0b6d970cdb28>@@@?$vector@Vthread@std@@V?$allocator@Vthread@std@@@2@@std@@QEAAX$$QEAV<lambda_e77d7e1e559843f44c4e0b6d970cdb28>@@@Z DD 02H
	DD	04H
	DD	05H
	DD	01H
	DD	imagerel $handlerMap$0$??$emplace_back@V<lambda_e77d7e1e559843f44c4e0b6d970cdb28>@@@?$vector@Vthread@std@@V?$allocator@Vthread@std@@@2@@std@@QEAAX$$QEAV<lambda_e77d7e1e559843f44c4e0b6d970cdb28>@@@Z
xdata	ENDS
;	COMDAT xdata
xdata	SEGMENT
$stateUnwindMap$??$emplace_back@V<lambda_e77d7e1e559843f44c4e0b6d970cdb28>@@@?$vector@Vthread@std@@V?$allocator@Vthread@std@@@2@@std@@QEAAX$$QEAV<lambda_e77d7e1e559843f44c4e0b6d970cdb28>@@@Z DD 0ffffffffH
	DD	imagerel ?dtor$16@?0???$emplace_back@V<lambda_e77d7e1e559843f44c4e0b6d970cdb28>@@@?$vector@Vthread@std@@V?$allocator@Vthread@std@@@2@@std@@QEAAX$$QEAV<lambda_e77d7e1e559843f44c4e0b6d970cdb28>@@@Z@4HA
	DD	00H
	DD	imagerel ?dtor$18@?0???$emplace_back@V<lambda_e77d7e1e559843f44c4e0b6d970cdb28>@@@?$vector@Vthread@std@@V?$allocator@Vthread@std@@@2@@std@@QEAAX$$QEAV<lambda_e77d7e1e559843f44c4e0b6d970cdb28>@@@Z@4HA
	DD	0ffffffffH
	DD	00H
	DD	02H
	DD	imagerel ?dtor$72@?0???$emplace_back@V<lambda_e77d7e1e559843f44c4e0b6d970cdb28>@@@?$vector@Vthread@std@@V?$allocator@Vthread@std@@@2@@std@@QEAAX$$QEAV<lambda_e77d7e1e559843f44c4e0b6d970cdb28>@@@Z@4HA
	DD	03H
	DD	imagerel ?dtor$74@?0???$emplace_back@V<lambda_e77d7e1e559843f44c4e0b6d970cdb28>@@@?$vector@Vthread@std@@V?$allocator@Vthread@std@@@2@@std@@QEAAX$$QEAV<lambda_e77d7e1e559843f44c4e0b6d970cdb28>@@@Z@4HA
	DD	0ffffffffH
	DD	00H
xdata	ENDS
;	COMDAT CONST
CONST	SEGMENT
$cppxdata$??$emplace_back@V<lambda_e77d7e1e559843f44c4e0b6d970cdb28>@@@?$vector@Vthread@std@@V?$allocator@Vthread@std@@@2@@std@@QEAAX$$QEAV<lambda_e77d7e1e559843f44c4e0b6d970cdb28>@@@Z DD 019930522H
	DD	06H
	DD	imagerel $stateUnwindMap$??$emplace_back@V<lambda_e77d7e1e559843f44c4e0b6d970cdb28>@@@?$vector@Vthread@std@@V?$allocator@Vthread@std@@@2@@std@@QEAAX$$QEAV<lambda_e77d7e1e559843f44c4e0b6d970cdb28>@@@Z
	DD	01H
	DD	imagerel $tryMap$??$emplace_back@V<lambda_e77d7e1e559843f44c4e0b6d970cdb28>@@@?$vector@Vthread@std@@V?$allocator@Vthread@std@@@2@@std@@QEAAX$$QEAV<lambda_e77d7e1e559843f44c4e0b6d970cdb28>@@@Z
	DD	0dH
	DD	imagerel $ip2state$??$emplace_back@V<lambda_e77d7e1e559843f44c4e0b6d970cdb28>@@@?$vector@Vthread@std@@V?$allocator@Vthread@std@@@2@@std@@QEAAX$$QEAV<lambda_e77d7e1e559843f44c4e0b6d970cdb28>@@@Z
	DD	038H
	DD	00H
	DD	01H
CONST	ENDS
;	COMDAT xdata
xdata	SEGMENT
$unwind$??$emplace_back@V<lambda_e77d7e1e559843f44c4e0b6d970cdb28>@@@?$vector@Vthread@std@@V?$allocator@Vthread@std@@@2@@std@@QEAAX$$QEAV<lambda_e77d7e1e559843f44c4e0b6d970cdb28>@@@Z DD 061a19H
	DD	0f00e9212H
	DD	0700ae00cH
	DD	030086009H
	DD	imagerel __CxxFrameHandler3
	DD	imagerel $cppxdata$??$emplace_back@V<lambda_e77d7e1e559843f44c4e0b6d970cdb28>@@@?$vector@Vthread@std@@V?$allocator@Vthread@std@@@2@@std@@QEAAX$$QEAV<lambda_e77d7e1e559843f44c4e0b6d970cdb28>@@@Z
xdata	ENDS
;	COMDAT xdata
xdata	SEGMENT
$unwind$??$_Destroy_range@V?$allocator@Vthread@std@@@std@@PEAVthread@2@@std@@YAXPEAVthread@0@0AEAU?$_Wrap_alloc@V?$allocator@Vthread@std@@@std@@@0@@Z DD 010401H
	DD	04204H
xdata	ENDS
;	COMDAT xdata
xdata	SEGMENT
$unwind$??$_Uninitialized_move@PEAVthread@std@@PEAV12@V?$allocator@Vthread@std@@@2@@std@@YAPEAVthread@0@PEAV10@00AEAU?$_Wrap_alloc@V?$allocator@Vthread@std@@@std@@@0@@Z DD 010401H
	DD	06204H
xdata	ENDS
;	COMDAT xdata
xdata	SEGMENT
$ip2state$??1sentry@?$basic_ostream@DU?$char_traits@D@std@@@std@@QEAA@XZ DD imagerel ??1sentry@?$basic_ostream@DU?$char_traits@D@std@@@std@@QEAA@XZ
	DD	0ffffffffH
	DD	imagerel ??1sentry@?$basic_ostream@DU?$char_traits@D@std@@@std@@QEAA@XZ+37
	DD	00H
	DD	imagerel ??1sentry@?$basic_ostream@DU?$char_traits@D@std@@@std@@QEAA@XZ+64
	DD	0ffffffffH
xdata	ENDS
;	COMDAT xdata
xdata	SEGMENT
$stateUnwindMap$??1sentry@?$basic_ostream@DU?$char_traits@D@std@@@std@@QEAA@XZ DD 0ffffffffH
	DD	imagerel __std_terminate
xdata	ENDS
;	COMDAT CONST
CONST	SEGMENT
$cppxdata$??1sentry@?$basic_ostream@DU?$char_traits@D@std@@@std@@QEAA@XZ DD 019930522H
	DD	01H
	DD	imagerel $stateUnwindMap$??1sentry@?$basic_ostream@DU?$char_traits@D@std@@@std@@QEAA@XZ
	DD	00H
	DD	00H
	DD	03H
	DD	imagerel $ip2state$??1sentry@?$basic_ostream@DU?$char_traits@D@std@@@std@@QEAA@XZ
	DD	020H
	DD	00H
	DD	05H
CONST	ENDS
;	COMDAT xdata
xdata	SEGMENT
$unwind$??1sentry@?$basic_ostream@DU?$char_traits@D@std@@@std@@QEAA@XZ DD 020f19H
	DD	030025206H
	DD	imagerel __CxxFrameHandler3
	DD	imagerel $cppxdata$??1sentry@?$basic_ostream@DU?$char_traits@D@std@@@std@@QEAA@XZ
xdata	ENDS
;	COMDAT xdata
xdata	SEGMENT
$ip2state$??0sentry@?$basic_ostream@DU?$char_traits@D@std@@@std@@QEAA@AEAV12@@Z DD imagerel ??0sentry@?$basic_ostream@DU?$char_traits@D@std@@@std@@QEAA@AEAV12@@Z
	DD	0ffffffffH
	DD	imagerel ??0sentry@?$basic_ostream@DU?$char_traits@D@std@@@std@@QEAA@AEAV12@@Z+57
	DD	00H
	DD	imagerel ??0sentry@?$basic_ostream@DU?$char_traits@D@std@@@std@@QEAA@AEAV12@@Z+109
	DD	0ffffffffH
xdata	ENDS
;	COMDAT xdata
xdata	SEGMENT
$stateUnwindMap$??0sentry@?$basic_ostream@DU?$char_traits@D@std@@@std@@QEAA@AEAV12@@Z DD 0ffffffffH
	DD	imagerel ?dtor$0@?0???0sentry@?$basic_ostream@DU?$char_traits@D@std@@@std@@QEAA@AEAV12@@Z@4HA
xdata	ENDS
;	COMDAT CONST
CONST	SEGMENT
$cppxdata$??0sentry@?$basic_ostream@DU?$char_traits@D@std@@@std@@QEAA@AEAV12@@Z DD 019930522H
	DD	01H
	DD	imagerel $stateUnwindMap$??0sentry@?$basic_ostream@DU?$char_traits@D@std@@@std@@QEAA@AEAV12@@Z
	DD	00H
	DD	00H
	DD	03H
	DD	imagerel $ip2state$??0sentry@?$basic_ostream@DU?$char_traits@D@std@@@std@@QEAA@AEAV12@@Z
	DD	020H
	DD	00H
	DD	01H
CONST	ENDS
;	COMDAT xdata
xdata	SEGMENT
$unwind$??0sentry@?$basic_ostream@DU?$char_traits@D@std@@@std@@QEAA@AEAV12@@Z DD 041811H
	DD	093418H
	DD	07006520aH
	DD	imagerel __CxxFrameHandler3
	DD	imagerel $cppxdata$??0sentry@?$basic_ostream@DU?$char_traits@D@std@@@std@@QEAA@AEAV12@@Z
xdata	ENDS
;	COMDAT xdata
xdata	SEGMENT
$ip2state$??1_Sentry_base@?$basic_ostream@DU?$char_traits@D@std@@@std@@QEAA@XZ DD imagerel ??1_Sentry_base@?$basic_ostream@DU?$char_traits@D@std@@@std@@QEAA@XZ
	DD	0ffffffffH
xdata	ENDS
;	COMDAT CONST
CONST	SEGMENT
$cppxdata$??1_Sentry_base@?$basic_ostream@DU?$char_traits@D@std@@@std@@QEAA@XZ DD 019930522H
	DD	00H
	DD	00H
	DD	00H
	DD	00H
	DD	01H
	DD	imagerel $ip2state$??1_Sentry_base@?$basic_ostream@DU?$char_traits@D@std@@@std@@QEAA@XZ
	DD	020H
	DD	00H
	DD	05H
CONST	ENDS
;	COMDAT xdata
xdata	SEGMENT
$unwind$??1_Sentry_base@?$basic_ostream@DU?$char_traits@D@std@@@std@@QEAA@XZ DD 010d19H
	DD	06204H
	DD	imagerel __CxxFrameHandler3
	DD	imagerel $cppxdata$??1_Sentry_base@?$basic_ostream@DU?$char_traits@D@std@@@std@@QEAA@XZ
xdata	ENDS
;	COMDAT xdata
xdata	SEGMENT
$unwind$??0_Sentry_base@?$basic_ostream@DU?$char_traits@D@std@@@std@@QEAA@AEAV12@@Z DD 020601H
	DD	030023206H
xdata	ENDS
;	COMDAT xdata
xdata	SEGMENT
$ip2state$?flush@?$basic_ostream@DU?$char_traits@D@std@@@std@@QEAAAEAV12@XZ DD imagerel ?flush@?$basic_ostream@DU?$char_traits@D@std@@@std@@QEAAAEAV12@XZ
	DD	0ffffffffH
	DD	imagerel ?flush@?$basic_ostream@DU?$char_traits@D@std@@@std@@QEAAAEAV12@XZ+51
	DD	00H
	DD	imagerel ?flush@?$basic_ostream@DU?$char_traits@D@std@@@std@@QEAAAEAV12@XZ+281
	DD	01H
	DD	imagerel ?flush@?$basic_ostream@DU?$char_traits@D@std@@@std@@QEAAAEAV12@XZ+301
	DD	02H
	DD	imagerel ?flush@?$basic_ostream@DU?$char_traits@D@std@@@std@@QEAAAEAV12@XZ+330
	DD	0ffffffffH
xdata	ENDS
;	COMDAT xdata
xdata	SEGMENT
$stateUnwindMap$?flush@?$basic_ostream@DU?$char_traits@D@std@@@std@@QEAAAEAV12@XZ DD 0ffffffffH
	DD	imagerel ?dtor$0@?0??flush@?$basic_ostream@DU?$char_traits@D@std@@@std@@QEAAAEAV12@XZ@4HA
	DD	0ffffffffH
	DD	imagerel __std_terminate
	DD	01H
	DD	imagerel __std_terminate
xdata	ENDS
;	COMDAT CONST
CONST	SEGMENT
$cppxdata$?flush@?$basic_ostream@DU?$char_traits@D@std@@@std@@QEAAAEAV12@XZ DD 019930522H
	DD	03H
	DD	imagerel $stateUnwindMap$?flush@?$basic_ostream@DU?$char_traits@D@std@@@std@@QEAAAEAV12@XZ
	DD	00H
	DD	00H
	DD	05H
	DD	imagerel $ip2state$?flush@?$basic_ostream@DU?$char_traits@D@std@@@std@@QEAAAEAV12@XZ
	DD	020H
	DD	00H
	DD	01H
CONST	ENDS
;	COMDAT xdata
xdata	SEGMENT
$unwind$?flush@?$basic_ostream@DU?$char_traits@D@std@@@std@@QEAAAEAV12@XZ DD 020f11H
	DD	03002d206H
	DD	imagerel __CxxFrameHandler3
	DD	imagerel $cppxdata$?flush@?$basic_ostream@DU?$char_traits@D@std@@@std@@QEAAAEAV12@XZ
xdata	ENDS
;	COMDAT xdata
xdata	SEGMENT
$unwind$?catch$0@?0??_Osfx@?$basic_ostream@DU?$char_traits@D@std@@@std@@QEAAXXZ@4HA DD 020a19H
	DD	05006320aH
	DD	imagerel __CxxFrameHandler3
	DD	imagerel $cppxdata$?_Osfx@?$basic_ostream@DU?$char_traits@D@std@@@std@@QEAAXXZ
xdata	ENDS
;	COMDAT xdata
xdata	SEGMENT
$ip2state$?_Osfx@?$basic_ostream@DU?$char_traits@D@std@@@std@@QEAAXXZ DD imagerel ?_Osfx@?$basic_ostream@DU?$char_traits@D@std@@@std@@QEAAXXZ
	DD	0ffffffffH
	DD	imagerel ?_Osfx@?$basic_ostream@DU?$char_traits@D@std@@@std@@QEAAXXZ+21
	DD	00H
	DD	imagerel ?_Osfx@?$basic_ostream@DU?$char_traits@D@std@@@std@@QEAAXXZ+266
	DD	0ffffffffH
	DD	imagerel ?catch$0@?0??_Osfx@?$basic_ostream@DU?$char_traits@D@std@@@std@@QEAAXXZ@4HA
	DD	00H
xdata	ENDS
;	COMDAT xdata
xdata	SEGMENT
$handlerMap$0$?_Osfx@?$basic_ostream@DU?$char_traits@D@std@@@std@@QEAAXXZ DD 040H
	DD	00H
	DD	00H
	DD	imagerel ?catch$0@?0??_Osfx@?$basic_ostream@DU?$char_traits@D@std@@@std@@QEAAXXZ@4HA
	DD	038H
xdata	ENDS
;	COMDAT xdata
xdata	SEGMENT
$tryMap$?_Osfx@?$basic_ostream@DU?$char_traits@D@std@@@std@@QEAAXXZ DD 00H
	DD	00H
	DD	01H
	DD	01H
	DD	imagerel $handlerMap$0$?_Osfx@?$basic_ostream@DU?$char_traits@D@std@@@std@@QEAAXXZ
xdata	ENDS
;	COMDAT xdata
xdata	SEGMENT
$stateUnwindMap$?_Osfx@?$basic_ostream@DU?$char_traits@D@std@@@std@@QEAAXXZ DD 0ffffffffH
	DD	00H
	DD	0ffffffffH
	DD	00H
xdata	ENDS
;	COMDAT CONST
CONST	SEGMENT
$cppxdata$?_Osfx@?$basic_ostream@DU?$char_traits@D@std@@@std@@QEAAXXZ DD 019930522H
	DD	02H
	DD	imagerel $stateUnwindMap$?_Osfx@?$basic_ostream@DU?$char_traits@D@std@@@std@@QEAAXXZ
	DD	01H
	DD	imagerel $tryMap$?_Osfx@?$basic_ostream@DU?$char_traits@D@std@@@std@@QEAAXXZ
	DD	04H
	DD	imagerel $ip2state$?_Osfx@?$basic_ostream@DU?$char_traits@D@std@@@std@@QEAAXXZ
	DD	030H
	DD	00H
	DD	01H
CONST	ENDS
;	COMDAT xdata
xdata	SEGMENT
$unwind$?_Osfx@?$basic_ostream@DU?$char_traits@D@std@@@std@@QEAAXXZ DD 031219H
	DD	0160109H
	DD	03002H
	DD	imagerel __CxxFrameHandler3
	DD	imagerel $cppxdata$?_Osfx@?$basic_ostream@DU?$char_traits@D@std@@@std@@QEAAXXZ
xdata	ENDS
;	COMDAT xdata
xdata	SEGMENT
$unwind$??$_To_xtime@HU?$ratio@$0OBA@$00@std@@@std@@YA?AUxtime@@AEBV?$duration@HU?$ratio@$0OBA@$00@std@@@chrono@0@@Z DD 040a01H
	DD	06340aH
	DD	07006320aH
xdata	ENDS
;	COMDAT xdata
xdata	SEGMENT
$unwind$?dtor$8@?0???$_Emplace_back_with_unused_capacity@V<lambda_e77d7e1e559843f44c4e0b6d970cdb28>@@@?$vector@Vthread@std@@V?$allocator@Vthread@std@@@2@@std@@AEAAX$$QEAV<lambda_e77d7e1e559843f44c4e0b6d970cdb28>@@@Z@4HA DD 020601H
	DD	050023206H
xdata	ENDS
;	COMDAT xdata
xdata	SEGMENT
$ip2state$??$_Emplace_back_with_unused_capacity@V<lambda_e77d7e1e559843f44c4e0b6d970cdb28>@@@?$vector@Vthread@std@@V?$allocator@Vthread@std@@@2@@std@@AEAAX$$QEAV<lambda_e77d7e1e559843f44c4e0b6d970cdb28>@@@Z DD imagerel ??$_Emplace_back_with_unused_capacity@V<lambda_e77d7e1e559843f44c4e0b6d970cdb28>@@@?$vector@Vthread@std@@V?$allocator@Vthread@std@@@2@@std@@AEAAX$$QEAV<lambda_e77d7e1e559843f44c4e0b6d970cdb28>@@@Z
	DD	0ffffffffH
	DD	imagerel ??$_Emplace_back_with_unused_capacity@V<lambda_e77d7e1e559843f44c4e0b6d970cdb28>@@@?$vector@Vthread@std@@V?$allocator@Vthread@std@@@2@@std@@AEAAX$$QEAV<lambda_e77d7e1e559843f44c4e0b6d970cdb28>@@@Z+41
	DD	00H
	DD	imagerel ??$_Emplace_back_with_unused_capacity@V<lambda_e77d7e1e559843f44c4e0b6d970cdb28>@@@?$vector@Vthread@std@@V?$allocator@Vthread@std@@@2@@std@@AEAAX$$QEAV<lambda_e77d7e1e559843f44c4e0b6d970cdb28>@@@Z+57
	DD	01H
	DD	imagerel ??$_Emplace_back_with_unused_capacity@V<lambda_e77d7e1e559843f44c4e0b6d970cdb28>@@@?$vector@Vthread@std@@V?$allocator@Vthread@std@@@2@@std@@AEAAX$$QEAV<lambda_e77d7e1e559843f44c4e0b6d970cdb28>@@@Z+69
	DD	00H
	DD	imagerel ??$_Emplace_back_with_unused_capacity@V<lambda_e77d7e1e559843f44c4e0b6d970cdb28>@@@?$vector@Vthread@std@@V?$allocator@Vthread@std@@@2@@std@@AEAAX$$QEAV<lambda_e77d7e1e559843f44c4e0b6d970cdb28>@@@Z+90
	DD	0ffffffffH
xdata	ENDS
;	COMDAT xdata
xdata	SEGMENT
$stateUnwindMap$??$_Emplace_back_with_unused_capacity@V<lambda_e77d7e1e559843f44c4e0b6d970cdb28>@@@?$vector@Vthread@std@@V?$allocator@Vthread@std@@@2@@std@@AEAAX$$QEAV<lambda_e77d7e1e559843f44c4e0b6d970cdb28>@@@Z DD 0ffffffffH
	DD	imagerel ?dtor$8@?0???$_Emplace_back_with_unused_capacity@V<lambda_e77d7e1e559843f44c4e0b6d970cdb28>@@@?$vector@Vthread@std@@V?$allocator@Vthread@std@@@2@@std@@AEAAX$$QEAV<lambda_e77d7e1e559843f44c4e0b6d970cdb28>@@@Z@4HA
	DD	00H
	DD	imagerel ?dtor$10@?0???$_Emplace_back_with_unused_capacity@V<lambda_e77d7e1e559843f44c4e0b6d970cdb28>@@@?$vector@Vthread@std@@V?$allocator@Vthread@std@@@2@@std@@AEAAX$$QEAV<lambda_e77d7e1e559843f44c4e0b6d970cdb28>@@@Z@4HA
xdata	ENDS
;	COMDAT CONST
CONST	SEGMENT
$cppxdata$??$_Emplace_back_with_unused_capacity@V<lambda_e77d7e1e559843f44c4e0b6d970cdb28>@@@?$vector@Vthread@std@@V?$allocator@Vthread@std@@@2@@std@@AEAAX$$QEAV<lambda_e77d7e1e559843f44c4e0b6d970cdb28>@@@Z DD 019930522H
	DD	02H
	DD	imagerel $stateUnwindMap$??$_Emplace_back_with_unused_capacity@V<lambda_e77d7e1e559843f44c4e0b6d970cdb28>@@@?$vector@Vthread@std@@V?$allocator@Vthread@std@@@2@@std@@AEAAX$$QEAV<lambda_e77d7e1e559843f44c4e0b6d970cdb28>@@@Z
	DD	00H
	DD	00H
	DD	05H
	DD	imagerel $ip2state$??$_Emplace_back_with_unused_capacity@V<lambda_e77d7e1e559843f44c4e0b6d970cdb28>@@@?$vector@Vthread@std@@V?$allocator@Vthread@std@@@2@@std@@AEAAX$$QEAV<lambda_e77d7e1e559843f44c4e0b6d970cdb28>@@@Z
	DD	020H
	DD	00H
	DD	01H
CONST	ENDS
;	COMDAT xdata
xdata	SEGMENT
$unwind$??$_Emplace_back_with_unused_capacity@V<lambda_e77d7e1e559843f44c4e0b6d970cdb28>@@@?$vector@Vthread@std@@V?$allocator@Vthread@std@@@2@@std@@AEAAX$$QEAV<lambda_e77d7e1e559843f44c4e0b6d970cdb28>@@@Z DD 041811H
	DD	0b3418H
	DD	07006520aH
	DD	imagerel __CxxFrameHandler3
	DD	imagerel $cppxdata$??$_Emplace_back_with_unused_capacity@V<lambda_e77d7e1e559843f44c4e0b6d970cdb28>@@@?$vector@Vthread@std@@V?$allocator@Vthread@std@@@2@@std@@AEAAX$$QEAV<lambda_e77d7e1e559843f44c4e0b6d970cdb28>@@@Z
xdata	ENDS
;	COMDAT xdata
xdata	SEGMENT
$unwind$?dtor$2@?0???$construct@Vthread@std@@V<lambda_e77d7e1e559843f44c4e0b6d970cdb28>@@@?$_Wrap_alloc@V?$allocator@Vthread@std@@@std@@@std@@QEAAXPEAVthread@1@$$QEAV<lambda_e77d7e1e559843f44c4e0b6d970cdb28>@@@Z@4HA DD 020601H
	DD	050023206H
xdata	ENDS
;	COMDAT xdata
xdata	SEGMENT
$ip2state$??$construct@Vthread@std@@V<lambda_e77d7e1e559843f44c4e0b6d970cdb28>@@@?$_Wrap_alloc@V?$allocator@Vthread@std@@@std@@@std@@QEAAXPEAVthread@1@$$QEAV<lambda_e77d7e1e559843f44c4e0b6d970cdb28>@@@Z DD imagerel ??$construct@Vthread@std@@V<lambda_e77d7e1e559843f44c4e0b6d970cdb28>@@@?$_Wrap_alloc@V?$allocator@Vthread@std@@@std@@@std@@QEAAXPEAVthread@1@$$QEAV<lambda_e77d7e1e559843f44c4e0b6d970cdb28>@@@Z
	DD	0ffffffffH
	DD	imagerel ??$construct@Vthread@std@@V<lambda_e77d7e1e559843f44c4e0b6d970cdb28>@@@?$_Wrap_alloc@V?$allocator@Vthread@std@@@std@@@std@@QEAAXPEAVthread@1@$$QEAV<lambda_e77d7e1e559843f44c4e0b6d970cdb28>@@@Z+37
	DD	00H
	DD	imagerel ??$construct@Vthread@std@@V<lambda_e77d7e1e559843f44c4e0b6d970cdb28>@@@?$_Wrap_alloc@V?$allocator@Vthread@std@@@std@@@std@@QEAAXPEAVthread@1@$$QEAV<lambda_e77d7e1e559843f44c4e0b6d970cdb28>@@@Z+53
	DD	01H
	DD	imagerel ??$construct@Vthread@std@@V<lambda_e77d7e1e559843f44c4e0b6d970cdb28>@@@?$_Wrap_alloc@V?$allocator@Vthread@std@@@std@@@std@@QEAAXPEAVthread@1@$$QEAV<lambda_e77d7e1e559843f44c4e0b6d970cdb28>@@@Z+65
	DD	00H
	DD	imagerel ??$construct@Vthread@std@@V<lambda_e77d7e1e559843f44c4e0b6d970cdb28>@@@?$_Wrap_alloc@V?$allocator@Vthread@std@@@std@@@std@@QEAAXPEAVthread@1@$$QEAV<lambda_e77d7e1e559843f44c4e0b6d970cdb28>@@@Z+86
	DD	0ffffffffH
xdata	ENDS
;	COMDAT xdata
xdata	SEGMENT
$stateUnwindMap$??$construct@Vthread@std@@V<lambda_e77d7e1e559843f44c4e0b6d970cdb28>@@@?$_Wrap_alloc@V?$allocator@Vthread@std@@@std@@@std@@QEAAXPEAVthread@1@$$QEAV<lambda_e77d7e1e559843f44c4e0b6d970cdb28>@@@Z DD 0ffffffffH
	DD	imagerel ?dtor$2@?0???$construct@Vthread@std@@V<lambda_e77d7e1e559843f44c4e0b6d970cdb28>@@@?$_Wrap_alloc@V?$allocator@Vthread@std@@@std@@@std@@QEAAXPEAVthread@1@$$QEAV<lambda_e77d7e1e559843f44c4e0b6d970cdb28>@@@Z@4HA
	DD	00H
	DD	imagerel ?dtor$4@?0???$construct@Vthread@std@@V<lambda_e77d7e1e559843f44c4e0b6d970cdb28>@@@?$_Wrap_alloc@V?$allocator@Vthread@std@@@std@@@std@@QEAAXPEAVthread@1@$$QEAV<lambda_e77d7e1e559843f44c4e0b6d970cdb28>@@@Z@4HA
xdata	ENDS
;	COMDAT CONST
CONST	SEGMENT
$cppxdata$??$construct@Vthread@std@@V<lambda_e77d7e1e559843f44c4e0b6d970cdb28>@@@?$_Wrap_alloc@V?$allocator@Vthread@std@@@std@@@std@@QEAAXPEAVthread@1@$$QEAV<lambda_e77d7e1e559843f44c4e0b6d970cdb28>@@@Z DD 019930522H
	DD	02H
	DD	imagerel $stateUnwindMap$??$construct@Vthread@std@@V<lambda_e77d7e1e559843f44c4e0b6d970cdb28>@@@?$_Wrap_alloc@V?$allocator@Vthread@std@@@std@@@std@@QEAAXPEAVthread@1@$$QEAV<lambda_e77d7e1e559843f44c4e0b6d970cdb28>@@@Z
	DD	00H
	DD	00H
	DD	05H
	DD	imagerel $ip2state$??$construct@Vthread@std@@V<lambda_e77d7e1e559843f44c4e0b6d970cdb28>@@@?$_Wrap_alloc@V?$allocator@Vthread@std@@@std@@@std@@QEAAXPEAVthread@1@$$QEAV<lambda_e77d7e1e559843f44c4e0b6d970cdb28>@@@Z
	DD	020H
	DD	00H
	DD	01H
CONST	ENDS
;	COMDAT xdata
xdata	SEGMENT
$unwind$??$construct@Vthread@std@@V<lambda_e77d7e1e559843f44c4e0b6d970cdb28>@@@?$_Wrap_alloc@V?$allocator@Vthread@std@@@std@@@std@@QEAAXPEAVthread@1@$$QEAV<lambda_e77d7e1e559843f44c4e0b6d970cdb28>@@@Z DD 021d11H
	DD	030105214H
	DD	imagerel __CxxFrameHandler3
	DD	imagerel $cppxdata$??$construct@Vthread@std@@V<lambda_e77d7e1e559843f44c4e0b6d970cdb28>@@@?$_Wrap_alloc@V?$allocator@Vthread@std@@@std@@@std@@QEAAXPEAVthread@1@$$QEAV<lambda_e77d7e1e559843f44c4e0b6d970cdb28>@@@Z
xdata	ENDS
;	COMDAT xdata
xdata	SEGMENT
$unwind$??$destroy@Vthread@std@@@?$_Wrap_alloc@V?$allocator@Vthread@std@@@std@@@std@@QEAAXPEAVthread@1@@Z DD 010401H
	DD	04204H
xdata	ENDS
;	COMDAT xdata
xdata	SEGMENT
$unwind$??$_Destroy_range1@V?$allocator@Vthread@std@@@std@@PEAVthread@2@@std@@YAXPEAVthread@0@0AEAU?$_Wrap_alloc@V?$allocator@Vthread@std@@@std@@@0@U?$integral_constant@_N$0A@@0@@Z DD 010401H
	DD	04204H
xdata	ENDS
;	COMDAT xdata
xdata	SEGMENT
$unwind$??$_Uninitialized_move_al_unchecked@PEAVthread@std@@PEAV12@V?$allocator@Vthread@std@@@2@@std@@YAPEAVthread@0@PEAV10@00AEAU?$_Wrap_alloc@V?$allocator@Vthread@std@@@std@@@0@@Z DD 010401H
	DD	06204H
xdata	ENDS
;	COMDAT xdata
xdata	SEGMENT
$unwind$?dtor$1@?0???$construct@Vthread@std@@V<lambda_e77d7e1e559843f44c4e0b6d970cdb28>@@@?$allocator_traits@V?$allocator@Vthread@std@@@std@@@std@@SAXAEAV?$allocator@Vthread@std@@@1@PEAVthread@1@$$QEAV<lambda_e77d7e1e559843f44c4e0b6d970cdb28>@@@Z@4HA DD 020601H
	DD	050023206H
xdata	ENDS
;	COMDAT xdata
xdata	SEGMENT
$ip2state$??$construct@Vthread@std@@V<lambda_e77d7e1e559843f44c4e0b6d970cdb28>@@@?$allocator_traits@V?$allocator@Vthread@std@@@std@@@std@@SAXAEAV?$allocator@Vthread@std@@@1@PEAVthread@1@$$QEAV<lambda_e77d7e1e559843f44c4e0b6d970cdb28>@@@Z DD imagerel ??$construct@Vthread@std@@V<lambda_e77d7e1e559843f44c4e0b6d970cdb28>@@@?$allocator_traits@V?$allocator@Vthread@std@@@std@@@std@@SAXAEAV?$allocator@Vthread@std@@@1@PEAVthread@1@$$QEAV<lambda_e77d7e1e559843f44c4e0b6d970cdb28>@@@Z
	DD	0ffffffffH
	DD	imagerel ??$construct@Vthread@std@@V<lambda_e77d7e1e559843f44c4e0b6d970cdb28>@@@?$allocator_traits@V?$allocator@Vthread@std@@@std@@@std@@SAXAEAV?$allocator@Vthread@std@@@1@PEAVthread@1@$$QEAV<lambda_e77d7e1e559843f44c4e0b6d970cdb28>@@@Z+37
	DD	00H
	DD	imagerel ??$construct@Vthread@std@@V<lambda_e77d7e1e559843f44c4e0b6d970cdb28>@@@?$allocator_traits@V?$allocator@Vthread@std@@@std@@@std@@SAXAEAV?$allocator@Vthread@std@@@1@PEAVthread@1@$$QEAV<lambda_e77d7e1e559843f44c4e0b6d970cdb28>@@@Z+53
	DD	01H
	DD	imagerel ??$construct@Vthread@std@@V<lambda_e77d7e1e559843f44c4e0b6d970cdb28>@@@?$allocator_traits@V?$allocator@Vthread@std@@@std@@@std@@SAXAEAV?$allocator@Vthread@std@@@1@PEAVthread@1@$$QEAV<lambda_e77d7e1e559843f44c4e0b6d970cdb28>@@@Z+65
	DD	00H
	DD	imagerel ??$construct@Vthread@std@@V<lambda_e77d7e1e559843f44c4e0b6d970cdb28>@@@?$allocator_traits@V?$allocator@Vthread@std@@@std@@@std@@SAXAEAV?$allocator@Vthread@std@@@1@PEAVthread@1@$$QEAV<lambda_e77d7e1e559843f44c4e0b6d970cdb28>@@@Z+86
	DD	0ffffffffH
xdata	ENDS
;	COMDAT xdata
xdata	SEGMENT
$stateUnwindMap$??$construct@Vthread@std@@V<lambda_e77d7e1e559843f44c4e0b6d970cdb28>@@@?$allocator_traits@V?$allocator@Vthread@std@@@std@@@std@@SAXAEAV?$allocator@Vthread@std@@@1@PEAVthread@1@$$QEAV<lambda_e77d7e1e559843f44c4e0b6d970cdb28>@@@Z DD 0ffffffffH
	DD	imagerel ?dtor$1@?0???$construct@Vthread@std@@V<lambda_e77d7e1e559843f44c4e0b6d970cdb28>@@@?$allocator_traits@V?$allocator@Vthread@std@@@std@@@std@@SAXAEAV?$allocator@Vthread@std@@@1@PEAVthread@1@$$QEAV<lambda_e77d7e1e559843f44c4e0b6d970cdb28>@@@Z@4HA
	DD	00H
	DD	imagerel ?dtor$3@?0???$construct@Vthread@std@@V<lambda_e77d7e1e559843f44c4e0b6d970cdb28>@@@?$allocator_traits@V?$allocator@Vthread@std@@@std@@@std@@SAXAEAV?$allocator@Vthread@std@@@1@PEAVthread@1@$$QEAV<lambda_e77d7e1e559843f44c4e0b6d970cdb28>@@@Z@4HA
xdata	ENDS
;	COMDAT CONST
CONST	SEGMENT
$cppxdata$??$construct@Vthread@std@@V<lambda_e77d7e1e559843f44c4e0b6d970cdb28>@@@?$allocator_traits@V?$allocator@Vthread@std@@@std@@@std@@SAXAEAV?$allocator@Vthread@std@@@1@PEAVthread@1@$$QEAV<lambda_e77d7e1e559843f44c4e0b6d970cdb28>@@@Z DD 019930522H
	DD	02H
	DD	imagerel $stateUnwindMap$??$construct@Vthread@std@@V<lambda_e77d7e1e559843f44c4e0b6d970cdb28>@@@?$allocator_traits@V?$allocator@Vthread@std@@@std@@@std@@SAXAEAV?$allocator@Vthread@std@@@1@PEAVthread@1@$$QEAV<lambda_e77d7e1e559843f44c4e0b6d970cdb28>@@@Z
	DD	00H
	DD	00H
	DD	05H
	DD	imagerel $ip2state$??$construct@Vthread@std@@V<lambda_e77d7e1e559843f44c4e0b6d970cdb28>@@@?$allocator_traits@V?$allocator@Vthread@std@@@std@@@std@@SAXAEAV?$allocator@Vthread@std@@@1@PEAVthread@1@$$QEAV<lambda_e77d7e1e559843f44c4e0b6d970cdb28>@@@Z
	DD	020H
	DD	00H
	DD	01H
CONST	ENDS
;	COMDAT xdata
xdata	SEGMENT
$unwind$??$construct@Vthread@std@@V<lambda_e77d7e1e559843f44c4e0b6d970cdb28>@@@?$allocator_traits@V?$allocator@Vthread@std@@@std@@@std@@SAXAEAV?$allocator@Vthread@std@@@1@PEAVthread@1@$$QEAV<lambda_e77d7e1e559843f44c4e0b6d970cdb28>@@@Z DD 021d11H
	DD	030105214H
	DD	imagerel __CxxFrameHandler3
	DD	imagerel $cppxdata$??$construct@Vthread@std@@V<lambda_e77d7e1e559843f44c4e0b6d970cdb28>@@@?$allocator_traits@V?$allocator@Vthread@std@@@std@@@std@@SAXAEAV?$allocator@Vthread@std@@@1@PEAVthread@1@$$QEAV<lambda_e77d7e1e559843f44c4e0b6d970cdb28>@@@Z
xdata	ENDS
;	COMDAT xdata
xdata	SEGMENT
$unwind$??$destroy@Vthread@std@@@?$allocator_traits@V?$allocator@Vthread@std@@@std@@@std@@SAXAEAV?$allocator@Vthread@std@@@1@PEAVthread@1@@Z DD 010401H
	DD	04204H
xdata	ENDS
;	COMDAT xdata
xdata	SEGMENT
$unwind$?dtor$0@?0???$construct@Vthread@std@@V<lambda_e77d7e1e559843f44c4e0b6d970cdb28>@@@?$allocator@Vthread@std@@@std@@QEAAXPEAVthread@1@$$QEAV<lambda_e77d7e1e559843f44c4e0b6d970cdb28>@@@Z@4HA DD 020601H
	DD	050023206H
xdata	ENDS
;	COMDAT xdata
xdata	SEGMENT
$ip2state$??$construct@Vthread@std@@V<lambda_e77d7e1e559843f44c4e0b6d970cdb28>@@@?$allocator@Vthread@std@@@std@@QEAAXPEAVthread@1@$$QEAV<lambda_e77d7e1e559843f44c4e0b6d970cdb28>@@@Z DD imagerel ??$construct@Vthread@std@@V<lambda_e77d7e1e559843f44c4e0b6d970cdb28>@@@?$allocator@Vthread@std@@@std@@QEAAXPEAVthread@1@$$QEAV<lambda_e77d7e1e559843f44c4e0b6d970cdb28>@@@Z
	DD	0ffffffffH
	DD	imagerel ??$construct@Vthread@std@@V<lambda_e77d7e1e559843f44c4e0b6d970cdb28>@@@?$allocator@Vthread@std@@@std@@QEAAXPEAVthread@1@$$QEAV<lambda_e77d7e1e559843f44c4e0b6d970cdb28>@@@Z+37
	DD	00H
	DD	imagerel ??$construct@Vthread@std@@V<lambda_e77d7e1e559843f44c4e0b6d970cdb28>@@@?$allocator@Vthread@std@@@std@@QEAAXPEAVthread@1@$$QEAV<lambda_e77d7e1e559843f44c4e0b6d970cdb28>@@@Z+53
	DD	01H
	DD	imagerel ??$construct@Vthread@std@@V<lambda_e77d7e1e559843f44c4e0b6d970cdb28>@@@?$allocator@Vthread@std@@@std@@QEAAXPEAVthread@1@$$QEAV<lambda_e77d7e1e559843f44c4e0b6d970cdb28>@@@Z+65
	DD	00H
	DD	imagerel ??$construct@Vthread@std@@V<lambda_e77d7e1e559843f44c4e0b6d970cdb28>@@@?$allocator@Vthread@std@@@std@@QEAAXPEAVthread@1@$$QEAV<lambda_e77d7e1e559843f44c4e0b6d970cdb28>@@@Z+86
	DD	0ffffffffH
xdata	ENDS
;	COMDAT xdata
xdata	SEGMENT
$stateUnwindMap$??$construct@Vthread@std@@V<lambda_e77d7e1e559843f44c4e0b6d970cdb28>@@@?$allocator@Vthread@std@@@std@@QEAAXPEAVthread@1@$$QEAV<lambda_e77d7e1e559843f44c4e0b6d970cdb28>@@@Z DD 0ffffffffH
	DD	imagerel ?dtor$0@?0???$construct@Vthread@std@@V<lambda_e77d7e1e559843f44c4e0b6d970cdb28>@@@?$allocator@Vthread@std@@@std@@QEAAXPEAVthread@1@$$QEAV<lambda_e77d7e1e559843f44c4e0b6d970cdb28>@@@Z@4HA
	DD	00H
	DD	imagerel ?dtor$2@?0???$construct@Vthread@std@@V<lambda_e77d7e1e559843f44c4e0b6d970cdb28>@@@?$allocator@Vthread@std@@@std@@QEAAXPEAVthread@1@$$QEAV<lambda_e77d7e1e559843f44c4e0b6d970cdb28>@@@Z@4HA
xdata	ENDS
;	COMDAT CONST
CONST	SEGMENT
$cppxdata$??$construct@Vthread@std@@V<lambda_e77d7e1e559843f44c4e0b6d970cdb28>@@@?$allocator@Vthread@std@@@std@@QEAAXPEAVthread@1@$$QEAV<lambda_e77d7e1e559843f44c4e0b6d970cdb28>@@@Z DD 019930522H
	DD	02H
	DD	imagerel $stateUnwindMap$??$construct@Vthread@std@@V<lambda_e77d7e1e559843f44c4e0b6d970cdb28>@@@?$allocator@Vthread@std@@@std@@QEAAXPEAVthread@1@$$QEAV<lambda_e77d7e1e559843f44c4e0b6d970cdb28>@@@Z
	DD	00H
	DD	00H
	DD	05H
	DD	imagerel $ip2state$??$construct@Vthread@std@@V<lambda_e77d7e1e559843f44c4e0b6d970cdb28>@@@?$allocator@Vthread@std@@@std@@QEAAXPEAVthread@1@$$QEAV<lambda_e77d7e1e559843f44c4e0b6d970cdb28>@@@Z
	DD	020H
	DD	00H
	DD	01H
CONST	ENDS
;	COMDAT xdata
xdata	SEGMENT
$unwind$??$construct@Vthread@std@@V<lambda_e77d7e1e559843f44c4e0b6d970cdb28>@@@?$allocator@Vthread@std@@@std@@QEAAXPEAVthread@1@$$QEAV<lambda_e77d7e1e559843f44c4e0b6d970cdb28>@@@Z DD 021d11H
	DD	030105214H
	DD	imagerel __CxxFrameHandler3
	DD	imagerel $cppxdata$??$construct@Vthread@std@@V<lambda_e77d7e1e559843f44c4e0b6d970cdb28>@@@?$allocator@Vthread@std@@@std@@QEAAXPEAVthread@1@$$QEAV<lambda_e77d7e1e559843f44c4e0b6d970cdb28>@@@Z
xdata	ENDS
;	COMDAT xdata
xdata	SEGMENT
$unwind$??$destroy@Vthread@std@@@?$allocator@Vthread@std@@@std@@QEAAXPEAVthread@1@@Z DD 010401H
	DD	04204H
xdata	ENDS
;	COMDAT xdata
xdata	SEGMENT
$unwind$??_Gthread@std@@QEAAPEAXI@Z DD 010401H
	DD	04204H
xdata	ENDS
;	COMDAT xdata
xdata	SEGMENT
$ip2state$??$?0V<lambda_e77d7e1e559843f44c4e0b6d970cdb28>@@$$VX@thread@std@@QEAA@$$QEAV<lambda_e77d7e1e559843f44c4e0b6d970cdb28>@@@Z DD imagerel ??$?0V<lambda_e77d7e1e559843f44c4e0b6d970cdb28>@@$$VX@thread@std@@QEAA@$$QEAV<lambda_e77d7e1e559843f44c4e0b6d970cdb28>@@@Z
	DD	0ffffffffH
	DD	imagerel ??$?0V<lambda_e77d7e1e559843f44c4e0b6d970cdb28>@@$$VX@thread@std@@QEAA@$$QEAV<lambda_e77d7e1e559843f44c4e0b6d970cdb28>@@@Z+33
	DD	00H
	DD	imagerel ??$?0V<lambda_e77d7e1e559843f44c4e0b6d970cdb28>@@$$VX@thread@std@@QEAA@$$QEAV<lambda_e77d7e1e559843f44c4e0b6d970cdb28>@@@Z+45
	DD	0ffffffffH
xdata	ENDS
;	COMDAT xdata
xdata	SEGMENT
$stateUnwindMap$??$?0V<lambda_e77d7e1e559843f44c4e0b6d970cdb28>@@$$VX@thread@std@@QEAA@$$QEAV<lambda_e77d7e1e559843f44c4e0b6d970cdb28>@@@Z DD 0ffffffffH
	DD	imagerel ?dtor$0@?0???$?0V<lambda_e77d7e1e559843f44c4e0b6d970cdb28>@@$$VX@thread@std@@QEAA@$$QEAV<lambda_e77d7e1e559843f44c4e0b6d970cdb28>@@@Z@4HA
xdata	ENDS
;	COMDAT CONST
CONST	SEGMENT
$cppxdata$??$?0V<lambda_e77d7e1e559843f44c4e0b6d970cdb28>@@$$VX@thread@std@@QEAA@$$QEAV<lambda_e77d7e1e559843f44c4e0b6d970cdb28>@@@Z DD 019930522H
	DD	01H
	DD	imagerel $stateUnwindMap$??$?0V<lambda_e77d7e1e559843f44c4e0b6d970cdb28>@@$$VX@thread@std@@QEAA@$$QEAV<lambda_e77d7e1e559843f44c4e0b6d970cdb28>@@@Z
	DD	00H
	DD	00H
	DD	03H
	DD	imagerel $ip2state$??$?0V<lambda_e77d7e1e559843f44c4e0b6d970cdb28>@@$$VX@thread@std@@QEAA@$$QEAV<lambda_e77d7e1e559843f44c4e0b6d970cdb28>@@@Z
	DD	020H
	DD	00H
	DD	01H
CONST	ENDS
;	COMDAT xdata
xdata	SEGMENT
$unwind$??$?0V<lambda_e77d7e1e559843f44c4e0b6d970cdb28>@@$$VX@thread@std@@QEAA@$$QEAV<lambda_e77d7e1e559843f44c4e0b6d970cdb28>@@@Z DD 021311H
	DD	03006520aH
	DD	imagerel __CxxFrameHandler3
	DD	imagerel $cppxdata$??$?0V<lambda_e77d7e1e559843f44c4e0b6d970cdb28>@@$$VX@thread@std@@QEAA@$$QEAV<lambda_e77d7e1e559843f44c4e0b6d970cdb28>@@@Z
xdata	ENDS
;	COMDAT xdata
xdata	SEGMENT
$unwind$??$make_unique@V?$tuple@V<lambda_e77d7e1e559843f44c4e0b6d970cdb28>@@@std@@V<lambda_e77d7e1e559843f44c4e0b6d970cdb28>@@@std@@YA?AV?$unique_ptr@V?$tuple@V<lambda_e77d7e1e559843f44c4e0b6d970cdb28>@@@std@@U?$default_delete@V?$tuple@V<lambda_e77d7e1e559843f44c4e0b6d970cdb28>@@@std@@@2@@0@$$QEAV<lambda_e77d7e1e559843f44c4e0b6d970cdb28>@@@Z DD 020601H
	DD	030025206H
xdata	ENDS
;	COMDAT xdata
xdata	SEGMENT
$ip2state$??$_Launch@V?$unique_ptr@V?$tuple@V<lambda_e77d7e1e559843f44c4e0b6d970cdb28>@@@std@@U?$default_delete@V?$tuple@V<lambda_e77d7e1e559843f44c4e0b6d970cdb28>@@@std@@@2@@std@@@std@@YAXPEAU_Thrd_imp_t@@$$QEAV?$unique_ptr@V?$tuple@V<lambda_e77d7e1e559843f44c4e0b6d970cdb28>@@@std@@U?$default_delete@V?$tuple@V<lambda_e77d7e1e559843f44c4e0b6d970cdb28>@@@std@@@2@@0@@Z DD imagerel ??$_Launch@V?$unique_ptr@V?$tuple@V<lambda_e77d7e1e559843f44c4e0b6d970cdb28>@@@std@@U?$default_delete@V?$tuple@V<lambda_e77d7e1e559843f44c4e0b6d970cdb28>@@@std@@@2@@std@@@std@@YAXPEAU_Thrd_imp_t@@$$QEAV?$unique_ptr@V?$tuple@V<lambda_e77d7e1e559843f44c4e0b6d970cdb28>@@@std@@U?$default_delete@V?$tuple@V<lambda_e77d7e1e559843f44c4e0b6d970cdb28>@@@std@@@2@@0@@Z
	DD	0ffffffffH
	DD	imagerel ??$_Launch@V?$unique_ptr@V?$tuple@V<lambda_e77d7e1e559843f44c4e0b6d970cdb28>@@@std@@U?$default_delete@V?$tuple@V<lambda_e77d7e1e559843f44c4e0b6d970cdb28>@@@std@@@2@@std@@@std@@YAXPEAU_Thrd_imp_t@@$$QEAV?$unique_ptr@V?$tuple@V<lambda_e77d7e1e559843f44c4e0b6d970cdb28>@@@std@@U?$default_delete@V?$tuple@V<lambda_e77d7e1e559843f44c4e0b6d970cdb28>@@@std@@@2@@0@@Z+76
	DD	00H
	DD	imagerel ??$_Launch@V?$unique_ptr@V?$tuple@V<lambda_e77d7e1e559843f44c4e0b6d970cdb28>@@@std@@U?$default_delete@V?$tuple@V<lambda_e77d7e1e559843f44c4e0b6d970cdb28>@@@std@@@2@@std@@@std@@YAXPEAU_Thrd_imp_t@@$$QEAV?$unique_ptr@V?$tuple@V<lambda_e77d7e1e559843f44c4e0b6d970cdb28>@@@std@@U?$default_delete@V?$tuple@V<lambda_e77d7e1e559843f44c4e0b6d970cdb28>@@@std@@@2@@0@@Z+117
	DD	01H
	DD	imagerel ??$_Launch@V?$unique_ptr@V?$tuple@V<lambda_e77d7e1e559843f44c4e0b6d970cdb28>@@@std@@U?$default_delete@V?$tuple@V<lambda_e77d7e1e559843f44c4e0b6d970cdb28>@@@std@@@2@@std@@@std@@YAXPEAU_Thrd_imp_t@@$$QEAV?$unique_ptr@V?$tuple@V<lambda_e77d7e1e559843f44c4e0b6d970cdb28>@@@std@@U?$default_delete@V?$tuple@V<lambda_e77d7e1e559843f44c4e0b6d970cdb28>@@@std@@@2@@0@@Z+139
	DD	0ffffffffH
	DD	imagerel ??$_Launch@V?$unique_ptr@V?$tuple@V<lambda_e77d7e1e559843f44c4e0b6d970cdb28>@@@std@@U?$default_delete@V?$tuple@V<lambda_e77d7e1e559843f44c4e0b6d970cdb28>@@@std@@@2@@std@@@std@@YAXPEAU_Thrd_imp_t@@$$QEAV?$unique_ptr@V?$tuple@V<lambda_e77d7e1e559843f44c4e0b6d970cdb28>@@@std@@U?$default_delete@V?$tuple@V<lambda_e77d7e1e559843f44c4e0b6d970cdb28>@@@std@@@2@@0@@Z+166
	DD	02H
	DD	imagerel ??$_Launch@V?$unique_ptr@V?$tuple@V<lambda_e77d7e1e559843f44c4e0b6d970cdb28>@@@std@@U?$default_delete@V?$tuple@V<lambda_e77d7e1e559843f44c4e0b6d970cdb28>@@@std@@@2@@std@@@std@@YAXPEAU_Thrd_imp_t@@$$QEAV?$unique_ptr@V?$tuple@V<lambda_e77d7e1e559843f44c4e0b6d970cdb28>@@@std@@U?$default_delete@V?$tuple@V<lambda_e77d7e1e559843f44c4e0b6d970cdb28>@@@std@@@2@@0@@Z+257
	DD	0ffffffffH
	DD	imagerel ??$_Launch@V?$unique_ptr@V?$tuple@V<lambda_e77d7e1e559843f44c4e0b6d970cdb28>@@@std@@U?$default_delete@V?$tuple@V<lambda_e77d7e1e559843f44c4e0b6d970cdb28>@@@std@@@2@@std@@@std@@YAXPEAU_Thrd_imp_t@@$$QEAV?$unique_ptr@V?$tuple@V<lambda_e77d7e1e559843f44c4e0b6d970cdb28>@@@std@@U?$default_delete@V?$tuple@V<lambda_e77d7e1e559843f44c4e0b6d970cdb28>@@@std@@@2@@0@@Z+278
	DD	03H
	DD	imagerel ??$_Launch@V?$unique_ptr@V?$tuple@V<lambda_e77d7e1e559843f44c4e0b6d970cdb28>@@@std@@U?$default_delete@V?$tuple@V<lambda_e77d7e1e559843f44c4e0b6d970cdb28>@@@std@@@2@@std@@@std@@YAXPEAU_Thrd_imp_t@@$$QEAV?$unique_ptr@V?$tuple@V<lambda_e77d7e1e559843f44c4e0b6d970cdb28>@@@std@@U?$default_delete@V?$tuple@V<lambda_e77d7e1e559843f44c4e0b6d970cdb28>@@@std@@@2@@0@@Z+329
	DD	0ffffffffH
xdata	ENDS
;	COMDAT xdata
xdata	SEGMENT
$stateUnwindMap$??$_Launch@V?$unique_ptr@V?$tuple@V<lambda_e77d7e1e559843f44c4e0b6d970cdb28>@@@std@@U?$default_delete@V?$tuple@V<lambda_e77d7e1e559843f44c4e0b6d970cdb28>@@@std@@@2@@std@@@std@@YAXPEAU_Thrd_imp_t@@$$QEAV?$unique_ptr@V?$tuple@V<lambda_e77d7e1e559843f44c4e0b6d970cdb28>@@@std@@U?$default_delete@V?$tuple@V<lambda_e77d7e1e559843f44c4e0b6d970cdb28>@@@std@@@2@@0@@Z DD 0ffffffffH
	DD	imagerel ?dtor$4@?0???$_Launch@V?$unique_ptr@V?$tuple@V<lambda_e77d7e1e559843f44c4e0b6d970cdb28>@@@std@@U?$default_delete@V?$tuple@V<lambda_e77d7e1e559843f44c4e0b6d970cdb28>@@@std@@@2@@std@@@std@@YAXPEAU_Thrd_imp_t@@$$QEAV?$unique_ptr@V?$tuple@V<lambda_e77d7e1e559843f44c4e0b6d970cdb28>@@@std@@U?$default_delete@V?$tuple@V<lambda_e77d7e1e559843f44c4e0b6d970cdb28>@@@std@@@2@@0@@Z@4HA
	DD	00H
	DD	imagerel ?dtor$5@?0???$_Launch@V?$unique_ptr@V?$tuple@V<lambda_e77d7e1e559843f44c4e0b6d970cdb28>@@@std@@U?$default_delete@V?$tuple@V<lambda_e77d7e1e559843f44c4e0b6d970cdb28>@@@std@@@2@@std@@@std@@YAXPEAU_Thrd_imp_t@@$$QEAV?$unique_ptr@V?$tuple@V<lambda_e77d7e1e559843f44c4e0b6d970cdb28>@@@std@@U?$default_delete@V?$tuple@V<lambda_e77d7e1e559843f44c4e0b6d970cdb28>@@@std@@@2@@0@@Z@4HA
	DD	0ffffffffH
	DD	imagerel ?dtor$0@?0???$_Launch@V?$unique_ptr@V?$tuple@V<lambda_e77d7e1e559843f44c4e0b6d970cdb28>@@@std@@U?$default_delete@V?$tuple@V<lambda_e77d7e1e559843f44c4e0b6d970cdb28>@@@std@@@2@@std@@@std@@YAXPEAU_Thrd_imp_t@@$$QEAV?$unique_ptr@V?$tuple@V<lambda_e77d7e1e559843f44c4e0b6d970cdb28>@@@std@@U?$default_delete@V?$tuple@V<lambda_e77d7e1e559843f44c4e0b6d970cdb28>@@@std@@@2@@0@@Z@4HA
	DD	0ffffffffH
	DD	imagerel __std_terminate
xdata	ENDS
;	COMDAT CONST
CONST	SEGMENT
$cppxdata$??$_Launch@V?$unique_ptr@V?$tuple@V<lambda_e77d7e1e559843f44c4e0b6d970cdb28>@@@std@@U?$default_delete@V?$tuple@V<lambda_e77d7e1e559843f44c4e0b6d970cdb28>@@@std@@@2@@std@@@std@@YAXPEAU_Thrd_imp_t@@$$QEAV?$unique_ptr@V?$tuple@V<lambda_e77d7e1e559843f44c4e0b6d970cdb28>@@@std@@U?$default_delete@V?$tuple@V<lambda_e77d7e1e559843f44c4e0b6d970cdb28>@@@std@@@2@@0@@Z DD 019930522H
	DD	04H
	DD	imagerel $stateUnwindMap$??$_Launch@V?$unique_ptr@V?$tuple@V<lambda_e77d7e1e559843f44c4e0b6d970cdb28>@@@std@@U?$default_delete@V?$tuple@V<lambda_e77d7e1e559843f44c4e0b6d970cdb28>@@@std@@@2@@std@@@std@@YAXPEAU_Thrd_imp_t@@$$QEAV?$unique_ptr@V?$tuple@V<lambda_e77d7e1e559843f44c4e0b6d970cdb28>@@@std@@U?$default_delete@V?$tuple@V<lambda_e77d7e1e559843f44c4e0b6d970cdb28>@@@std@@@2@@0@@Z
	DD	00H
	DD	00H
	DD	08H
	DD	imagerel $ip2state$??$_Launch@V?$unique_ptr@V?$tuple@V<lambda_e77d7e1e559843f44c4e0b6d970cdb28>@@@std@@U?$default_delete@V?$tuple@V<lambda_e77d7e1e559843f44c4e0b6d970cdb28>@@@std@@@2@@std@@@std@@YAXPEAU_Thrd_imp_t@@$$QEAV?$unique_ptr@V?$tuple@V<lambda_e77d7e1e559843f44c4e0b6d970cdb28>@@@std@@U?$default_delete@V?$tuple@V<lambda_e77d7e1e559843f44c4e0b6d970cdb28>@@@std@@@2@@0@@Z
	DD	020H
	DD	00H
	DD	01H
CONST	ENDS
;	COMDAT xdata
xdata	SEGMENT
$unwind$??$_Launch@V?$unique_ptr@V?$tuple@V<lambda_e77d7e1e559843f44c4e0b6d970cdb28>@@@std@@U?$default_delete@V?$tuple@V<lambda_e77d7e1e559843f44c4e0b6d970cdb28>@@@std@@@2@@std@@@std@@YAXPEAU_Thrd_imp_t@@$$QEAV?$unique_ptr@V?$tuple@V<lambda_e77d7e1e559843f44c4e0b6d970cdb28>@@@std@@U?$default_delete@V?$tuple@V<lambda_e77d7e1e559843f44c4e0b6d970cdb28>@@@std@@@2@@0@@Z DD 061811H
	DD	0116418H
	DD	0103414H
	DD	07004d208H
	DD	imagerel __CxxFrameHandler3
	DD	imagerel $cppxdata$??$_Launch@V?$unique_ptr@V?$tuple@V<lambda_e77d7e1e559843f44c4e0b6d970cdb28>@@@std@@U?$default_delete@V?$tuple@V<lambda_e77d7e1e559843f44c4e0b6d970cdb28>@@@std@@@2@@std@@@std@@YAXPEAU_Thrd_imp_t@@$$QEAV?$unique_ptr@V?$tuple@V<lambda_e77d7e1e559843f44c4e0b6d970cdb28>@@@std@@U?$default_delete@V?$tuple@V<lambda_e77d7e1e559843f44c4e0b6d970cdb28>@@@std@@@2@@0@@Z
xdata	ENDS
;	COMDAT xdata
xdata	SEGMENT
$ip2state$??1?$_LaunchPad@V?$unique_ptr@V?$tuple@V<lambda_e77d7e1e559843f44c4e0b6d970cdb28>@@@std@@U?$default_delete@V?$tuple@V<lambda_e77d7e1e559843f44c4e0b6d970cdb28>@@@std@@@2@@std@@@std@@QEAA@XZ DD imagerel ??1?$_LaunchPad@V?$unique_ptr@V?$tuple@V<lambda_e77d7e1e559843f44c4e0b6d970cdb28>@@@std@@U?$default_delete@V?$tuple@V<lambda_e77d7e1e559843f44c4e0b6d970cdb28>@@@std@@@2@@std@@@std@@QEAA@XZ
	DD	0ffffffffH
	DD	imagerel ??1?$_LaunchPad@V?$unique_ptr@V?$tuple@V<lambda_e77d7e1e559843f44c4e0b6d970cdb28>@@@std@@U?$default_delete@V?$tuple@V<lambda_e77d7e1e559843f44c4e0b6d970cdb28>@@@std@@@2@@std@@@std@@QEAA@XZ+43
	DD	00H
	DD	imagerel ??1?$_LaunchPad@V?$unique_ptr@V?$tuple@V<lambda_e77d7e1e559843f44c4e0b6d970cdb28>@@@std@@U?$default_delete@V?$tuple@V<lambda_e77d7e1e559843f44c4e0b6d970cdb28>@@@std@@@2@@std@@@std@@QEAA@XZ+100
	DD	0ffffffffH
xdata	ENDS
;	COMDAT xdata
xdata	SEGMENT
$stateUnwindMap$??1?$_LaunchPad@V?$unique_ptr@V?$tuple@V<lambda_e77d7e1e559843f44c4e0b6d970cdb28>@@@std@@U?$default_delete@V?$tuple@V<lambda_e77d7e1e559843f44c4e0b6d970cdb28>@@@std@@@2@@std@@@std@@QEAA@XZ DD 0ffffffffH
	DD	imagerel __std_terminate
xdata	ENDS
;	COMDAT CONST
CONST	SEGMENT
$cppxdata$??1?$_LaunchPad@V?$unique_ptr@V?$tuple@V<lambda_e77d7e1e559843f44c4e0b6d970cdb28>@@@std@@U?$default_delete@V?$tuple@V<lambda_e77d7e1e559843f44c4e0b6d970cdb28>@@@std@@@2@@std@@@std@@QEAA@XZ DD 019930522H
	DD	01H
	DD	imagerel $stateUnwindMap$??1?$_LaunchPad@V?$unique_ptr@V?$tuple@V<lambda_e77d7e1e559843f44c4e0b6d970cdb28>@@@std@@U?$default_delete@V?$tuple@V<lambda_e77d7e1e559843f44c4e0b6d970cdb28>@@@std@@@2@@std@@@std@@QEAA@XZ
	DD	00H
	DD	00H
	DD	03H
	DD	imagerel $ip2state$??1?$_LaunchPad@V?$unique_ptr@V?$tuple@V<lambda_e77d7e1e559843f44c4e0b6d970cdb28>@@@std@@U?$default_delete@V?$tuple@V<lambda_e77d7e1e559843f44c4e0b6d970cdb28>@@@std@@@2@@std@@@std@@QEAA@XZ
	DD	020H
	DD	00H
	DD	05H
CONST	ENDS
;	COMDAT xdata
xdata	SEGMENT
$unwind$??1?$_LaunchPad@V?$unique_ptr@V?$tuple@V<lambda_e77d7e1e559843f44c4e0b6d970cdb28>@@@std@@U?$default_delete@V?$tuple@V<lambda_e77d7e1e559843f44c4e0b6d970cdb28>@@@std@@@2@@std@@@std@@QEAA@XZ DD 041419H
	DD	083414H
	DD	070025206H
	DD	imagerel __CxxFrameHandler3
	DD	imagerel $cppxdata$??1?$_LaunchPad@V?$unique_ptr@V?$tuple@V<lambda_e77d7e1e559843f44c4e0b6d970cdb28>@@@std@@U?$default_delete@V?$tuple@V<lambda_e77d7e1e559843f44c4e0b6d970cdb28>@@@std@@@2@@std@@@std@@QEAA@XZ
xdata	ENDS
;	COMDAT xdata
xdata	SEGMENT
$ip2state$?_Run@?$_LaunchPad@V?$unique_ptr@V?$tuple@V<lambda_e77d7e1e559843f44c4e0b6d970cdb28>@@@std@@U?$default_delete@V?$tuple@V<lambda_e77d7e1e559843f44c4e0b6d970cdb28>@@@std@@@2@@std@@@std@@CAXPEAV12@@Z DD imagerel ?_Run@?$_LaunchPad@V?$unique_ptr@V?$tuple@V<lambda_e77d7e1e559843f44c4e0b6d970cdb28>@@@std@@U?$default_delete@V?$tuple@V<lambda_e77d7e1e559843f44c4e0b6d970cdb28>@@@std@@@2@@std@@@std@@CAXPEAV12@@Z
	DD	0ffffffffH
xdata	ENDS
;	COMDAT CONST
CONST	SEGMENT
$cppxdata$?_Run@?$_LaunchPad@V?$unique_ptr@V?$tuple@V<lambda_e77d7e1e559843f44c4e0b6d970cdb28>@@@std@@U?$default_delete@V?$tuple@V<lambda_e77d7e1e559843f44c4e0b6d970cdb28>@@@std@@@2@@std@@@std@@CAXPEAV12@@Z DD 019930522H
	DD	00H
	DD	00H
	DD	00H
	DD	00H
	DD	01H
	DD	imagerel $ip2state$?_Run@?$_LaunchPad@V?$unique_ptr@V?$tuple@V<lambda_e77d7e1e559843f44c4e0b6d970cdb28>@@@std@@U?$default_delete@V?$tuple@V<lambda_e77d7e1e559843f44c4e0b6d970cdb28>@@@std@@@2@@std@@@std@@CAXPEAV12@@Z
	DD	020H
	DD	00H
	DD	05H
CONST	ENDS
;	COMDAT xdata
xdata	SEGMENT
$unwind$?_Run@?$_LaunchPad@V?$unique_ptr@V?$tuple@V<lambda_e77d7e1e559843f44c4e0b6d970cdb28>@@@std@@U?$default_delete@V?$tuple@V<lambda_e77d7e1e559843f44c4e0b6d970cdb28>@@@std@@@2@@std@@@std@@CAXPEAV12@@Z DD 041419H
	DD	083414H
	DD	070025206H
	DD	imagerel __CxxFrameHandler3
	DD	imagerel $cppxdata$?_Run@?$_LaunchPad@V?$unique_ptr@V?$tuple@V<lambda_e77d7e1e559843f44c4e0b6d970cdb28>@@@std@@U?$default_delete@V?$tuple@V<lambda_e77d7e1e559843f44c4e0b6d970cdb28>@@@std@@@2@@std@@@std@@CAXPEAV12@@Z
xdata	ENDS
;	COMDAT xdata
xdata	SEGMENT
$unwind$??$?0V?$unique_ptr@V?$tuple@V<lambda_e77d7e1e559843f44c4e0b6d970cdb28>@@@std@@U?$default_delete@V?$tuple@V<lambda_e77d7e1e559843f44c4e0b6d970cdb28>@@@std@@@2@@std@@@?$_LaunchPad@V?$unique_ptr@V?$tuple@V<lambda_e77d7e1e559843f44c4e0b6d970cdb28>@@@std@@U?$default_delete@V?$tuple@V<lambda_e77d7e1e559843f44c4e0b6d970cdb28>@@@std@@@2@@std@@@std@@QEAA@$$QEAV?$unique_ptr@V?$tuple@V<lambda_e77d7e1e559843f44c4e0b6d970cdb28>@@@std@@U?$default_delete@V?$tuple@V<lambda_e77d7e1e559843f44c4e0b6d970cdb28>@@@std@@@2@@1@@Z DD 040a01H
	DD	06340aH
	DD	07006320aH
xdata	ENDS
; Function compile flags: /Ogtpy
; File c:\users\alist_000\cppmisc\packages\visualcpptools.14.0.24629\lib\native\include\vcruntime_exception.h
;	COMDAT ??0exception@std@@QEAA@QEBD@Z
_TEXT	SEGMENT
_InitData$ = 32
this$ = 64
_Message$ = 72
??0exception@std@@QEAA@QEBD@Z PROC			; std::exception::exception, COMDAT

; 53   :     {

$LN4:
  00000	40 53		 push	 rbx
  00002	48 83 ec 30	 sub	 rsp, 48			; 00000030H
  00006	48 8b d9	 mov	 rbx, rcx

; 54   :         __std_exception_data _InitData = { _Message, true };

  00009	c6 44 24 28 01	 mov	 BYTE PTR _InitData$[rsp+8], 1
  0000e	48 8b c2	 mov	 rax, rdx
  00011	48 8d 0d 00 00
	00 00		 lea	 rcx, OFFSET FLAT:??_7exception@std@@6B@
  00018	48 8d 53 08	 lea	 rdx, QWORD PTR [rbx+8]
  0001c	48 89 44 24 20	 mov	 QWORD PTR _InitData$[rsp], rax
  00021	48 89 0b	 mov	 QWORD PTR [rbx], rcx
  00024	33 c9		 xor	 ecx, ecx
  00026	48 89 0a	 mov	 QWORD PTR [rdx], rcx
  00029	48 89 4a 08	 mov	 QWORD PTR [rdx+8], rcx

; 55   :         __std_exception_copy(&_InitData, &_Data);

  0002d	48 8d 4c 24 20	 lea	 rcx, QWORD PTR _InitData$[rsp]
  00032	e8 00 00 00 00	 call	 __std_exception_copy

; 56   :     }

  00037	48 8b c3	 mov	 rax, rbx
  0003a	48 83 c4 30	 add	 rsp, 48			; 00000030H
  0003e	5b		 pop	 rbx
  0003f	c3		 ret	 0
??0exception@std@@QEAA@QEBD@Z ENDP			; std::exception::exception
_TEXT	ENDS
; Function compile flags: /Ogtpy
; File c:\users\alist_000\cppmisc\packages\visualcpptools.14.0.24629\lib\native\include\vcruntime_exception.h
;	COMDAT ??0exception@std@@QEAA@AEBV01@@Z
_TEXT	SEGMENT
this$ = 48
_Other$ = 56
??0exception@std@@QEAA@AEBV01@@Z PROC			; std::exception::exception, COMDAT

; 66   :     {

$LN4:
  00000	40 53		 push	 rbx
  00002	48 83 ec 20	 sub	 rsp, 32			; 00000020H
  00006	48 8b d9	 mov	 rbx, rcx
  00009	48 8b c2	 mov	 rax, rdx
  0000c	48 8d 53 08	 lea	 rdx, QWORD PTR [rbx+8]
  00010	48 8d 0d 00 00
	00 00		 lea	 rcx, OFFSET FLAT:??_7exception@std@@6B@
  00017	48 89 0b	 mov	 QWORD PTR [rbx], rcx
  0001a	33 c9		 xor	 ecx, ecx
  0001c	48 89 0a	 mov	 QWORD PTR [rdx], rcx
  0001f	48 89 4a 08	 mov	 QWORD PTR [rdx+8], rcx

; 67   :         __std_exception_copy(&_Other._Data, &_Data);

  00023	48 8d 48 08	 lea	 rcx, QWORD PTR [rax+8]
  00027	e8 00 00 00 00	 call	 __std_exception_copy

; 68   :     }

  0002c	48 8b c3	 mov	 rax, rbx
  0002f	48 83 c4 20	 add	 rsp, 32			; 00000020H
  00033	5b		 pop	 rbx
  00034	c3		 ret	 0
??0exception@std@@QEAA@AEBV01@@Z ENDP			; std::exception::exception
_TEXT	ENDS
; Function compile flags: /Ogtpy
; File c:\users\alist_000\cppmisc\packages\visualcpptools.14.0.24629\lib\native\include\vcruntime_exception.h
;	COMDAT ??1exception@std@@UEAA@XZ
_TEXT	SEGMENT
this$ = 8
??1exception@std@@UEAA@XZ PROC				; std::exception::~exception, COMDAT

; 83   :     {

  00000	48 8d 05 00 00
	00 00		 lea	 rax, OFFSET FLAT:??_7exception@std@@6B@
  00007	48 89 01	 mov	 QWORD PTR [rcx], rax

; 84   :         __std_exception_destroy(&_Data);

  0000a	48 83 c1 08	 add	 rcx, 8
  0000e	e9 00 00 00 00	 jmp	 __std_exception_destroy
??1exception@std@@UEAA@XZ ENDP				; std::exception::~exception
_TEXT	ENDS
; Function compile flags: /Ogtpy
; File c:\users\alist_000\cppmisc\packages\visualcpptools.14.0.24629\lib\native\include\vcruntime_exception.h
;	COMDAT ?what@exception@std@@UEBAPEBDXZ
_TEXT	SEGMENT
this$ = 8
?what@exception@std@@UEBAPEBDXZ PROC			; std::exception::what, COMDAT

; 89   :         return _Data._What ? _Data._What : "Unknown exception";

  00000	48 8b 51 08	 mov	 rdx, QWORD PTR [rcx+8]
  00004	48 8d 05 00 00
	00 00		 lea	 rax, OFFSET FLAT:??_C@_0BC@EOODALEL@Unknown?5exception?$AA@
  0000b	48 85 d2	 test	 rdx, rdx
  0000e	48 0f 45 c2	 cmovne	 rax, rdx

; 90   :     }

  00012	c3		 ret	 0
?what@exception@std@@UEBAPEBDXZ ENDP			; std::exception::what
_TEXT	ENDS
; Function compile flags: /Ogtpy
; File c:\users\alist_000\cppmisc\packages\visualcpptools.14.0.24629\lib\native\include\vcruntime_exception.h
;	COMDAT ??_Gexception@std@@UEAAPEAXI@Z
_TEXT	SEGMENT
this$ = 48
__flags$ = 56
??_Gexception@std@@UEAAPEAXI@Z PROC			; std::exception::`scalar deleting destructor', COMDAT
$LN8:
  00000	48 89 5c 24 08	 mov	 QWORD PTR [rsp+8], rbx
  00005	57		 push	 rdi
  00006	48 83 ec 20	 sub	 rsp, 32			; 00000020H

; 83   :     {

  0000a	48 8d 05 00 00
	00 00		 lea	 rax, OFFSET FLAT:??_7exception@std@@6B@
  00011	48 8b f9	 mov	 rdi, rcx
  00014	48 89 01	 mov	 QWORD PTR [rcx], rax
  00017	8b da		 mov	 ebx, edx

; 84   :         __std_exception_destroy(&_Data);

  00019	48 83 c1 08	 add	 rcx, 8
  0001d	e8 00 00 00 00	 call	 __std_exception_destroy
  00022	f6 c3 01	 test	 bl, 1
  00025	74 0d		 je	 SHORT $LN6@scalar
  00027	ba 18 00 00 00	 mov	 edx, 24
  0002c	48 8b cf	 mov	 rcx, rdi
  0002f	e8 00 00 00 00	 call	 ??3@YAXPEAX_K@Z		; operator delete
$LN6@scalar:
  00034	48 8b c7	 mov	 rax, rdi
  00037	48 8b 5c 24 30	 mov	 rbx, QWORD PTR [rsp+48]
  0003c	48 83 c4 20	 add	 rsp, 32			; 00000020H
  00040	5f		 pop	 rdi
  00041	c3		 ret	 0
??_Gexception@std@@UEAAPEAXI@Z ENDP			; std::exception::`scalar deleting destructor'
_TEXT	ENDS
; Function compile flags: /Ogtpy
; File c:\users\alist_000\cppmisc\packages\visualcpptools.14.0.24629\lib\native\include\vcruntime_new.h
;	COMDAT ??2@YAPEAX_KPEAX@Z
_TEXT	SEGMENT
_Size$ = 8
_Where$ = 16
??2@YAPEAX_KPEAX@Z PROC					; operator new, COMDAT

; 92   :         (void)_Size;
; 93   :         return _Where;

  00000	48 8b c2	 mov	 rax, rdx

; 94   :     }

  00003	c3		 ret	 0
??2@YAPEAX_KPEAX@Z ENDP					; operator new
_TEXT	ENDS
; Function compile flags: /Ogtpy
; File c:\users\alist_000\cppmisc\packages\visualcpptools.14.0.24629\lib\native\include\vcruntime_new.h
;	COMDAT ??3@YAXPEAX0@Z
_TEXT	SEGMENT
__formal$ = 8
__formal$ = 16
??3@YAXPEAX0@Z PROC					; operator delete, COMDAT

; 98   :         return;
; 99   :     }

  00000	c2 00 00	 ret	 0
??3@YAXPEAX0@Z ENDP					; operator delete
_TEXT	ENDS
; Function compile flags: /Ogtpy
; File c:\users\alist_000\cppmisc\packages\visualcpptools.14.0.24629\lib\native\include\iosfwd
;	COMDAT ?length@?$char_traits@D@std@@SA_KQEBD@Z
_TEXT	SEGMENT
_First$ = 8
?length@?$char_traits@D@std@@SA_KQEBD@Z PROC		; std::char_traits<char>::length, COMDAT

; 479  : 		return (_CSTD strlen(_First));

  00000	48 83 c8 ff	 or	 rax, -1
$LL3@length:
  00004	48 ff c0	 inc	 rax
  00007	80 3c 01 00	 cmp	 BYTE PTR [rcx+rax], 0
  0000b	75 f7		 jne	 SHORT $LL3@length

; 480  : 		}

  0000d	c3		 ret	 0
?length@?$char_traits@D@std@@SA_KQEBD@Z ENDP		; std::char_traits<char>::length
_TEXT	ENDS
; Function compile flags: /Ogtpy
; File c:\users\alist_000\cppmisc\packages\visualcpptools.14.0.24629\lib\native\include\iosfwd
;	COMDAT ?copy@?$char_traits@D@std@@SAPEADQEADQEBD_K@Z
_TEXT	SEGMENT
_First1$ = 48
_First2$ = 56
_Count$ = 64
?copy@?$char_traits@D@std@@SAPEADQEADQEBD_K@Z PROC	; std::char_traits<char>::copy, COMDAT

; 484  : 		{	// copy [_First2, _First2 + _Count) to [_First1, ...)

$LN4:
  00000	40 53		 push	 rbx
  00002	48 83 ec 20	 sub	 rsp, 32			; 00000020H
  00006	48 8b d9	 mov	 rbx, rcx

; 485  : 		return ((_Elem *)_CSTD memcpy(_First1, _First2, _Count));

  00009	e8 00 00 00 00	 call	 memcpy
  0000e	48 8b c3	 mov	 rax, rbx

; 486  : 		}

  00011	48 83 c4 20	 add	 rsp, 32			; 00000020H
  00015	5b		 pop	 rbx
  00016	c3		 ret	 0
?copy@?$char_traits@D@std@@SAPEADQEADQEBD_K@Z ENDP	; std::char_traits<char>::copy
_TEXT	ENDS
; Function compile flags: /Ogtpy
; File c:\users\alist_000\cppmisc\packages\visualcpptools.14.0.24629\lib\native\include\iosfwd
;	COMDAT ?move@?$char_traits@D@std@@SAPEADQEADQEBD_K@Z
_TEXT	SEGMENT
_First1$ = 8
_First2$ = 16
_Count$ = 24
?move@?$char_traits@D@std@@SAPEADQEADQEBD_K@Z PROC	; std::char_traits<char>::move, COMDAT

; 505  : 		return ((_Elem *)_CSTD memmove(_First1, _First2, _Count));

  00000	e9 00 00 00 00	 jmp	 memmove
?move@?$char_traits@D@std@@SAPEADQEADQEBD_K@Z ENDP	; std::char_traits<char>::move
_TEXT	ENDS
; Function compile flags: /Ogtpy
; File c:\users\alist_000\cppmisc\packages\visualcpptools.14.0.24629\lib\native\include\iosfwd
;	COMDAT ?assign@?$char_traits@D@std@@SAXAEADAEBD@Z
_TEXT	SEGMENT
_Left$ = 8
_Right$ = 16
?assign@?$char_traits@D@std@@SAXAEADAEBD@Z PROC		; std::char_traits<char>::assign, COMDAT

; 516  : 		_Left = _Right;

  00000	0f b6 02	 movzx	 eax, BYTE PTR [rdx]
  00003	88 01		 mov	 BYTE PTR [rcx], al

; 517  : 		}

  00005	c3		 ret	 0
?assign@?$char_traits@D@std@@SAXAEADAEBD@Z ENDP		; std::char_traits<char>::assign
_TEXT	ENDS
; Function compile flags: /Ogtpy
; File c:\users\alist_000\cppmisc\packages\visualcpptools.14.0.24629\lib\native\include\iosfwd
;	COMDAT ?to_int_type@?$char_traits@D@std@@SAHAEBD@Z
_TEXT	SEGMENT
_Ch$ = 8
?to_int_type@?$char_traits@D@std@@SAHAEBD@Z PROC	; std::char_traits<char>::to_int_type, COMDAT

; 536  : 		return ((unsigned char)_Ch);

  00000	0f b6 01	 movzx	 eax, BYTE PTR [rcx]

; 537  : 		}

  00003	c3		 ret	 0
?to_int_type@?$char_traits@D@std@@SAHAEBD@Z ENDP	; std::char_traits<char>::to_int_type
_TEXT	ENDS
; Function compile flags: /Ogtpy
; File c:\users\alist_000\cppmisc\packages\visualcpptools.14.0.24629\lib\native\include\iosfwd
;	COMDAT ?eq_int_type@?$char_traits@D@std@@SA_NAEBH0@Z
_TEXT	SEGMENT
_Left$ = 8
_Right$ = 16
?eq_int_type@?$char_traits@D@std@@SA_NAEBH0@Z PROC	; std::char_traits<char>::eq_int_type, COMDAT

; 540  : 		{	// test for metacharacter equality

  00000	8b 02		 mov	 eax, DWORD PTR [rdx]
  00002	39 01		 cmp	 DWORD PTR [rcx], eax
  00004	0f 94 c0	 sete	 al

; 541  : 		return (_Left == _Right);
; 542  : 		}

  00007	c3		 ret	 0
?eq_int_type@?$char_traits@D@std@@SA_NAEBH0@Z ENDP	; std::char_traits<char>::eq_int_type
_TEXT	ENDS
; Function compile flags: /Ogtpy
; File c:\users\alist_000\cppmisc\packages\visualcpptools.14.0.24629\lib\native\include\iosfwd
;	COMDAT ?eof@?$char_traits@D@std@@SAHXZ
_TEXT	SEGMENT
?eof@?$char_traits@D@std@@SAHXZ PROC			; std::char_traits<char>::eof, COMDAT

; 551  : 		return (EOF);

  00000	83 c8 ff	 or	 eax, -1

; 552  : 		}

  00003	c3		 ret	 0
?eof@?$char_traits@D@std@@SAHXZ ENDP			; std::char_traits<char>::eof
_TEXT	ENDS
; Function compile flags: /Ogtpy
; File c:\users\alist_000\cppmisc\packages\visualcpptools.14.0.24629\lib\native\include\xutility
;	COMDAT ?_Orphan_all@_Container_base0@std@@QEAAXXZ
_TEXT	SEGMENT
this$ = 8
?_Orphan_all@_Container_base0@std@@QEAAXXZ PROC		; std::_Container_base0::_Orphan_all, COMDAT

; 55   : 		}

  00000	c2 00 00	 ret	 0
?_Orphan_all@_Container_base0@std@@QEAAXXZ ENDP		; std::_Container_base0::_Orphan_all
_TEXT	ENDS
; Function compile flags: /Ogtpy
; File c:\users\alist_000\cppmisc\packages\visualcpptools.14.0.24629\lib\native\include\xutility
;	COMDAT ?_Adopt@_Iterator_base0@std@@QEAAXPEBX@Z
_TEXT	SEGMENT
this$ = 8
__formal$ = 16
?_Adopt@_Iterator_base0@std@@QEAAXPEBX@Z PROC		; std::_Iterator_base0::_Adopt, COMDAT

; 66   : 		}

  00000	c2 00 00	 ret	 0
?_Adopt@_Iterator_base0@std@@QEAAXPEBX@Z ENDP		; std::_Iterator_base0::_Adopt
_TEXT	ENDS
; Function compile flags: /Ogtpy
; File c:\users\alist_000\cppmisc\packages\visualcpptools.14.0.24629\lib\native\include\xmemory0
;	COMDAT ?_Allocate@std@@YAPEAX_K0_N@Z
_TEXT	SEGMENT
_Count$ = 48
_Sz$ = 56
_Try_aligned_allocation$ = 64
?_Allocate@std@@YAPEAX_K0_N@Z PROC			; std::_Allocate, COMDAT

; 50   : 	{	// allocate storage for _Count elements of size _Sz

$LN14:
  00000	48 83 ec 28	 sub	 rsp, 40			; 00000028H
  00004	4c 8b ca	 mov	 r9, rdx

; 51   : 	void *_Ptr = 0;
; 52   : 
; 53   : 	if (_Count == 0)

  00007	48 85 c9	 test	 rcx, rcx
  0000a	75 07		 jne	 SHORT $LN2@Allocate

; 54   : 		return (_Ptr);

  0000c	33 c0		 xor	 eax, eax

; 89   : 	}

  0000e	48 83 c4 28	 add	 rsp, 40			; 00000028H
  00012	c3		 ret	 0
$LN2@Allocate:

; 55   : 
; 56   : 	// check overflow of multiply
; 57   : 	if ((size_t)(-1) / _Sz < _Count)

  00013	33 d2		 xor	 edx, edx
  00015	48 83 c8 ff	 or	 rax, -1
  00019	49 f7 f1	 div	 r9
  0001c	48 3b c1	 cmp	 rax, rcx
  0001f	72 44		 jb	 SHORT $LN11@Allocate

; 59   : 	const size_t _User_size = _Count * _Sz;

  00021	49 0f af c9	 imul	 rcx, r9

; 60   : 
; 61   :  #if defined(_M_IX86) || defined(_M_X64)
; 62   : 	if (_Try_aligned_allocation
; 63   : 		&& _BIG_ALLOCATION_THRESHOLD <= _User_size)

  00025	45 84 c0	 test	 r8b, r8b
  00028	74 2e		 je	 SHORT $LN4@Allocate
  0002a	48 81 f9 00 10
	00 00		 cmp	 rcx, 4096		; 00001000H
  00031	72 25		 jb	 SHORT $LN4@Allocate

; 64   : 		{	// allocate large block
; 65   : 		static_assert(sizeof (void *) < _BIG_ALLOCATION_ALIGNMENT,
; 66   : 			"Big allocations should at least match vector register size");
; 67   : 		const size_t _Block_size = _NON_USER_SIZE + _User_size;

  00033	48 8d 41 27	 lea	 rax, QWORD PTR [rcx+39]

; 68   : 		if (_Block_size <= _User_size)

  00037	48 3b c1	 cmp	 rax, rcx
  0003a	76 2f		 jbe	 SHORT $LN13@Allocate

; 70   : 		const uintptr_t _Ptr_container =
; 71   : 			reinterpret_cast<uintptr_t>(::operator new(_Block_size));

  0003c	48 8b c8	 mov	 rcx, rax
  0003f	e8 00 00 00 00	 call	 ??2@YAPEAX_K@Z		; operator new

; 72   : 		_SCL_SECURE_ALWAYS_VALIDATE(_Ptr_container != 0);
; 73   : 		_Ptr = reinterpret_cast<void *>((_Ptr_container + _NON_USER_SIZE)

  00044	48 8d 48 27	 lea	 rcx, QWORD PTR [rax+39]
  00048	48 83 e1 e0	 and	 rcx, -32		; ffffffffffffffe0H

; 74   : 			& ~(_BIG_ALLOCATION_ALIGNMENT - 1));
; 75   : 		static_cast<uintptr_t *>(_Ptr)[-1] = _Ptr_container;

  0004c	48 89 41 f8	 mov	 QWORD PTR [rcx-8], rax

; 86   : 		_SCL_SECURE_ALWAYS_VALIDATE(_Ptr != 0);
; 87   : 		}
; 88   : 	return (_Ptr);

  00050	48 8b c1	 mov	 rax, rcx

; 89   : 	}

  00053	48 83 c4 28	 add	 rsp, 40			; 00000028H
  00057	c3		 ret	 0
$LN4@Allocate:

; 76   : 
; 77   :  #ifdef _DEBUG
; 78   : 		static_cast<uintptr_t *>(_Ptr)[-2] = _BIG_ALLOCATION_SENTINEL;
; 79   :  #endif /* _DEBUG */
; 80   : 		}
; 81   : 	else
; 82   :  #endif /* defined(_M_IX86) || defined(_M_X64) */
; 83   : 
; 84   : 		{	// allocate normal block
; 85   : 		_Ptr = ::operator new(_User_size);

  00058	e8 00 00 00 00	 call	 ??2@YAPEAX_K@Z		; operator new
  0005d	48 8b c8	 mov	 rcx, rax

; 89   : 	}

  00060	48 83 c4 28	 add	 rsp, 40			; 00000028H
  00064	c3		 ret	 0
$LN11@Allocate:

; 58   : 		_Xbad_alloc();	// report no memory

  00065	e8 00 00 00 00	 call	 ?_Xbad_alloc@std@@YAXXZ	; std::_Xbad_alloc
  0006a	cc		 int	 3
$LN13@Allocate:

; 69   : 			_Xbad_alloc();	// report no memory

  0006b	e8 00 00 00 00	 call	 ?_Xbad_alloc@std@@YAXXZ	; std::_Xbad_alloc
  00070	cc		 int	 3
$LN10@Allocate:
?_Allocate@std@@YAPEAX_K0_N@Z ENDP			; std::_Allocate
_TEXT	ENDS
; Function compile flags: /Ogtpy
; File c:\users\alist_000\cppmisc\packages\visualcpptools.14.0.24629\lib\native\include\xmemory0
;	COMDAT ?_Deallocate@std@@YAXPEAX_K1@Z
_TEXT	SEGMENT
_Ptr$ = 48
_Count$ = 56
_Sz$ = 64
?_Deallocate@std@@YAXPEAX_K1@Z PROC			; std::_Deallocate, COMDAT

; 94   : 	{	// deallocate storage for _Count elements of size _Sz

$LN16:
  00000	48 83 ec 28	 sub	 rsp, 40			; 00000028H
  00004	4c 8b ca	 mov	 r9, rdx

; 95   :  #if defined(_M_IX86) || defined(_M_X64)
; 96   : 	_SCL_SECURE_ALWAYS_VALIDATE(_Count <= (size_t)(-1) / _Sz);

  00007	48 83 c8 ff	 or	 rax, -1
  0000b	33 d2		 xor	 edx, edx
  0000d	49 f7 f0	 div	 r8
  00010	4c 3b c8	 cmp	 r9, rax
  00013	77 36		 ja	 SHORT $LN10@Deallocate

; 97   : 	const size_t _User_size = _Count * _Sz;

  00015	4d 0f af c8	 imul	 r9, r8

; 98   : 	if (_BIG_ALLOCATION_THRESHOLD <= _User_size)

  00019	49 81 f9 00 10
	00 00		 cmp	 r9, 4096		; 00001000H
  00020	72 20		 jb	 SHORT $LN3@Deallocate

; 99   : 		{	// deallocate large block
; 100  : 		const uintptr_t _Ptr_user = reinterpret_cast<uintptr_t>(_Ptr);
; 101  : 		_SCL_SECURE_ALWAYS_VALIDATE(

  00022	f6 c1 1f	 test	 cl, 31
  00025	75 2a		 jne	 SHORT $LN12@Deallocate

; 102  : 			(_Ptr_user & (_BIG_ALLOCATION_ALIGNMENT - 1)) == 0);
; 103  : 		const uintptr_t _Ptr_ptr = _Ptr_user - sizeof(void *);
; 104  : 		const uintptr_t _Ptr_container =
; 105  : 			*reinterpret_cast<uintptr_t *>(_Ptr_ptr);

  00027	48 8b 41 f8	 mov	 rax, QWORD PTR [rcx-8]

; 106  : 
; 107  :  #ifdef _DEBUG
; 108  : 		// If the following asserts, it likely means that we are performing
; 109  : 		// an aligned delete on memory coming from an unaligned allocation.
; 110  : 		_SCL_SECURE_ALWAYS_VALIDATE(
; 111  : 			reinterpret_cast<uintptr_t *>(_Ptr_ptr)[-1] ==
; 112  : 				_BIG_ALLOCATION_SENTINEL);
; 113  :  #endif /* _DEBUG */
; 114  : 
; 115  : 		// Extra paranoia on aligned allocation/deallocation
; 116  : 		_SCL_SECURE_ALWAYS_VALIDATE(_Ptr_container < _Ptr_user);

  0002b	48 3b c1	 cmp	 rax, rcx
  0002e	73 27		 jae	 SHORT $LN13@Deallocate

; 117  : 
; 118  :  #ifdef _DEBUG
; 119  : 		_SCL_SECURE_ALWAYS_VALIDATE(2 * sizeof(void *)
; 120  : 			<= _Ptr_user - _Ptr_container);
; 121  : 
; 122  :  #else /* _DEBUG */
; 123  : 		_SCL_SECURE_ALWAYS_VALIDATE(sizeof(void *)

  00030	48 2b c8	 sub	 rcx, rax
  00033	48 83 f9 08	 cmp	 rcx, 8
  00037	72 24		 jb	 SHORT $LN14@Deallocate

; 124  : 			<= _Ptr_user - _Ptr_container);
; 125  :  #endif /* _DEBUG */
; 126  : 
; 127  : 		_SCL_SECURE_ALWAYS_VALIDATE(_Ptr_user - _Ptr_container

  00039	48 83 f9 27	 cmp	 rcx, 39			; 00000027H
  0003d	77 24		 ja	 SHORT $LN15@Deallocate

; 128  : 			<= _NON_USER_SIZE);
; 129  : 
; 130  : 		_Ptr = reinterpret_cast<void *>(_Ptr_container);

  0003f	48 8b c8	 mov	 rcx, rax
$LN3@Deallocate:

; 135  : 	}

  00042	48 83 c4 28	 add	 rsp, 40			; 00000028H

; 131  : 		}
; 132  :  #endif /* defined(_M_IX86) || defined(_M_X64) */
; 133  : 
; 134  : 	::operator delete(_Ptr);

  00046	e9 00 00 00 00	 jmp	 ??3@YAXPEAX@Z		; operator delete
$LN10@Deallocate:

; 95   :  #if defined(_M_IX86) || defined(_M_X64)
; 96   : 	_SCL_SECURE_ALWAYS_VALIDATE(_Count <= (size_t)(-1) / _Sz);

  0004b	e8 00 00 00 00	 call	 _invalid_parameter_noinfo_noreturn
  00050	cc		 int	 3
$LN12@Deallocate:

; 99   : 		{	// deallocate large block
; 100  : 		const uintptr_t _Ptr_user = reinterpret_cast<uintptr_t>(_Ptr);
; 101  : 		_SCL_SECURE_ALWAYS_VALIDATE(

  00051	e8 00 00 00 00	 call	 _invalid_parameter_noinfo_noreturn
  00056	cc		 int	 3
$LN13@Deallocate:

; 106  : 
; 107  :  #ifdef _DEBUG
; 108  : 		// If the following asserts, it likely means that we are performing
; 109  : 		// an aligned delete on memory coming from an unaligned allocation.
; 110  : 		_SCL_SECURE_ALWAYS_VALIDATE(
; 111  : 			reinterpret_cast<uintptr_t *>(_Ptr_ptr)[-1] ==
; 112  : 				_BIG_ALLOCATION_SENTINEL);
; 113  :  #endif /* _DEBUG */
; 114  : 
; 115  : 		// Extra paranoia on aligned allocation/deallocation
; 116  : 		_SCL_SECURE_ALWAYS_VALIDATE(_Ptr_container < _Ptr_user);

  00057	e8 00 00 00 00	 call	 _invalid_parameter_noinfo_noreturn
  0005c	cc		 int	 3
$LN14@Deallocate:

; 117  : 
; 118  :  #ifdef _DEBUG
; 119  : 		_SCL_SECURE_ALWAYS_VALIDATE(2 * sizeof(void *)
; 120  : 			<= _Ptr_user - _Ptr_container);
; 121  : 
; 122  :  #else /* _DEBUG */
; 123  : 		_SCL_SECURE_ALWAYS_VALIDATE(sizeof(void *)

  0005d	e8 00 00 00 00	 call	 _invalid_parameter_noinfo_noreturn
  00062	cc		 int	 3
$LN15@Deallocate:

; 124  : 			<= _Ptr_user - _Ptr_container);
; 125  :  #endif /* _DEBUG */
; 126  : 
; 127  : 		_SCL_SECURE_ALWAYS_VALIDATE(_Ptr_user - _Ptr_container

  00063	e8 00 00 00 00	 call	 _invalid_parameter_noinfo_noreturn
  00068	cc		 int	 3
$LN9@Deallocate:
?_Deallocate@std@@YAXPEAX_K1@Z ENDP			; std::_Deallocate
_TEXT	ENDS
; Function compile flags: /Ogtpy
; File c:\users\alist_000\cppmisc\packages\visualcpptools.14.0.24629\lib\native\include\chrono
;	COMDAT ?now@system_clock@chrono@std@@SA?AV?$time_point@Usystem_clock@chrono@std@@V?$duration@_JU?$ratio@$00$0JIJGIA@@std@@@23@@23@XZ
_TEXT	SEGMENT
__$ReturnUdt$ = 48
?now@system_clock@chrono@std@@SA?AV?$time_point@Usystem_clock@chrono@std@@V?$duration@_JU?$ratio@$00$0JIJGIA@@std@@@23@@23@XZ PROC ; std::chrono::system_clock::now, COMDAT

; 971  : 		{	// get current time

$LN8:
  00000	40 53		 push	 rbx
  00002	48 83 ec 20	 sub	 rsp, 32			; 00000020H
  00006	48 8b d9	 mov	 rbx, rcx

; 972  : 		return (time_point(duration(_Xtime_get_ticks())));

  00009	e8 00 00 00 00	 call	 _Xtime_get_ticks

; 241  : 		: _MyDur(_Other)

  0000e	48 89 03	 mov	 QWORD PTR [rbx], rax

; 972  : 		return (time_point(duration(_Xtime_get_ticks())));

  00011	48 8b c3	 mov	 rax, rbx

; 973  : 		}

  00014	48 83 c4 20	 add	 rsp, 32			; 00000020H
  00018	5b		 pop	 rbx
  00019	c3		 ret	 0
?now@system_clock@chrono@std@@SA?AV?$time_point@Usystem_clock@chrono@std@@V?$duration@_JU?$ratio@$00$0JIJGIA@@std@@@23@@23@XZ ENDP ; std::chrono::system_clock::now
_TEXT	ENDS
; Function compile flags: /Ogtpy
; File c:\users\alist_000\cppmisc\packages\visualcpptools.14.0.24629\lib\native\include\stdexcept
; File c:\users\alist_000\cppmisc\packages\visualcpptools.14.0.24629\lib\native\include\xstring
; File c:\users\alist_000\cppmisc\packages\visualcpptools.14.0.24629\lib\native\include\stdexcept
; File c:\users\alist_000\cppmisc\packages\visualcpptools.14.0.24629\lib\native\include\xstring
; File c:\users\alist_000\cppmisc\packages\visualcpptools.14.0.24629\lib\native\include\xstddef
; File c:\users\alist_000\cppmisc\packages\visualcpptools.14.0.24629\lib\native\include\vcruntime_exception.h
; File c:\users\alist_000\cppmisc\packages\visualcpptools.14.0.24629\lib\native\include\stdexcept
;	COMDAT ??0runtime_error@std@@QEAA@AEBV?$basic_string@DU?$char_traits@D@std@@V?$allocator@D@2@@1@@Z
_TEXT	SEGMENT
_InitData$1 = 32
this$ = 64
_Message$ = 72
??0runtime_error@std@@QEAA@AEBV?$basic_string@DU?$char_traits@D@std@@V?$allocator@D@2@@1@@Z PROC ; std::runtime_error::runtime_error, COMDAT

; 163  : 		{	// construct from message string

$LN25:
  00000	40 53		 push	 rbx
  00002	48 83 ec 30	 sub	 rsp, 48			; 00000030H
; File c:\users\alist_000\cppmisc\packages\visualcpptools.14.0.24629\lib\native\include\xstring

; 1638 : 		return (this->_BUF_SIZE <= _Myres);

  00006	48 83 7a 18 10	 cmp	 QWORD PTR [rdx+24], 16
; File c:\users\alist_000\cppmisc\packages\visualcpptools.14.0.24629\lib\native\include\stdexcept

; 163  : 		{	// construct from message string

  0000b	48 8b c2	 mov	 rax, rdx
  0000e	48 8b d9	 mov	 rbx, rcx
; File c:\users\alist_000\cppmisc\packages\visualcpptools.14.0.24629\lib\native\include\xstring

; 1631 : 		return (_Large_string_engaged()

  00011	72 03		 jb	 SHORT $LN16@runtime_er
; File c:\users\alist_000\cppmisc\packages\visualcpptools.14.0.24629\lib\native\include\xstddef

; 642  : 	return (_Ptr);

  00013	48 8b 02	 mov	 rax, QWORD PTR [rdx]
$LN16@runtime_er:
; File c:\users\alist_000\cppmisc\packages\visualcpptools.14.0.24629\lib\native\include\vcruntime_exception.h

; 52   :         : _Data()

  00016	48 8d 53 08	 lea	 rdx, QWORD PTR [rbx+8]

; 53   :     {
; 54   :         __std_exception_data _InitData = { _Message, true };

  0001a	48 89 44 24 20	 mov	 QWORD PTR _InitData$1[rsp], rax
  0001f	48 8d 0d 00 00
	00 00		 lea	 rcx, OFFSET FLAT:??_7exception@std@@6B@
  00026	c6 44 24 28 01	 mov	 BYTE PTR _InitData$1[rsp+8], 1
  0002b	48 89 0b	 mov	 QWORD PTR [rbx], rcx
  0002e	33 c9		 xor	 ecx, ecx
  00030	48 89 0a	 mov	 QWORD PTR [rdx], rcx
  00033	48 89 4a 08	 mov	 QWORD PTR [rdx+8], rcx

; 55   :         __std_exception_copy(&_InitData, &_Data);

  00037	48 8d 4c 24 20	 lea	 rcx, QWORD PTR _InitData$1[rsp]
  0003c	e8 00 00 00 00	 call	 __std_exception_copy
; File c:\users\alist_000\cppmisc\packages\visualcpptools.14.0.24629\lib\native\include\stdexcept

; 163  : 		{	// construct from message string

  00041	48 8d 05 00 00
	00 00		 lea	 rax, OFFSET FLAT:??_7runtime_error@std@@6B@
  00048	48 89 03	 mov	 QWORD PTR [rbx], rax

; 164  : 		}

  0004b	48 8b c3	 mov	 rax, rbx
  0004e	48 83 c4 30	 add	 rsp, 48			; 00000030H
  00052	5b		 pop	 rbx
  00053	c3		 ret	 0
??0runtime_error@std@@QEAA@AEBV?$basic_string@DU?$char_traits@D@std@@V?$allocator@D@2@@1@@Z ENDP ; std::runtime_error::runtime_error
_TEXT	ENDS
; Function compile flags: /Ogtpy
; File c:\users\alist_000\cppmisc\packages\visualcpptools.14.0.24629\lib\native\include\vcruntime_exception.h
;	COMDAT ??_Gruntime_error@std@@UEAAPEAXI@Z
_TEXT	SEGMENT
this$ = 48
__flags$ = 56
??_Gruntime_error@std@@UEAAPEAXI@Z PROC			; std::runtime_error::`scalar deleting destructor', COMDAT
$LN11:
  00000	48 89 5c 24 08	 mov	 QWORD PTR [rsp+8], rbx
  00005	57		 push	 rdi
  00006	48 83 ec 20	 sub	 rsp, 32			; 00000020H

; 83   :     {

  0000a	48 8d 05 00 00
	00 00		 lea	 rax, OFFSET FLAT:??_7exception@std@@6B@
  00011	48 8b f9	 mov	 rdi, rcx
  00014	48 89 01	 mov	 QWORD PTR [rcx], rax
  00017	8b da		 mov	 ebx, edx

; 84   :         __std_exception_destroy(&_Data);

  00019	48 83 c1 08	 add	 rcx, 8
  0001d	e8 00 00 00 00	 call	 __std_exception_destroy
  00022	f6 c3 01	 test	 bl, 1
  00025	74 0d		 je	 SHORT $LN9@scalar
  00027	ba 18 00 00 00	 mov	 edx, 24
  0002c	48 8b cf	 mov	 rcx, rdi
  0002f	e8 00 00 00 00	 call	 ??3@YAXPEAX_K@Z		; operator delete
$LN9@scalar:
  00034	48 8b c7	 mov	 rax, rdi
  00037	48 8b 5c 24 30	 mov	 rbx, QWORD PTR [rsp+48]
  0003c	48 83 c4 20	 add	 rsp, 32			; 00000020H
  00040	5f		 pop	 rdi
  00041	c3		 ret	 0
??_Gruntime_error@std@@UEAAPEAXI@Z ENDP			; std::runtime_error::`scalar deleting destructor'
_TEXT	ENDS
; Function compile flags: /Ogtpy
; File c:\users\alist_000\cppmisc\packages\visualcpptools.14.0.24629\lib\native\include\vcruntime_exception.h
;	COMDAT ??1runtime_error@std@@UEAA@XZ
_TEXT	SEGMENT
this$ = 8
??1runtime_error@std@@UEAA@XZ PROC			; std::runtime_error::~runtime_error, COMDAT

; 83   :     {

  00000	48 8d 05 00 00
	00 00		 lea	 rax, OFFSET FLAT:??_7exception@std@@6B@
  00007	48 89 01	 mov	 QWORD PTR [rcx], rax

; 84   :         __std_exception_destroy(&_Data);

  0000a	48 83 c1 08	 add	 rcx, 8
  0000e	e9 00 00 00 00	 jmp	 __std_exception_destroy
??1runtime_error@std@@UEAA@XZ ENDP			; std::runtime_error::~runtime_error
_TEXT	ENDS
; Function compile flags: /Ogtpy
; File c:\users\alist_000\cppmisc\packages\visualcpptools.14.0.24629\lib\native\include\vcruntime_exception.h
;	COMDAT ??0runtime_error@std@@QEAA@AEBV01@@Z
_TEXT	SEGMENT
this$ = 48
__that$ = 56
??0runtime_error@std@@QEAA@AEBV01@@Z PROC		; std::runtime_error::runtime_error, COMDAT
$LN6:
  00000	40 53		 push	 rbx
  00002	48 83 ec 20	 sub	 rsp, 32			; 00000020H
  00006	48 8b d9	 mov	 rbx, rcx
  00009	48 8b c2	 mov	 rax, rdx

; 65   :         : _Data()

  0000c	48 8d 53 08	 lea	 rdx, QWORD PTR [rbx+8]

; 66   :     {

  00010	48 8d 0d 00 00
	00 00		 lea	 rcx, OFFSET FLAT:??_7exception@std@@6B@
  00017	48 89 0b	 mov	 QWORD PTR [rbx], rcx
  0001a	33 c9		 xor	 ecx, ecx
  0001c	48 89 0a	 mov	 QWORD PTR [rdx], rcx
  0001f	48 89 4a 08	 mov	 QWORD PTR [rdx+8], rcx

; 67   :         __std_exception_copy(&_Other._Data, &_Data);

  00023	48 8d 48 08	 lea	 rcx, QWORD PTR [rax+8]
  00027	e8 00 00 00 00	 call	 __std_exception_copy
  0002c	48 8d 05 00 00
	00 00		 lea	 rax, OFFSET FLAT:??_7runtime_error@std@@6B@
  00033	48 89 03	 mov	 QWORD PTR [rbx], rax
  00036	48 8b c3	 mov	 rax, rbx
  00039	48 83 c4 20	 add	 rsp, 32			; 00000020H
  0003d	5b		 pop	 rbx
  0003e	c3		 ret	 0
??0runtime_error@std@@QEAA@AEBV01@@Z ENDP		; std::runtime_error::runtime_error
_TEXT	ENDS
; Function compile flags: /Ogtpy
; File c:\users\alist_000\cppmisc\packages\visualcpptools.14.0.24629\lib\native\include\system_error
;	COMDAT ??0error_category@std@@QEAA@XZ
_TEXT	SEGMENT
this$ = 8
??0error_category@std@@QEAA@XZ PROC			; std::error_category::error_category, COMDAT

; 165  : 		{	// default constructor

  00000	48 8d 05 00 00
	00 00		 lea	 rax, OFFSET FLAT:??_7error_category@std@@6B@

; 166  : 		_Addr = reinterpret_cast<uintptr_t>(this);

  00007	48 89 49 08	 mov	 QWORD PTR [rcx+8], rcx
  0000b	48 89 01	 mov	 QWORD PTR [rcx], rax

; 167  : 		}

  0000e	48 8b c1	 mov	 rax, rcx
  00011	c3		 ret	 0
??0error_category@std@@QEAA@XZ ENDP			; std::error_category::error_category
_TEXT	ENDS
; Function compile flags: /Ogtpy
; File c:\users\alist_000\cppmisc\packages\visualcpptools.14.0.24629\lib\native\include\system_error
;	COMDAT ??1error_category@std@@UEAA@XZ
_TEXT	SEGMENT
this$ = 8
??1error_category@std@@UEAA@XZ PROC			; std::error_category::~error_category, COMDAT

; 170  : 		{	// destroy the object

  00000	48 8d 05 00 00
	00 00		 lea	 rax, OFFSET FLAT:??_7error_category@std@@6B@
  00007	48 89 01	 mov	 QWORD PTR [rcx], rax

; 171  : 		}

  0000a	c3		 ret	 0
??1error_category@std@@UEAA@XZ ENDP			; std::error_category::~error_category
_TEXT	ENDS
; Function compile flags: /Ogtpy
; File c:\users\alist_000\cppmisc\packages\visualcpptools.14.0.24629\lib\native\include\system_error
;	COMDAT ??8error_category@std@@QEBA_NAEBV01@@Z
_TEXT	SEGMENT
this$ = 8
_Right$ = 16
??8error_category@std@@QEBA_NAEBV01@@Z PROC		; std::error_category::operator==, COMDAT

; 187  : 		{	// compare categories for equality

  00000	48 8b 42 08	 mov	 rax, QWORD PTR [rdx+8]
  00004	48 39 41 08	 cmp	 QWORD PTR [rcx+8], rax
  00008	0f 94 c0	 sete	 al

; 188  : 		return (_Addr == _Right._Addr);
; 189  : 		}

  0000b	c3		 ret	 0
??8error_category@std@@QEBA_NAEBV01@@Z ENDP		; std::error_category::operator==
_TEXT	ENDS
; Function compile flags: /Ogtpy
; File c:\users\alist_000\cppmisc\packages\visualcpptools.14.0.24629\lib\native\include\system_error
;	COMDAT ??_Gerror_category@std@@UEAAPEAXI@Z
_TEXT	SEGMENT
this$ = 48
__flags$ = 56
??_Gerror_category@std@@UEAAPEAXI@Z PROC		; std::error_category::`scalar deleting destructor', COMDAT
$LN9:
  00000	40 53		 push	 rbx
  00002	48 83 ec 20	 sub	 rsp, 32			; 00000020H

; 170  : 		{	// destroy the object

  00006	48 8d 05 00 00
	00 00		 lea	 rax, OFFSET FLAT:??_7error_category@std@@6B@
  0000d	48 8b d9	 mov	 rbx, rcx
  00010	48 89 01	 mov	 QWORD PTR [rcx], rax
  00013	f6 c2 01	 test	 dl, 1
  00016	74 0a		 je	 SHORT $LN7@scalar
  00018	ba 10 00 00 00	 mov	 edx, 16
  0001d	e8 00 00 00 00	 call	 ??3@YAXPEAX_K@Z		; operator delete
$LN7@scalar:
  00022	48 8b c3	 mov	 rax, rbx
  00025	48 83 c4 20	 add	 rsp, 32			; 00000020H
  00029	5b		 pop	 rbx
  0002a	c3		 ret	 0
??_Gerror_category@std@@UEAAPEAXI@Z ENDP		; std::error_category::`scalar deleting destructor'
_TEXT	ENDS
; Function compile flags: /Ogtpy
; File c:\users\alist_000\cppmisc\packages\visualcpptools.14.0.24629\lib\native\include\system_error
;	COMDAT ??0error_code@std@@QEAA@HAEBVerror_category@1@@Z
_TEXT	SEGMENT
this$ = 8
_Val$ = 16
_Cat$ = 24
??0error_code@std@@QEAA@HAEBVerror_category@1@@Z PROC	; std::error_code::error_code, COMDAT

; 229  : 		: _Myval(_Val), _Mycat(&_Cat)

  00000	89 11		 mov	 DWORD PTR [rcx], edx

; 231  : 		}

  00002	48 8b c1	 mov	 rax, rcx
  00005	4c 89 41 08	 mov	 QWORD PTR [rcx+8], r8
  00009	c3		 ret	 0
??0error_code@std@@QEAA@HAEBVerror_category@1@@Z ENDP	; std::error_code::error_code
_TEXT	ENDS
; Function compile flags: /Ogtpy
; File c:\users\alist_000\cppmisc\packages\visualcpptools.14.0.24629\lib\native\include\system_error
;	COMDAT ?value@error_code@std@@QEBAHXZ
_TEXT	SEGMENT
this$ = 8
?value@error_code@std@@QEBAHXZ PROC			; std::error_code::value, COMDAT

; 264  : 		return (_Myval);

  00000	8b 01		 mov	 eax, DWORD PTR [rcx]

; 265  : 		}

  00002	c3		 ret	 0
?value@error_code@std@@QEBAHXZ ENDP			; std::error_code::value
_TEXT	ENDS
; Function compile flags: /Ogtpy
; File c:\users\alist_000\cppmisc\packages\visualcpptools.14.0.24629\lib\native\include\system_error
;	COMDAT ?category@error_code@std@@QEBAAEBVerror_category@2@XZ
_TEXT	SEGMENT
this$ = 8
?category@error_code@std@@QEBAAEBVerror_category@2@XZ PROC ; std::error_code::category, COMDAT

; 269  : 		return (*_Mycat);

  00000	48 8b 41 08	 mov	 rax, QWORD PTR [rcx+8]

; 270  : 		}

  00004	c3		 ret	 0
?category@error_code@std@@QEBAAEBVerror_category@2@XZ ENDP ; std::error_code::category
_TEXT	ENDS
; Function compile flags: /Ogtpy
; File c:\users\alist_000\cppmisc\packages\visualcpptools.14.0.24629\lib\native\include\system_error
;	COMDAT ?message@error_code@std@@QEBA?AV?$basic_string@DU?$char_traits@D@std@@V?$allocator@D@2@@2@XZ
_TEXT	SEGMENT
$T1 = 32
this$ = 64
__$ReturnUdt$ = 72
?message@error_code@std@@QEBA?AV?$basic_string@DU?$char_traits@D@std@@V?$allocator@D@2@@2@XZ PROC ; std::error_code::message, COMDAT

; 275  : 		{	// get name of error code

$LN12:
  00000	40 53		 push	 rbx
  00002	48 83 ec 30	 sub	 rsp, 48			; 00000030H

; 276  : 		return (category().message(value()));

  00006	44 8b 01	 mov	 r8d, DWORD PTR [rcx]
  00009	48 8b da	 mov	 rbx, rdx

; 269  : 		return (*_Mycat);

  0000c	48 8b 49 08	 mov	 rcx, QWORD PTR [rcx+8]
  00010	c7 44 24 20 00
	00 00 00	 mov	 DWORD PTR $T1[rsp], 0

; 276  : 		return (category().message(value()));

  00018	48 8b 01	 mov	 rax, QWORD PTR [rcx]
  0001b	ff 50 10	 call	 QWORD PTR [rax+16]
  0001e	48 8b c3	 mov	 rax, rbx

; 277  : 		}

  00021	48 83 c4 30	 add	 rsp, 48			; 00000030H
  00025	5b		 pop	 rbx
  00026	c3		 ret	 0
?message@error_code@std@@QEBA?AV?$basic_string@DU?$char_traits@D@std@@V?$allocator@D@2@@2@XZ ENDP ; std::error_code::message
_TEXT	ENDS
; Function compile flags: /Ogtpy
; File c:\users\alist_000\cppmisc\packages\visualcpptools.14.0.24629\lib\native\include\system_error
;	COMDAT ??0error_condition@std@@QEAA@HAEBVerror_category@1@@Z
_TEXT	SEGMENT
this$ = 8
_Val$ = 16
_Cat$ = 24
??0error_condition@std@@QEAA@HAEBVerror_category@1@@Z PROC ; std::error_condition::error_condition, COMDAT

; 302  : 		: _Myval(_Val), _Mycat(&_Cat)

  00000	89 11		 mov	 DWORD PTR [rcx], edx

; 304  : 		}

  00002	48 8b c1	 mov	 rax, rcx
  00005	4c 89 41 08	 mov	 QWORD PTR [rcx+8], r8
  00009	c3		 ret	 0
??0error_condition@std@@QEAA@HAEBVerror_category@1@@Z ENDP ; std::error_condition::error_condition
_TEXT	ENDS
; Function compile flags: /Ogtpy
; File c:\users\alist_000\cppmisc\packages\visualcpptools.14.0.24629\lib\native\include\system_error
;	COMDAT ?value@error_condition@std@@QEBAHXZ
_TEXT	SEGMENT
this$ = 8
?value@error_condition@std@@QEBAHXZ PROC		; std::error_condition::value, COMDAT

; 337  : 		return (_Myval);

  00000	8b 01		 mov	 eax, DWORD PTR [rcx]

; 338  : 		}

  00002	c3		 ret	 0
?value@error_condition@std@@QEBAHXZ ENDP		; std::error_condition::value
_TEXT	ENDS
; Function compile flags: /Ogtpy
; File c:\users\alist_000\cppmisc\packages\visualcpptools.14.0.24629\lib\native\include\system_error
;	COMDAT ?category@error_condition@std@@QEBAAEBVerror_category@2@XZ
_TEXT	SEGMENT
this$ = 8
?category@error_condition@std@@QEBAAEBVerror_category@2@XZ PROC ; std::error_condition::category, COMDAT

; 342  : 		return (*_Mycat);

  00000	48 8b 41 08	 mov	 rax, QWORD PTR [rcx+8]

; 343  : 		}

  00004	c3		 ret	 0
?category@error_condition@std@@QEBAAEBVerror_category@2@XZ ENDP ; std::error_condition::category
_TEXT	ENDS
; Function compile flags: /Ogtpy
; File c:\users\alist_000\cppmisc\packages\visualcpptools.14.0.24629\lib\native\include\system_error
;	COMDAT ??8std@@YA_NAEBVerror_condition@0@0@Z
_TEXT	SEGMENT
_Left$ = 8
_Right$ = 16
??8std@@YA_NAEBVerror_condition@0@0@Z PROC		; std::operator==, COMDAT

; 188  : 		return (_Addr == _Right._Addr);

  00000	48 8b 42 08	 mov	 rax, QWORD PTR [rdx+8]
  00004	4c 8b 49 08	 mov	 r9, QWORD PTR [rcx+8]
  00008	4c 8b 40 08	 mov	 r8, QWORD PTR [rax+8]
  0000c	4d 39 41 08	 cmp	 QWORD PTR [r9+8], r8

; 389  : 	return (_Left.category() == _Right.category()

  00010	75 09		 jne	 SHORT $LN3@operator
  00012	8b 02		 mov	 eax, DWORD PTR [rdx]
  00014	39 01		 cmp	 DWORD PTR [rcx], eax
  00016	75 03		 jne	 SHORT $LN3@operator
  00018	b0 01		 mov	 al, 1

; 390  : 		&& _Left.value() == _Right.value());
; 391  : 	}

  0001a	c3		 ret	 0
$LN3@operator:

; 389  : 	return (_Left.category() == _Right.category()

  0001b	32 c0		 xor	 al, al

; 390  : 		&& _Left.value() == _Right.value());
; 391  : 	}

  0001d	c3		 ret	 0
??8std@@YA_NAEBVerror_condition@0@0@Z ENDP		; std::operator==
_TEXT	ENDS
; Function compile flags: /Ogtpy
; File c:\users\alist_000\cppmisc\packages\visualcpptools.14.0.24629\lib\native\include\system_error
;	COMDAT ?default_error_condition@error_category@std@@UEBA?AVerror_condition@2@H@Z
_TEXT	SEGMENT
this$ = 8
__$ReturnUdt$ = 16
_Errval$ = 24
?default_error_condition@error_category@std@@UEBA?AVerror_condition@2@H@Z PROC ; std::error_category::default_error_condition, COMDAT

; 302  : 		: _Myval(_Val), _Mycat(&_Cat)

  00000	44 89 02	 mov	 DWORD PTR [rdx], r8d

; 445  : 	return (error_condition(_Errval, *this));

  00003	48 8b c2	 mov	 rax, rdx

; 302  : 		: _Myval(_Val), _Mycat(&_Cat)

  00006	48 89 4a 08	 mov	 QWORD PTR [rdx+8], rcx

; 446  : 	}

  0000a	c3		 ret	 0
?default_error_condition@error_category@std@@UEBA?AVerror_condition@2@H@Z ENDP ; std::error_category::default_error_condition
_TEXT	ENDS
; Function compile flags: /Ogtpy
; File c:\users\alist_000\cppmisc\packages\visualcpptools.14.0.24629\lib\native\include\system_error
;	COMDAT ?equivalent@error_category@std@@UEBA_NHAEBVerror_condition@2@@Z
_TEXT	SEGMENT
$T1 = 32
this$ = 64
_Errval$ = 72
_Cond$ = 80
?equivalent@error_category@std@@UEBA_NHAEBVerror_condition@2@@Z PROC ; std::error_category::equivalent, COMDAT

; 451  : 	{	// test if error code same condition

$LN32:
  00000	40 53		 push	 rbx
  00002	48 83 ec 30	 sub	 rsp, 48			; 00000030H
  00006	48 8b 01	 mov	 rax, QWORD PTR [rcx]
  00009	49 8b d8	 mov	 rbx, r8
  0000c	4c 8b 48 18	 mov	 r9, QWORD PTR [rax+24]
  00010	48 8d 05 00 00
	00 00		 lea	 rax, OFFSET FLAT:?default_error_condition@error_category@std@@UEBA?AVerror_condition@2@H@Z ; std::error_category::default_error_condition
  00017	4c 3b c8	 cmp	 r9, rax
  0001a	75 36		 jne	 SHORT $LN31@equivalent

; 302  : 		: _Myval(_Val), _Mycat(&_Cat)

  0001c	89 54 24 20	 mov	 DWORD PTR $T1[rsp], edx

; 445  : 	return (error_condition(_Errval, *this));

  00020	48 8d 44 24 20	 lea	 rax, QWORD PTR $T1[rsp]

; 302  : 		: _Myval(_Val), _Mycat(&_Cat)

  00025	48 89 4c 24 28	 mov	 QWORD PTR $T1[rsp+8], rcx
$LN3@equivalent:

; 188  : 		return (_Addr == _Right._Addr);

  0002a	48 8b 4b 08	 mov	 rcx, QWORD PTR [rbx+8]
  0002e	4c 8b 40 08	 mov	 r8, QWORD PTR [rax+8]
  00032	48 8b 51 08	 mov	 rdx, QWORD PTR [rcx+8]
  00036	49 39 50 08	 cmp	 QWORD PTR [r8+8], rdx

; 389  : 	return (_Left.category() == _Right.category()

  0003a	75 0e		 jne	 SHORT $LN13@equivalent
  0003c	8b 0b		 mov	 ecx, DWORD PTR [rbx]
  0003e	39 08		 cmp	 DWORD PTR [rax], ecx
  00040	75 08		 jne	 SHORT $LN13@equivalent

; 452  : 	return (default_error_condition(_Errval) == _Cond);

  00042	b0 01		 mov	 al, 1

; 453  : 	}

  00044	48 83 c4 30	 add	 rsp, 48			; 00000030H
  00048	5b		 pop	 rbx
  00049	c3		 ret	 0
$LN13@equivalent:

; 452  : 	return (default_error_condition(_Errval) == _Cond);

  0004a	32 c0		 xor	 al, al

; 453  : 	}

  0004c	48 83 c4 30	 add	 rsp, 48			; 00000030H
  00050	5b		 pop	 rbx
  00051	c3		 ret	 0
$LN31@equivalent:
  00052	44 8b c2	 mov	 r8d, edx
  00055	48 8d 54 24 20	 lea	 rdx, QWORD PTR $T1[rsp]

; 452  : 	return (default_error_condition(_Errval) == _Cond);

  0005a	41 ff d1	 call	 r9
  0005d	eb cb		 jmp	 SHORT $LN3@equivalent
?equivalent@error_category@std@@UEBA_NHAEBVerror_condition@2@@Z ENDP ; std::error_category::equivalent
_TEXT	ENDS
; Function compile flags: /Ogtpy
; File c:\users\alist_000\cppmisc\packages\visualcpptools.14.0.24629\lib\native\include\system_error
;	COMDAT ?equivalent@error_category@std@@UEBA_NAEBVerror_code@2@H@Z
_TEXT	SEGMENT
this$ = 8
_Code$ = 16
_Errval$ = 24
?equivalent@error_category@std@@UEBA_NAEBVerror_code@2@H@Z PROC ; std::error_category::equivalent, COMDAT

; 188  : 		return (_Addr == _Right._Addr);

  00000	48 8b 42 08	 mov	 rax, QWORD PTR [rdx+8]
  00004	4c 8b 48 08	 mov	 r9, QWORD PTR [rax+8]
  00008	4c 39 49 08	 cmp	 QWORD PTR [rcx+8], r9

; 459  : 	return (*this == _Code.category() && _Code.value() == _Errval);

  0000c	75 08		 jne	 SHORT $LN3@equivalent
  0000e	44 39 02	 cmp	 DWORD PTR [rdx], r8d
  00011	75 03		 jne	 SHORT $LN3@equivalent
  00013	b0 01		 mov	 al, 1

; 460  : 	}

  00015	c3		 ret	 0
$LN3@equivalent:

; 459  : 	return (*this == _Code.category() && _Code.value() == _Errval);

  00016	32 c0		 xor	 al, al

; 460  : 	}

  00018	c3		 ret	 0
?equivalent@error_category@std@@UEBA_NAEBVerror_code@2@H@Z ENDP ; std::error_category::equivalent
_TEXT	ENDS
; Function compile flags: /Ogtpy
; File c:\users\alist_000\cppmisc\packages\visualcpptools.14.0.24629\lib\native\include\system_error
;	COMDAT ?make_error_code@std@@YA?AVerror_code@1@W4io_errc@1@@Z
_TEXT	SEGMENT
__$ReturnUdt$ = 48
_Errno$ = 56
?make_error_code@std@@YA?AVerror_code@1@W4io_errc@1@@Z PROC ; std::make_error_code, COMDAT

; 475  : 	{	// make an error_code

$LN29:
  00000	48 89 5c 24 08	 mov	 QWORD PTR [rsp+8], rbx
  00005	57		 push	 rdi
  00006	48 83 ec 20	 sub	 rsp, 32			; 00000020H

; 694  : 	/* MAGIC */ static _Immortalizer<_Ty> _Static;

  0000a	65 48 8b 04 25
	58 00 00 00	 mov	 rax, QWORD PTR gs:88

; 475  : 	{	// make an error_code

  00013	48 8b d9	 mov	 rbx, rcx

; 694  : 	/* MAGIC */ static _Immortalizer<_Ty> _Static;

  00016	b9 00 00 00 00	 mov	 ecx, OFFSET FLAT:_Init_thread_epoch

; 475  : 	{	// make an error_code

  0001b	8b fa		 mov	 edi, edx

; 694  : 	/* MAGIC */ static _Immortalizer<_Ty> _Static;

  0001d	4c 8b 00	 mov	 r8, QWORD PTR [rax]
  00020	42 8b 04 01	 mov	 eax, DWORD PTR [rcx+r8]
  00024	39 05 00 00 00
	00		 cmp	 DWORD PTR ?$TSS0@?1???$_Immortalize@V_Iostream_error_category@std@@@std@@YAAEAV_Iostream_error_category@1@XZ@4HA, eax ; TSS0<`template-parameter-2',unsigned int,std::V_Iostream_error_category::mortalize>
  0002a	7f 1b		 jg	 SHORT $LN27@make_error
$LN7@make_error:

; 229  : 		: _Myval(_Val), _Mycat(&_Cat)

  0002c	48 8d 05 00 00
	00 00		 lea	 rax, OFFSET FLAT:?_Static@?1???$_Immortalize@V_Iostream_error_category@std@@@std@@YAAEAV_Iostream_error_category@1@XZ@4U?$_Immortalizer@V_Iostream_error_category@std@@@1@A ; `std::_Immortalize<std::_Iostream_error_category>'::`2'::_Static
  00033	89 3b		 mov	 DWORD PTR [rbx], edi
  00035	48 89 43 08	 mov	 QWORD PTR [rbx+8], rax

; 476  : 	return (error_code((int)_Errno, iostream_category()));

  00039	48 8b c3	 mov	 rax, rbx

; 477  : 	}

  0003c	48 8b 5c 24 30	 mov	 rbx, QWORD PTR [rsp+48]
  00041	48 83 c4 20	 add	 rsp, 32			; 00000020H
  00045	5f		 pop	 rdi
  00046	c3		 ret	 0
$LN27@make_error:

; 694  : 	/* MAGIC */ static _Immortalizer<_Ty> _Static;

  00047	48 8d 0d 00 00
	00 00		 lea	 rcx, OFFSET FLAT:?$TSS0@?1???$_Immortalize@V_Iostream_error_category@std@@@std@@YAAEAV_Iostream_error_category@1@XZ@4HA ; TSS0<`template-parameter-2',unsigned int,std::V_Iostream_error_category::mortalize>
  0004e	e8 00 00 00 00	 call	 _Init_thread_header
  00053	83 3d 00 00 00
	00 ff		 cmp	 DWORD PTR ?$TSS0@?1???$_Immortalize@V_Iostream_error_category@std@@@std@@YAAEAV_Iostream_error_category@1@XZ@4HA, -1 ; TSS0<`template-parameter-2',unsigned int,std::V_Iostream_error_category::mortalize>
  0005a	75 d0		 jne	 SHORT $LN7@make_error

; 612  : 		{	// default constructor

  0005c	48 8d 05 00 00
	00 00		 lea	 rax, OFFSET FLAT:??_7_Iostream_error_category@std@@6B@

; 613  : 		_Addr = _Iostream_addr;

  00063	48 c7 05 08 00
	00 00 05 00 00
	00		 mov	 QWORD PTR ?_Static@?1???$_Immortalize@V_Iostream_error_category@std@@@std@@YAAEAV_Iostream_error_category@1@XZ@4U?$_Immortalizer@V_Iostream_error_category@std@@@1@A+8, 5

; 694  : 	/* MAGIC */ static _Immortalizer<_Ty> _Static;

  0006e	48 8d 0d 00 00
	00 00		 lea	 rcx, OFFSET FLAT:??__F_Static@?1???$_Immortalize@V_Iostream_error_category@std@@@std@@YAAEAV_Iostream_error_category@0@XZ@YAXXZ ; `std::_Immortalize<std::_Iostream_error_category>'::`2'::`dynamic atexit destructor for '_Static''

; 612  : 		{	// default constructor

  00075	48 89 05 00 00
	00 00		 mov	 QWORD PTR ?_Static@?1???$_Immortalize@V_Iostream_error_category@std@@@std@@YAAEAV_Iostream_error_category@1@XZ@4U?$_Immortalizer@V_Iostream_error_category@std@@@1@A, rax

; 694  : 	/* MAGIC */ static _Immortalizer<_Ty> _Static;

  0007c	e8 00 00 00 00	 call	 atexit
  00081	48 8d 0d 00 00
	00 00		 lea	 rcx, OFFSET FLAT:?$TSS0@?1???$_Immortalize@V_Iostream_error_category@std@@@std@@YAAEAV_Iostream_error_category@1@XZ@4HA ; TSS0<`template-parameter-2',unsigned int,std::V_Iostream_error_category::mortalize>
  00088	e8 00 00 00 00	 call	 _Init_thread_footer
  0008d	eb 9d		 jmp	 SHORT $LN7@make_error
?make_error_code@std@@YA?AVerror_code@1@W4io_errc@1@@Z ENDP ; std::make_error_code
_TEXT	ENDS
; Function compile flags: /Ogtpy
; File c:\users\alist_000\cppmisc\packages\visualcpptools.14.0.24629\lib\native\include\system_error
; File c:\users\alist_000\cppmisc\packages\visualcpptools.14.0.24629\lib\native\include\xstring
; File c:\users\alist_000\cppmisc\packages\visualcpptools.14.0.24629\lib\native\include\system_error
; File c:\users\alist_000\cppmisc\packages\visualcpptools.14.0.24629\lib\native\include\xstring
; File c:\users\alist_000\cppmisc\packages\visualcpptools.14.0.24629\lib\native\include\xmemory0
; File c:\users\alist_000\cppmisc\packages\visualcpptools.14.0.24629\lib\native\include\xstring
; File c:\users\alist_000\cppmisc\packages\visualcpptools.14.0.24629\lib\native\include\iosfwd
; File c:\users\alist_000\cppmisc\packages\visualcpptools.14.0.24629\lib\native\include\xstring
; File c:\users\alist_000\cppmisc\packages\visualcpptools.14.0.24629\lib\native\include\xmemory0
; File c:\users\alist_000\cppmisc\packages\visualcpptools.14.0.24629\lib\native\include\xstring
; File c:\users\alist_000\cppmisc\packages\visualcpptools.14.0.24629\lib\native\include\iosfwd
; File c:\users\alist_000\cppmisc\packages\visualcpptools.14.0.24629\lib\native\include\xstring
; File c:\users\alist_000\cppmisc\packages\visualcpptools.14.0.24629\lib\native\include\iosfwd
; File c:\users\alist_000\cppmisc\packages\visualcpptools.14.0.24629\lib\native\include\xstring
; File c:\users\alist_000\cppmisc\packages\visualcpptools.14.0.24629\lib\native\include\xmemory0
; File c:\users\alist_000\cppmisc\packages\visualcpptools.14.0.24629\lib\native\include\system_error
;	COMDAT ?_Makestr@_System_error@std@@CA?AV?$basic_string@DU?$char_traits@D@std@@V?$allocator@D@2@@2@Verror_code@2@V32@@Z
_TEXT	SEGMENT
$T1 = 32
$T2 = 40
_Message$GSCopy$ = 48
$T3 = 56
__$ArrayPad$ = 88
__$ReturnUdt$ = 128
_Errcode$ = 136
_Message$ = 144
?_Makestr@_System_error@std@@CA?AV?$basic_string@DU?$char_traits@D@std@@V?$allocator@D@2@@2@Verror_code@2@V32@@Z PROC ; std::_System_error::_Makestr, COMDAT

; 509  : 		{	// compose error message

$LN205:
  00000	40 55		 push	 rbp
  00002	56		 push	 rsi
  00003	57		 push	 rdi
  00004	48 83 ec 60	 sub	 rsp, 96			; 00000060H
  00008	48 c7 44 24 28
	fe ff ff ff	 mov	 QWORD PTR $T2[rsp], -2
  00011	48 89 9c 24 98
	00 00 00	 mov	 QWORD PTR [rsp+152], rbx
  00019	48 8b 05 00 00
	00 00		 mov	 rax, QWORD PTR __security_cookie
  00020	48 33 c4	 xor	 rax, rsp
  00023	48 89 44 24 58	 mov	 QWORD PTR __$ArrayPad$[rsp], rax
  00028	49 8b d8	 mov	 rbx, r8
  0002b	48 8b f2	 mov	 rsi, rdx
  0002e	48 8b f9	 mov	 rdi, rcx
  00031	48 89 5c 24 30	 mov	 QWORD PTR _Message$GSCopy$[rsp], rbx
  00036	33 ed		 xor	 ebp, ebp
  00038	89 6c 24 20	 mov	 DWORD PTR $T1[rsp], ebp
  0003c	49 39 68 10	 cmp	 QWORD PTR [r8+16], rbp

; 510  : 		if (!_Message.empty())

  00040	74 13		 je	 SHORT $LN2@Makestr
; File c:\users\alist_000\cppmisc\packages\visualcpptools.14.0.24629\lib\native\include\xstring

; 2285 : 		return (append(_Ptr, _Traits::length(_Ptr)));

  00042	44 8d 45 02	 lea	 r8d, QWORD PTR [rbp+2]
  00046	48 8d 15 00 00
	00 00		 lea	 rdx, OFFSET FLAT:??_C@_02LMMGGCAJ@?3?5?$AA@
  0004d	48 8b cb	 mov	 rcx, rbx
  00050	e8 00 00 00 00	 call	 ?append@?$basic_string@DU?$char_traits@D@std@@V?$allocator@D@2@@std@@QEAAAEAV12@QEBD_K@Z ; std::basic_string<char,std::char_traits<char>,std::allocator<char> >::append
$LN2@Makestr:
; File c:\users\alist_000\cppmisc\packages\visualcpptools.14.0.24629\lib\native\include\system_error

; 512  : 		_Message.append(_Errcode.message());

  00055	48 8d 54 24 38	 lea	 rdx, QWORD PTR $T3[rsp]
  0005a	48 8b ce	 mov	 rcx, rsi
  0005d	e8 00 00 00 00	 call	 ?message@error_code@std@@QEBA?AV?$basic_string@DU?$char_traits@D@std@@V?$allocator@D@2@@2@XZ ; std::error_code::message
  00062	90		 npad	 1
; File c:\users\alist_000\cppmisc\packages\visualcpptools.14.0.24629\lib\native\include\xstring

; 2226 : 		return (append(_Right, 0, npos));

  00063	49 83 c9 ff	 or	 r9, -1
  00067	45 33 c0	 xor	 r8d, r8d
  0006a	48 8b d0	 mov	 rdx, rax
  0006d	48 8b cb	 mov	 rcx, rbx
  00070	e8 00 00 00 00	 call	 ?append@?$basic_string@DU?$char_traits@D@std@@V?$allocator@D@2@@std@@QEAAAEAV12@AEBV12@_K_K@Z ; std::basic_string<char,std::char_traits<char>,std::allocator<char> >::append
  00075	90		 npad	 1

; 1638 : 		return (this->_BUF_SIZE <= _Myres);

  00076	48 8b 44 24 50	 mov	 rax, QWORD PTR $T3[rsp+24]
  0007b	48 83 f8 10	 cmp	 rax, 16

; 3549 : 		if (_My_data._Large_string_engaged())

  0007f	72 4d		 jb	 SHORT $LN61@Makestr

; 3550 : 			{
; 3551 : 			pointer _Ptr = _My_data._Bx._Ptr;
; 3552 : 			auto& _Al = this->_Getal();
; 3553 : 			_Al.destroy(_STD addressof(_My_data._Bx._Ptr));
; 3554 : 			_Al.deallocate(_Ptr, _My_data._Myres + 1);

  00081	48 ff c0	 inc	 rax
; File c:\users\alist_000\cppmisc\packages\visualcpptools.14.0.24629\lib\native\include\xmemory0

; 816  : 		_Deallocate(_Ptr, _Count, sizeof (_Ty));

  00084	48 8b 4c 24 38	 mov	 rcx, QWORD PTR $T3[rsp]

; 98   : 	if (_BIG_ALLOCATION_THRESHOLD <= _User_size)

  00089	48 3d 00 10 00
	00		 cmp	 rax, 4096		; 00001000H
  0008f	72 38		 jb	 SHORT $LN56@Makestr

; 99   : 		{	// deallocate large block
; 100  : 		const uintptr_t _Ptr_user = reinterpret_cast<uintptr_t>(_Ptr);
; 101  : 		_SCL_SECURE_ALWAYS_VALIDATE(

  00091	f6 c1 1f	 test	 cl, 31
  00094	74 06		 je	 SHORT $LN57@Makestr
  00096	e8 00 00 00 00	 call	 _invalid_parameter_noinfo_noreturn
  0009b	cc		 int	 3
$LN57@Makestr:

; 102  : 			(_Ptr_user & (_BIG_ALLOCATION_ALIGNMENT - 1)) == 0);
; 103  : 		const uintptr_t _Ptr_ptr = _Ptr_user - sizeof(void *);
; 104  : 		const uintptr_t _Ptr_container =
; 105  : 			*reinterpret_cast<uintptr_t *>(_Ptr_ptr);

  0009c	48 8b 41 f8	 mov	 rax, QWORD PTR [rcx-8]

; 106  : 
; 107  :  #ifdef _DEBUG
; 108  : 		// If the following asserts, it likely means that we are performing
; 109  : 		// an aligned delete on memory coming from an unaligned allocation.
; 110  : 		_SCL_SECURE_ALWAYS_VALIDATE(
; 111  : 			reinterpret_cast<uintptr_t *>(_Ptr_ptr)[-1] ==
; 112  : 				_BIG_ALLOCATION_SENTINEL);
; 113  :  #endif /* _DEBUG */
; 114  : 
; 115  : 		// Extra paranoia on aligned allocation/deallocation
; 116  : 		_SCL_SECURE_ALWAYS_VALIDATE(_Ptr_container < _Ptr_user);

  000a0	48 3b c1	 cmp	 rax, rcx
  000a3	72 06		 jb	 SHORT $LN58@Makestr
  000a5	e8 00 00 00 00	 call	 _invalid_parameter_noinfo_noreturn
  000aa	cc		 int	 3
$LN58@Makestr:

; 117  : 
; 118  :  #ifdef _DEBUG
; 119  : 		_SCL_SECURE_ALWAYS_VALIDATE(2 * sizeof(void *)
; 120  : 			<= _Ptr_user - _Ptr_container);
; 121  : 
; 122  :  #else /* _DEBUG */
; 123  : 		_SCL_SECURE_ALWAYS_VALIDATE(sizeof(void *)

  000ab	48 2b c8	 sub	 rcx, rax
  000ae	48 83 f9 08	 cmp	 rcx, 8
  000b2	73 06		 jae	 SHORT $LN59@Makestr
  000b4	e8 00 00 00 00	 call	 _invalid_parameter_noinfo_noreturn
  000b9	cc		 int	 3
$LN59@Makestr:

; 124  : 			<= _Ptr_user - _Ptr_container);
; 125  :  #endif /* _DEBUG */
; 126  : 
; 127  : 		_SCL_SECURE_ALWAYS_VALIDATE(_Ptr_user - _Ptr_container

  000ba	48 83 f9 27	 cmp	 rcx, 39			; 00000027H
  000be	76 06		 jbe	 SHORT $LN60@Makestr
  000c0	e8 00 00 00 00	 call	 _invalid_parameter_noinfo_noreturn
  000c5	cc		 int	 3
$LN60@Makestr:

; 128  : 			<= _NON_USER_SIZE);
; 129  : 
; 130  : 		_Ptr = reinterpret_cast<void *>(_Ptr_container);

  000c6	48 8b c8	 mov	 rcx, rax
$LN56@Makestr:

; 131  : 		}
; 132  :  #endif /* defined(_M_IX86) || defined(_M_X64) */
; 133  : 
; 134  : 	::operator delete(_Ptr);

  000c9	e8 00 00 00 00	 call	 ??3@YAXPEAX@Z		; operator delete
$LN61@Makestr:
; File c:\users\alist_000\cppmisc\packages\visualcpptools.14.0.24629\lib\native\include\xstring

; 3539 : 		_My_data._Mysize = 0;

  000ce	48 89 6f 10	 mov	 QWORD PTR [rdi+16], rbp

; 3540 : 		_My_data._Myres = this->_BUF_SIZE - 1;

  000d2	48 c7 47 18 0f
	00 00 00	 mov	 QWORD PTR [rdi+24], 15
; File c:\users\alist_000\cppmisc\packages\visualcpptools.14.0.24629\lib\native\include\iosfwd

; 516  : 		_Left = _Right;

  000da	c6 07 00	 mov	 BYTE PTR [rdi], 0
; File c:\users\alist_000\cppmisc\packages\visualcpptools.14.0.24629\lib\native\include\xstring

; 1638 : 		return (this->_BUF_SIZE <= _Myres);

  000dd	48 83 7b 18 10	 cmp	 QWORD PTR [rbx+24], 16

; 2100 : 		if (_Right_data._Large_string_engaged())

  000e2	72 0b		 jb	 SHORT $LN106@Makestr
; File c:\users\alist_000\cppmisc\packages\visualcpptools.14.0.24629\lib\native\include\xmemory0

; 833  : 		::new ((void *)_Ptr) _Objty(_STD forward<_Types>(_Args)...);

  000e4	48 8b 03	 mov	 rax, QWORD PTR [rbx]
  000e7	48 89 07	 mov	 QWORD PTR [rdi], rax
; File c:\users\alist_000\cppmisc\packages\visualcpptools.14.0.24629\lib\native\include\xstring

; 2103 : 			_Right_data._Bx._Ptr = pointer();

  000ea	48 89 2b	 mov	 QWORD PTR [rbx], rbp

; 2104 : 			}
; 2105 : 		else

  000ed	eb 12		 jmp	 SHORT $LN152@Makestr
$LN106@Makestr:

; 2106 : 			{	// copy small string buffer
; 2107 : 			_Traits::copy(_My_data._Bx._Buf, _Right_data._Bx._Buf, _Right_data._Mysize + 1);

  000ef	4c 8b 43 10	 mov	 r8, QWORD PTR [rbx+16]
  000f3	49 ff c0	 inc	 r8
; File c:\users\alist_000\cppmisc\packages\visualcpptools.14.0.24629\lib\native\include\iosfwd

; 485  : 		return ((_Elem *)_CSTD memcpy(_First1, _First2, _Count));

  000f6	48 8b d3	 mov	 rdx, rbx
  000f9	48 8b cf	 mov	 rcx, rdi
  000fc	e8 00 00 00 00	 call	 memcpy
$LN152@Makestr:
; File c:\users\alist_000\cppmisc\packages\visualcpptools.14.0.24629\lib\native\include\xstring

; 2109 : 		_My_data._Mysize = _Right_data._Mysize;

  00101	48 8b 43 10	 mov	 rax, QWORD PTR [rbx+16]
  00105	48 89 47 10	 mov	 QWORD PTR [rdi+16], rax

; 2110 : 		_My_data._Myres = _Right_data._Myres;

  00109	48 8b 43 18	 mov	 rax, QWORD PTR [rbx+24]
  0010d	48 89 47 18	 mov	 QWORD PTR [rdi+24], rax

; 3539 : 		_My_data._Mysize = 0;

  00111	48 89 6b 10	 mov	 QWORD PTR [rbx+16], rbp

; 3540 : 		_My_data._Myres = this->_BUF_SIZE - 1;

  00115	48 c7 43 18 0f
	00 00 00	 mov	 QWORD PTR [rbx+24], 15
; File c:\users\alist_000\cppmisc\packages\visualcpptools.14.0.24629\lib\native\include\iosfwd

; 516  : 		_Left = _Right;

  0011d	c6 03 00	 mov	 BYTE PTR [rbx], 0
; File c:\users\alist_000\cppmisc\packages\visualcpptools.14.0.24629\lib\native\include\xstring

; 1638 : 		return (this->_BUF_SIZE <= _Myres);

  00120	48 8b 43 18	 mov	 rax, QWORD PTR [rbx+24]
  00124	48 83 f8 10	 cmp	 rax, 16

; 3549 : 		if (_My_data._Large_string_engaged())

  00128	72 4b		 jb	 SHORT $LN199@Makestr

; 3550 : 			{
; 3551 : 			pointer _Ptr = _My_data._Bx._Ptr;
; 3552 : 			auto& _Al = this->_Getal();
; 3553 : 			_Al.destroy(_STD addressof(_My_data._Bx._Ptr));
; 3554 : 			_Al.deallocate(_Ptr, _My_data._Myres + 1);

  0012a	48 ff c0	 inc	 rax
; File c:\users\alist_000\cppmisc\packages\visualcpptools.14.0.24629\lib\native\include\xmemory0

; 816  : 		_Deallocate(_Ptr, _Count, sizeof (_Ty));

  0012d	48 8b 0b	 mov	 rcx, QWORD PTR [rbx]

; 98   : 	if (_BIG_ALLOCATION_THRESHOLD <= _User_size)

  00130	48 3d 00 10 00
	00		 cmp	 rax, 4096		; 00001000H
  00136	72 38		 jb	 SHORT $LN194@Makestr

; 99   : 		{	// deallocate large block
; 100  : 		const uintptr_t _Ptr_user = reinterpret_cast<uintptr_t>(_Ptr);
; 101  : 		_SCL_SECURE_ALWAYS_VALIDATE(

  00138	f6 c1 1f	 test	 cl, 31
  0013b	74 06		 je	 SHORT $LN195@Makestr
  0013d	e8 00 00 00 00	 call	 _invalid_parameter_noinfo_noreturn
  00142	cc		 int	 3
$LN195@Makestr:

; 102  : 			(_Ptr_user & (_BIG_ALLOCATION_ALIGNMENT - 1)) == 0);
; 103  : 		const uintptr_t _Ptr_ptr = _Ptr_user - sizeof(void *);
; 104  : 		const uintptr_t _Ptr_container =
; 105  : 			*reinterpret_cast<uintptr_t *>(_Ptr_ptr);

  00143	48 8b 41 f8	 mov	 rax, QWORD PTR [rcx-8]

; 106  : 
; 107  :  #ifdef _DEBUG
; 108  : 		// If the following asserts, it likely means that we are performing
; 109  : 		// an aligned delete on memory coming from an unaligned allocation.
; 110  : 		_SCL_SECURE_ALWAYS_VALIDATE(
; 111  : 			reinterpret_cast<uintptr_t *>(_Ptr_ptr)[-1] ==
; 112  : 				_BIG_ALLOCATION_SENTINEL);
; 113  :  #endif /* _DEBUG */
; 114  : 
; 115  : 		// Extra paranoia on aligned allocation/deallocation
; 116  : 		_SCL_SECURE_ALWAYS_VALIDATE(_Ptr_container < _Ptr_user);

  00147	48 3b c1	 cmp	 rax, rcx
  0014a	72 06		 jb	 SHORT $LN196@Makestr
  0014c	e8 00 00 00 00	 call	 _invalid_parameter_noinfo_noreturn
  00151	cc		 int	 3
$LN196@Makestr:

; 117  : 
; 118  :  #ifdef _DEBUG
; 119  : 		_SCL_SECURE_ALWAYS_VALIDATE(2 * sizeof(void *)
; 120  : 			<= _Ptr_user - _Ptr_container);
; 121  : 
; 122  :  #else /* _DEBUG */
; 123  : 		_SCL_SECURE_ALWAYS_VALIDATE(sizeof(void *)

  00152	48 2b c8	 sub	 rcx, rax
  00155	48 83 f9 08	 cmp	 rcx, 8
  00159	73 06		 jae	 SHORT $LN197@Makestr
  0015b	e8 00 00 00 00	 call	 _invalid_parameter_noinfo_noreturn
  00160	cc		 int	 3
$LN197@Makestr:

; 124  : 			<= _Ptr_user - _Ptr_container);
; 125  :  #endif /* _DEBUG */
; 126  : 
; 127  : 		_SCL_SECURE_ALWAYS_VALIDATE(_Ptr_user - _Ptr_container

  00161	48 83 f9 27	 cmp	 rcx, 39			; 00000027H
  00165	76 06		 jbe	 SHORT $LN198@Makestr
  00167	e8 00 00 00 00	 call	 _invalid_parameter_noinfo_noreturn
  0016c	cc		 int	 3
$LN198@Makestr:

; 128  : 			<= _NON_USER_SIZE);
; 129  : 
; 130  : 		_Ptr = reinterpret_cast<void *>(_Ptr_container);

  0016d	48 8b c8	 mov	 rcx, rax
$LN194@Makestr:

; 131  : 		}
; 132  :  #endif /* defined(_M_IX86) || defined(_M_X64) */
; 133  : 
; 134  : 	::operator delete(_Ptr);

  00170	e8 00 00 00 00	 call	 ??3@YAXPEAX@Z		; operator delete
$LN199@Makestr:
; File c:\users\alist_000\cppmisc\packages\visualcpptools.14.0.24629\lib\native\include\system_error

; 513  : 		return (_Message);

  00175	48 8b c7	 mov	 rax, rdi

; 514  : 		}

  00178	48 8b 4c 24 58	 mov	 rcx, QWORD PTR __$ArrayPad$[rsp]
  0017d	48 33 cc	 xor	 rcx, rsp
  00180	e8 00 00 00 00	 call	 __security_check_cookie
  00185	48 8b 9c 24 98
	00 00 00	 mov	 rbx, QWORD PTR [rsp+152]
  0018d	48 83 c4 60	 add	 rsp, 96			; 00000060H
  00191	5f		 pop	 rdi
  00192	5e		 pop	 rsi
  00193	5d		 pop	 rbp
  00194	c3		 ret	 0
$LN204@Makestr:
?_Makestr@_System_error@std@@CA?AV?$basic_string@DU?$char_traits@D@std@@V?$allocator@D@2@@2@Verror_code@2@V32@@Z ENDP ; std::_System_error::_Makestr
_TEXT	ENDS
;	COMDAT text$x
text$x	SEGMENT
$T1 = 32
$T2 = 40
_Message$GSCopy$ = 48
$T3 = 56
__$ArrayPad$ = 88
__$ReturnUdt$ = 128
_Errcode$ = 136
_Message$ = 144
?dtor$0@?0??_Makestr@_System_error@std@@CA?AV?$basic_string@DU?$char_traits@D@std@@V?$allocator@D@2@@2@Verror_code@2@V32@@Z@4HA PROC ; `std::_System_error::_Makestr'::`1'::dtor$0
  00000	48 8b 8a 30 00
	00 00		 mov	 rcx, QWORD PTR _Message$GSCopy$[rdx]
  00007	e9 00 00 00 00	 jmp	 ??1?$basic_string@DU?$char_traits@D@std@@V?$allocator@D@2@@std@@QEAA@XZ ; std::basic_string<char,std::char_traits<char>,std::allocator<char> >::~basic_string<char,std::char_traits<char>,std::allocator<char> >
?dtor$0@?0??_Makestr@_System_error@std@@CA?AV?$basic_string@DU?$char_traits@D@std@@V?$allocator@D@2@@2@Verror_code@2@V32@@Z@4HA ENDP ; `std::_System_error::_Makestr'::`1'::dtor$0
$T1 = 32
$T2 = 40
_Message$GSCopy$ = 48
$T3 = 56
__$ArrayPad$ = 88
__$ReturnUdt$ = 128
_Errcode$ = 136
_Message$ = 144
?dtor$1@?0??_Makestr@_System_error@std@@CA?AV?$basic_string@DU?$char_traits@D@std@@V?$allocator@D@2@@2@Verror_code@2@V32@@Z@4HA PROC ; `std::_System_error::_Makestr'::`1'::dtor$1
  0000c	48 8d 8a 38 00
	00 00		 lea	 rcx, QWORD PTR $T3[rdx]
  00013	e9 00 00 00 00	 jmp	 ??1?$basic_string@DU?$char_traits@D@std@@V?$allocator@D@2@@std@@QEAA@XZ ; std::basic_string<char,std::char_traits<char>,std::allocator<char> >::~basic_string<char,std::char_traits<char>,std::allocator<char> >
?dtor$1@?0??_Makestr@_System_error@std@@CA?AV?$basic_string@DU?$char_traits@D@std@@V?$allocator@D@2@@2@Verror_code@2@V32@@Z@4HA ENDP ; `std::_System_error::_Makestr'::`1'::dtor$1
text$x	ENDS
; Function compile flags: /Ogtpy
;	COMDAT text$x
text$x	SEGMENT
$T1 = 32
$T2 = 40
_Message$GSCopy$ = 48
$T3 = 56
__$ArrayPad$ = 88
__$ReturnUdt$ = 128
_Errcode$ = 136
_Message$ = 144
?dtor$0@?0??_Makestr@_System_error@std@@CA?AV?$basic_string@DU?$char_traits@D@std@@V?$allocator@D@2@@2@Verror_code@2@V32@@Z@4HA PROC ; `std::_System_error::_Makestr'::`1'::dtor$0
  00000	48 8b 8a 30 00
	00 00		 mov	 rcx, QWORD PTR _Message$GSCopy$[rdx]
  00007	e9 00 00 00 00	 jmp	 ??1?$basic_string@DU?$char_traits@D@std@@V?$allocator@D@2@@std@@QEAA@XZ ; std::basic_string<char,std::char_traits<char>,std::allocator<char> >::~basic_string<char,std::char_traits<char>,std::allocator<char> >
?dtor$0@?0??_Makestr@_System_error@std@@CA?AV?$basic_string@DU?$char_traits@D@std@@V?$allocator@D@2@@2@Verror_code@2@V32@@Z@4HA ENDP ; `std::_System_error::_Makestr'::`1'::dtor$0
text$x	ENDS
; Function compile flags: /Ogtpy
;	COMDAT text$x
text$x	SEGMENT
$T1 = 32
$T2 = 40
_Message$GSCopy$ = 48
$T3 = 56
__$ArrayPad$ = 88
__$ReturnUdt$ = 128
_Errcode$ = 136
_Message$ = 144
?dtor$1@?0??_Makestr@_System_error@std@@CA?AV?$basic_string@DU?$char_traits@D@std@@V?$allocator@D@2@@2@Verror_code@2@V32@@Z@4HA PROC ; `std::_System_error::_Makestr'::`1'::dtor$1
  0000c	48 8d 8a 38 00
	00 00		 lea	 rcx, QWORD PTR $T3[rdx]
  00013	e9 00 00 00 00	 jmp	 ??1?$basic_string@DU?$char_traits@D@std@@V?$allocator@D@2@@std@@QEAA@XZ ; std::basic_string<char,std::char_traits<char>,std::allocator<char> >::~basic_string<char,std::char_traits<char>,std::allocator<char> >
?dtor$1@?0??_Makestr@_System_error@std@@CA?AV?$basic_string@DU?$char_traits@D@std@@V?$allocator@D@2@@2@Verror_code@2@V32@@Z@4HA ENDP ; `std::_System_error::_Makestr'::`1'::dtor$1
text$x	ENDS
; Function compile flags: /Ogtpy
; File c:\users\alist_000\cppmisc\packages\visualcpptools.14.0.24629\lib\native\include\system_error
; File c:\users\alist_000\cppmisc\packages\visualcpptools.14.0.24629\lib\native\include\xstring
; File c:\users\alist_000\cppmisc\packages\visualcpptools.14.0.24629\lib\native\include\system_error
; File c:\users\alist_000\cppmisc\packages\visualcpptools.14.0.24629\lib\native\include\xstring
; File c:\users\alist_000\cppmisc\packages\visualcpptools.14.0.24629\lib\native\include\system_error
; File c:\users\alist_000\cppmisc\packages\visualcpptools.14.0.24629\lib\native\include\iosfwd
; File c:\users\alist_000\cppmisc\packages\visualcpptools.14.0.24629\lib\native\include\xstring
; File c:\users\alist_000\cppmisc\packages\visualcpptools.14.0.24629\lib\native\include\system_error
; File c:\users\alist_000\cppmisc\packages\visualcpptools.14.0.24629\lib\native\include\xstring
; File c:\users\alist_000\cppmisc\packages\visualcpptools.14.0.24629\lib\native\include\xstddef
; File c:\users\alist_000\cppmisc\packages\visualcpptools.14.0.24629\lib\native\include\vcruntime_exception.h
; File c:\users\alist_000\cppmisc\packages\visualcpptools.14.0.24629\lib\native\include\stdexcept
; File c:\users\alist_000\cppmisc\packages\visualcpptools.14.0.24629\lib\native\include\xstring
; File c:\users\alist_000\cppmisc\packages\visualcpptools.14.0.24629\lib\native\include\xmemory0
; File c:\users\alist_000\cppmisc\packages\visualcpptools.14.0.24629\lib\native\include\xstring
; File c:\users\alist_000\cppmisc\packages\visualcpptools.14.0.24629\lib\native\include\xmemory0
; File c:\users\alist_000\cppmisc\packages\visualcpptools.14.0.24629\lib\native\include\system_error
; File c:\users\alist_000\cppmisc\packages\visualcpptools.14.0.24629\lib\native\include\xmemory0
; File c:\users\alist_000\cppmisc\packages\visualcpptools.14.0.24629\lib\native\include\system_error
;	COMDAT ??0_System_error@std@@IEAA@Verror_code@1@AEBV?$basic_string@DU?$char_traits@D@std@@V?$allocator@D@2@@1@@Z
_TEXT	SEGMENT
_InitData$1 = 32
$T2 = 32
$T3 = 48
$T4 = 80
__$ArrayPad$ = 112
this$ = 144
_Errcode$ = 152
_Message$ = 160
??0_System_error@std@@IEAA@Verror_code@1@AEBV?$basic_string@DU?$char_traits@D@std@@V?$allocator@D@2@@1@@Z PROC ; std::_System_error::_System_error, COMDAT

; 519  : 		{	// construct from error code and message string

$LN115:
  00000	48 89 5c 24 20	 mov	 QWORD PTR [rsp+32], rbx
  00005	57		 push	 rdi
  00006	48 81 ec 80 00
	00 00		 sub	 rsp, 128		; 00000080H
  0000d	48 8b 05 00 00
	00 00		 mov	 rax, QWORD PTR __security_cookie
  00014	48 33 c4	 xor	 rax, rsp
  00017	48 89 44 24 70	 mov	 QWORD PTR __$ArrayPad$[rsp], rax
  0001c	49 8b c0	 mov	 rax, r8
; File c:\users\alist_000\cppmisc\packages\visualcpptools.14.0.24629\lib\native\include\xstring

; 3539 : 		_My_data._Mysize = 0;

  0001f	48 c7 44 24 40
	00 00 00 00	 mov	 QWORD PTR $T3[rsp+16], 0
; File c:\users\alist_000\cppmisc\packages\visualcpptools.14.0.24629\lib\native\include\system_error

; 519  : 		{	// construct from error code and message string

  00028	48 8b fa	 mov	 rdi, rdx
; File c:\users\alist_000\cppmisc\packages\visualcpptools.14.0.24629\lib\native\include\xstring

; 3540 : 		_My_data._Myres = this->_BUF_SIZE - 1;

  0002b	48 c7 44 24 48
	0f 00 00 00	 mov	 QWORD PTR $T3[rsp+24], 15
; File c:\users\alist_000\cppmisc\packages\visualcpptools.14.0.24629\lib\native\include\system_error

; 519  : 		{	// construct from error code and message string

  00034	48 8b d9	 mov	 rbx, rcx
; File c:\users\alist_000\cppmisc\packages\visualcpptools.14.0.24629\lib\native\include\iosfwd

; 516  : 		_Left = _Right;

  00037	c6 44 24 30 00	 mov	 BYTE PTR $T3[rsp], 0
; File c:\users\alist_000\cppmisc\packages\visualcpptools.14.0.24629\lib\native\include\xstring

; 2117 : 		assign(_Right, 0, npos);

  0003c	48 8b d0	 mov	 rdx, rax
  0003f	48 8d 4c 24 30	 lea	 rcx, QWORD PTR $T3[rsp]
  00044	49 83 c9 ff	 or	 r9, -1
  00048	45 33 c0	 xor	 r8d, r8d
  0004b	e8 00 00 00 00	 call	 ?assign@?$basic_string@DU?$char_traits@D@std@@V?$allocator@D@2@@std@@QEAAAEAV12@AEBV12@_K_K@Z ; std::basic_string<char,std::char_traits<char>,std::allocator<char> >::assign
; File c:\users\alist_000\cppmisc\packages\visualcpptools.14.0.24629\lib\native\include\system_error

; 518  : 		: runtime_error(_Makestr(_Errcode, _Message)), _Mycode(_Errcode)

  00050	0f 10 07	 movups	 xmm0, XMMWORD PTR [rdi]
  00053	4c 8d 44 24 30	 lea	 r8, QWORD PTR $T3[rsp]
  00058	48 8d 54 24 20	 lea	 rdx, QWORD PTR $T2[rsp]
  0005d	48 8d 4c 24 50	 lea	 rcx, QWORD PTR $T4[rsp]
  00062	0f 29 44 24 20	 movaps	 XMMWORD PTR $T2[rsp], xmm0
  00067	e8 00 00 00 00	 call	 ?_Makestr@_System_error@std@@CA?AV?$basic_string@DU?$char_traits@D@std@@V?$allocator@D@2@@2@Verror_code@2@V32@@Z ; std::_System_error::_Makestr
; File c:\users\alist_000\cppmisc\packages\visualcpptools.14.0.24629\lib\native\include\xstring

; 1638 : 		return (this->_BUF_SIZE <= _Myres);

  0006c	48 83 78 18 10	 cmp	 QWORD PTR [rax+24], 16

; 1631 : 		return (_Large_string_engaged()

  00071	72 03		 jb	 SHORT $LN61@System_err
; File c:\users\alist_000\cppmisc\packages\visualcpptools.14.0.24629\lib\native\include\xstddef

; 642  : 	return (_Ptr);

  00073	48 8b 00	 mov	 rax, QWORD PTR [rax]
$LN61@System_err:
; File c:\users\alist_000\cppmisc\packages\visualcpptools.14.0.24629\lib\native\include\vcruntime_exception.h

; 52   :         : _Data()

  00076	48 8d 53 08	 lea	 rdx, QWORD PTR [rbx+8]

; 53   :     {
; 54   :         __std_exception_data _InitData = { _Message, true };

  0007a	48 89 44 24 20	 mov	 QWORD PTR _InitData$1[rsp], rax
  0007f	48 8d 0d 00 00
	00 00		 lea	 rcx, OFFSET FLAT:??_7exception@std@@6B@
  00086	c6 44 24 28 01	 mov	 BYTE PTR _InitData$1[rsp+8], 1
  0008b	48 89 0b	 mov	 QWORD PTR [rbx], rcx
  0008e	33 c9		 xor	 ecx, ecx
  00090	48 89 0a	 mov	 QWORD PTR [rdx], rcx
  00093	48 89 4a 08	 mov	 QWORD PTR [rdx+8], rcx

; 55   :         __std_exception_copy(&_InitData, &_Data);

  00097	48 8d 4c 24 20	 lea	 rcx, QWORD PTR _InitData$1[rsp]
  0009c	e8 00 00 00 00	 call	 __std_exception_copy
; File c:\users\alist_000\cppmisc\packages\visualcpptools.14.0.24629\lib\native\include\stdexcept

; 163  : 		{	// construct from message string

  000a1	48 8d 05 00 00
	00 00		 lea	 rax, OFFSET FLAT:??_7runtime_error@std@@6B@
  000a8	48 89 03	 mov	 QWORD PTR [rbx], rax
; File c:\users\alist_000\cppmisc\packages\visualcpptools.14.0.24629\lib\native\include\xstring

; 1638 : 		return (this->_BUF_SIZE <= _Myres);

  000ab	48 8b 44 24 68	 mov	 rax, QWORD PTR $T4[rsp+24]
  000b0	48 83 f8 10	 cmp	 rax, 16

; 3549 : 		if (_My_data._Large_string_engaged())

  000b4	72 35		 jb	 SHORT $LN103@System_err
; File c:\users\alist_000\cppmisc\packages\visualcpptools.14.0.24629\lib\native\include\xmemory0

; 816  : 		_Deallocate(_Ptr, _Count, sizeof (_Ty));

  000b6	48 8b 4c 24 50	 mov	 rcx, QWORD PTR $T4[rsp]
; File c:\users\alist_000\cppmisc\packages\visualcpptools.14.0.24629\lib\native\include\xstring

; 3554 : 			_Al.deallocate(_Ptr, _My_data._Myres + 1);

  000bb	48 ff c0	 inc	 rax
; File c:\users\alist_000\cppmisc\packages\visualcpptools.14.0.24629\lib\native\include\xmemory0

; 98   : 	if (_BIG_ALLOCATION_THRESHOLD <= _User_size)

  000be	48 3d 00 10 00
	00		 cmp	 rax, 4096		; 00001000H
  000c4	72 20		 jb	 SHORT $LN98@System_err

; 101  : 		_SCL_SECURE_ALWAYS_VALIDATE(

  000c6	f6 c1 1f	 test	 cl, 31
  000c9	75 52		 jne	 SHORT $LN110@System_err

; 102  : 			(_Ptr_user & (_BIG_ALLOCATION_ALIGNMENT - 1)) == 0);
; 103  : 		const uintptr_t _Ptr_ptr = _Ptr_user - sizeof(void *);
; 104  : 		const uintptr_t _Ptr_container =
; 105  : 			*reinterpret_cast<uintptr_t *>(_Ptr_ptr);

  000cb	48 8b 41 f8	 mov	 rax, QWORD PTR [rcx-8]

; 106  : 
; 107  :  #ifdef _DEBUG
; 108  : 		// If the following asserts, it likely means that we are performing
; 109  : 		// an aligned delete on memory coming from an unaligned allocation.
; 110  : 		_SCL_SECURE_ALWAYS_VALIDATE(
; 111  : 			reinterpret_cast<uintptr_t *>(_Ptr_ptr)[-1] ==
; 112  : 				_BIG_ALLOCATION_SENTINEL);
; 113  :  #endif /* _DEBUG */
; 114  : 
; 115  : 		// Extra paranoia on aligned allocation/deallocation
; 116  : 		_SCL_SECURE_ALWAYS_VALIDATE(_Ptr_container < _Ptr_user);

  000cf	48 3b c1	 cmp	 rax, rcx
  000d2	73 4f		 jae	 SHORT $LN112@System_err

; 117  : 
; 118  :  #ifdef _DEBUG
; 119  : 		_SCL_SECURE_ALWAYS_VALIDATE(2 * sizeof(void *)
; 120  : 			<= _Ptr_user - _Ptr_container);
; 121  : 
; 122  :  #else /* _DEBUG */
; 123  : 		_SCL_SECURE_ALWAYS_VALIDATE(sizeof(void *)

  000d4	48 2b c8	 sub	 rcx, rax
  000d7	48 83 f9 08	 cmp	 rcx, 8
  000db	72 4c		 jb	 SHORT $LN113@System_err

; 124  : 			<= _Ptr_user - _Ptr_container);
; 125  :  #endif /* _DEBUG */
; 126  : 
; 127  : 		_SCL_SECURE_ALWAYS_VALIDATE(_Ptr_user - _Ptr_container

  000dd	48 83 f9 27	 cmp	 rcx, 39			; 00000027H
  000e1	77 4c		 ja	 SHORT $LN114@System_err

; 128  : 			<= _NON_USER_SIZE);
; 129  : 
; 130  : 		_Ptr = reinterpret_cast<void *>(_Ptr_container);

  000e3	48 8b c8	 mov	 rcx, rax
$LN98@System_err:

; 131  : 		}
; 132  :  #endif /* defined(_M_IX86) || defined(_M_X64) */
; 133  : 
; 134  : 	::operator delete(_Ptr);

  000e6	e8 00 00 00 00	 call	 ??3@YAXPEAX@Z		; operator delete
$LN103@System_err:
; File c:\users\alist_000\cppmisc\packages\visualcpptools.14.0.24629\lib\native\include\system_error

; 519  : 		{	// construct from error code and message string

  000eb	48 8d 05 00 00
	00 00		 lea	 rax, OFFSET FLAT:??_7_System_error@std@@6B@
  000f2	48 89 03	 mov	 QWORD PTR [rbx], rax

; 520  : 		}

  000f5	48 8b c3	 mov	 rax, rbx
  000f8	0f 10 07	 movups	 xmm0, XMMWORD PTR [rdi]
  000fb	0f 11 43 18	 movups	 XMMWORD PTR [rbx+24], xmm0
  000ff	48 8b 4c 24 70	 mov	 rcx, QWORD PTR __$ArrayPad$[rsp]
  00104	48 33 cc	 xor	 rcx, rsp
  00107	e8 00 00 00 00	 call	 __security_check_cookie
  0010c	48 8b 9c 24 a8
	00 00 00	 mov	 rbx, QWORD PTR [rsp+168]
  00114	48 81 c4 80 00
	00 00		 add	 rsp, 128		; 00000080H
  0011b	5f		 pop	 rdi
  0011c	c3		 ret	 0
$LN110@System_err:
; File c:\users\alist_000\cppmisc\packages\visualcpptools.14.0.24629\lib\native\include\xmemory0

; 101  : 		_SCL_SECURE_ALWAYS_VALIDATE(

  0011d	e8 00 00 00 00	 call	 _invalid_parameter_noinfo_noreturn
  00122	cc		 int	 3
$LN112@System_err:

; 106  : 
; 107  :  #ifdef _DEBUG
; 108  : 		// If the following asserts, it likely means that we are performing
; 109  : 		// an aligned delete on memory coming from an unaligned allocation.
; 110  : 		_SCL_SECURE_ALWAYS_VALIDATE(
; 111  : 			reinterpret_cast<uintptr_t *>(_Ptr_ptr)[-1] ==
; 112  : 				_BIG_ALLOCATION_SENTINEL);
; 113  :  #endif /* _DEBUG */
; 114  : 
; 115  : 		// Extra paranoia on aligned allocation/deallocation
; 116  : 		_SCL_SECURE_ALWAYS_VALIDATE(_Ptr_container < _Ptr_user);

  00123	e8 00 00 00 00	 call	 _invalid_parameter_noinfo_noreturn
  00128	cc		 int	 3
$LN113@System_err:

; 117  : 
; 118  :  #ifdef _DEBUG
; 119  : 		_SCL_SECURE_ALWAYS_VALIDATE(2 * sizeof(void *)
; 120  : 			<= _Ptr_user - _Ptr_container);
; 121  : 
; 122  :  #else /* _DEBUG */
; 123  : 		_SCL_SECURE_ALWAYS_VALIDATE(sizeof(void *)

  00129	e8 00 00 00 00	 call	 _invalid_parameter_noinfo_noreturn
  0012e	cc		 int	 3
$LN114@System_err:

; 124  : 			<= _Ptr_user - _Ptr_container);
; 125  :  #endif /* _DEBUG */
; 126  : 
; 127  : 		_SCL_SECURE_ALWAYS_VALIDATE(_Ptr_user - _Ptr_container

  0012f	e8 00 00 00 00	 call	 _invalid_parameter_noinfo_noreturn
  00134	cc		 int	 3
$LN109@System_err:
??0_System_error@std@@IEAA@Verror_code@1@AEBV?$basic_string@DU?$char_traits@D@std@@V?$allocator@D@2@@1@@Z ENDP ; std::_System_error::_System_error
_TEXT	ENDS
; Function compile flags: /Ogtpy
; File c:\users\alist_000\cppmisc\packages\visualcpptools.14.0.24629\lib\native\include\vcruntime_exception.h
;	COMDAT ??_G_System_error@std@@UEAAPEAXI@Z
_TEXT	SEGMENT
this$ = 48
__flags$ = 56
??_G_System_error@std@@UEAAPEAXI@Z PROC			; std::_System_error::`scalar deleting destructor', COMDAT
$LN14:
  00000	48 89 5c 24 08	 mov	 QWORD PTR [rsp+8], rbx
  00005	57		 push	 rdi
  00006	48 83 ec 20	 sub	 rsp, 32			; 00000020H

; 83   :     {

  0000a	48 8d 05 00 00
	00 00		 lea	 rax, OFFSET FLAT:??_7exception@std@@6B@
  00011	48 8b f9	 mov	 rdi, rcx
  00014	48 89 01	 mov	 QWORD PTR [rcx], rax
  00017	8b da		 mov	 ebx, edx

; 84   :         __std_exception_destroy(&_Data);

  00019	48 83 c1 08	 add	 rcx, 8
  0001d	e8 00 00 00 00	 call	 __std_exception_destroy
  00022	f6 c3 01	 test	 bl, 1
  00025	74 0d		 je	 SHORT $LN12@scalar
  00027	ba 28 00 00 00	 mov	 edx, 40			; 00000028H
  0002c	48 8b cf	 mov	 rcx, rdi
  0002f	e8 00 00 00 00	 call	 ??3@YAXPEAX_K@Z		; operator delete
$LN12@scalar:
  00034	48 8b c7	 mov	 rax, rdi
  00037	48 8b 5c 24 30	 mov	 rbx, QWORD PTR [rsp+48]
  0003c	48 83 c4 20	 add	 rsp, 32			; 00000020H
  00040	5f		 pop	 rdi
  00041	c3		 ret	 0
??_G_System_error@std@@UEAAPEAXI@Z ENDP			; std::_System_error::`scalar deleting destructor'
_TEXT	ENDS
; Function compile flags: /Ogtpy
; File c:\users\alist_000\cppmisc\packages\visualcpptools.14.0.24629\lib\native\include\vcruntime_exception.h
;	COMDAT ??1_System_error@std@@UEAA@XZ
_TEXT	SEGMENT
this$ = 8
??1_System_error@std@@UEAA@XZ PROC			; std::_System_error::~_System_error, COMDAT

; 83   :     {

  00000	48 8d 05 00 00
	00 00		 lea	 rax, OFFSET FLAT:??_7exception@std@@6B@
  00007	48 89 01	 mov	 QWORD PTR [rcx], rax

; 84   :         __std_exception_destroy(&_Data);

  0000a	48 83 c1 08	 add	 rcx, 8
  0000e	e9 00 00 00 00	 jmp	 __std_exception_destroy
??1_System_error@std@@UEAA@XZ ENDP			; std::_System_error::~_System_error
_TEXT	ENDS
; Function compile flags: /Ogtpy
; File c:\users\alist_000\cppmisc\packages\visualcpptools.14.0.24629\lib\native\include\system_error
; File c:\users\alist_000\cppmisc\packages\visualcpptools.14.0.24629\lib\native\include\xstring
; File c:\users\alist_000\cppmisc\packages\visualcpptools.14.0.24629\lib\native\include\iosfwd
; File c:\users\alist_000\cppmisc\packages\visualcpptools.14.0.24629\lib\native\include\xstring
; File c:\users\alist_000\cppmisc\packages\visualcpptools.14.0.24629\lib\native\include\system_error
; File c:\users\alist_000\cppmisc\packages\visualcpptools.14.0.24629\lib\native\include\xstring
; File c:\users\alist_000\cppmisc\packages\visualcpptools.14.0.24629\lib\native\include\xmemory0
; File c:\users\alist_000\cppmisc\packages\visualcpptools.14.0.24629\lib\native\include\system_error
;	COMDAT ??0system_error@std@@QEAA@Verror_code@1@PEBD@Z
_TEXT	SEGMENT
$T1 = 48
$T2 = 64
__$ArrayPad$ = 96
this$ = 128
_Errcode$ = 136
_Message$ = 144
??0system_error@std@@QEAA@Verror_code@1@PEBD@Z PROC	; std::system_error::system_error, COMDAT

; 544  : 		{	// construct from error code and message string

$LN71:
  00000	4c 8b dc	 mov	 r11, rsp
  00003	57		 push	 rdi
  00004	48 83 ec 70	 sub	 rsp, 112		; 00000070H
  00008	49 c7 43 a8 fe
	ff ff ff	 mov	 QWORD PTR [r11-88], -2
  00010	49 89 5b 20	 mov	 QWORD PTR [r11+32], rbx
  00014	48 8b 05 00 00
	00 00		 mov	 rax, QWORD PTR __security_cookie
  0001b	48 33 c4	 xor	 rax, rsp
  0001e	48 89 44 24 60	 mov	 QWORD PTR __$ArrayPad$[rsp], rax
  00023	49 8b c0	 mov	 rax, r8
  00026	48 8b fa	 mov	 rdi, rdx
  00029	48 8b d9	 mov	 rbx, rcx
; File c:\users\alist_000\cppmisc\packages\visualcpptools.14.0.24629\lib\native\include\xstring

; 3539 : 		_My_data._Mysize = 0;

  0002c	49 c7 43 d8 00
	00 00 00	 mov	 QWORD PTR [r11-40], 0

; 3540 : 		_My_data._Myres = this->_BUF_SIZE - 1;

  00034	49 c7 43 e0 0f
	00 00 00	 mov	 QWORD PTR [r11-32], 15
; File c:\users\alist_000\cppmisc\packages\visualcpptools.14.0.24629\lib\native\include\iosfwd

; 516  : 		_Left = _Right;

  0003c	c6 44 24 40 00	 mov	 BYTE PTR $T2[rsp], 0

; 479  : 		return (_CSTD strlen(_First));

  00041	49 83 c8 ff	 or	 r8, -1
$LL69@system_err:
  00045	49 ff c0	 inc	 r8
  00048	42 80 3c 00 00	 cmp	 BYTE PTR [rax+r8], 0
  0004d	75 f6		 jne	 SHORT $LL69@system_err
; File c:\users\alist_000\cppmisc\packages\visualcpptools.14.0.24629\lib\native\include\xstring

; 2377 : 		return (assign(_Ptr, _Traits::length(_Ptr)));

  0004f	48 8b d0	 mov	 rdx, rax
  00052	48 8d 4c 24 40	 lea	 rcx, QWORD PTR $T2[rsp]
  00057	e8 00 00 00 00	 call	 ?assign@?$basic_string@DU?$char_traits@D@std@@V?$allocator@D@2@@std@@QEAAAEAV12@QEBD_K@Z ; std::basic_string<char,std::char_traits<char>,std::allocator<char> >::assign
  0005c	90		 npad	 1
; File c:\users\alist_000\cppmisc\packages\visualcpptools.14.0.24629\lib\native\include\system_error

; 543  : 		: _Mybase(_Errcode, _Message)

  0005d	0f 10 07	 movups	 xmm0, XMMWORD PTR [rdi]
  00060	0f 29 44 24 30	 movaps	 XMMWORD PTR $T1[rsp], xmm0
  00065	4c 8d 44 24 40	 lea	 r8, QWORD PTR $T2[rsp]
  0006a	48 8d 54 24 30	 lea	 rdx, QWORD PTR $T1[rsp]
  0006f	48 8b cb	 mov	 rcx, rbx
  00072	e8 00 00 00 00	 call	 ??0_System_error@std@@IEAA@Verror_code@1@AEBV?$basic_string@DU?$char_traits@D@std@@V?$allocator@D@2@@1@@Z ; std::_System_error::_System_error
  00077	90		 npad	 1
; File c:\users\alist_000\cppmisc\packages\visualcpptools.14.0.24629\lib\native\include\xstring

; 1638 : 		return (this->_BUF_SIZE <= _Myres);

  00078	48 8b 44 24 58	 mov	 rax, QWORD PTR $T2[rsp+24]
  0007d	48 83 f8 10	 cmp	 rax, 16

; 3549 : 		if (_My_data._Large_string_engaged())

  00081	72 4d		 jb	 SHORT $LN63@system_err

; 3550 : 			{
; 3551 : 			pointer _Ptr = _My_data._Bx._Ptr;
; 3552 : 			auto& _Al = this->_Getal();
; 3553 : 			_Al.destroy(_STD addressof(_My_data._Bx._Ptr));
; 3554 : 			_Al.deallocate(_Ptr, _My_data._Myres + 1);

  00083	48 ff c0	 inc	 rax
; File c:\users\alist_000\cppmisc\packages\visualcpptools.14.0.24629\lib\native\include\xmemory0

; 816  : 		_Deallocate(_Ptr, _Count, sizeof (_Ty));

  00086	48 8b 4c 24 40	 mov	 rcx, QWORD PTR $T2[rsp]

; 98   : 	if (_BIG_ALLOCATION_THRESHOLD <= _User_size)

  0008b	48 3d 00 10 00
	00		 cmp	 rax, 4096		; 00001000H
  00091	72 38		 jb	 SHORT $LN58@system_err

; 99   : 		{	// deallocate large block
; 100  : 		const uintptr_t _Ptr_user = reinterpret_cast<uintptr_t>(_Ptr);
; 101  : 		_SCL_SECURE_ALWAYS_VALIDATE(

  00093	f6 c1 1f	 test	 cl, 31
  00096	74 06		 je	 SHORT $LN59@system_err
  00098	e8 00 00 00 00	 call	 _invalid_parameter_noinfo_noreturn
  0009d	cc		 int	 3
$LN59@system_err:

; 102  : 			(_Ptr_user & (_BIG_ALLOCATION_ALIGNMENT - 1)) == 0);
; 103  : 		const uintptr_t _Ptr_ptr = _Ptr_user - sizeof(void *);
; 104  : 		const uintptr_t _Ptr_container =
; 105  : 			*reinterpret_cast<uintptr_t *>(_Ptr_ptr);

  0009e	48 8b 41 f8	 mov	 rax, QWORD PTR [rcx-8]

; 106  : 
; 107  :  #ifdef _DEBUG
; 108  : 		// If the following asserts, it likely means that we are performing
; 109  : 		// an aligned delete on memory coming from an unaligned allocation.
; 110  : 		_SCL_SECURE_ALWAYS_VALIDATE(
; 111  : 			reinterpret_cast<uintptr_t *>(_Ptr_ptr)[-1] ==
; 112  : 				_BIG_ALLOCATION_SENTINEL);
; 113  :  #endif /* _DEBUG */
; 114  : 
; 115  : 		// Extra paranoia on aligned allocation/deallocation
; 116  : 		_SCL_SECURE_ALWAYS_VALIDATE(_Ptr_container < _Ptr_user);

  000a2	48 3b c1	 cmp	 rax, rcx
  000a5	72 06		 jb	 SHORT $LN60@system_err
  000a7	e8 00 00 00 00	 call	 _invalid_parameter_noinfo_noreturn
  000ac	cc		 int	 3
$LN60@system_err:

; 117  : 
; 118  :  #ifdef _DEBUG
; 119  : 		_SCL_SECURE_ALWAYS_VALIDATE(2 * sizeof(void *)
; 120  : 			<= _Ptr_user - _Ptr_container);
; 121  : 
; 122  :  #else /* _DEBUG */
; 123  : 		_SCL_SECURE_ALWAYS_VALIDATE(sizeof(void *)

  000ad	48 2b c8	 sub	 rcx, rax
  000b0	48 83 f9 08	 cmp	 rcx, 8
  000b4	73 06		 jae	 SHORT $LN61@system_err
  000b6	e8 00 00 00 00	 call	 _invalid_parameter_noinfo_noreturn
  000bb	cc		 int	 3
$LN61@system_err:

; 124  : 			<= _Ptr_user - _Ptr_container);
; 125  :  #endif /* _DEBUG */
; 126  : 
; 127  : 		_SCL_SECURE_ALWAYS_VALIDATE(_Ptr_user - _Ptr_container

  000bc	48 83 f9 27	 cmp	 rcx, 39			; 00000027H
  000c0	76 06		 jbe	 SHORT $LN62@system_err
  000c2	e8 00 00 00 00	 call	 _invalid_parameter_noinfo_noreturn
  000c7	cc		 int	 3
$LN62@system_err:

; 128  : 			<= _NON_USER_SIZE);
; 129  : 
; 130  : 		_Ptr = reinterpret_cast<void *>(_Ptr_container);

  000c8	48 8b c8	 mov	 rcx, rax
$LN58@system_err:

; 131  : 		}
; 132  :  #endif /* defined(_M_IX86) || defined(_M_X64) */
; 133  : 
; 134  : 	::operator delete(_Ptr);

  000cb	e8 00 00 00 00	 call	 ??3@YAXPEAX@Z		; operator delete
$LN63@system_err:
; File c:\users\alist_000\cppmisc\packages\visualcpptools.14.0.24629\lib\native\include\system_error

; 544  : 		{	// construct from error code and message string

  000d0	48 8d 05 00 00
	00 00		 lea	 rax, OFFSET FLAT:??_7system_error@std@@6B@
  000d7	48 89 03	 mov	 QWORD PTR [rbx], rax

; 545  : 		}

  000da	48 8b c3	 mov	 rax, rbx
  000dd	48 8b 4c 24 60	 mov	 rcx, QWORD PTR __$ArrayPad$[rsp]
  000e2	48 33 cc	 xor	 rcx, rsp
  000e5	e8 00 00 00 00	 call	 __security_check_cookie
  000ea	48 8b 9c 24 98
	00 00 00	 mov	 rbx, QWORD PTR [rsp+152]
  000f2	48 83 c4 70	 add	 rsp, 112		; 00000070H
  000f6	5f		 pop	 rdi
  000f7	c3		 ret	 0
$LN70@system_err:
??0system_error@std@@QEAA@Verror_code@1@PEBD@Z ENDP	; std::system_error::system_error
_TEXT	ENDS
;	COMDAT text$x
text$x	SEGMENT
$T1 = 48
$T2 = 64
__$ArrayPad$ = 96
this$ = 128
_Errcode$ = 136
_Message$ = 144
?dtor$0@?0???0system_error@std@@QEAA@Verror_code@1@PEBD@Z@4HA PROC ; `std::system_error::system_error'::`1'::dtor$0
  00000	48 8d 8a 40 00
	00 00		 lea	 rcx, QWORD PTR $T2[rdx]
  00007	e9 00 00 00 00	 jmp	 ??1?$basic_string@DU?$char_traits@D@std@@V?$allocator@D@2@@std@@QEAA@XZ ; std::basic_string<char,std::char_traits<char>,std::allocator<char> >::~basic_string<char,std::char_traits<char>,std::allocator<char> >
?dtor$0@?0???0system_error@std@@QEAA@Verror_code@1@PEBD@Z@4HA ENDP ; `std::system_error::system_error'::`1'::dtor$0
text$x	ENDS
; Function compile flags: /Ogtpy
;	COMDAT text$x
text$x	SEGMENT
$T1 = 48
$T2 = 64
__$ArrayPad$ = 96
this$ = 128
_Errcode$ = 136
_Message$ = 144
?dtor$0@?0???0system_error@std@@QEAA@Verror_code@1@PEBD@Z@4HA PROC ; `std::system_error::system_error'::`1'::dtor$0
  00000	48 8d 8a 40 00
	00 00		 lea	 rcx, QWORD PTR $T2[rdx]
  00007	e9 00 00 00 00	 jmp	 ??1?$basic_string@DU?$char_traits@D@std@@V?$allocator@D@2@@std@@QEAA@XZ ; std::basic_string<char,std::char_traits<char>,std::allocator<char> >::~basic_string<char,std::char_traits<char>,std::allocator<char> >
?dtor$0@?0???0system_error@std@@QEAA@Verror_code@1@PEBD@Z@4HA ENDP ; `std::system_error::system_error'::`1'::dtor$0
text$x	ENDS
; Function compile flags: /Ogtpy
; File c:\users\alist_000\cppmisc\packages\visualcpptools.14.0.24629\lib\native\include\vcruntime_exception.h
;	COMDAT ??_Gsystem_error@std@@UEAAPEAXI@Z
_TEXT	SEGMENT
this$ = 48
__flags$ = 56
??_Gsystem_error@std@@UEAAPEAXI@Z PROC			; std::system_error::`scalar deleting destructor', COMDAT
$LN17:
  00000	48 89 5c 24 08	 mov	 QWORD PTR [rsp+8], rbx
  00005	57		 push	 rdi
  00006	48 83 ec 20	 sub	 rsp, 32			; 00000020H

; 83   :     {

  0000a	48 8d 05 00 00
	00 00		 lea	 rax, OFFSET FLAT:??_7exception@std@@6B@
  00011	48 8b f9	 mov	 rdi, rcx
  00014	48 89 01	 mov	 QWORD PTR [rcx], rax
  00017	8b da		 mov	 ebx, edx

; 84   :         __std_exception_destroy(&_Data);

  00019	48 83 c1 08	 add	 rcx, 8
  0001d	e8 00 00 00 00	 call	 __std_exception_destroy
  00022	f6 c3 01	 test	 bl, 1
  00025	74 0d		 je	 SHORT $LN15@scalar
  00027	ba 28 00 00 00	 mov	 edx, 40			; 00000028H
  0002c	48 8b cf	 mov	 rcx, rdi
  0002f	e8 00 00 00 00	 call	 ??3@YAXPEAX_K@Z		; operator delete
$LN15@scalar:
  00034	48 8b c7	 mov	 rax, rdi
  00037	48 8b 5c 24 30	 mov	 rbx, QWORD PTR [rsp+48]
  0003c	48 83 c4 20	 add	 rsp, 32			; 00000020H
  00040	5f		 pop	 rdi
  00041	c3		 ret	 0
??_Gsystem_error@std@@UEAAPEAXI@Z ENDP			; std::system_error::`scalar deleting destructor'
_TEXT	ENDS
; Function compile flags: /Ogtpy
; File c:\users\alist_000\cppmisc\packages\visualcpptools.14.0.24629\lib\native\include\vcruntime_exception.h
;	COMDAT ??1system_error@std@@UEAA@XZ
_TEXT	SEGMENT
this$ = 8
??1system_error@std@@UEAA@XZ PROC			; std::system_error::~system_error, COMDAT

; 83   :     {

  00000	48 8d 05 00 00
	00 00		 lea	 rax, OFFSET FLAT:??_7exception@std@@6B@
  00007	48 89 01	 mov	 QWORD PTR [rcx], rax

; 84   :         __std_exception_destroy(&_Data);

  0000a	48 83 c1 08	 add	 rcx, 8
  0000e	e9 00 00 00 00	 jmp	 __std_exception_destroy
??1system_error@std@@UEAA@XZ ENDP			; std::system_error::~system_error
_TEXT	ENDS
; Function compile flags: /Ogtpy
; File c:\users\alist_000\cppmisc\packages\visualcpptools.14.0.24629\lib\native\include\system_error
;	COMDAT ??0_Generic_error_category@std@@QEAA@XZ
_TEXT	SEGMENT
this$ = 8
??0_Generic_error_category@std@@QEAA@XZ PROC		; std::_Generic_error_category::_Generic_error_category, COMDAT

; 591  : 		{	// default constructor

  00000	48 8d 05 00 00
	00 00		 lea	 rax, OFFSET FLAT:??_7_Generic_error_category@std@@6B@

; 592  : 		_Addr = _Generic_addr;

  00007	48 c7 41 08 03
	00 00 00	 mov	 QWORD PTR [rcx+8], 3
  0000f	48 89 01	 mov	 QWORD PTR [rcx], rax

; 593  : 		}

  00012	48 8b c1	 mov	 rax, rcx
  00015	c3		 ret	 0
??0_Generic_error_category@std@@QEAA@XZ ENDP		; std::_Generic_error_category::_Generic_error_category
_TEXT	ENDS
; Function compile flags: /Ogtpy
; File c:\users\alist_000\cppmisc\packages\visualcpptools.14.0.24629\lib\native\include\system_error
;	COMDAT ?name@_Generic_error_category@std@@UEBAPEBDXZ
_TEXT	SEGMENT
this$ = 8
?name@_Generic_error_category@std@@UEBAPEBDXZ PROC	; std::_Generic_error_category::name, COMDAT

; 597  : 		return ("generic");

  00000	48 8d 05 00 00
	00 00		 lea	 rax, OFFSET FLAT:??_C@_07DCLBNMLN@generic?$AA@

; 598  : 		}

  00007	c3		 ret	 0
?name@_Generic_error_category@std@@UEBAPEBDXZ ENDP	; std::_Generic_error_category::name
_TEXT	ENDS
; Function compile flags: /Ogtpy
; File c:\users\alist_000\cppmisc\packages\visualcpptools.14.0.24629\lib\native\include\system_error
; File c:\users\alist_000\cppmisc\packages\visualcpptools.14.0.24629\lib\native\include\xstring
; File c:\users\alist_000\cppmisc\packages\visualcpptools.14.0.24629\lib\native\include\iosfwd
; File c:\users\alist_000\cppmisc\packages\visualcpptools.14.0.24629\lib\native\include\xstring
; File c:\users\alist_000\cppmisc\packages\visualcpptools.14.0.24629\lib\native\include\iosfwd
; File c:\users\alist_000\cppmisc\packages\visualcpptools.14.0.24629\lib\native\include\xstring
; File c:\users\alist_000\cppmisc\packages\visualcpptools.14.0.24629\lib\native\include\system_error
;	COMDAT ?message@_Generic_error_category@std@@UEBA?AV?$basic_string@DU?$char_traits@D@std@@V?$allocator@D@2@@2@H@Z
_TEXT	SEGMENT
$T1 = 32
this$ = 64
__$ReturnUdt$ = 72
_Errcode$ = 80
?message@_Generic_error_category@std@@UEBA?AV?$basic_string@DU?$char_traits@D@std@@V?$allocator@D@2@@2@H@Z PROC ; std::_Generic_error_category::message, COMDAT

; 601  : 		{	// convert to name of error

$LN31:
  00000	40 53		 push	 rbx
  00002	48 83 ec 30	 sub	 rsp, 48			; 00000030H

; 602  : 		return (_Syserror_map(_Errcode));

  00006	41 8b c8	 mov	 ecx, r8d
  00009	c7 44 24 20 00
	00 00 00	 mov	 DWORD PTR $T1[rsp], 0
  00011	48 8b da	 mov	 rbx, rdx
  00014	e8 00 00 00 00	 call	 ?_Syserror_map@std@@YAPEBDH@Z ; std::_Syserror_map
; File c:\users\alist_000\cppmisc\packages\visualcpptools.14.0.24629\lib\native\include\xstring

; 3539 : 		_My_data._Mysize = 0;

  00019	48 c7 43 10 00
	00 00 00	 mov	 QWORD PTR [rbx+16], 0
; File c:\users\alist_000\cppmisc\packages\visualcpptools.14.0.24629\lib\native\include\iosfwd

; 479  : 		return (_CSTD strlen(_First));

  00021	49 83 c8 ff	 or	 r8, -1
; File c:\users\alist_000\cppmisc\packages\visualcpptools.14.0.24629\lib\native\include\xstring

; 3540 : 		_My_data._Myres = this->_BUF_SIZE - 1;

  00025	48 c7 43 18 0f
	00 00 00	 mov	 QWORD PTR [rbx+24], 15
; File c:\users\alist_000\cppmisc\packages\visualcpptools.14.0.24629\lib\native\include\iosfwd

; 516  : 		_Left = _Right;

  0002d	c6 03 00	 mov	 BYTE PTR [rbx], 0
$LL29@message:

; 479  : 		return (_CSTD strlen(_First));

  00030	49 ff c0	 inc	 r8
  00033	42 80 3c 00 00	 cmp	 BYTE PTR [rax+r8], 0
  00038	75 f6		 jne	 SHORT $LL29@message
; File c:\users\alist_000\cppmisc\packages\visualcpptools.14.0.24629\lib\native\include\xstring

; 2377 : 		return (assign(_Ptr, _Traits::length(_Ptr)));

  0003a	48 8b d0	 mov	 rdx, rax
  0003d	48 8b cb	 mov	 rcx, rbx
  00040	e8 00 00 00 00	 call	 ?assign@?$basic_string@DU?$char_traits@D@std@@V?$allocator@D@2@@std@@QEAAAEAV12@QEBD_K@Z ; std::basic_string<char,std::char_traits<char>,std::allocator<char> >::assign
; File c:\users\alist_000\cppmisc\packages\visualcpptools.14.0.24629\lib\native\include\system_error

; 602  : 		return (_Syserror_map(_Errcode));

  00045	48 8b c3	 mov	 rax, rbx

; 603  : 		}

  00048	48 83 c4 30	 add	 rsp, 48			; 00000030H
  0004c	5b		 pop	 rbx
  0004d	c3		 ret	 0
?message@_Generic_error_category@std@@UEBA?AV?$basic_string@DU?$char_traits@D@std@@V?$allocator@D@2@@2@H@Z ENDP ; std::_Generic_error_category::message
_TEXT	ENDS
; Function compile flags: /Ogtpy
; File c:\users\alist_000\cppmisc\packages\visualcpptools.14.0.24629\lib\native\include\system_error
;	COMDAT ??_G_Generic_error_category@std@@UEAAPEAXI@Z
_TEXT	SEGMENT
this$ = 48
__flags$ = 56
??_G_Generic_error_category@std@@UEAAPEAXI@Z PROC	; std::_Generic_error_category::`scalar deleting destructor', COMDAT
$LN12:
  00000	40 53		 push	 rbx
  00002	48 83 ec 20	 sub	 rsp, 32			; 00000020H

; 170  : 		{	// destroy the object

  00006	48 8d 05 00 00
	00 00		 lea	 rax, OFFSET FLAT:??_7error_category@std@@6B@
  0000d	48 8b d9	 mov	 rbx, rcx
  00010	48 89 01	 mov	 QWORD PTR [rcx], rax
  00013	f6 c2 01	 test	 dl, 1
  00016	74 0a		 je	 SHORT $LN10@scalar
  00018	ba 10 00 00 00	 mov	 edx, 16
  0001d	e8 00 00 00 00	 call	 ??3@YAXPEAX_K@Z		; operator delete
$LN10@scalar:
  00022	48 8b c3	 mov	 rax, rbx
  00025	48 83 c4 20	 add	 rsp, 32			; 00000020H
  00029	5b		 pop	 rbx
  0002a	c3		 ret	 0
??_G_Generic_error_category@std@@UEAAPEAXI@Z ENDP	; std::_Generic_error_category::`scalar deleting destructor'
_TEXT	ENDS
; Function compile flags: /Ogtpy
; File c:\users\alist_000\cppmisc\packages\visualcpptools.14.0.24629\lib\native\include\system_error
;	COMDAT ??1_Generic_error_category@std@@UEAA@XZ
_TEXT	SEGMENT
this$ = 8
??1_Generic_error_category@std@@UEAA@XZ PROC		; std::_Generic_error_category::~_Generic_error_category, COMDAT

; 170  : 		{	// destroy the object

  00000	48 8d 05 00 00
	00 00		 lea	 rax, OFFSET FLAT:??_7error_category@std@@6B@
  00007	48 89 01	 mov	 QWORD PTR [rcx], rax
  0000a	c3		 ret	 0
??1_Generic_error_category@std@@UEAA@XZ ENDP		; std::_Generic_error_category::~_Generic_error_category
_TEXT	ENDS
; Function compile flags: /Ogtpy
; File c:\users\alist_000\cppmisc\packages\visualcpptools.14.0.24629\lib\native\include\system_error
;	COMDAT ??0_Iostream_error_category@std@@QEAA@XZ
_TEXT	SEGMENT
this$ = 8
??0_Iostream_error_category@std@@QEAA@XZ PROC		; std::_Iostream_error_category::_Iostream_error_category, COMDAT

; 612  : 		{	// default constructor

  00000	48 8d 05 00 00
	00 00		 lea	 rax, OFFSET FLAT:??_7_Iostream_error_category@std@@6B@

; 613  : 		_Addr = _Iostream_addr;

  00007	48 c7 41 08 05
	00 00 00	 mov	 QWORD PTR [rcx+8], 5
  0000f	48 89 01	 mov	 QWORD PTR [rcx], rax

; 614  : 		}

  00012	48 8b c1	 mov	 rax, rcx
  00015	c3		 ret	 0
??0_Iostream_error_category@std@@QEAA@XZ ENDP		; std::_Iostream_error_category::_Iostream_error_category
_TEXT	ENDS
; Function compile flags: /Ogtpy
; File c:\users\alist_000\cppmisc\packages\visualcpptools.14.0.24629\lib\native\include\system_error
;	COMDAT ?name@_Iostream_error_category@std@@UEBAPEBDXZ
_TEXT	SEGMENT
this$ = 8
?name@_Iostream_error_category@std@@UEBAPEBDXZ PROC	; std::_Iostream_error_category::name, COMDAT

; 618  : 		return ("iostream");

  00000	48 8d 05 00 00
	00 00		 lea	 rax, OFFSET FLAT:??_C@_08LLGCOLLL@iostream?$AA@

; 619  : 		}

  00007	c3		 ret	 0
?name@_Iostream_error_category@std@@UEBAPEBDXZ ENDP	; std::_Iostream_error_category::name
_TEXT	ENDS
; Function compile flags: /Ogtpy
; File c:\users\alist_000\cppmisc\packages\visualcpptools.14.0.24629\lib\native\include\system_error
; File c:\users\alist_000\cppmisc\packages\visualcpptools.14.0.24629\lib\native\include\xstring
; File c:\users\alist_000\cppmisc\packages\visualcpptools.14.0.24629\lib\native\include\iosfwd
; File c:\users\alist_000\cppmisc\packages\visualcpptools.14.0.24629\lib\native\include\xstring
; File c:\users\alist_000\cppmisc\packages\visualcpptools.14.0.24629\lib\native\include\system_error
;	COMDAT ?message@_Iostream_error_category@std@@UEBA?AV?$basic_string@DU?$char_traits@D@std@@V?$allocator@D@2@@2@H@Z
_TEXT	SEGMENT
$T1 = 32
this$ = 64
__$ReturnUdt$ = 72
_Errcode$ = 80
?message@_Iostream_error_category@std@@UEBA?AV?$basic_string@DU?$char_traits@D@std@@V?$allocator@D@2@@2@H@Z PROC ; std::_Iostream_error_category::message, COMDAT

; 622  : 		{	// convert to name of error

$LN33:
  00000	40 53		 push	 rbx
  00002	48 83 ec 30	 sub	 rsp, 48			; 00000030H
  00006	33 c0		 xor	 eax, eax
  00008	48 8b da	 mov	 rbx, rdx
  0000b	89 44 24 20	 mov	 DWORD PTR $T1[rsp], eax

; 623  : 		if (_Errcode == (int)io_errc::stream)

  0000f	41 83 f8 01	 cmp	 r8d, 1
  00013	75 2a		 jne	 SHORT $LN2@message
; File c:\users\alist_000\cppmisc\packages\visualcpptools.14.0.24629\lib\native\include\xstring

; 3539 : 		_My_data._Mysize = 0;

  00015	48 89 42 10	 mov	 QWORD PTR [rdx+16], rax

; 2377 : 		return (assign(_Ptr, _Traits::length(_Ptr)));

  00019	44 8d 40 15	 lea	 r8d, QWORD PTR [rax+21]

; 3540 : 		_My_data._Myres = this->_BUF_SIZE - 1;

  0001d	48 c7 42 18 0f
	00 00 00	 mov	 QWORD PTR [rdx+24], 15

; 2377 : 		return (assign(_Ptr, _Traits::length(_Ptr)));

  00025	48 8b cb	 mov	 rcx, rbx
; File c:\users\alist_000\cppmisc\packages\visualcpptools.14.0.24629\lib\native\include\iosfwd

; 516  : 		_Left = _Right;

  00028	88 02		 mov	 BYTE PTR [rdx], al
; File c:\users\alist_000\cppmisc\packages\visualcpptools.14.0.24629\lib\native\include\xstring

; 2377 : 		return (assign(_Ptr, _Traits::length(_Ptr)));

  0002a	48 8d 15 00 00
	00 00		 lea	 rdx, OFFSET FLAT:??_C@_0BG@PADBLCHM@iostream?5stream?5error?$AA@
  00031	e8 00 00 00 00	 call	 ?assign@?$basic_string@DU?$char_traits@D@std@@V?$allocator@D@2@@std@@QEAAAEAV12@QEBD_K@Z ; std::basic_string<char,std::char_traits<char>,std::allocator<char> >::assign
; File c:\users\alist_000\cppmisc\packages\visualcpptools.14.0.24629\lib\native\include\system_error

; 626  : 			return (_Generic_error_category::message(_Errcode));

  00036	48 8b c3	 mov	 rax, rbx

; 627  : 		}

  00039	48 83 c4 30	 add	 rsp, 48			; 00000030H
  0003d	5b		 pop	 rbx
  0003e	c3		 ret	 0
$LN2@message:

; 626  : 			return (_Generic_error_category::message(_Errcode));

  0003f	e8 00 00 00 00	 call	 ?message@_Generic_error_category@std@@UEBA?AV?$basic_string@DU?$char_traits@D@std@@V?$allocator@D@2@@2@H@Z ; std::_Generic_error_category::message
  00044	48 8b c3	 mov	 rax, rbx

; 627  : 		}

  00047	48 83 c4 30	 add	 rsp, 48			; 00000030H
  0004b	5b		 pop	 rbx
  0004c	c3		 ret	 0
?message@_Iostream_error_category@std@@UEBA?AV?$basic_string@DU?$char_traits@D@std@@V?$allocator@D@2@@2@H@Z ENDP ; std::_Iostream_error_category::message
_TEXT	ENDS
; Function compile flags: /Ogtpy
; File c:\users\alist_000\cppmisc\packages\visualcpptools.14.0.24629\lib\native\include\system_error
;	COMDAT ??_G_Iostream_error_category@std@@UEAAPEAXI@Z
_TEXT	SEGMENT
this$ = 48
__flags$ = 56
??_G_Iostream_error_category@std@@UEAAPEAXI@Z PROC	; std::_Iostream_error_category::`scalar deleting destructor', COMDAT
$LN15:
  00000	40 53		 push	 rbx
  00002	48 83 ec 20	 sub	 rsp, 32			; 00000020H

; 170  : 		{	// destroy the object

  00006	48 8d 05 00 00
	00 00		 lea	 rax, OFFSET FLAT:??_7error_category@std@@6B@
  0000d	48 8b d9	 mov	 rbx, rcx
  00010	48 89 01	 mov	 QWORD PTR [rcx], rax
  00013	f6 c2 01	 test	 dl, 1
  00016	74 0a		 je	 SHORT $LN13@scalar
  00018	ba 10 00 00 00	 mov	 edx, 16
  0001d	e8 00 00 00 00	 call	 ??3@YAXPEAX_K@Z		; operator delete
$LN13@scalar:
  00022	48 8b c3	 mov	 rax, rbx
  00025	48 83 c4 20	 add	 rsp, 32			; 00000020H
  00029	5b		 pop	 rbx
  0002a	c3		 ret	 0
??_G_Iostream_error_category@std@@UEAAPEAXI@Z ENDP	; std::_Iostream_error_category::`scalar deleting destructor'
_TEXT	ENDS
; Function compile flags: /Ogtpy
; File c:\users\alist_000\cppmisc\packages\visualcpptools.14.0.24629\lib\native\include\system_error
;	COMDAT ??1_Iostream_error_category@std@@UEAA@XZ
_TEXT	SEGMENT
this$ = 8
??1_Iostream_error_category@std@@UEAA@XZ PROC		; std::_Iostream_error_category::~_Iostream_error_category, COMDAT

; 170  : 		{	// destroy the object

  00000	48 8d 05 00 00
	00 00		 lea	 rax, OFFSET FLAT:??_7error_category@std@@6B@
  00007	48 89 01	 mov	 QWORD PTR [rcx], rax
  0000a	c3		 ret	 0
??1_Iostream_error_category@std@@UEAA@XZ ENDP		; std::_Iostream_error_category::~_Iostream_error_category
_TEXT	ENDS
; Function compile flags: /Ogtpy
; File c:\users\alist_000\cppmisc\packages\visualcpptools.14.0.24629\lib\native\include\system_error
;	COMDAT ?iostream_category@std@@YAAEBVerror_category@1@XZ
_TEXT	SEGMENT
?iostream_category@std@@YAAEBVerror_category@1@XZ PROC	; std::iostream_category, COMDAT

; 704  : 	{	// get iostream_category

$LN25:
  00000	48 83 ec 28	 sub	 rsp, 40			; 00000028H

; 694  : 	/* MAGIC */ static _Immortalizer<_Ty> _Static;

  00004	65 48 8b 04 25
	58 00 00 00	 mov	 rax, QWORD PTR gs:88
  0000d	ba 00 00 00 00	 mov	 edx, OFFSET FLAT:_Init_thread_epoch
  00012	48 8b 08	 mov	 rcx, QWORD PTR [rax]
  00015	8b 04 0a	 mov	 eax, DWORD PTR [rdx+rcx]
  00018	39 05 00 00 00
	00		 cmp	 DWORD PTR ?$TSS0@?1???$_Immortalize@V_Iostream_error_category@std@@@std@@YAAEAV_Iostream_error_category@1@XZ@4HA, eax ; TSS0<`template-parameter-2',unsigned int,std::V_Iostream_error_category::mortalize>
  0001e	7f 0c		 jg	 SHORT $LN23@iostream_c
$LN21@iostream_c:

; 705  : 	return (_Immortalize<_Iostream_error_category>());

  00020	48 8d 05 00 00
	00 00		 lea	 rax, OFFSET FLAT:?_Static@?1???$_Immortalize@V_Iostream_error_category@std@@@std@@YAAEAV_Iostream_error_category@1@XZ@4U?$_Immortalizer@V_Iostream_error_category@std@@@1@A ; `std::_Immortalize<std::_Iostream_error_category>'::`2'::_Static

; 706  : 	}

  00027	48 83 c4 28	 add	 rsp, 40			; 00000028H
  0002b	c3		 ret	 0
$LN23@iostream_c:

; 694  : 	/* MAGIC */ static _Immortalizer<_Ty> _Static;

  0002c	48 8d 0d 00 00
	00 00		 lea	 rcx, OFFSET FLAT:?$TSS0@?1???$_Immortalize@V_Iostream_error_category@std@@@std@@YAAEAV_Iostream_error_category@1@XZ@4HA ; TSS0<`template-parameter-2',unsigned int,std::V_Iostream_error_category::mortalize>
  00033	e8 00 00 00 00	 call	 _Init_thread_header
  00038	83 3d 00 00 00
	00 ff		 cmp	 DWORD PTR ?$TSS0@?1???$_Immortalize@V_Iostream_error_category@std@@@std@@YAAEAV_Iostream_error_category@1@XZ@4HA, -1 ; TSS0<`template-parameter-2',unsigned int,std::V_Iostream_error_category::mortalize>
  0003f	75 df		 jne	 SHORT $LN21@iostream_c

; 612  : 		{	// default constructor

  00041	48 8d 05 00 00
	00 00		 lea	 rax, OFFSET FLAT:??_7_Iostream_error_category@std@@6B@

; 613  : 		_Addr = _Iostream_addr;

  00048	48 c7 05 08 00
	00 00 05 00 00
	00		 mov	 QWORD PTR ?_Static@?1???$_Immortalize@V_Iostream_error_category@std@@@std@@YAAEAV_Iostream_error_category@1@XZ@4U?$_Immortalizer@V_Iostream_error_category@std@@@1@A+8, 5

; 694  : 	/* MAGIC */ static _Immortalizer<_Ty> _Static;

  00053	48 8d 0d 00 00
	00 00		 lea	 rcx, OFFSET FLAT:??__F_Static@?1???$_Immortalize@V_Iostream_error_category@std@@@std@@YAAEAV_Iostream_error_category@0@XZ@YAXXZ ; `std::_Immortalize<std::_Iostream_error_category>'::`2'::`dynamic atexit destructor for '_Static''

; 612  : 		{	// default constructor

  0005a	48 89 05 00 00
	00 00		 mov	 QWORD PTR ?_Static@?1???$_Immortalize@V_Iostream_error_category@std@@@std@@YAAEAV_Iostream_error_category@1@XZ@4U?$_Immortalizer@V_Iostream_error_category@std@@@1@A, rax

; 694  : 	/* MAGIC */ static _Immortalizer<_Ty> _Static;

  00061	e8 00 00 00 00	 call	 atexit
  00066	48 8d 0d 00 00
	00 00		 lea	 rcx, OFFSET FLAT:?$TSS0@?1???$_Immortalize@V_Iostream_error_category@std@@@std@@YAAEAV_Iostream_error_category@1@XZ@4HA ; TSS0<`template-parameter-2',unsigned int,std::V_Iostream_error_category::mortalize>
  0006d	e8 00 00 00 00	 call	 _Init_thread_footer
  00072	eb ac		 jmp	 SHORT $LN21@iostream_c
?iostream_category@std@@YAAEBVerror_category@1@XZ ENDP	; std::iostream_category
_TEXT	ENDS
; Function compile flags: /Ogtpy
; File c:\users\alist_000\cppmisc\packages\visualcpptools.14.0.24629\lib\native\include\xiosbase
;	COMDAT ??0failure@ios_base@std@@QEAA@PEBDAEBVerror_code@2@@Z
_TEXT	SEGMENT
$T1 = 32
this$ = 64
_Message$ = 72
_Errcode$ = 80
??0failure@ios_base@std@@QEAA@PEBDAEBVerror_code@2@@Z PROC ; std::ios_base::failure::failure, COMDAT

; 238  : 			{	// construct with message

$LN5:
  00000	40 53		 push	 rbx
  00002	48 83 ec 30	 sub	 rsp, 48			; 00000030H

; 237  : 			: system_error(_Errcode, _Message)

  00006	41 0f 10 00	 movups	 xmm0, XMMWORD PTR [r8]
  0000a	4c 8b c2	 mov	 r8, rdx

; 238  : 			{	// construct with message

  0000d	48 8b d9	 mov	 rbx, rcx
  00010	48 8d 54 24 20	 lea	 rdx, QWORD PTR $T1[rsp]
  00015	0f 29 44 24 20	 movaps	 XMMWORD PTR $T1[rsp], xmm0
  0001a	e8 00 00 00 00	 call	 ??0system_error@std@@QEAA@Verror_code@1@PEBD@Z ; std::system_error::system_error
  0001f	48 8d 05 00 00
	00 00		 lea	 rax, OFFSET FLAT:??_7failure@ios_base@std@@6B@
  00026	48 89 03	 mov	 QWORD PTR [rbx], rax

; 239  : 			}

  00029	48 8b c3	 mov	 rax, rbx
  0002c	48 83 c4 30	 add	 rsp, 48			; 00000030H
  00030	5b		 pop	 rbx
  00031	c3		 ret	 0
??0failure@ios_base@std@@QEAA@PEBDAEBVerror_code@2@@Z ENDP ; std::ios_base::failure::failure
_TEXT	ENDS
; Function compile flags: /Ogtpy
; File c:\users\alist_000\cppmisc\packages\visualcpptools.14.0.24629\lib\native\include\xiosbase
;	COMDAT ?clear@ios_base@std@@QEAAXH_N@Z
_TEXT	SEGMENT
$T1 = 32
$T2 = 48
$T3 = 48
$T4 = 48
this$ = 112
_State$ = 120
_Reraise$ = 128
?clear@ios_base@std@@QEAAXH_N@Z PROC			; std::ios_base::clear, COMDAT

; 287  : 		{	// set state, possibly reraise exception

$LN17:
  00000	48 83 ec 68	 sub	 rsp, 104		; 00000068H

; 288  : 		_Mystate = (iostate)(_State & _Statmask);
; 289  : 		if ((_Mystate & _Except) == 0)

  00004	8b 41 14	 mov	 eax, DWORD PTR [rcx+20]
  00007	83 e2 17	 and	 edx, 23
  0000a	89 51 10	 mov	 DWORD PTR [rcx+16], edx
  0000d	23 c2		 and	 eax, edx
  0000f	74 19		 je	 SHORT $LN9@clear

; 290  : 			;
; 291  : 		else if (_Reraise)

  00011	45 84 c0	 test	 r8b, r8b
  00014	75 19		 jne	 SHORT $LN12@clear

; 293  : 		else if (_Mystate & _Except & badbit)
; 294  : 			_THROW_NCEE(failure, "ios_base::badbit set");

  00016	48 8d 4c 24 20	 lea	 rcx, QWORD PTR $T1[rsp]
  0001b	ba 01 00 00 00	 mov	 edx, 1
  00020	a8 04		 test	 al, 4
  00022	75 15		 jne	 SHORT $LN14@clear

; 295  : 		else if (_Mystate & _Except & failbit)

  00024	a8 02		 test	 al, 2
  00026	75 3c		 jne	 SHORT $LN15@clear
  00028	eb 65		 jmp	 SHORT $LN16@clear
$LN9@clear:

; 299  : 		}

  0002a	48 83 c4 68	 add	 rsp, 104		; 00000068H
  0002e	c3		 ret	 0
$LN12@clear:

; 292  : 			_RERAISE;

  0002f	33 d2		 xor	 edx, edx
  00031	33 c9		 xor	 ecx, ecx
  00033	e8 00 00 00 00	 call	 _CxxThrowException
  00038	cc		 int	 3
$LN14@clear:

; 293  : 		else if (_Mystate & _Except & badbit)
; 294  : 			_THROW_NCEE(failure, "ios_base::badbit set");

  00039	e8 00 00 00 00	 call	 ?make_error_code@std@@YA?AVerror_code@1@W4io_errc@1@@Z ; std::make_error_code
  0003e	4c 8b c0	 mov	 r8, rax
  00041	48 8d 15 00 00
	00 00		 lea	 rdx, OFFSET FLAT:??_C@_0BF@PHHKMMFD@ios_base?3?3badbit?5set?$AA@
  00048	48 8d 4c 24 30	 lea	 rcx, QWORD PTR $T4[rsp]
  0004d	e8 00 00 00 00	 call	 ??0failure@ios_base@std@@QEAA@PEBDAEBVerror_code@2@@Z ; std::ios_base::failure::failure
  00052	48 8d 15 00 00
	00 00		 lea	 rdx, OFFSET FLAT:_TI5?AVfailure@ios_base@std@@
  00059	48 8d 4c 24 30	 lea	 rcx, QWORD PTR $T4[rsp]
  0005e	e8 00 00 00 00	 call	 _CxxThrowException
  00063	cc		 int	 3
$LN15@clear:

; 296  : 			_THROW_NCEE(failure, "ios_base::failbit set");

  00064	e8 00 00 00 00	 call	 ?make_error_code@std@@YA?AVerror_code@1@W4io_errc@1@@Z ; std::make_error_code
  00069	4c 8b c0	 mov	 r8, rax
  0006c	48 8d 15 00 00
	00 00		 lea	 rdx, OFFSET FLAT:??_C@_0BG@FMKFHCIL@ios_base?3?3failbit?5set?$AA@
  00073	48 8d 4c 24 30	 lea	 rcx, QWORD PTR $T3[rsp]
  00078	e8 00 00 00 00	 call	 ??0failure@ios_base@std@@QEAA@PEBDAEBVerror_code@2@@Z ; std::ios_base::failure::failure
  0007d	48 8d 15 00 00
	00 00		 lea	 rdx, OFFSET FLAT:_TI5?AVfailure@ios_base@std@@
  00084	48 8d 4c 24 30	 lea	 rcx, QWORD PTR $T3[rsp]
  00089	e8 00 00 00 00	 call	 _CxxThrowException
  0008e	cc		 int	 3
$LN16@clear:

; 297  : 		else
; 298  : 			_THROW_NCEE(failure, "ios_base::eofbit set");

  0008f	e8 00 00 00 00	 call	 ?make_error_code@std@@YA?AVerror_code@1@W4io_errc@1@@Z ; std::make_error_code
  00094	4c 8b c0	 mov	 r8, rax
  00097	48 8d 15 00 00
	00 00		 lea	 rdx, OFFSET FLAT:??_C@_0BF@OOHOMBOF@ios_base?3?3eofbit?5set?$AA@
  0009e	48 8d 4c 24 30	 lea	 rcx, QWORD PTR $T2[rsp]
  000a3	e8 00 00 00 00	 call	 ??0failure@ios_base@std@@QEAA@PEBDAEBVerror_code@2@@Z ; std::ios_base::failure::failure
  000a8	48 8d 15 00 00
	00 00		 lea	 rdx, OFFSET FLAT:_TI5?AVfailure@ios_base@std@@
  000af	48 8d 4c 24 30	 lea	 rcx, QWORD PTR $T2[rsp]
  000b4	e8 00 00 00 00	 call	 _CxxThrowException
  000b9	cc		 int	 3
$LN11@clear:
?clear@ios_base@std@@QEAAXH_N@Z ENDP			; std::ios_base::clear
_TEXT	ENDS
; Function compile flags: /Ogtpy
; File c:\users\alist_000\cppmisc\packages\visualcpptools.14.0.24629\lib\native\include\xiosbase
;	COMDAT ?rdstate@ios_base@std@@QEBAHXZ
_TEXT	SEGMENT
this$ = 8
?rdstate@ios_base@std@@QEBAHXZ PROC			; std::ios_base::rdstate, COMDAT

; 315  : 		return (_Mystate);

  00000	8b 41 10	 mov	 eax, DWORD PTR [rcx+16]

; 316  : 		}

  00003	c3		 ret	 0
?rdstate@ios_base@std@@QEBAHXZ ENDP			; std::ios_base::rdstate
_TEXT	ENDS
; Function compile flags: /Ogtpy
; File c:\users\alist_000\cppmisc\packages\visualcpptools.14.0.24629\lib\native\include\xiosbase
;	COMDAT ?good@ios_base@std@@QEBA_NXZ
_TEXT	SEGMENT
this$ = 8
?good@ios_base@std@@QEBA_NXZ PROC			; std::ios_base::good, COMDAT

; 338  : 		{	// test if no state bits are set

  00000	83 79 10 00	 cmp	 DWORD PTR [rcx+16], 0
  00004	0f 94 c0	 sete	 al

; 339  : 		return (rdstate() == goodbit);
; 340  : 		}

  00007	c3		 ret	 0
?good@ios_base@std@@QEBA_NXZ ENDP			; std::ios_base::good
_TEXT	ENDS
; Function compile flags: /Ogtpy
; File c:\users\alist_000\cppmisc\packages\visualcpptools.14.0.24629\lib\native\include\xiosbase
;	COMDAT ?flags@ios_base@std@@QEBAHXZ
_TEXT	SEGMENT
this$ = 8
?flags@ios_base@std@@QEBAHXZ PROC			; std::ios_base::flags, COMDAT

; 378  : 		return (_Fmtfl);

  00000	8b 41 18	 mov	 eax, DWORD PTR [rcx+24]

; 379  : 		}

  00003	c3		 ret	 0
?flags@ios_base@std@@QEBAHXZ ENDP			; std::ios_base::flags
_TEXT	ENDS
; Function compile flags: /Ogtpy
; File c:\users\alist_000\cppmisc\packages\visualcpptools.14.0.24629\lib\native\include\xiosbase
;	COMDAT ?width@ios_base@std@@QEBA_JXZ
_TEXT	SEGMENT
this$ = 8
?width@ios_base@std@@QEBA_JXZ PROC			; std::ios_base::width, COMDAT

; 423  : 		return (_Wide);

  00000	48 8b 41 28	 mov	 rax, QWORD PTR [rcx+40]

; 424  : 		}

  00004	c3		 ret	 0
?width@ios_base@std@@QEBA_JXZ ENDP			; std::ios_base::width
_TEXT	ENDS
; Function compile flags: /Ogtpy
; File c:\users\alist_000\cppmisc\packages\visualcpptools.14.0.24629\lib\native\include\xiosbase
;	COMDAT ?width@ios_base@std@@QEAA_J_J@Z
_TEXT	SEGMENT
this$ = 8
_Newwidth$ = 16
?width@ios_base@std@@QEAA_J_J@Z PROC			; std::ios_base::width, COMDAT

; 428  : 		streamsize _Oldwidth = _Wide;

  00000	48 8b 41 28	 mov	 rax, QWORD PTR [rcx+40]

; 429  : 		_Wide = _Newwidth;

  00004	48 89 51 28	 mov	 QWORD PTR [rcx+40], rdx

; 430  : 		return (_Oldwidth);
; 431  : 		}

  00008	c3		 ret	 0
?width@ios_base@std@@QEAA_J_J@Z ENDP			; std::ios_base::width
_TEXT	ENDS
; Function compile flags: /Ogtpy
; File c:\users\alist_000\cppmisc\packages\visualcpptools.14.0.24629\lib\native\include\vcruntime_exception.h
;	COMDAT ??_Gfailure@ios_base@std@@UEAAPEAXI@Z
_TEXT	SEGMENT
this$ = 48
__flags$ = 56
??_Gfailure@ios_base@std@@UEAAPEAXI@Z PROC		; std::ios_base::failure::`scalar deleting destructor', COMDAT
$LN20:
  00000	48 89 5c 24 08	 mov	 QWORD PTR [rsp+8], rbx
  00005	57		 push	 rdi
  00006	48 83 ec 20	 sub	 rsp, 32			; 00000020H

; 83   :     {

  0000a	48 8d 05 00 00
	00 00		 lea	 rax, OFFSET FLAT:??_7exception@std@@6B@
  00011	48 8b f9	 mov	 rdi, rcx
  00014	48 89 01	 mov	 QWORD PTR [rcx], rax
  00017	8b da		 mov	 ebx, edx

; 84   :         __std_exception_destroy(&_Data);

  00019	48 83 c1 08	 add	 rcx, 8
  0001d	e8 00 00 00 00	 call	 __std_exception_destroy
  00022	f6 c3 01	 test	 bl, 1
  00025	74 0d		 je	 SHORT $LN18@scalar
  00027	ba 28 00 00 00	 mov	 edx, 40			; 00000028H
  0002c	48 8b cf	 mov	 rcx, rdi
  0002f	e8 00 00 00 00	 call	 ??3@YAXPEAX_K@Z		; operator delete
$LN18@scalar:
  00034	48 8b c7	 mov	 rax, rdi
  00037	48 8b 5c 24 30	 mov	 rbx, QWORD PTR [rsp+48]
  0003c	48 83 c4 20	 add	 rsp, 32			; 00000020H
  00040	5f		 pop	 rdi
  00041	c3		 ret	 0
??_Gfailure@ios_base@std@@UEAAPEAXI@Z ENDP		; std::ios_base::failure::`scalar deleting destructor'
_TEXT	ENDS
; Function compile flags: /Ogtpy
; File c:\users\alist_000\cppmisc\packages\visualcpptools.14.0.24629\lib\native\include\vcruntime_exception.h
;	COMDAT ??1failure@ios_base@std@@UEAA@XZ
_TEXT	SEGMENT
this$ = 8
??1failure@ios_base@std@@UEAA@XZ PROC			; std::ios_base::failure::~failure, COMDAT

; 83   :     {

  00000	48 8d 05 00 00
	00 00		 lea	 rax, OFFSET FLAT:??_7exception@std@@6B@
  00007	48 89 01	 mov	 QWORD PTR [rcx], rax

; 84   :         __std_exception_destroy(&_Data);

  0000a	48 83 c1 08	 add	 rcx, 8
  0000e	e9 00 00 00 00	 jmp	 __std_exception_destroy
??1failure@ios_base@std@@UEAA@XZ ENDP			; std::ios_base::failure::~failure
_TEXT	ENDS
; Function compile flags: /Ogtpy
; File c:\users\alist_000\cppmisc\packages\visualcpptools.14.0.24629\lib\native\include\vcruntime_exception.h
;	COMDAT ??0failure@ios_base@std@@QEAA@AEBV012@@Z
_TEXT	SEGMENT
this$ = 48
__that$ = 56
??0failure@ios_base@std@@QEAA@AEBV012@@Z PROC		; std::ios_base::failure::failure, COMDAT
$LN15:
  00000	48 89 5c 24 08	 mov	 QWORD PTR [rsp+8], rbx
  00005	57		 push	 rdi
  00006	48 83 ec 20	 sub	 rsp, 32			; 00000020H
  0000a	48 8b da	 mov	 rbx, rdx

; 66   :     {

  0000d	48 8d 05 00 00
	00 00		 lea	 rax, OFFSET FLAT:??_7exception@std@@6B@
  00014	48 89 01	 mov	 QWORD PTR [rcx], rax
  00017	48 8d 51 08	 lea	 rdx, QWORD PTR [rcx+8]
  0001b	33 c0		 xor	 eax, eax
  0001d	48 8b f9	 mov	 rdi, rcx

; 65   :         : _Data()

  00020	48 89 02	 mov	 QWORD PTR [rdx], rax

; 67   :         __std_exception_copy(&_Other._Data, &_Data);

  00023	48 8d 4b 08	 lea	 rcx, QWORD PTR [rbx+8]
  00027	48 89 42 08	 mov	 QWORD PTR [rdx+8], rax
  0002b	e8 00 00 00 00	 call	 __std_exception_copy
  00030	48 8d 05 00 00
	00 00		 lea	 rax, OFFSET FLAT:??_7_System_error@std@@6B@
  00037	48 89 07	 mov	 QWORD PTR [rdi], rax
  0003a	48 8d 05 00 00
	00 00		 lea	 rax, OFFSET FLAT:??_7failure@ios_base@std@@6B@
  00041	0f 10 43 18	 movups	 xmm0, XMMWORD PTR [rbx+24]
  00045	48 8b 5c 24 30	 mov	 rbx, QWORD PTR [rsp+48]
  0004a	48 89 07	 mov	 QWORD PTR [rdi], rax
  0004d	48 8b c7	 mov	 rax, rdi
  00050	0f 11 47 18	 movups	 XMMWORD PTR [rdi+24], xmm0
  00054	48 83 c4 20	 add	 rsp, 32			; 00000020H
  00058	5f		 pop	 rdi
  00059	c3		 ret	 0
??0failure@ios_base@std@@QEAA@AEBV012@@Z ENDP		; std::ios_base::failure::failure
_TEXT	ENDS
; Function compile flags: /Ogtpy
; File c:\users\alist_000\cppmisc\packages\visualcpptools.14.0.24629\lib\native\include\vcruntime_exception.h
;	COMDAT ??0system_error@std@@QEAA@AEBV01@@Z
_TEXT	SEGMENT
this$ = 48
__that$ = 56
??0system_error@std@@QEAA@AEBV01@@Z PROC		; std::system_error::system_error, COMDAT
$LN12:
  00000	48 89 5c 24 08	 mov	 QWORD PTR [rsp+8], rbx
  00005	57		 push	 rdi
  00006	48 83 ec 20	 sub	 rsp, 32			; 00000020H
  0000a	48 8b da	 mov	 rbx, rdx

; 66   :     {

  0000d	48 8d 05 00 00
	00 00		 lea	 rax, OFFSET FLAT:??_7exception@std@@6B@
  00014	48 89 01	 mov	 QWORD PTR [rcx], rax
  00017	48 8d 51 08	 lea	 rdx, QWORD PTR [rcx+8]
  0001b	33 c0		 xor	 eax, eax
  0001d	48 8b f9	 mov	 rdi, rcx

; 65   :         : _Data()

  00020	48 89 02	 mov	 QWORD PTR [rdx], rax

; 67   :         __std_exception_copy(&_Other._Data, &_Data);

  00023	48 8d 4b 08	 lea	 rcx, QWORD PTR [rbx+8]
  00027	48 89 42 08	 mov	 QWORD PTR [rdx+8], rax
  0002b	e8 00 00 00 00	 call	 __std_exception_copy
  00030	48 8d 05 00 00
	00 00		 lea	 rax, OFFSET FLAT:??_7_System_error@std@@6B@
  00037	48 89 07	 mov	 QWORD PTR [rdi], rax
  0003a	48 8d 05 00 00
	00 00		 lea	 rax, OFFSET FLAT:??_7system_error@std@@6B@
  00041	0f 10 43 18	 movups	 xmm0, XMMWORD PTR [rbx+24]
  00045	48 8b 5c 24 30	 mov	 rbx, QWORD PTR [rsp+48]
  0004a	48 89 07	 mov	 QWORD PTR [rdi], rax
  0004d	48 8b c7	 mov	 rax, rdi
  00050	0f 11 47 18	 movups	 XMMWORD PTR [rdi+24], xmm0
  00054	48 83 c4 20	 add	 rsp, 32			; 00000020H
  00058	5f		 pop	 rdi
  00059	c3		 ret	 0
??0system_error@std@@QEAA@AEBV01@@Z ENDP		; std::system_error::system_error
_TEXT	ENDS
; Function compile flags: /Ogtpy
; File c:\users\alist_000\cppmisc\packages\visualcpptools.14.0.24629\lib\native\include\vcruntime_exception.h
;	COMDAT ??0_System_error@std@@QEAA@AEBV01@@Z
_TEXT	SEGMENT
this$ = 48
__that$ = 56
??0_System_error@std@@QEAA@AEBV01@@Z PROC		; std::_System_error::_System_error, COMDAT
$LN9:
  00000	48 89 5c 24 08	 mov	 QWORD PTR [rsp+8], rbx
  00005	57		 push	 rdi
  00006	48 83 ec 20	 sub	 rsp, 32			; 00000020H
  0000a	48 8b da	 mov	 rbx, rdx

; 66   :     {

  0000d	48 8d 05 00 00
	00 00		 lea	 rax, OFFSET FLAT:??_7exception@std@@6B@
  00014	48 89 01	 mov	 QWORD PTR [rcx], rax
  00017	48 8d 51 08	 lea	 rdx, QWORD PTR [rcx+8]
  0001b	33 c0		 xor	 eax, eax
  0001d	48 8b f9	 mov	 rdi, rcx

; 65   :         : _Data()

  00020	48 89 02	 mov	 QWORD PTR [rdx], rax

; 67   :         __std_exception_copy(&_Other._Data, &_Data);

  00023	48 8d 4b 08	 lea	 rcx, QWORD PTR [rbx+8]
  00027	48 89 42 08	 mov	 QWORD PTR [rdx+8], rax
  0002b	e8 00 00 00 00	 call	 __std_exception_copy
  00030	48 8d 05 00 00
	00 00		 lea	 rax, OFFSET FLAT:??_7_System_error@std@@6B@
  00037	48 89 07	 mov	 QWORD PTR [rdi], rax
  0003a	48 8b c7	 mov	 rax, rdi
  0003d	0f 10 43 18	 movups	 xmm0, XMMWORD PTR [rbx+24]
  00041	48 8b 5c 24 30	 mov	 rbx, QWORD PTR [rsp+48]
  00046	0f 11 47 18	 movups	 XMMWORD PTR [rdi+24], xmm0
  0004a	48 83 c4 20	 add	 rsp, 32			; 00000020H
  0004e	5f		 pop	 rdi
  0004f	c3		 ret	 0
??0_System_error@std@@QEAA@AEBV01@@Z ENDP		; std::_System_error::_System_error
_TEXT	ENDS
; Function compile flags: /Ogtpy
; File c:\users\alist_000\cppmisc\packages\visualcpptools.14.0.24629\lib\native\include\thr\xthread
;	COMDAT ?_Check_C_return@std@@YAHH@Z
_TEXT	SEGMENT
_Res$ = 48
?_Check_C_return@std@@YAHH@Z PROC			; std::_Check_C_return, COMDAT

; 33   : 	{	// throw exception on failure

$LN6:
  00000	40 53		 push	 rbx
  00002	48 83 ec 20	 sub	 rsp, 32			; 00000020H
  00006	8b d9		 mov	 ebx, ecx

; 34   : 	if (_Res != _Thrd_success)

  00008	85 c9		 test	 ecx, ecx
  0000a	74 05		 je	 SHORT $LN4@Check_C_re

; 35   : 		_Throw_C_error(_Res);

  0000c	e8 00 00 00 00	 call	 ?_Throw_C_error@std@@YAXH@Z ; std::_Throw_C_error
$LN4@Check_C_re:

; 36   : 	return (_Res);

  00011	8b c3		 mov	 eax, ebx

; 37   : 	}

  00013	48 83 c4 20	 add	 rsp, 32			; 00000020H
  00017	5b		 pop	 rbx
  00018	c3		 ret	 0
?_Check_C_return@std@@YAHH@Z ENDP			; std::_Check_C_return
_TEXT	ENDS
; Function compile flags: /Ogtpy
; File c:\users\alist_000\cppmisc\packages\visualcpptools.14.0.24629\lib\native\include\thr\xthread
;	COMDAT ?_Thrd_startX@std@@YAHPEAU_Thrd_imp_t@@P6AIPEAX@Z1@Z
_TEXT	SEGMENT
_Thr$ = 48
_Fp$dead$ = 56
_Arg$ = 64
?_Thrd_startX@std@@YAHPEAU_Thrd_imp_t@@P6AIPEAX@Z1@Z PROC ; std::_Thrd_startX, COMDAT

; 48   : 	{	// throw exception on failure

$LN8:
  00000	40 53		 push	 rbx
  00002	48 83 ec 20	 sub	 rsp, 32			; 00000020H

; 49   : 	int _Res = _Thrd_start(_Thr, _Fp, _Arg);

  00006	48 8d 15 00 00
	00 00		 lea	 rdx, OFFSET FLAT:?_Call_func@_Pad@std@@CAIPEAX@Z ; std::_Pad::_Call_func
  0000d	e8 00 00 00 00	 call	 _Thrd_start

; 50   : 	return (_Check_C_return(_Res != _Thrd_error ? _Res : _Thrd_nomem));

  00012	83 f8 04	 cmp	 eax, 4
  00015	bb 01 00 00 00	 mov	 ebx, 1
  0001a	0f 45 d8	 cmovne	 ebx, eax

; 34   : 	if (_Res != _Thrd_success)

  0001d	85 db		 test	 ebx, ebx
  0001f	74 07		 je	 SHORT $LN6@Thrd_start

; 35   : 		_Throw_C_error(_Res);

  00021	8b cb		 mov	 ecx, ebx
  00023	e8 00 00 00 00	 call	 ?_Throw_C_error@std@@YAXH@Z ; std::_Throw_C_error
$LN6@Thrd_start:

; 50   : 	return (_Check_C_return(_Res != _Thrd_error ? _Res : _Thrd_nomem));

  00028	8b c3		 mov	 eax, ebx

; 51   : 	}

  0002a	48 83 c4 20	 add	 rsp, 32			; 00000020H
  0002e	5b		 pop	 rbx
  0002f	c3		 ret	 0
?_Thrd_startX@std@@YAHPEAU_Thrd_imp_t@@P6AIPEAX@Z1@Z ENDP ; std::_Thrd_startX
_TEXT	ENDS
; Function compile flags: /Ogtpy
; File c:\users\alist_000\cppmisc\packages\visualcpptools.14.0.24629\lib\native\include\thr\xthread
;	COMDAT ?_Mtx_initX@std@@YAHPEAPEAU_Mtx_internal_imp_t@@H@Z
_TEXT	SEGMENT
_Mtx$ = 48
_Type$dead$ = 56
?_Mtx_initX@std@@YAHPEAPEAU_Mtx_internal_imp_t@@H@Z PROC ; std::_Mtx_initX, COMDAT

; 64   : 	{	// throw exception on failure

$LN8:
  00000	40 53		 push	 rbx
  00002	48 83 ec 20	 sub	 rsp, 32			; 00000020H

; 65   : 	return (_Check_C_return(_Mtx_init(_Mtx, _Type)));

  00006	ba 01 00 00 00	 mov	 edx, 1
  0000b	e8 00 00 00 00	 call	 _Mtx_init
  00010	8b d8		 mov	 ebx, eax

; 34   : 	if (_Res != _Thrd_success)

  00012	85 c0		 test	 eax, eax
  00014	74 09		 je	 SHORT $LN4@Mtx_initX

; 35   : 		_Throw_C_error(_Res);

  00016	8b c8		 mov	 ecx, eax
  00018	e8 00 00 00 00	 call	 ?_Throw_C_error@std@@YAXH@Z ; std::_Throw_C_error

; 65   : 	return (_Check_C_return(_Mtx_init(_Mtx, _Type)));

  0001d	8b c3		 mov	 eax, ebx
$LN4@Mtx_initX:

; 66   : 	}

  0001f	48 83 c4 20	 add	 rsp, 32			; 00000020H
  00023	5b		 pop	 rbx
  00024	c3		 ret	 0
?_Mtx_initX@std@@YAHPEAPEAU_Mtx_internal_imp_t@@H@Z ENDP ; std::_Mtx_initX
_TEXT	ENDS
; Function compile flags: /Ogtpy
; File c:\users\alist_000\cppmisc\packages\visualcpptools.14.0.24629\lib\native\include\thr\xthread
;	COMDAT ?_Mtx_lockX@std@@YAHPEAU_Mtx_internal_imp_t@@@Z
_TEXT	SEGMENT
_Mtx$ = 48
?_Mtx_lockX@std@@YAHPEAU_Mtx_internal_imp_t@@@Z PROC	; std::_Mtx_lockX, COMDAT

; 69   : 	{	// throw exception on failure

$LN8:
  00000	40 53		 push	 rbx
  00002	48 83 ec 20	 sub	 rsp, 32			; 00000020H

; 70   : 	return (_Check_C_return(_Mtx_lock(_Mtx)));

  00006	e8 00 00 00 00	 call	 _Mtx_lock
  0000b	8b d8		 mov	 ebx, eax

; 34   : 	if (_Res != _Thrd_success)

  0000d	85 c0		 test	 eax, eax
  0000f	74 09		 je	 SHORT $LN4@Mtx_lockX

; 35   : 		_Throw_C_error(_Res);

  00011	8b c8		 mov	 ecx, eax
  00013	e8 00 00 00 00	 call	 ?_Throw_C_error@std@@YAXH@Z ; std::_Throw_C_error

; 70   : 	return (_Check_C_return(_Mtx_lock(_Mtx)));

  00018	8b c3		 mov	 eax, ebx
$LN4@Mtx_lockX:

; 71   : 	}

  0001a	48 83 c4 20	 add	 rsp, 32			; 00000020H
  0001e	5b		 pop	 rbx
  0001f	c3		 ret	 0
?_Mtx_lockX@std@@YAHPEAU_Mtx_internal_imp_t@@@Z ENDP	; std::_Mtx_lockX
_TEXT	ENDS
; Function compile flags: /Ogtpy
; File c:\users\alist_000\cppmisc\packages\visualcpptools.14.0.24629\lib\native\include\thr\xthread
;	COMDAT ?_Mtx_unlockX@std@@YAHPEAU_Mtx_internal_imp_t@@@Z
_TEXT	SEGMENT
_Mtx$ = 48
?_Mtx_unlockX@std@@YAHPEAU_Mtx_internal_imp_t@@@Z PROC	; std::_Mtx_unlockX, COMDAT

; 84   : 	{	// throw exception on failure

$LN8:
  00000	40 53		 push	 rbx
  00002	48 83 ec 20	 sub	 rsp, 32			; 00000020H

; 85   : 	return (_Check_C_return(_Mtx_unlock(_Mtx)));

  00006	e8 00 00 00 00	 call	 _Mtx_unlock
  0000b	8b d8		 mov	 ebx, eax

; 34   : 	if (_Res != _Thrd_success)

  0000d	85 c0		 test	 eax, eax
  0000f	74 09		 je	 SHORT $LN4@Mtx_unlock

; 35   : 		_Throw_C_error(_Res);

  00011	8b c8		 mov	 ecx, eax
  00013	e8 00 00 00 00	 call	 ?_Throw_C_error@std@@YAXH@Z ; std::_Throw_C_error

; 85   : 	return (_Check_C_return(_Mtx_unlock(_Mtx)));

  00018	8b c3		 mov	 eax, ebx
$LN4@Mtx_unlock:

; 86   : 	}

  0001a	48 83 c4 20	 add	 rsp, 32			; 00000020H
  0001e	5b		 pop	 rbx
  0001f	c3		 ret	 0
?_Mtx_unlockX@std@@YAHPEAU_Mtx_internal_imp_t@@@Z ENDP	; std::_Mtx_unlockX
_TEXT	ENDS
; Function compile flags: /Ogtpy
; File c:\users\alist_000\cppmisc\packages\visualcpptools.14.0.24629\lib\native\include\thr\xthread
;	COMDAT ?_Cnd_initX@std@@YAHPEAPEAU_Cnd_internal_imp_t@@@Z
_TEXT	SEGMENT
_Cnd$ = 48
?_Cnd_initX@std@@YAHPEAPEAU_Cnd_internal_imp_t@@@Z PROC	; std::_Cnd_initX, COMDAT

; 89   : 	{	// throw exception on failure

$LN8:
  00000	40 53		 push	 rbx
  00002	48 83 ec 20	 sub	 rsp, 32			; 00000020H

; 90   : 	return (_Check_C_return(_Cnd_init(_Cnd)));

  00006	e8 00 00 00 00	 call	 _Cnd_init
  0000b	8b d8		 mov	 ebx, eax

; 34   : 	if (_Res != _Thrd_success)

  0000d	85 c0		 test	 eax, eax
  0000f	74 09		 je	 SHORT $LN4@Cnd_initX

; 35   : 		_Throw_C_error(_Res);

  00011	8b c8		 mov	 ecx, eax
  00013	e8 00 00 00 00	 call	 ?_Throw_C_error@std@@YAXH@Z ; std::_Throw_C_error

; 90   : 	return (_Check_C_return(_Cnd_init(_Cnd)));

  00018	8b c3		 mov	 eax, ebx
$LN4@Cnd_initX:

; 91   : 	}

  0001a	48 83 c4 20	 add	 rsp, 32			; 00000020H
  0001e	5b		 pop	 rbx
  0001f	c3		 ret	 0
?_Cnd_initX@std@@YAHPEAPEAU_Cnd_internal_imp_t@@@Z ENDP	; std::_Cnd_initX
_TEXT	ENDS
; Function compile flags: /Ogtpy
; File c:\users\alist_000\cppmisc\packages\visualcpptools.14.0.24629\lib\native\include\thr\xthread
;	COMDAT ?_Cnd_waitX@std@@YAHPEAU_Cnd_internal_imp_t@@PEAU_Mtx_internal_imp_t@@@Z
_TEXT	SEGMENT
_Cnd$ = 48
_Mtx$ = 56
?_Cnd_waitX@std@@YAHPEAU_Cnd_internal_imp_t@@PEAU_Mtx_internal_imp_t@@@Z PROC ; std::_Cnd_waitX, COMDAT

; 94   : 	{	// throw exception on failure

$LN8:
  00000	40 53		 push	 rbx
  00002	48 83 ec 20	 sub	 rsp, 32			; 00000020H

; 95   : 	return (_Check_C_return(_Cnd_wait(_Cnd, _Mtx)));

  00006	e8 00 00 00 00	 call	 _Cnd_wait
  0000b	8b d8		 mov	 ebx, eax

; 34   : 	if (_Res != _Thrd_success)

  0000d	85 c0		 test	 eax, eax
  0000f	74 09		 je	 SHORT $LN4@Cnd_waitX

; 35   : 		_Throw_C_error(_Res);

  00011	8b c8		 mov	 ecx, eax
  00013	e8 00 00 00 00	 call	 ?_Throw_C_error@std@@YAXH@Z ; std::_Throw_C_error

; 95   : 	return (_Check_C_return(_Cnd_wait(_Cnd, _Mtx)));

  00018	8b c3		 mov	 eax, ebx
$LN4@Cnd_waitX:

; 96   : 	}

  0001a	48 83 c4 20	 add	 rsp, 32			; 00000020H
  0001e	5b		 pop	 rbx
  0001f	c3		 ret	 0
?_Cnd_waitX@std@@YAHPEAU_Cnd_internal_imp_t@@PEAU_Mtx_internal_imp_t@@@Z ENDP ; std::_Cnd_waitX
_TEXT	ENDS
; Function compile flags: /Ogtpy
; File c:\users\alist_000\cppmisc\packages\visualcpptools.14.0.24629\lib\native\include\thr\xthread
;	COMDAT ?_Cnd_signalX@std@@YAHPEAU_Cnd_internal_imp_t@@@Z
_TEXT	SEGMENT
_Cnd$ = 48
?_Cnd_signalX@std@@YAHPEAU_Cnd_internal_imp_t@@@Z PROC	; std::_Cnd_signalX, COMDAT

; 110  : 	{	// throw exception on failure

$LN8:
  00000	40 53		 push	 rbx
  00002	48 83 ec 20	 sub	 rsp, 32			; 00000020H

; 111  : 	return (_Check_C_return(_Cnd_signal(_Cnd)));

  00006	e8 00 00 00 00	 call	 _Cnd_signal
  0000b	8b d8		 mov	 ebx, eax

; 34   : 	if (_Res != _Thrd_success)

  0000d	85 c0		 test	 eax, eax
  0000f	74 09		 je	 SHORT $LN4@Cnd_signal

; 35   : 		_Throw_C_error(_Res);

  00011	8b c8		 mov	 ecx, eax
  00013	e8 00 00 00 00	 call	 ?_Throw_C_error@std@@YAXH@Z ; std::_Throw_C_error

; 111  : 	return (_Check_C_return(_Cnd_signal(_Cnd)));

  00018	8b c3		 mov	 eax, ebx
$LN4@Cnd_signal:

; 112  : 	}

  0001a	48 83 c4 20	 add	 rsp, 32			; 00000020H
  0001e	5b		 pop	 rbx
  0001f	c3		 ret	 0
?_Cnd_signalX@std@@YAHPEAU_Cnd_internal_imp_t@@@Z ENDP	; std::_Cnd_signalX
_TEXT	ENDS
; Function compile flags: /Ogtpy
; File c:\users\alist_000\cppmisc\packages\visualcpptools.14.0.24629\lib\native\include\thr\xthread
;	COMDAT ??0_Auto_cnd@std@@QEAA@PEAU_Cnd_internal_imp_t@@@Z
_TEXT	SEGMENT
this$ = 8
_Cndp$ = 16
??0_Auto_cnd@std@@QEAA@PEAU_Cnd_internal_imp_t@@@Z PROC	; std::_Auto_cnd::_Auto_cnd, COMDAT

; 118  : 		: _Active(true), _MyCndp(_Cndp)

  00000	c6 01 01	 mov	 BYTE PTR [rcx], 1

; 120  : 		}

  00003	48 8b c1	 mov	 rax, rcx
  00006	48 89 51 08	 mov	 QWORD PTR [rcx+8], rdx
  0000a	c3		 ret	 0
??0_Auto_cnd@std@@QEAA@PEAU_Cnd_internal_imp_t@@@Z ENDP	; std::_Auto_cnd::_Auto_cnd
_TEXT	ENDS
; Function compile flags: /Ogtpy
; File c:\users\alist_000\cppmisc\packages\visualcpptools.14.0.24629\lib\native\include\thr\xthread
;	COMDAT ??1_Auto_cnd@std@@QEAA@XZ
_TEXT	SEGMENT
this$ = 8
??1_Auto_cnd@std@@QEAA@XZ PROC				; std::_Auto_cnd::~_Auto_cnd, COMDAT

; 124  : 		if (_Active)

  00000	80 39 00	 cmp	 BYTE PTR [rcx], 0
  00003	74 09		 je	 SHORT $LN2@Auto_cnd

; 125  : 			_Cnd_destroy(_MyCndp);

  00005	48 8b 49 08	 mov	 rcx, QWORD PTR [rcx+8]
  00009	e9 00 00 00 00	 jmp	 _Cnd_destroy
$LN2@Auto_cnd:

; 126  : 			}

  0000e	c3		 ret	 0
??1_Auto_cnd@std@@QEAA@XZ ENDP				; std::_Auto_cnd::~_Auto_cnd
_TEXT	ENDS
; Function compile flags: /Ogtpy
; File c:\users\alist_000\cppmisc\packages\visualcpptools.14.0.24629\lib\native\include\thr\xthread
;	COMDAT ?_Release@_Auto_cnd@std@@QEAAXXZ
_TEXT	SEGMENT
this$ = 8
?_Release@_Auto_cnd@std@@QEAAXXZ PROC			; std::_Auto_cnd::_Release, COMDAT

; 130  : 		_Active = false;

  00000	c6 01 00	 mov	 BYTE PTR [rcx], 0

; 131  : 		}

  00003	c3		 ret	 0
?_Release@_Auto_cnd@std@@QEAAXXZ ENDP			; std::_Auto_cnd::_Release
_TEXT	ENDS
; Function compile flags: /Ogtpy
; File c:\users\alist_000\cppmisc\packages\visualcpptools.14.0.24629\lib\native\include\thr\xthread
;	COMDAT ??0_Auto_mtx@std@@QEAA@PEAU_Mtx_internal_imp_t@@@Z
_TEXT	SEGMENT
this$ = 8
_Mtxp$ = 16
??0_Auto_mtx@std@@QEAA@PEAU_Mtx_internal_imp_t@@@Z PROC	; std::_Auto_mtx::_Auto_mtx, COMDAT

; 142  : 		: _Active(true), _MyMtxp(_Mtxp)

  00000	c6 01 01	 mov	 BYTE PTR [rcx], 1

; 144  : 		}

  00003	48 8b c1	 mov	 rax, rcx
  00006	48 89 51 08	 mov	 QWORD PTR [rcx+8], rdx
  0000a	c3		 ret	 0
??0_Auto_mtx@std@@QEAA@PEAU_Mtx_internal_imp_t@@@Z ENDP	; std::_Auto_mtx::_Auto_mtx
_TEXT	ENDS
; Function compile flags: /Ogtpy
; File c:\users\alist_000\cppmisc\packages\visualcpptools.14.0.24629\lib\native\include\thr\xthread
;	COMDAT ??1_Auto_mtx@std@@QEAA@XZ
_TEXT	SEGMENT
this$ = 8
??1_Auto_mtx@std@@QEAA@XZ PROC				; std::_Auto_mtx::~_Auto_mtx, COMDAT

; 148  : 		if (_Active)

  00000	80 39 00	 cmp	 BYTE PTR [rcx], 0
  00003	74 09		 je	 SHORT $LN2@Auto_mtx

; 149  : 			_Mtx_destroy(_MyMtxp);

  00005	48 8b 49 08	 mov	 rcx, QWORD PTR [rcx+8]
  00009	e9 00 00 00 00	 jmp	 _Mtx_destroy
$LN2@Auto_mtx:

; 150  : 		}

  0000e	c3		 ret	 0
??1_Auto_mtx@std@@QEAA@XZ ENDP				; std::_Auto_mtx::~_Auto_mtx
_TEXT	ENDS
; Function compile flags: /Ogtpy
; File c:\users\alist_000\cppmisc\packages\visualcpptools.14.0.24629\lib\native\include\thr\xthread
;	COMDAT ?_Release@_Auto_mtx@std@@QEAAXXZ
_TEXT	SEGMENT
this$ = 8
?_Release@_Auto_mtx@std@@QEAAXXZ PROC			; std::_Auto_mtx::_Release, COMDAT

; 154  : 		_Active = false;

  00000	c6 01 00	 mov	 BYTE PTR [rcx], 0

; 155  : 		}

  00003	c3		 ret	 0
?_Release@_Auto_mtx@std@@QEAAXXZ ENDP			; std::_Auto_mtx::_Release
_TEXT	ENDS
; Function compile flags: /Ogtpy
; File c:\users\alist_000\cppmisc\packages\visualcpptools.14.0.24629\lib\native\include\thr\xthread
;	COMDAT ??0_Pad@std@@QEAA@XZ
_TEXT	SEGMENT
$T1 = 32
_Cnd_cleaner$ = 40
_Mtx_cleaner$ = 56
this$ = 96
??0_Pad@std@@QEAA@XZ PROC				; std::_Pad::_Pad, COMDAT

; 167  : 	_Pad()

$LN36:
  00000	40 57		 push	 rdi
  00002	48 83 ec 50	 sub	 rsp, 80			; 00000050H
  00006	48 c7 44 24 20
	fe ff ff ff	 mov	 QWORD PTR $T1[rsp], -2
  0000f	48 89 5c 24 60	 mov	 QWORD PTR [rsp+96], rbx
  00014	48 8b d9	 mov	 rbx, rcx

; 168  : 		{	// initialize handshake

  00017	48 8d 05 00 00
	00 00		 lea	 rax, OFFSET FLAT:??_7_Pad@std@@6B@
  0001e	48 89 01	 mov	 QWORD PTR [rcx], rax

; 90   : 	return (_Check_C_return(_Cnd_init(_Cnd)));

  00021	48 83 c1 08	 add	 rcx, 8
  00025	e8 00 00 00 00	 call	 _Cnd_init

; 34   : 	if (_Res != _Thrd_success)

  0002a	85 c0		 test	 eax, eax
  0002c	74 07		 je	 SHORT $LN8@Pad

; 35   : 		_Throw_C_error(_Res);

  0002e	8b c8		 mov	 ecx, eax
  00030	e8 00 00 00 00	 call	 ?_Throw_C_error@std@@YAXH@Z ; std::_Throw_C_error
$LN8@Pad:

; 169  : 		_Cnd_initX(&_Cond);
; 170  : 		_Auto_cnd _Cnd_cleaner(_Cond);

  00035	48 8b 43 08	 mov	 rax, QWORD PTR [rbx+8]

; 118  : 		: _Active(true), _MyCndp(_Cndp)

  00039	c6 44 24 28 01	 mov	 BYTE PTR _Cnd_cleaner$[rsp], 1
  0003e	48 89 44 24 30	 mov	 QWORD PTR _Cnd_cleaner$[rsp+8], rax

; 65   : 	return (_Check_C_return(_Mtx_init(_Mtx, _Type)));

  00043	ba 01 00 00 00	 mov	 edx, 1
  00048	48 8d 4b 10	 lea	 rcx, QWORD PTR [rbx+16]
  0004c	e8 00 00 00 00	 call	 _Mtx_init

; 34   : 	if (_Res != _Thrd_success)

  00051	85 c0		 test	 eax, eax
  00053	74 07		 je	 SHORT $LN15@Pad

; 35   : 		_Throw_C_error(_Res);

  00055	8b c8		 mov	 ecx, eax
  00057	e8 00 00 00 00	 call	 ?_Throw_C_error@std@@YAXH@Z ; std::_Throw_C_error
$LN15@Pad:

; 171  : 		_Mtx_initX(&_Mtx, _Mtx_plain);
; 172  : 		_Auto_mtx _Mtx_cleaner(_Mtx);

  0005c	48 8b 4b 10	 mov	 rcx, QWORD PTR [rbx+16]

; 142  : 		: _Active(true), _MyMtxp(_Mtxp)

  00060	c6 44 24 38 01	 mov	 BYTE PTR _Mtx_cleaner$[rsp], 1
  00065	48 89 4c 24 40	 mov	 QWORD PTR _Mtx_cleaner$[rsp+8], rcx

; 173  : 		_Started = false;

  0006a	c6 43 18 00	 mov	 BYTE PTR [rbx+24], 0

; 70   : 	return (_Check_C_return(_Mtx_lock(_Mtx)));

  0006e	e8 00 00 00 00	 call	 _Mtx_lock

; 34   : 	if (_Res != _Thrd_success)

  00073	85 c0		 test	 eax, eax
  00075	74 08		 je	 SHORT $LN22@Pad

; 35   : 		_Throw_C_error(_Res);

  00077	8b c8		 mov	 ecx, eax
  00079	e8 00 00 00 00	 call	 ?_Throw_C_error@std@@YAXH@Z ; std::_Throw_C_error
  0007e	90		 npad	 1
$LN22@Pad:

; 174  : 		_Mtx_lockX(_Mtx);
; 175  : 		_Mtx_cleaner._Release();
; 176  : 		_Cnd_cleaner._Release();
; 177  : 		}

  0007f	48 8b c3	 mov	 rax, rbx
  00082	48 8b 5c 24 60	 mov	 rbx, QWORD PTR [rsp+96]
  00087	48 83 c4 50	 add	 rsp, 80			; 00000050H
  0008b	5f		 pop	 rdi
  0008c	c3		 ret	 0
??0_Pad@std@@QEAA@XZ ENDP				; std::_Pad::_Pad
_TEXT	ENDS
;	COMDAT text$x
text$x	SEGMENT
$T1 = 32
_Cnd_cleaner$ = 40
_Mtx_cleaner$ = 56
this$ = 96
?dtor$0@?0???0_Pad@std@@QEAA@XZ@4HA PROC		; `std::_Pad::_Pad'::`1'::dtor$0
  00000	48 8d 8a 28 00
	00 00		 lea	 rcx, QWORD PTR _Cnd_cleaner$[rdx]
  00007	e9 00 00 00 00	 jmp	 ??1_Auto_cnd@std@@QEAA@XZ ; std::_Auto_cnd::~_Auto_cnd
?dtor$0@?0???0_Pad@std@@QEAA@XZ@4HA ENDP		; `std::_Pad::_Pad'::`1'::dtor$0
$T1 = 32
_Cnd_cleaner$ = 40
_Mtx_cleaner$ = 56
this$ = 96
?dtor$1@?0???0_Pad@std@@QEAA@XZ@4HA PROC		; `std::_Pad::_Pad'::`1'::dtor$1
  0000c	48 8d 8a 38 00
	00 00		 lea	 rcx, QWORD PTR _Mtx_cleaner$[rdx]
  00013	e9 00 00 00 00	 jmp	 ??1_Auto_mtx@std@@QEAA@XZ ; std::_Auto_mtx::~_Auto_mtx
?dtor$1@?0???0_Pad@std@@QEAA@XZ@4HA ENDP		; `std::_Pad::_Pad'::`1'::dtor$1
text$x	ENDS
; Function compile flags: /Ogtpy
;	COMDAT text$x
text$x	SEGMENT
$T1 = 32
_Cnd_cleaner$ = 40
_Mtx_cleaner$ = 56
this$ = 96
?dtor$0@?0???0_Pad@std@@QEAA@XZ@4HA PROC		; `std::_Pad::_Pad'::`1'::dtor$0
  00000	48 8d 8a 28 00
	00 00		 lea	 rcx, QWORD PTR _Cnd_cleaner$[rdx]
  00007	e9 00 00 00 00	 jmp	 ??1_Auto_cnd@std@@QEAA@XZ ; std::_Auto_cnd::~_Auto_cnd
?dtor$0@?0???0_Pad@std@@QEAA@XZ@4HA ENDP		; `std::_Pad::_Pad'::`1'::dtor$0
text$x	ENDS
; Function compile flags: /Ogtpy
;	COMDAT text$x
text$x	SEGMENT
$T1 = 32
_Cnd_cleaner$ = 40
_Mtx_cleaner$ = 56
this$ = 96
?dtor$1@?0???0_Pad@std@@QEAA@XZ@4HA PROC		; `std::_Pad::_Pad'::`1'::dtor$1
  0000c	48 8d 8a 38 00
	00 00		 lea	 rcx, QWORD PTR _Mtx_cleaner$[rdx]
  00013	e9 00 00 00 00	 jmp	 ??1_Auto_mtx@std@@QEAA@XZ ; std::_Auto_mtx::~_Auto_mtx
?dtor$1@?0???0_Pad@std@@QEAA@XZ@4HA ENDP		; `std::_Pad::_Pad'::`1'::dtor$1
text$x	ENDS
; Function compile flags: /Ogtpy
; File c:\users\alist_000\cppmisc\packages\visualcpptools.14.0.24629\lib\native\include\thr\xthread
;	COMDAT ??1_Pad@std@@QEAA@XZ
_TEXT	SEGMENT
$T1 = 32
this$ = 64
??1_Pad@std@@QEAA@XZ PROC				; std::_Pad::~_Pad, COMDAT

; 180  : 		{	// clean up handshake; non-virtual due to type-erasure

$LN22:
  00000	40 57		 push	 rdi
  00002	48 83 ec 30	 sub	 rsp, 48			; 00000030H
  00006	48 c7 44 24 20
	fe ff ff ff	 mov	 QWORD PTR $T1[rsp], -2
  0000f	48 89 5c 24 40	 mov	 QWORD PTR [rsp+64], rbx
  00014	48 8d 05 00 00
	00 00		 lea	 rax, OFFSET FLAT:??_7_Pad@std@@6B@
  0001b	48 89 01	 mov	 QWORD PTR [rcx], rax

; 118  : 		: _Active(true), _MyCndp(_Cndp)

  0001e	48 8b 79 08	 mov	 rdi, QWORD PTR [rcx+8]

; 142  : 		: _Active(true), _MyMtxp(_Mtxp)

  00022	48 8b 59 10	 mov	 rbx, QWORD PTR [rcx+16]

; 85   : 	return (_Check_C_return(_Mtx_unlock(_Mtx)));

  00026	48 8b cb	 mov	 rcx, rbx
  00029	e8 00 00 00 00	 call	 _Mtx_unlock
  0002e	90		 npad	 1

; 34   : 	if (_Res != _Thrd_success)

  0002f	85 c0		 test	 eax, eax
  00031	74 08		 je	 SHORT $LN20@Pad

; 35   : 		_Throw_C_error(_Res);

  00033	8b c8		 mov	 ecx, eax
  00035	e8 00 00 00 00	 call	 ?_Throw_C_error@std@@YAXH@Z ; std::_Throw_C_error
  0003a	90		 npad	 1
$LN20@Pad:

; 149  : 			_Mtx_destroy(_MyMtxp);

  0003b	48 8b cb	 mov	 rcx, rbx
  0003e	e8 00 00 00 00	 call	 _Mtx_destroy
  00043	90		 npad	 1

; 125  : 			_Cnd_destroy(_MyCndp);

  00044	48 8b cf	 mov	 rcx, rdi

; 181  : 		_Auto_cnd _Cnd_cleaner(_Cond);
; 182  : 		_Auto_mtx _Mtx_cleaner(_Mtx);
; 183  : 		_Mtx_unlockX(_Mtx);
; 184  : 		}

  00047	48 8b 5c 24 40	 mov	 rbx, QWORD PTR [rsp+64]
  0004c	48 83 c4 30	 add	 rsp, 48			; 00000030H
  00050	5f		 pop	 rdi

; 125  : 			_Cnd_destroy(_MyCndp);

  00051	e9 00 00 00 00	 jmp	 _Cnd_destroy
??1_Pad@std@@QEAA@XZ ENDP				; std::_Pad::~_Pad
_TEXT	ENDS
; Function compile flags: /Ogtpy
; File c:\users\alist_000\cppmisc\packages\visualcpptools.14.0.24629\lib\native\include\thr\xthread
;	COMDAT ?_Launch@_Pad@std@@QEAAXPEAU_Thrd_imp_t@@@Z
_TEXT	SEGMENT
this$ = 48
_Thr$ = 56
?_Launch@_Pad@std@@QEAAXPEAU_Thrd_imp_t@@@Z PROC	; std::_Pad::_Launch, COMDAT

; 187  : 		{	// launch a thread

$LN19:
  00000	40 53		 push	 rbx
  00002	48 83 ec 20	 sub	 rsp, 32			; 00000020H
  00006	48 8b c2	 mov	 rax, rdx
  00009	48 8b d9	 mov	 rbx, rcx

; 49   : 	int _Res = _Thrd_start(_Thr, _Fp, _Arg);

  0000c	4c 8b c1	 mov	 r8, rcx
  0000f	48 8d 15 00 00
	00 00		 lea	 rdx, OFFSET FLAT:?_Call_func@_Pad@std@@CAIPEAX@Z ; std::_Pad::_Call_func
  00016	48 8b c8	 mov	 rcx, rax
  00019	e8 00 00 00 00	 call	 _Thrd_start

; 50   : 	return (_Check_C_return(_Res != _Thrd_error ? _Res : _Thrd_nomem));

  0001e	83 f8 04	 cmp	 eax, 4
  00021	b9 01 00 00 00	 mov	 ecx, 1
  00026	0f 45 c8	 cmovne	 ecx, eax

; 34   : 	if (_Res != _Thrd_success)

  00029	85 c9		 test	 ecx, ecx
  0002b	74 05		 je	 SHORT $LN15@Launch

; 35   : 		_Throw_C_error(_Res);

  0002d	e8 00 00 00 00	 call	 ?_Throw_C_error@std@@YAXH@Z ; std::_Throw_C_error
$LN15@Launch:

; 188  : 		_Thrd_startX(_Thr, _Call_func, this);
; 189  : 		while (!_Started)

  00032	80 7b 18 00	 cmp	 BYTE PTR [rbx+24], 0
  00036	75 26		 jne	 SHORT $LN3@Launch
  00038	0f 1f 84 00 00
	00 00 00	 npad	 8
$LL2@Launch:

; 95   : 	return (_Check_C_return(_Cnd_wait(_Cnd, _Mtx)));

  00040	48 8b 53 10	 mov	 rdx, QWORD PTR [rbx+16]
  00044	48 8b 4b 08	 mov	 rcx, QWORD PTR [rbx+8]
  00048	e8 00 00 00 00	 call	 _Cnd_wait

; 34   : 	if (_Res != _Thrd_success)

  0004d	85 c0		 test	 eax, eax
  0004f	74 07		 je	 SHORT $LN13@Launch

; 35   : 		_Throw_C_error(_Res);

  00051	8b c8		 mov	 ecx, eax
  00053	e8 00 00 00 00	 call	 ?_Throw_C_error@std@@YAXH@Z ; std::_Throw_C_error
$LN13@Launch:

; 188  : 		_Thrd_startX(_Thr, _Call_func, this);
; 189  : 		while (!_Started)

  00058	80 7b 18 00	 cmp	 BYTE PTR [rbx+24], 0
  0005c	74 e2		 je	 SHORT $LL2@Launch
$LN3@Launch:

; 190  : 			_Cnd_waitX(_Cond, _Mtx);
; 191  : 		}

  0005e	48 83 c4 20	 add	 rsp, 32			; 00000020H
  00062	5b		 pop	 rbx
  00063	c3		 ret	 0
?_Launch@_Pad@std@@QEAAXPEAU_Thrd_imp_t@@@Z ENDP	; std::_Pad::_Launch
_TEXT	ENDS
; Function compile flags: /Ogtpy
; File c:\users\alist_000\cppmisc\packages\visualcpptools.14.0.24629\lib\native\include\thr\xthread
;	COMDAT ?_Release@_Pad@std@@QEAAXXZ
_TEXT	SEGMENT
this$ = 48
?_Release@_Pad@std@@QEAAXXZ PROC			; std::_Pad::_Release, COMDAT

; 194  : 		{	// notify caller that it's okay to continue

$LN19:
  00000	40 53		 push	 rbx
  00002	48 83 ec 20	 sub	 rsp, 32			; 00000020H
  00006	48 8b d9	 mov	 rbx, rcx

; 70   : 	return (_Check_C_return(_Mtx_lock(_Mtx)));

  00009	48 8b 49 10	 mov	 rcx, QWORD PTR [rcx+16]
  0000d	e8 00 00 00 00	 call	 _Mtx_lock

; 34   : 	if (_Res != _Thrd_success)

  00012	85 c0		 test	 eax, eax
  00014	74 07		 je	 SHORT $LN6@Release

; 35   : 		_Throw_C_error(_Res);

  00016	8b c8		 mov	 ecx, eax
  00018	e8 00 00 00 00	 call	 ?_Throw_C_error@std@@YAXH@Z ; std::_Throw_C_error
$LN6@Release:

; 111  : 	return (_Check_C_return(_Cnd_signal(_Cnd)));

  0001d	48 8b 4b 08	 mov	 rcx, QWORD PTR [rbx+8]

; 195  : 		_Mtx_lockX(_Mtx);
; 196  : 		_Started = true;

  00021	c6 43 18 01	 mov	 BYTE PTR [rbx+24], 1

; 111  : 	return (_Check_C_return(_Cnd_signal(_Cnd)));

  00025	e8 00 00 00 00	 call	 _Cnd_signal

; 34   : 	if (_Res != _Thrd_success)

  0002a	85 c0		 test	 eax, eax
  0002c	74 07		 je	 SHORT $LN11@Release

; 35   : 		_Throw_C_error(_Res);

  0002e	8b c8		 mov	 ecx, eax
  00030	e8 00 00 00 00	 call	 ?_Throw_C_error@std@@YAXH@Z ; std::_Throw_C_error
$LN11@Release:

; 85   : 	return (_Check_C_return(_Mtx_unlock(_Mtx)));

  00035	48 8b 4b 10	 mov	 rcx, QWORD PTR [rbx+16]
  00039	e8 00 00 00 00	 call	 _Mtx_unlock

; 34   : 	if (_Res != _Thrd_success)

  0003e	85 c0		 test	 eax, eax
  00040	74 0c		 je	 SHORT $LN16@Release

; 35   : 		_Throw_C_error(_Res);

  00042	8b c8		 mov	 ecx, eax

; 197  : 		_Cnd_signalX(_Cond);
; 198  : 		_Mtx_unlockX(_Mtx);
; 199  : 		}

  00044	48 83 c4 20	 add	 rsp, 32			; 00000020H
  00048	5b		 pop	 rbx

; 35   : 		_Throw_C_error(_Res);

  00049	e9 00 00 00 00	 jmp	 ?_Throw_C_error@std@@YAXH@Z ; std::_Throw_C_error
$LN16@Release:

; 197  : 		_Cnd_signalX(_Cond);
; 198  : 		_Mtx_unlockX(_Mtx);
; 199  : 		}

  0004e	48 83 c4 20	 add	 rsp, 32			; 00000020H
  00052	5b		 pop	 rbx
  00053	c3		 ret	 0
?_Release@_Pad@std@@QEAAXXZ ENDP			; std::_Pad::_Release
_TEXT	ENDS
; Function compile flags: /Ogtpy
; File c:\users\alist_000\cppmisc\packages\visualcpptools.14.0.24629\lib\native\include\thr\xthread
;	COMDAT ?_Call_func@_Pad@std@@CAIPEAX@Z
_TEXT	SEGMENT
_Data$ = 48
?_Call_func@_Pad@std@@CAIPEAX@Z PROC			; std::_Pad::_Call_func, COMDAT

; 208  : 		{	// entry point for new thread

$LN4:
  00000	48 83 ec 28	 sub	 rsp, 40			; 00000028H

; 209  : 		static_cast<_Pad *>(_Data)->_Go();

  00004	48 8b 01	 mov	 rax, QWORD PTR [rcx]
  00007	ff 10		 call	 QWORD PTR [rax]

; 210  : 		_Cnd_do_broadcast_at_thread_exit();

  00009	e8 00 00 00 00	 call	 _Cnd_do_broadcast_at_thread_exit

; 211  : 		return (0);

  0000e	33 c0		 xor	 eax, eax

; 212  : 		}

  00010	48 83 c4 28	 add	 rsp, 40			; 00000028H
  00014	c3		 ret	 0
?_Call_func@_Pad@std@@CAIPEAX@Z ENDP			; std::_Pad::_Call_func
_TEXT	ENDS
; Function compile flags: /Ogtpy
; File c:\users\alist_000\cppmisc\packages\visualcpptools.14.0.24629\lib\native\include\thread
;	COMDAT ??1thread@std@@QEAA@XZ
_TEXT	SEGMENT
this$ = 48
??1thread@std@@QEAA@XZ PROC				; std::thread::~thread, COMDAT

; 53   : 		{	// clean up

$LN10:
  00000	48 83 ec 28	 sub	 rsp, 40			; 00000028H

; 79   : 		return (!_Thr_is_null(_Thr));

  00004	83 79 08 00	 cmp	 DWORD PTR [rcx+8], 0

; 54   : 		if (joinable())

  00008	75 05		 jne	 SHORT $LN8@thread

; 56   : 		}

  0000a	48 83 c4 28	 add	 rsp, 40			; 00000028H
  0000e	c3		 ret	 0
$LN8@thread:

; 55   : 			_STD terminate();

  0000f	e8 00 00 00 00	 call	 terminate
  00014	cc		 int	 3
$LN7@thread:
??1thread@std@@QEAA@XZ ENDP				; std::thread::~thread
_TEXT	ENDS
; Function compile flags: /Ogtpy
; File c:\users\alist_000\cppmisc\packages\visualcpptools.14.0.24629\lib\native\include\thread
;	COMDAT ??0thread@std@@QEAA@$$QEAV01@@Z
_TEXT	SEGMENT
this$ = 8
_Other$ = 16
??0thread@std@@QEAA@$$QEAV01@@Z PROC			; std::thread::thread, COMDAT

; 59   : 		: _Thr(_Other._Thr)

  00000	0f 10 02	 movups	 xmm0, XMMWORD PTR [rdx]

; 61   : 		_Thr_set_null(_Other._Thr);

  00003	33 c0		 xor	 eax, eax
  00005	0f 11 01	 movups	 XMMWORD PTR [rcx], xmm0
  00008	48 89 02	 mov	 QWORD PTR [rdx], rax
  0000b	89 42 08	 mov	 DWORD PTR [rdx+8], eax

; 62   : 		}

  0000e	48 8b c1	 mov	 rax, rcx
  00011	c3		 ret	 0
??0thread@std@@QEAA@$$QEAV01@@Z ENDP			; std::thread::thread
_TEXT	ENDS
; Function compile flags: /Ogtpy
; File c:\users\alist_000\cppmisc\packages\visualcpptools.14.0.24629\lib\native\include\thread
;	COMDAT ?joinable@thread@std@@QEBA_NXZ
_TEXT	SEGMENT
this$ = 8
?joinable@thread@std@@QEBA_NXZ PROC			; std::thread::joinable, COMDAT

; 78   : 		{	// return true if this thread can be joined

  00000	83 79 08 00	 cmp	 DWORD PTR [rcx+8], 0
  00004	0f 95 c0	 setne	 al

; 79   : 		return (!_Thr_is_null(_Thr));
; 80   : 		}

  00007	c3		 ret	 0
?joinable@thread@std@@QEBA_NXZ ENDP			; std::thread::joinable
_TEXT	ENDS
; Function compile flags: /Ogtpy
; File c:\users\alist_000\cppmisc\packages\visualcpptools.14.0.24629\lib\native\include\thread
;	COMDAT ?sleep_until@this_thread@std@@YAXPEBUxtime@@@Z
_TEXT	SEGMENT
_Abs_time$ = 8
?sleep_until@this_thread@std@@YAXPEBUxtime@@@Z PROC	; std::this_thread::sleep_until, COMDAT

; 127  : 	_Thrd_sleep(_Abs_time);

  00000	e9 00 00 00 00	 jmp	 _Thrd_sleep
?sleep_until@this_thread@std@@YAXPEBUxtime@@@Z ENDP	; std::this_thread::sleep_until
_TEXT	ENDS
; Function compile flags: /Ogtpy
; File c:\users\alist_000\cppmisc\packages\visualcpptools.14.0.24629\lib\native\include\thread
;	COMDAT ??0id@thread@std@@AEAA@I@Z
_TEXT	SEGMENT
this$ = 8
_Other_id$ = 16
??0id@thread@std@@AEAA@I@Z PROC				; std::thread::id::id, COMDAT

; 165  : 		: _Id(_Other_id)

  00000	89 11		 mov	 DWORD PTR [rcx], edx

; 167  : 		}

  00002	48 8b c1	 mov	 rax, rcx
  00005	c3		 ret	 0
??0id@thread@std@@AEAA@I@Z ENDP				; std::thread::id::id
_TEXT	ENDS
; Function compile flags: /Ogtpy
; File c:\users\alist_000\cppmisc\packages\visualcpptools.14.0.24629\lib\native\include\thread
;	COMDAT ?join@thread@std@@QEAAXXZ
_TEXT	SEGMENT
$T1 = 32
this$ = 64
?join@thread@std@@QEAAXXZ PROC				; std::thread::join, COMDAT

; 184  : 	{	// join thread

$LN25:
  00000	40 53		 push	 rbx
  00002	48 83 ec 30	 sub	 rsp, 48			; 00000030H

; 79   : 		return (!_Thr_is_null(_Thr));

  00006	83 79 08 00	 cmp	 DWORD PTR [rcx+8], 0

; 184  : 	{	// join thread

  0000a	48 8b d9	 mov	 rbx, rcx

; 185  : 	if (!joinable())

  0000d	75 0a		 jne	 SHORT $LN2@join

; 186  : 		_Throw_Cpp_error(_INVALID_ARGUMENT);

  0000f	b9 01 00 00 00	 mov	 ecx, 1
  00014	e8 00 00 00 00	 call	 ?_Throw_Cpp_error@std@@YAXH@Z ; std::_Throw_Cpp_error
$LN2@join:

; 187  : 	const bool _Is_null = _Thr_is_null(_Thr);	// Avoid Clang -Wparentheses-equality

  00019	83 7b 08 00	 cmp	 DWORD PTR [rbx+8], 0

; 188  : 	if (_Is_null)

  0001d	75 0a		 jne	 SHORT $LN3@join

; 189  : 		_Throw_Cpp_error(_INVALID_ARGUMENT);

  0001f	b9 01 00 00 00	 mov	 ecx, 1
  00024	e8 00 00 00 00	 call	 ?_Throw_Cpp_error@std@@YAXH@Z ; std::_Throw_Cpp_error
$LN3@join:

; 204  : 	return (_Thrd_id());

  00029	e8 00 00 00 00	 call	 _Thrd_id

; 214  : 	return (_Left._Id == _Right._Id);

  0002e	39 43 08	 cmp	 DWORD PTR [rbx+8], eax

; 190  : 	if (get_id() == _STD this_thread::get_id())

  00031	75 0a		 jne	 SHORT $LN4@join

; 191  : 		_Throw_Cpp_error(_RESOURCE_DEADLOCK_WOULD_OCCUR);

  00033	b9 05 00 00 00	 mov	 ecx, 5
  00038	e8 00 00 00 00	 call	 ?_Throw_Cpp_error@std@@YAXH@Z ; std::_Throw_Cpp_error
$LN4@join:

; 192  : 	if (_Thrd_join(_Thr, 0) != _Thrd_success)

  0003d	0f 10 03	 movups	 xmm0, XMMWORD PTR [rbx]
  00040	33 d2		 xor	 edx, edx
  00042	48 8d 4c 24 20	 lea	 rcx, QWORD PTR $T1[rsp]
  00047	0f 29 44 24 20	 movaps	 XMMWORD PTR $T1[rsp], xmm0
  0004c	e8 00 00 00 00	 call	 _Thrd_join
  00051	85 c0		 test	 eax, eax
  00053	74 0a		 je	 SHORT $LN23@join

; 193  : 		_Throw_Cpp_error(_NO_SUCH_PROCESS);

  00055	b9 02 00 00 00	 mov	 ecx, 2
  0005a	e8 00 00 00 00	 call	 ?_Throw_Cpp_error@std@@YAXH@Z ; std::_Throw_Cpp_error
$LN23@join:

; 194  : 	_Thr_set_null(_Thr);

  0005f	33 c0		 xor	 eax, eax
  00061	89 43 08	 mov	 DWORD PTR [rbx+8], eax
  00064	48 89 03	 mov	 QWORD PTR [rbx], rax

; 195  : 	}

  00067	48 83 c4 30	 add	 rsp, 48			; 00000030H
  0006b	5b		 pop	 rbx
  0006c	c3		 ret	 0
?join@thread@std@@QEAAXXZ ENDP				; std::thread::join
_TEXT	ENDS
; Function compile flags: /Ogtpy
; File c:\users\alist_000\cppmisc\packages\visualcpptools.14.0.24629\lib\native\include\thread
;	COMDAT ?get_id@thread@std@@QEBA?AVid@12@XZ
_TEXT	SEGMENT
this$ = 8
__$ReturnUdt$ = 16
?get_id@thread@std@@QEBA?AVid@12@XZ PROC		; std::thread::get_id, COMDAT

; 165  : 		: _Id(_Other_id)

  00000	8b 41 08	 mov	 eax, DWORD PTR [rcx+8]
  00003	89 02		 mov	 DWORD PTR [rdx], eax

; 199  : 	return (_Thr_val(_Thr));

  00005	48 8b c2	 mov	 rax, rdx

; 200  : 	}

  00008	c3		 ret	 0
?get_id@thread@std@@QEBA?AVid@12@XZ ENDP		; std::thread::get_id
_TEXT	ENDS
; Function compile flags: /Ogtpy
; File c:\users\alist_000\cppmisc\packages\visualcpptools.14.0.24629\lib\native\include\thread
;	COMDAT ?get_id@this_thread@std@@YA?AVid@thread@2@XZ
_TEXT	SEGMENT
__$ReturnUdt$ = 48
?get_id@this_thread@std@@YA?AVid@thread@2@XZ PROC	; std::this_thread::get_id, COMDAT

; 203  : 	{	// return id for current thread

$LN6:
  00000	40 53		 push	 rbx
  00002	48 83 ec 20	 sub	 rsp, 32			; 00000020H
  00006	48 8b d9	 mov	 rbx, rcx

; 204  : 	return (_Thrd_id());

  00009	e8 00 00 00 00	 call	 _Thrd_id

; 165  : 		: _Id(_Other_id)

  0000e	89 03		 mov	 DWORD PTR [rbx], eax

; 204  : 	return (_Thrd_id());

  00010	48 8b c3	 mov	 rax, rbx

; 205  : 	}

  00013	48 83 c4 20	 add	 rsp, 32			; 00000020H
  00017	5b		 pop	 rbx
  00018	c3		 ret	 0
?get_id@this_thread@std@@YA?AVid@thread@2@XZ ENDP	; std::this_thread::get_id
_TEXT	ENDS
; Function compile flags: /Ogtpy
; File c:\users\alist_000\cppmisc\packages\visualcpptools.14.0.24629\lib\native\include\thread
;	COMDAT ??8std@@YA_NVid@thread@0@0@Z
_TEXT	SEGMENT
_Left$ = 8
_Right$ = 16
??8std@@YA_NVid@thread@0@0@Z PROC			; std::operator==, COMDAT

; 213  : 	{	// return true if _Left and _Right identify the same thread

  00000	3b ca		 cmp	 ecx, edx
  00002	0f 94 c0	 sete	 al

; 214  : 	return (_Left._Id == _Right._Id);
; 215  : 	}

  00005	c3		 ret	 0
??8std@@YA_NVid@thread@0@0@Z ENDP			; std::operator==
_TEXT	ENDS
; Function compile flags: /Ogtpy
; File c:\users\alist_000\cppmisc\thread.cc
; File c:\users\alist_000\cppmisc\packages\visualcpptools.14.0.24629\lib\native\include\vector
; File c:\users\alist_000\cppmisc\thread.cc
; File c:\users\alist_000\cppmisc\packages\visualcpptools.14.0.24629\lib\native\include\vector
; File c:\users\alist_000\cppmisc\thread.cc
; File c:\users\alist_000\cppmisc\packages\visualcpptools.14.0.24629\lib\native\include\vector
; File c:\users\alist_000\cppmisc\thread.cc
; File c:\users\alist_000\cppmisc\packages\visualcpptools.14.0.24629\lib\native\include\thread
; File c:\users\alist_000\cppmisc\packages\visualcpptools.14.0.24629\lib\native\include\vector
; File c:\users\alist_000\cppmisc\thread.cc
; File c:\users\alist_000\cppmisc\packages\visualcpptools.14.0.24629\lib\native\include\vector
; File c:\users\alist_000\cppmisc\packages\visualcpptools.14.0.24629\lib\native\include\xmemory0
; File c:\users\alist_000\cppmisc\packages\visualcpptools.14.0.24629\lib\native\include\thread
; File c:\users\alist_000\cppmisc\packages\visualcpptools.14.0.24629\lib\native\include\xmemory0
; File c:\users\alist_000\cppmisc\packages\visualcpptools.14.0.24629\lib\native\include\thread
; File c:\users\alist_000\cppmisc\packages\visualcpptools.14.0.24629\lib\native\include\vector
; File c:\users\alist_000\cppmisc\packages\visualcpptools.14.0.24629\lib\native\include\xmemory0
; File c:\users\alist_000\cppmisc\thread.cc
_TEXT	SEGMENT
$T1 = 48
threads$ = 64
$T2 = 112
main	PROC

; 9    : int main() {

$LN311:
  00000	48 8b c4	 mov	 rax, rsp
  00003	57		 push	 rdi
  00004	48 83 ec 60	 sub	 rsp, 96			; 00000060H
  00008	48 c7 40 b8 fe
	ff ff ff	 mov	 QWORD PTR [rax-72], -2
  00010	48 89 58 10	 mov	 QWORD PTR [rax+16], rbx
  00014	48 89 70 18	 mov	 QWORD PTR [rax+24], rsi
  00018	0f 57 c0	 xorps	 xmm0, xmm0
  0001b	f3 0f 7f 40 d8	 movdqu	 XMMWORD PTR [rax-40], xmm0
; File c:\users\alist_000\cppmisc\packages\visualcpptools.14.0.24629\lib\native\include\vector

; 480  : 		_Myend()

  00020	33 f6		 xor	 esi, esi
  00022	48 89 70 e8	 mov	 QWORD PTR [rax-24], rsi

; 1510 : 			_Reallocate_exactly(_Newcapacity);

  00026	48 8d 48 d8	 lea	 rcx, QWORD PTR [rax-40]
  0002a	e8 00 00 00 00	 call	 ?_Reallocate_exactly@?$vector@Vthread@std@@V?$allocator@Vthread@std@@@2@@std@@AEAAX_K@Z ; std::vector<std::thread,std::allocator<std::thread> >::_Reallocate_exactly
; File c:\users\alist_000\cppmisc\thread.cc

; 14   :   std::cout << "creating\n";

  0002f	48 8d 15 00 00
	00 00		 lea	 rdx, OFFSET FLAT:$SG4294967235
  00036	e8 00 00 00 00	 call	 ??$?6U?$char_traits@D@std@@@std@@YAAEAV?$basic_ostream@DU?$char_traits@D@std@@@0@AEAV10@PEBD@Z ; std::operator<<<std::char_traits<char> >
; File c:\users\alist_000\cppmisc\packages\visualcpptools.14.0.24629\lib\native\include\vector

; 478  : 		: _Myfirst(),

  0003b	8d 5e 64	 lea	 ebx, QWORD PTR [rsi+100]
  0003e	66 90		 npad	 2
$LL4@main:
; File c:\users\alist_000\cppmisc\thread.cc

; 16   :     threads.emplace_back(

  00040	33 c0		 xor	 eax, eax
  00042	88 44 24 70	 mov	 BYTE PTR $T2[rsp], al
  00046	48 8d 4c 24 40	 lea	 rcx, QWORD PTR threads$[rsp]
  0004b	e8 00 00 00 00	 call	 ??$emplace_back@V<lambda_e77d7e1e559843f44c4e0b6d970cdb28>@@@?$vector@Vthread@std@@V?$allocator@Vthread@std@@@2@@std@@QEAAX$$QEAV<lambda_e77d7e1e559843f44c4e0b6d970cdb28>@@@Z ; std::vector<std::thread,std::allocator<std::thread> >::emplace_back<<lambda_e77d7e1e559843f44c4e0b6d970cdb28> >

; 15   :   for (int i = 0; i < 100; ++i) {

  00050	48 83 eb 01	 sub	 rbx, 1
  00054	75 ea		 jne	 SHORT $LL4@main

; 17   :         []() { std::this_thread::sleep_for(std::chrono::hours(1)); });
; 18   :   }
; 19   : 
; 20   :   std::cout << "joining\n";

  00056	48 8d 15 00 00
	00 00		 lea	 rdx, OFFSET FLAT:$SG4294967234
  0005d	e8 00 00 00 00	 call	 ??$?6U?$char_traits@D@std@@@std@@YAAEAV?$basic_ostream@DU?$char_traits@D@std@@@0@AEAV10@PEBD@Z ; std::operator<<<std::char_traits<char> >
; File c:\users\alist_000\cppmisc\packages\visualcpptools.14.0.24629\lib\native\include\vector

; 44   : 		: _Ptr(_Parg)

  00062	48 8b 5c 24 48	 mov	 rbx, QWORD PTR threads$[rsp+8]
; File c:\users\alist_000\cppmisc\thread.cc

; 21   :   for (auto &t : threads)

  00067	48 8b 4c 24 40	 mov	 rcx, QWORD PTR threads$[rsp]
  0006c	48 3b cb	 cmp	 rcx, rbx
  0006f	74 75		 je	 SHORT $LN6@main

; 17   :         []() { std::this_thread::sleep_for(std::chrono::hours(1)); });
; 18   :   }
; 19   : 
; 20   :   std::cout << "joining\n";

  00071	48 8d 79 08	 lea	 rdi, QWORD PTR [rcx+8]
$LL7@main:
  00075	83 3f 00	 cmp	 DWORD PTR [rdi], 0
; File c:\users\alist_000\cppmisc\packages\visualcpptools.14.0.24629\lib\native\include\thread

; 185  : 	if (!joinable())

  00078	75 19		 jne	 SHORT $LN127@main

; 186  : 		_Throw_Cpp_error(_INVALID_ARGUMENT);

  0007a	b9 01 00 00 00	 mov	 ecx, 1
  0007f	e8 00 00 00 00	 call	 ?_Throw_Cpp_error@std@@YAXH@Z ; std::_Throw_Cpp_error
  00084	83 3f 00	 cmp	 DWORD PTR [rdi], 0

; 187  : 	const bool _Is_null = _Thr_is_null(_Thr);	// Avoid Clang -Wparentheses-equality
; 188  : 	if (_Is_null)

  00087	75 0a		 jne	 SHORT $LN127@main

; 189  : 		_Throw_Cpp_error(_INVALID_ARGUMENT);

  00089	b9 01 00 00 00	 mov	 ecx, 1
  0008e	e8 00 00 00 00	 call	 ?_Throw_Cpp_error@std@@YAXH@Z ; std::_Throw_Cpp_error
$LN127@main:

; 204  : 	return (_Thrd_id());

  00093	e8 00 00 00 00	 call	 _Thrd_id
  00098	39 07		 cmp	 DWORD PTR [rdi], eax

; 190  : 	if (get_id() == _STD this_thread::get_id())

  0009a	75 0a		 jne	 SHORT $LN128@main

; 191  : 		_Throw_Cpp_error(_RESOURCE_DEADLOCK_WOULD_OCCUR);

  0009c	b9 05 00 00 00	 mov	 ecx, 5
  000a1	e8 00 00 00 00	 call	 ?_Throw_Cpp_error@std@@YAXH@Z ; std::_Throw_Cpp_error
$LN128@main:

; 192  : 	if (_Thrd_join(_Thr, 0) != _Thrd_success)

  000a6	0f 10 47 f8	 movups	 xmm0, XMMWORD PTR [rdi-8]
  000aa	0f 29 44 24 30	 movaps	 XMMWORD PTR $T1[rsp], xmm0
  000af	33 d2		 xor	 edx, edx
  000b1	48 8d 4c 24 30	 lea	 rcx, QWORD PTR $T1[rsp]
  000b6	e8 00 00 00 00	 call	 _Thrd_join
  000bb	85 c0		 test	 eax, eax
  000bd	74 0a		 je	 SHORT $LN129@main

; 193  : 		_Throw_Cpp_error(_NO_SUCH_PROCESS);

  000bf	b9 02 00 00 00	 mov	 ecx, 2
  000c4	e8 00 00 00 00	 call	 ?_Throw_Cpp_error@std@@YAXH@Z ; std::_Throw_Cpp_error
$LN129@main:

; 194  : 	_Thr_set_null(_Thr);

  000c9	48 89 77 f8	 mov	 QWORD PTR [rdi-8], rsi
  000cd	89 37		 mov	 DWORD PTR [rdi], esi
; File c:\users\alist_000\cppmisc\packages\visualcpptools.14.0.24629\lib\native\include\vector

; 109  : 		++_Ptr;

  000cf	48 83 c7 10	 add	 rdi, 16
; File c:\users\alist_000\cppmisc\thread.cc

; 21   :   for (auto &t : threads)

  000d3	48 8d 47 f8	 lea	 rax, QWORD PTR [rdi-8]
  000d7	48 3b c3	 cmp	 rax, rbx
  000da	75 99		 jne	 SHORT $LL7@main
  000dc	48 8b 5c 24 48	 mov	 rbx, QWORD PTR threads$[rsp+8]
  000e1	48 8b 4c 24 40	 mov	 rcx, QWORD PTR threads$[rsp]
$LN6@main:
; File c:\users\alist_000\cppmisc\packages\visualcpptools.14.0.24629\lib\native\include\vector

; 1923 : 		if (this->_Myfirst() != pointer())

  000e6	48 85 c9	 test	 rcx, rcx
  000e9	0f 84 89 00 00
	00		 je	 $LN151@main
; File c:\users\alist_000\cppmisc\packages\visualcpptools.14.0.24629\lib\native\include\xmemory0

; 1211 : 	_Destroy_range1(_First, _Last, _Al, _Conjunction_t<

  000ef	48 8b c1	 mov	 rax, rcx

; 1193 : 	for (; _First != _Last; ++_First)

  000f2	48 3b cb	 cmp	 rcx, rbx
  000f5	74 17		 je	 SHORT $LN192@main
$LL193@main:
; File c:\users\alist_000\cppmisc\packages\visualcpptools.14.0.24629\lib\native\include\thread

; 79   : 		return (!_Thr_is_null(_Thr));

  000f7	83 78 08 00	 cmp	 DWORD PTR [rax+8], 0

; 54   : 		if (joinable())

  000fb	75 0b		 jne	 SHORT $LN300@main
; File c:\users\alist_000\cppmisc\packages\visualcpptools.14.0.24629\lib\native\include\xmemory0

; 1193 : 	for (; _First != _Last; ++_First)

  000fd	48 83 c0 10	 add	 rax, 16
  00101	48 3b c3	 cmp	 rax, rbx
  00104	75 f1		 jne	 SHORT $LL193@main
; File c:\users\alist_000\cppmisc\packages\visualcpptools.14.0.24629\lib\native\include\thread

; 54   : 		if (joinable())

  00106	eb 06		 jmp	 SHORT $LN192@main
$LN300@main:

; 55   : 			_STD terminate();

  00108	e8 00 00 00 00	 call	 terminate
  0010d	cc		 int	 3
$LN192@main:
; File c:\users\alist_000\cppmisc\packages\visualcpptools.14.0.24629\lib\native\include\vector

; 1926 : 			this->_Getal().deallocate(this->_Myfirst(), this->_Myend() - this->_Myfirst());

  0010e	48 8b 44 24 50	 mov	 rax, QWORD PTR threads$[rsp+16]
  00113	48 2b c1	 sub	 rax, rcx
  00116	48 c1 f8 04	 sar	 rax, 4
; File c:\users\alist_000\cppmisc\packages\visualcpptools.14.0.24629\lib\native\include\xmemory0

; 96   : 	_SCL_SECURE_ALWAYS_VALIDATE(_Count <= (size_t)(-1) / _Sz);

  0011a	48 ba ff ff ff
	ff ff ff ff 0f	 mov	 rdx, 1152921504606846975 ; 0fffffffffffffffH
  00124	48 3b c2	 cmp	 rax, rdx
  00127	76 06		 jbe	 SHORT $LN260@main
  00129	e8 00 00 00 00	 call	 _invalid_parameter_noinfo_noreturn
  0012e	cc		 int	 3
$LN260@main:

; 97   : 	const size_t _User_size = _Count * _Sz;

  0012f	48 c1 e0 04	 shl	 rax, 4

; 98   : 	if (_BIG_ALLOCATION_THRESHOLD <= _User_size)

  00133	48 3d 00 10 00
	00		 cmp	 rax, 4096		; 00001000H
  00139	72 38		 jb	 SHORT $LN261@main

; 99   : 		{	// deallocate large block
; 100  : 		const uintptr_t _Ptr_user = reinterpret_cast<uintptr_t>(_Ptr);
; 101  : 		_SCL_SECURE_ALWAYS_VALIDATE(

  0013b	f6 c1 1f	 test	 cl, 31
  0013e	74 06		 je	 SHORT $LN262@main
  00140	e8 00 00 00 00	 call	 _invalid_parameter_noinfo_noreturn
  00145	cc		 int	 3
$LN262@main:

; 102  : 			(_Ptr_user & (_BIG_ALLOCATION_ALIGNMENT - 1)) == 0);
; 103  : 		const uintptr_t _Ptr_ptr = _Ptr_user - sizeof(void *);
; 104  : 		const uintptr_t _Ptr_container =
; 105  : 			*reinterpret_cast<uintptr_t *>(_Ptr_ptr);

  00146	48 8b 41 f8	 mov	 rax, QWORD PTR [rcx-8]

; 106  : 
; 107  :  #ifdef _DEBUG
; 108  : 		// If the following asserts, it likely means that we are performing
; 109  : 		// an aligned delete on memory coming from an unaligned allocation.
; 110  : 		_SCL_SECURE_ALWAYS_VALIDATE(
; 111  : 			reinterpret_cast<uintptr_t *>(_Ptr_ptr)[-1] ==
; 112  : 				_BIG_ALLOCATION_SENTINEL);
; 113  :  #endif /* _DEBUG */
; 114  : 
; 115  : 		// Extra paranoia on aligned allocation/deallocation
; 116  : 		_SCL_SECURE_ALWAYS_VALIDATE(_Ptr_container < _Ptr_user);

  0014a	48 3b c1	 cmp	 rax, rcx
  0014d	72 06		 jb	 SHORT $LN263@main
  0014f	e8 00 00 00 00	 call	 _invalid_parameter_noinfo_noreturn
  00154	cc		 int	 3
$LN263@main:

; 117  : 
; 118  :  #ifdef _DEBUG
; 119  : 		_SCL_SECURE_ALWAYS_VALIDATE(2 * sizeof(void *)
; 120  : 			<= _Ptr_user - _Ptr_container);
; 121  : 
; 122  :  #else /* _DEBUG */
; 123  : 		_SCL_SECURE_ALWAYS_VALIDATE(sizeof(void *)

  00155	48 2b c8	 sub	 rcx, rax
  00158	48 83 f9 08	 cmp	 rcx, 8
  0015c	73 06		 jae	 SHORT $LN264@main
  0015e	e8 00 00 00 00	 call	 _invalid_parameter_noinfo_noreturn
  00163	cc		 int	 3
$LN264@main:

; 124  : 			<= _Ptr_user - _Ptr_container);
; 125  :  #endif /* _DEBUG */
; 126  : 
; 127  : 		_SCL_SECURE_ALWAYS_VALIDATE(_Ptr_user - _Ptr_container

  00164	48 83 f9 27	 cmp	 rcx, 39			; 00000027H
  00168	76 06		 jbe	 SHORT $LN265@main
  0016a	e8 00 00 00 00	 call	 _invalid_parameter_noinfo_noreturn
  0016f	cc		 int	 3
$LN265@main:

; 128  : 			<= _NON_USER_SIZE);
; 129  : 
; 130  : 		_Ptr = reinterpret_cast<void *>(_Ptr_container);

  00170	48 8b c8	 mov	 rcx, rax
$LN261@main:

; 131  : 		}
; 132  :  #endif /* defined(_M_IX86) || defined(_M_X64) */
; 133  : 
; 134  : 	::operator delete(_Ptr);

  00173	e8 00 00 00 00	 call	 ??3@YAXPEAX@Z		; operator delete
$LN151@main:
; File c:\users\alist_000\cppmisc\thread.cc

; 24   :   return 0;

  00178	33 c0		 xor	 eax, eax

; 25   : }

  0017a	48 8b 5c 24 78	 mov	 rbx, QWORD PTR [rsp+120]
  0017f	48 8b b4 24 80
	00 00 00	 mov	 rsi, QWORD PTR [rsp+128]
  00187	48 83 c4 60	 add	 rsp, 96			; 00000060H
  0018b	5f		 pop	 rdi
  0018c	c3		 ret	 0
$LN310@main:
main	ENDP
_TEXT	ENDS
text$x	SEGMENT
$T1 = 48
threads$ = 64
$T2 = 112
main$dtor$0 PROC
  00000	48 8d 8a 40 00
	00 00		 lea	 rcx, QWORD PTR threads$[rdx]
  00007	e9 00 00 00 00	 jmp	 ??1?$vector@Vthread@std@@V?$allocator@Vthread@std@@@2@@std@@QEAA@XZ ; std::vector<std::thread,std::allocator<std::thread> >::~vector<std::thread,std::allocator<std::thread> >
main$dtor$0 ENDP
text$x	ENDS
; Function compile flags: /Ogtpy
text$x	SEGMENT
$T1 = 48
threads$ = 64
$T2 = 112
main$dtor$0 PROC
  00000	48 8d 8a 40 00
	00 00		 lea	 rcx, QWORD PTR threads$[rdx]
  00007	e9 00 00 00 00	 jmp	 ??1?$vector@Vthread@std@@V?$allocator@Vthread@std@@@2@@std@@QEAA@XZ ; std::vector<std::thread,std::allocator<std::thread> >::~vector<std::thread,std::allocator<std::thread> >
main$dtor$0 ENDP
text$x	ENDS
; Function compile flags: /Ogtpy
; File c:\users\alist_000\cppmisc\thread.cc
; File c:\users\alist_000\cppmisc\packages\visualcpptools.14.0.24629\lib\native\include\chrono
; File c:\users\alist_000\cppmisc\packages\visualcpptools.14.0.24629\lib\native\include\thread
; File c:\users\alist_000\cppmisc\packages\visualcpptools.14.0.24629\lib\native\include\chrono
; File c:\users\alist_000\cppmisc\packages\visualcpptools.14.0.24629\lib\native\include\thread
; File c:\users\alist_000\cppmisc\thread.cc
;	COMDAT ??R<lambda_e77d7e1e559843f44c4e0b6d970cdb28>@@QEBAXXZ
_TEXT	SEGMENT
$T1 = 32
_Tgt$2 = 32
__$ArrayPad$ = 48
this$dead$ = 80
??R<lambda_e77d7e1e559843f44c4e0b6d970cdb28>@@QEBAXXZ PROC ; <lambda_e77d7e1e559843f44c4e0b6d970cdb28>::operator(), COMDAT

; 17   :         []() { std::this_thread::sleep_for(std::chrono::hours(1)); });

  00000	48 83 ec 48	 sub	 rsp, 72			; 00000048H
  00004	48 8b 05 00 00
	00 00		 mov	 rax, QWORD PTR __security_cookie
  0000b	48 33 c4	 xor	 rax, rsp
  0000e	48 89 44 24 30	 mov	 QWORD PTR __$ArrayPad$[rsp], rax
; File c:\users\alist_000\cppmisc\packages\visualcpptools.14.0.24629\lib\native\include\chrono

; 972  : 		return (time_point(duration(_Xtime_get_ticks())));

  00013	e8 00 00 00 00	 call	 _Xtime_get_ticks

; 554  : 	return (_CF::num == 1 && _CF::den == 1

  00018	4c 6b c0 64	 imul	 r8, rax, 100		; 00000064H

; 170  : 		_MyRep += _Right._MyRep;

  0001c	48 b8 00 a0 b8
	30 46 03 00 00	 mov	 rax, 3600000000000	; 0000034630b8a000H
; File c:\users\alist_000\cppmisc\packages\visualcpptools.14.0.24629\lib\native\include\thread

; 127  : 	_Thrd_sleep(_Abs_time);

  00026	48 8d 4c 24 20	 lea	 rcx, QWORD PTR _Tgt$2[rsp]
; File c:\users\alist_000\cppmisc\packages\visualcpptools.14.0.24629\lib\native\include\chrono

; 170  : 		_MyRep += _Right._MyRep;

  0002b	4c 03 c0	 add	 r8, rax

; 554  : 	return (_CF::num == 1 && _CF::den == 1

  0002e	48 b8 b3 94 d6
	26 e8 0b 2e 11	 mov	 rax, 1237940039285380275 ; 112e0be826d694b3H
  00038	49 f7 e8	 imul	 r8
  0003b	48 c1 fa 1a	 sar	 rdx, 26
  0003f	48 8b c2	 mov	 rax, rdx
  00042	48 c1 e8 3f	 shr	 rax, 63			; 0000003fH
  00046	48 03 d0	 add	 rdx, rax

; 1025 : 		_Xt.sec = chrono::duration_cast<chrono::seconds>(_T0).count();

  00049	48 89 54 24 20	 mov	 QWORD PTR $T1[rsp], rdx

; 554  : 	return (_CF::num == 1 && _CF::den == 1

  0004e	48 69 c2 00 ca
	9a 3b		 imul	 rax, rdx, 1000000000	; 3b9aca00H

; 176  : 		_MyRep -= _Right._MyRep;

  00055	44 2b c0	 sub	 r8d, eax

; 1027 : 		_Xt.nsec = (long)_T0.count();

  00058	44 89 44 24 28	 mov	 DWORD PTR $T1[rsp+8], r8d
; File c:\users\alist_000\cppmisc\packages\visualcpptools.14.0.24629\lib\native\include\thread

; 134  : 	stdext::threads::xtime _Tgt = _To_xtime(_Rel_time);

  0005d	0f 28 44 24 20	 movaps	 xmm0, XMMWORD PTR $T1[rsp]
  00062	66 0f 7f 44 24
	20		 movdqa	 XMMWORD PTR _Tgt$2[rsp], xmm0

; 127  : 	_Thrd_sleep(_Abs_time);

  00068	e8 00 00 00 00	 call	 _Thrd_sleep
; File c:\users\alist_000\cppmisc\thread.cc

; 17   :         []() { std::this_thread::sleep_for(std::chrono::hours(1)); });

  0006d	48 8b 4c 24 30	 mov	 rcx, QWORD PTR __$ArrayPad$[rsp]
  00072	48 33 cc	 xor	 rcx, rsp
  00075	e8 00 00 00 00	 call	 __security_check_cookie
  0007a	48 83 c4 48	 add	 rsp, 72			; 00000048H
  0007e	c3		 ret	 0
??R<lambda_e77d7e1e559843f44c4e0b6d970cdb28>@@QEBAXXZ ENDP ; <lambda_e77d7e1e559843f44c4e0b6d970cdb28>::operator()
_TEXT	ENDS
; Function compile flags: /Ogtpy
; File c:\users\alist_000\cppmisc\packages\visualcpptools.14.0.24629\lib\native\include\vector
;	COMDAT ??9?$_Vector_const_iterator@V?$_Vector_val@U?$_Simple_types@Vthread@std@@@std@@@std@@@std@@QEBA_NAEBV01@@Z
_TEXT	SEGMENT
this$ = 8
_Right$ = 16
??9?$_Vector_const_iterator@V?$_Vector_val@U?$_Simple_types@Vthread@std@@@std@@@std@@@std@@QEBA_NAEBV01@@Z PROC ; std::_Vector_const_iterator<std::_Vector_val<std::_Simple_types<std::thread> > >::operator!=, COMDAT

; 212  : 		{	// test for iterator inequality

  00000	48 8b 02	 mov	 rax, QWORD PTR [rdx]
  00003	48 39 01	 cmp	 QWORD PTR [rcx], rax
  00006	0f 95 c0	 setne	 al

; 213  : 		return (!(*this == _Right));
; 214  : 		}

  00009	c3		 ret	 0
??9?$_Vector_const_iterator@V?$_Vector_val@U?$_Simple_types@Vthread@std@@@std@@@std@@@std@@QEBA_NAEBV01@@Z ENDP ; std::_Vector_const_iterator<std::_Vector_val<std::_Simple_types<std::thread> > >::operator!=
_TEXT	ENDS
; Function compile flags: /Ogtpy
; File c:\users\alist_000\cppmisc\packages\visualcpptools.14.0.24629\lib\native\include\vector
;	COMDAT ??E?$_Vector_iterator@V?$_Vector_val@U?$_Simple_types@Vthread@std@@@std@@@std@@@std@@QEAAAEAV01@XZ
_TEXT	SEGMENT
this$ = 8
??E?$_Vector_iterator@V?$_Vector_val@U?$_Simple_types@Vthread@std@@@std@@@std@@@std@@QEAAAEAV01@XZ PROC ; std::_Vector_iterator<std::_Vector_val<std::_Simple_types<std::thread> > >::operator++, COMDAT

; 109  : 		++_Ptr;

  00000	48 83 01 10	 add	 QWORD PTR [rcx], 16

; 334  : 		++*(_Mybase *)this;
; 335  : 		return (*this);

  00004	48 8b c1	 mov	 rax, rcx

; 336  : 		}

  00007	c3		 ret	 0
??E?$_Vector_iterator@V?$_Vector_val@U?$_Simple_types@Vthread@std@@@std@@@std@@@std@@QEAAAEAV01@XZ ENDP ; std::_Vector_iterator<std::_Vector_val<std::_Simple_types<std::thread> > >::operator++
_TEXT	ENDS
; Function compile flags: /Ogtpy
; File c:\users\alist_000\cppmisc\packages\visualcpptools.14.0.24629\lib\native\include\vector
;	COMDAT ??D?$_Vector_iterator@V?$_Vector_val@U?$_Simple_types@Vthread@std@@@std@@@std@@@std@@QEBAAEAVthread@1@XZ
_TEXT	SEGMENT
this$ = 8
??D?$_Vector_iterator@V?$_Vector_val@U?$_Simple_types@Vthread@std@@@std@@@std@@@std@@QEBAAEAVthread@1@XZ PROC ; std::_Vector_iterator<std::_Vector_val<std::_Simple_types<std::thread> > >::operator*, COMDAT

; 324  : 		return ((reference)**(_Mybase *)this);

  00000	48 8b 01	 mov	 rax, QWORD PTR [rcx]

; 325  : 		}

  00003	c3		 ret	 0
??D?$_Vector_iterator@V?$_Vector_val@U?$_Simple_types@Vthread@std@@@std@@@std@@@std@@QEBAAEAVthread@1@XZ ENDP ; std::_Vector_iterator<std::_Vector_val<std::_Simple_types<std::thread> > >::operator*
_TEXT	ENDS
; Function compile flags: /Ogtpy
; File c:\users\alist_000\cppmisc\packages\visualcpptools.14.0.24629\lib\native\include\vector
;	COMDAT ?end@?$vector@Vthread@std@@V?$allocator@Vthread@std@@@2@@std@@QEAA?AV?$_Vector_iterator@V?$_Vector_val@U?$_Simple_types@Vthread@std@@@std@@@std@@@2@XZ
_TEXT	SEGMENT
this$ = 8
__$ReturnUdt$ = 16
?end@?$vector@Vthread@std@@V?$allocator@Vthread@std@@@2@@std@@QEAA?AV?$_Vector_iterator@V?$_Vector_val@U?$_Simple_types@Vthread@std@@@std@@@std@@@2@XZ PROC ; std::vector<std::thread,std::allocator<std::thread> >::end, COMDAT

; 44   : 		: _Ptr(_Parg)

  00000	48 8b 41 08	 mov	 rax, QWORD PTR [rcx+8]
  00004	48 89 02	 mov	 QWORD PTR [rdx], rax

; 1629 : 		return (iterator(this->_Mylast(), &this->_Get_data()));

  00007	48 8b c2	 mov	 rax, rdx

; 1630 : 		}

  0000a	c3		 ret	 0
?end@?$vector@Vthread@std@@V?$allocator@Vthread@std@@@2@@std@@QEAA?AV?$_Vector_iterator@V?$_Vector_val@U?$_Simple_types@Vthread@std@@@std@@@std@@@2@XZ ENDP ; std::vector<std::thread,std::allocator<std::thread> >::end
_TEXT	ENDS
; Function compile flags: /Ogtpy
; File c:\users\alist_000\cppmisc\packages\visualcpptools.14.0.24629\lib\native\include\vector
;	COMDAT ?begin@?$vector@Vthread@std@@V?$allocator@Vthread@std@@@2@@std@@QEAA?AV?$_Vector_iterator@V?$_Vector_val@U?$_Simple_types@Vthread@std@@@std@@@std@@@2@XZ
_TEXT	SEGMENT
this$ = 8
__$ReturnUdt$ = 16
?begin@?$vector@Vthread@std@@V?$allocator@Vthread@std@@@2@@std@@QEAA?AV?$_Vector_iterator@V?$_Vector_val@U?$_Simple_types@Vthread@std@@@std@@@std@@@2@XZ PROC ; std::vector<std::thread,std::allocator<std::thread> >::begin, COMDAT

; 44   : 		: _Ptr(_Parg)

  00000	48 8b 01	 mov	 rax, QWORD PTR [rcx]
  00003	48 89 02	 mov	 QWORD PTR [rdx], rax

; 1619 : 		return (iterator(this->_Myfirst(), &this->_Get_data()));

  00006	48 8b c2	 mov	 rax, rdx

; 1620 : 		}

  00009	c3		 ret	 0
?begin@?$vector@Vthread@std@@V?$allocator@Vthread@std@@@2@@std@@QEAA?AV?$_Vector_iterator@V?$_Vector_val@U?$_Simple_types@Vthread@std@@@std@@@std@@@2@XZ ENDP ; std::vector<std::thread,std::allocator<std::thread> >::begin
_TEXT	ENDS
; Function compile flags: /Ogtpy
; File c:\users\alist_000\cppmisc\packages\visualcpptools.14.0.24629\lib\native\include\vector
;	COMDAT ?reserve@?$vector@Vthread@std@@V?$allocator@Vthread@std@@@2@@std@@QEAAX_K@Z
_TEXT	SEGMENT
this$ = 8
?reserve@?$vector@Vthread@std@@V?$allocator@Vthread@std@@@2@@std@@QEAAX_K@Z PROC ; std::vector<std::thread,std::allocator<std::thread> >::reserve, COMDAT

; 1503 : 		if (_Newcapacity > capacity())
; 1504 : 			{	// something to do (reserve() never shrinks)
; 1505 : 			if (_Newcapacity > max_size())
; 1506 : 				{
; 1507 : 				_Xlength();
; 1508 : 				}
; 1509 : 
; 1510 : 			_Reallocate_exactly(_Newcapacity);

  00000	e9 00 00 00 00	 jmp	 ?_Reallocate_exactly@?$vector@Vthread@std@@V?$allocator@Vthread@std@@@2@@std@@AEAAX_K@Z ; std::vector<std::thread,std::allocator<std::thread> >::_Reallocate_exactly
?reserve@?$vector@Vthread@std@@V?$allocator@Vthread@std@@@2@@std@@QEAAX_K@Z ENDP ; std::vector<std::thread,std::allocator<std::thread> >::reserve
_TEXT	ENDS
; Function compile flags: /Ogtpy
; File c:\users\alist_000\cppmisc\packages\visualcpptools.14.0.24629\lib\native\include\vector
;	COMDAT ??1?$vector@Vthread@std@@V?$allocator@Vthread@std@@@2@@std@@QEAA@XZ
_TEXT	SEGMENT
this$ = 8
??1?$vector@Vthread@std@@V?$allocator@Vthread@std@@@2@@std@@QEAA@XZ PROC ; std::vector<std::thread,std::allocator<std::thread> >::~vector<std::thread,std::allocator<std::thread> >, COMDAT

; 869  : 		_Tidy();

  00000	e9 00 00 00 00	 jmp	 ?_Tidy@?$vector@Vthread@std@@V?$allocator@Vthread@std@@@2@@std@@AEAAXXZ ; std::vector<std::thread,std::allocator<std::thread> >::_Tidy
??1?$vector@Vthread@std@@V?$allocator@Vthread@std@@@2@@std@@QEAA@XZ ENDP ; std::vector<std::thread,std::allocator<std::thread> >::~vector<std::thread,std::allocator<std::thread> >
_TEXT	ENDS
; Function compile flags: /Ogtpy
; File c:\users\alist_000\cppmisc\packages\visualcpptools.14.0.24629\lib\native\include\vector
;	COMDAT ??0?$vector@Vthread@std@@V?$allocator@Vthread@std@@@2@@std@@QEAA@XZ
_TEXT	SEGMENT
this$ = 8
??0?$vector@Vthread@std@@V?$allocator@Vthread@std@@@2@@std@@QEAA@XZ PROC ; std::vector<std::thread,std::allocator<std::thread> >::vector<std::thread,std::allocator<std::thread> >, COMDAT

; 478  : 		: _Myfirst(),

  00000	33 c0		 xor	 eax, eax
  00002	48 89 01	 mov	 QWORD PTR [rcx], rax

; 479  : 		_Mylast(),

  00005	48 89 41 08	 mov	 QWORD PTR [rcx+8], rax

; 480  : 		_Myend()

  00009	48 89 41 10	 mov	 QWORD PTR [rcx+16], rax

; 726  : 		}

  0000d	48 8b c1	 mov	 rax, rcx
  00010	c3		 ret	 0
??0?$vector@Vthread@std@@V?$allocator@Vthread@std@@@2@@std@@QEAA@XZ ENDP ; std::vector<std::thread,std::allocator<std::thread> >::vector<std::thread,std::allocator<std::thread> >
_TEXT	ENDS
; Function compile flags: /Ogtpy
; File c:\users\alist_000\cppmisc\packages\visualcpptools.14.0.24629\lib\native\include\xstring
;	COMDAT ?empty@?$basic_string@DU?$char_traits@D@std@@V?$allocator@D@2@@std@@QEBA_NXZ
_TEXT	SEGMENT
this$ = 8
?empty@?$basic_string@DU?$char_traits@D@std@@V?$allocator@D@2@@std@@QEBA_NXZ PROC ; std::basic_string<char,std::char_traits<char>,std::allocator<char> >::empty, COMDAT

; 3084 : 		{	// test if sequence is empty

  00000	48 83 79 10 00	 cmp	 QWORD PTR [rcx+16], 0
  00005	0f 94 c0	 sete	 al

; 3085 : 		return (this->_Mysize() == 0);
; 3086 : 		}

  00008	c3		 ret	 0
?empty@?$basic_string@DU?$char_traits@D@std@@V?$allocator@D@2@@std@@QEBA_NXZ ENDP ; std::basic_string<char,std::char_traits<char>,std::allocator<char> >::empty
_TEXT	ENDS
; Function compile flags: /Ogtpy
; File c:\users\alist_000\cppmisc\packages\visualcpptools.14.0.24629\lib\native\include\xstring
;	COMDAT ?c_str@?$basic_string@DU?$char_traits@D@std@@V?$allocator@D@2@@std@@QEBAPEBDXZ
_TEXT	SEGMENT
this$ = 8
?c_str@?$basic_string@DU?$char_traits@D@std@@V?$allocator@D@2@@std@@QEBAPEBDXZ PROC ; std::basic_string<char,std::char_traits<char>,std::allocator<char> >::c_str, COMDAT

; 1638 : 		return (this->_BUF_SIZE <= _Myres);

  00000	48 83 79 18 10	 cmp	 QWORD PTR [rcx+24], 16

; 1631 : 		return (_Large_string_engaged()

  00005	72 04		 jb	 SHORT $LN13@c_str

; 2996 : 		return (this->_Myptr());

  00007	48 8b 01	 mov	 rax, QWORD PTR [rcx]

; 2997 : 		}

  0000a	c3		 ret	 0
$LN13@c_str:

; 2996 : 		return (this->_Myptr());

  0000b	48 8b c1	 mov	 rax, rcx

; 2997 : 		}

  0000e	c3		 ret	 0
?c_str@?$basic_string@DU?$char_traits@D@std@@V?$allocator@D@2@@std@@QEBAPEBDXZ ENDP ; std::basic_string<char,std::char_traits<char>,std::allocator<char> >::c_str
_TEXT	ENDS
; Function compile flags: /Ogtpy
; File c:\users\alist_000\cppmisc\packages\visualcpptools.14.0.24629\lib\native\include\xstring
; File c:\users\alist_000\cppmisc\packages\visualcpptools.14.0.24629\lib\native\include\iosfwd
; File c:\users\alist_000\cppmisc\packages\visualcpptools.14.0.24629\lib\native\include\xstring
;	COMDAT ?append@?$basic_string@DU?$char_traits@D@std@@V?$allocator@D@2@@std@@QEAAAEAV12@QEBD@Z
_TEXT	SEGMENT
this$ = 8
_Ptr$ = 16
?append@?$basic_string@DU?$char_traits@D@std@@V?$allocator@D@2@@std@@QEAAAEAV12@QEBD@Z PROC ; std::basic_string<char,std::char_traits<char>,std::allocator<char> >::append, COMDAT
; File c:\users\alist_000\cppmisc\packages\visualcpptools.14.0.24629\lib\native\include\iosfwd

; 479  : 		return (_CSTD strlen(_First));

  00000	49 83 c8 ff	 or	 r8, -1
$LL6@append:
  00004	49 ff c0	 inc	 r8
  00007	42 80 3c 02 00	 cmp	 BYTE PTR [rdx+r8], 0
  0000c	75 f6		 jne	 SHORT $LL6@append
; File c:\users\alist_000\cppmisc\packages\visualcpptools.14.0.24629\lib\native\include\xstring

; 2285 : 		return (append(_Ptr, _Traits::length(_Ptr)));

  0000e	e9 00 00 00 00	 jmp	 ?append@?$basic_string@DU?$char_traits@D@std@@V?$allocator@D@2@@std@@QEAAAEAV12@QEBD_K@Z ; std::basic_string<char,std::char_traits<char>,std::allocator<char> >::append
?append@?$basic_string@DU?$char_traits@D@std@@V?$allocator@D@2@@std@@QEAAAEAV12@QEBD@Z ENDP ; std::basic_string<char,std::char_traits<char>,std::allocator<char> >::append
_TEXT	ENDS
; Function compile flags: /Ogtpy
; File c:\users\alist_000\cppmisc\packages\visualcpptools.14.0.24629\lib\native\include\xstring
;	COMDAT ?append@?$basic_string@DU?$char_traits@D@std@@V?$allocator@D@2@@std@@QEAAAEAV12@AEBV12@@Z
_TEXT	SEGMENT
this$ = 8
_Right$ = 16
?append@?$basic_string@DU?$char_traits@D@std@@V?$allocator@D@2@@std@@QEAAAEAV12@AEBV12@@Z PROC ; std::basic_string<char,std::char_traits<char>,std::allocator<char> >::append, COMDAT

; 2226 : 		return (append(_Right, 0, npos));

  00000	49 83 c9 ff	 or	 r9, -1
  00004	45 33 c0	 xor	 r8d, r8d
  00007	e9 00 00 00 00	 jmp	 ?append@?$basic_string@DU?$char_traits@D@std@@V?$allocator@D@2@@std@@QEAAAEAV12@AEBV12@_K_K@Z ; std::basic_string<char,std::char_traits<char>,std::allocator<char> >::append
?append@?$basic_string@DU?$char_traits@D@std@@V?$allocator@D@2@@std@@QEAAAEAV12@AEBV12@@Z ENDP ; std::basic_string<char,std::char_traits<char>,std::allocator<char> >::append
_TEXT	ENDS
; Function compile flags: /Ogtpy
; File c:\users\alist_000\cppmisc\packages\visualcpptools.14.0.24629\lib\native\include\xstring
; File c:\users\alist_000\cppmisc\packages\visualcpptools.14.0.24629\lib\native\include\xmemory0
; File c:\users\alist_000\cppmisc\packages\visualcpptools.14.0.24629\lib\native\include\xstring
; File c:\users\alist_000\cppmisc\packages\visualcpptools.14.0.24629\lib\native\include\xmemory0
; File c:\users\alist_000\cppmisc\packages\visualcpptools.14.0.24629\lib\native\include\xstring
; File c:\users\alist_000\cppmisc\packages\visualcpptools.14.0.24629\lib\native\include\xmemory0
; File c:\users\alist_000\cppmisc\packages\visualcpptools.14.0.24629\lib\native\include\xstring
; File c:\users\alist_000\cppmisc\packages\visualcpptools.14.0.24629\lib\native\include\xmemory0
; File c:\users\alist_000\cppmisc\packages\visualcpptools.14.0.24629\lib\native\include\xstring
;	COMDAT ??1?$basic_string@DU?$char_traits@D@std@@V?$allocator@D@2@@std@@QEAA@XZ
_TEXT	SEGMENT
this$ = 48
??1?$basic_string@DU?$char_traits@D@std@@V?$allocator@D@2@@std@@QEAA@XZ PROC ; std::basic_string<char,std::char_traits<char>,std::allocator<char> >::~basic_string<char,std::char_traits<char>,std::allocator<char> >, COMDAT

; 2158 : 		{	// destroy the string

$LN45:
  00000	48 83 ec 28	 sub	 rsp, 40			; 00000028H

; 1638 : 		return (this->_BUF_SIZE <= _Myres);

  00004	48 8b 41 18	 mov	 rax, QWORD PTR [rcx+24]
  00008	48 83 f8 10	 cmp	 rax, 16

; 3549 : 		if (_My_data._Large_string_engaged())

  0000c	72 37		 jb	 SHORT $LN34@basic_stri
; File c:\users\alist_000\cppmisc\packages\visualcpptools.14.0.24629\lib\native\include\xmemory0

; 816  : 		_Deallocate(_Ptr, _Count, sizeof (_Ty));

  0000e	48 8b 09	 mov	 rcx, QWORD PTR [rcx]
; File c:\users\alist_000\cppmisc\packages\visualcpptools.14.0.24629\lib\native\include\xstring

; 3554 : 			_Al.deallocate(_Ptr, _My_data._Myres + 1);

  00011	48 ff c0	 inc	 rax
; File c:\users\alist_000\cppmisc\packages\visualcpptools.14.0.24629\lib\native\include\xmemory0

; 98   : 	if (_BIG_ALLOCATION_THRESHOLD <= _User_size)

  00014	48 3d 00 10 00
	00		 cmp	 rax, 4096		; 00001000H
  0001a	72 20		 jb	 SHORT $LN29@basic_stri

; 101  : 		_SCL_SECURE_ALWAYS_VALIDATE(

  0001c	f6 c1 1f	 test	 cl, 31
  0001f	75 29		 jne	 SHORT $LN40@basic_stri

; 102  : 			(_Ptr_user & (_BIG_ALLOCATION_ALIGNMENT - 1)) == 0);
; 103  : 		const uintptr_t _Ptr_ptr = _Ptr_user - sizeof(void *);
; 104  : 		const uintptr_t _Ptr_container =
; 105  : 			*reinterpret_cast<uintptr_t *>(_Ptr_ptr);

  00021	48 8b 41 f8	 mov	 rax, QWORD PTR [rcx-8]

; 106  : 
; 107  :  #ifdef _DEBUG
; 108  : 		// If the following asserts, it likely means that we are performing
; 109  : 		// an aligned delete on memory coming from an unaligned allocation.
; 110  : 		_SCL_SECURE_ALWAYS_VALIDATE(
; 111  : 			reinterpret_cast<uintptr_t *>(_Ptr_ptr)[-1] ==
; 112  : 				_BIG_ALLOCATION_SENTINEL);
; 113  :  #endif /* _DEBUG */
; 114  : 
; 115  : 		// Extra paranoia on aligned allocation/deallocation
; 116  : 		_SCL_SECURE_ALWAYS_VALIDATE(_Ptr_container < _Ptr_user);

  00025	48 3b c1	 cmp	 rax, rcx
  00028	73 26		 jae	 SHORT $LN42@basic_stri

; 117  : 
; 118  :  #ifdef _DEBUG
; 119  : 		_SCL_SECURE_ALWAYS_VALIDATE(2 * sizeof(void *)
; 120  : 			<= _Ptr_user - _Ptr_container);
; 121  : 
; 122  :  #else /* _DEBUG */
; 123  : 		_SCL_SECURE_ALWAYS_VALIDATE(sizeof(void *)

  0002a	48 2b c8	 sub	 rcx, rax
  0002d	48 83 f9 08	 cmp	 rcx, 8
  00031	72 23		 jb	 SHORT $LN43@basic_stri

; 124  : 			<= _Ptr_user - _Ptr_container);
; 125  :  #endif /* _DEBUG */
; 126  : 
; 127  : 		_SCL_SECURE_ALWAYS_VALIDATE(_Ptr_user - _Ptr_container

  00033	48 83 f9 27	 cmp	 rcx, 39			; 00000027H
  00037	77 23		 ja	 SHORT $LN44@basic_stri

; 128  : 			<= _NON_USER_SIZE);
; 129  : 
; 130  : 		_Ptr = reinterpret_cast<void *>(_Ptr_container);

  00039	48 8b c8	 mov	 rcx, rax
$LN29@basic_stri:
; File c:\users\alist_000\cppmisc\packages\visualcpptools.14.0.24629\lib\native\include\xstring

; 2160 : 		}

  0003c	48 83 c4 28	 add	 rsp, 40			; 00000028H
; File c:\users\alist_000\cppmisc\packages\visualcpptools.14.0.24629\lib\native\include\xmemory0

; 134  : 	::operator delete(_Ptr);

  00040	e9 00 00 00 00	 jmp	 ??3@YAXPEAX@Z		; operator delete
$LN34@basic_stri:
; File c:\users\alist_000\cppmisc\packages\visualcpptools.14.0.24629\lib\native\include\xstring

; 2160 : 		}

  00045	48 83 c4 28	 add	 rsp, 40			; 00000028H
  00049	c3		 ret	 0
$LN40@basic_stri:
; File c:\users\alist_000\cppmisc\packages\visualcpptools.14.0.24629\lib\native\include\xmemory0

; 101  : 		_SCL_SECURE_ALWAYS_VALIDATE(

  0004a	e8 00 00 00 00	 call	 _invalid_parameter_noinfo_noreturn
  0004f	cc		 int	 3
$LN42@basic_stri:

; 106  : 
; 107  :  #ifdef _DEBUG
; 108  : 		// If the following asserts, it likely means that we are performing
; 109  : 		// an aligned delete on memory coming from an unaligned allocation.
; 110  : 		_SCL_SECURE_ALWAYS_VALIDATE(
; 111  : 			reinterpret_cast<uintptr_t *>(_Ptr_ptr)[-1] ==
; 112  : 				_BIG_ALLOCATION_SENTINEL);
; 113  :  #endif /* _DEBUG */
; 114  : 
; 115  : 		// Extra paranoia on aligned allocation/deallocation
; 116  : 		_SCL_SECURE_ALWAYS_VALIDATE(_Ptr_container < _Ptr_user);

  00050	e8 00 00 00 00	 call	 _invalid_parameter_noinfo_noreturn
  00055	cc		 int	 3
$LN43@basic_stri:

; 117  : 
; 118  :  #ifdef _DEBUG
; 119  : 		_SCL_SECURE_ALWAYS_VALIDATE(2 * sizeof(void *)
; 120  : 			<= _Ptr_user - _Ptr_container);
; 121  : 
; 122  :  #else /* _DEBUG */
; 123  : 		_SCL_SECURE_ALWAYS_VALIDATE(sizeof(void *)

  00056	e8 00 00 00 00	 call	 _invalid_parameter_noinfo_noreturn
  0005b	cc		 int	 3
$LN44@basic_stri:

; 124  : 			<= _Ptr_user - _Ptr_container);
; 125  :  #endif /* _DEBUG */
; 126  : 
; 127  : 		_SCL_SECURE_ALWAYS_VALIDATE(_Ptr_user - _Ptr_container

  0005c	e8 00 00 00 00	 call	 _invalid_parameter_noinfo_noreturn
  00061	cc		 int	 3
$LN39@basic_stri:
??1?$basic_string@DU?$char_traits@D@std@@V?$allocator@D@2@@std@@QEAA@XZ ENDP ; std::basic_string<char,std::char_traits<char>,std::allocator<char> >::~basic_string<char,std::char_traits<char>,std::allocator<char> >
_TEXT	ENDS
; Function compile flags: /Ogtpy
; File c:\users\alist_000\cppmisc\packages\visualcpptools.14.0.24629\lib\native\include\xstring
; File c:\users\alist_000\cppmisc\packages\visualcpptools.14.0.24629\lib\native\include\iosfwd
; File c:\users\alist_000\cppmisc\packages\visualcpptools.14.0.24629\lib\native\include\xstring
; File c:\users\alist_000\cppmisc\packages\visualcpptools.14.0.24629\lib\native\include\xmemory0
; File c:\users\alist_000\cppmisc\packages\visualcpptools.14.0.24629\lib\native\include\xstring
; File c:\users\alist_000\cppmisc\packages\visualcpptools.14.0.24629\lib\native\include\iosfwd
; File c:\users\alist_000\cppmisc\packages\visualcpptools.14.0.24629\lib\native\include\xstring
; File c:\users\alist_000\cppmisc\packages\visualcpptools.14.0.24629\lib\native\include\iosfwd
; File c:\users\alist_000\cppmisc\packages\visualcpptools.14.0.24629\lib\native\include\xstring
;	COMDAT ??0?$basic_string@DU?$char_traits@D@std@@V?$allocator@D@2@@std@@QEAA@$$QEAV01@@Z
_TEXT	SEGMENT
this$ = 48
_Right$ = 56
??0?$basic_string@DU?$char_traits@D@std@@V?$allocator@D@2@@std@@QEAA@$$QEAV01@@Z PROC ; std::basic_string<char,std::char_traits<char>,std::allocator<char> >::basic_string<char,std::char_traits<char>,std::allocator<char> >, COMDAT

; 2040 : 		{	// construct by moving _Right

$LN99:
  00000	48 89 5c 24 08	 mov	 QWORD PTR [rsp+8], rbx
  00005	57		 push	 rdi
  00006	48 83 ec 20	 sub	 rsp, 32			; 00000020H

; 3539 : 		_My_data._Mysize = 0;

  0000a	48 c7 41 10 00
	00 00 00	 mov	 QWORD PTR [rcx+16], 0

; 2040 : 		{	// construct by moving _Right

  00012	48 8b da	 mov	 rbx, rdx

; 3540 : 		_My_data._Myres = this->_BUF_SIZE - 1;

  00015	48 c7 41 18 0f
	00 00 00	 mov	 QWORD PTR [rcx+24], 15

; 2040 : 		{	// construct by moving _Right

  0001d	48 8b f9	 mov	 rdi, rcx
; File c:\users\alist_000\cppmisc\packages\visualcpptools.14.0.24629\lib\native\include\iosfwd

; 516  : 		_Left = _Right;

  00020	c6 01 00	 mov	 BYTE PTR [rcx], 0
; File c:\users\alist_000\cppmisc\packages\visualcpptools.14.0.24629\lib\native\include\xstring

; 1638 : 		return (this->_BUF_SIZE <= _Myres);

  00023	48 83 7a 18 10	 cmp	 QWORD PTR [rdx+24], 16

; 2100 : 		if (_Right_data._Large_string_engaged())

  00028	72 0f		 jb	 SHORT $LN39@basic_stri
; File c:\users\alist_000\cppmisc\packages\visualcpptools.14.0.24629\lib\native\include\xmemory0

; 833  : 		::new ((void *)_Ptr) _Objty(_STD forward<_Types>(_Args)...);

  0002a	48 8b 02	 mov	 rax, QWORD PTR [rdx]
  0002d	48 89 01	 mov	 QWORD PTR [rcx], rax
; File c:\users\alist_000\cppmisc\packages\visualcpptools.14.0.24629\lib\native\include\xstring

; 2103 : 			_Right_data._Bx._Ptr = pointer();

  00030	48 c7 02 00 00
	00 00		 mov	 QWORD PTR [rdx], 0

; 2104 : 			}
; 2105 : 		else

  00037	eb 0c		 jmp	 SHORT $LN85@basic_stri
$LN39@basic_stri:

; 2106 : 			{	// copy small string buffer
; 2107 : 			_Traits::copy(_My_data._Bx._Buf, _Right_data._Bx._Buf, _Right_data._Mysize + 1);

  00039	4c 8b 42 10	 mov	 r8, QWORD PTR [rdx+16]
  0003d	49 ff c0	 inc	 r8
; File c:\users\alist_000\cppmisc\packages\visualcpptools.14.0.24629\lib\native\include\iosfwd

; 485  : 		return ((_Elem *)_CSTD memcpy(_First1, _First2, _Count));

  00040	e8 00 00 00 00	 call	 memcpy
$LN85@basic_stri:
; File c:\users\alist_000\cppmisc\packages\visualcpptools.14.0.24629\lib\native\include\xstring

; 2109 : 		_My_data._Mysize = _Right_data._Mysize;

  00045	48 8b 43 10	 mov	 rax, QWORD PTR [rbx+16]
  00049	48 89 47 10	 mov	 QWORD PTR [rdi+16], rax

; 2110 : 		_My_data._Myres = _Right_data._Myres;

  0004d	48 8b 43 18	 mov	 rax, QWORD PTR [rbx+24]
  00051	48 89 47 18	 mov	 QWORD PTR [rdi+24], rax

; 2043 : 		}

  00055	48 8b c7	 mov	 rax, rdi

; 3539 : 		_My_data._Mysize = 0;

  00058	48 c7 43 10 00
	00 00 00	 mov	 QWORD PTR [rbx+16], 0

; 3540 : 		_My_data._Myres = this->_BUF_SIZE - 1;

  00060	48 c7 43 18 0f
	00 00 00	 mov	 QWORD PTR [rbx+24], 15
; File c:\users\alist_000\cppmisc\packages\visualcpptools.14.0.24629\lib\native\include\iosfwd

; 516  : 		_Left = _Right;

  00068	c6 03 00	 mov	 BYTE PTR [rbx], 0
; File c:\users\alist_000\cppmisc\packages\visualcpptools.14.0.24629\lib\native\include\xstring

; 2043 : 		}

  0006b	48 8b 5c 24 30	 mov	 rbx, QWORD PTR [rsp+48]
  00070	48 83 c4 20	 add	 rsp, 32			; 00000020H
  00074	5f		 pop	 rdi
  00075	c3		 ret	 0
??0?$basic_string@DU?$char_traits@D@std@@V?$allocator@D@2@@std@@QEAA@$$QEAV01@@Z ENDP ; std::basic_string<char,std::char_traits<char>,std::allocator<char> >::basic_string<char,std::char_traits<char>,std::allocator<char> >
_TEXT	ENDS
; Function compile flags: /Ogtpy
; File c:\users\alist_000\cppmisc\packages\visualcpptools.14.0.24629\lib\native\include\xstring
; File c:\users\alist_000\cppmisc\packages\visualcpptools.14.0.24629\lib\native\include\iosfwd
; File c:\users\alist_000\cppmisc\packages\visualcpptools.14.0.24629\lib\native\include\xstring
;	COMDAT ??0?$basic_string@DU?$char_traits@D@std@@V?$allocator@D@2@@std@@QEAA@QEBD@Z
_TEXT	SEGMENT
this$ = 48
_Ptr$ = 56
??0?$basic_string@DU?$char_traits@D@std@@V?$allocator@D@2@@std@@QEAA@QEBD@Z PROC ; std::basic_string<char,std::char_traits<char>,std::allocator<char> >::basic_string<char,std::char_traits<char>,std::allocator<char> >, COMDAT

; 1966 : 		{	// construct from [_Ptr, <null>)

$LN27:
  00000	40 53		 push	 rbx
  00002	48 83 ec 20	 sub	 rsp, 32			; 00000020H

; 3539 : 		_My_data._Mysize = 0;

  00006	48 c7 41 10 00
	00 00 00	 mov	 QWORD PTR [rcx+16], 0

; 1966 : 		{	// construct from [_Ptr, <null>)

  0000e	48 8b d9	 mov	 rbx, rcx

; 3540 : 		_My_data._Myres = this->_BUF_SIZE - 1;

  00011	48 c7 41 18 0f
	00 00 00	 mov	 QWORD PTR [rcx+24], 15
; File c:\users\alist_000\cppmisc\packages\visualcpptools.14.0.24629\lib\native\include\iosfwd

; 479  : 		return (_CSTD strlen(_First));

  00019	49 83 c8 ff	 or	 r8, -1

; 516  : 		_Left = _Right;

  0001d	c6 01 00	 mov	 BYTE PTR [rcx], 0
$LL25@basic_stri:

; 479  : 		return (_CSTD strlen(_First));

  00020	49 ff c0	 inc	 r8
  00023	42 80 3c 02 00	 cmp	 BYTE PTR [rdx+r8], 0
  00028	75 f6		 jne	 SHORT $LL25@basic_stri
; File c:\users\alist_000\cppmisc\packages\visualcpptools.14.0.24629\lib\native\include\xstring

; 2377 : 		return (assign(_Ptr, _Traits::length(_Ptr)));

  0002a	e8 00 00 00 00	 call	 ?assign@?$basic_string@DU?$char_traits@D@std@@V?$allocator@D@2@@std@@QEAAAEAV12@QEBD_K@Z ; std::basic_string<char,std::char_traits<char>,std::allocator<char> >::assign

; 1967 : 		_Tidy_init();
; 1968 : 		assign(_Ptr);
; 1969 : 		}

  0002f	48 8b c3	 mov	 rax, rbx
  00032	48 83 c4 20	 add	 rsp, 32			; 00000020H
  00036	5b		 pop	 rbx
  00037	c3		 ret	 0
??0?$basic_string@DU?$char_traits@D@std@@V?$allocator@D@2@@std@@QEAA@QEBD@Z ENDP ; std::basic_string<char,std::char_traits<char>,std::allocator<char> >::basic_string<char,std::char_traits<char>,std::allocator<char> >
_TEXT	ENDS
; Function compile flags: /Ogtpy
; File c:\users\alist_000\cppmisc\packages\visualcpptools.14.0.24629\lib\native\include\xstring
; File c:\users\alist_000\cppmisc\packages\visualcpptools.14.0.24629\lib\native\include\iosfwd
; File c:\users\alist_000\cppmisc\packages\visualcpptools.14.0.24629\lib\native\include\xstring
;	COMDAT ??0?$basic_string@DU?$char_traits@D@std@@V?$allocator@D@2@@std@@QEAA@AEBV01@@Z
_TEXT	SEGMENT
this$ = 48
_Right$ = 56
??0?$basic_string@DU?$char_traits@D@std@@V?$allocator@D@2@@std@@QEAA@AEBV01@@Z PROC ; std::basic_string<char,std::char_traits<char>,std::allocator<char> >::basic_string<char,std::char_traits<char>,std::allocator<char> >, COMDAT

; 1911 : 		{	// construct by copying _Right

$LN42:
  00000	40 53		 push	 rbx
  00002	48 83 ec 20	 sub	 rsp, 32			; 00000020H

; 3539 : 		_My_data._Mysize = 0;

  00006	48 c7 41 10 00
	00 00 00	 mov	 QWORD PTR [rcx+16], 0

; 2117 : 		assign(_Right, 0, npos);

  0000e	49 83 c9 ff	 or	 r9, -1

; 3540 : 		_My_data._Myres = this->_BUF_SIZE - 1;

  00012	48 c7 41 18 0f
	00 00 00	 mov	 QWORD PTR [rcx+24], 15

; 2117 : 		assign(_Right, 0, npos);

  0001a	45 33 c0	 xor	 r8d, r8d
; File c:\users\alist_000\cppmisc\packages\visualcpptools.14.0.24629\lib\native\include\iosfwd

; 516  : 		_Left = _Right;

  0001d	c6 01 00	 mov	 BYTE PTR [rcx], 0
; File c:\users\alist_000\cppmisc\packages\visualcpptools.14.0.24629\lib\native\include\xstring

; 1911 : 		{	// construct by copying _Right

  00020	48 8b d9	 mov	 rbx, rcx

; 2117 : 		assign(_Right, 0, npos);

  00023	e8 00 00 00 00	 call	 ?assign@?$basic_string@DU?$char_traits@D@std@@V?$allocator@D@2@@std@@QEAAAEAV12@AEBV12@_K_K@Z ; std::basic_string<char,std::char_traits<char>,std::allocator<char> >::assign

; 1912 : 		_Tidy_init();
; 1913 : 		_Assign_lv_contents(_Right);
; 1914 : 		}

  00028	48 8b c3	 mov	 rax, rbx
  0002b	48 83 c4 20	 add	 rsp, 32			; 00000020H
  0002f	5b		 pop	 rbx
  00030	c3		 ret	 0
??0?$basic_string@DU?$char_traits@D@std@@V?$allocator@D@2@@std@@QEAA@AEBV01@@Z ENDP ; std::basic_string<char,std::char_traits<char>,std::allocator<char> >::basic_string<char,std::char_traits<char>,std::allocator<char> >
_TEXT	ENDS
; Function compile flags: /Ogtpy
; File c:\users\alist_000\cppmisc\packages\visualcpptools.14.0.24629\lib\native\include\chrono
;	COMDAT ?time_since_epoch@?$time_point@Usystem_clock@chrono@std@@V?$duration@_JU?$ratio@$00$0JIJGIA@@std@@@23@@chrono@std@@QEBA?AV?$duration@_JU?$ratio@$00$0JIJGIA@@std@@@23@XZ
_TEXT	SEGMENT
this$ = 8
__$ReturnUdt$ = 16
?time_since_epoch@?$time_point@Usystem_clock@chrono@std@@V?$duration@_JU?$ratio@$00$0JIJGIA@@std@@@23@@chrono@std@@QEBA?AV?$duration@_JU?$ratio@$00$0JIJGIA@@std@@@23@XZ PROC ; std::chrono::time_point<std::chrono::system_clock,std::chrono::duration<__int64,std::ratio<1,10000000> > >::time_since_epoch, COMDAT

; 256  : 		return (_MyDur);

  00000	48 8b 01	 mov	 rax, QWORD PTR [rcx]
  00003	48 89 02	 mov	 QWORD PTR [rdx], rax
  00006	48 8b c2	 mov	 rax, rdx

; 257  : 		}

  00009	c3		 ret	 0
?time_since_epoch@?$time_point@Usystem_clock@chrono@std@@V?$duration@_JU?$ratio@$00$0JIJGIA@@std@@@23@@chrono@std@@QEBA?AV?$duration@_JU?$ratio@$00$0JIJGIA@@std@@@23@XZ ENDP ; std::chrono::time_point<std::chrono::system_clock,std::chrono::duration<__int64,std::ratio<1,10000000> > >::time_since_epoch
_TEXT	ENDS
; Function compile flags: /Ogtpy
; File c:\users\alist_000\cppmisc\packages\visualcpptools.14.0.24629\lib\native\include\chrono
;	COMDAT ??0?$time_point@Usystem_clock@chrono@std@@V?$duration@_JU?$ratio@$00$0JIJGIA@@std@@@23@@chrono@std@@QEAA@AEBV?$duration@_JU?$ratio@$00$0JIJGIA@@std@@@12@@Z
_TEXT	SEGMENT
this$ = 8
_Other$ = 16
??0?$time_point@Usystem_clock@chrono@std@@V?$duration@_JU?$ratio@$00$0JIJGIA@@std@@@23@@chrono@std@@QEAA@AEBV?$duration@_JU?$ratio@$00$0JIJGIA@@std@@@12@@Z PROC ; std::chrono::time_point<std::chrono::system_clock,std::chrono::duration<__int64,std::ratio<1,10000000> > >::time_point<std::chrono::system_clock,std::chrono::duration<__int64,std::ratio<1,10000000> > >, COMDAT

; 241  : 		: _MyDur(_Other)

  00000	48 8b 02	 mov	 rax, QWORD PTR [rdx]
  00003	48 89 01	 mov	 QWORD PTR [rcx], rax

; 243  : 		}

  00006	48 8b c1	 mov	 rax, rcx
  00009	c3		 ret	 0
??0?$time_point@Usystem_clock@chrono@std@@V?$duration@_JU?$ratio@$00$0JIJGIA@@std@@@23@@chrono@std@@QEAA@AEBV?$duration@_JU?$ratio@$00$0JIJGIA@@std@@@12@@Z ENDP ; std::chrono::time_point<std::chrono::system_clock,std::chrono::duration<__int64,std::ratio<1,10000000> > >::time_point<std::chrono::system_clock,std::chrono::duration<__int64,std::ratio<1,10000000> > >
_TEXT	ENDS
; Function compile flags: /Ogtpy
; File c:\users\alist_000\cppmisc\packages\visualcpptools.14.0.24629\lib\native\include\chrono
;	COMDAT ?count@?$duration@_JU?$ratio@$00$0JIJGIA@@std@@@chrono@std@@QEBA_JXZ
_TEXT	SEGMENT
this$ = 8
?count@?$duration@_JU?$ratio@$00$0JIJGIA@@std@@@chrono@std@@QEBA_JXZ PROC ; std::chrono::duration<__int64,std::ratio<1,10000000> >::count, COMDAT

; 133  : 		return (_MyRep);

  00000	48 8b 01	 mov	 rax, QWORD PTR [rcx]

; 134  : 		}

  00003	c3		 ret	 0
?count@?$duration@_JU?$ratio@$00$0JIJGIA@@std@@@chrono@std@@QEBA_JXZ ENDP ; std::chrono::duration<__int64,std::ratio<1,10000000> >::count
_TEXT	ENDS
; Function compile flags: /Ogtpy
;	COMDAT ??1?$_String_alloc@U?$_String_base_types@DV?$allocator@D@std@@@std@@@std@@QEAA@XZ
_TEXT	SEGMENT
this$ = 8
??1?$_String_alloc@U?$_String_base_types@DV?$allocator@D@std@@@std@@@std@@QEAA@XZ PROC ; std::_String_alloc<std::_String_base_types<char,std::allocator<char> > >::~_String_alloc<std::_String_base_types<char,std::allocator<char> > >, COMDAT
  00000	c2 00 00	 ret	 0
??1?$_String_alloc@U?$_String_base_types@DV?$allocator@D@std@@@std@@@std@@QEAA@XZ ENDP ; std::_String_alloc<std::_String_base_types<char,std::allocator<char> > >::~_String_alloc<std::_String_base_types<char,std::allocator<char> > >
_TEXT	ENDS
; Function compile flags: /Ogtpy
;	COMDAT ??1?$_Compressed_pair@U?$_Wrap_alloc@V?$allocator@D@std@@@std@@V?$_String_val@U?$_Simple_types@D@std@@@2@$00@std@@QEAA@XZ
_TEXT	SEGMENT
this$ = 8
??1?$_Compressed_pair@U?$_Wrap_alloc@V?$allocator@D@std@@@std@@V?$_String_val@U?$_Simple_types@D@std@@@2@$00@std@@QEAA@XZ PROC ; std::_Compressed_pair<std::_Wrap_alloc<std::allocator<char> >,std::_String_val<std::_Simple_types<char> >,1>::~_Compressed_pair<std::_Wrap_alloc<std::allocator<char> >,std::_String_val<std::_Simple_types<char> >,1>, COMDAT
  00000	c2 00 00	 ret	 0
??1?$_Compressed_pair@U?$_Wrap_alloc@V?$allocator@D@std@@@std@@V?$_String_val@U?$_Simple_types@D@std@@@2@$00@std@@QEAA@XZ ENDP ; std::_Compressed_pair<std::_Wrap_alloc<std::allocator<char> >,std::_String_val<std::_Simple_types<char> >,1>::~_Compressed_pair<std::_Wrap_alloc<std::allocator<char> >,std::_String_val<std::_Simple_types<char> >,1>
_TEXT	ENDS
; Function compile flags: /Ogtpy
;	COMDAT ??1?$_String_val@U?$_Simple_types@D@std@@@std@@QEAA@XZ
_TEXT	SEGMENT
this$ = 8
??1?$_String_val@U?$_Simple_types@D@std@@@std@@QEAA@XZ PROC ; std::_String_val<std::_Simple_types<char> >::~_String_val<std::_Simple_types<char> >, COMDAT
  00000	c2 00 00	 ret	 0
??1?$_String_val@U?$_Simple_types@D@std@@@std@@QEAA@XZ ENDP ; std::_String_val<std::_Simple_types<char> >::~_String_val<std::_Simple_types<char> >
_TEXT	ENDS
; Function compile flags: /Ogtpy
; File c:\users\alist_000\cppmisc\packages\visualcpptools.14.0.24629\lib\native\include\vector
;	COMDAT ??8?$_Vector_const_iterator@V?$_Vector_val@U?$_Simple_types@Vthread@std@@@std@@@std@@@std@@QEBA_NAEBV01@@Z
_TEXT	SEGMENT
this$ = 8
_Right$ = 16
??8?$_Vector_const_iterator@V?$_Vector_val@U?$_Simple_types@Vthread@std@@@std@@@std@@@std@@QEBA_NAEBV01@@Z PROC ; std::_Vector_const_iterator<std::_Vector_val<std::_Simple_types<std::thread> > >::operator==, COMDAT

; 206  : 		{	// test for iterator equality

  00000	48 8b 02	 mov	 rax, QWORD PTR [rdx]
  00003	48 39 01	 cmp	 QWORD PTR [rcx], rax
  00006	0f 94 c0	 sete	 al

; 207  : 		_Compat(_Right);
; 208  : 		return (_Ptr == _Right._Ptr);
; 209  : 		}

  00009	c3		 ret	 0
??8?$_Vector_const_iterator@V?$_Vector_val@U?$_Simple_types@Vthread@std@@@std@@@std@@@std@@QEBA_NAEBV01@@Z ENDP ; std::_Vector_const_iterator<std::_Vector_val<std::_Simple_types<std::thread> > >::operator==
_TEXT	ENDS
; Function compile flags: /Ogtpy
; File c:\users\alist_000\cppmisc\packages\visualcpptools.14.0.24629\lib\native\include\vector
;	COMDAT ??E?$_Vector_const_iterator@V?$_Vector_val@U?$_Simple_types@Vthread@std@@@std@@@std@@@std@@QEAAAEAV01@XZ
_TEXT	SEGMENT
this$ = 8
??E?$_Vector_const_iterator@V?$_Vector_val@U?$_Simple_types@Vthread@std@@@std@@@std@@@std@@QEAAAEAV01@XZ PROC ; std::_Vector_const_iterator<std::_Vector_val<std::_Simple_types<std::thread> > >::operator++, COMDAT

; 93   :  #if _ITERATOR_DEBUG_LEVEL == 2
; 94   : 		const auto _Mycont = static_cast<const _Myvec *>(this->_Getcont());
; 95   : 		if (_Mycont == 0
; 96   : 			|| _Ptr == nullptr_t{}
; 97   : 			|| _Mycont->_Mylast <= _Ptr)
; 98   : 			{	// report error
; 99   : 			_DEBUG_ERROR("vector iterator not incrementable");
; 100  : 			}
; 101  : 
; 102  :  #elif _ITERATOR_DEBUG_LEVEL == 1
; 103  : 		_SCL_SECURE_VALIDATE(_Ptr != _Tptr());
; 104  : 		const auto _Mycont = static_cast<const _Myvec *>(this->_Getcont());
; 105  : 		_SCL_SECURE_VALIDATE(_Mycont != 0);
; 106  : 		_SCL_SECURE_VALIDATE_RANGE(_Ptr < _Mycont->_Mylast);
; 107  :  #endif /* _ITERATOR_DEBUG_LEVEL */
; 108  : 
; 109  : 		++_Ptr;

  00000	48 83 01 10	 add	 QWORD PTR [rcx], 16

; 110  : 		return (*this);

  00004	48 8b c1	 mov	 rax, rcx

; 111  : 		}

  00007	c3		 ret	 0
??E?$_Vector_const_iterator@V?$_Vector_val@U?$_Simple_types@Vthread@std@@@std@@@std@@@std@@QEAAAEAV01@XZ ENDP ; std::_Vector_const_iterator<std::_Vector_val<std::_Simple_types<std::thread> > >::operator++
_TEXT	ENDS
; Function compile flags: /Ogtpy
; File c:\users\alist_000\cppmisc\packages\visualcpptools.14.0.24629\lib\native\include\vector
;	COMDAT ??D?$_Vector_const_iterator@V?$_Vector_val@U?$_Simple_types@Vthread@std@@@std@@@std@@@std@@QEBAAEBVthread@1@XZ
_TEXT	SEGMENT
this$ = 8
??D?$_Vector_const_iterator@V?$_Vector_val@U?$_Simple_types@Vthread@std@@@std@@@std@@@std@@QEBAAEBVthread@1@XZ PROC ; std::_Vector_const_iterator<std::_Vector_val<std::_Simple_types<std::thread> > >::operator*, COMDAT

; 64   :  #if _ITERATOR_DEBUG_LEVEL == 2
; 65   : 		const auto _Mycont = static_cast<const _Myvec *>(this->_Getcont());
; 66   : 		if (_Mycont == 0
; 67   : 			|| _Ptr == _Tptr()
; 68   : 			|| _Ptr < _Mycont->_Myfirst
; 69   : 			|| _Mycont->_Mylast <= _Ptr)
; 70   : 			{	// report error
; 71   : 			_DEBUG_ERROR("vector iterator not dereferencable");
; 72   : 			}
; 73   : 
; 74   :  #elif _ITERATOR_DEBUG_LEVEL == 1
; 75   : 		_SCL_SECURE_VALIDATE(_Ptr != _Tptr());
; 76   : 		const auto _Mycont = static_cast<const _Myvec *>(this->_Getcont());
; 77   : 		_SCL_SECURE_VALIDATE(_Mycont != 0);
; 78   : 		_SCL_SECURE_VALIDATE_RANGE(_Mycont->_Myfirst <= _Ptr && _Ptr < _Mycont->_Mylast);
; 79   :  #endif /* _ITERATOR_DEBUG_LEVEL */
; 80   : 
; 81   : 		_Analysis_assume_(_Ptr != _Tptr());
; 82   : 
; 83   : 		return (*_Ptr);

  00000	48 8b 01	 mov	 rax, QWORD PTR [rcx]

; 84   : 		}

  00003	c3		 ret	 0
??D?$_Vector_const_iterator@V?$_Vector_val@U?$_Simple_types@Vthread@std@@@std@@@std@@@std@@QEBAAEBVthread@1@XZ ENDP ; std::_Vector_const_iterator<std::_Vector_val<std::_Simple_types<std::thread> > >::operator*
_TEXT	ENDS
; Function compile flags: /Ogtpy
; File c:\users\alist_000\cppmisc\packages\visualcpptools.14.0.24629\lib\native\include\vector
;	COMDAT ??0?$_Vector_iterator@V?$_Vector_val@U?$_Simple_types@Vthread@std@@@std@@@std@@@std@@QEAA@PEAVthread@1@PEBU_Container_base0@1@@Z
_TEXT	SEGMENT
this$ = 8
_Parg$ = 16
_Pvector$dead$ = 24
??0?$_Vector_iterator@V?$_Vector_val@U?$_Simple_types@Vthread@std@@@std@@@std@@@std@@QEAA@PEAVthread@1@PEBU_Container_base0@1@@Z PROC ; std::_Vector_iterator<std::_Vector_val<std::_Simple_types<std::thread> > >::_Vector_iterator<std::_Vector_val<std::_Simple_types<std::thread> > >, COMDAT

; 44   : 		: _Ptr(_Parg)

  00000	48 89 11	 mov	 QWORD PTR [rcx], rdx

; 307  : 		}

  00003	48 8b c1	 mov	 rax, rcx
  00006	c3		 ret	 0
??0?$_Vector_iterator@V?$_Vector_val@U?$_Simple_types@Vthread@std@@@std@@@std@@@std@@QEAA@PEAVthread@1@PEBU_Container_base0@1@@Z ENDP ; std::_Vector_iterator<std::_Vector_val<std::_Simple_types<std::thread> > >::_Vector_iterator<std::_Vector_val<std::_Simple_types<std::thread> > >
_TEXT	ENDS
; Function compile flags: /Ogtpy
; File c:\users\alist_000\cppmisc\packages\visualcpptools.14.0.24629\lib\native\include\vector
;	COMDAT ?_Mylast@?$_Vector_alloc@U?$_Vec_base_types@Vthread@std@@V?$allocator@Vthread@std@@@2@@std@@@std@@QEAAAEAPEAVthread@2@XZ
_TEXT	SEGMENT
this$ = 8
?_Mylast@?$_Vector_alloc@U?$_Vec_base_types@Vthread@std@@V?$allocator@Vthread@std@@@2@@std@@@std@@QEAAAEAPEAVthread@2@XZ PROC ; std::_Vector_alloc<std::_Vec_base_types<std::thread,std::allocator<std::thread> > >::_Mylast, COMDAT

; 663  : 		return (_Get_data()._Mylast);

  00000	48 8d 41 08	 lea	 rax, QWORD PTR [rcx+8]

; 664  : 		}

  00004	c3		 ret	 0
?_Mylast@?$_Vector_alloc@U?$_Vec_base_types@Vthread@std@@V?$allocator@Vthread@std@@@2@@std@@@std@@QEAAAEAPEAVthread@2@XZ ENDP ; std::_Vector_alloc<std::_Vec_base_types<std::thread,std::allocator<std::thread> > >::_Mylast
_TEXT	ENDS
; Function compile flags: /Ogtpy
; File c:\users\alist_000\cppmisc\packages\visualcpptools.14.0.24629\lib\native\include\vector
;	COMDAT ?_Myfirst@?$_Vector_alloc@U?$_Vec_base_types@Vthread@std@@V?$allocator@Vthread@std@@@2@@std@@@std@@QEAAAEAPEAVthread@2@XZ
_TEXT	SEGMENT
this$ = 8
?_Myfirst@?$_Vector_alloc@U?$_Vec_base_types@Vthread@std@@V?$allocator@Vthread@std@@@2@@std@@@std@@QEAAAEAPEAVthread@2@XZ PROC ; std::_Vector_alloc<std::_Vec_base_types<std::thread,std::allocator<std::thread> > >::_Myfirst, COMDAT

; 653  : 		return (_Get_data()._Myfirst);

  00000	48 8b c1	 mov	 rax, rcx

; 654  : 		}

  00003	c3		 ret	 0
?_Myfirst@?$_Vector_alloc@U?$_Vec_base_types@Vthread@std@@V?$allocator@Vthread@std@@@2@@std@@@std@@QEAAAEAPEAVthread@2@XZ ENDP ; std::_Vector_alloc<std::_Vec_base_types<std::thread,std::allocator<std::thread> > >::_Myfirst
_TEXT	ENDS
; Function compile flags: /Ogtpy
; File c:\users\alist_000\cppmisc\packages\visualcpptools.14.0.24629\lib\native\include\vector
;	COMDAT ?_Get_data@?$_Vector_alloc@U?$_Vec_base_types@Vthread@std@@V?$allocator@Vthread@std@@@2@@std@@@std@@QEAAAEAV?$_Vector_val@U?$_Simple_types@Vthread@std@@@std@@@2@XZ
_TEXT	SEGMENT
this$ = 8
?_Get_data@?$_Vector_alloc@U?$_Vec_base_types@Vthread@std@@V?$allocator@Vthread@std@@@2@@std@@@std@@QEAAAEAV?$_Vector_val@U?$_Simple_types@Vthread@std@@@std@@@2@XZ PROC ; std::_Vector_alloc<std::_Vec_base_types<std::thread,std::allocator<std::thread> > >::_Get_data, COMDAT

; 643  : 		return (_Mypair._Get_second());

  00000	48 8b c1	 mov	 rax, rcx

; 644  : 		}

  00003	c3		 ret	 0
?_Get_data@?$_Vector_alloc@U?$_Vec_base_types@Vthread@std@@V?$allocator@Vthread@std@@@2@@std@@@std@@QEAAAEAV?$_Vector_val@U?$_Simple_types@Vthread@std@@@std@@@2@XZ ENDP ; std::_Vector_alloc<std::_Vec_base_types<std::thread,std::allocator<std::thread> > >::_Get_data
_TEXT	ENDS
; Function compile flags: /Ogtpy
; File c:\users\alist_000\cppmisc\packages\visualcpptools.14.0.24629\lib\native\include\vector
;	COMDAT ??0?$_Vector_alloc@U?$_Vec_base_types@Vthread@std@@V?$allocator@Vthread@std@@@2@@std@@@std@@QEAA@XZ
_TEXT	SEGMENT
this$ = 8
??0?$_Vector_alloc@U?$_Vec_base_types@Vthread@std@@V?$allocator@Vthread@std@@@2@@std@@@std@@QEAA@XZ PROC ; std::_Vector_alloc<std::_Vec_base_types<std::thread,std::allocator<std::thread> > >::_Vector_alloc<std::_Vec_base_types<std::thread,std::allocator<std::thread> > >, COMDAT

; 478  : 		: _Myfirst(),

  00000	33 c0		 xor	 eax, eax
  00002	48 89 01	 mov	 QWORD PTR [rcx], rax

; 479  : 		_Mylast(),

  00005	48 89 41 08	 mov	 QWORD PTR [rcx+8], rax

; 480  : 		_Myend()

  00009	48 89 41 10	 mov	 QWORD PTR [rcx+16], rax

; 511  : 		}

  0000d	48 8b c1	 mov	 rax, rcx
  00010	c3		 ret	 0
??0?$_Vector_alloc@U?$_Vec_base_types@Vthread@std@@V?$allocator@Vthread@std@@@2@@std@@@std@@QEAA@XZ ENDP ; std::_Vector_alloc<std::_Vec_base_types<std::thread,std::allocator<std::thread> > >::_Vector_alloc<std::_Vec_base_types<std::thread,std::allocator<std::thread> > >
_TEXT	ENDS
; Function compile flags: /Ogtpy
; File c:\users\alist_000\cppmisc\packages\visualcpptools.14.0.24629\lib\native\include\vector
;	COMDAT ?_Xlength@?$vector@Vthread@std@@V?$allocator@Vthread@std@@@2@@std@@CAXXZ
_TEXT	SEGMENT
?_Xlength@?$vector@Vthread@std@@V?$allocator@Vthread@std@@@2@@std@@CAXXZ PROC ; std::vector<std::thread,std::allocator<std::thread> >::_Xlength, COMDAT

; 1935 : 		{	// report a length_error

$LN4:
  00000	48 83 ec 28	 sub	 rsp, 40			; 00000028H

; 1936 : 		_Xlength_error("vector<T> too long");

  00004	48 8d 0d 00 00
	00 00		 lea	 rcx, OFFSET FLAT:??_C@_0BD@OLBABOEK@vector?$DMT?$DO?5too?5long?$AA@
  0000b	e8 00 00 00 00	 call	 ?_Xlength_error@std@@YAXPEBD@Z ; std::_Xlength_error
  00010	cc		 int	 3
$LN3@Xlength:
?_Xlength@?$vector@Vthread@std@@V?$allocator@Vthread@std@@@2@@std@@CAXXZ ENDP ; std::vector<std::thread,std::allocator<std::thread> >::_Xlength
_TEXT	ENDS
; Function compile flags: /Ogtpy
; File c:\users\alist_000\cppmisc\packages\visualcpptools.14.0.24629\lib\native\include\vector
; File c:\users\alist_000\cppmisc\packages\visualcpptools.14.0.24629\lib\native\include\xmemory0
; File c:\users\alist_000\cppmisc\packages\visualcpptools.14.0.24629\lib\native\include\thread
; File c:\users\alist_000\cppmisc\packages\visualcpptools.14.0.24629\lib\native\include\xmemory0
; File c:\users\alist_000\cppmisc\packages\visualcpptools.14.0.24629\lib\native\include\vector
; File c:\users\alist_000\cppmisc\packages\visualcpptools.14.0.24629\lib\native\include\xmemory0
; File c:\users\alist_000\cppmisc\packages\visualcpptools.14.0.24629\lib\native\include\vector
; File c:\users\alist_000\cppmisc\packages\visualcpptools.14.0.24629\lib\native\include\xmemory0
; File c:\users\alist_000\cppmisc\packages\visualcpptools.14.0.24629\lib\native\include\vector
; File c:\users\alist_000\cppmisc\packages\visualcpptools.14.0.24629\lib\native\include\xmemory0
; File c:\users\alist_000\cppmisc\packages\visualcpptools.14.0.24629\lib\native\include\thread
; File c:\users\alist_000\cppmisc\packages\visualcpptools.14.0.24629\lib\native\include\xmemory0
; File c:\users\alist_000\cppmisc\packages\visualcpptools.14.0.24629\lib\native\include\vector
;	COMDAT ?_Tidy@?$vector@Vthread@std@@V?$allocator@Vthread@std@@@2@@std@@AEAAXXZ
_TEXT	SEGMENT
this$ = 48
?_Tidy@?$vector@Vthread@std@@V?$allocator@Vthread@std@@@2@@std@@AEAAXXZ PROC ; std::vector<std::thread,std::allocator<std::thread> >::_Tidy, COMDAT

; 1920 : 		{	// free all storage

$LN159:
  00000	40 53		 push	 rbx
  00002	48 83 ec 20	 sub	 rsp, 32			; 00000020H
  00006	48 8b d9	 mov	 rbx, rcx

; 1921 : 		this->_Orphan_all();
; 1922 : 
; 1923 : 		if (this->_Myfirst() != pointer())

  00009	48 8b 09	 mov	 rcx, QWORD PTR [rcx]
  0000c	48 85 c9	 test	 rcx, rcx
  0000f	74 76		 je	 SHORT $LN2@Tidy

; 1924 : 			{	// destroy and deallocate old array
; 1925 : 			_Destroy(this->_Myfirst(), this->_Mylast());

  00011	48 8b 53 08	 mov	 rdx, QWORD PTR [rbx+8]
; File c:\users\alist_000\cppmisc\packages\visualcpptools.14.0.24629\lib\native\include\xmemory0

; 1211 : 	_Destroy_range1(_First, _Last, _Al, _Conjunction_t<

  00015	48 8b c1	 mov	 rax, rcx

; 1193 : 	for (; _First != _Last; ++_First)

  00018	48 3b ca	 cmp	 rcx, rdx
  0001b	74 12		 je	 SHORT $LN43@Tidy
  0001d	0f 1f 00	 npad	 3
$LL44@Tidy:
; File c:\users\alist_000\cppmisc\packages\visualcpptools.14.0.24629\lib\native\include\thread

; 79   : 		return (!_Thr_is_null(_Thr));

  00020	83 78 08 00	 cmp	 DWORD PTR [rax+8], 0

; 54   : 		if (joinable())

  00024	75 6d		 jne	 SHORT $LN148@Tidy
; File c:\users\alist_000\cppmisc\packages\visualcpptools.14.0.24629\lib\native\include\xmemory0

; 1193 : 	for (; _First != _Last; ++_First)

  00026	48 83 c0 10	 add	 rax, 16
  0002a	48 3b c2	 cmp	 rax, rdx
  0002d	75 f1		 jne	 SHORT $LL44@Tidy
$LN43@Tidy:
; File c:\users\alist_000\cppmisc\packages\visualcpptools.14.0.24629\lib\native\include\vector

; 1926 : 			this->_Getal().deallocate(this->_Myfirst(), this->_Myend() - this->_Myfirst());

  0002f	48 8b 43 10	 mov	 rax, QWORD PTR [rbx+16]
; File c:\users\alist_000\cppmisc\packages\visualcpptools.14.0.24629\lib\native\include\xmemory0

; 96   : 	_SCL_SECURE_ALWAYS_VALIDATE(_Count <= (size_t)(-1) / _Sz);

  00033	48 ba ff ff ff
	ff ff ff ff 0f	 mov	 rdx, 1152921504606846975 ; 0fffffffffffffffH
; File c:\users\alist_000\cppmisc\packages\visualcpptools.14.0.24629\lib\native\include\vector

; 1926 : 			this->_Getal().deallocate(this->_Myfirst(), this->_Myend() - this->_Myfirst());

  0003d	48 2b c1	 sub	 rax, rcx
  00040	48 c1 f8 04	 sar	 rax, 4
; File c:\users\alist_000\cppmisc\packages\visualcpptools.14.0.24629\lib\native\include\xmemory0

; 96   : 	_SCL_SECURE_ALWAYS_VALIDATE(_Count <= (size_t)(-1) / _Sz);

  00044	48 3b c2	 cmp	 rax, rdx
  00047	77 44		 ja	 SHORT $LN153@Tidy

; 97   : 	const size_t _User_size = _Count * _Sz;

  00049	48 c1 e0 04	 shl	 rax, 4

; 98   : 	if (_BIG_ALLOCATION_THRESHOLD <= _User_size)

  0004d	48 3d 00 10 00
	00		 cmp	 rax, 4096		; 00001000H
  00053	72 20		 jb	 SHORT $LN112@Tidy

; 101  : 		_SCL_SECURE_ALWAYS_VALIDATE(

  00055	f6 c1 1f	 test	 cl, 31
  00058	75 3f		 jne	 SHORT $LN155@Tidy

; 102  : 			(_Ptr_user & (_BIG_ALLOCATION_ALIGNMENT - 1)) == 0);
; 103  : 		const uintptr_t _Ptr_ptr = _Ptr_user - sizeof(void *);
; 104  : 		const uintptr_t _Ptr_container =
; 105  : 			*reinterpret_cast<uintptr_t *>(_Ptr_ptr);

  0005a	48 8b 41 f8	 mov	 rax, QWORD PTR [rcx-8]

; 106  : 
; 107  :  #ifdef _DEBUG
; 108  : 		// If the following asserts, it likely means that we are performing
; 109  : 		// an aligned delete on memory coming from an unaligned allocation.
; 110  : 		_SCL_SECURE_ALWAYS_VALIDATE(
; 111  : 			reinterpret_cast<uintptr_t *>(_Ptr_ptr)[-1] ==
; 112  : 				_BIG_ALLOCATION_SENTINEL);
; 113  :  #endif /* _DEBUG */
; 114  : 
; 115  : 		// Extra paranoia on aligned allocation/deallocation
; 116  : 		_SCL_SECURE_ALWAYS_VALIDATE(_Ptr_container < _Ptr_user);

  0005e	48 3b c1	 cmp	 rax, rcx
  00061	73 3c		 jae	 SHORT $LN156@Tidy

; 117  : 
; 118  :  #ifdef _DEBUG
; 119  : 		_SCL_SECURE_ALWAYS_VALIDATE(2 * sizeof(void *)
; 120  : 			<= _Ptr_user - _Ptr_container);
; 121  : 
; 122  :  #else /* _DEBUG */
; 123  : 		_SCL_SECURE_ALWAYS_VALIDATE(sizeof(void *)

  00063	48 2b c8	 sub	 rcx, rax
  00066	48 83 f9 08	 cmp	 rcx, 8
  0006a	72 39		 jb	 SHORT $LN157@Tidy

; 124  : 			<= _Ptr_user - _Ptr_container);
; 125  :  #endif /* _DEBUG */
; 126  : 
; 127  : 		_SCL_SECURE_ALWAYS_VALIDATE(_Ptr_user - _Ptr_container

  0006c	48 83 f9 27	 cmp	 rcx, 39			; 00000027H
  00070	77 39		 ja	 SHORT $LN158@Tidy

; 128  : 			<= _NON_USER_SIZE);
; 129  : 
; 130  : 		_Ptr = reinterpret_cast<void *>(_Ptr_container);

  00072	48 8b c8	 mov	 rcx, rax
$LN112@Tidy:

; 131  : 		}
; 132  :  #endif /* defined(_M_IX86) || defined(_M_X64) */
; 133  : 
; 134  : 	::operator delete(_Ptr);

  00075	e8 00 00 00 00	 call	 ??3@YAXPEAX@Z		; operator delete
; File c:\users\alist_000\cppmisc\packages\visualcpptools.14.0.24629\lib\native\include\vector

; 1928 : 			this->_Myfirst() = pointer();

  0007a	33 c0		 xor	 eax, eax
  0007c	48 89 03	 mov	 QWORD PTR [rbx], rax

; 1929 : 			this->_Mylast() = pointer();

  0007f	48 89 43 08	 mov	 QWORD PTR [rbx+8], rax

; 1930 : 			this->_Myend() = pointer();

  00083	48 89 43 10	 mov	 QWORD PTR [rbx+16], rax
$LN2@Tidy:

; 1932 : 		}

  00087	48 83 c4 20	 add	 rsp, 32			; 00000020H
  0008b	5b		 pop	 rbx
  0008c	c3		 ret	 0
$LN153@Tidy:
; File c:\users\alist_000\cppmisc\packages\visualcpptools.14.0.24629\lib\native\include\xmemory0

; 96   : 	_SCL_SECURE_ALWAYS_VALIDATE(_Count <= (size_t)(-1) / _Sz);

  0008d	e8 00 00 00 00	 call	 _invalid_parameter_noinfo_noreturn
  00092	cc		 int	 3
$LN148@Tidy:
; File c:\users\alist_000\cppmisc\packages\visualcpptools.14.0.24629\lib\native\include\thread

; 55   : 			_STD terminate();

  00093	e8 00 00 00 00	 call	 terminate
  00098	cc		 int	 3
$LN155@Tidy:
; File c:\users\alist_000\cppmisc\packages\visualcpptools.14.0.24629\lib\native\include\xmemory0

; 101  : 		_SCL_SECURE_ALWAYS_VALIDATE(

  00099	e8 00 00 00 00	 call	 _invalid_parameter_noinfo_noreturn
  0009e	cc		 int	 3
$LN156@Tidy:

; 106  : 
; 107  :  #ifdef _DEBUG
; 108  : 		// If the following asserts, it likely means that we are performing
; 109  : 		// an aligned delete on memory coming from an unaligned allocation.
; 110  : 		_SCL_SECURE_ALWAYS_VALIDATE(
; 111  : 			reinterpret_cast<uintptr_t *>(_Ptr_ptr)[-1] ==
; 112  : 				_BIG_ALLOCATION_SENTINEL);
; 113  :  #endif /* _DEBUG */
; 114  : 
; 115  : 		// Extra paranoia on aligned allocation/deallocation
; 116  : 		_SCL_SECURE_ALWAYS_VALIDATE(_Ptr_container < _Ptr_user);

  0009f	e8 00 00 00 00	 call	 _invalid_parameter_noinfo_noreturn
  000a4	cc		 int	 3
$LN157@Tidy:

; 117  : 
; 118  :  #ifdef _DEBUG
; 119  : 		_SCL_SECURE_ALWAYS_VALIDATE(2 * sizeof(void *)
; 120  : 			<= _Ptr_user - _Ptr_container);
; 121  : 
; 122  :  #else /* _DEBUG */
; 123  : 		_SCL_SECURE_ALWAYS_VALIDATE(sizeof(void *)

  000a5	e8 00 00 00 00	 call	 _invalid_parameter_noinfo_noreturn
  000aa	cc		 int	 3
$LN158@Tidy:

; 124  : 			<= _Ptr_user - _Ptr_container);
; 125  :  #endif /* _DEBUG */
; 126  : 
; 127  : 		_SCL_SECURE_ALWAYS_VALIDATE(_Ptr_user - _Ptr_container

  000ab	e8 00 00 00 00	 call	 _invalid_parameter_noinfo_noreturn
  000b0	cc		 int	 3
$LN152@Tidy:
?_Tidy@?$vector@Vthread@std@@V?$allocator@Vthread@std@@@2@@std@@AEAAXXZ ENDP ; std::vector<std::thread,std::allocator<std::thread> >::_Tidy
_TEXT	ENDS
; Function compile flags: /Ogtpy
; File c:\users\alist_000\cppmisc\packages\visualcpptools.14.0.24629\lib\native\include\vector
;	COMDAT ?capacity@?$vector@Vthread@std@@V?$allocator@Vthread@std@@@2@@std@@QEBA_KXZ
_TEXT	SEGMENT
this$ = 8
?capacity@?$vector@Vthread@std@@V?$allocator@Vthread@std@@@2@@std@@QEBA_KXZ PROC ; std::vector<std::thread,std::allocator<std::thread> >::capacity, COMDAT

; 1694 : 		return (this->_Myend() - this->_Myfirst());

  00000	48 8b 41 10	 mov	 rax, QWORD PTR [rcx+16]
  00004	48 2b 01	 sub	 rax, QWORD PTR [rcx]
  00007	48 c1 f8 04	 sar	 rax, 4

; 1695 : 		}

  0000b	c3		 ret	 0
?capacity@?$vector@Vthread@std@@V?$allocator@Vthread@std@@@2@@std@@QEBA_KXZ ENDP ; std::vector<std::thread,std::allocator<std::thread> >::capacity
_TEXT	ENDS
; Function compile flags: /Ogtpy
; File c:\users\alist_000\cppmisc\packages\visualcpptools.14.0.24629\lib\native\include\vector
;	COMDAT ?max_size@?$vector@Vthread@std@@V?$allocator@Vthread@std@@@2@@std@@QEBA_KXZ
_TEXT	SEGMENT
this$dead$ = 8
?max_size@?$vector@Vthread@std@@V?$allocator@Vthread@std@@@2@@std@@QEBA_KXZ PROC ; std::vector<std::thread,std::allocator<std::thread> >::max_size, COMDAT

; 1689 : 		return (this->_Getal().max_size());

  00000	48 b8 ff ff ff
	ff ff ff ff 0f	 mov	 rax, 1152921504606846975 ; 0fffffffffffffffH

; 1690 : 		}

  0000a	c3		 ret	 0
?max_size@?$vector@Vthread@std@@V?$allocator@Vthread@std@@@2@@std@@QEBA_KXZ ENDP ; std::vector<std::thread,std::allocator<std::thread> >::max_size
_TEXT	ENDS
; Function compile flags: /Ogtpy
; File c:\users\alist_000\cppmisc\packages\visualcpptools.14.0.24629\lib\native\include\vector
; File c:\users\alist_000\cppmisc\packages\visualcpptools.14.0.24629\lib\native\include\xmemory0
; File c:\users\alist_000\cppmisc\packages\visualcpptools.14.0.24629\lib\native\include\vector
; File c:\users\alist_000\cppmisc\packages\visualcpptools.14.0.24629\lib\native\include\xmemory0
; File c:\users\alist_000\cppmisc\packages\visualcpptools.14.0.24629\lib\native\include\xmemory
; File c:\users\alist_000\cppmisc\packages\visualcpptools.14.0.24629\lib\native\include\xmemory0
; File c:\users\alist_000\cppmisc\packages\visualcpptools.14.0.24629\lib\native\include\xmemory
; File c:\users\alist_000\cppmisc\packages\visualcpptools.14.0.24629\lib\native\include\vector
;	COMDAT ?_Reallocate_exactly@?$vector@Vthread@std@@V?$allocator@Vthread@std@@@2@@std@@AEAAX_K@Z
_TEXT	SEGMENT
this$ = 64
_Newcapacity$dead$ = 72
?_Reallocate_exactly@?$vector@Vthread@std@@V?$allocator@Vthread@std@@@2@@std@@AEAAX_K@Z PROC ; std::vector<std::thread,std::allocator<std::thread> >::_Reallocate_exactly, COMDAT

; 1485 : 		{	// set capacity to _Newcapacity (without geometric growth), provide strong guarantee

$LN98:
  00000	48 89 5c 24 08	 mov	 QWORD PTR [rsp+8], rbx
  00005	57		 push	 rdi
  00006	48 83 ec 30	 sub	 rsp, 48			; 00000030H

; 1684 : 		return (this->_Mylast() - this->_Myfirst());

  0000a	48 8b 79 08	 mov	 rdi, QWORD PTR [rcx+8]

; 1485 : 		{	// set capacity to _Newcapacity (without geometric growth), provide strong guarantee

  0000e	48 8b d9	 mov	 rbx, rcx

; 1684 : 		return (this->_Mylast() - this->_Myfirst());

  00011	48 2b 39	 sub	 rdi, QWORD PTR [rcx]
; File c:\users\alist_000\cppmisc\packages\visualcpptools.14.0.24629\lib\native\include\xmemory0

; 71   : 			reinterpret_cast<uintptr_t>(::operator new(_Block_size));

  00014	b9 a7 3e 00 00	 mov	 ecx, 16039		; 00003ea7H
; File c:\users\alist_000\cppmisc\packages\visualcpptools.14.0.24629\lib\native\include\vector

; 1684 : 		return (this->_Mylast() - this->_Myfirst());

  00019	48 c1 ff 04	 sar	 rdi, 4
; File c:\users\alist_000\cppmisc\packages\visualcpptools.14.0.24629\lib\native\include\xmemory0

; 71   : 			reinterpret_cast<uintptr_t>(::operator new(_Block_size));

  0001d	e8 00 00 00 00	 call	 ??2@YAPEAX_K@Z		; operator new

; 72   : 		_SCL_SECURE_ALWAYS_VALIDATE(_Ptr_container != 0);
; 73   : 		_Ptr = reinterpret_cast<void *>((_Ptr_container + _NON_USER_SIZE)

  00022	4c 8d 50 27	 lea	 r10, QWORD PTR [rax+39]
  00026	49 83 e2 e0	 and	 r10, -32		; ffffffffffffffe0H
; File c:\users\alist_000\cppmisc\packages\visualcpptools.14.0.24629\lib\native\include\xmemory

; 302  : 	return (_Uninitialized_move_al_unchecked1(_First, _Last, _Dest, _Al,

  0002a	4d 8b c2	 mov	 r8, r10
; File c:\users\alist_000\cppmisc\packages\visualcpptools.14.0.24629\lib\native\include\xmemory0

; 75   : 		static_cast<uintptr_t *>(_Ptr)[-1] = _Ptr_container;

  0002d	49 89 42 f8	 mov	 QWORD PTR [r10-8], rax
; File c:\users\alist_000\cppmisc\packages\visualcpptools.14.0.24629\lib\native\include\xmemory

; 302  : 	return (_Uninitialized_move_al_unchecked1(_First, _Last, _Dest, _Al,

  00031	48 8b 53 08	 mov	 rdx, QWORD PTR [rbx+8]
  00035	48 8b 0b	 mov	 rcx, QWORD PTR [rbx]
  00038	e8 00 00 00 00	 call	 ??$_Uninitialized_move_al_unchecked1@PEAVthread@std@@PEAV12@V?$allocator@Vthread@std@@@2@@std@@YAPEAVthread@0@PEAV10@00AEAU?$_Wrap_alloc@V?$allocator@Vthread@std@@@std@@@0@U_General_ptr_iterator_tag@0@U_Any_tag@0@@Z ; std::_Uninitialized_move_al_unchecked1<std::thread * __ptr64,std::thread * __ptr64,std::allocator<std::thread> >
; File c:\users\alist_000\cppmisc\packages\visualcpptools.14.0.24629\lib\native\include\vector

; 1497 : 		_Change_array(_Newvec, _Size, _Newcapacity);

  0003d	41 b9 e8 03 00
	00		 mov	 r9d, 1000		; 000003e8H
  00043	4c 8b c7	 mov	 r8, rdi
  00046	49 8b d2	 mov	 rdx, r10
  00049	48 8b cb	 mov	 rcx, rbx

; 1498 : 		}

  0004c	48 8b 5c 24 40	 mov	 rbx, QWORD PTR [rsp+64]
  00051	48 83 c4 30	 add	 rsp, 48			; 00000030H
  00055	5f		 pop	 rdi

; 1497 : 		_Change_array(_Newvec, _Size, _Newcapacity);

  00056	e9 00 00 00 00	 jmp	 ?_Change_array@?$vector@Vthread@std@@V?$allocator@Vthread@std@@@2@@std@@AEAAXQEAVthread@2@_K1@Z ; std::vector<std::thread,std::allocator<std::thread> >::_Change_array
?_Reallocate_exactly@?$vector@Vthread@std@@V?$allocator@Vthread@std@@@2@@std@@AEAAX_K@Z ENDP ; std::vector<std::thread,std::allocator<std::thread> >::_Reallocate_exactly
_TEXT	ENDS
; Function compile flags: /Ogtpy
; File c:\users\alist_000\cppmisc\packages\visualcpptools.14.0.24629\lib\native\include\xstring
;	COMDAT ??1_Bxty@?$_String_val@U?$_Simple_types@D@std@@@std@@QEAA@XZ
_TEXT	SEGMENT
this$ = 8
??1_Bxty@?$_String_val@U?$_Simple_types@D@std@@@std@@QEAA@XZ PROC ; std::_String_val<std::_Simple_types<char> >::_Bxty::~_Bxty, COMDAT

; 1649 : 			}

  00000	c2 00 00	 ret	 0
??1_Bxty@?$_String_val@U?$_Simple_types@D@std@@@std@@QEAA@XZ ENDP ; std::_String_val<std::_Simple_types<char> >::_Bxty::~_Bxty
_TEXT	ENDS
; Function compile flags: /Ogtpy
; File c:\users\alist_000\cppmisc\packages\visualcpptools.14.0.24629\lib\native\include\xmemory0
;	COMDAT ?select_on_container_copy_construction@?$_Wrap_alloc@V?$allocator@D@std@@@std@@QEBA?AU12@U_Nil@2@@Z
_TEXT	SEGMENT
this$ = 8
__$ReturnUdt$ = 16
__formal$ = 24
?select_on_container_copy_construction@?$_Wrap_alloc@V?$allocator@D@std@@@std@@QEBA?AU12@U_Nil@2@@Z PROC ; std::_Wrap_alloc<std::allocator<char> >::select_on_container_copy_construction, COMDAT

; 1007 : 		return (_Mytraits::select_on_container_copy_construction(*this));

  00000	48 8b c2	 mov	 rax, rdx

; 1008 : 		}

  00003	c3		 ret	 0
?select_on_container_copy_construction@?$_Wrap_alloc@V?$allocator@D@std@@@std@@QEBA?AU12@U_Nil@2@@Z ENDP ; std::_Wrap_alloc<std::allocator<char> >::select_on_container_copy_construction
_TEXT	ENDS
; Function compile flags: /Ogtpy
; File c:\users\alist_000\cppmisc\packages\visualcpptools.14.0.24629\lib\native\include\xstring
;	COMDAT ?_Mysize@?$_String_alloc@U?$_String_base_types@DV?$allocator@D@std@@@std@@@std@@QEBAAEB_KXZ
_TEXT	SEGMENT
this$ = 8
?_Mysize@?$_String_alloc@U?$_String_base_types@DV?$allocator@D@std@@@std@@@std@@QEBAAEB_KXZ PROC ; std::_String_alloc<std::_String_base_types<char,std::allocator<char> > >::_Mysize, COMDAT

; 1854 : 		return (_Get_data()._Mysize);

  00000	48 8d 41 10	 lea	 rax, QWORD PTR [rcx+16]

; 1855 : 		}

  00004	c3		 ret	 0
?_Mysize@?$_String_alloc@U?$_String_base_types@DV?$allocator@D@std@@@std@@@std@@QEBAAEB_KXZ ENDP ; std::_String_alloc<std::_String_base_types<char,std::allocator<char> > >::_Mysize
_TEXT	ENDS
; Function compile flags: /Ogtpy
; File c:\users\alist_000\cppmisc\packages\visualcpptools.14.0.24629\lib\native\include\xstring
;	COMDAT ?_Getal@?$_String_alloc@U?$_String_base_types@DV?$allocator@D@std@@@std@@@std@@QEBAAEBU?$_Wrap_alloc@V?$allocator@D@std@@@2@XZ
_TEXT	SEGMENT
this$ = 8
?_Getal@?$_String_alloc@U?$_String_base_types@DV?$allocator@D@std@@@std@@@std@@QEBAAEBU?$_Wrap_alloc@V?$allocator@D@std@@@2@XZ PROC ; std::_String_alloc<std::_String_base_types<char,std::allocator<char> > >::_Getal, COMDAT

; 1832 : 		return (_Mypair._Get_first());

  00000	48 8b c1	 mov	 rax, rcx

; 1833 : 		}

  00003	c3		 ret	 0
?_Getal@?$_String_alloc@U?$_String_base_types@DV?$allocator@D@std@@@std@@@std@@QEBAAEBU?$_Wrap_alloc@V?$allocator@D@std@@@2@XZ ENDP ; std::_String_alloc<std::_String_base_types<char,std::allocator<char> > >::_Getal
_TEXT	ENDS
; Function compile flags: /Ogtpy
; File c:\users\alist_000\cppmisc\packages\visualcpptools.14.0.24629\lib\native\include\xstring
;	COMDAT ?_Getal@?$_String_alloc@U?$_String_base_types@DV?$allocator@D@std@@@std@@@std@@QEAAAEAU?$_Wrap_alloc@V?$allocator@D@std@@@2@XZ
_TEXT	SEGMENT
this$ = 8
?_Getal@?$_String_alloc@U?$_String_base_types@DV?$allocator@D@std@@@std@@@std@@QEAAAEAU?$_Wrap_alloc@V?$allocator@D@std@@@2@XZ PROC ; std::_String_alloc<std::_String_base_types<char,std::allocator<char> > >::_Getal, COMDAT

; 1827 : 		return (_Mypair._Get_first());

  00000	48 8b c1	 mov	 rax, rcx

; 1828 : 		}

  00003	c3		 ret	 0
?_Getal@?$_String_alloc@U?$_String_base_types@DV?$allocator@D@std@@@std@@@std@@QEAAAEAU?$_Wrap_alloc@V?$allocator@D@std@@@2@XZ ENDP ; std::_String_alloc<std::_String_base_types<char,std::allocator<char> > >::_Getal
_TEXT	ENDS
; Function compile flags: /Ogtpy
; File c:\users\alist_000\cppmisc\packages\visualcpptools.14.0.24629\lib\native\include\xstring
;	COMDAT ??0?$_String_alloc@U?$_String_base_types@DV?$allocator@D@std@@@std@@@std@@QEAA@XZ
_TEXT	SEGMENT
this$ = 8
??0?$_String_alloc@U?$_String_base_types@DV?$allocator@D@std@@@std@@@std@@QEAA@XZ PROC ; std::_String_alloc<std::_String_base_types<char,std::allocator<char> > >::_String_alloc<std::_String_base_types<char,std::allocator<char> > >, COMDAT

; 1606 : 		_Mysize(0),

  00000	33 c0		 xor	 eax, eax
  00002	48 89 41 10	 mov	 QWORD PTR [rcx+16], rax

; 1607 : 		_Myres(0)

  00006	48 89 41 18	 mov	 QWORD PTR [rcx+24], rax

; 1705 : 		}

  0000a	48 8b c1	 mov	 rax, rcx
  0000d	c3		 ret	 0
??0?$_String_alloc@U?$_String_base_types@DV?$allocator@D@std@@@std@@@std@@QEAA@XZ ENDP ; std::_String_alloc<std::_String_base_types<char,std::allocator<char> > >::_String_alloc<std::_String_base_types<char,std::allocator<char> > >
_TEXT	ENDS
; Function compile flags: /Ogtpy
; File c:\users\alist_000\cppmisc\packages\visualcpptools.14.0.24629\lib\native\include\xstring
;	COMDAT ?_Myptr@?$_String_alloc@U?$_String_base_types@DV?$allocator@D@std@@@std@@@std@@QEBAPEBDXZ
_TEXT	SEGMENT
this$ = 8
?_Myptr@?$_String_alloc@U?$_String_base_types@DV?$allocator@D@std@@@std@@@std@@QEBAPEBDXZ PROC ; std::_String_alloc<std::_String_base_types<char,std::allocator<char> > >::_Myptr, COMDAT

; 1638 : 		return (this->_BUF_SIZE <= _Myres);

  00000	48 83 79 18 10	 cmp	 QWORD PTR [rcx+24], 16

; 1631 : 		return (_Large_string_engaged()

  00005	72 04		 jb	 SHORT $LN11@Myptr

; 1698 : 		return (_Get_data()._Myptr());

  00007	48 8b 01	 mov	 rax, QWORD PTR [rcx]

; 1699 : 		}

  0000a	c3		 ret	 0
$LN11@Myptr:

; 1698 : 		return (_Get_data()._Myptr());

  0000b	48 8b c1	 mov	 rax, rcx

; 1699 : 		}

  0000e	c3		 ret	 0
?_Myptr@?$_String_alloc@U?$_String_base_types@DV?$allocator@D@std@@@std@@@std@@QEBAPEBDXZ ENDP ; std::_String_alloc<std::_String_base_types<char,std::allocator<char> > >::_Myptr
_TEXT	ENDS
; Function compile flags: /Ogtpy
; File c:\users\alist_000\cppmisc\packages\visualcpptools.14.0.24629\lib\native\include\xstring
;	COMDAT ?_Myptr@?$_String_alloc@U?$_String_base_types@DV?$allocator@D@std@@@std@@@std@@QEAAPEADXZ
_TEXT	SEGMENT
this$ = 8
?_Myptr@?$_String_alloc@U?$_String_base_types@DV?$allocator@D@std@@@std@@@std@@QEAAPEADXZ PROC ; std::_String_alloc<std::_String_base_types<char,std::allocator<char> > >::_Myptr, COMDAT

; 1638 : 		return (this->_BUF_SIZE <= _Myres);

  00000	48 83 79 18 10	 cmp	 QWORD PTR [rcx+24], 16

; 1624 : 		return (_Large_string_engaged()

  00005	72 04		 jb	 SHORT $LN11@Myptr

; 1693 : 		return (_Get_data()._Myptr());

  00007	48 8b 01	 mov	 rax, QWORD PTR [rcx]

; 1694 : 		}

  0000a	c3		 ret	 0
$LN11@Myptr:

; 1693 : 		return (_Get_data()._Myptr());

  0000b	48 8b c1	 mov	 rax, rcx

; 1694 : 		}

  0000e	c3		 ret	 0
?_Myptr@?$_String_alloc@U?$_String_base_types@DV?$allocator@D@std@@@std@@@std@@QEAAPEADXZ ENDP ; std::_String_alloc<std::_String_base_types<char,std::allocator<char> > >::_Myptr
_TEXT	ENDS
; Function compile flags: /Ogtpy
; File c:\users\alist_000\cppmisc\packages\visualcpptools.14.0.24629\lib\native\include\xstring
; File c:\users\alist_000\cppmisc\packages\visualcpptools.14.0.24629\lib\native\include\xmemory0
; File c:\users\alist_000\cppmisc\packages\visualcpptools.14.0.24629\lib\native\include\xstring
; File c:\users\alist_000\cppmisc\packages\visualcpptools.14.0.24629\lib\native\include\xmemory0
; File c:\users\alist_000\cppmisc\packages\visualcpptools.14.0.24629\lib\native\include\xstring
; File c:\users\alist_000\cppmisc\packages\visualcpptools.14.0.24629\lib\native\include\xmemory0
; File c:\users\alist_000\cppmisc\packages\visualcpptools.14.0.24629\lib\native\include\xstring
; File c:\users\alist_000\cppmisc\packages\visualcpptools.14.0.24629\lib\native\include\xmemory0
; File c:\users\alist_000\cppmisc\packages\visualcpptools.14.0.24629\lib\native\include\xstring
;	COMDAT ?_Tidy_deallocate_only@?$basic_string@DU?$char_traits@D@std@@V?$allocator@D@2@@std@@QEAAXXZ
_TEXT	SEGMENT
this$ = 48
?_Tidy_deallocate_only@?$basic_string@DU?$char_traits@D@std@@V?$allocator@D@2@@std@@QEAAXXZ PROC ; std::basic_string<char,std::char_traits<char>,std::allocator<char> >::_Tidy_deallocate_only, COMDAT

; 3547 : 		{	// deallocate storage only

$LN42:
  00000	48 83 ec 28	 sub	 rsp, 40			; 00000028H

; 1638 : 		return (this->_BUF_SIZE <= _Myres);

  00004	48 8b 41 18	 mov	 rax, QWORD PTR [rcx+24]
  00008	48 83 f8 10	 cmp	 rax, 16

; 3548 : 		auto& _My_data = this->_Get_data();
; 3549 : 		if (_My_data._Large_string_engaged())

  0000c	72 37		 jb	 SHORT $LN32@Tidy_deall
; File c:\users\alist_000\cppmisc\packages\visualcpptools.14.0.24629\lib\native\include\xmemory0

; 816  : 		_Deallocate(_Ptr, _Count, sizeof (_Ty));

  0000e	48 8b 09	 mov	 rcx, QWORD PTR [rcx]
; File c:\users\alist_000\cppmisc\packages\visualcpptools.14.0.24629\lib\native\include\xstring

; 3554 : 			_Al.deallocate(_Ptr, _My_data._Myres + 1);

  00011	48 ff c0	 inc	 rax
; File c:\users\alist_000\cppmisc\packages\visualcpptools.14.0.24629\lib\native\include\xmemory0

; 98   : 	if (_BIG_ALLOCATION_THRESHOLD <= _User_size)

  00014	48 3d 00 10 00
	00		 cmp	 rax, 4096		; 00001000H
  0001a	72 20		 jb	 SHORT $LN27@Tidy_deall

; 101  : 		_SCL_SECURE_ALWAYS_VALIDATE(

  0001c	f6 c1 1f	 test	 cl, 31
  0001f	75 29		 jne	 SHORT $LN37@Tidy_deall

; 102  : 			(_Ptr_user & (_BIG_ALLOCATION_ALIGNMENT - 1)) == 0);
; 103  : 		const uintptr_t _Ptr_ptr = _Ptr_user - sizeof(void *);
; 104  : 		const uintptr_t _Ptr_container =
; 105  : 			*reinterpret_cast<uintptr_t *>(_Ptr_ptr);

  00021	48 8b 41 f8	 mov	 rax, QWORD PTR [rcx-8]

; 106  : 
; 107  :  #ifdef _DEBUG
; 108  : 		// If the following asserts, it likely means that we are performing
; 109  : 		// an aligned delete on memory coming from an unaligned allocation.
; 110  : 		_SCL_SECURE_ALWAYS_VALIDATE(
; 111  : 			reinterpret_cast<uintptr_t *>(_Ptr_ptr)[-1] ==
; 112  : 				_BIG_ALLOCATION_SENTINEL);
; 113  :  #endif /* _DEBUG */
; 114  : 
; 115  : 		// Extra paranoia on aligned allocation/deallocation
; 116  : 		_SCL_SECURE_ALWAYS_VALIDATE(_Ptr_container < _Ptr_user);

  00025	48 3b c1	 cmp	 rax, rcx
  00028	73 26		 jae	 SHORT $LN39@Tidy_deall

; 117  : 
; 118  :  #ifdef _DEBUG
; 119  : 		_SCL_SECURE_ALWAYS_VALIDATE(2 * sizeof(void *)
; 120  : 			<= _Ptr_user - _Ptr_container);
; 121  : 
; 122  :  #else /* _DEBUG */
; 123  : 		_SCL_SECURE_ALWAYS_VALIDATE(sizeof(void *)

  0002a	48 2b c8	 sub	 rcx, rax
  0002d	48 83 f9 08	 cmp	 rcx, 8
  00031	72 23		 jb	 SHORT $LN40@Tidy_deall

; 124  : 			<= _Ptr_user - _Ptr_container);
; 125  :  #endif /* _DEBUG */
; 126  : 
; 127  : 		_SCL_SECURE_ALWAYS_VALIDATE(_Ptr_user - _Ptr_container

  00033	48 83 f9 27	 cmp	 rcx, 39			; 00000027H
  00037	77 23		 ja	 SHORT $LN41@Tidy_deall

; 128  : 			<= _NON_USER_SIZE);
; 129  : 
; 130  : 		_Ptr = reinterpret_cast<void *>(_Ptr_container);

  00039	48 8b c8	 mov	 rcx, rax
$LN27@Tidy_deall:
; File c:\users\alist_000\cppmisc\packages\visualcpptools.14.0.24629\lib\native\include\xstring

; 3556 : 		}

  0003c	48 83 c4 28	 add	 rsp, 40			; 00000028H
; File c:\users\alist_000\cppmisc\packages\visualcpptools.14.0.24629\lib\native\include\xmemory0

; 134  : 	::operator delete(_Ptr);

  00040	e9 00 00 00 00	 jmp	 ??3@YAXPEAX@Z		; operator delete
$LN32@Tidy_deall:
; File c:\users\alist_000\cppmisc\packages\visualcpptools.14.0.24629\lib\native\include\xstring

; 3556 : 		}

  00045	48 83 c4 28	 add	 rsp, 40			; 00000028H
  00049	c3		 ret	 0
$LN37@Tidy_deall:
; File c:\users\alist_000\cppmisc\packages\visualcpptools.14.0.24629\lib\native\include\xmemory0

; 101  : 		_SCL_SECURE_ALWAYS_VALIDATE(

  0004a	e8 00 00 00 00	 call	 _invalid_parameter_noinfo_noreturn
  0004f	cc		 int	 3
$LN39@Tidy_deall:

; 106  : 
; 107  :  #ifdef _DEBUG
; 108  : 		// If the following asserts, it likely means that we are performing
; 109  : 		// an aligned delete on memory coming from an unaligned allocation.
; 110  : 		_SCL_SECURE_ALWAYS_VALIDATE(
; 111  : 			reinterpret_cast<uintptr_t *>(_Ptr_ptr)[-1] ==
; 112  : 				_BIG_ALLOCATION_SENTINEL);
; 113  :  #endif /* _DEBUG */
; 114  : 
; 115  : 		// Extra paranoia on aligned allocation/deallocation
; 116  : 		_SCL_SECURE_ALWAYS_VALIDATE(_Ptr_container < _Ptr_user);

  00050	e8 00 00 00 00	 call	 _invalid_parameter_noinfo_noreturn
  00055	cc		 int	 3
$LN40@Tidy_deall:

; 117  : 
; 118  :  #ifdef _DEBUG
; 119  : 		_SCL_SECURE_ALWAYS_VALIDATE(2 * sizeof(void *)
; 120  : 			<= _Ptr_user - _Ptr_container);
; 121  : 
; 122  :  #else /* _DEBUG */
; 123  : 		_SCL_SECURE_ALWAYS_VALIDATE(sizeof(void *)

  00056	e8 00 00 00 00	 call	 _invalid_parameter_noinfo_noreturn
  0005b	cc		 int	 3
$LN41@Tidy_deall:

; 124  : 			<= _Ptr_user - _Ptr_container);
; 125  :  #endif /* _DEBUG */
; 126  : 
; 127  : 		_SCL_SECURE_ALWAYS_VALIDATE(_Ptr_user - _Ptr_container

  0005c	e8 00 00 00 00	 call	 _invalid_parameter_noinfo_noreturn
  00061	cc		 int	 3
$LN36@Tidy_deall:
?_Tidy_deallocate_only@?$basic_string@DU?$char_traits@D@std@@V?$allocator@D@2@@std@@QEAAXXZ ENDP ; std::basic_string<char,std::char_traits<char>,std::allocator<char> >::_Tidy_deallocate_only
_TEXT	ENDS
; Function compile flags: /Ogtpy
; File c:\users\alist_000\cppmisc\packages\visualcpptools.14.0.24629\lib\native\include\xstring
; File c:\users\alist_000\cppmisc\packages\visualcpptools.14.0.24629\lib\native\include\iosfwd
; File c:\users\alist_000\cppmisc\packages\visualcpptools.14.0.24629\lib\native\include\xstring
;	COMDAT ?_Tidy_init@?$basic_string@DU?$char_traits@D@std@@V?$allocator@D@2@@std@@QEAAXXZ
_TEXT	SEGMENT
this$ = 8
?_Tidy_init@?$basic_string@DU?$char_traits@D@std@@V?$allocator@D@2@@std@@QEAAXXZ PROC ; std::basic_string<char,std::char_traits<char>,std::allocator<char> >::_Tidy_init, COMDAT

; 3538 : 		auto& _My_data = this->_Get_data();
; 3539 : 		_My_data._Mysize = 0;

  00000	48 c7 41 10 00
	00 00 00	 mov	 QWORD PTR [rcx+16], 0

; 3540 : 		_My_data._Myres = this->_BUF_SIZE - 1;

  00008	48 c7 41 18 0f
	00 00 00	 mov	 QWORD PTR [rcx+24], 15
; File c:\users\alist_000\cppmisc\packages\visualcpptools.14.0.24629\lib\native\include\iosfwd

; 516  : 		_Left = _Right;

  00010	c6 01 00	 mov	 BYTE PTR [rcx], 0
; File c:\users\alist_000\cppmisc\packages\visualcpptools.14.0.24629\lib\native\include\xstring

; 3544 : 		}

  00013	c3		 ret	 0
?_Tidy_init@?$basic_string@DU?$char_traits@D@std@@V?$allocator@D@2@@std@@QEAAXXZ ENDP ; std::basic_string<char,std::char_traits<char>,std::allocator<char> >::_Tidy_init
_TEXT	ENDS
; Function compile flags: /Ogtpy
; File c:\users\alist_000\cppmisc\packages\visualcpptools.14.0.24629\lib\native\include\xstring
; File c:\users\alist_000\cppmisc\packages\visualcpptools.14.0.24629\lib\native\include\iosfwd
; File c:\users\alist_000\cppmisc\packages\visualcpptools.14.0.24629\lib\native\include\xstring
;	COMDAT ?assign@?$basic_string@DU?$char_traits@D@std@@V?$allocator@D@2@@std@@QEAAAEAV12@QEBD@Z
_TEXT	SEGMENT
this$ = 8
_Ptr$ = 16
?assign@?$basic_string@DU?$char_traits@D@std@@V?$allocator@D@2@@std@@QEAAAEAV12@QEBD@Z PROC ; std::basic_string<char,std::char_traits<char>,std::allocator<char> >::assign, COMDAT
; File c:\users\alist_000\cppmisc\packages\visualcpptools.14.0.24629\lib\native\include\iosfwd

; 479  : 		return (_CSTD strlen(_First));

  00000	49 83 c8 ff	 or	 r8, -1
$LL6@assign:
  00004	49 ff c0	 inc	 r8
  00007	42 80 3c 02 00	 cmp	 BYTE PTR [rdx+r8], 0
  0000c	75 f6		 jne	 SHORT $LL6@assign
; File c:\users\alist_000\cppmisc\packages\visualcpptools.14.0.24629\lib\native\include\xstring

; 2377 : 		return (assign(_Ptr, _Traits::length(_Ptr)));

  0000e	e9 00 00 00 00	 jmp	 ?assign@?$basic_string@DU?$char_traits@D@std@@V?$allocator@D@2@@std@@QEAAAEAV12@QEBD_K@Z ; std::basic_string<char,std::char_traits<char>,std::allocator<char> >::assign
?assign@?$basic_string@DU?$char_traits@D@std@@V?$allocator@D@2@@std@@QEAAAEAV12@QEBD@Z ENDP ; std::basic_string<char,std::char_traits<char>,std::allocator<char> >::assign
_TEXT	ENDS
; Function compile flags: /Ogtpy
; File c:\users\alist_000\cppmisc\packages\visualcpptools.14.0.24629\lib\native\include\xstring
; File c:\users\alist_000\cppmisc\packages\visualcpptools.14.0.24629\lib\native\include\xstddef
; File c:\users\alist_000\cppmisc\packages\visualcpptools.14.0.24629\lib\native\include\xstring
; File c:\users\alist_000\cppmisc\packages\visualcpptools.14.0.24629\lib\native\include\xstddef
; File c:\users\alist_000\cppmisc\packages\visualcpptools.14.0.24629\lib\native\include\xstring
; File c:\users\alist_000\cppmisc\packages\visualcpptools.14.0.24629\lib\native\include\xstddef
; File c:\users\alist_000\cppmisc\packages\visualcpptools.14.0.24629\lib\native\include\iosfwd
; File c:\users\alist_000\cppmisc\packages\visualcpptools.14.0.24629\lib\native\include\xstring
; File c:\users\alist_000\cppmisc\packages\visualcpptools.14.0.24629\lib\native\include\iosfwd
; File c:\users\alist_000\cppmisc\packages\visualcpptools.14.0.24629\lib\native\include\xstring
; File c:\users\alist_000\cppmisc\packages\visualcpptools.14.0.24629\lib\native\include\xstddef
; File c:\users\alist_000\cppmisc\packages\visualcpptools.14.0.24629\lib\native\include\xstring
; File c:\users\alist_000\cppmisc\packages\visualcpptools.14.0.24629\lib\native\include\iosfwd
; File c:\users\alist_000\cppmisc\packages\visualcpptools.14.0.24629\lib\native\include\xstring
; File c:\users\alist_000\cppmisc\packages\visualcpptools.14.0.24629\lib\native\include\xstddef
; File c:\users\alist_000\cppmisc\packages\visualcpptools.14.0.24629\lib\native\include\xstring
; File c:\users\alist_000\cppmisc\packages\visualcpptools.14.0.24629\lib\native\include\iosfwd
; File c:\users\alist_000\cppmisc\packages\visualcpptools.14.0.24629\lib\native\include\xstring
;	COMDAT ?append@?$basic_string@DU?$char_traits@D@std@@V?$allocator@D@2@@std@@QEAAAEAV12@QEBD_K@Z
_TEXT	SEGMENT
this$ = 48
_Ptr$ = 56
_Count$ = 64
?append@?$basic_string@DU?$char_traits@D@std@@V?$allocator@D@2@@std@@QEAAAEAV12@QEBD_K@Z PROC ; std::basic_string<char,std::char_traits<char>,std::allocator<char> >::append, COMDAT

; 2263 : 		{	// append [_Ptr, _Ptr + _Count)

$LN142:
  00000	48 89 5c 24 10	 mov	 QWORD PTR [rsp+16], rbx
  00005	48 89 6c 24 18	 mov	 QWORD PTR [rsp+24], rbp
  0000a	56		 push	 rsi
  0000b	48 83 ec 20	 sub	 rsp, 32			; 00000020H
  0000f	48 8b f2	 mov	 rsi, rdx
  00012	49 8b e8	 mov	 rbp, r8

; 1638 : 		return (this->_BUF_SIZE <= _Myres);

  00015	48 8b 51 18	 mov	 rdx, QWORD PTR [rcx+24]

; 2263 : 		{	// append [_Ptr, _Ptr + _Count)

  00019	48 8b d9	 mov	 rbx, rcx

; 1638 : 		return (this->_BUF_SIZE <= _Myres);

  0001c	48 83 fa 10	 cmp	 rdx, 16

; 1631 : 		return (_Large_string_engaged()

  00020	72 03		 jb	 SHORT $LN19@append
; File c:\users\alist_000\cppmisc\packages\visualcpptools.14.0.24629\lib\native\include\xstddef

; 642  : 	return (_Ptr);

  00022	48 8b 09	 mov	 rcx, QWORD PTR [rcx]
$LN19@append:
; File c:\users\alist_000\cppmisc\packages\visualcpptools.14.0.24629\lib\native\include\xstring

; 3533 : 		return (_My_chars <= _Ptr && _Ptr < _My_chars + _My_data._Mysize);

  00025	48 3b ce	 cmp	 rcx, rsi
  00028	77 3a		 ja	 SHORT $LN2@append
  0002a	48 03 4b 10	 add	 rcx, QWORD PTR [rbx+16]
  0002e	48 3b f1	 cmp	 rsi, rcx
  00031	73 31		 jae	 SHORT $LN2@append

; 1638 : 		return (this->_BUF_SIZE <= _Myres);

  00033	48 83 fa 10	 cmp	 rdx, 16

; 1624 : 		return (_Large_string_engaged()

  00037	72 05		 jb	 SHORT $LN34@append
; File c:\users\alist_000\cppmisc\packages\visualcpptools.14.0.24629\lib\native\include\xstddef

; 642  : 	return (_Ptr);

  00039	48 8b 03	 mov	 rax, QWORD PTR [rbx]
; File c:\users\alist_000\cppmisc\packages\visualcpptools.14.0.24629\lib\native\include\xstring

; 1624 : 		return (_Large_string_engaged()

  0003c	eb 03		 jmp	 SHORT $LN35@append
$LN34@append:
  0003e	48 8b c3	 mov	 rax, rbx
$LN35@append:

; 2264 : 		if (_Inside(_Ptr))
; 2265 : 			{
; 2266 : 			return (append(*this,

  00041	48 2b f0	 sub	 rsi, rax
  00044	4c 8b cd	 mov	 r9, rbp
  00047	4c 8b c6	 mov	 r8, rsi
  0004a	48 8b d3	 mov	 rdx, rbx
  0004d	48 8b cb	 mov	 rcx, rbx

; 2281 : 		}

  00050	48 8b 5c 24 38	 mov	 rbx, QWORD PTR [rsp+56]
  00055	48 8b 6c 24 40	 mov	 rbp, QWORD PTR [rsp+64]
  0005a	48 83 c4 20	 add	 rsp, 32			; 00000020H
  0005e	5e		 pop	 rsi

; 2264 : 		if (_Inside(_Ptr))
; 2265 : 			{
; 2266 : 			return (append(*this,

  0005f	e9 00 00 00 00	 jmp	 ?append@?$basic_string@DU?$char_traits@D@std@@V?$allocator@D@2@@std@@QEAAAEAV12@AEBV12@_K_K@Z ; std::basic_string<char,std::char_traits<char>,std::allocator<char> >::append
$LN2@append:

; 2267 : 				_Ptr - this->_Myptr(), _Count));	// substring
; 2268 : 			}
; 2269 : 		if (npos - this->_Mysize() <= _Count)

  00064	48 8b 4b 10	 mov	 rcx, QWORD PTR [rbx+16]
  00068	48 8b c1	 mov	 rax, rcx
  0006b	48 f7 d0	 not	 rax
  0006e	48 3b c5	 cmp	 rax, rbp
  00071	0f 86 8a 00 00
	00		 jbe	 $LN140@append

; 2272 : 			}
; 2273 : 
; 2274 : 		const size_type _Num = this->_Mysize() + _Count;

  00077	48 89 7c 24 30	 mov	 QWORD PTR [rsp+48], rdi
  0007c	4a 8d 3c 01	 lea	 rdi, QWORD PTR [rcx+r8]

; 2275 : 		if (_Count != 0 && _Grow(_Num))

  00080	48 85 ed	 test	 rbp, rbp
  00083	74 64		 je	 SHORT $LN135@append

; 3515 : 		if (_Newsize == 0)

  00085	48 85 ff	 test	 rdi, rdi
  00088	75 1a		 jne	 SHORT $LN59@append

; 3510 : 		_Traits::assign(_My_data._Myptr()[_My_data._Mysize = _Newsize], _Elem());

  0008a	48 89 7b 10	 mov	 QWORD PTR [rbx+16], rdi

; 1638 : 		return (this->_BUF_SIZE <= _Myres);

  0008e	48 83 fa 10	 cmp	 rdx, 16

; 1624 : 		return (_Large_string_engaged()

  00092	72 08		 jb	 SHORT $LN72@append
; File c:\users\alist_000\cppmisc\packages\visualcpptools.14.0.24629\lib\native\include\xstddef

; 642  : 	return (_Ptr);

  00094	48 8b 03	 mov	 rax, QWORD PTR [rbx]
; File c:\users\alist_000\cppmisc\packages\visualcpptools.14.0.24629\lib\native\include\iosfwd

; 516  : 		_Left = _Right;

  00097	40 88 38	 mov	 BYTE PTR [rax], dil
; File c:\users\alist_000\cppmisc\packages\visualcpptools.14.0.24629\lib\native\include\xstring

; 3518 : 			return (false);

  0009a	eb 4d		 jmp	 SHORT $LN135@append
$LN72@append:

; 1624 : 		return (_Large_string_engaged()

  0009c	48 8b c3	 mov	 rax, rbx
; File c:\users\alist_000\cppmisc\packages\visualcpptools.14.0.24629\lib\native\include\iosfwd

; 516  : 		_Left = _Right;

  0009f	c6 03 00	 mov	 BYTE PTR [rbx], 0
; File c:\users\alist_000\cppmisc\packages\visualcpptools.14.0.24629\lib\native\include\xstring

; 3518 : 			return (false);

  000a2	eb 45		 jmp	 SHORT $LN135@append
$LN59@append:

; 3519 : 			}
; 3520 : 
; 3521 : 		if (this->_Myres() < _Newsize)

  000a4	48 3b d7	 cmp	 rdx, rdi
  000a7	73 0b		 jae	 SHORT $LN60@append

; 3522 : 			{	// reallocate to grow
; 3523 : 			_Copy(_Newsize);

  000a9	48 8b d7	 mov	 rdx, rdi
  000ac	48 8b cb	 mov	 rcx, rbx
  000af	e8 00 00 00 00	 call	 ?_Copy@?$basic_string@DU?$char_traits@D@std@@V?$allocator@D@2@@std@@QEAAX_K@Z ; std::basic_string<char,std::char_traits<char>,std::allocator<char> >::_Copy
$LN60@append:

; 1638 : 		return (this->_BUF_SIZE <= _Myres);

  000b4	48 83 7b 18 10	 cmp	 QWORD PTR [rbx+24], 16

; 1624 : 		return (_Large_string_engaged()

  000b9	72 05		 jb	 SHORT $LN100@append
; File c:\users\alist_000\cppmisc\packages\visualcpptools.14.0.24629\lib\native\include\xstddef

; 642  : 	return (_Ptr);

  000bb	48 8b 0b	 mov	 rcx, QWORD PTR [rbx]
; File c:\users\alist_000\cppmisc\packages\visualcpptools.14.0.24629\lib\native\include\xstring

; 1624 : 		return (_Large_string_engaged()

  000be	eb 03		 jmp	 SHORT $LN101@append
$LN100@append:
  000c0	48 8b cb	 mov	 rcx, rbx
$LN101@append:

; 2276 : 			{	// make room and append new stuff
; 2277 : 			_Traits::copy(this->_Myptr() + this->_Mysize(), _Ptr, _Count);

  000c3	48 03 4b 10	 add	 rcx, QWORD PTR [rbx+16]
; File c:\users\alist_000\cppmisc\packages\visualcpptools.14.0.24629\lib\native\include\iosfwd

; 485  : 		return ((_Elem *)_CSTD memcpy(_First1, _First2, _Count));

  000c7	4c 8b c5	 mov	 r8, rbp
  000ca	48 8b d6	 mov	 rdx, rsi
  000cd	e8 00 00 00 00	 call	 memcpy
; File c:\users\alist_000\cppmisc\packages\visualcpptools.14.0.24629\lib\native\include\xstring

; 1638 : 		return (this->_BUF_SIZE <= _Myres);

  000d2	48 83 7b 18 10	 cmp	 QWORD PTR [rbx+24], 16

; 3510 : 		_Traits::assign(_My_data._Myptr()[_My_data._Mysize = _Newsize], _Elem());

  000d7	48 89 7b 10	 mov	 QWORD PTR [rbx+16], rdi

; 1624 : 		return (_Large_string_engaged()

  000db	72 05		 jb	 SHORT $LN128@append
; File c:\users\alist_000\cppmisc\packages\visualcpptools.14.0.24629\lib\native\include\xstddef

; 642  : 	return (_Ptr);

  000dd	48 8b 03	 mov	 rax, QWORD PTR [rbx]
; File c:\users\alist_000\cppmisc\packages\visualcpptools.14.0.24629\lib\native\include\xstring

; 1624 : 		return (_Large_string_engaged()

  000e0	eb 03		 jmp	 SHORT $LN129@append
$LN128@append:
  000e2	48 8b c3	 mov	 rax, rbx
$LN129@append:
; File c:\users\alist_000\cppmisc\packages\visualcpptools.14.0.24629\lib\native\include\iosfwd

; 516  : 		_Left = _Right;

  000e5	c6 04 38 00	 mov	 BYTE PTR [rax+rdi], 0
$LN135@append:
  000e9	48 8b 7c 24 30	 mov	 rdi, QWORD PTR [rsp+48]
; File c:\users\alist_000\cppmisc\packages\visualcpptools.14.0.24629\lib\native\include\xstring

; 2280 : 		return (*this);

  000ee	48 8b c3	 mov	 rax, rbx

; 2281 : 		}

  000f1	48 8b 5c 24 38	 mov	 rbx, QWORD PTR [rsp+56]
  000f6	48 8b 6c 24 40	 mov	 rbp, QWORD PTR [rsp+64]
  000fb	48 83 c4 20	 add	 rsp, 32			; 00000020H
  000ff	5e		 pop	 rsi
  00100	c3		 ret	 0
$LN140@append:

; 2270 : 			{
; 2271 : 			_Xlen();	// result too long

  00101	e8 00 00 00 00	 call	 ?_Xlen@?$basic_string@DU?$char_traits@D@std@@V?$allocator@D@2@@std@@SAXXZ ; std::basic_string<char,std::char_traits<char>,std::allocator<char> >::_Xlen
  00106	cc		 int	 3
$LN139@append:
?append@?$basic_string@DU?$char_traits@D@std@@V?$allocator@D@2@@std@@QEAAAEAV12@QEBD_K@Z ENDP ; std::basic_string<char,std::char_traits<char>,std::allocator<char> >::append
_TEXT	ENDS
; Function compile flags: /Ogtpy
; File c:\users\alist_000\cppmisc\packages\visualcpptools.14.0.24629\lib\native\include\xstring
; File c:\users\alist_000\cppmisc\packages\visualcpptools.14.0.24629\lib\native\include\utility
; File c:\users\alist_000\cppmisc\packages\visualcpptools.14.0.24629\lib\native\include\xstring
; File c:\users\alist_000\cppmisc\packages\visualcpptools.14.0.24629\lib\native\include\xstddef
; File c:\users\alist_000\cppmisc\packages\visualcpptools.14.0.24629\lib\native\include\iosfwd
; File c:\users\alist_000\cppmisc\packages\visualcpptools.14.0.24629\lib\native\include\xstring
; File c:\users\alist_000\cppmisc\packages\visualcpptools.14.0.24629\lib\native\include\iosfwd
; File c:\users\alist_000\cppmisc\packages\visualcpptools.14.0.24629\lib\native\include\xstring
; File c:\users\alist_000\cppmisc\packages\visualcpptools.14.0.24629\lib\native\include\xstddef
; File c:\users\alist_000\cppmisc\packages\visualcpptools.14.0.24629\lib\native\include\xstring
; File c:\users\alist_000\cppmisc\packages\visualcpptools.14.0.24629\lib\native\include\xstddef
; File c:\users\alist_000\cppmisc\packages\visualcpptools.14.0.24629\lib\native\include\xstring
; File c:\users\alist_000\cppmisc\packages\visualcpptools.14.0.24629\lib\native\include\iosfwd
; File c:\users\alist_000\cppmisc\packages\visualcpptools.14.0.24629\lib\native\include\xstring
; File c:\users\alist_000\cppmisc\packages\visualcpptools.14.0.24629\lib\native\include\xstddef
; File c:\users\alist_000\cppmisc\packages\visualcpptools.14.0.24629\lib\native\include\xstring
; File c:\users\alist_000\cppmisc\packages\visualcpptools.14.0.24629\lib\native\include\iosfwd
; File c:\users\alist_000\cppmisc\packages\visualcpptools.14.0.24629\lib\native\include\xstring
;	COMDAT ?append@?$basic_string@DU?$char_traits@D@std@@V?$allocator@D@2@@std@@QEAAAEAV12@AEBV12@_K_K@Z
_TEXT	SEGMENT
this$ = 48
_Right$ = 56
_Roff$ = 64
_Count$ = 72
?append@?$basic_string@DU?$char_traits@D@std@@V?$allocator@D@2@@std@@QEAAAEAV12@AEBV12@_K_K@Z PROC ; std::basic_string<char,std::char_traits<char>,std::allocator<char> >::append, COMDAT

; 2230 : 		{	// append _Right [_Roff, _Roff + _Count)

$LN151:
  00000	48 89 5c 24 10	 mov	 QWORD PTR [rsp+16], rbx
  00005	48 89 6c 24 18	 mov	 QWORD PTR [rsp+24], rbp
  0000a	48 89 74 24 20	 mov	 QWORD PTR [rsp+32], rsi
  0000f	41 56		 push	 r14
  00011	48 83 ec 20	 sub	 rsp, 32			; 00000020H

; 3572 : 		if (this->_Mysize() < _Off)

  00015	48 8b 42 10	 mov	 rax, QWORD PTR [rdx+16]

; 2230 : 		{	// append _Right [_Roff, _Roff + _Count)

  00019	49 8b f1	 mov	 rsi, r9
  0001c	49 8b e8	 mov	 rbp, r8
  0001f	4c 8b f2	 mov	 r14, rdx
  00022	48 8b d9	 mov	 rbx, rcx

; 3572 : 		if (this->_Mysize() < _Off)

  00025	49 3b c0	 cmp	 rax, r8
  00028	0f 82 ba 00 00
	00		 jb	 $LN148@append

; 2233 : 		if (npos - this->_Mysize() <= _Count)

  0002e	48 8b 49 10	 mov	 rcx, QWORD PTR [rcx+16]

; 3353 : 		return (_Min_value(_Size, this->_Mysize() - _Off));

  00032	49 2b c0	 sub	 rax, r8
; File c:\users\alist_000\cppmisc\packages\visualcpptools.14.0.24629\lib\native\include\utility

; 24   : 	return (_Right < _Left ? _Right : _Left);

  00035	49 3b c1	 cmp	 rax, r9
  00038	48 0f 42 f0	 cmovb	 rsi, rax
; File c:\users\alist_000\cppmisc\packages\visualcpptools.14.0.24629\lib\native\include\xstring

; 2233 : 		if (npos - this->_Mysize() <= _Count)

  0003c	48 8b c1	 mov	 rax, rcx
  0003f	48 f7 d0	 not	 rax
  00042	48 3b c6	 cmp	 rax, rsi
  00045	0f 86 a3 00 00
	00		 jbe	 $LN150@append

; 2236 : 			}
; 2237 : 
; 2238 : 		const size_type _Num = this->_Mysize() + _Count;

  0004b	48 89 7c 24 30	 mov	 QWORD PTR [rsp+48], rdi
  00050	48 8d 3c 31	 lea	 rdi, QWORD PTR [rcx+rsi]

; 2239 : 		if (_Count != 0 && _Grow(_Num))

  00054	48 85 f6	 test	 rsi, rsi
  00057	74 71		 je	 SHORT $LN144@append

; 3515 : 		if (_Newsize == 0)

  00059	48 85 ff	 test	 rdi, rdi
  0005c	75 1b		 jne	 SHORT $LN52@append

; 3510 : 		_Traits::assign(_My_data._Myptr()[_My_data._Mysize = _Newsize], _Elem());

  0005e	48 89 7b 10	 mov	 QWORD PTR [rbx+16], rdi

; 1638 : 		return (this->_BUF_SIZE <= _Myres);

  00062	48 83 7b 18 10	 cmp	 QWORD PTR [rbx+24], 16

; 1624 : 		return (_Large_string_engaged()

  00067	72 08		 jb	 SHORT $LN65@append
; File c:\users\alist_000\cppmisc\packages\visualcpptools.14.0.24629\lib\native\include\xstddef

; 642  : 	return (_Ptr);

  00069	48 8b 03	 mov	 rax, QWORD PTR [rbx]
; File c:\users\alist_000\cppmisc\packages\visualcpptools.14.0.24629\lib\native\include\iosfwd

; 516  : 		_Left = _Right;

  0006c	40 88 38	 mov	 BYTE PTR [rax], dil
; File c:\users\alist_000\cppmisc\packages\visualcpptools.14.0.24629\lib\native\include\xstring

; 3518 : 			return (false);

  0006f	eb 59		 jmp	 SHORT $LN144@append
$LN65@append:

; 1624 : 		return (_Large_string_engaged()

  00071	48 8b c3	 mov	 rax, rbx
; File c:\users\alist_000\cppmisc\packages\visualcpptools.14.0.24629\lib\native\include\iosfwd

; 516  : 		_Left = _Right;

  00074	c6 03 00	 mov	 BYTE PTR [rbx], 0
; File c:\users\alist_000\cppmisc\packages\visualcpptools.14.0.24629\lib\native\include\xstring

; 3518 : 			return (false);

  00077	eb 51		 jmp	 SHORT $LN144@append
$LN52@append:

; 3519 : 			}
; 3520 : 
; 3521 : 		if (this->_Myres() < _Newsize)

  00079	48 39 7b 18	 cmp	 QWORD PTR [rbx+24], rdi
  0007d	73 0b		 jae	 SHORT $LN53@append

; 3522 : 			{	// reallocate to grow
; 3523 : 			_Copy(_Newsize);

  0007f	48 8b d7	 mov	 rdx, rdi
  00082	48 8b cb	 mov	 rcx, rbx
  00085	e8 00 00 00 00	 call	 ?_Copy@?$basic_string@DU?$char_traits@D@std@@V?$allocator@D@2@@std@@QEAAX_K@Z ; std::basic_string<char,std::char_traits<char>,std::allocator<char> >::_Copy
$LN53@append:

; 1638 : 		return (this->_BUF_SIZE <= _Myres);

  0008a	49 83 7e 18 10	 cmp	 QWORD PTR [r14+24], 16

; 1631 : 		return (_Large_string_engaged()

  0008f	72 03		 jb	 SHORT $LN93@append
; File c:\users\alist_000\cppmisc\packages\visualcpptools.14.0.24629\lib\native\include\xstddef

; 642  : 	return (_Ptr);

  00091	4d 8b 36	 mov	 r14, QWORD PTR [r14]
$LN93@append:
; File c:\users\alist_000\cppmisc\packages\visualcpptools.14.0.24629\lib\native\include\xstring

; 1638 : 		return (this->_BUF_SIZE <= _Myres);

  00094	48 83 7b 18 10	 cmp	 QWORD PTR [rbx+24], 16

; 1624 : 		return (_Large_string_engaged()

  00099	72 05		 jb	 SHORT $LN109@append
; File c:\users\alist_000\cppmisc\packages\visualcpptools.14.0.24629\lib\native\include\xstddef

; 642  : 	return (_Ptr);

  0009b	48 8b 0b	 mov	 rcx, QWORD PTR [rbx]
; File c:\users\alist_000\cppmisc\packages\visualcpptools.14.0.24629\lib\native\include\xstring

; 1624 : 		return (_Large_string_engaged()

  0009e	eb 03		 jmp	 SHORT $LN110@append
$LN109@append:
  000a0	48 8b cb	 mov	 rcx, rbx
$LN110@append:

; 2240 : 			{	// make room and append new stuff
; 2241 : 			_Traits::copy(this->_Myptr() + this->_Mysize(), _Right._Myptr() + _Roff, _Count);

  000a3	48 03 4b 10	 add	 rcx, QWORD PTR [rbx+16]
  000a7	49 8d 14 2e	 lea	 rdx, QWORD PTR [r14+rbp]
; File c:\users\alist_000\cppmisc\packages\visualcpptools.14.0.24629\lib\native\include\iosfwd

; 485  : 		return ((_Elem *)_CSTD memcpy(_First1, _First2, _Count));

  000ab	4c 8b c6	 mov	 r8, rsi
  000ae	e8 00 00 00 00	 call	 memcpy
; File c:\users\alist_000\cppmisc\packages\visualcpptools.14.0.24629\lib\native\include\xstring

; 1638 : 		return (this->_BUF_SIZE <= _Myres);

  000b3	48 83 7b 18 10	 cmp	 QWORD PTR [rbx+24], 16

; 3510 : 		_Traits::assign(_My_data._Myptr()[_My_data._Mysize = _Newsize], _Elem());

  000b8	48 89 7b 10	 mov	 QWORD PTR [rbx+16], rdi

; 1624 : 		return (_Large_string_engaged()

  000bc	72 05		 jb	 SHORT $LN137@append
; File c:\users\alist_000\cppmisc\packages\visualcpptools.14.0.24629\lib\native\include\xstddef

; 642  : 	return (_Ptr);

  000be	48 8b 03	 mov	 rax, QWORD PTR [rbx]
; File c:\users\alist_000\cppmisc\packages\visualcpptools.14.0.24629\lib\native\include\xstring

; 1624 : 		return (_Large_string_engaged()

  000c1	eb 03		 jmp	 SHORT $LN138@append
$LN137@append:
  000c3	48 8b c3	 mov	 rax, rbx
$LN138@append:
; File c:\users\alist_000\cppmisc\packages\visualcpptools.14.0.24629\lib\native\include\iosfwd

; 516  : 		_Left = _Right;

  000c6	c6 04 38 00	 mov	 BYTE PTR [rax+rdi], 0
$LN144@append:
  000ca	48 8b 7c 24 30	 mov	 rdi, QWORD PTR [rsp+48]
; File c:\users\alist_000\cppmisc\packages\visualcpptools.14.0.24629\lib\native\include\xstring

; 2244 : 		return (*this);

  000cf	48 8b c3	 mov	 rax, rbx

; 2245 : 		}

  000d2	48 8b 5c 24 38	 mov	 rbx, QWORD PTR [rsp+56]
  000d7	48 8b 6c 24 40	 mov	 rbp, QWORD PTR [rsp+64]
  000dc	48 8b 74 24 48	 mov	 rsi, QWORD PTR [rsp+72]
  000e1	48 83 c4 20	 add	 rsp, 32			; 00000020H
  000e5	41 5e		 pop	 r14
  000e7	c3		 ret	 0
$LN148@append:

; 3573 : 			_Xran();

  000e8	e8 00 00 00 00	 call	 ?_Xran@?$basic_string@DU?$char_traits@D@std@@V?$allocator@D@2@@std@@SAXXZ ; std::basic_string<char,std::char_traits<char>,std::allocator<char> >::_Xran
  000ed	cc		 int	 3
$LN150@append:

; 2234 : 			{
; 2235 : 			_Xlen();	// result too long

  000ee	e8 00 00 00 00	 call	 ?_Xlen@?$basic_string@DU?$char_traits@D@std@@V?$allocator@D@2@@std@@SAXXZ ; std::basic_string<char,std::char_traits<char>,std::allocator<char> >::_Xlen
  000f3	cc		 int	 3
$LN147@append:
?append@?$basic_string@DU?$char_traits@D@std@@V?$allocator@D@2@@std@@QEAAAEAV12@AEBV12@_K_K@Z ENDP ; std::basic_string<char,std::char_traits<char>,std::allocator<char> >::append
_TEXT	ENDS
; Function compile flags: /Ogtpy
; File c:\users\alist_000\cppmisc\packages\visualcpptools.14.0.24629\lib\native\include\xstring
;	COMDAT ?_Assign_lv_contents@?$basic_string@DU?$char_traits@D@std@@V?$allocator@D@2@@std@@QEAAXAEBV12@@Z
_TEXT	SEGMENT
this$ = 8
_Right$ = 16
?_Assign_lv_contents@?$basic_string@DU?$char_traits@D@std@@V?$allocator@D@2@@std@@QEAAXAEBV12@@Z PROC ; std::basic_string<char,std::char_traits<char>,std::allocator<char> >::_Assign_lv_contents, COMDAT

; 2116 : 			// pre: *this is in a valid but unspecified state
; 2117 : 		assign(_Right, 0, npos);

  00000	49 83 c9 ff	 or	 r9, -1
  00004	45 33 c0	 xor	 r8d, r8d
  00007	e9 00 00 00 00	 jmp	 ?assign@?$basic_string@DU?$char_traits@D@std@@V?$allocator@D@2@@std@@QEAAAEAV12@AEBV12@_K_K@Z ; std::basic_string<char,std::char_traits<char>,std::allocator<char> >::assign
?_Assign_lv_contents@?$basic_string@DU?$char_traits@D@std@@V?$allocator@D@2@@std@@QEAAXAEBV12@@Z ENDP ; std::basic_string<char,std::char_traits<char>,std::allocator<char> >::_Assign_lv_contents
_TEXT	ENDS
; Function compile flags: /Ogtpy
; File c:\users\alist_000\cppmisc\packages\visualcpptools.14.0.24629\lib\native\include\xstring
; File c:\users\alist_000\cppmisc\packages\visualcpptools.14.0.24629\lib\native\include\xmemory0
; File c:\users\alist_000\cppmisc\packages\visualcpptools.14.0.24629\lib\native\include\xstring
; File c:\users\alist_000\cppmisc\packages\visualcpptools.14.0.24629\lib\native\include\iosfwd
; File c:\users\alist_000\cppmisc\packages\visualcpptools.14.0.24629\lib\native\include\xstring
; File c:\users\alist_000\cppmisc\packages\visualcpptools.14.0.24629\lib\native\include\iosfwd
; File c:\users\alist_000\cppmisc\packages\visualcpptools.14.0.24629\lib\native\include\xstring
;	COMDAT ?_Assign_rv_contents@?$basic_string@DU?$char_traits@D@std@@V?$allocator@D@2@@std@@QEAAX$$QEAV12@@Z
_TEXT	SEGMENT
this$ = 48
_Right$ = 56
?_Assign_rv_contents@?$basic_string@DU?$char_traits@D@std@@V?$allocator@D@2@@std@@QEAAX$$QEAV12@@Z PROC ; std::basic_string<char,std::char_traits<char>,std::allocator<char> >::_Assign_rv_contents, COMDAT

; 2096 : 		{	// assign by stealing _Right's buffer

$LN62:
  00000	48 89 5c 24 08	 mov	 QWORD PTR [rsp+8], rbx
  00005	57		 push	 rdi
  00006	48 83 ec 20	 sub	 rsp, 32			; 00000020H

; 1638 : 		return (this->_BUF_SIZE <= _Myres);

  0000a	48 83 7a 18 10	 cmp	 QWORD PTR [rdx+24], 16

; 2096 : 		{	// assign by stealing _Right's buffer

  0000f	48 8b da	 mov	 rbx, rdx
  00012	48 8b f9	 mov	 rdi, rcx

; 2097 : 			// pre: allocators between *this and _Right are compatible
; 2098 : 		auto& _My_data = this->_Get_data();
; 2099 : 		auto& _Right_data = _Right._Get_data();
; 2100 : 		if (_Right_data._Large_string_engaged())

  00015	72 14		 jb	 SHORT $LN2@Assign_rv_
; File c:\users\alist_000\cppmisc\packages\visualcpptools.14.0.24629\lib\native\include\xmemory0

; 833  : 		::new ((void *)_Ptr) _Objty(_STD forward<_Types>(_Args)...);

  00017	48 85 c9	 test	 rcx, rcx
  0001a	74 06		 je	 SHORT $LN40@Assign_rv_
  0001c	48 8b 02	 mov	 rax, QWORD PTR [rdx]
  0001f	48 89 01	 mov	 QWORD PTR [rcx], rax
$LN40@Assign_rv_:
; File c:\users\alist_000\cppmisc\packages\visualcpptools.14.0.24629\lib\native\include\xstring

; 2103 : 			_Right_data._Bx._Ptr = pointer();

  00022	48 c7 02 00 00
	00 00		 mov	 QWORD PTR [rdx], 0

; 2104 : 			}
; 2105 : 		else

  00029	eb 0c		 jmp	 SHORT $LN48@Assign_rv_
$LN2@Assign_rv_:

; 2106 : 			{	// copy small string buffer
; 2107 : 			_Traits::copy(_My_data._Bx._Buf, _Right_data._Bx._Buf, _Right_data._Mysize + 1);

  0002b	4c 8b 42 10	 mov	 r8, QWORD PTR [rdx+16]
  0002f	49 ff c0	 inc	 r8
; File c:\users\alist_000\cppmisc\packages\visualcpptools.14.0.24629\lib\native\include\iosfwd

; 485  : 		return ((_Elem *)_CSTD memcpy(_First1, _First2, _Count));

  00032	e8 00 00 00 00	 call	 memcpy
$LN48@Assign_rv_:
; File c:\users\alist_000\cppmisc\packages\visualcpptools.14.0.24629\lib\native\include\xstring

; 2109 : 		_My_data._Mysize = _Right_data._Mysize;

  00037	48 8b 43 10	 mov	 rax, QWORD PTR [rbx+16]
  0003b	48 89 47 10	 mov	 QWORD PTR [rdi+16], rax

; 2110 : 		_My_data._Myres = _Right_data._Myres;

  0003f	48 8b 43 18	 mov	 rax, QWORD PTR [rbx+24]
  00043	48 89 47 18	 mov	 QWORD PTR [rdi+24], rax

; 3539 : 		_My_data._Mysize = 0;

  00047	48 c7 43 10 00
	00 00 00	 mov	 QWORD PTR [rbx+16], 0

; 3540 : 		_My_data._Myres = this->_BUF_SIZE - 1;

  0004f	48 c7 43 18 0f
	00 00 00	 mov	 QWORD PTR [rbx+24], 15
; File c:\users\alist_000\cppmisc\packages\visualcpptools.14.0.24629\lib\native\include\iosfwd

; 516  : 		_Left = _Right;

  00057	c6 03 00	 mov	 BYTE PTR [rbx], 0
; File c:\users\alist_000\cppmisc\packages\visualcpptools.14.0.24629\lib\native\include\xstring

; 2112 : 		}

  0005a	48 8b 5c 24 30	 mov	 rbx, QWORD PTR [rsp+48]
  0005f	48 83 c4 20	 add	 rsp, 32			; 00000020H
  00063	5f		 pop	 rdi
  00064	c3		 ret	 0
?_Assign_rv_contents@?$basic_string@DU?$char_traits@D@std@@V?$allocator@D@2@@std@@QEAAX$$QEAV12@@Z ENDP ; std::basic_string<char,std::char_traits<char>,std::allocator<char> >::_Assign_rv_contents
_TEXT	ENDS
; Function compile flags: /Ogtpy
; File c:\users\alist_000\cppmisc\packages\visualcpptools.14.0.24629\lib\native\include\xutility
;	COMDAT ?_Get_second@?$_Compressed_pair@U?$_Wrap_alloc@V?$allocator@Vthread@std@@@std@@@std@@V?$_Vector_val@U?$_Simple_types@Vthread@std@@@std@@@2@$00@std@@QEAAAEAV?$_Vector_val@U?$_Simple_types@Vthread@std@@@std@@@2@XZ
_TEXT	SEGMENT
this$ = 8
?_Get_second@?$_Compressed_pair@U?$_Wrap_alloc@V?$allocator@Vthread@std@@@std@@@std@@V?$_Vector_val@U?$_Simple_types@Vthread@std@@@std@@@2@$00@std@@QEAAAEAV?$_Vector_val@U?$_Simple_types@Vthread@std@@@std@@@2@XZ PROC ; std::_Compressed_pair<std::_Wrap_alloc<std::allocator<std::thread> >,std::_Vector_val<std::_Simple_types<std::thread> >,1>::_Get_second, COMDAT

; 329  : 		return (_Myval2);

  00000	48 8b c1	 mov	 rax, rcx

; 330  : 		}

  00003	c3		 ret	 0
?_Get_second@?$_Compressed_pair@U?$_Wrap_alloc@V?$allocator@Vthread@std@@@std@@@std@@V?$_Vector_val@U?$_Simple_types@Vthread@std@@@std@@@2@$00@std@@QEAAAEAV?$_Vector_val@U?$_Simple_types@Vthread@std@@@std@@@2@XZ ENDP ; std::_Compressed_pair<std::_Wrap_alloc<std::allocator<std::thread> >,std::_Vector_val<std::_Simple_types<std::thread> >,1>::_Get_second
_TEXT	ENDS
; Function compile flags: /Ogtpy
; File c:\users\alist_000\cppmisc\packages\visualcpptools.14.0.24629\lib\native\include\vector
;	COMDAT ?_Compat@?$_Vector_const_iterator@V?$_Vector_val@U?$_Simple_types@Vthread@std@@@std@@@std@@@std@@QEBAXAEBV12@@Z
_TEXT	SEGMENT
this$dead$ = 8
__formal$dead$ = 16
?_Compat@?$_Vector_const_iterator@V?$_Vector_val@U?$_Simple_types@Vthread@std@@@std@@@std@@@std@@QEBAXAEBV12@@Z PROC ; std::_Vector_const_iterator<std::_Vector_val<std::_Simple_types<std::thread> > >::_Compat, COMDAT

; 255  : 		}

  00000	c2 00 00	 ret	 0
?_Compat@?$_Vector_const_iterator@V?$_Vector_val@U?$_Simple_types@Vthread@std@@@std@@@std@@@std@@QEBAXAEBV12@@Z ENDP ; std::_Vector_const_iterator<std::_Vector_val<std::_Simple_types<std::thread> > >::_Compat
_TEXT	ENDS
; Function compile flags: /Ogtpy
; File c:\users\alist_000\cppmisc\packages\visualcpptools.14.0.24629\lib\native\include\vector
;	COMDAT ??0?$_Vector_const_iterator@V?$_Vector_val@U?$_Simple_types@Vthread@std@@@std@@@std@@@std@@QEAA@PEAVthread@1@PEBU_Container_base0@1@@Z
_TEXT	SEGMENT
this$ = 8
_Parg$ = 16
_Pvector$dead$ = 24
??0?$_Vector_const_iterator@V?$_Vector_val@U?$_Simple_types@Vthread@std@@@std@@@std@@@std@@QEAA@PEAVthread@1@PEBU_Container_base0@1@@Z PROC ; std::_Vector_const_iterator<std::_Vector_val<std::_Simple_types<std::thread> > >::_Vector_const_iterator<std::_Vector_val<std::_Simple_types<std::thread> > >, COMDAT

; 44   : 		: _Ptr(_Parg)

  00000	48 89 11	 mov	 QWORD PTR [rcx], rdx

; 46   : 		this->_Adopt(_Pvector);
; 47   : 		}

  00003	48 8b c1	 mov	 rax, rcx
  00006	c3		 ret	 0
??0?$_Vector_const_iterator@V?$_Vector_val@U?$_Simple_types@Vthread@std@@@std@@@std@@@std@@QEAA@PEAVthread@1@PEBU_Container_base0@1@@Z ENDP ; std::_Vector_const_iterator<std::_Vector_val<std::_Simple_types<std::thread> > >::_Vector_const_iterator<std::_Vector_val<std::_Simple_types<std::thread> > >
_TEXT	ENDS
; Function compile flags: /Ogtpy
; File c:\users\alist_000\cppmisc\packages\visualcpptools.14.0.24629\lib\native\include\xmemory0
;	COMDAT ?max_size@?$_Wrap_alloc@V?$allocator@Vthread@std@@@std@@@std@@QEBA_KU_Nil@2@@Z
_TEXT	SEGMENT
this$dead$ = 8
__formal$dead$ = 16
?max_size@?$_Wrap_alloc@V?$allocator@Vthread@std@@@std@@@std@@QEBA_KU_Nil@2@@Z PROC ; std::_Wrap_alloc<std::allocator<std::thread> >::max_size, COMDAT

; 1101 : 		return (_Mytraits::max_size(*this));

  00000	48 b8 ff ff ff
	ff ff ff ff 0f	 mov	 rax, 1152921504606846975 ; 0fffffffffffffffH

; 1102 : 		}

  0000a	c3		 ret	 0
?max_size@?$_Wrap_alloc@V?$allocator@Vthread@std@@@std@@@std@@QEBA_KU_Nil@2@@Z ENDP ; std::_Wrap_alloc<std::allocator<std::thread> >::max_size
_TEXT	ENDS
; Function compile flags: /Ogtpy
; File c:\users\alist_000\cppmisc\packages\visualcpptools.14.0.24629\lib\native\include\xmemory0
;	COMDAT ?deallocate@?$_Wrap_alloc@V?$allocator@Vthread@std@@@std@@@std@@QEAAXPEAVthread@2@_K@Z
_TEXT	SEGMENT
this$dead$ = 48
_Ptr$ = 56
_Count$ = 64
?deallocate@?$_Wrap_alloc@V?$allocator@Vthread@std@@@std@@@std@@QEAAXPEAVthread@2@_K@Z PROC ; std::_Wrap_alloc<std::allocator<std::thread> >::deallocate, COMDAT

; 1080 : 		{	// deallocate object at _Ptr, ignore size

$LN22:
  00000	48 83 ec 28	 sub	 rsp, 40			; 00000028H

; 96   : 	_SCL_SECURE_ALWAYS_VALIDATE(_Count <= (size_t)(-1) / _Sz);

  00004	48 b8 ff ff ff
	ff ff ff ff 0f	 mov	 rax, 1152921504606846975 ; 0fffffffffffffffH
  0000e	4c 3b c0	 cmp	 r8, rax
  00011	77 39		 ja	 SHORT $LN16@deallocate

; 97   : 	const size_t _User_size = _Count * _Sz;

  00013	49 c1 e0 04	 shl	 r8, 4

; 98   : 	if (_BIG_ALLOCATION_THRESHOLD <= _User_size)

  00017	49 81 f8 00 10
	00 00		 cmp	 r8, 4096		; 00001000H
  0001e	72 20		 jb	 SHORT $LN7@deallocate

; 99   : 		{	// deallocate large block
; 100  : 		const uintptr_t _Ptr_user = reinterpret_cast<uintptr_t>(_Ptr);
; 101  : 		_SCL_SECURE_ALWAYS_VALIDATE(

  00020	f6 c2 1f	 test	 dl, 31
  00023	75 2d		 jne	 SHORT $LN18@deallocate

; 102  : 			(_Ptr_user & (_BIG_ALLOCATION_ALIGNMENT - 1)) == 0);
; 103  : 		const uintptr_t _Ptr_ptr = _Ptr_user - sizeof(void *);
; 104  : 		const uintptr_t _Ptr_container =
; 105  : 			*reinterpret_cast<uintptr_t *>(_Ptr_ptr);

  00025	48 8b 42 f8	 mov	 rax, QWORD PTR [rdx-8]

; 106  : 
; 107  :  #ifdef _DEBUG
; 108  : 		// If the following asserts, it likely means that we are performing
; 109  : 		// an aligned delete on memory coming from an unaligned allocation.
; 110  : 		_SCL_SECURE_ALWAYS_VALIDATE(
; 111  : 			reinterpret_cast<uintptr_t *>(_Ptr_ptr)[-1] ==
; 112  : 				_BIG_ALLOCATION_SENTINEL);
; 113  :  #endif /* _DEBUG */
; 114  : 
; 115  : 		// Extra paranoia on aligned allocation/deallocation
; 116  : 		_SCL_SECURE_ALWAYS_VALIDATE(_Ptr_container < _Ptr_user);

  00029	48 3b c2	 cmp	 rax, rdx
  0002c	73 2a		 jae	 SHORT $LN19@deallocate

; 117  : 
; 118  :  #ifdef _DEBUG
; 119  : 		_SCL_SECURE_ALWAYS_VALIDATE(2 * sizeof(void *)
; 120  : 			<= _Ptr_user - _Ptr_container);
; 121  : 
; 122  :  #else /* _DEBUG */
; 123  : 		_SCL_SECURE_ALWAYS_VALIDATE(sizeof(void *)

  0002e	48 2b d0	 sub	 rdx, rax
  00031	48 83 fa 08	 cmp	 rdx, 8
  00035	72 27		 jb	 SHORT $LN20@deallocate

; 124  : 			<= _Ptr_user - _Ptr_container);
; 125  :  #endif /* _DEBUG */
; 126  : 
; 127  : 		_SCL_SECURE_ALWAYS_VALIDATE(_Ptr_user - _Ptr_container

  00037	48 83 fa 27	 cmp	 rdx, 39			; 00000027H
  0003b	77 27		 ja	 SHORT $LN21@deallocate

; 128  : 			<= _NON_USER_SIZE);
; 129  : 
; 130  : 		_Ptr = reinterpret_cast<void *>(_Ptr_container);

  0003d	48 8b d0	 mov	 rdx, rax
$LN7@deallocate:

; 131  : 		}
; 132  :  #endif /* defined(_M_IX86) || defined(_M_X64) */
; 133  : 
; 134  : 	::operator delete(_Ptr);

  00040	48 8b ca	 mov	 rcx, rdx

; 1081 : 		_Mybase::deallocate(_Ptr, _Count);
; 1082 : 		}

  00043	48 83 c4 28	 add	 rsp, 40			; 00000028H

; 134  : 	::operator delete(_Ptr);

  00047	e9 00 00 00 00	 jmp	 ??3@YAXPEAX@Z		; operator delete
$LN16@deallocate:

; 96   : 	_SCL_SECURE_ALWAYS_VALIDATE(_Count <= (size_t)(-1) / _Sz);

  0004c	e8 00 00 00 00	 call	 _invalid_parameter_noinfo_noreturn
  00051	cc		 int	 3
$LN18@deallocate:

; 99   : 		{	// deallocate large block
; 100  : 		const uintptr_t _Ptr_user = reinterpret_cast<uintptr_t>(_Ptr);
; 101  : 		_SCL_SECURE_ALWAYS_VALIDATE(

  00052	e8 00 00 00 00	 call	 _invalid_parameter_noinfo_noreturn
  00057	cc		 int	 3
$LN19@deallocate:

; 106  : 
; 107  :  #ifdef _DEBUG
; 108  : 		// If the following asserts, it likely means that we are performing
; 109  : 		// an aligned delete on memory coming from an unaligned allocation.
; 110  : 		_SCL_SECURE_ALWAYS_VALIDATE(
; 111  : 			reinterpret_cast<uintptr_t *>(_Ptr_ptr)[-1] ==
; 112  : 				_BIG_ALLOCATION_SENTINEL);
; 113  :  #endif /* _DEBUG */
; 114  : 
; 115  : 		// Extra paranoia on aligned allocation/deallocation
; 116  : 		_SCL_SECURE_ALWAYS_VALIDATE(_Ptr_container < _Ptr_user);

  00058	e8 00 00 00 00	 call	 _invalid_parameter_noinfo_noreturn
  0005d	cc		 int	 3
$LN20@deallocate:

; 117  : 
; 118  :  #ifdef _DEBUG
; 119  : 		_SCL_SECURE_ALWAYS_VALIDATE(2 * sizeof(void *)
; 120  : 			<= _Ptr_user - _Ptr_container);
; 121  : 
; 122  :  #else /* _DEBUG */
; 123  : 		_SCL_SECURE_ALWAYS_VALIDATE(sizeof(void *)

  0005e	e8 00 00 00 00	 call	 _invalid_parameter_noinfo_noreturn
  00063	cc		 int	 3
$LN21@deallocate:

; 124  : 			<= _Ptr_user - _Ptr_container);
; 125  :  #endif /* _DEBUG */
; 126  : 
; 127  : 		_SCL_SECURE_ALWAYS_VALIDATE(_Ptr_user - _Ptr_container

  00064	e8 00 00 00 00	 call	 _invalid_parameter_noinfo_noreturn
  00069	cc		 int	 3
$LN15@deallocate:
?deallocate@?$_Wrap_alloc@V?$allocator@Vthread@std@@@std@@@std@@QEAAXPEAVthread@2@_K@Z ENDP ; std::_Wrap_alloc<std::allocator<std::thread> >::deallocate
_TEXT	ENDS
; Function compile flags: /Ogtpy
; File c:\users\alist_000\cppmisc\packages\visualcpptools.14.0.24629\lib\native\include\xmemory0
;	COMDAT ?allocate@?$_Wrap_alloc@V?$allocator@Vthread@std@@@std@@@std@@QEAAPEAVthread@2@_K@Z
_TEXT	SEGMENT
this$dead$ = 48
_Count$ = 56
?allocate@?$_Wrap_alloc@V?$allocator@Vthread@std@@@std@@@std@@QEAAPEAVthread@2@_K@Z PROC ; std::_Wrap_alloc<std::allocator<std::thread> >::allocate, COMDAT

; 1069 : 		{	// allocate array of _Count elements

$LN20:
  00000	48 83 ec 28	 sub	 rsp, 40			; 00000028H

; 53   : 	if (_Count == 0)

  00004	48 85 d2	 test	 rdx, rdx
  00007	75 09		 jne	 SHORT $LN6@allocate

; 54   : 		return (_Ptr);

  00009	33 c9		 xor	 ecx, ecx

; 1070 : 		return (_Mybase::allocate(_Count));

  0000b	8b c1		 mov	 eax, ecx

; 1071 : 		}

  0000d	48 83 c4 28	 add	 rsp, 40			; 00000028H
  00011	c3		 ret	 0
$LN6@allocate:

; 57   : 	if ((size_t)(-1) / _Sz < _Count)

  00012	48 b8 ff ff ff
	ff ff ff ff 0f	 mov	 rax, 1152921504606846975 ; 0fffffffffffffffH
  0001c	48 3b d0	 cmp	 rdx, rax
  0001f	77 3f		 ja	 SHORT $LN17@allocate

; 59   : 	const size_t _User_size = _Count * _Sz;

  00021	48 c1 e2 04	 shl	 rdx, 4

; 60   : 
; 61   :  #if defined(_M_IX86) || defined(_M_X64)
; 62   : 	if (_Try_aligned_allocation
; 63   : 		&& _BIG_ALLOCATION_THRESHOLD <= _User_size)

  00025	48 81 fa 00 10
	00 00		 cmp	 rdx, 4096		; 00001000H
  0002c	72 22		 jb	 SHORT $LN8@allocate

; 64   : 		{	// allocate large block
; 65   : 		static_assert(sizeof (void *) < _BIG_ALLOCATION_ALIGNMENT,
; 66   : 			"Big allocations should at least match vector register size");
; 67   : 		const size_t _Block_size = _NON_USER_SIZE + _User_size;

  0002e	48 8d 4a 27	 lea	 rcx, QWORD PTR [rdx+39]

; 68   : 		if (_Block_size <= _User_size)

  00032	48 3b ca	 cmp	 rcx, rdx
  00035	76 2f		 jbe	 SHORT $LN19@allocate

; 70   : 		const uintptr_t _Ptr_container =
; 71   : 			reinterpret_cast<uintptr_t>(::operator new(_Block_size));

  00037	e8 00 00 00 00	 call	 ??2@YAPEAX_K@Z		; operator new

; 72   : 		_SCL_SECURE_ALWAYS_VALIDATE(_Ptr_container != 0);
; 73   : 		_Ptr = reinterpret_cast<void *>((_Ptr_container + _NON_USER_SIZE)

  0003c	48 8d 48 27	 lea	 rcx, QWORD PTR [rax+39]
  00040	48 83 e1 e0	 and	 rcx, -32		; ffffffffffffffe0H

; 74   : 			& ~(_BIG_ALLOCATION_ALIGNMENT - 1));
; 75   : 		static_cast<uintptr_t *>(_Ptr)[-1] = _Ptr_container;

  00044	48 89 41 f8	 mov	 QWORD PTR [rcx-8], rax

; 1070 : 		return (_Mybase::allocate(_Count));

  00048	48 8b c1	 mov	 rax, rcx

; 1071 : 		}

  0004b	48 83 c4 28	 add	 rsp, 40			; 00000028H
  0004f	c3		 ret	 0
$LN8@allocate:

; 85   : 		_Ptr = ::operator new(_User_size);

  00050	48 8b ca	 mov	 rcx, rdx
  00053	e8 00 00 00 00	 call	 ??2@YAPEAX_K@Z		; operator new
  00058	48 8b c8	 mov	 rcx, rax

; 1071 : 		}

  0005b	48 83 c4 28	 add	 rsp, 40			; 00000028H
  0005f	c3		 ret	 0
$LN17@allocate:

; 58   : 		_Xbad_alloc();	// report no memory

  00060	e8 00 00 00 00	 call	 ?_Xbad_alloc@std@@YAXXZ	; std::_Xbad_alloc
  00065	cc		 int	 3
$LN19@allocate:

; 69   : 			_Xbad_alloc();	// report no memory

  00066	e8 00 00 00 00	 call	 ?_Xbad_alloc@std@@YAXXZ	; std::_Xbad_alloc
  0006b	cc		 int	 3
$LN16@allocate:
?allocate@?$_Wrap_alloc@V?$allocator@Vthread@std@@@std@@@std@@QEAAPEAVthread@2@_K@Z ENDP ; std::_Wrap_alloc<std::allocator<std::thread> >::allocate
_TEXT	ENDS
; Function compile flags: /Ogtpy
; File c:\users\alist_000\cppmisc\packages\visualcpptools.14.0.24629\lib\native\include\vector
;	COMDAT ?_Myend@?$_Vector_alloc@U?$_Vec_base_types@Vthread@std@@V?$allocator@Vthread@std@@@2@@std@@@std@@QEBAAEBQEAVthread@2@XZ
_TEXT	SEGMENT
this$ = 8
?_Myend@?$_Vector_alloc@U?$_Vec_base_types@Vthread@std@@V?$allocator@Vthread@std@@@2@@std@@@std@@QEBAAEBQEAVthread@2@XZ PROC ; std::_Vector_alloc<std::_Vec_base_types<std::thread,std::allocator<std::thread> > >::_Myend, COMDAT

; 678  : 		return (_Get_data()._Myend);

  00000	48 8d 41 10	 lea	 rax, QWORD PTR [rcx+16]

; 679  : 		}

  00004	c3		 ret	 0
?_Myend@?$_Vector_alloc@U?$_Vec_base_types@Vthread@std@@V?$allocator@Vthread@std@@@2@@std@@@std@@QEBAAEBQEAVthread@2@XZ ENDP ; std::_Vector_alloc<std::_Vec_base_types<std::thread,std::allocator<std::thread> > >::_Myend
_TEXT	ENDS
; Function compile flags: /Ogtpy
; File c:\users\alist_000\cppmisc\packages\visualcpptools.14.0.24629\lib\native\include\vector
;	COMDAT ?_Myend@?$_Vector_alloc@U?$_Vec_base_types@Vthread@std@@V?$allocator@Vthread@std@@@2@@std@@@std@@QEAAAEAPEAVthread@2@XZ
_TEXT	SEGMENT
this$ = 8
?_Myend@?$_Vector_alloc@U?$_Vec_base_types@Vthread@std@@V?$allocator@Vthread@std@@@2@@std@@@std@@QEAAAEAPEAVthread@2@XZ PROC ; std::_Vector_alloc<std::_Vec_base_types<std::thread,std::allocator<std::thread> > >::_Myend, COMDAT

; 673  : 		return (_Get_data()._Myend);

  00000	48 8d 41 10	 lea	 rax, QWORD PTR [rcx+16]

; 674  : 		}

  00004	c3		 ret	 0
?_Myend@?$_Vector_alloc@U?$_Vec_base_types@Vthread@std@@V?$allocator@Vthread@std@@@2@@std@@@std@@QEAAAEAPEAVthread@2@XZ ENDP ; std::_Vector_alloc<std::_Vec_base_types<std::thread,std::allocator<std::thread> > >::_Myend
_TEXT	ENDS
; Function compile flags: /Ogtpy
; File c:\users\alist_000\cppmisc\packages\visualcpptools.14.0.24629\lib\native\include\vector
;	COMDAT ?_Myfirst@?$_Vector_alloc@U?$_Vec_base_types@Vthread@std@@V?$allocator@Vthread@std@@@2@@std@@@std@@QEBAAEBQEAVthread@2@XZ
_TEXT	SEGMENT
this$ = 8
?_Myfirst@?$_Vector_alloc@U?$_Vec_base_types@Vthread@std@@V?$allocator@Vthread@std@@@2@@std@@@std@@QEBAAEBQEAVthread@2@XZ PROC ; std::_Vector_alloc<std::_Vec_base_types<std::thread,std::allocator<std::thread> > >::_Myfirst, COMDAT

; 658  : 		return (_Get_data()._Myfirst);

  00000	48 8b c1	 mov	 rax, rcx

; 659  : 		}

  00003	c3		 ret	 0
?_Myfirst@?$_Vector_alloc@U?$_Vec_base_types@Vthread@std@@V?$allocator@Vthread@std@@@2@@std@@@std@@QEBAAEBQEAVthread@2@XZ ENDP ; std::_Vector_alloc<std::_Vec_base_types<std::thread,std::allocator<std::thread> > >::_Myfirst
_TEXT	ENDS
; Function compile flags: /Ogtpy
; File c:\users\alist_000\cppmisc\packages\visualcpptools.14.0.24629\lib\native\include\vector
;	COMDAT ?_Getal@?$_Vector_alloc@U?$_Vec_base_types@Vthread@std@@V?$allocator@Vthread@std@@@2@@std@@@std@@QEBAAEBU?$_Wrap_alloc@V?$allocator@Vthread@std@@@std@@@2@XZ
_TEXT	SEGMENT
this$ = 8
?_Getal@?$_Vector_alloc@U?$_Vec_base_types@Vthread@std@@V?$allocator@Vthread@std@@@2@@std@@@std@@QEBAAEBU?$_Wrap_alloc@V?$allocator@Vthread@std@@@std@@@2@XZ PROC ; std::_Vector_alloc<std::_Vec_base_types<std::thread,std::allocator<std::thread> > >::_Getal, COMDAT

; 638  : 		return (_Mypair._Get_first());

  00000	48 8b c1	 mov	 rax, rcx

; 639  : 		}

  00003	c3		 ret	 0
?_Getal@?$_Vector_alloc@U?$_Vec_base_types@Vthread@std@@V?$allocator@Vthread@std@@@2@@std@@@std@@QEBAAEBU?$_Wrap_alloc@V?$allocator@Vthread@std@@@std@@@2@XZ ENDP ; std::_Vector_alloc<std::_Vec_base_types<std::thread,std::allocator<std::thread> > >::_Getal
_TEXT	ENDS
; Function compile flags: /Ogtpy
; File c:\users\alist_000\cppmisc\packages\visualcpptools.14.0.24629\lib\native\include\vector
;	COMDAT ?_Getal@?$_Vector_alloc@U?$_Vec_base_types@Vthread@std@@V?$allocator@Vthread@std@@@2@@std@@@std@@QEAAAEAU?$_Wrap_alloc@V?$allocator@Vthread@std@@@std@@@2@XZ
_TEXT	SEGMENT
this$ = 8
?_Getal@?$_Vector_alloc@U?$_Vec_base_types@Vthread@std@@V?$allocator@Vthread@std@@@2@@std@@@std@@QEAAAEAU?$_Wrap_alloc@V?$allocator@Vthread@std@@@std@@@2@XZ PROC ; std::_Vector_alloc<std::_Vec_base_types<std::thread,std::allocator<std::thread> > >::_Getal, COMDAT

; 633  : 		return (_Mypair._Get_first());

  00000	48 8b c1	 mov	 rax, rcx

; 634  : 		}

  00003	c3		 ret	 0
?_Getal@?$_Vector_alloc@U?$_Vec_base_types@Vthread@std@@V?$allocator@Vthread@std@@@2@@std@@@std@@QEAAAEAU?$_Wrap_alloc@V?$allocator@Vthread@std@@@std@@@2@XZ ENDP ; std::_Vector_alloc<std::_Vec_base_types<std::thread,std::allocator<std::thread> > >::_Getal
_TEXT	ENDS
; Function compile flags: /Ogtpy
; File c:\users\alist_000\cppmisc\packages\visualcpptools.14.0.24629\lib\native\include\vector
;	COMDAT ?_Orphan_all@?$_Vector_alloc@U?$_Vec_base_types@Vthread@std@@V?$allocator@Vthread@std@@@2@@std@@@std@@QEAAXXZ
_TEXT	SEGMENT
this$dead$ = 8
?_Orphan_all@?$_Vector_alloc@U?$_Vec_base_types@Vthread@std@@V?$allocator@Vthread@std@@@2@@std@@@std@@QEAAXXZ PROC ; std::_Vector_alloc<std::_Vec_base_types<std::thread,std::allocator<std::thread> > >::_Orphan_all, COMDAT

; 623  : 		_Get_data()._Orphan_all();
; 624  : 		}

  00000	c2 00 00	 ret	 0
?_Orphan_all@?$_Vector_alloc@U?$_Vec_base_types@Vthread@std@@V?$allocator@Vthread@std@@@2@@std@@@std@@QEAAXXZ ENDP ; std::_Vector_alloc<std::_Vec_base_types<std::thread,std::allocator<std::thread> > >::_Orphan_all
_TEXT	ENDS
; Function compile flags: /Ogtpy
; File c:\users\alist_000\cppmisc\packages\visualcpptools.14.0.24629\lib\native\include\vector
; File c:\users\alist_000\cppmisc\packages\visualcpptools.14.0.24629\lib\native\include\xmemory0
; File c:\users\alist_000\cppmisc\packages\visualcpptools.14.0.24629\lib\native\include\thread
; File c:\users\alist_000\cppmisc\packages\visualcpptools.14.0.24629\lib\native\include\xmemory0
; File c:\users\alist_000\cppmisc\packages\visualcpptools.14.0.24629\lib\native\include\vector
; File c:\users\alist_000\cppmisc\packages\visualcpptools.14.0.24629\lib\native\include\xmemory0
; File c:\users\alist_000\cppmisc\packages\visualcpptools.14.0.24629\lib\native\include\vector
; File c:\users\alist_000\cppmisc\packages\visualcpptools.14.0.24629\lib\native\include\xmemory0
; File c:\users\alist_000\cppmisc\packages\visualcpptools.14.0.24629\lib\native\include\vector
; File c:\users\alist_000\cppmisc\packages\visualcpptools.14.0.24629\lib\native\include\xmemory0
; File c:\users\alist_000\cppmisc\packages\visualcpptools.14.0.24629\lib\native\include\thread
; File c:\users\alist_000\cppmisc\packages\visualcpptools.14.0.24629\lib\native\include\xmemory0
; File c:\users\alist_000\cppmisc\packages\visualcpptools.14.0.24629\lib\native\include\vector
;	COMDAT ?_Change_array@?$vector@Vthread@std@@V?$allocator@Vthread@std@@@2@@std@@AEAAXQEAVthread@2@_K1@Z
_TEXT	SEGMENT
this$ = 48
_Newvec$ = 56
_Newsize$ = 64
_Newcapacity$ = 72
?_Change_array@?$vector@Vthread@std@@V?$allocator@Vthread@std@@@2@@std@@AEAAXQEAVthread@2@_K1@Z PROC ; std::vector<std::thread,std::allocator<std::thread> >::_Change_array, COMDAT

; 1905 : 		{	// orphan all iterators, discard old array, acquire new array

$LN159:
  00000	48 89 5c 24 08	 mov	 QWORD PTR [rsp+8], rbx
  00005	48 89 6c 24 10	 mov	 QWORD PTR [rsp+16], rbp
  0000a	48 89 74 24 18	 mov	 QWORD PTR [rsp+24], rsi
  0000f	57		 push	 rdi
  00010	48 83 ec 20	 sub	 rsp, 32			; 00000020H
  00014	48 8b d9	 mov	 rbx, rcx
  00017	49 8b f9	 mov	 rdi, r9

; 1906 : 		this->_Orphan_all();
; 1907 : 
; 1908 : 		if (this->_Myfirst() != pointer())

  0001a	48 8b 09	 mov	 rcx, QWORD PTR [rcx]
  0001d	49 8b f0	 mov	 rsi, r8
  00020	48 8b ea	 mov	 rbp, rdx
  00023	48 85 c9	 test	 rcx, rcx
  00026	74 6a		 je	 SHORT $LN117@Change_arr

; 1909 : 			{	// destroy and deallocate old array
; 1910 : 			_Destroy(this->_Myfirst(), this->_Mylast());

  00028	4c 8b 53 08	 mov	 r10, QWORD PTR [rbx+8]
; File c:\users\alist_000\cppmisc\packages\visualcpptools.14.0.24629\lib\native\include\xmemory0

; 1211 : 	_Destroy_range1(_First, _Last, _Al, _Conjunction_t<

  0002c	48 8b c1	 mov	 rax, rcx

; 1193 : 	for (; _First != _Last; ++_First)

  0002f	49 3b ca	 cmp	 rcx, r10
  00032	74 13		 je	 SHORT $LN43@Change_arr
$LL44@Change_arr:
; File c:\users\alist_000\cppmisc\packages\visualcpptools.14.0.24629\lib\native\include\thread

; 79   : 		return (!_Thr_is_null(_Thr));

  00034	83 78 08 00	 cmp	 DWORD PTR [rax+8], 0

; 54   : 		if (joinable())

  00038	0f 85 88 00 00
	00		 jne	 $LN148@Change_arr
; File c:\users\alist_000\cppmisc\packages\visualcpptools.14.0.24629\lib\native\include\xmemory0

; 1193 : 	for (; _First != _Last; ++_First)

  0003e	48 83 c0 10	 add	 rax, 16
  00042	49 3b c2	 cmp	 rax, r10
  00045	75 ed		 jne	 SHORT $LL44@Change_arr
$LN43@Change_arr:
; File c:\users\alist_000\cppmisc\packages\visualcpptools.14.0.24629\lib\native\include\vector

; 1911 : 			this->_Getal().deallocate(this->_Myfirst(), this->_Myend() - this->_Myfirst());

  00047	48 8b 43 10	 mov	 rax, QWORD PTR [rbx+16]
; File c:\users\alist_000\cppmisc\packages\visualcpptools.14.0.24629\lib\native\include\xmemory0

; 96   : 	_SCL_SECURE_ALWAYS_VALIDATE(_Count <= (size_t)(-1) / _Sz);

  0004b	48 ba ff ff ff
	ff ff ff ff 0f	 mov	 rdx, 1152921504606846975 ; 0fffffffffffffffH
; File c:\users\alist_000\cppmisc\packages\visualcpptools.14.0.24629\lib\native\include\vector

; 1911 : 			this->_Getal().deallocate(this->_Myfirst(), this->_Myend() - this->_Myfirst());

  00055	48 2b c1	 sub	 rax, rcx
  00058	48 c1 f8 04	 sar	 rax, 4
; File c:\users\alist_000\cppmisc\packages\visualcpptools.14.0.24629\lib\native\include\xmemory0

; 96   : 	_SCL_SECURE_ALWAYS_VALIDATE(_Count <= (size_t)(-1) / _Sz);

  0005c	48 3b c2	 cmp	 rax, rdx
  0005f	77 5f		 ja	 SHORT $LN153@Change_arr

; 97   : 	const size_t _User_size = _Count * _Sz;

  00061	48 c1 e0 04	 shl	 rax, 4

; 98   : 	if (_BIG_ALLOCATION_THRESHOLD <= _User_size)

  00065	48 3d 00 10 00
	00		 cmp	 rax, 4096		; 00001000H
  0006b	72 20		 jb	 SHORT $LN112@Change_arr

; 101  : 		_SCL_SECURE_ALWAYS_VALIDATE(

  0006d	f6 c1 1f	 test	 cl, 31
  00070	75 5a		 jne	 SHORT $LN155@Change_arr

; 102  : 			(_Ptr_user & (_BIG_ALLOCATION_ALIGNMENT - 1)) == 0);
; 103  : 		const uintptr_t _Ptr_ptr = _Ptr_user - sizeof(void *);
; 104  : 		const uintptr_t _Ptr_container =
; 105  : 			*reinterpret_cast<uintptr_t *>(_Ptr_ptr);

  00072	48 8b 41 f8	 mov	 rax, QWORD PTR [rcx-8]

; 106  : 
; 107  :  #ifdef _DEBUG
; 108  : 		// If the following asserts, it likely means that we are performing
; 109  : 		// an aligned delete on memory coming from an unaligned allocation.
; 110  : 		_SCL_SECURE_ALWAYS_VALIDATE(
; 111  : 			reinterpret_cast<uintptr_t *>(_Ptr_ptr)[-1] ==
; 112  : 				_BIG_ALLOCATION_SENTINEL);
; 113  :  #endif /* _DEBUG */
; 114  : 
; 115  : 		// Extra paranoia on aligned allocation/deallocation
; 116  : 		_SCL_SECURE_ALWAYS_VALIDATE(_Ptr_container < _Ptr_user);

  00076	48 3b c1	 cmp	 rax, rcx
  00079	73 57		 jae	 SHORT $LN156@Change_arr

; 117  : 
; 118  :  #ifdef _DEBUG
; 119  : 		_SCL_SECURE_ALWAYS_VALIDATE(2 * sizeof(void *)
; 120  : 			<= _Ptr_user - _Ptr_container);
; 121  : 
; 122  :  #else /* _DEBUG */
; 123  : 		_SCL_SECURE_ALWAYS_VALIDATE(sizeof(void *)

  0007b	48 2b c8	 sub	 rcx, rax
  0007e	48 83 f9 08	 cmp	 rcx, 8
  00082	72 54		 jb	 SHORT $LN157@Change_arr

; 124  : 			<= _Ptr_user - _Ptr_container);
; 125  :  #endif /* _DEBUG */
; 126  : 
; 127  : 		_SCL_SECURE_ALWAYS_VALIDATE(_Ptr_user - _Ptr_container

  00084	48 83 f9 27	 cmp	 rcx, 39			; 00000027H
  00088	77 54		 ja	 SHORT $LN158@Change_arr

; 128  : 			<= _NON_USER_SIZE);
; 129  : 
; 130  : 		_Ptr = reinterpret_cast<void *>(_Ptr_container);

  0008a	48 8b c8	 mov	 rcx, rax
$LN112@Change_arr:

; 131  : 		}
; 132  :  #endif /* defined(_M_IX86) || defined(_M_X64) */
; 133  : 
; 134  : 	::operator delete(_Ptr);

  0008d	e8 00 00 00 00	 call	 ??3@YAXPEAX@Z		; operator delete
$LN117@Change_arr:
; File c:\users\alist_000\cppmisc\packages\visualcpptools.14.0.24629\lib\native\include\vector

; 1914 : 		this->_Myfirst() = _Newvec;

  00092	48 89 2b	 mov	 QWORD PTR [rbx], rbp

; 1915 : 		this->_Mylast() = _Newvec + _Newsize;

  00095	48 c1 e6 04	 shl	 rsi, 4
  00099	48 03 f5	 add	 rsi, rbp

; 1916 : 		this->_Myend() = _Newvec + _Newcapacity;

  0009c	48 c1 e7 04	 shl	 rdi, 4
  000a0	48 89 73 08	 mov	 QWORD PTR [rbx+8], rsi
  000a4	48 03 fd	 add	 rdi, rbp

; 1917 : 		}

  000a7	48 8b 6c 24 38	 mov	 rbp, QWORD PTR [rsp+56]
  000ac	48 8b 74 24 40	 mov	 rsi, QWORD PTR [rsp+64]
  000b1	48 89 7b 10	 mov	 QWORD PTR [rbx+16], rdi
  000b5	48 8b 5c 24 30	 mov	 rbx, QWORD PTR [rsp+48]
  000ba	48 83 c4 20	 add	 rsp, 32			; 00000020H
  000be	5f		 pop	 rdi
  000bf	c3		 ret	 0
$LN153@Change_arr:
; File c:\users\alist_000\cppmisc\packages\visualcpptools.14.0.24629\lib\native\include\xmemory0

; 96   : 	_SCL_SECURE_ALWAYS_VALIDATE(_Count <= (size_t)(-1) / _Sz);

  000c0	e8 00 00 00 00	 call	 _invalid_parameter_noinfo_noreturn
  000c5	cc		 int	 3
$LN148@Change_arr:
; File c:\users\alist_000\cppmisc\packages\visualcpptools.14.0.24629\lib\native\include\thread

; 55   : 			_STD terminate();

  000c6	e8 00 00 00 00	 call	 terminate
  000cb	cc		 int	 3
$LN155@Change_arr:
; File c:\users\alist_000\cppmisc\packages\visualcpptools.14.0.24629\lib\native\include\xmemory0

; 101  : 		_SCL_SECURE_ALWAYS_VALIDATE(

  000cc	e8 00 00 00 00	 call	 _invalid_parameter_noinfo_noreturn
  000d1	cc		 int	 3
$LN156@Change_arr:

; 106  : 
; 107  :  #ifdef _DEBUG
; 108  : 		// If the following asserts, it likely means that we are performing
; 109  : 		// an aligned delete on memory coming from an unaligned allocation.
; 110  : 		_SCL_SECURE_ALWAYS_VALIDATE(
; 111  : 			reinterpret_cast<uintptr_t *>(_Ptr_ptr)[-1] ==
; 112  : 				_BIG_ALLOCATION_SENTINEL);
; 113  :  #endif /* _DEBUG */
; 114  : 
; 115  : 		// Extra paranoia on aligned allocation/deallocation
; 116  : 		_SCL_SECURE_ALWAYS_VALIDATE(_Ptr_container < _Ptr_user);

  000d2	e8 00 00 00 00	 call	 _invalid_parameter_noinfo_noreturn
  000d7	cc		 int	 3
$LN157@Change_arr:

; 117  : 
; 118  :  #ifdef _DEBUG
; 119  : 		_SCL_SECURE_ALWAYS_VALIDATE(2 * sizeof(void *)
; 120  : 			<= _Ptr_user - _Ptr_container);
; 121  : 
; 122  :  #else /* _DEBUG */
; 123  : 		_SCL_SECURE_ALWAYS_VALIDATE(sizeof(void *)

  000d8	e8 00 00 00 00	 call	 _invalid_parameter_noinfo_noreturn
  000dd	cc		 int	 3
$LN158@Change_arr:

; 124  : 			<= _Ptr_user - _Ptr_container);
; 125  :  #endif /* _DEBUG */
; 126  : 
; 127  : 		_SCL_SECURE_ALWAYS_VALIDATE(_Ptr_user - _Ptr_container

  000de	e8 00 00 00 00	 call	 _invalid_parameter_noinfo_noreturn
  000e3	cc		 int	 3
$LN152@Change_arr:
?_Change_array@?$vector@Vthread@std@@V?$allocator@Vthread@std@@@2@@std@@AEAAXQEAVthread@2@_K1@Z ENDP ; std::vector<std::thread,std::allocator<std::thread> >::_Change_array
_TEXT	ENDS
; Function compile flags: /Ogtpy
; File c:\users\alist_000\cppmisc\packages\visualcpptools.14.0.24629\lib\native\include\vector
; File c:\users\alist_000\cppmisc\packages\visualcpptools.14.0.24629\lib\native\include\xmemory0
; File c:\users\alist_000\cppmisc\packages\visualcpptools.14.0.24629\lib\native\include\thread
; File c:\users\alist_000\cppmisc\packages\visualcpptools.14.0.24629\lib\native\include\xmemory0
; File c:\users\alist_000\cppmisc\packages\visualcpptools.14.0.24629\lib\native\include\vector
; File c:\users\alist_000\cppmisc\packages\visualcpptools.14.0.24629\lib\native\include\thread
; File c:\users\alist_000\cppmisc\packages\visualcpptools.14.0.24629\lib\native\include\vector
;	COMDAT ?_Destroy@?$vector@Vthread@std@@V?$allocator@Vthread@std@@@2@@std@@AEAAXPEAVthread@2@0@Z
_TEXT	SEGMENT
this$dead$ = 48
_First$ = 56
_Last$ = 64
?_Destroy@?$vector@Vthread@std@@V?$allocator@Vthread@std@@@2@@std@@AEAAXPEAVthread@2@0@Z PROC ; std::vector<std::thread,std::allocator<std::thread> >::_Destroy, COMDAT

; 1858 : 		{	// destroy [_First, _Last) using allocator

$LN49:
  00000	48 83 ec 28	 sub	 rsp, 40			; 00000028H
; File c:\users\alist_000\cppmisc\packages\visualcpptools.14.0.24629\lib\native\include\xmemory0

; 1193 : 	for (; _First != _Last; ++_First)

  00004	49 3b d0	 cmp	 rdx, r8
  00007	74 16		 je	 SHORT $LN13@Destroy
  00009	0f 1f 80 00 00
	00 00		 npad	 7
$LL14@Destroy:
; File c:\users\alist_000\cppmisc\packages\visualcpptools.14.0.24629\lib\native\include\thread

; 79   : 		return (!_Thr_is_null(_Thr));

  00010	83 7a 08 00	 cmp	 DWORD PTR [rdx+8], 0

; 54   : 		if (joinable())

  00014	75 0e		 jne	 SHORT $LN48@Destroy
; File c:\users\alist_000\cppmisc\packages\visualcpptools.14.0.24629\lib\native\include\xmemory0

; 1193 : 	for (; _First != _Last; ++_First)

  00016	48 83 c2 10	 add	 rdx, 16
  0001a	49 3b d0	 cmp	 rdx, r8
  0001d	75 f1		 jne	 SHORT $LL14@Destroy
$LN13@Destroy:
; File c:\users\alist_000\cppmisc\packages\visualcpptools.14.0.24629\lib\native\include\vector

; 1860 : 		}

  0001f	48 83 c4 28	 add	 rsp, 40			; 00000028H
  00023	c3		 ret	 0
$LN48@Destroy:
; File c:\users\alist_000\cppmisc\packages\visualcpptools.14.0.24629\lib\native\include\thread

; 55   : 			_STD terminate();

  00024	e8 00 00 00 00	 call	 terminate
  00029	cc		 int	 3
$LN47@Destroy:
?_Destroy@?$vector@Vthread@std@@V?$allocator@Vthread@std@@@2@@std@@AEAAXPEAVthread@2@0@Z ENDP ; std::vector<std::thread,std::allocator<std::thread> >::_Destroy
_TEXT	ENDS
; Function compile flags: /Ogtpy
; File c:\users\alist_000\cppmisc\packages\visualcpptools.14.0.24629\lib\native\include\vector
; File c:\users\alist_000\cppmisc\packages\visualcpptools.14.0.24629\lib\native\include\xmemory
; File c:\users\alist_000\cppmisc\packages\visualcpptools.14.0.24629\lib\native\include\vector
;	COMDAT ?_Umove_if_noexcept@?$vector@Vthread@std@@V?$allocator@Vthread@std@@@2@@std@@AEAAXPEAVthread@2@00@Z
_TEXT	SEGMENT
this$dead$ = 64
_First$ = 72
_Last$ = 80
_Dest$ = 88
?_Umove_if_noexcept@?$vector@Vthread@std@@V?$allocator@Vthread@std@@@2@@std@@AEAAXPEAVthread@2@00@Z PROC ; std::vector<std::thread,std::allocator<std::thread> >::_Umove_if_noexcept, COMDAT

; 1852 : 		{	// move_if_noexcept [_First, _Last) to raw _Dest, using allocator

$LN29:
  00000	48 83 ec 38	 sub	 rsp, 56			; 00000038H
  00004	49 8b c0	 mov	 rax, r8
  00007	48 8b ca	 mov	 rcx, rdx
; File c:\users\alist_000\cppmisc\packages\visualcpptools.14.0.24629\lib\native\include\xmemory

; 302  : 	return (_Uninitialized_move_al_unchecked1(_First, _Last, _Dest, _Al,

  0000a	48 8b d0	 mov	 rdx, rax
  0000d	4d 8b c1	 mov	 r8, r9
  00010	e8 00 00 00 00	 call	 ??$_Uninitialized_move_al_unchecked1@PEAVthread@std@@PEAV12@V?$allocator@Vthread@std@@@2@@std@@YAPEAVthread@0@PEAV10@00AEAU?$_Wrap_alloc@V?$allocator@Vthread@std@@@std@@@0@U_General_ptr_iterator_tag@0@U_Any_tag@0@@Z ; std::_Uninitialized_move_al_unchecked1<std::thread * __ptr64,std::thread * __ptr64,std::allocator<std::thread> >
; File c:\users\alist_000\cppmisc\packages\visualcpptools.14.0.24629\lib\native\include\vector

; 1855 : 		}

  00015	48 83 c4 38	 add	 rsp, 56			; 00000038H
  00019	c3		 ret	 0
?_Umove_if_noexcept@?$vector@Vthread@std@@V?$allocator@Vthread@std@@@2@@std@@AEAAXPEAVthread@2@00@Z ENDP ; std::vector<std::thread,std::allocator<std::thread> >::_Umove_if_noexcept
_TEXT	ENDS
; Function compile flags: /Ogtpy
; File c:\users\alist_000\cppmisc\packages\visualcpptools.14.0.24629\lib\native\include\vector
;	COMDAT ?size@?$vector@Vthread@std@@V?$allocator@Vthread@std@@@2@@std@@QEBA_KXZ
_TEXT	SEGMENT
this$ = 8
?size@?$vector@Vthread@std@@V?$allocator@Vthread@std@@@2@@std@@QEBA_KXZ PROC ; std::vector<std::thread,std::allocator<std::thread> >::size, COMDAT

; 1684 : 		return (this->_Mylast() - this->_Myfirst());

  00000	48 8b 41 08	 mov	 rax, QWORD PTR [rcx+8]
  00004	48 2b 01	 sub	 rax, QWORD PTR [rcx]
  00007	48 c1 f8 04	 sar	 rax, 4

; 1685 : 		}

  0000b	c3		 ret	 0
?size@?$vector@Vthread@std@@V?$allocator@Vthread@std@@@2@@std@@QEBA_KXZ ENDP ; std::vector<std::thread,std::allocator<std::thread> >::size
_TEXT	ENDS
; Function compile flags: /Ogtpy
; File c:\users\alist_000\cppmisc\packages\visualcpptools.14.0.24629\lib\native\include\xutility
;	COMDAT ?_Get_first@?$_Compressed_pair@U?$_Wrap_alloc@V?$allocator@D@std@@@std@@V?$_String_val@U?$_Simple_types@D@std@@@2@$00@std@@QEBAAEBU?$_Wrap_alloc@V?$allocator@D@std@@@2@XZ
_TEXT	SEGMENT
this$ = 8
?_Get_first@?$_Compressed_pair@U?$_Wrap_alloc@V?$allocator@D@std@@@std@@V?$_String_val@U?$_Simple_types@D@std@@@2@$00@std@@QEBAAEBU?$_Wrap_alloc@V?$allocator@D@std@@@2@XZ PROC ; std::_Compressed_pair<std::_Wrap_alloc<std::allocator<char> >,std::_String_val<std::_Simple_types<char> >,1>::_Get_first, COMDAT

; 314  : 		return (*this);

  00000	48 8b c1	 mov	 rax, rcx

; 315  : 		}

  00003	c3		 ret	 0
?_Get_first@?$_Compressed_pair@U?$_Wrap_alloc@V?$allocator@D@std@@@std@@V?$_String_val@U?$_Simple_types@D@std@@@2@$00@std@@QEBAAEBU?$_Wrap_alloc@V?$allocator@D@std@@@2@XZ ENDP ; std::_Compressed_pair<std::_Wrap_alloc<std::allocator<char> >,std::_String_val<std::_Simple_types<char> >,1>::_Get_first
_TEXT	ENDS
; Function compile flags: /Ogtpy
; File c:\users\alist_000\cppmisc\packages\visualcpptools.14.0.24629\lib\native\include\xutility
;	COMDAT ?_Get_first@?$_Compressed_pair@U?$_Wrap_alloc@V?$allocator@D@std@@@std@@V?$_String_val@U?$_Simple_types@D@std@@@2@$00@std@@QEAAAEAU?$_Wrap_alloc@V?$allocator@D@std@@@2@XZ
_TEXT	SEGMENT
this$ = 8
?_Get_first@?$_Compressed_pair@U?$_Wrap_alloc@V?$allocator@D@std@@@std@@V?$_String_val@U?$_Simple_types@D@std@@@2@$00@std@@QEAAAEAU?$_Wrap_alloc@V?$allocator@D@std@@@2@XZ PROC ; std::_Compressed_pair<std::_Wrap_alloc<std::allocator<char> >,std::_String_val<std::_Simple_types<char> >,1>::_Get_first, COMDAT

; 309  : 		return (*this);

  00000	48 8b c1	 mov	 rax, rcx

; 310  : 		}

  00003	c3		 ret	 0
?_Get_first@?$_Compressed_pair@U?$_Wrap_alloc@V?$allocator@D@std@@@std@@V?$_String_val@U?$_Simple_types@D@std@@@2@$00@std@@QEAAAEAU?$_Wrap_alloc@V?$allocator@D@std@@@2@XZ ENDP ; std::_Compressed_pair<std::_Wrap_alloc<std::allocator<char> >,std::_String_val<std::_Simple_types<char> >,1>::_Get_first
_TEXT	ENDS
; Function compile flags: /Ogtpy
; File c:\users\alist_000\cppmisc\packages\visualcpptools.14.0.24629\lib\native\include\xstring
;	COMDAT ?_Large_string_engaged@?$_String_val@U?$_Simple_types@D@std@@@std@@QEBA_NXZ
_TEXT	SEGMENT
this$ = 8
?_Large_string_engaged@?$_String_val@U?$_Simple_types@D@std@@@std@@QEBA_NXZ PROC ; std::_String_val<std::_Simple_types<char> >::_Large_string_engaged, COMDAT

; 1637 : 		{	// returns whether the large string mode (allocated memory) is engaged

  00000	48 83 79 18 10	 cmp	 QWORD PTR [rcx+24], 16
  00005	0f 93 c0	 setae	 al

; 1638 : 		return (this->_BUF_SIZE <= _Myres);
; 1639 : 		}

  00008	c3		 ret	 0
?_Large_string_engaged@?$_String_val@U?$_Simple_types@D@std@@@std@@QEBA_NXZ ENDP ; std::_String_val<std::_Simple_types<char> >::_Large_string_engaged
_TEXT	ENDS
; Function compile flags: /Ogtpy
; File c:\users\alist_000\cppmisc\packages\visualcpptools.14.0.24629\lib\native\include\xstring
;	COMDAT ?_Myptr@?$_String_val@U?$_Simple_types@D@std@@@std@@QEBAPEBDXZ
_TEXT	SEGMENT
this$ = 8
?_Myptr@?$_String_val@U?$_Simple_types@D@std@@@std@@QEBAPEBDXZ PROC ; std::_String_val<std::_Simple_types<char> >::_Myptr, COMDAT

; 1638 : 		return (this->_BUF_SIZE <= _Myres);

  00000	48 83 79 18 10	 cmp	 QWORD PTR [rcx+24], 16

; 1631 : 		return (_Large_string_engaged()

  00005	72 04		 jb	 SHORT $LN3@Myptr
  00007	48 8b 01	 mov	 rax, QWORD PTR [rcx]

; 1632 : 			? _Unfancy(_Bx._Ptr)
; 1633 : 			: _Bx._Buf);
; 1634 : 		}

  0000a	c3		 ret	 0
$LN3@Myptr:

; 1631 : 		return (_Large_string_engaged()

  0000b	48 8b c1	 mov	 rax, rcx

; 1632 : 			? _Unfancy(_Bx._Ptr)
; 1633 : 			: _Bx._Buf);
; 1634 : 		}

  0000e	c3		 ret	 0
?_Myptr@?$_String_val@U?$_Simple_types@D@std@@@std@@QEBAPEBDXZ ENDP ; std::_String_val<std::_Simple_types<char> >::_Myptr
_TEXT	ENDS
; Function compile flags: /Ogtpy
; File c:\users\alist_000\cppmisc\packages\visualcpptools.14.0.24629\lib\native\include\xstring
;	COMDAT ?_Myptr@?$_String_val@U?$_Simple_types@D@std@@@std@@QEAAPEADXZ
_TEXT	SEGMENT
this$ = 8
?_Myptr@?$_String_val@U?$_Simple_types@D@std@@@std@@QEAAPEADXZ PROC ; std::_String_val<std::_Simple_types<char> >::_Myptr, COMDAT

; 1638 : 		return (this->_BUF_SIZE <= _Myres);

  00000	48 83 79 18 10	 cmp	 QWORD PTR [rcx+24], 16

; 1624 : 		return (_Large_string_engaged()

  00005	72 04		 jb	 SHORT $LN3@Myptr
  00007	48 8b 01	 mov	 rax, QWORD PTR [rcx]

; 1625 : 			? _Unfancy(_Bx._Ptr)
; 1626 : 			: _Bx._Buf);
; 1627 : 		}

  0000a	c3		 ret	 0
$LN3@Myptr:

; 1624 : 		return (_Large_string_engaged()

  0000b	48 8b c1	 mov	 rax, rcx

; 1625 : 			? _Unfancy(_Bx._Ptr)
; 1626 : 			: _Bx._Buf);
; 1627 : 		}

  0000e	c3		 ret	 0
?_Myptr@?$_String_val@U?$_Simple_types@D@std@@@std@@QEAAPEADXZ ENDP ; std::_String_val<std::_Simple_types<char> >::_Myptr
_TEXT	ENDS
; Function compile flags: /Ogtpy
; File c:\users\alist_000\cppmisc\packages\visualcpptools.14.0.24629\lib\native\include\xmemory0
;	COMDAT ?select_on_container_copy_construction@?$allocator_traits@V?$allocator@D@std@@@std@@SA?AV?$allocator@D@2@AEBV32@@Z
_TEXT	SEGMENT
__$ReturnUdt$ = 8
_Al$ = 16
?select_on_container_copy_construction@?$allocator_traits@V?$allocator@D@std@@@std@@SA?AV?$allocator@D@2@AEBV32@@Z PROC ; std::allocator_traits<std::allocator<char> >::select_on_container_copy_construction, COMDAT

; 969  : 		return (_Al);

  00000	48 8b c1	 mov	 rax, rcx

; 970  : 		}

  00003	c3		 ret	 0
?select_on_container_copy_construction@?$allocator_traits@V?$allocator@D@std@@@std@@SA?AV?$allocator@D@2@AEBV32@@Z ENDP ; std::allocator_traits<std::allocator<char> >::select_on_container_copy_construction
_TEXT	ENDS
; Function compile flags: /Ogtpy
; File c:\users\alist_000\cppmisc\packages\visualcpptools.14.0.24629\lib\native\include\xmemory0
;	COMDAT ?deallocate@?$_Wrap_alloc@V?$allocator@D@std@@@std@@QEAAXPEAD_K@Z
_TEXT	SEGMENT
this$ = 48
_Ptr$ = 56
_Count$ = 64
?deallocate@?$_Wrap_alloc@V?$allocator@D@std@@@std@@QEAAXPEAD_K@Z PROC ; std::_Wrap_alloc<std::allocator<char> >::deallocate, COMDAT

; 1080 : 		{	// deallocate object at _Ptr, ignore size

$LN21:
  00000	48 83 ec 28	 sub	 rsp, 40			; 00000028H

; 98   : 	if (_BIG_ALLOCATION_THRESHOLD <= _User_size)

  00004	49 81 f8 00 10
	00 00		 cmp	 r8, 4096		; 00001000H
  0000b	72 20		 jb	 SHORT $LN7@deallocate

; 99   : 		{	// deallocate large block
; 100  : 		const uintptr_t _Ptr_user = reinterpret_cast<uintptr_t>(_Ptr);
; 101  : 		_SCL_SECURE_ALWAYS_VALIDATE(

  0000d	f6 c2 1f	 test	 dl, 31
  00010	75 27		 jne	 SHORT $LN16@deallocate

; 102  : 			(_Ptr_user & (_BIG_ALLOCATION_ALIGNMENT - 1)) == 0);
; 103  : 		const uintptr_t _Ptr_ptr = _Ptr_user - sizeof(void *);
; 104  : 		const uintptr_t _Ptr_container =
; 105  : 			*reinterpret_cast<uintptr_t *>(_Ptr_ptr);

  00012	48 8b 42 f8	 mov	 rax, QWORD PTR [rdx-8]

; 106  : 
; 107  :  #ifdef _DEBUG
; 108  : 		// If the following asserts, it likely means that we are performing
; 109  : 		// an aligned delete on memory coming from an unaligned allocation.
; 110  : 		_SCL_SECURE_ALWAYS_VALIDATE(
; 111  : 			reinterpret_cast<uintptr_t *>(_Ptr_ptr)[-1] ==
; 112  : 				_BIG_ALLOCATION_SENTINEL);
; 113  :  #endif /* _DEBUG */
; 114  : 
; 115  : 		// Extra paranoia on aligned allocation/deallocation
; 116  : 		_SCL_SECURE_ALWAYS_VALIDATE(_Ptr_container < _Ptr_user);

  00016	48 3b c2	 cmp	 rax, rdx
  00019	73 24		 jae	 SHORT $LN18@deallocate

; 117  : 
; 118  :  #ifdef _DEBUG
; 119  : 		_SCL_SECURE_ALWAYS_VALIDATE(2 * sizeof(void *)
; 120  : 			<= _Ptr_user - _Ptr_container);
; 121  : 
; 122  :  #else /* _DEBUG */
; 123  : 		_SCL_SECURE_ALWAYS_VALIDATE(sizeof(void *)

  0001b	48 2b d0	 sub	 rdx, rax
  0001e	48 83 fa 08	 cmp	 rdx, 8
  00022	72 21		 jb	 SHORT $LN19@deallocate

; 124  : 			<= _Ptr_user - _Ptr_container);
; 125  :  #endif /* _DEBUG */
; 126  : 
; 127  : 		_SCL_SECURE_ALWAYS_VALIDATE(_Ptr_user - _Ptr_container

  00024	48 83 fa 27	 cmp	 rdx, 39			; 00000027H
  00028	77 21		 ja	 SHORT $LN20@deallocate

; 128  : 			<= _NON_USER_SIZE);
; 129  : 
; 130  : 		_Ptr = reinterpret_cast<void *>(_Ptr_container);

  0002a	48 8b d0	 mov	 rdx, rax
$LN7@deallocate:

; 131  : 		}
; 132  :  #endif /* defined(_M_IX86) || defined(_M_X64) */
; 133  : 
; 134  : 	::operator delete(_Ptr);

  0002d	48 8b ca	 mov	 rcx, rdx

; 1081 : 		_Mybase::deallocate(_Ptr, _Count);
; 1082 : 		}

  00030	48 83 c4 28	 add	 rsp, 40			; 00000028H

; 134  : 	::operator delete(_Ptr);

  00034	e9 00 00 00 00	 jmp	 ??3@YAXPEAX@Z		; operator delete
$LN16@deallocate:

; 99   : 		{	// deallocate large block
; 100  : 		const uintptr_t _Ptr_user = reinterpret_cast<uintptr_t>(_Ptr);
; 101  : 		_SCL_SECURE_ALWAYS_VALIDATE(

  00039	e8 00 00 00 00	 call	 _invalid_parameter_noinfo_noreturn
  0003e	cc		 int	 3
$LN18@deallocate:

; 106  : 
; 107  :  #ifdef _DEBUG
; 108  : 		// If the following asserts, it likely means that we are performing
; 109  : 		// an aligned delete on memory coming from an unaligned allocation.
; 110  : 		_SCL_SECURE_ALWAYS_VALIDATE(
; 111  : 			reinterpret_cast<uintptr_t *>(_Ptr_ptr)[-1] ==
; 112  : 				_BIG_ALLOCATION_SENTINEL);
; 113  :  #endif /* _DEBUG */
; 114  : 
; 115  : 		// Extra paranoia on aligned allocation/deallocation
; 116  : 		_SCL_SECURE_ALWAYS_VALIDATE(_Ptr_container < _Ptr_user);

  0003f	e8 00 00 00 00	 call	 _invalid_parameter_noinfo_noreturn
  00044	cc		 int	 3
$LN19@deallocate:

; 117  : 
; 118  :  #ifdef _DEBUG
; 119  : 		_SCL_SECURE_ALWAYS_VALIDATE(2 * sizeof(void *)
; 120  : 			<= _Ptr_user - _Ptr_container);
; 121  : 
; 122  :  #else /* _DEBUG */
; 123  : 		_SCL_SECURE_ALWAYS_VALIDATE(sizeof(void *)

  00045	e8 00 00 00 00	 call	 _invalid_parameter_noinfo_noreturn
  0004a	cc		 int	 3
$LN20@deallocate:

; 124  : 			<= _Ptr_user - _Ptr_container);
; 125  :  #endif /* _DEBUG */
; 126  : 
; 127  : 		_SCL_SECURE_ALWAYS_VALIDATE(_Ptr_user - _Ptr_container

  0004b	e8 00 00 00 00	 call	 _invalid_parameter_noinfo_noreturn
  00050	cc		 int	 3
$LN15@deallocate:
?deallocate@?$_Wrap_alloc@V?$allocator@D@std@@@std@@QEAAXPEAD_K@Z ENDP ; std::_Wrap_alloc<std::allocator<char> >::deallocate
_TEXT	ENDS
; Function compile flags: /Ogtpy
; File c:\users\alist_000\cppmisc\packages\visualcpptools.14.0.24629\lib\native\include\xstring
;	COMDAT ?_Myres@?$_String_alloc@U?$_String_base_types@DV?$allocator@D@std@@@std@@@std@@QEAAAEA_KXZ
_TEXT	SEGMENT
this$ = 8
?_Myres@?$_String_alloc@U?$_String_base_types@DV?$allocator@D@std@@@std@@@std@@QEAAAEA_KXZ PROC ; std::_String_alloc<std::_String_base_types<char,std::allocator<char> > >::_Myres, COMDAT

; 1859 : 		return (_Get_data()._Myres);

  00000	48 8d 41 18	 lea	 rax, QWORD PTR [rcx+24]

; 1860 : 		}

  00004	c3		 ret	 0
?_Myres@?$_String_alloc@U?$_String_base_types@DV?$allocator@D@std@@@std@@@std@@QEAAAEA_KXZ ENDP ; std::_String_alloc<std::_String_base_types<char,std::allocator<char> > >::_Myres
_TEXT	ENDS
; Function compile flags: /Ogtpy
; File c:\users\alist_000\cppmisc\packages\visualcpptools.14.0.24629\lib\native\include\xstring
;	COMDAT ?_Mysize@?$_String_alloc@U?$_String_base_types@DV?$allocator@D@std@@@std@@@std@@QEAAAEA_KXZ
_TEXT	SEGMENT
this$ = 8
?_Mysize@?$_String_alloc@U?$_String_base_types@DV?$allocator@D@std@@@std@@@std@@QEAAAEA_KXZ PROC ; std::_String_alloc<std::_String_base_types<char,std::allocator<char> > >::_Mysize, COMDAT

; 1849 : 		return (_Get_data()._Mysize);

  00000	48 8d 41 10	 lea	 rax, QWORD PTR [rcx+16]

; 1850 : 		}

  00004	c3		 ret	 0
?_Mysize@?$_String_alloc@U?$_String_base_types@DV?$allocator@D@std@@@std@@@std@@QEAAAEA_KXZ ENDP ; std::_String_alloc<std::_String_base_types<char,std::allocator<char> > >::_Mysize
_TEXT	ENDS
; Function compile flags: /Ogtpy
; File c:\users\alist_000\cppmisc\packages\visualcpptools.14.0.24629\lib\native\include\xstring
;	COMDAT ?_Get_data@?$_String_alloc@U?$_String_base_types@DV?$allocator@D@std@@@std@@@std@@QEBAAEBV?$_String_val@U?$_Simple_types@D@std@@@2@XZ
_TEXT	SEGMENT
this$ = 8
?_Get_data@?$_String_alloc@U?$_String_base_types@DV?$allocator@D@std@@@std@@@std@@QEBAAEBV?$_String_val@U?$_Simple_types@D@std@@@2@XZ PROC ; std::_String_alloc<std::_String_base_types<char,std::allocator<char> > >::_Get_data, COMDAT

; 1842 : 		return (_Mypair._Get_second());

  00000	48 8b c1	 mov	 rax, rcx

; 1843 : 		}

  00003	c3		 ret	 0
?_Get_data@?$_String_alloc@U?$_String_base_types@DV?$allocator@D@std@@@std@@@std@@QEBAAEBV?$_String_val@U?$_Simple_types@D@std@@@2@XZ ENDP ; std::_String_alloc<std::_String_base_types<char,std::allocator<char> > >::_Get_data
_TEXT	ENDS
; Function compile flags: /Ogtpy
; File c:\users\alist_000\cppmisc\packages\visualcpptools.14.0.24629\lib\native\include\xstring
;	COMDAT ?_Get_data@?$_String_alloc@U?$_String_base_types@DV?$allocator@D@std@@@std@@@std@@QEAAAEAV?$_String_val@U?$_Simple_types@D@std@@@2@XZ
_TEXT	SEGMENT
this$ = 8
?_Get_data@?$_String_alloc@U?$_String_base_types@DV?$allocator@D@std@@@std@@@std@@QEAAAEAV?$_String_val@U?$_Simple_types@D@std@@@2@XZ PROC ; std::_String_alloc<std::_String_base_types<char,std::allocator<char> > >::_Get_data, COMDAT

; 1837 : 		return (_Mypair._Get_second());

  00000	48 8b c1	 mov	 rax, rcx

; 1838 : 		}

  00003	c3		 ret	 0
?_Get_data@?$_String_alloc@U?$_String_base_types@DV?$allocator@D@std@@@std@@@std@@QEAAAEAV?$_String_val@U?$_Simple_types@D@std@@@2@XZ ENDP ; std::_String_alloc<std::_String_base_types<char,std::allocator<char> > >::_Get_data
_TEXT	ENDS
; Function compile flags: /Ogtpy
; File c:\users\alist_000\cppmisc\packages\visualcpptools.14.0.24629\lib\native\include\xstring
;	COMDAT ?_Check_offset@?$basic_string@DU?$char_traits@D@std@@V?$allocator@D@2@@std@@QEBAX_K@Z
_TEXT	SEGMENT
this$ = 48
_Off$ = 56
?_Check_offset@?$basic_string@DU?$char_traits@D@std@@V?$allocator@D@2@@std@@QEBAX_K@Z PROC ; std::basic_string<char,std::char_traits<char>,std::allocator<char> >::_Check_offset, COMDAT

; 3571 : 		{	// checks whether _Off is in the bounds of [0, this->size()]

$LN16:
  00000	48 83 ec 28	 sub	 rsp, 40			; 00000028H

; 3572 : 		if (this->_Mysize() < _Off)

  00004	48 39 51 10	 cmp	 QWORD PTR [rcx+16], rdx
  00008	72 05		 jb	 SHORT $LN14@Check_offs

; 3574 : 		}

  0000a	48 83 c4 28	 add	 rsp, 40			; 00000028H
  0000e	c3		 ret	 0
$LN14@Check_offs:

; 3573 : 			_Xran();

  0000f	e8 00 00 00 00	 call	 ?_Xran@?$basic_string@DU?$char_traits@D@std@@V?$allocator@D@2@@std@@SAXXZ ; std::basic_string<char,std::char_traits<char>,std::allocator<char> >::_Xran
  00014	cc		 int	 3
$LN13@Check_offs:
?_Check_offset@?$basic_string@DU?$char_traits@D@std@@V?$allocator@D@2@@std@@QEBAX_K@Z ENDP ; std::basic_string<char,std::char_traits<char>,std::allocator<char> >::_Check_offset
_TEXT	ENDS
; Function compile flags: /Ogtpy
; File c:\users\alist_000\cppmisc\packages\visualcpptools.14.0.24629\lib\native\include\xstring
;	COMDAT ?_Xlen@?$basic_string@DU?$char_traits@D@std@@V?$allocator@D@2@@std@@SAXXZ
_TEXT	SEGMENT
?_Xlen@?$basic_string@DU?$char_traits@D@std@@V?$allocator@D@2@@std@@SAXXZ PROC ; std::basic_string<char,std::char_traits<char>,std::allocator<char> >::_Xlen, COMDAT

; 3566 : 		{	// report a length_error

$LN4:
  00000	48 83 ec 28	 sub	 rsp, 40			; 00000028H

; 3567 : 		_Xlength_error("string too long");

  00004	48 8d 0d 00 00
	00 00		 lea	 rcx, OFFSET FLAT:??_C@_0BA@JFNIOLAK@string?5too?5long?$AA@
  0000b	e8 00 00 00 00	 call	 ?_Xlength_error@std@@YAXPEBD@Z ; std::_Xlength_error
  00010	cc		 int	 3
$LN3@Xlen:
?_Xlen@?$basic_string@DU?$char_traits@D@std@@V?$allocator@D@2@@std@@SAXXZ ENDP ; std::basic_string<char,std::char_traits<char>,std::allocator<char> >::_Xlen
_TEXT	ENDS
; Function compile flags: /Ogtpy
; File c:\users\alist_000\cppmisc\packages\visualcpptools.14.0.24629\lib\native\include\xstring
; File c:\users\alist_000\cppmisc\packages\visualcpptools.14.0.24629\lib\native\include\xstddef
; File c:\users\alist_000\cppmisc\packages\visualcpptools.14.0.24629\lib\native\include\xstring
;	COMDAT ?_Inside@?$basic_string@DU?$char_traits@D@std@@V?$allocator@D@2@@std@@QEBA_NQEBD@Z
_TEXT	SEGMENT
this$ = 8
_Ptr$ = 16
?_Inside@?$basic_string@DU?$char_traits@D@std@@V?$allocator@D@2@@std@@QEBA_NQEBD@Z PROC ; std::basic_string<char,std::char_traits<char>,std::allocator<char> >::_Inside, COMDAT

; 1638 : 		return (this->_BUF_SIZE <= _Myres);

  00000	48 83 79 18 10	 cmp	 QWORD PTR [rcx+24], 16

; 1631 : 		return (_Large_string_engaged()

  00005	72 05		 jb	 SHORT $LN13@Inside
; File c:\users\alist_000\cppmisc\packages\visualcpptools.14.0.24629\lib\native\include\xstddef

; 642  : 	return (_Ptr);

  00007	4c 8b 01	 mov	 r8, QWORD PTR [rcx]
; File c:\users\alist_000\cppmisc\packages\visualcpptools.14.0.24629\lib\native\include\xstring

; 1631 : 		return (_Large_string_engaged()

  0000a	eb 03		 jmp	 SHORT $LN14@Inside
$LN13@Inside:
  0000c	4c 8b c1	 mov	 r8, rcx
$LN14@Inside:

; 3531 : 		const auto& _My_data = this->_Get_data();
; 3532 : 		const _Elem * const _My_chars = _My_data._Myptr();
; 3533 : 		return (_My_chars <= _Ptr && _Ptr < _My_chars + _My_data._Mysize);

  0000f	4c 3b c2	 cmp	 r8, rdx
  00012	77 10		 ja	 SHORT $LN3@Inside
  00014	48 8b 41 10	 mov	 rax, QWORD PTR [rcx+16]
  00018	49 8d 0c 00	 lea	 rcx, QWORD PTR [r8+rax]
  0001c	48 3b d1	 cmp	 rdx, rcx
  0001f	73 03		 jae	 SHORT $LN3@Inside
  00021	b0 01		 mov	 al, 1

; 3534 : 		}

  00023	c3		 ret	 0
$LN3@Inside:

; 3531 : 		const auto& _My_data = this->_Get_data();
; 3532 : 		const _Elem * const _My_chars = _My_data._Myptr();
; 3533 : 		return (_My_chars <= _Ptr && _Ptr < _My_chars + _My_data._Mysize);

  00024	32 c0		 xor	 al, al

; 3534 : 		}

  00026	c3		 ret	 0
?_Inside@?$basic_string@DU?$char_traits@D@std@@V?$allocator@D@2@@std@@QEBA_NQEBD@Z ENDP ; std::basic_string<char,std::char_traits<char>,std::allocator<char> >::_Inside
_TEXT	ENDS
; Function compile flags: /Ogtpy
; File c:\users\alist_000\cppmisc\packages\visualcpptools.14.0.24629\lib\native\include\xstring
; File c:\users\alist_000\cppmisc\packages\visualcpptools.14.0.24629\lib\native\include\xstddef
; File c:\users\alist_000\cppmisc\packages\visualcpptools.14.0.24629\lib\native\include\iosfwd
; File c:\users\alist_000\cppmisc\packages\visualcpptools.14.0.24629\lib\native\include\xstring
;	COMDAT ?_Grow@?$basic_string@DU?$char_traits@D@std@@V?$allocator@D@2@@std@@QEAA_N_K@Z
_TEXT	SEGMENT
this$ = 48
_Newsize$ = 56
?_Grow@?$basic_string@DU?$char_traits@D@std@@V?$allocator@D@2@@std@@QEAA_N_K@Z PROC ; std::basic_string<char,std::char_traits<char>,std::allocator<char> >::_Grow, COMDAT

; 3514 : 		{	// ensure buffer is big enough

$LN34:
  00000	48 83 ec 28	 sub	 rsp, 40			; 00000028H

; 3515 : 		if (_Newsize == 0)

  00004	48 85 d2	 test	 rdx, rdx
  00007	75 18		 jne	 SHORT $LN2@Grow

; 1638 : 		return (this->_BUF_SIZE <= _Myres);

  00009	48 83 79 18 10	 cmp	 QWORD PTR [rcx+24], 16

; 3510 : 		_Traits::assign(_My_data._Myptr()[_My_data._Mysize = _Newsize], _Elem());

  0000e	48 89 51 10	 mov	 QWORD PTR [rcx+16], rdx

; 1624 : 		return (_Large_string_engaged()

  00012	72 03		 jb	 SHORT $LN16@Grow
; File c:\users\alist_000\cppmisc\packages\visualcpptools.14.0.24629\lib\native\include\xstddef

; 642  : 	return (_Ptr);

  00014	48 8b 09	 mov	 rcx, QWORD PTR [rcx]
$LN16@Grow:
; File c:\users\alist_000\cppmisc\packages\visualcpptools.14.0.24629\lib\native\include\iosfwd

; 516  : 		_Left = _Right;

  00017	c6 01 00	 mov	 BYTE PTR [rcx], 0
; File c:\users\alist_000\cppmisc\packages\visualcpptools.14.0.24629\lib\native\include\xstring

; 3518 : 			return (false);

  0001a	32 c0		 xor	 al, al

; 3527 : 		}

  0001c	48 83 c4 28	 add	 rsp, 40			; 00000028H
  00020	c3		 ret	 0
$LN2@Grow:

; 3519 : 			}
; 3520 : 
; 3521 : 		if (this->_Myres() < _Newsize)

  00021	48 39 51 18	 cmp	 QWORD PTR [rcx+24], rdx
  00025	73 05		 jae	 SHORT $LN3@Grow

; 3522 : 			{	// reallocate to grow
; 3523 : 			_Copy(_Newsize);

  00027	e8 00 00 00 00	 call	 ?_Copy@?$basic_string@DU?$char_traits@D@std@@V?$allocator@D@2@@std@@QEAAX_K@Z ; std::basic_string<char,std::char_traits<char>,std::allocator<char> >::_Copy
$LN3@Grow:

; 3524 : 			}
; 3525 : 
; 3526 : 		return (true);	// return true only if more work to do

  0002c	b0 01		 mov	 al, 1

; 3527 : 		}

  0002e	48 83 c4 28	 add	 rsp, 40			; 00000028H
  00032	c3		 ret	 0
?_Grow@?$basic_string@DU?$char_traits@D@std@@V?$allocator@D@2@@std@@QEAA_N_K@Z ENDP ; std::basic_string<char,std::char_traits<char>,std::allocator<char> >::_Grow
_TEXT	ENDS
; Function compile flags: /Ogtpy
; File c:\users\alist_000\cppmisc\packages\visualcpptools.14.0.24629\lib\native\include\xstring
; File c:\users\alist_000\cppmisc\packages\visualcpptools.14.0.24629\lib\native\include\xstddef
; File c:\users\alist_000\cppmisc\packages\visualcpptools.14.0.24629\lib\native\include\iosfwd
; File c:\users\alist_000\cppmisc\packages\visualcpptools.14.0.24629\lib\native\include\xstring
; File c:\users\alist_000\cppmisc\packages\visualcpptools.14.0.24629\lib\native\include\iosfwd
; File c:\users\alist_000\cppmisc\packages\visualcpptools.14.0.24629\lib\native\include\xstring
;	COMDAT ?_Eos@?$basic_string@DU?$char_traits@D@std@@V?$allocator@D@2@@std@@QEAAX_K@Z
_TEXT	SEGMENT
this$ = 8
_Newsize$ = 16
?_Eos@?$basic_string@DU?$char_traits@D@std@@V?$allocator@D@2@@std@@QEAAX_K@Z PROC ; std::basic_string<char,std::char_traits<char>,std::allocator<char> >::_Eos, COMDAT

; 1638 : 		return (this->_BUF_SIZE <= _Myres);

  00000	48 83 79 18 10	 cmp	 QWORD PTR [rcx+24], 16

; 3509 : 		auto& _My_data = this->_Get_data();
; 3510 : 		_Traits::assign(_My_data._Myptr()[_My_data._Mysize = _Newsize], _Elem());

  00005	48 89 51 10	 mov	 QWORD PTR [rcx+16], rdx

; 1624 : 		return (_Large_string_engaged()

  00009	72 08		 jb	 SHORT $LN11@Eos
; File c:\users\alist_000\cppmisc\packages\visualcpptools.14.0.24629\lib\native\include\xstddef

; 642  : 	return (_Ptr);

  0000b	48 8b 01	 mov	 rax, QWORD PTR [rcx]
; File c:\users\alist_000\cppmisc\packages\visualcpptools.14.0.24629\lib\native\include\iosfwd

; 516  : 		_Left = _Right;

  0000e	c6 04 10 00	 mov	 BYTE PTR [rax+rdx], 0
; File c:\users\alist_000\cppmisc\packages\visualcpptools.14.0.24629\lib\native\include\xstring

; 3511 : 		}

  00012	c3		 ret	 0
$LN11@Eos:
; File c:\users\alist_000\cppmisc\packages\visualcpptools.14.0.24629\lib\native\include\iosfwd

; 516  : 		_Left = _Right;

  00013	c6 04 11 00	 mov	 BYTE PTR [rcx+rdx], 0
; File c:\users\alist_000\cppmisc\packages\visualcpptools.14.0.24629\lib\native\include\xstring

; 3511 : 		}

  00017	c3		 ret	 0
?_Eos@?$basic_string@DU?$char_traits@D@std@@V?$allocator@D@2@@std@@QEAAX_K@Z ENDP ; std::basic_string<char,std::char_traits<char>,std::allocator<char> >::_Eos
_TEXT	ENDS
; Function compile flags: /Ogtpy
; File c:\users\alist_000\cppmisc\packages\visualcpptools.14.0.24629\lib\native\include\xstring
; File c:\users\alist_000\cppmisc\packages\visualcpptools.14.0.24629\lib\native\include\utility
; File c:\users\alist_000\cppmisc\packages\visualcpptools.14.0.24629\lib\native\include\xstring
;	COMDAT ?_Clamp_suffix_size@?$basic_string@DU?$char_traits@D@std@@V?$allocator@D@2@@std@@QEBA_K_K0@Z
_TEXT	SEGMENT
this$ = 8
_Off$ = 16
_Size$ = 24
?_Clamp_suffix_size@?$basic_string@DU?$char_traits@D@std@@V?$allocator@D@2@@std@@QEBA_K_K0@Z PROC ; std::basic_string<char,std::char_traits<char>,std::allocator<char> >::_Clamp_suffix_size, COMDAT

; 3353 : 		return (_Min_value(_Size, this->_Mysize() - _Off));

  00000	48 8b 41 10	 mov	 rax, QWORD PTR [rcx+16]
  00004	48 2b c2	 sub	 rax, rdx
; File c:\users\alist_000\cppmisc\packages\visualcpptools.14.0.24629\lib\native\include\utility

; 24   : 	return (_Right < _Left ? _Right : _Left);

  00007	49 3b c0	 cmp	 rax, r8
  0000a	4c 0f 42 c0	 cmovb	 r8, rax
; File c:\users\alist_000\cppmisc\packages\visualcpptools.14.0.24629\lib\native\include\xstring

; 3353 : 		return (_Min_value(_Size, this->_Mysize() - _Off));

  0000e	49 8b c0	 mov	 rax, r8

; 3354 : 		}

  00011	c3		 ret	 0
?_Clamp_suffix_size@?$basic_string@DU?$char_traits@D@std@@V?$allocator@D@2@@std@@QEBA_K_K0@Z ENDP ; std::basic_string<char,std::char_traits<char>,std::allocator<char> >::_Clamp_suffix_size
_TEXT	ENDS
; Function compile flags: /Ogtpy
; File c:\users\alist_000\cppmisc\packages\visualcpptools.14.0.24629\lib\native\include\xstring
; File c:\users\alist_000\cppmisc\packages\visualcpptools.14.0.24629\lib\native\include\xstddef
; File c:\users\alist_000\cppmisc\packages\visualcpptools.14.0.24629\lib\native\include\xstring
; File c:\users\alist_000\cppmisc\packages\visualcpptools.14.0.24629\lib\native\include\xstddef
; File c:\users\alist_000\cppmisc\packages\visualcpptools.14.0.24629\lib\native\include\xstring
; File c:\users\alist_000\cppmisc\packages\visualcpptools.14.0.24629\lib\native\include\xstddef
; File c:\users\alist_000\cppmisc\packages\visualcpptools.14.0.24629\lib\native\include\iosfwd
; File c:\users\alist_000\cppmisc\packages\visualcpptools.14.0.24629\lib\native\include\xstring
; File c:\users\alist_000\cppmisc\packages\visualcpptools.14.0.24629\lib\native\include\iosfwd
; File c:\users\alist_000\cppmisc\packages\visualcpptools.14.0.24629\lib\native\include\xstring
; File c:\users\alist_000\cppmisc\packages\visualcpptools.14.0.24629\lib\native\include\xstddef
; File c:\users\alist_000\cppmisc\packages\visualcpptools.14.0.24629\lib\native\include\xstring
; File c:\users\alist_000\cppmisc\packages\visualcpptools.14.0.24629\lib\native\include\iosfwd
; File c:\users\alist_000\cppmisc\packages\visualcpptools.14.0.24629\lib\native\include\xstring
; File c:\users\alist_000\cppmisc\packages\visualcpptools.14.0.24629\lib\native\include\xstddef
; File c:\users\alist_000\cppmisc\packages\visualcpptools.14.0.24629\lib\native\include\xstring
; File c:\users\alist_000\cppmisc\packages\visualcpptools.14.0.24629\lib\native\include\iosfwd
; File c:\users\alist_000\cppmisc\packages\visualcpptools.14.0.24629\lib\native\include\xstring
;	COMDAT ?assign@?$basic_string@DU?$char_traits@D@std@@V?$allocator@D@2@@std@@QEAAAEAV12@QEBD_K@Z
_TEXT	SEGMENT
this$ = 48
_Ptr$ = 56
_Count$ = 64
?assign@?$basic_string@DU?$char_traits@D@std@@V?$allocator@D@2@@std@@QEAAAEAV12@QEBD_K@Z PROC ; std::basic_string<char,std::char_traits<char>,std::allocator<char> >::assign, COMDAT

; 2361 : 		{	// assign [_Ptr, _Ptr + _Count)

$LN112:
  00000	48 89 5c 24 08	 mov	 QWORD PTR [rsp+8], rbx
  00005	48 89 74 24 10	 mov	 QWORD PTR [rsp+16], rsi
  0000a	57		 push	 rdi
  0000b	48 83 ec 20	 sub	 rsp, 32			; 00000020H
  0000f	48 8b f2	 mov	 rsi, rdx
  00012	49 8b f8	 mov	 rdi, r8

; 1638 : 		return (this->_BUF_SIZE <= _Myres);

  00015	48 8b 51 18	 mov	 rdx, QWORD PTR [rcx+24]

; 2361 : 		{	// assign [_Ptr, _Ptr + _Count)

  00019	48 8b d9	 mov	 rbx, rcx

; 1638 : 		return (this->_BUF_SIZE <= _Myres);

  0001c	48 83 fa 10	 cmp	 rdx, 16

; 1631 : 		return (_Large_string_engaged()

  00020	72 03		 jb	 SHORT $LN18@assign
; File c:\users\alist_000\cppmisc\packages\visualcpptools.14.0.24629\lib\native\include\xstddef

; 642  : 	return (_Ptr);

  00022	48 8b 09	 mov	 rcx, QWORD PTR [rcx]
$LN18@assign:
; File c:\users\alist_000\cppmisc\packages\visualcpptools.14.0.24629\lib\native\include\xstring

; 3533 : 		return (_My_chars <= _Ptr && _Ptr < _My_chars + _My_data._Mysize);

  00025	48 3b ce	 cmp	 rcx, rsi
  00028	77 3a		 ja	 SHORT $LN2@assign
  0002a	48 03 4b 10	 add	 rcx, QWORD PTR [rbx+16]
  0002e	48 3b f1	 cmp	 rsi, rcx
  00031	73 31		 jae	 SHORT $LN2@assign

; 1638 : 		return (this->_BUF_SIZE <= _Myres);

  00033	48 83 fa 10	 cmp	 rdx, 16

; 1624 : 		return (_Large_string_engaged()

  00037	72 05		 jb	 SHORT $LN33@assign
; File c:\users\alist_000\cppmisc\packages\visualcpptools.14.0.24629\lib\native\include\xstddef

; 642  : 	return (_Ptr);

  00039	48 8b 03	 mov	 rax, QWORD PTR [rbx]
; File c:\users\alist_000\cppmisc\packages\visualcpptools.14.0.24629\lib\native\include\xstring

; 1624 : 		return (_Large_string_engaged()

  0003c	eb 03		 jmp	 SHORT $LN34@assign
$LN33@assign:
  0003e	48 8b c3	 mov	 rax, rbx
$LN34@assign:

; 2362 : 		if (_Inside(_Ptr))
; 2363 : 			{
; 2364 : 			return (assign(*this, _Ptr - this->_Myptr(), _Count));	// substring

  00041	48 2b f0	 sub	 rsi, rax
  00044	4c 8b cf	 mov	 r9, rdi
  00047	4c 8b c6	 mov	 r8, rsi
  0004a	48 8b d3	 mov	 rdx, rbx
  0004d	48 8b cb	 mov	 rcx, rbx

; 2373 : 		}

  00050	48 8b 5c 24 30	 mov	 rbx, QWORD PTR [rsp+48]
  00055	48 8b 74 24 38	 mov	 rsi, QWORD PTR [rsp+56]
  0005a	48 83 c4 20	 add	 rsp, 32			; 00000020H
  0005e	5f		 pop	 rdi

; 2362 : 		if (_Inside(_Ptr))
; 2363 : 			{
; 2364 : 			return (assign(*this, _Ptr - this->_Myptr(), _Count));	// substring

  0005f	e9 00 00 00 00	 jmp	 ?assign@?$basic_string@DU?$char_traits@D@std@@V?$allocator@D@2@@std@@QEAAAEAV12@AEBV12@_K_K@Z ; std::basic_string<char,std::char_traits<char>,std::allocator<char> >::assign
$LN2@assign:

; 3515 : 		if (_Newsize == 0)

  00064	48 85 ff	 test	 rdi, rdi
  00067	75 39		 jne	 SHORT $LN40@assign

; 3510 : 		_Traits::assign(_My_data._Myptr()[_My_data._Mysize = _Newsize], _Elem());

  00069	48 89 7b 10	 mov	 QWORD PTR [rbx+16], rdi

; 1638 : 		return (this->_BUF_SIZE <= _Myres);

  0006d	48 83 fa 10	 cmp	 rdx, 16

; 1624 : 		return (_Large_string_engaged()

  00071	72 19		 jb	 SHORT $LN53@assign
; File c:\users\alist_000\cppmisc\packages\visualcpptools.14.0.24629\lib\native\include\xstddef

; 642  : 	return (_Ptr);

  00073	48 8b 03	 mov	 rax, QWORD PTR [rbx]
; File c:\users\alist_000\cppmisc\packages\visualcpptools.14.0.24629\lib\native\include\iosfwd

; 516  : 		_Left = _Right;

  00076	40 88 38	 mov	 BYTE PTR [rax], dil
; File c:\users\alist_000\cppmisc\packages\visualcpptools.14.0.24629\lib\native\include\xstring

; 2372 : 		return (*this);

  00079	48 8b c3	 mov	 rax, rbx

; 2373 : 		}

  0007c	48 8b 5c 24 30	 mov	 rbx, QWORD PTR [rsp+48]
  00081	48 8b 74 24 38	 mov	 rsi, QWORD PTR [rsp+56]
  00086	48 83 c4 20	 add	 rsp, 32			; 00000020H
  0008a	5f		 pop	 rdi
  0008b	c3		 ret	 0
$LN53@assign:

; 1624 : 		return (_Large_string_engaged()

  0008c	48 8b c3	 mov	 rax, rbx
; File c:\users\alist_000\cppmisc\packages\visualcpptools.14.0.24629\lib\native\include\iosfwd

; 516  : 		_Left = _Right;

  0008f	c6 03 00	 mov	 BYTE PTR [rbx], 0
; File c:\users\alist_000\cppmisc\packages\visualcpptools.14.0.24629\lib\native\include\xstring

; 2373 : 		}

  00092	48 8b 5c 24 30	 mov	 rbx, QWORD PTR [rsp+48]
  00097	48 8b 74 24 38	 mov	 rsi, QWORD PTR [rsp+56]
  0009c	48 83 c4 20	 add	 rsp, 32			; 00000020H
  000a0	5f		 pop	 rdi
  000a1	c3		 ret	 0
$LN40@assign:

; 3521 : 		if (this->_Myres() < _Newsize)

  000a2	48 3b d7	 cmp	 rdx, rdi
  000a5	73 0b		 jae	 SHORT $LN41@assign

; 3522 : 			{	// reallocate to grow
; 3523 : 			_Copy(_Newsize);

  000a7	48 8b d7	 mov	 rdx, rdi
  000aa	48 8b cb	 mov	 rcx, rbx
  000ad	e8 00 00 00 00	 call	 ?_Copy@?$basic_string@DU?$char_traits@D@std@@V?$allocator@D@2@@std@@QEAAX_K@Z ; std::basic_string<char,std::char_traits<char>,std::allocator<char> >::_Copy
$LN41@assign:

; 1638 : 		return (this->_BUF_SIZE <= _Myres);

  000b2	48 83 7b 18 10	 cmp	 QWORD PTR [rbx+24], 16

; 1624 : 		return (_Large_string_engaged()

  000b7	72 05		 jb	 SHORT $LN81@assign
; File c:\users\alist_000\cppmisc\packages\visualcpptools.14.0.24629\lib\native\include\xstddef

; 642  : 	return (_Ptr);

  000b9	48 8b 0b	 mov	 rcx, QWORD PTR [rbx]
; File c:\users\alist_000\cppmisc\packages\visualcpptools.14.0.24629\lib\native\include\xstring

; 1624 : 		return (_Large_string_engaged()

  000bc	eb 03		 jmp	 SHORT $LN82@assign
$LN81@assign:
  000be	48 8b cb	 mov	 rcx, rbx
$LN82@assign:
; File c:\users\alist_000\cppmisc\packages\visualcpptools.14.0.24629\lib\native\include\iosfwd

; 485  : 		return ((_Elem *)_CSTD memcpy(_First1, _First2, _Count));

  000c1	4c 8b c7	 mov	 r8, rdi
  000c4	48 8b d6	 mov	 rdx, rsi
  000c7	e8 00 00 00 00	 call	 memcpy
; File c:\users\alist_000\cppmisc\packages\visualcpptools.14.0.24629\lib\native\include\xstring

; 1638 : 		return (this->_BUF_SIZE <= _Myres);

  000cc	48 83 7b 18 10	 cmp	 QWORD PTR [rbx+24], 16

; 3510 : 		_Traits::assign(_My_data._Myptr()[_My_data._Mysize = _Newsize], _Elem());

  000d1	48 89 7b 10	 mov	 QWORD PTR [rbx+16], rdi

; 1624 : 		return (_Large_string_engaged()

  000d5	72 05		 jb	 SHORT $LN100@assign
; File c:\users\alist_000\cppmisc\packages\visualcpptools.14.0.24629\lib\native\include\xstddef

; 642  : 	return (_Ptr);

  000d7	48 8b 03	 mov	 rax, QWORD PTR [rbx]
; File c:\users\alist_000\cppmisc\packages\visualcpptools.14.0.24629\lib\native\include\xstring

; 1624 : 		return (_Large_string_engaged()

  000da	eb 03		 jmp	 SHORT $LN101@assign
$LN100@assign:
  000dc	48 8b c3	 mov	 rax, rbx
$LN101@assign:

; 2373 : 		}

  000df	48 8b 74 24 38	 mov	 rsi, QWORD PTR [rsp+56]
; File c:\users\alist_000\cppmisc\packages\visualcpptools.14.0.24629\lib\native\include\iosfwd

; 516  : 		_Left = _Right;

  000e4	c6 04 38 00	 mov	 BYTE PTR [rax+rdi], 0
; File c:\users\alist_000\cppmisc\packages\visualcpptools.14.0.24629\lib\native\include\xstring

; 2372 : 		return (*this);

  000e8	48 8b c3	 mov	 rax, rbx

; 2373 : 		}

  000eb	48 8b 5c 24 30	 mov	 rbx, QWORD PTR [rsp+48]
  000f0	48 83 c4 20	 add	 rsp, 32			; 00000020H
  000f4	5f		 pop	 rdi
  000f5	c3		 ret	 0
?assign@?$basic_string@DU?$char_traits@D@std@@V?$allocator@D@2@@std@@QEAAAEAV12@QEBD_K@Z ENDP ; std::basic_string<char,std::char_traits<char>,std::allocator<char> >::assign
_TEXT	ENDS
; Function compile flags: /Ogtpy
; File c:\users\alist_000\cppmisc\packages\visualcpptools.14.0.24629\lib\native\include\xstring
; File c:\users\alist_000\cppmisc\packages\visualcpptools.14.0.24629\lib\native\include\utility
; File c:\users\alist_000\cppmisc\packages\visualcpptools.14.0.24629\lib\native\include\xstring
; File c:\users\alist_000\cppmisc\packages\visualcpptools.14.0.24629\lib\native\include\xstddef
; File c:\users\alist_000\cppmisc\packages\visualcpptools.14.0.24629\lib\native\include\iosfwd
; File c:\users\alist_000\cppmisc\packages\visualcpptools.14.0.24629\lib\native\include\xstring
; File c:\users\alist_000\cppmisc\packages\visualcpptools.14.0.24629\lib\native\include\xstddef
; File c:\users\alist_000\cppmisc\packages\visualcpptools.14.0.24629\lib\native\include\iosfwd
; File c:\users\alist_000\cppmisc\packages\visualcpptools.14.0.24629\lib\native\include\xstring
; File c:\users\alist_000\cppmisc\packages\visualcpptools.14.0.24629\lib\native\include\iosfwd
; File c:\users\alist_000\cppmisc\packages\visualcpptools.14.0.24629\lib\native\include\xstring
; File c:\users\alist_000\cppmisc\packages\visualcpptools.14.0.24629\lib\native\include\xstddef
; File c:\users\alist_000\cppmisc\packages\visualcpptools.14.0.24629\lib\native\include\xstring
; File c:\users\alist_000\cppmisc\packages\visualcpptools.14.0.24629\lib\native\include\xstddef
; File c:\users\alist_000\cppmisc\packages\visualcpptools.14.0.24629\lib\native\include\xstring
; File c:\users\alist_000\cppmisc\packages\visualcpptools.14.0.24629\lib\native\include\iosfwd
; File c:\users\alist_000\cppmisc\packages\visualcpptools.14.0.24629\lib\native\include\xstring
; File c:\users\alist_000\cppmisc\packages\visualcpptools.14.0.24629\lib\native\include\xstddef
; File c:\users\alist_000\cppmisc\packages\visualcpptools.14.0.24629\lib\native\include\xstring
; File c:\users\alist_000\cppmisc\packages\visualcpptools.14.0.24629\lib\native\include\iosfwd
; File c:\users\alist_000\cppmisc\packages\visualcpptools.14.0.24629\lib\native\include\xstring
;	COMDAT ?assign@?$basic_string@DU?$char_traits@D@std@@V?$allocator@D@2@@std@@QEAAAEAV12@AEBV12@_K_K@Z
_TEXT	SEGMENT
this$ = 48
_Right$ = 56
_Roff$ = 64
_Count$ = 72
?assign@?$basic_string@DU?$char_traits@D@std@@V?$allocator@D@2@@std@@QEAAAEAV12@AEBV12@_K_K@Z PROC ; std::basic_string<char,std::char_traits<char>,std::allocator<char> >::assign, COMDAT

; 2329 : 		{	// assign _Right [_Roff, _Roff + _Count)

$LN159:
  00000	48 89 5c 24 08	 mov	 QWORD PTR [rsp+8], rbx
  00005	48 89 74 24 10	 mov	 QWORD PTR [rsp+16], rsi
  0000a	48 89 7c 24 18	 mov	 QWORD PTR [rsp+24], rdi
  0000f	41 56		 push	 r14
  00011	48 83 ec 20	 sub	 rsp, 32			; 00000020H

; 3572 : 		if (this->_Mysize() < _Off)

  00015	48 8b 42 10	 mov	 rax, QWORD PTR [rdx+16]

; 2329 : 		{	// assign _Right [_Roff, _Roff + _Count)

  00019	49 8b f9	 mov	 rdi, r9
  0001c	4d 8b f0	 mov	 r14, r8
  0001f	48 8b f2	 mov	 rsi, rdx
  00022	48 8b d9	 mov	 rbx, rcx

; 3572 : 		if (this->_Mysize() < _Off)

  00025	49 3b c0	 cmp	 rax, r8
  00028	0f 82 be 00 00
	00		 jb	 $LN156@assign

; 3353 : 		return (_Min_value(_Size, this->_Mysize() - _Off));

  0002e	49 2b c0	 sub	 rax, r8
; File c:\users\alist_000\cppmisc\packages\visualcpptools.14.0.24629\lib\native\include\utility

; 24   : 	return (_Right < _Left ? _Right : _Left);

  00031	49 3b c1	 cmp	 rax, r9
  00034	48 0f 42 f8	 cmovb	 rdi, rax
; File c:\users\alist_000\cppmisc\packages\visualcpptools.14.0.24629\lib\native\include\xstring

; 2333 : 		if (this == &_Right)

  00038	48 3b ca	 cmp	 rcx, rdx
  0003b	75 2c		 jne	 SHORT $LN2@assign

; 2335 : 			erase((size_type)(_Roff + _Count)), erase(0, _Roff);	// substring

  0003d	49 8d 04 38	 lea	 rax, QWORD PTR [r8+rdi]

; 3572 : 		if (this->_Mysize() < _Off)

  00041	48 39 41 10	 cmp	 QWORD PTR [rcx+16], rax
  00045	0f 82 a7 00 00
	00		 jb	 $LN158@assign

; 3510 : 		_Traits::assign(_My_data._Myptr()[_My_data._Mysize = _Newsize], _Elem());

  0004b	48 89 41 10	 mov	 QWORD PTR [rcx+16], rax

; 1638 : 		return (this->_BUF_SIZE <= _Myres);

  0004f	48 83 79 18 10	 cmp	 QWORD PTR [rcx+24], 16

; 1624 : 		return (_Large_string_engaged()

  00054	72 03		 jb	 SHORT $LN60@assign
; File c:\users\alist_000\cppmisc\packages\visualcpptools.14.0.24629\lib\native\include\xstddef

; 642  : 	return (_Ptr);

  00056	48 8b 09	 mov	 rcx, QWORD PTR [rcx]
$LN60@assign:
; File c:\users\alist_000\cppmisc\packages\visualcpptools.14.0.24629\lib\native\include\iosfwd

; 516  : 		_Left = _Right;

  00059	c6 04 01 00	 mov	 BYTE PTR [rcx+rax], 0
; File c:\users\alist_000\cppmisc\packages\visualcpptools.14.0.24629\lib\native\include\xstring

; 2335 : 			erase((size_type)(_Roff + _Count)), erase(0, _Roff);	// substring

  0005d	33 d2		 xor	 edx, edx
  0005f	48 8b cb	 mov	 rcx, rbx
  00062	e8 00 00 00 00	 call	 ?erase@?$basic_string@DU?$char_traits@D@std@@V?$allocator@D@2@@std@@QEAAAEAV12@_K0@Z ; std::basic_string<char,std::char_traits<char>,std::allocator<char> >::erase

; 2336 : 			}
; 2337 : 		else if (_Grow(_Count))

  00067	eb 6a		 jmp	 SHORT $LN152@assign
$LN2@assign:

; 3515 : 		if (_Newsize == 0)

  00069	48 85 ff	 test	 rdi, rdi
  0006c	75 1b		 jne	 SHORT $LN69@assign

; 1638 : 		return (this->_BUF_SIZE <= _Myres);

  0006e	48 83 79 18 10	 cmp	 QWORD PTR [rcx+24], 16

; 3510 : 		_Traits::assign(_My_data._Myptr()[_My_data._Mysize = _Newsize], _Elem());

  00073	48 89 79 10	 mov	 QWORD PTR [rcx+16], rdi

; 1624 : 		return (_Large_string_engaged()

  00077	72 08		 jb	 SHORT $LN82@assign
; File c:\users\alist_000\cppmisc\packages\visualcpptools.14.0.24629\lib\native\include\xstddef

; 642  : 	return (_Ptr);

  00079	48 8b 01	 mov	 rax, QWORD PTR [rcx]
; File c:\users\alist_000\cppmisc\packages\visualcpptools.14.0.24629\lib\native\include\iosfwd

; 516  : 		_Left = _Right;

  0007c	40 88 38	 mov	 BYTE PTR [rax], dil
; File c:\users\alist_000\cppmisc\packages\visualcpptools.14.0.24629\lib\native\include\xstring

; 3518 : 			return (false);

  0007f	eb 52		 jmp	 SHORT $LN152@assign
$LN82@assign:

; 1624 : 		return (_Large_string_engaged()

  00081	48 8b c3	 mov	 rax, rbx
; File c:\users\alist_000\cppmisc\packages\visualcpptools.14.0.24629\lib\native\include\iosfwd

; 516  : 		_Left = _Right;

  00084	c6 03 00	 mov	 BYTE PTR [rbx], 0
; File c:\users\alist_000\cppmisc\packages\visualcpptools.14.0.24629\lib\native\include\xstring

; 3518 : 			return (false);

  00087	eb 4a		 jmp	 SHORT $LN152@assign
$LN69@assign:

; 3519 : 			}
; 3520 : 
; 3521 : 		if (this->_Myres() < _Newsize)

  00089	48 39 79 18	 cmp	 QWORD PTR [rcx+24], rdi
  0008d	73 08		 jae	 SHORT $LN70@assign

; 3522 : 			{	// reallocate to grow
; 3523 : 			_Copy(_Newsize);

  0008f	48 8b d7	 mov	 rdx, rdi
  00092	e8 00 00 00 00	 call	 ?_Copy@?$basic_string@DU?$char_traits@D@std@@V?$allocator@D@2@@std@@QEAAX_K@Z ; std::basic_string<char,std::char_traits<char>,std::allocator<char> >::_Copy
$LN70@assign:

; 1638 : 		return (this->_BUF_SIZE <= _Myres);

  00097	48 83 7e 18 10	 cmp	 QWORD PTR [rsi+24], 16

; 1631 : 		return (_Large_string_engaged()

  0009c	72 03		 jb	 SHORT $LN110@assign
; File c:\users\alist_000\cppmisc\packages\visualcpptools.14.0.24629\lib\native\include\xstddef

; 642  : 	return (_Ptr);

  0009e	48 8b 36	 mov	 rsi, QWORD PTR [rsi]
$LN110@assign:
; File c:\users\alist_000\cppmisc\packages\visualcpptools.14.0.24629\lib\native\include\xstring

; 1638 : 		return (this->_BUF_SIZE <= _Myres);

  000a1	48 83 7b 18 10	 cmp	 QWORD PTR [rbx+24], 16

; 1624 : 		return (_Large_string_engaged()

  000a6	72 05		 jb	 SHORT $LN126@assign
; File c:\users\alist_000\cppmisc\packages\visualcpptools.14.0.24629\lib\native\include\xstddef

; 642  : 	return (_Ptr);

  000a8	48 8b 0b	 mov	 rcx, QWORD PTR [rbx]
; File c:\users\alist_000\cppmisc\packages\visualcpptools.14.0.24629\lib\native\include\xstring

; 1624 : 		return (_Large_string_engaged()

  000ab	eb 03		 jmp	 SHORT $LN127@assign
$LN126@assign:
  000ad	48 8b cb	 mov	 rcx, rbx
$LN127@assign:

; 2338 : 			{	// make room and assign new stuff
; 2339 : 			_Traits::copy(this->_Myptr(), _Right._Myptr() + _Roff, _Count);

  000b0	4a 8d 14 36	 lea	 rdx, QWORD PTR [rsi+r14]
; File c:\users\alist_000\cppmisc\packages\visualcpptools.14.0.24629\lib\native\include\iosfwd

; 485  : 		return ((_Elem *)_CSTD memcpy(_First1, _First2, _Count));

  000b4	4c 8b c7	 mov	 r8, rdi
  000b7	e8 00 00 00 00	 call	 memcpy
; File c:\users\alist_000\cppmisc\packages\visualcpptools.14.0.24629\lib\native\include\xstring

; 1638 : 		return (this->_BUF_SIZE <= _Myres);

  000bc	48 83 7b 18 10	 cmp	 QWORD PTR [rbx+24], 16

; 3510 : 		_Traits::assign(_My_data._Myptr()[_My_data._Mysize = _Newsize], _Elem());

  000c1	48 89 7b 10	 mov	 QWORD PTR [rbx+16], rdi

; 1624 : 		return (_Large_string_engaged()

  000c5	72 05		 jb	 SHORT $LN145@assign
; File c:\users\alist_000\cppmisc\packages\visualcpptools.14.0.24629\lib\native\include\xstddef

; 642  : 	return (_Ptr);

  000c7	48 8b 03	 mov	 rax, QWORD PTR [rbx]
; File c:\users\alist_000\cppmisc\packages\visualcpptools.14.0.24629\lib\native\include\xstring

; 1624 : 		return (_Large_string_engaged()

  000ca	eb 03		 jmp	 SHORT $LN146@assign
$LN145@assign:
  000cc	48 8b c3	 mov	 rax, rbx
$LN146@assign:
; File c:\users\alist_000\cppmisc\packages\visualcpptools.14.0.24629\lib\native\include\iosfwd

; 516  : 		_Left = _Right;

  000cf	c6 04 38 00	 mov	 BYTE PTR [rax+rdi], 0
$LN152@assign:
; File c:\users\alist_000\cppmisc\packages\visualcpptools.14.0.24629\lib\native\include\xstring

; 2343 : 		}

  000d3	48 8b 74 24 38	 mov	 rsi, QWORD PTR [rsp+56]
  000d8	48 8b c3	 mov	 rax, rbx
  000db	48 8b 5c 24 30	 mov	 rbx, QWORD PTR [rsp+48]
  000e0	48 8b 7c 24 40	 mov	 rdi, QWORD PTR [rsp+64]
  000e5	48 83 c4 20	 add	 rsp, 32			; 00000020H
  000e9	41 5e		 pop	 r14
  000eb	c3		 ret	 0
$LN156@assign:

; 3573 : 			_Xran();

  000ec	e8 00 00 00 00	 call	 ?_Xran@?$basic_string@DU?$char_traits@D@std@@V?$allocator@D@2@@std@@SAXXZ ; std::basic_string<char,std::char_traits<char>,std::allocator<char> >::_Xran
  000f1	cc		 int	 3
$LN158@assign:
  000f2	e8 00 00 00 00	 call	 ?_Xran@?$basic_string@DU?$char_traits@D@std@@V?$allocator@D@2@@std@@SAXXZ ; std::basic_string<char,std::char_traits<char>,std::allocator<char> >::_Xran
  000f7	cc		 int	 3
$LN155@assign:
?assign@?$basic_string@DU?$char_traits@D@std@@V?$allocator@D@2@@std@@QEAAAEAV12@AEBV12@_K_K@Z ENDP ; std::basic_string<char,std::char_traits<char>,std::allocator<char> >::assign
_TEXT	ENDS
; Function compile flags: /Ogtpy
; File c:\users\alist_000\cppmisc\packages\visualcpptools.14.0.24629\lib\native\include\xutility
;	COMDAT ?_Get_first@?$_Compressed_pair@U?$_Wrap_alloc@V?$allocator@Vthread@std@@@std@@@std@@V?$_Vector_val@U?$_Simple_types@Vthread@std@@@std@@@2@$00@std@@QEBAAEBU?$_Wrap_alloc@V?$allocator@Vthread@std@@@std@@@2@XZ
_TEXT	SEGMENT
this$ = 8
?_Get_first@?$_Compressed_pair@U?$_Wrap_alloc@V?$allocator@Vthread@std@@@std@@@std@@V?$_Vector_val@U?$_Simple_types@Vthread@std@@@std@@@2@$00@std@@QEBAAEBU?$_Wrap_alloc@V?$allocator@Vthread@std@@@std@@@2@XZ PROC ; std::_Compressed_pair<std::_Wrap_alloc<std::allocator<std::thread> >,std::_Vector_val<std::_Simple_types<std::thread> >,1>::_Get_first, COMDAT

; 314  : 		return (*this);

  00000	48 8b c1	 mov	 rax, rcx

; 315  : 		}

  00003	c3		 ret	 0
?_Get_first@?$_Compressed_pair@U?$_Wrap_alloc@V?$allocator@Vthread@std@@@std@@@std@@V?$_Vector_val@U?$_Simple_types@Vthread@std@@@std@@@2@$00@std@@QEBAAEBU?$_Wrap_alloc@V?$allocator@Vthread@std@@@std@@@2@XZ ENDP ; std::_Compressed_pair<std::_Wrap_alloc<std::allocator<std::thread> >,std::_Vector_val<std::_Simple_types<std::thread> >,1>::_Get_first
_TEXT	ENDS
; Function compile flags: /Ogtpy
; File c:\users\alist_000\cppmisc\packages\visualcpptools.14.0.24629\lib\native\include\xutility
;	COMDAT ?_Get_first@?$_Compressed_pair@U?$_Wrap_alloc@V?$allocator@Vthread@std@@@std@@@std@@V?$_Vector_val@U?$_Simple_types@Vthread@std@@@std@@@2@$00@std@@QEAAAEAU?$_Wrap_alloc@V?$allocator@Vthread@std@@@std@@@2@XZ
_TEXT	SEGMENT
this$ = 8
?_Get_first@?$_Compressed_pair@U?$_Wrap_alloc@V?$allocator@Vthread@std@@@std@@@std@@V?$_Vector_val@U?$_Simple_types@Vthread@std@@@std@@@2@$00@std@@QEAAAEAU?$_Wrap_alloc@V?$allocator@Vthread@std@@@std@@@2@XZ PROC ; std::_Compressed_pair<std::_Wrap_alloc<std::allocator<std::thread> >,std::_Vector_val<std::_Simple_types<std::thread> >,1>::_Get_first, COMDAT

; 309  : 		return (*this);

  00000	48 8b c1	 mov	 rax, rcx

; 310  : 		}

  00003	c3		 ret	 0
?_Get_first@?$_Compressed_pair@U?$_Wrap_alloc@V?$allocator@Vthread@std@@@std@@@std@@V?$_Vector_val@U?$_Simple_types@Vthread@std@@@std@@@2@$00@std@@QEAAAEAU?$_Wrap_alloc@V?$allocator@Vthread@std@@@std@@@2@XZ ENDP ; std::_Compressed_pair<std::_Wrap_alloc<std::allocator<std::thread> >,std::_Vector_val<std::_Simple_types<std::thread> >,1>::_Get_first
_TEXT	ENDS
; Function compile flags: /Ogtpy
; File c:\users\alist_000\cppmisc\packages\visualcpptools.14.0.24629\lib\native\include\xmemory0
;	COMDAT ?max_size@?$allocator_traits@V?$allocator@Vthread@std@@@std@@@std@@SA_KAEBV?$allocator@Vthread@std@@@2@@Z
_TEXT	SEGMENT
_Al$dead$ = 8
?max_size@?$allocator_traits@V?$allocator@Vthread@std@@@std@@@std@@SA_KAEBV?$allocator@Vthread@std@@@2@@Z PROC ; std::allocator_traits<std::allocator<std::thread> >::max_size, COMDAT

; 963  : 		return (_Al.max_size());

  00000	48 b8 ff ff ff
	ff ff ff ff 0f	 mov	 rax, 1152921504606846975 ; 0fffffffffffffffH

; 964  : 		}

  0000a	c3		 ret	 0
?max_size@?$allocator_traits@V?$allocator@Vthread@std@@@std@@@std@@SA_KAEBV?$allocator@Vthread@std@@@2@@Z ENDP ; std::allocator_traits<std::allocator<std::thread> >::max_size
_TEXT	ENDS
; Function compile flags: /Ogtpy
; File c:\users\alist_000\cppmisc\packages\visualcpptools.14.0.24629\lib\native\include\vector
;	COMDAT ?_Mylast@?$_Vector_alloc@U?$_Vec_base_types@Vthread@std@@V?$allocator@Vthread@std@@@2@@std@@@std@@QEBAAEBQEAVthread@2@XZ
_TEXT	SEGMENT
this$ = 8
?_Mylast@?$_Vector_alloc@U?$_Vec_base_types@Vthread@std@@V?$allocator@Vthread@std@@@2@@std@@@std@@QEBAAEBQEAVthread@2@XZ PROC ; std::_Vector_alloc<std::_Vec_base_types<std::thread,std::allocator<std::thread> > >::_Mylast, COMDAT

; 668  : 		return (_Get_data()._Mylast);

  00000	48 8d 41 08	 lea	 rax, QWORD PTR [rcx+8]

; 669  : 		}

  00004	c3		 ret	 0
?_Mylast@?$_Vector_alloc@U?$_Vec_base_types@Vthread@std@@V?$allocator@Vthread@std@@@2@@std@@@std@@QEBAAEBQEAVthread@2@XZ ENDP ; std::_Vector_alloc<std::_Vec_base_types<std::thread,std::allocator<std::thread> > >::_Mylast
_TEXT	ENDS
; Function compile flags: /Ogtpy
; File c:\users\alist_000\cppmisc\packages\visualcpptools.14.0.24629\lib\native\include\vector
;	COMDAT ?_Get_data@?$_Vector_alloc@U?$_Vec_base_types@Vthread@std@@V?$allocator@Vthread@std@@@2@@std@@@std@@QEBAAEBV?$_Vector_val@U?$_Simple_types@Vthread@std@@@std@@@2@XZ
_TEXT	SEGMENT
this$ = 8
?_Get_data@?$_Vector_alloc@U?$_Vec_base_types@Vthread@std@@V?$allocator@Vthread@std@@@2@@std@@@std@@QEBAAEBV?$_Vector_val@U?$_Simple_types@Vthread@std@@@std@@@2@XZ PROC ; std::_Vector_alloc<std::_Vec_base_types<std::thread,std::allocator<std::thread> > >::_Get_data, COMDAT

; 648  : 		return (_Mypair._Get_second());

  00000	48 8b c1	 mov	 rax, rcx

; 649  : 		}

  00003	c3		 ret	 0
?_Get_data@?$_Vector_alloc@U?$_Vec_base_types@Vthread@std@@V?$allocator@Vthread@std@@@2@@std@@@std@@QEBAAEBV?$_Vector_val@U?$_Simple_types@Vthread@std@@@std@@@2@XZ ENDP ; std::_Vector_alloc<std::_Vec_base_types<std::thread,std::allocator<std::thread> > >::_Get_data
_TEXT	ENDS
; Function compile flags: /Ogtpy
; File c:\users\alist_000\cppmisc\packages\visualcpptools.14.0.24629\lib\native\include\vector
; File c:\users\alist_000\cppmisc\packages\visualcpptools.14.0.24629\lib\native\include\xmemory
; File c:\users\alist_000\cppmisc\packages\visualcpptools.14.0.24629\lib\native\include\vector
;	COMDAT ?_Umove_if_noexcept1@?$vector@Vthread@std@@V?$allocator@Vthread@std@@@2@@std@@AEAAXPEAVthread@2@00U?$integral_constant@_N$00@2@@Z
_TEXT	SEGMENT
this$dead$ = 64
_First$ = 72
_Last$ = 80
_Dest$ = 88
__formal$dead$ = 96
?_Umove_if_noexcept1@?$vector@Vthread@std@@V?$allocator@Vthread@std@@@2@@std@@AEAAXPEAVthread@2@00U?$integral_constant@_N$00@2@@Z PROC ; std::vector<std::thread,std::allocator<std::thread> >::_Umove_if_noexcept1, COMDAT

; 1842 : 		{	// move [_First, _Last) to raw _Dest, using allocator

$LN27:
  00000	48 83 ec 38	 sub	 rsp, 56			; 00000038H
  00004	49 8b c0	 mov	 rax, r8
  00007	48 8b ca	 mov	 rcx, rdx
; File c:\users\alist_000\cppmisc\packages\visualcpptools.14.0.24629\lib\native\include\xmemory

; 302  : 	return (_Uninitialized_move_al_unchecked1(_First, _Last, _Dest, _Al,

  0000a	48 8b d0	 mov	 rdx, rax
  0000d	4d 8b c1	 mov	 r8, r9
  00010	e8 00 00 00 00	 call	 ??$_Uninitialized_move_al_unchecked1@PEAVthread@std@@PEAV12@V?$allocator@Vthread@std@@@2@@std@@YAPEAVthread@0@PEAV10@00AEAU?$_Wrap_alloc@V?$allocator@Vthread@std@@@std@@@0@U_General_ptr_iterator_tag@0@U_Any_tag@0@@Z ; std::_Uninitialized_move_al_unchecked1<std::thread * __ptr64,std::thread * __ptr64,std::allocator<std::thread> >
; File c:\users\alist_000\cppmisc\packages\visualcpptools.14.0.24629\lib\native\include\vector

; 1844 : 		}

  00015	48 83 c4 38	 add	 rsp, 56			; 00000038H
  00019	c3		 ret	 0
?_Umove_if_noexcept1@?$vector@Vthread@std@@V?$allocator@Vthread@std@@@2@@std@@AEAAXPEAVthread@2@00U?$integral_constant@_N$00@2@@Z ENDP ; std::vector<std::thread,std::allocator<std::thread> >::_Umove_if_noexcept1
_TEXT	ENDS
; Function compile flags: /Ogtpy
; File c:\users\alist_000\cppmisc\packages\visualcpptools.14.0.24629\lib\native\include\xmemory0
;	COMDAT ?allocate@?$allocator@Vthread@std@@@std@@QEAAPEAVthread@2@_K@Z
_TEXT	SEGMENT
this$dead$ = 48
_Count$ = 56
?allocate@?$allocator@Vthread@std@@@std@@QEAAPEAVthread@2@_K@Z PROC ; std::allocator<std::thread>::allocate, COMDAT

; 820  : 		{	// allocate array of _Count elements

$LN17:
  00000	48 83 ec 28	 sub	 rsp, 40			; 00000028H

; 53   : 	if (_Count == 0)

  00004	48 85 d2	 test	 rdx, rdx
  00007	75 09		 jne	 SHORT $LN4@allocate

; 54   : 		return (_Ptr);

  00009	33 c9		 xor	 ecx, ecx

; 821  : 		return (static_cast<pointer>(_Allocate(_Count, sizeof (_Ty))));

  0000b	8b c1		 mov	 eax, ecx

; 822  : 		}

  0000d	48 83 c4 28	 add	 rsp, 40			; 00000028H
  00011	c3		 ret	 0
$LN4@allocate:

; 57   : 	if ((size_t)(-1) / _Sz < _Count)

  00012	48 b8 ff ff ff
	ff ff ff ff 0f	 mov	 rax, 1152921504606846975 ; 0fffffffffffffffH
  0001c	48 3b d0	 cmp	 rdx, rax
  0001f	77 3f		 ja	 SHORT $LN14@allocate

; 59   : 	const size_t _User_size = _Count * _Sz;

  00021	48 c1 e2 04	 shl	 rdx, 4

; 60   : 
; 61   :  #if defined(_M_IX86) || defined(_M_X64)
; 62   : 	if (_Try_aligned_allocation
; 63   : 		&& _BIG_ALLOCATION_THRESHOLD <= _User_size)

  00025	48 81 fa 00 10
	00 00		 cmp	 rdx, 4096		; 00001000H
  0002c	72 22		 jb	 SHORT $LN6@allocate

; 64   : 		{	// allocate large block
; 65   : 		static_assert(sizeof (void *) < _BIG_ALLOCATION_ALIGNMENT,
; 66   : 			"Big allocations should at least match vector register size");
; 67   : 		const size_t _Block_size = _NON_USER_SIZE + _User_size;

  0002e	48 8d 4a 27	 lea	 rcx, QWORD PTR [rdx+39]

; 68   : 		if (_Block_size <= _User_size)

  00032	48 3b ca	 cmp	 rcx, rdx
  00035	76 2f		 jbe	 SHORT $LN16@allocate

; 70   : 		const uintptr_t _Ptr_container =
; 71   : 			reinterpret_cast<uintptr_t>(::operator new(_Block_size));

  00037	e8 00 00 00 00	 call	 ??2@YAPEAX_K@Z		; operator new

; 72   : 		_SCL_SECURE_ALWAYS_VALIDATE(_Ptr_container != 0);
; 73   : 		_Ptr = reinterpret_cast<void *>((_Ptr_container + _NON_USER_SIZE)

  0003c	48 8d 48 27	 lea	 rcx, QWORD PTR [rax+39]
  00040	48 83 e1 e0	 and	 rcx, -32		; ffffffffffffffe0H

; 74   : 			& ~(_BIG_ALLOCATION_ALIGNMENT - 1));
; 75   : 		static_cast<uintptr_t *>(_Ptr)[-1] = _Ptr_container;

  00044	48 89 41 f8	 mov	 QWORD PTR [rcx-8], rax

; 821  : 		return (static_cast<pointer>(_Allocate(_Count, sizeof (_Ty))));

  00048	48 8b c1	 mov	 rax, rcx

; 822  : 		}

  0004b	48 83 c4 28	 add	 rsp, 40			; 00000028H
  0004f	c3		 ret	 0
$LN6@allocate:

; 85   : 		_Ptr = ::operator new(_User_size);

  00050	48 8b ca	 mov	 rcx, rdx
  00053	e8 00 00 00 00	 call	 ??2@YAPEAX_K@Z		; operator new
  00058	48 8b c8	 mov	 rcx, rax

; 822  : 		}

  0005b	48 83 c4 28	 add	 rsp, 40			; 00000028H
  0005f	c3		 ret	 0
$LN14@allocate:

; 58   : 		_Xbad_alloc();	// report no memory

  00060	e8 00 00 00 00	 call	 ?_Xbad_alloc@std@@YAXXZ	; std::_Xbad_alloc
  00065	cc		 int	 3
$LN16@allocate:

; 69   : 			_Xbad_alloc();	// report no memory

  00066	e8 00 00 00 00	 call	 ?_Xbad_alloc@std@@YAXXZ	; std::_Xbad_alloc
  0006b	cc		 int	 3
$LN13@allocate:
?allocate@?$allocator@Vthread@std@@@std@@QEAAPEAVthread@2@_K@Z ENDP ; std::allocator<std::thread>::allocate
_TEXT	ENDS
; Function compile flags: /Ogtpy
; File c:\users\alist_000\cppmisc\packages\visualcpptools.14.0.24629\lib\native\include\xmemory0
;	COMDAT ?deallocate@?$allocator@Vthread@std@@@std@@QEAAXPEAVthread@2@_K@Z
_TEXT	SEGMENT
this$dead$ = 48
_Ptr$ = 56
_Count$ = 64
?deallocate@?$allocator@Vthread@std@@@std@@QEAAXPEAVthread@2@_K@Z PROC ; std::allocator<std::thread>::deallocate, COMDAT

; 815  : 		{	// deallocate object at _Ptr

$LN19:
  00000	48 83 ec 28	 sub	 rsp, 40			; 00000028H

; 96   : 	_SCL_SECURE_ALWAYS_VALIDATE(_Count <= (size_t)(-1) / _Sz);

  00004	48 b8 ff ff ff
	ff ff ff ff 0f	 mov	 rax, 1152921504606846975 ; 0fffffffffffffffH
  0000e	4c 3b c0	 cmp	 r8, rax
  00011	77 39		 ja	 SHORT $LN13@deallocate

; 97   : 	const size_t _User_size = _Count * _Sz;

  00013	49 c1 e0 04	 shl	 r8, 4

; 98   : 	if (_BIG_ALLOCATION_THRESHOLD <= _User_size)

  00017	49 81 f8 00 10
	00 00		 cmp	 r8, 4096		; 00001000H
  0001e	72 20		 jb	 SHORT $LN5@deallocate

; 99   : 		{	// deallocate large block
; 100  : 		const uintptr_t _Ptr_user = reinterpret_cast<uintptr_t>(_Ptr);
; 101  : 		_SCL_SECURE_ALWAYS_VALIDATE(

  00020	f6 c2 1f	 test	 dl, 31
  00023	75 2d		 jne	 SHORT $LN15@deallocate

; 102  : 			(_Ptr_user & (_BIG_ALLOCATION_ALIGNMENT - 1)) == 0);
; 103  : 		const uintptr_t _Ptr_ptr = _Ptr_user - sizeof(void *);
; 104  : 		const uintptr_t _Ptr_container =
; 105  : 			*reinterpret_cast<uintptr_t *>(_Ptr_ptr);

  00025	48 8b 42 f8	 mov	 rax, QWORD PTR [rdx-8]

; 106  : 
; 107  :  #ifdef _DEBUG
; 108  : 		// If the following asserts, it likely means that we are performing
; 109  : 		// an aligned delete on memory coming from an unaligned allocation.
; 110  : 		_SCL_SECURE_ALWAYS_VALIDATE(
; 111  : 			reinterpret_cast<uintptr_t *>(_Ptr_ptr)[-1] ==
; 112  : 				_BIG_ALLOCATION_SENTINEL);
; 113  :  #endif /* _DEBUG */
; 114  : 
; 115  : 		// Extra paranoia on aligned allocation/deallocation
; 116  : 		_SCL_SECURE_ALWAYS_VALIDATE(_Ptr_container < _Ptr_user);

  00029	48 3b c2	 cmp	 rax, rdx
  0002c	73 2a		 jae	 SHORT $LN16@deallocate

; 117  : 
; 118  :  #ifdef _DEBUG
; 119  : 		_SCL_SECURE_ALWAYS_VALIDATE(2 * sizeof(void *)
; 120  : 			<= _Ptr_user - _Ptr_container);
; 121  : 
; 122  :  #else /* _DEBUG */
; 123  : 		_SCL_SECURE_ALWAYS_VALIDATE(sizeof(void *)

  0002e	48 2b d0	 sub	 rdx, rax
  00031	48 83 fa 08	 cmp	 rdx, 8
  00035	72 27		 jb	 SHORT $LN17@deallocate

; 124  : 			<= _Ptr_user - _Ptr_container);
; 125  :  #endif /* _DEBUG */
; 126  : 
; 127  : 		_SCL_SECURE_ALWAYS_VALIDATE(_Ptr_user - _Ptr_container

  00037	48 83 fa 27	 cmp	 rdx, 39			; 00000027H
  0003b	77 27		 ja	 SHORT $LN18@deallocate

; 128  : 			<= _NON_USER_SIZE);
; 129  : 
; 130  : 		_Ptr = reinterpret_cast<void *>(_Ptr_container);

  0003d	48 8b d0	 mov	 rdx, rax
$LN5@deallocate:

; 131  : 		}
; 132  :  #endif /* defined(_M_IX86) || defined(_M_X64) */
; 133  : 
; 134  : 	::operator delete(_Ptr);

  00040	48 8b ca	 mov	 rcx, rdx

; 816  : 		_Deallocate(_Ptr, _Count, sizeof (_Ty));
; 817  : 		}

  00043	48 83 c4 28	 add	 rsp, 40			; 00000028H

; 134  : 	::operator delete(_Ptr);

  00047	e9 00 00 00 00	 jmp	 ??3@YAXPEAX@Z		; operator delete
$LN13@deallocate:

; 96   : 	_SCL_SECURE_ALWAYS_VALIDATE(_Count <= (size_t)(-1) / _Sz);

  0004c	e8 00 00 00 00	 call	 _invalid_parameter_noinfo_noreturn
  00051	cc		 int	 3
$LN15@deallocate:

; 99   : 		{	// deallocate large block
; 100  : 		const uintptr_t _Ptr_user = reinterpret_cast<uintptr_t>(_Ptr);
; 101  : 		_SCL_SECURE_ALWAYS_VALIDATE(

  00052	e8 00 00 00 00	 call	 _invalid_parameter_noinfo_noreturn
  00057	cc		 int	 3
$LN16@deallocate:

; 106  : 
; 107  :  #ifdef _DEBUG
; 108  : 		// If the following asserts, it likely means that we are performing
; 109  : 		// an aligned delete on memory coming from an unaligned allocation.
; 110  : 		_SCL_SECURE_ALWAYS_VALIDATE(
; 111  : 			reinterpret_cast<uintptr_t *>(_Ptr_ptr)[-1] ==
; 112  : 				_BIG_ALLOCATION_SENTINEL);
; 113  :  #endif /* _DEBUG */
; 114  : 
; 115  : 		// Extra paranoia on aligned allocation/deallocation
; 116  : 		_SCL_SECURE_ALWAYS_VALIDATE(_Ptr_container < _Ptr_user);

  00058	e8 00 00 00 00	 call	 _invalid_parameter_noinfo_noreturn
  0005d	cc		 int	 3
$LN17@deallocate:

; 117  : 
; 118  :  #ifdef _DEBUG
; 119  : 		_SCL_SECURE_ALWAYS_VALIDATE(2 * sizeof(void *)
; 120  : 			<= _Ptr_user - _Ptr_container);
; 121  : 
; 122  :  #else /* _DEBUG */
; 123  : 		_SCL_SECURE_ALWAYS_VALIDATE(sizeof(void *)

  0005e	e8 00 00 00 00	 call	 _invalid_parameter_noinfo_noreturn
  00063	cc		 int	 3
$LN18@deallocate:

; 124  : 			<= _Ptr_user - _Ptr_container);
; 125  :  #endif /* _DEBUG */
; 126  : 
; 127  : 		_SCL_SECURE_ALWAYS_VALIDATE(_Ptr_user - _Ptr_container

  00064	e8 00 00 00 00	 call	 _invalid_parameter_noinfo_noreturn
  00069	cc		 int	 3
$LN12@deallocate:
?deallocate@?$allocator@Vthread@std@@@std@@QEAAXPEAVthread@2@_K@Z ENDP ; std::allocator<std::thread>::deallocate
_TEXT	ENDS
; Function compile flags: /Ogtpy
; File c:\users\alist_000\cppmisc\packages\visualcpptools.14.0.24629\lib\native\include\xutility
;	COMDAT ?_Get_second@?$_Compressed_pair@U?$_Wrap_alloc@V?$allocator@D@std@@@std@@V?$_String_val@U?$_Simple_types@D@std@@@2@$00@std@@QEBAAEBV?$_String_val@U?$_Simple_types@D@std@@@2@XZ
_TEXT	SEGMENT
this$ = 8
?_Get_second@?$_Compressed_pair@U?$_Wrap_alloc@V?$allocator@D@std@@@std@@V?$_String_val@U?$_Simple_types@D@std@@@2@$00@std@@QEBAAEBV?$_String_val@U?$_Simple_types@D@std@@@2@XZ PROC ; std::_Compressed_pair<std::_Wrap_alloc<std::allocator<char> >,std::_String_val<std::_Simple_types<char> >,1>::_Get_second, COMDAT

; 334  : 		return (_Myval2);

  00000	48 8b c1	 mov	 rax, rcx

; 335  : 		}

  00003	c3		 ret	 0
?_Get_second@?$_Compressed_pair@U?$_Wrap_alloc@V?$allocator@D@std@@@std@@V?$_String_val@U?$_Simple_types@D@std@@@2@$00@std@@QEBAAEBV?$_String_val@U?$_Simple_types@D@std@@@2@XZ ENDP ; std::_Compressed_pair<std::_Wrap_alloc<std::allocator<char> >,std::_String_val<std::_Simple_types<char> >,1>::_Get_second
_TEXT	ENDS
; Function compile flags: /Ogtpy
; File c:\users\alist_000\cppmisc\packages\visualcpptools.14.0.24629\lib\native\include\xutility
;	COMDAT ?_Get_second@?$_Compressed_pair@U?$_Wrap_alloc@V?$allocator@D@std@@@std@@V?$_String_val@U?$_Simple_types@D@std@@@2@$00@std@@QEAAAEAV?$_String_val@U?$_Simple_types@D@std@@@2@XZ
_TEXT	SEGMENT
this$ = 8
?_Get_second@?$_Compressed_pair@U?$_Wrap_alloc@V?$allocator@D@std@@@std@@V?$_String_val@U?$_Simple_types@D@std@@@2@$00@std@@QEAAAEAV?$_String_val@U?$_Simple_types@D@std@@@2@XZ PROC ; std::_Compressed_pair<std::_Wrap_alloc<std::allocator<char> >,std::_String_val<std::_Simple_types<char> >,1>::_Get_second, COMDAT

; 329  : 		return (_Myval2);

  00000	48 8b c1	 mov	 rax, rcx

; 330  : 		}

  00003	c3		 ret	 0
?_Get_second@?$_Compressed_pair@U?$_Wrap_alloc@V?$allocator@D@std@@@std@@V?$_String_val@U?$_Simple_types@D@std@@@2@$00@std@@QEAAAEAV?$_String_val@U?$_Simple_types@D@std@@@2@XZ ENDP ; std::_Compressed_pair<std::_Wrap_alloc<std::allocator<char> >,std::_String_val<std::_Simple_types<char> >,1>::_Get_second
_TEXT	ENDS
; Function compile flags: /Ogtpy
; File c:\users\alist_000\cppmisc\packages\visualcpptools.14.0.24629\lib\native\include\xstring
;	COMDAT ?_Orphan_all@?$_String_alloc@U?$_String_base_types@DV?$allocator@D@std@@@std@@@std@@QEAAXXZ
_TEXT	SEGMENT
this$ = 8
?_Orphan_all@?$_String_alloc@U?$_String_base_types@DV?$allocator@D@std@@@std@@@std@@QEAAXXZ PROC ; std::_String_alloc<std::_String_base_types<char,std::allocator<char> > >::_Orphan_all, COMDAT

; 1817 : 		_Get_data()._Orphan_all();
; 1818 : 		}

  00000	c2 00 00	 ret	 0
?_Orphan_all@?$_String_alloc@U?$_String_base_types@DV?$allocator@D@std@@@std@@@std@@QEAAXXZ ENDP ; std::_String_alloc<std::_String_base_types<char,std::allocator<char> > >::_Orphan_all
_TEXT	ENDS
; Function compile flags: /Ogtpy
; File c:\users\alist_000\cppmisc\packages\visualcpptools.14.0.24629\lib\native\include\xstring
;	COMDAT ?_Xran@?$basic_string@DU?$char_traits@D@std@@V?$allocator@D@2@@std@@SAXXZ
_TEXT	SEGMENT
?_Xran@?$basic_string@DU?$char_traits@D@std@@V?$allocator@D@2@@std@@SAXXZ PROC ; std::basic_string<char,std::char_traits<char>,std::allocator<char> >::_Xran, COMDAT

; 3583 : 		{	// report an out_of_range error

$LN4:
  00000	48 83 ec 28	 sub	 rsp, 40			; 00000028H

; 3584 : 		_Xout_of_range("invalid string position");

  00004	48 8d 0d 00 00
	00 00		 lea	 rcx, OFFSET FLAT:??_C@_0BI@CFPLBAOH@invalid?5string?5position?$AA@
  0000b	e8 00 00 00 00	 call	 ?_Xout_of_range@std@@YAXPEBD@Z ; std::_Xout_of_range
  00010	cc		 int	 3
$LN3@Xran:
?_Xran@?$basic_string@DU?$char_traits@D@std@@V?$allocator@D@2@@std@@SAXXZ ENDP ; std::basic_string<char,std::char_traits<char>,std::allocator<char> >::_Xran
_TEXT	ENDS
; Function compile flags: /Ogtpy
; File c:\users\alist_000\cppmisc\packages\visualcpptools.14.0.24629\lib\native\include\xstring
; File c:\users\alist_000\cppmisc\packages\visualcpptools.14.0.24629\lib\native\include\xmemory0
; File c:\users\alist_000\cppmisc\packages\visualcpptools.14.0.24629\lib\native\include\xstring
; File c:\users\alist_000\cppmisc\packages\visualcpptools.14.0.24629\lib\native\include\iosfwd
; File c:\users\alist_000\cppmisc\packages\visualcpptools.14.0.24629\lib\native\include\xstring
; File c:\users\alist_000\cppmisc\packages\visualcpptools.14.0.24629\lib\native\include\iosfwd
; File c:\users\alist_000\cppmisc\packages\visualcpptools.14.0.24629\lib\native\include\xmemory0
; File c:\users\alist_000\cppmisc\packages\visualcpptools.14.0.24629\lib\native\include\xstring
; File c:\users\alist_000\cppmisc\packages\visualcpptools.14.0.24629\lib\native\include\xmemory0
; File c:\users\alist_000\cppmisc\packages\visualcpptools.14.0.24629\lib\native\include\xstring
; File c:\users\alist_000\cppmisc\packages\visualcpptools.14.0.24629\lib\native\include\iosfwd
; File c:\users\alist_000\cppmisc\packages\visualcpptools.14.0.24629\lib\native\include\xmemory0
; File c:\users\alist_000\cppmisc\packages\visualcpptools.14.0.24629\lib\native\include\xstring
;	COMDAT ?_Copy@?$basic_string@DU?$char_traits@D@std@@V?$allocator@D@2@@std@@QEAAX_K@Z
_TEXT	SEGMENT
$T1 = 32
this$ = 96
_Newres$ = 104
_Newsize$ = 104
_Oldres$ = 112
_Ptr$ = 120
?_Copy@?$basic_string@DU?$char_traits@D@std@@V?$allocator@D@2@@std@@QEAAX_K@Z PROC ; std::basic_string<char,std::char_traits<char>,std::allocator<char> >::_Copy, COMDAT

; 3456 : 		{	// reallocate to new buffer of at least _Newsize, copying existing elements there

$LN118:
  00000	48 89 54 24 10	 mov	 QWORD PTR [rsp+16], rdx
  00005	48 89 4c 24 08	 mov	 QWORD PTR [rsp+8], rcx
  0000a	53		 push	 rbx
  0000b	56		 push	 rsi
  0000c	57		 push	 rdi
  0000d	41 56		 push	 r14
  0000f	48 83 ec 38	 sub	 rsp, 56			; 00000038H
  00013	48 c7 44 24 20
	fe ff ff ff	 mov	 QWORD PTR $T1[rsp], -2
  0001c	48 8b f9	 mov	 rdi, rcx

; 3457 : 		const auto _Max = max_size();
; 3458 : 		if (_Newsize > _Max)

  0001f	48 83 fa fe	 cmp	 rdx, -2
  00023	76 06		 jbe	 SHORT $LN2@Copy

; 3459 : 			{	// too long
; 3460 : 			_Xlen();

  00025	e8 00 00 00 00	 call	 ?_Xlen@?$basic_string@DU?$char_traits@D@std@@V?$allocator@D@2@@std@@SAXXZ ; std::basic_string<char,std::char_traits<char>,std::allocator<char> >::_Xlen
  0002a	cc		 int	 3
$LN2@Copy:

; 3461 : 			}
; 3462 : 
; 3463 : 		auto& _My_data = this->_Get_data();
; 3464 : 		const size_type _Oldres = _My_data._Myres;

  0002b	4c 8b 71 18	 mov	 r14, QWORD PTR [rcx+24]
  0002f	4c 89 74 24 70	 mov	 QWORD PTR _Oldres$[rsp], r14

; 3465 : 		size_type _Newres = _Newsize | this->_ALLOC_MASK;

  00034	48 8b da	 mov	 rbx, rdx
  00037	48 83 cb 0f	 or	 rbx, 15

; 3466 : 		if (_Max < _Newres)

  0003b	48 83 fb fe	 cmp	 rbx, -2
  0003f	76 05		 jbe	 SHORT $LN3@Copy

; 3467 : 			{
; 3468 : 			_Newres = _Newsize;	// undo roundup if too big

  00041	48 8b da	 mov	 rbx, rdx
  00044	eb 31		 jmp	 SHORT $LN8@Copy
$LN3@Copy:

; 3469 : 			}
; 3470 : 		else if (_Oldres / 2 <= _Newres / 3)

  00046	49 8b ce	 mov	 rcx, r14
  00049	48 d1 e9	 shr	 rcx, 1
  0004c	48 b8 ab aa aa
	aa aa aa aa aa	 mov	 rax, -6148914691236517205 ; aaaaaaaaaaaaaaabH
  00056	48 f7 e3	 mul	 rbx
  00059	48 d1 ea	 shr	 rdx, 1
  0005c	48 3b ca	 cmp	 rcx, rdx
  0005f	76 16		 jbe	 SHORT $LN8@Copy

; 3471 : 			;
; 3472 : 		else if (_Oldres <= _Max - _Oldres / 2)

  00061	48 c7 c3 fe ff
	ff ff		 mov	 rbx, -2
  00068	48 8b c3	 mov	 rax, rbx
  0006b	48 2b c1	 sub	 rax, rcx
  0006e	4c 3b f0	 cmp	 r14, rax
  00071	77 04		 ja	 SHORT $LN8@Copy

; 3473 : 			{
; 3474 : 			_Newres = _Oldres + _Oldres / 2;	// grow exponentially if possible

  00073	4a 8d 1c 31	 lea	 rbx, QWORD PTR [rcx+r14]
$LN8@Copy:

; 3475 : 			}
; 3476 : 		else
; 3477 : 			{
; 3478 : 			_Newres = _Max;	// settle for max_size()
; 3479 : 			}
; 3480 : 
; 3481 : 		auto& _Al = this->_Getal();
; 3482 : 		pointer _Ptr;
; 3483 : 		_TRY_BEGIN
; 3484 : 			_Ptr = _Al.allocate(_Newres + 1);

  00077	48 8d 4b 01	 lea	 rcx, QWORD PTR [rbx+1]
; File c:\users\alist_000\cppmisc\packages\visualcpptools.14.0.24629\lib\native\include\xmemory0

; 53   : 	if (_Count == 0)

  0007b	48 85 c9	 test	 rcx, rcx
  0007e	75 04		 jne	 SHORT $LN54@Copy

; 54   : 		return (_Ptr);

  00080	33 f6		 xor	 esi, esi
  00082	eb 35		 jmp	 SHORT $LN53@Copy
$LN54@Copy:

; 55   : 
; 56   : 	// check overflow of multiply
; 57   : 	if ((size_t)(-1) / _Sz < _Count)
; 58   : 		_Xbad_alloc();	// report no memory
; 59   : 	const size_t _User_size = _Count * _Sz;
; 60   : 
; 61   :  #if defined(_M_IX86) || defined(_M_X64)
; 62   : 	if (_Try_aligned_allocation
; 63   : 		&& _BIG_ALLOCATION_THRESHOLD <= _User_size)

  00084	48 81 f9 00 10
	00 00		 cmp	 rcx, 4096		; 00001000H
  0008b	72 24		 jb	 SHORT $LN56@Copy

; 64   : 		{	// allocate large block
; 65   : 		static_assert(sizeof (void *) < _BIG_ALLOCATION_ALIGNMENT,
; 66   : 			"Big allocations should at least match vector register size");
; 67   : 		const size_t _Block_size = _NON_USER_SIZE + _User_size;

  0008d	48 8d 41 27	 lea	 rax, QWORD PTR [rcx+39]

; 68   : 		if (_Block_size <= _User_size)

  00091	48 3b c1	 cmp	 rax, rcx
  00094	77 05		 ja	 SHORT $LN58@Copy

; 69   : 			_Xbad_alloc();	// report no memory

  00096	e8 00 00 00 00	 call	 ?_Xbad_alloc@std@@YAXXZ	; std::_Xbad_alloc
$LN58@Copy:

; 70   : 		const uintptr_t _Ptr_container =
; 71   : 			reinterpret_cast<uintptr_t>(::operator new(_Block_size));

  0009b	48 8b c8	 mov	 rcx, rax
  0009e	e8 00 00 00 00	 call	 ??2@YAPEAX_K@Z		; operator new

; 72   : 		_SCL_SECURE_ALWAYS_VALIDATE(_Ptr_container != 0);
; 73   : 		_Ptr = reinterpret_cast<void *>((_Ptr_container + _NON_USER_SIZE)

  000a3	48 8d 70 27	 lea	 rsi, QWORD PTR [rax+39]
  000a7	48 83 e6 e0	 and	 rsi, -32		; ffffffffffffffe0H

; 74   : 			& ~(_BIG_ALLOCATION_ALIGNMENT - 1));
; 75   : 		static_cast<uintptr_t *>(_Ptr)[-1] = _Ptr_container;

  000ab	48 89 46 f8	 mov	 QWORD PTR [rsi-8], rax

; 76   : 
; 77   :  #ifdef _DEBUG
; 78   : 		static_cast<uintptr_t *>(_Ptr)[-2] = _BIG_ALLOCATION_SENTINEL;
; 79   :  #endif /* _DEBUG */
; 80   : 		}
; 81   : 	else

  000af	eb 08		 jmp	 SHORT $LN53@Copy
$LN56@Copy:

; 82   :  #endif /* defined(_M_IX86) || defined(_M_X64) */
; 83   : 
; 84   : 		{	// allocate normal block
; 85   : 		_Ptr = ::operator new(_User_size);

  000b1	e8 00 00 00 00	 call	 ??2@YAPEAX_K@Z		; operator new
  000b6	48 8b f0	 mov	 rsi, rax
$LN53@Copy:
; File c:\users\alist_000\cppmisc\packages\visualcpptools.14.0.24629\lib\native\include\xstring
  000b9	eb 14		 jmp	 SHORT $LN15@Copy
$LN16@Copy:
; File c:\users\alist_000\cppmisc\packages\visualcpptools.14.0.24629\lib\native\include\type_traits
  000bb	48 8b 7c 24 60	 mov	 rdi, QWORD PTR this$[rsp]
  000c0	4c 8b 74 24 70	 mov	 r14, QWORD PTR _Oldres$[rsp]
  000c5	48 8b 5c 24 68	 mov	 rbx, QWORD PTR _Newres$[rsp]
  000ca	48 8b 74 24 78	 mov	 rsi, QWORD PTR _Ptr$[rsp]
$LN15@Copy:
; File c:\users\alist_000\cppmisc\packages\visualcpptools.14.0.24629\lib\native\include\xstring

; 3494 : 			_Traits::copy(_Unfancy(_Ptr), _Unfancy(_My_data._Bx._Ptr), _My_data._Mysize + 1);

  000cf	4c 8b 47 10	 mov	 r8, QWORD PTR [rdi+16]
; File c:\users\alist_000\cppmisc\packages\visualcpptools.14.0.24629\lib\native\include\iosfwd

; 485  : 		return ((_Elem *)_CSTD memcpy(_First1, _First2, _Count));

  000d3	48 8b ce	 mov	 rcx, rsi
; File c:\users\alist_000\cppmisc\packages\visualcpptools.14.0.24629\lib\native\include\xstring

; 3494 : 			_Traits::copy(_Unfancy(_Ptr), _Unfancy(_My_data._Bx._Ptr), _My_data._Mysize + 1);

  000d6	49 ff c0	 inc	 r8

; 1638 : 		return (this->_BUF_SIZE <= _Myres);

  000d9	48 83 7f 18 10	 cmp	 QWORD PTR [rdi+24], 16

; 3485 : 		_CATCH_ALL
; 3486 : 			_Newres = _Newsize;	// allocation failed, undo roundup and retry
; 3487 : 			_Ptr = _Al.allocate(_Newres + 1);	// if throws, *this unmodified
; 3488 : 		_CATCH_END
; 3489 : 
; 3490 : 		// copy existing elements + null terminator
; 3491 : 		this->_Orphan_all();
; 3492 : 		if (_My_data._Large_string_engaged())

  000de	72 56		 jb	 SHORT $LN10@Copy
; File c:\users\alist_000\cppmisc\packages\visualcpptools.14.0.24629\lib\native\include\iosfwd

; 485  : 		return ((_Elem *)_CSTD memcpy(_First1, _First2, _Count));

  000e0	48 8b 17	 mov	 rdx, QWORD PTR [rdi]
  000e3	e8 00 00 00 00	 call	 memcpy
; File c:\users\alist_000\cppmisc\packages\visualcpptools.14.0.24629\lib\native\include\xmemory0

; 816  : 		_Deallocate(_Ptr, _Count, sizeof (_Ty));

  000e8	48 8b 0f	 mov	 rcx, QWORD PTR [rdi]
; File c:\users\alist_000\cppmisc\packages\visualcpptools.14.0.24629\lib\native\include\xstring

; 3495 : 			_Al.deallocate(_My_data._Bx._Ptr, _Oldres + 1);

  000eb	49 8d 46 01	 lea	 rax, QWORD PTR [r14+1]
; File c:\users\alist_000\cppmisc\packages\visualcpptools.14.0.24629\lib\native\include\xmemory0

; 98   : 	if (_BIG_ALLOCATION_THRESHOLD <= _User_size)

  000ef	48 3d 00 10 00
	00		 cmp	 rax, 4096		; 00001000H
  000f5	72 38		 jb	 SHORT $LN80@Copy

; 99   : 		{	// deallocate large block
; 100  : 		const uintptr_t _Ptr_user = reinterpret_cast<uintptr_t>(_Ptr);
; 101  : 		_SCL_SECURE_ALWAYS_VALIDATE(

  000f7	f6 c1 1f	 test	 cl, 31
  000fa	74 06		 je	 SHORT $LN81@Copy
  000fc	e8 00 00 00 00	 call	 _invalid_parameter_noinfo_noreturn
  00101	cc		 int	 3
$LN81@Copy:

; 102  : 			(_Ptr_user & (_BIG_ALLOCATION_ALIGNMENT - 1)) == 0);
; 103  : 		const uintptr_t _Ptr_ptr = _Ptr_user - sizeof(void *);
; 104  : 		const uintptr_t _Ptr_container =
; 105  : 			*reinterpret_cast<uintptr_t *>(_Ptr_ptr);

  00102	48 8b 41 f8	 mov	 rax, QWORD PTR [rcx-8]

; 106  : 
; 107  :  #ifdef _DEBUG
; 108  : 		// If the following asserts, it likely means that we are performing
; 109  : 		// an aligned delete on memory coming from an unaligned allocation.
; 110  : 		_SCL_SECURE_ALWAYS_VALIDATE(
; 111  : 			reinterpret_cast<uintptr_t *>(_Ptr_ptr)[-1] ==
; 112  : 				_BIG_ALLOCATION_SENTINEL);
; 113  :  #endif /* _DEBUG */
; 114  : 
; 115  : 		// Extra paranoia on aligned allocation/deallocation
; 116  : 		_SCL_SECURE_ALWAYS_VALIDATE(_Ptr_container < _Ptr_user);

  00106	48 3b c1	 cmp	 rax, rcx
  00109	72 06		 jb	 SHORT $LN82@Copy
  0010b	e8 00 00 00 00	 call	 _invalid_parameter_noinfo_noreturn
  00110	cc		 int	 3
$LN82@Copy:

; 117  : 
; 118  :  #ifdef _DEBUG
; 119  : 		_SCL_SECURE_ALWAYS_VALIDATE(2 * sizeof(void *)
; 120  : 			<= _Ptr_user - _Ptr_container);
; 121  : 
; 122  :  #else /* _DEBUG */
; 123  : 		_SCL_SECURE_ALWAYS_VALIDATE(sizeof(void *)

  00111	48 2b c8	 sub	 rcx, rax
  00114	48 83 f9 08	 cmp	 rcx, 8
  00118	73 06		 jae	 SHORT $LN83@Copy
  0011a	e8 00 00 00 00	 call	 _invalid_parameter_noinfo_noreturn
  0011f	cc		 int	 3
$LN83@Copy:

; 124  : 			<= _Ptr_user - _Ptr_container);
; 125  :  #endif /* _DEBUG */
; 126  : 
; 127  : 		_SCL_SECURE_ALWAYS_VALIDATE(_Ptr_user - _Ptr_container

  00120	48 83 f9 27	 cmp	 rcx, 39			; 00000027H
  00124	76 06		 jbe	 SHORT $LN84@Copy
  00126	e8 00 00 00 00	 call	 _invalid_parameter_noinfo_noreturn
  0012b	cc		 int	 3
$LN84@Copy:

; 128  : 			<= _NON_USER_SIZE);
; 129  : 
; 130  : 		_Ptr = reinterpret_cast<void *>(_Ptr_container);

  0012c	48 8b c8	 mov	 rcx, rax
$LN80@Copy:

; 131  : 		}
; 132  :  #endif /* defined(_M_IX86) || defined(_M_X64) */
; 133  : 
; 134  : 	::operator delete(_Ptr);

  0012f	e8 00 00 00 00	 call	 ??3@YAXPEAX@Z		; operator delete
; File c:\users\alist_000\cppmisc\packages\visualcpptools.14.0.24629\lib\native\include\xstring

; 3498 : 		else

  00134	eb 08		 jmp	 SHORT $LN116@Copy
$LN10@Copy:
; File c:\users\alist_000\cppmisc\packages\visualcpptools.14.0.24629\lib\native\include\iosfwd

; 485  : 		return ((_Elem *)_CSTD memcpy(_First1, _First2, _Count));

  00136	48 8b d7	 mov	 rdx, rdi
  00139	e8 00 00 00 00	 call	 memcpy
$LN116@Copy:
; File c:\users\alist_000\cppmisc\packages\visualcpptools.14.0.24629\lib\native\include\xmemory0

; 833  : 		::new ((void *)_Ptr) _Objty(_STD forward<_Types>(_Args)...);

  0013e	48 89 37	 mov	 QWORD PTR [rdi], rsi
; File c:\users\alist_000\cppmisc\packages\visualcpptools.14.0.24629\lib\native\include\xstring

; 3504 : 		_My_data._Myres = _Newres;

  00141	48 89 5f 18	 mov	 QWORD PTR [rdi+24], rbx

; 3505 : 		}

  00145	48 83 c4 38	 add	 rsp, 56			; 00000038H
  00149	41 5e		 pop	 r14
  0014b	5f		 pop	 rdi
  0014c	5e		 pop	 rsi
  0014d	5b		 pop	 rbx
  0014e	c3		 ret	 0
$LN115@Copy:
?_Copy@?$basic_string@DU?$char_traits@D@std@@V?$allocator@D@2@@std@@QEAAX_K@Z ENDP ; std::basic_string<char,std::char_traits<char>,std::allocator<char> >::_Copy
_TEXT	ENDS
;	COMDAT text$x
text$x	SEGMENT
$T1 = 32
this$ = 96
_Newres$ = 104
_Newsize$ = 104
_Oldres$ = 112
_Ptr$ = 120
?catch$16@?0??_Copy@?$basic_string@DU?$char_traits@D@std@@V?$allocator@D@2@@std@@QEAAX_K@Z@4HA PROC ; `std::basic_string<char,std::char_traits<char>,std::allocator<char> >::_Copy'::`1'::catch$16

; 3485 : 		_CATCH_ALL

  00000	48 89 54 24 10	 mov	 QWORD PTR [rsp+16], rdx
  00005	55		 push	 rbp
  00006	48 83 ec 20	 sub	 rsp, 32			; 00000020H
  0000a	48 8b ea	 mov	 rbp, rdx
__catch$?_Copy@?$basic_string@DU?$char_traits@D@std@@V?$allocator@D@2@@std@@QEAAX_K@Z$0:

; 3485 : 		_CATCH_ALL
; 3486 : 			_Newres = _Newsize;	// allocation failed, undo roundup and retry

  0000d	48 8b 55 68	 mov	 rdx, QWORD PTR _Newsize$[rbp]
  00011	48 89 55 68	 mov	 QWORD PTR _Newres$[rbp], rdx

; 3485 : 		_CATCH_ALL
; 3486 : 			_Newres = _Newsize;	// allocation failed, undo roundup and retry
; 3487 : 			_Ptr = _Al.allocate(_Newres + 1);	// if throws, *this unmodified

  00015	48 ff c2	 inc	 rdx
  00018	48 8b 4d 60	 mov	 rcx, QWORD PTR this$[rbp]
  0001c	e8 00 00 00 00	 call	 ?allocate@?$_Wrap_alloc@V?$allocator@D@std@@@std@@QEAAPEAD_K@Z ; std::_Wrap_alloc<std::allocator<char> >::allocate
  00021	48 89 45 78	 mov	 QWORD PTR _Ptr$[rbp], rax

; 3485 : 		_CATCH_ALL
; 3486 : 			_Newres = _Newsize;	// allocation failed, undo roundup and retry
; 3487 : 			_Ptr = _Al.allocate(_Newres + 1);	// if throws, *this unmodified
; 3488 : 		_CATCH_END

  00025	48 8d 05 00 00
	00 00		 lea	 rax, $LN16@catch$16
  0002c	48 83 c4 20	 add	 rsp, 32			; 00000020H
  00030	5d		 pop	 rbp
  00031	c3		 ret	 0
  00032	cc		 int	 3
?catch$16@?0??_Copy@?$basic_string@DU?$char_traits@D@std@@V?$allocator@D@2@@std@@QEAAX_K@Z@4HA ENDP ; `std::basic_string<char,std::char_traits<char>,std::allocator<char> >::_Copy'::`1'::catch$16
text$x	ENDS
; Function compile flags: /Ogtpy
;	COMDAT text$x
text$x	SEGMENT
$T1 = 32
this$ = 96
_Newres$ = 104
_Newsize$ = 104
_Oldres$ = 112
_Ptr$ = 120
?catch$16@?0??_Copy@?$basic_string@DU?$char_traits@D@std@@V?$allocator@D@2@@std@@QEAAX_K@Z@4HA PROC ; `std::basic_string<char,std::char_traits<char>,std::allocator<char> >::_Copy'::`1'::catch$16

; 3485 : 		_CATCH_ALL

  00000	48 89 54 24 10	 mov	 QWORD PTR [rsp+16], rdx
  00005	55		 push	 rbp
  00006	48 83 ec 20	 sub	 rsp, 32			; 00000020H
  0000a	48 8b ea	 mov	 rbp, rdx
__catch$?_Copy@?$basic_string@DU?$char_traits@D@std@@V?$allocator@D@2@@std@@QEAAX_K@Z$0:

; 3486 : 			_Newres = _Newsize;	// allocation failed, undo roundup and retry

  0000d	48 8b 55 68	 mov	 rdx, QWORD PTR _Newsize$[rbp]
  00011	48 89 55 68	 mov	 QWORD PTR _Newres$[rbp], rdx

; 3487 : 			_Ptr = _Al.allocate(_Newres + 1);	// if throws, *this unmodified

  00015	48 ff c2	 inc	 rdx
  00018	48 8b 4d 60	 mov	 rcx, QWORD PTR this$[rbp]
  0001c	e8 00 00 00 00	 call	 ?allocate@?$_Wrap_alloc@V?$allocator@D@std@@@std@@QEAAPEAD_K@Z ; std::_Wrap_alloc<std::allocator<char> >::allocate
  00021	48 89 45 78	 mov	 QWORD PTR _Ptr$[rbp], rax

; 3488 : 		_CATCH_END

  00025	48 8d 05 00 00
	00 00		 lea	 rax, $LN16@catch$16
  0002c	48 83 c4 20	 add	 rsp, 32			; 00000020H
  00030	5d		 pop	 rbp
  00031	c3		 ret	 0
  00032	cc		 int	 3
?catch$16@?0??_Copy@?$basic_string@DU?$char_traits@D@std@@V?$allocator@D@2@@std@@QEAAX_K@Z@4HA ENDP ; `std::basic_string<char,std::char_traits<char>,std::allocator<char> >::_Copy'::`1'::catch$16
text$x	ENDS
; Function compile flags: /Ogtpy
; File c:\users\alist_000\cppmisc\packages\visualcpptools.14.0.24629\lib\native\include\xstring
; File c:\users\alist_000\cppmisc\packages\visualcpptools.14.0.24629\lib\native\include\xstddef
; File c:\users\alist_000\cppmisc\packages\visualcpptools.14.0.24629\lib\native\include\iosfwd
; File c:\users\alist_000\cppmisc\packages\visualcpptools.14.0.24629\lib\native\include\xstring
; File c:\users\alist_000\cppmisc\packages\visualcpptools.14.0.24629\lib\native\include\iosfwd
; File c:\users\alist_000\cppmisc\packages\visualcpptools.14.0.24629\lib\native\include\xstring
; File c:\users\alist_000\cppmisc\packages\visualcpptools.14.0.24629\lib\native\include\xstddef
; File c:\users\alist_000\cppmisc\packages\visualcpptools.14.0.24629\lib\native\include\xstring
; File c:\users\alist_000\cppmisc\packages\visualcpptools.14.0.24629\lib\native\include\iosfwd
; File c:\users\alist_000\cppmisc\packages\visualcpptools.14.0.24629\lib\native\include\xstring
; File c:\users\alist_000\cppmisc\packages\visualcpptools.14.0.24629\lib\native\include\xstddef
; File c:\users\alist_000\cppmisc\packages\visualcpptools.14.0.24629\lib\native\include\iosfwd
; File c:\users\alist_000\cppmisc\packages\visualcpptools.14.0.24629\lib\native\include\xstring
; File c:\users\alist_000\cppmisc\packages\visualcpptools.14.0.24629\lib\native\include\iosfwd
; File c:\users\alist_000\cppmisc\packages\visualcpptools.14.0.24629\lib\native\include\xstring
;	COMDAT ?erase@?$basic_string@DU?$char_traits@D@std@@V?$allocator@D@2@@std@@QEAAAEAV12@_K0@Z
_TEXT	SEGMENT
this$ = 48
_Off$ = 56
_Count$ = 64
?erase@?$basic_string@DU?$char_traits@D@std@@V?$allocator@D@2@@std@@QEAAAEAV12@_K0@Z PROC ; std::basic_string<char,std::char_traits<char>,std::allocator<char> >::erase, COMDAT

; 2557 : 		{	// erase elements [_Off, _Off + _Count)

$LN97:
  00000	48 89 5c 24 08	 mov	 QWORD PTR [rsp+8], rbx
  00005	57		 push	 rdi
  00006	48 83 ec 20	 sub	 rsp, 32			; 00000020H

; 3572 : 		if (this->_Mysize() < _Off)

  0000a	48 8b 79 10	 mov	 rdi, QWORD PTR [rcx+16]

; 2557 : 		{	// erase elements [_Off, _Off + _Count)

  0000e	4d 8b c8	 mov	 r9, r8
  00011	48 8b d9	 mov	 rbx, rcx

; 3572 : 		if (this->_Mysize() < _Off)

  00014	48 3b fa	 cmp	 rdi, rdx
  00017	0f 82 9c 00 00
	00		 jb	 $LN95@erase

; 2558 : 		_Check_offset(_Off);
; 2559 : 		if (this->_Mysize() - _Off <= _Count)

  0001d	48 8b c7	 mov	 rax, rdi
  00020	48 2b c2	 sub	 rax, rdx
  00023	49 3b c0	 cmp	 rax, r8
  00026	77 32		 ja	 SHORT $LN2@erase

; 3510 : 		_Traits::assign(_My_data._Myptr()[_My_data._Mysize = _Newsize], _Elem());

  00028	48 89 51 10	 mov	 QWORD PTR [rcx+16], rdx

; 1638 : 		return (this->_BUF_SIZE <= _Myres);

  0002c	48 83 79 18 10	 cmp	 QWORD PTR [rcx+24], 16

; 1624 : 		return (_Large_string_engaged()

  00031	72 15		 jb	 SHORT $LN38@erase
; File c:\users\alist_000\cppmisc\packages\visualcpptools.14.0.24629\lib\native\include\xstddef

; 642  : 	return (_Ptr);

  00033	48 8b 01	 mov	 rax, QWORD PTR [rcx]
; File c:\users\alist_000\cppmisc\packages\visualcpptools.14.0.24629\lib\native\include\iosfwd

; 516  : 		_Left = _Right;

  00036	c6 04 10 00	 mov	 BYTE PTR [rax+rdx], 0
; File c:\users\alist_000\cppmisc\packages\visualcpptools.14.0.24629\lib\native\include\xstring

; 2570 : 		return (*this);

  0003a	48 8b c1	 mov	 rax, rcx

; 2571 : 		}

  0003d	48 8b 5c 24 30	 mov	 rbx, QWORD PTR [rsp+48]
  00042	48 83 c4 20	 add	 rsp, 32			; 00000020H
  00046	5f		 pop	 rdi
  00047	c3		 ret	 0
$LN38@erase:

; 1624 : 		return (_Large_string_engaged()

  00048	48 8b c3	 mov	 rax, rbx
; File c:\users\alist_000\cppmisc\packages\visualcpptools.14.0.24629\lib\native\include\iosfwd

; 516  : 		_Left = _Right;

  0004b	c6 04 13 00	 mov	 BYTE PTR [rbx+rdx], 0
; File c:\users\alist_000\cppmisc\packages\visualcpptools.14.0.24629\lib\native\include\xstring

; 2571 : 		}

  0004f	48 8b 5c 24 30	 mov	 rbx, QWORD PTR [rsp+48]
  00054	48 83 c4 20	 add	 rsp, 32			; 00000020H
  00058	5f		 pop	 rdi
  00059	c3		 ret	 0
$LN2@erase:

; 2560 : 			{
; 2561 : 			_Eos(_Off);	// erase elements [_Off, ...)
; 2562 : 			}
; 2563 : 		else if (_Count != 0)

  0005a	4d 85 c9	 test	 r9, r9
  0005d	74 4c		 je	 SHORT $LN92@erase

; 1638 : 		return (this->_BUF_SIZE <= _Myres);

  0005f	48 83 79 18 10	 cmp	 QWORD PTR [rcx+24], 16

; 1624 : 		return (_Large_string_engaged()

  00064	72 05		 jb	 SHORT $LN57@erase
; File c:\users\alist_000\cppmisc\packages\visualcpptools.14.0.24629\lib\native\include\xstddef

; 642  : 	return (_Ptr);

  00066	48 8b 01	 mov	 rax, QWORD PTR [rcx]
; File c:\users\alist_000\cppmisc\packages\visualcpptools.14.0.24629\lib\native\include\xstring

; 1624 : 		return (_Large_string_engaged()

  00069	eb 03		 jmp	 SHORT $LN58@erase
$LN57@erase:
  0006b	48 8b c3	 mov	 rax, rbx
$LN58@erase:

; 2564 : 			{	// move elements down
; 2565 : 			value_type *_Ptr = this->_Myptr() + _Off;
; 2566 : 			size_type _Newsize = this->_Mysize() - _Count;

  0006e	49 2b f9	 sub	 rdi, r9
  00071	48 8d 0c 10	 lea	 rcx, QWORD PTR [rax+rdx]

; 2567 : 			_Traits::move(_Ptr, _Ptr + _Count, _Newsize - _Off);

  00075	4c 8b c7	 mov	 r8, rdi
  00078	4c 2b c2	 sub	 r8, rdx
  0007b	4a 8d 14 09	 lea	 rdx, QWORD PTR [rcx+r9]
; File c:\users\alist_000\cppmisc\packages\visualcpptools.14.0.24629\lib\native\include\iosfwd

; 505  : 		return ((_Elem *)_CSTD memmove(_First1, _First2, _Count));

  0007f	e8 00 00 00 00	 call	 memmove
; File c:\users\alist_000\cppmisc\packages\visualcpptools.14.0.24629\lib\native\include\xstring

; 1638 : 		return (this->_BUF_SIZE <= _Myres);

  00084	48 83 7b 18 10	 cmp	 QWORD PTR [rbx+24], 16

; 3510 : 		_Traits::assign(_My_data._Myptr()[_My_data._Mysize = _Newsize], _Elem());

  00089	48 89 7b 10	 mov	 QWORD PTR [rbx+16], rdi

; 1624 : 		return (_Large_string_engaged()

  0008d	72 15		 jb	 SHORT $LN85@erase
; File c:\users\alist_000\cppmisc\packages\visualcpptools.14.0.24629\lib\native\include\xstddef

; 642  : 	return (_Ptr);

  0008f	48 8b 03	 mov	 rax, QWORD PTR [rbx]
; File c:\users\alist_000\cppmisc\packages\visualcpptools.14.0.24629\lib\native\include\iosfwd

; 516  : 		_Left = _Right;

  00092	c6 04 38 00	 mov	 BYTE PTR [rax+rdi], 0
; File c:\users\alist_000\cppmisc\packages\visualcpptools.14.0.24629\lib\native\include\xstring

; 2570 : 		return (*this);

  00096	48 8b c3	 mov	 rax, rbx

; 2571 : 		}

  00099	48 8b 5c 24 30	 mov	 rbx, QWORD PTR [rsp+48]
  0009e	48 83 c4 20	 add	 rsp, 32			; 00000020H
  000a2	5f		 pop	 rdi
  000a3	c3		 ret	 0
$LN85@erase:

; 1624 : 		return (_Large_string_engaged()

  000a4	48 8b c3	 mov	 rax, rbx
; File c:\users\alist_000\cppmisc\packages\visualcpptools.14.0.24629\lib\native\include\iosfwd

; 516  : 		_Left = _Right;

  000a7	c6 04 3b 00	 mov	 BYTE PTR [rbx+rdi], 0
$LN92@erase:
; File c:\users\alist_000\cppmisc\packages\visualcpptools.14.0.24629\lib\native\include\xstring

; 2570 : 		return (*this);

  000ab	48 8b c3	 mov	 rax, rbx

; 2571 : 		}

  000ae	48 8b 5c 24 30	 mov	 rbx, QWORD PTR [rsp+48]
  000b3	48 83 c4 20	 add	 rsp, 32			; 00000020H
  000b7	5f		 pop	 rdi
  000b8	c3		 ret	 0
$LN95@erase:

; 3573 : 			_Xran();

  000b9	e8 00 00 00 00	 call	 ?_Xran@?$basic_string@DU?$char_traits@D@std@@V?$allocator@D@2@@std@@SAXXZ ; std::basic_string<char,std::char_traits<char>,std::allocator<char> >::_Xran
  000be	cc		 int	 3
$LN94@erase:
?erase@?$basic_string@DU?$char_traits@D@std@@V?$allocator@D@2@@std@@QEAAAEAV12@_K0@Z ENDP ; std::basic_string<char,std::char_traits<char>,std::allocator<char> >::erase
_TEXT	ENDS
; Function compile flags: /Ogtpy
; File c:\users\alist_000\cppmisc\packages\visualcpptools.14.0.24629\lib\native\include\xstring
; File c:\users\alist_000\cppmisc\packages\visualcpptools.14.0.24629\lib\native\include\xstddef
; File c:\users\alist_000\cppmisc\packages\visualcpptools.14.0.24629\lib\native\include\iosfwd
; File c:\users\alist_000\cppmisc\packages\visualcpptools.14.0.24629\lib\native\include\xstring
; File c:\users\alist_000\cppmisc\packages\visualcpptools.14.0.24629\lib\native\include\iosfwd
; File c:\users\alist_000\cppmisc\packages\visualcpptools.14.0.24629\lib\native\include\xstring
;	COMDAT ?erase@?$basic_string@DU?$char_traits@D@std@@V?$allocator@D@2@@std@@QEAAAEAV12@_K@Z
_TEXT	SEGMENT
this$ = 48
_Off$ = 56
?erase@?$basic_string@DU?$char_traits@D@std@@V?$allocator@D@2@@std@@QEAAAEAV12@_K@Z PROC ; std::basic_string<char,std::char_traits<char>,std::allocator<char> >::erase, COMDAT

; 2550 : 		{	// erase elements [_Off, ...)

$LN38:
  00000	48 83 ec 28	 sub	 rsp, 40			; 00000028H

; 3572 : 		if (this->_Mysize() < _Off)

  00004	48 39 51 10	 cmp	 QWORD PTR [rcx+16], rdx
  00008	72 26		 jb	 SHORT $LN36@erase

; 3510 : 		_Traits::assign(_My_data._Myptr()[_My_data._Mysize = _Newsize], _Elem());

  0000a	48 89 51 10	 mov	 QWORD PTR [rcx+16], rdx

; 1638 : 		return (this->_BUF_SIZE <= _Myres);

  0000e	48 83 79 18 10	 cmp	 QWORD PTR [rcx+24], 16

; 1624 : 		return (_Large_string_engaged()

  00013	72 0f		 jb	 SHORT $LN26@erase
; File c:\users\alist_000\cppmisc\packages\visualcpptools.14.0.24629\lib\native\include\xstddef

; 642  : 	return (_Ptr);

  00015	48 8b 01	 mov	 rax, QWORD PTR [rcx]
; File c:\users\alist_000\cppmisc\packages\visualcpptools.14.0.24629\lib\native\include\iosfwd

; 516  : 		_Left = _Right;

  00018	c6 04 10 00	 mov	 BYTE PTR [rax+rdx], 0
; File c:\users\alist_000\cppmisc\packages\visualcpptools.14.0.24629\lib\native\include\xstring

; 2553 : 		return (*this);

  0001c	48 8b c1	 mov	 rax, rcx

; 2554 : 		}

  0001f	48 83 c4 28	 add	 rsp, 40			; 00000028H
  00023	c3		 ret	 0
$LN26@erase:

; 1624 : 		return (_Large_string_engaged()

  00024	48 8b c1	 mov	 rax, rcx
; File c:\users\alist_000\cppmisc\packages\visualcpptools.14.0.24629\lib\native\include\iosfwd

; 516  : 		_Left = _Right;

  00027	c6 04 11 00	 mov	 BYTE PTR [rcx+rdx], 0
; File c:\users\alist_000\cppmisc\packages\visualcpptools.14.0.24629\lib\native\include\xstring

; 2554 : 		}

  0002b	48 83 c4 28	 add	 rsp, 40			; 00000028H
  0002f	c3		 ret	 0
$LN36@erase:

; 3573 : 			_Xran();

  00030	e8 00 00 00 00	 call	 ?_Xran@?$basic_string@DU?$char_traits@D@std@@V?$allocator@D@2@@std@@SAXXZ ; std::basic_string<char,std::char_traits<char>,std::allocator<char> >::_Xran
  00035	cc		 int	 3
$LN35@erase:
?erase@?$basic_string@DU?$char_traits@D@std@@V?$allocator@D@2@@std@@QEAAAEAV12@_K@Z ENDP ; std::basic_string<char,std::char_traits<char>,std::allocator<char> >::erase
_TEXT	ENDS
; Function compile flags: /Ogtpy
; File c:\users\alist_000\cppmisc\packages\visualcpptools.14.0.24629\lib\native\include\xmemory0
;	COMDAT ?deallocate@?$allocator@D@std@@QEAAXPEAD_K@Z
_TEXT	SEGMENT
this$ = 48
_Ptr$ = 56
_Count$ = 64
?deallocate@?$allocator@D@std@@QEAAXPEAD_K@Z PROC	; std::allocator<char>::deallocate, COMDAT

; 815  : 		{	// deallocate object at _Ptr

$LN18:
  00000	48 83 ec 28	 sub	 rsp, 40			; 00000028H

; 98   : 	if (_BIG_ALLOCATION_THRESHOLD <= _User_size)

  00004	49 81 f8 00 10
	00 00		 cmp	 r8, 4096		; 00001000H
  0000b	72 20		 jb	 SHORT $LN5@deallocate

; 99   : 		{	// deallocate large block
; 100  : 		const uintptr_t _Ptr_user = reinterpret_cast<uintptr_t>(_Ptr);
; 101  : 		_SCL_SECURE_ALWAYS_VALIDATE(

  0000d	f6 c2 1f	 test	 dl, 31
  00010	75 27		 jne	 SHORT $LN13@deallocate

; 102  : 			(_Ptr_user & (_BIG_ALLOCATION_ALIGNMENT - 1)) == 0);
; 103  : 		const uintptr_t _Ptr_ptr = _Ptr_user - sizeof(void *);
; 104  : 		const uintptr_t _Ptr_container =
; 105  : 			*reinterpret_cast<uintptr_t *>(_Ptr_ptr);

  00012	48 8b 42 f8	 mov	 rax, QWORD PTR [rdx-8]

; 106  : 
; 107  :  #ifdef _DEBUG
; 108  : 		// If the following asserts, it likely means that we are performing
; 109  : 		// an aligned delete on memory coming from an unaligned allocation.
; 110  : 		_SCL_SECURE_ALWAYS_VALIDATE(
; 111  : 			reinterpret_cast<uintptr_t *>(_Ptr_ptr)[-1] ==
; 112  : 				_BIG_ALLOCATION_SENTINEL);
; 113  :  #endif /* _DEBUG */
; 114  : 
; 115  : 		// Extra paranoia on aligned allocation/deallocation
; 116  : 		_SCL_SECURE_ALWAYS_VALIDATE(_Ptr_container < _Ptr_user);

  00016	48 3b c2	 cmp	 rax, rdx
  00019	73 24		 jae	 SHORT $LN15@deallocate

; 117  : 
; 118  :  #ifdef _DEBUG
; 119  : 		_SCL_SECURE_ALWAYS_VALIDATE(2 * sizeof(void *)
; 120  : 			<= _Ptr_user - _Ptr_container);
; 121  : 
; 122  :  #else /* _DEBUG */
; 123  : 		_SCL_SECURE_ALWAYS_VALIDATE(sizeof(void *)

  0001b	48 2b d0	 sub	 rdx, rax
  0001e	48 83 fa 08	 cmp	 rdx, 8
  00022	72 21		 jb	 SHORT $LN16@deallocate

; 124  : 			<= _Ptr_user - _Ptr_container);
; 125  :  #endif /* _DEBUG */
; 126  : 
; 127  : 		_SCL_SECURE_ALWAYS_VALIDATE(_Ptr_user - _Ptr_container

  00024	48 83 fa 27	 cmp	 rdx, 39			; 00000027H
  00028	77 21		 ja	 SHORT $LN17@deallocate

; 128  : 			<= _NON_USER_SIZE);
; 129  : 
; 130  : 		_Ptr = reinterpret_cast<void *>(_Ptr_container);

  0002a	48 8b d0	 mov	 rdx, rax
$LN5@deallocate:

; 131  : 		}
; 132  :  #endif /* defined(_M_IX86) || defined(_M_X64) */
; 133  : 
; 134  : 	::operator delete(_Ptr);

  0002d	48 8b ca	 mov	 rcx, rdx

; 816  : 		_Deallocate(_Ptr, _Count, sizeof (_Ty));
; 817  : 		}

  00030	48 83 c4 28	 add	 rsp, 40			; 00000028H

; 134  : 	::operator delete(_Ptr);

  00034	e9 00 00 00 00	 jmp	 ??3@YAXPEAX@Z		; operator delete
$LN13@deallocate:

; 99   : 		{	// deallocate large block
; 100  : 		const uintptr_t _Ptr_user = reinterpret_cast<uintptr_t>(_Ptr);
; 101  : 		_SCL_SECURE_ALWAYS_VALIDATE(

  00039	e8 00 00 00 00	 call	 _invalid_parameter_noinfo_noreturn
  0003e	cc		 int	 3
$LN15@deallocate:

; 106  : 
; 107  :  #ifdef _DEBUG
; 108  : 		// If the following asserts, it likely means that we are performing
; 109  : 		// an aligned delete on memory coming from an unaligned allocation.
; 110  : 		_SCL_SECURE_ALWAYS_VALIDATE(
; 111  : 			reinterpret_cast<uintptr_t *>(_Ptr_ptr)[-1] ==
; 112  : 				_BIG_ALLOCATION_SENTINEL);
; 113  :  #endif /* _DEBUG */
; 114  : 
; 115  : 		// Extra paranoia on aligned allocation/deallocation
; 116  : 		_SCL_SECURE_ALWAYS_VALIDATE(_Ptr_container < _Ptr_user);

  0003f	e8 00 00 00 00	 call	 _invalid_parameter_noinfo_noreturn
  00044	cc		 int	 3
$LN16@deallocate:

; 117  : 
; 118  :  #ifdef _DEBUG
; 119  : 		_SCL_SECURE_ALWAYS_VALIDATE(2 * sizeof(void *)
; 120  : 			<= _Ptr_user - _Ptr_container);
; 121  : 
; 122  :  #else /* _DEBUG */
; 123  : 		_SCL_SECURE_ALWAYS_VALIDATE(sizeof(void *)

  00045	e8 00 00 00 00	 call	 _invalid_parameter_noinfo_noreturn
  0004a	cc		 int	 3
$LN17@deallocate:

; 124  : 			<= _Ptr_user - _Ptr_container);
; 125  :  #endif /* _DEBUG */
; 126  : 
; 127  : 		_SCL_SECURE_ALWAYS_VALIDATE(_Ptr_user - _Ptr_container

  0004b	e8 00 00 00 00	 call	 _invalid_parameter_noinfo_noreturn
  00050	cc		 int	 3
$LN12@deallocate:
?deallocate@?$allocator@D@std@@QEAAXPEAD_K@Z ENDP	; std::allocator<char>::deallocate
_TEXT	ENDS
; Function compile flags: /Ogtpy
; File c:\users\alist_000\cppmisc\packages\visualcpptools.14.0.24629\lib\native\include\xmemory0
;	COMDAT ??0?$allocator@D@std@@QEAA@AEBV01@@Z
_TEXT	SEGMENT
this$ = 8
__formal$ = 16
??0?$allocator@D@std@@QEAA@AEBV01@@Z PROC		; std::allocator<char>::allocator<char>, COMDAT

; 800  : 		{	// construct by copying (do nothing)
; 801  : 		}

  00000	48 8b c1	 mov	 rax, rcx
  00003	c3		 ret	 0
??0?$allocator@D@std@@QEAA@AEBV01@@Z ENDP		; std::allocator<char>::allocator<char>
_TEXT	ENDS
; Function compile flags: /Ogtpy
; File c:\users\alist_000\cppmisc\packages\visualcpptools.14.0.24629\lib\native\include\xutility
;	COMDAT ?_Get_second@?$_Compressed_pair@U?$_Wrap_alloc@V?$allocator@Vthread@std@@@std@@@std@@V?$_Vector_val@U?$_Simple_types@Vthread@std@@@std@@@2@$00@std@@QEBAAEBV?$_Vector_val@U?$_Simple_types@Vthread@std@@@std@@@2@XZ
_TEXT	SEGMENT
this$ = 8
?_Get_second@?$_Compressed_pair@U?$_Wrap_alloc@V?$allocator@Vthread@std@@@std@@@std@@V?$_Vector_val@U?$_Simple_types@Vthread@std@@@std@@@2@$00@std@@QEBAAEBV?$_Vector_val@U?$_Simple_types@Vthread@std@@@std@@@2@XZ PROC ; std::_Compressed_pair<std::_Wrap_alloc<std::allocator<std::thread> >,std::_Vector_val<std::_Simple_types<std::thread> >,1>::_Get_second, COMDAT

; 334  : 		return (_Myval2);

  00000	48 8b c1	 mov	 rax, rcx

; 335  : 		}

  00003	c3		 ret	 0
?_Get_second@?$_Compressed_pair@U?$_Wrap_alloc@V?$allocator@Vthread@std@@@std@@@std@@V?$_Vector_val@U?$_Simple_types@Vthread@std@@@std@@@2@$00@std@@QEBAAEBV?$_Vector_val@U?$_Simple_types@Vthread@std@@@std@@@2@XZ ENDP ; std::_Compressed_pair<std::_Wrap_alloc<std::allocator<std::thread> >,std::_Vector_val<std::_Simple_types<std::thread> >,1>::_Get_second
_TEXT	ENDS
; Function compile flags: /Ogtpy
; File c:\users\alist_000\cppmisc\packages\visualcpptools.14.0.24629\lib\native\include\xmemory0
;	COMDAT ?max_size@?$allocator@Vthread@std@@@std@@QEBA_KXZ
_TEXT	SEGMENT
this$dead$ = 8
?max_size@?$allocator@Vthread@std@@@std@@QEBA_KXZ PROC	; std::allocator<std::thread>::max_size, COMDAT

; 844  : 		return ((size_t)(-1) / sizeof (_Ty));

  00000	48 b8 ff ff ff
	ff ff ff ff 0f	 mov	 rax, 1152921504606846975 ; 0fffffffffffffffH

; 845  : 		}

  0000a	c3		 ret	 0
?max_size@?$allocator@Vthread@std@@@std@@QEBA_KXZ ENDP	; std::allocator<std::thread>::max_size
_TEXT	ENDS
; Function compile flags: /Ogtpy
; File c:\users\alist_000\cppmisc\packages\visualcpptools.14.0.24629\lib\native\include\xmemory0
;	COMDAT ?allocate@?$_Wrap_alloc@V?$allocator@D@std@@@std@@QEAAPEAD_K@Z
_TEXT	SEGMENT
this$ = 48
_Count$ = 56
?allocate@?$_Wrap_alloc@V?$allocator@D@std@@@std@@QEAAPEAD_K@Z PROC ; std::_Wrap_alloc<std::allocator<char> >::allocate, COMDAT

; 1069 : 		{	// allocate array of _Count elements

$LN19:
  00000	48 83 ec 28	 sub	 rsp, 40			; 00000028H

; 53   : 	if (_Count == 0)

  00004	48 85 d2	 test	 rdx, rdx
  00007	75 09		 jne	 SHORT $LN6@allocate

; 54   : 		return (_Ptr);

  00009	33 c9		 xor	 ecx, ecx

; 1070 : 		return (_Mybase::allocate(_Count));

  0000b	8b c1		 mov	 eax, ecx

; 1071 : 		}

  0000d	48 83 c4 28	 add	 rsp, 40			; 00000028H
  00011	c3		 ret	 0
$LN6@allocate:

; 63   : 		&& _BIG_ALLOCATION_THRESHOLD <= _User_size)

  00012	48 81 fa 00 10
	00 00		 cmp	 rdx, 4096		; 00001000H
  00019	72 22		 jb	 SHORT $LN8@allocate

; 64   : 		{	// allocate large block
; 65   : 		static_assert(sizeof (void *) < _BIG_ALLOCATION_ALIGNMENT,
; 66   : 			"Big allocations should at least match vector register size");
; 67   : 		const size_t _Block_size = _NON_USER_SIZE + _User_size;

  0001b	48 8d 4a 27	 lea	 rcx, QWORD PTR [rdx+39]

; 68   : 		if (_Block_size <= _User_size)

  0001f	48 3b ca	 cmp	 rcx, rdx
  00022	76 29		 jbe	 SHORT $LN17@allocate

; 70   : 		const uintptr_t _Ptr_container =
; 71   : 			reinterpret_cast<uintptr_t>(::operator new(_Block_size));

  00024	e8 00 00 00 00	 call	 ??2@YAPEAX_K@Z		; operator new

; 72   : 		_SCL_SECURE_ALWAYS_VALIDATE(_Ptr_container != 0);
; 73   : 		_Ptr = reinterpret_cast<void *>((_Ptr_container + _NON_USER_SIZE)

  00029	48 8d 48 27	 lea	 rcx, QWORD PTR [rax+39]
  0002d	48 83 e1 e0	 and	 rcx, -32		; ffffffffffffffe0H

; 74   : 			& ~(_BIG_ALLOCATION_ALIGNMENT - 1));
; 75   : 		static_cast<uintptr_t *>(_Ptr)[-1] = _Ptr_container;

  00031	48 89 41 f8	 mov	 QWORD PTR [rcx-8], rax

; 1070 : 		return (_Mybase::allocate(_Count));

  00035	48 8b c1	 mov	 rax, rcx

; 1071 : 		}

  00038	48 83 c4 28	 add	 rsp, 40			; 00000028H
  0003c	c3		 ret	 0
$LN8@allocate:

; 85   : 		_Ptr = ::operator new(_User_size);

  0003d	48 8b ca	 mov	 rcx, rdx
  00040	e8 00 00 00 00	 call	 ??2@YAPEAX_K@Z		; operator new
  00045	48 8b c8	 mov	 rcx, rax

; 1071 : 		}

  00048	48 83 c4 28	 add	 rsp, 40			; 00000028H
  0004c	c3		 ret	 0
$LN17@allocate:

; 69   : 			_Xbad_alloc();	// report no memory

  0004d	e8 00 00 00 00	 call	 ?_Xbad_alloc@std@@YAXXZ	; std::_Xbad_alloc
  00052	cc		 int	 3
$LN16@allocate:
?allocate@?$_Wrap_alloc@V?$allocator@D@std@@@std@@QEAAPEAD_K@Z ENDP ; std::_Wrap_alloc<std::allocator<char> >::allocate
_TEXT	ENDS
; Function compile flags: /Ogtpy
; File c:\users\alist_000\cppmisc\packages\visualcpptools.14.0.24629\lib\native\include\xstring
;	COMDAT ?max_size@?$basic_string@DU?$char_traits@D@std@@V?$allocator@D@2@@std@@QEBA_KXZ
_TEXT	SEGMENT
this$ = 8
?max_size@?$basic_string@DU?$char_traits@D@std@@V?$allocator@D@2@@std@@QEBA_KXZ PROC ; std::basic_string<char,std::char_traits<char>,std::allocator<char> >::max_size, COMDAT

; 3023 : 		const size_type _Num = this->_Getal().max_size();
; 3024 : 		return (_Num <= 1 ? 1 : _Num - 1);

  00000	48 c7 c0 fe ff
	ff ff		 mov	 rax, -2

; 3025 : 		}

  00007	c3		 ret	 0
?max_size@?$basic_string@DU?$char_traits@D@std@@V?$allocator@D@2@@std@@QEBA_KXZ ENDP ; std::basic_string<char,std::char_traits<char>,std::allocator<char> >::max_size
_TEXT	ENDS
; Function compile flags: /Ogtpy
; File c:\users\alist_000\cppmisc\packages\visualcpptools.14.0.24629\lib\native\include\xmemory0
;	COMDAT ?max_size@?$_Wrap_alloc@V?$allocator@D@std@@@std@@QEBA_KU_Nil@2@@Z
_TEXT	SEGMENT
this$ = 8
__formal$ = 16
?max_size@?$_Wrap_alloc@V?$allocator@D@std@@@std@@QEBA_KU_Nil@2@@Z PROC ; std::_Wrap_alloc<std::allocator<char> >::max_size, COMDAT

; 1101 : 		return (_Mytraits::max_size(*this));

  00000	48 83 c8 ff	 or	 rax, -1

; 1102 : 		}

  00004	c3		 ret	 0
?max_size@?$_Wrap_alloc@V?$allocator@D@std@@@std@@QEBA_KU_Nil@2@@Z ENDP ; std::_Wrap_alloc<std::allocator<char> >::max_size
_TEXT	ENDS
; Function compile flags: /Ogtpy
; File c:\users\alist_000\cppmisc\packages\visualcpptools.14.0.24629\lib\native\include\xmemory0
;	COMDAT ?allocate@?$allocator@D@std@@QEAAPEAD_K@Z
_TEXT	SEGMENT
this$ = 48
_Count$ = 56
?allocate@?$allocator@D@std@@QEAAPEAD_K@Z PROC		; std::allocator<char>::allocate, COMDAT

; 820  : 		{	// allocate array of _Count elements

$LN16:
  00000	48 83 ec 28	 sub	 rsp, 40			; 00000028H

; 53   : 	if (_Count == 0)

  00004	48 85 d2	 test	 rdx, rdx
  00007	75 09		 jne	 SHORT $LN4@allocate

; 54   : 		return (_Ptr);

  00009	33 c9		 xor	 ecx, ecx

; 821  : 		return (static_cast<pointer>(_Allocate(_Count, sizeof (_Ty))));

  0000b	8b c1		 mov	 eax, ecx

; 822  : 		}

  0000d	48 83 c4 28	 add	 rsp, 40			; 00000028H
  00011	c3		 ret	 0
$LN4@allocate:

; 63   : 		&& _BIG_ALLOCATION_THRESHOLD <= _User_size)

  00012	48 81 fa 00 10
	00 00		 cmp	 rdx, 4096		; 00001000H
  00019	72 22		 jb	 SHORT $LN6@allocate

; 64   : 		{	// allocate large block
; 65   : 		static_assert(sizeof (void *) < _BIG_ALLOCATION_ALIGNMENT,
; 66   : 			"Big allocations should at least match vector register size");
; 67   : 		const size_t _Block_size = _NON_USER_SIZE + _User_size;

  0001b	48 8d 4a 27	 lea	 rcx, QWORD PTR [rdx+39]

; 68   : 		if (_Block_size <= _User_size)

  0001f	48 3b ca	 cmp	 rcx, rdx
  00022	76 29		 jbe	 SHORT $LN14@allocate

; 70   : 		const uintptr_t _Ptr_container =
; 71   : 			reinterpret_cast<uintptr_t>(::operator new(_Block_size));

  00024	e8 00 00 00 00	 call	 ??2@YAPEAX_K@Z		; operator new

; 72   : 		_SCL_SECURE_ALWAYS_VALIDATE(_Ptr_container != 0);
; 73   : 		_Ptr = reinterpret_cast<void *>((_Ptr_container + _NON_USER_SIZE)

  00029	48 8d 48 27	 lea	 rcx, QWORD PTR [rax+39]
  0002d	48 83 e1 e0	 and	 rcx, -32		; ffffffffffffffe0H

; 74   : 			& ~(_BIG_ALLOCATION_ALIGNMENT - 1));
; 75   : 		static_cast<uintptr_t *>(_Ptr)[-1] = _Ptr_container;

  00031	48 89 41 f8	 mov	 QWORD PTR [rcx-8], rax

; 821  : 		return (static_cast<pointer>(_Allocate(_Count, sizeof (_Ty))));

  00035	48 8b c1	 mov	 rax, rcx

; 822  : 		}

  00038	48 83 c4 28	 add	 rsp, 40			; 00000028H
  0003c	c3		 ret	 0
$LN6@allocate:

; 85   : 		_Ptr = ::operator new(_User_size);

  0003d	48 8b ca	 mov	 rcx, rdx
  00040	e8 00 00 00 00	 call	 ??2@YAPEAX_K@Z		; operator new
  00045	48 8b c8	 mov	 rcx, rax

; 822  : 		}

  00048	48 83 c4 28	 add	 rsp, 40			; 00000028H
  0004c	c3		 ret	 0
$LN14@allocate:

; 69   : 			_Xbad_alloc();	// report no memory

  0004d	e8 00 00 00 00	 call	 ?_Xbad_alloc@std@@YAXXZ	; std::_Xbad_alloc
  00052	cc		 int	 3
$LN13@allocate:
?allocate@?$allocator@D@std@@QEAAPEAD_K@Z ENDP		; std::allocator<char>::allocate
_TEXT	ENDS
; Function compile flags: /Ogtpy
; File c:\users\alist_000\cppmisc\packages\visualcpptools.14.0.24629\lib\native\include\xmemory0
;	COMDAT ?max_size@?$allocator_traits@V?$allocator@D@std@@@std@@SA_KAEBV?$allocator@D@2@@Z
_TEXT	SEGMENT
_Al$ = 8
?max_size@?$allocator_traits@V?$allocator@D@std@@@std@@SA_KAEBV?$allocator@D@2@@Z PROC ; std::allocator_traits<std::allocator<char> >::max_size, COMDAT

; 963  : 		return (_Al.max_size());

  00000	48 83 c8 ff	 or	 rax, -1

; 964  : 		}

  00004	c3		 ret	 0
?max_size@?$allocator_traits@V?$allocator@D@std@@@std@@SA_KAEBV?$allocator@D@2@@Z ENDP ; std::allocator_traits<std::allocator<char> >::max_size
_TEXT	ENDS
; Function compile flags: /Ogtpy
; File c:\users\alist_000\cppmisc\packages\visualcpptools.14.0.24629\lib\native\include\xmemory0
;	COMDAT ?max_size@?$allocator@D@std@@QEBA_KXZ
_TEXT	SEGMENT
this$ = 8
?max_size@?$allocator@D@std@@QEBA_KXZ PROC		; std::allocator<char>::max_size, COMDAT

; 844  : 		return ((size_t)(-1) / sizeof (_Ty));

  00000	48 83 c8 ff	 or	 rax, -1

; 845  : 		}

  00004	c3		 ret	 0
?max_size@?$allocator@D@std@@QEBA_KXZ ENDP		; std::allocator<char>::max_size
_TEXT	ENDS
; Function compile flags: /Ogtpy
; File c:\users\alist_000\cppmisc\packages\visualcpptools.14.0.24629\lib\native\include\chrono
;	COMDAT ??$?0_JX@?$duration@_JU?$ratio@$00$0JIJGIA@@std@@@chrono@std@@QEAA@AEB_J@Z
_TEXT	SEGMENT
this$ = 8
_Val$ = 16
??$?0_JX@?$duration@_JU?$ratio@$00$0JIJGIA@@std@@@chrono@std@@QEAA@AEB_J@Z PROC ; std::chrono::duration<__int64,std::ratio<1,10000000> >::duration<__int64,std::ratio<1,10000000> ><__int64,void>, COMDAT

; 114  : 			: _MyRep(static_cast<_Rep>(_Val))

  00000	48 8b 02	 mov	 rax, QWORD PTR [rdx]
  00003	48 89 01	 mov	 QWORD PTR [rcx], rax

; 116  : 		}

  00006	48 8b c1	 mov	 rax, rcx
  00009	c3		 ret	 0
??$?0_JX@?$duration@_JU?$ratio@$00$0JIJGIA@@std@@@chrono@std@@QEAA@AEB_J@Z ENDP ; std::chrono::duration<__int64,std::ratio<1,10000000> >::duration<__int64,std::ratio<1,10000000> ><__int64,void>
_TEXT	ENDS
; Function compile flags: /Ogtpy
; File c:\users\alist_000\cppmisc\packages\visualcpptools.14.0.24629\lib\native\include\chrono
;	COMDAT ??$?0_JX@?$duration@_JU?$ratio@$00$0DLJKMKAA@@std@@@chrono@std@@QEAA@AEB_J@Z
_TEXT	SEGMENT
this$ = 8
_Val$ = 16
??$?0_JX@?$duration@_JU?$ratio@$00$0DLJKMKAA@@std@@@chrono@std@@QEAA@AEB_J@Z PROC ; std::chrono::duration<__int64,std::ratio<1,1000000000> >::duration<__int64,std::ratio<1,1000000000> ><__int64,void>, COMDAT

; 114  : 			: _MyRep(static_cast<_Rep>(_Val))

  00000	48 8b 02	 mov	 rax, QWORD PTR [rdx]
  00003	48 89 01	 mov	 QWORD PTR [rcx], rax

; 116  : 		}

  00006	48 8b c1	 mov	 rax, rcx
  00009	c3		 ret	 0
??$?0_JX@?$duration@_JU?$ratio@$00$0DLJKMKAA@@std@@@chrono@std@@QEAA@AEB_J@Z ENDP ; std::chrono::duration<__int64,std::ratio<1,1000000000> >::duration<__int64,std::ratio<1,1000000000> ><__int64,void>
_TEXT	ENDS
; Function compile flags: /Ogtpy
; File c:\users\alist_000\cppmisc\packages\visualcpptools.14.0.24629\lib\native\include\system_error
;	COMDAT ??$_Immortalize@V_Iostream_error_category@std@@@std@@YAAEAV_Iostream_error_category@0@XZ
_TEXT	SEGMENT
??$_Immortalize@V_Iostream_error_category@std@@@std@@YAAEAV_Iostream_error_category@0@XZ PROC ; std::_Immortalize<std::_Iostream_error_category>, COMDAT

; 693  : 	{	// return a reference to an object that will live forever

$LN23:
  00000	48 83 ec 28	 sub	 rsp, 40			; 00000028H

; 694  : 	/* MAGIC */ static _Immortalizer<_Ty> _Static;

  00004	65 48 8b 04 25
	58 00 00 00	 mov	 rax, QWORD PTR gs:88
  0000d	ba 00 00 00 00	 mov	 edx, OFFSET FLAT:_Init_thread_epoch
  00012	48 8b 08	 mov	 rcx, QWORD PTR [rax]
  00015	8b 04 0a	 mov	 eax, DWORD PTR [rdx+rcx]
  00018	39 05 00 00 00
	00		 cmp	 DWORD PTR ?$TSS0@?1???$_Immortalize@V_Iostream_error_category@std@@@std@@YAAEAV_Iostream_error_category@1@XZ@4HA, eax ; TSS0<`template-parameter-2',unsigned int,std::V_Iostream_error_category::mortalize>
  0001e	7f 0c		 jg	 SHORT $LN21@Immortaliz
$LN19@Immortaliz:

; 695  : 	return (*reinterpret_cast<_Ty *>(&_Static._Storage));

  00020	48 8d 05 00 00
	00 00		 lea	 rax, OFFSET FLAT:?_Static@?1???$_Immortalize@V_Iostream_error_category@std@@@std@@YAAEAV_Iostream_error_category@1@XZ@4U?$_Immortalizer@V_Iostream_error_category@std@@@1@A ; `std::_Immortalize<std::_Iostream_error_category>'::`2'::_Static

; 696  : 	}

  00027	48 83 c4 28	 add	 rsp, 40			; 00000028H
  0002b	c3		 ret	 0
$LN21@Immortaliz:

; 694  : 	/* MAGIC */ static _Immortalizer<_Ty> _Static;

  0002c	48 8d 0d 00 00
	00 00		 lea	 rcx, OFFSET FLAT:?$TSS0@?1???$_Immortalize@V_Iostream_error_category@std@@@std@@YAAEAV_Iostream_error_category@1@XZ@4HA ; TSS0<`template-parameter-2',unsigned int,std::V_Iostream_error_category::mortalize>
  00033	e8 00 00 00 00	 call	 _Init_thread_header
  00038	83 3d 00 00 00
	00 ff		 cmp	 DWORD PTR ?$TSS0@?1???$_Immortalize@V_Iostream_error_category@std@@@std@@YAAEAV_Iostream_error_category@1@XZ@4HA, -1 ; TSS0<`template-parameter-2',unsigned int,std::V_Iostream_error_category::mortalize>
  0003f	75 df		 jne	 SHORT $LN19@Immortaliz

; 612  : 		{	// default constructor

  00041	48 8d 05 00 00
	00 00		 lea	 rax, OFFSET FLAT:??_7_Iostream_error_category@std@@6B@

; 613  : 		_Addr = _Iostream_addr;

  00048	48 c7 05 08 00
	00 00 05 00 00
	00		 mov	 QWORD PTR ?_Static@?1???$_Immortalize@V_Iostream_error_category@std@@@std@@YAAEAV_Iostream_error_category@1@XZ@4U?$_Immortalizer@V_Iostream_error_category@std@@@1@A+8, 5

; 694  : 	/* MAGIC */ static _Immortalizer<_Ty> _Static;

  00053	48 8d 0d 00 00
	00 00		 lea	 rcx, OFFSET FLAT:??__F_Static@?1???$_Immortalize@V_Iostream_error_category@std@@@std@@YAAEAV_Iostream_error_category@0@XZ@YAXXZ ; `std::_Immortalize<std::_Iostream_error_category>'::`2'::`dynamic atexit destructor for '_Static''

; 612  : 		{	// default constructor

  0005a	48 89 05 00 00
	00 00		 mov	 QWORD PTR ?_Static@?1???$_Immortalize@V_Iostream_error_category@std@@@std@@YAAEAV_Iostream_error_category@1@XZ@4U?$_Immortalizer@V_Iostream_error_category@std@@@1@A, rax

; 694  : 	/* MAGIC */ static _Immortalizer<_Ty> _Static;

  00061	e8 00 00 00 00	 call	 atexit
  00066	48 8d 0d 00 00
	00 00		 lea	 rcx, OFFSET FLAT:?$TSS0@?1???$_Immortalize@V_Iostream_error_category@std@@@std@@YAAEAV_Iostream_error_category@1@XZ@4HA ; TSS0<`template-parameter-2',unsigned int,std::V_Iostream_error_category::mortalize>
  0006d	e8 00 00 00 00	 call	 _Init_thread_footer
  00072	eb ac		 jmp	 SHORT $LN19@Immortaliz
??$_Immortalize@V_Iostream_error_category@std@@@std@@YAAEAV_Iostream_error_category@0@XZ ENDP ; std::_Immortalize<std::_Iostream_error_category>
_TEXT	ENDS
; Function compile flags: /Ogtpy
; File c:\users\alist_000\cppmisc\packages\visualcpptools.14.0.24629\lib\native\include\ostream
; File c:\users\alist_000\cppmisc\packages\visualcpptools.14.0.24629\lib\native\include\iosfwd
; File c:\users\alist_000\cppmisc\packages\visualcpptools.14.0.24629\lib\native\include\ostream
; File c:\users\alist_000\cppmisc\packages\visualcpptools.14.0.24629\lib\native\include\xiosbase
; File c:\users\alist_000\cppmisc\packages\visualcpptools.14.0.24629\lib\native\include\ostream
; File c:\users\alist_000\cppmisc\packages\visualcpptools.14.0.24629\lib\native\include\ios
; File c:\users\alist_000\cppmisc\packages\visualcpptools.14.0.24629\lib\native\include\ostream
; File c:\users\alist_000\cppmisc\packages\visualcpptools.14.0.24629\lib\native\include\xiosbase
; File c:\users\alist_000\cppmisc\packages\visualcpptools.14.0.24629\lib\native\include\ostream
; File c:\users\alist_000\cppmisc\packages\visualcpptools.14.0.24629\lib\native\include\ios
; File c:\users\alist_000\cppmisc\packages\visualcpptools.14.0.24629\lib\native\include\ostream
; File c:\users\alist_000\cppmisc\packages\visualcpptools.14.0.24629\lib\native\include\xiosbase
; File c:\users\alist_000\cppmisc\packages\visualcpptools.14.0.24629\lib\native\include\ostream
; File c:\users\alist_000\cppmisc\packages\visualcpptools.14.0.24629\lib\native\include\xiosbase
; File c:\users\alist_000\cppmisc\packages\visualcpptools.14.0.24629\lib\native\include\ostream
; File c:\users\alist_000\cppmisc\packages\visualcpptools.14.0.24629\lib\native\include\ios
; File c:\users\alist_000\cppmisc\packages\visualcpptools.14.0.24629\lib\native\include\streambuf
; File c:\users\alist_000\cppmisc\packages\visualcpptools.14.0.24629\lib\native\include\iosfwd
; File c:\users\alist_000\cppmisc\packages\visualcpptools.14.0.24629\lib\native\include\streambuf
; File c:\users\alist_000\cppmisc\packages\visualcpptools.14.0.24629\lib\native\include\iosfwd
; File c:\users\alist_000\cppmisc\packages\visualcpptools.14.0.24629\lib\native\include\streambuf
; File c:\users\alist_000\cppmisc\packages\visualcpptools.14.0.24629\lib\native\include\ostream
; File c:\users\alist_000\cppmisc\packages\visualcpptools.14.0.24629\lib\native\include\ios
; File c:\users\alist_000\cppmisc\packages\visualcpptools.14.0.24629\lib\native\include\streambuf
; File c:\users\alist_000\cppmisc\packages\visualcpptools.14.0.24629\lib\native\include\ostream
; File c:\users\alist_000\cppmisc\packages\visualcpptools.14.0.24629\lib\native\include\ios
; File c:\users\alist_000\cppmisc\packages\visualcpptools.14.0.24629\lib\native\include\streambuf
; File c:\users\alist_000\cppmisc\packages\visualcpptools.14.0.24629\lib\native\include\iosfwd
; File c:\users\alist_000\cppmisc\packages\visualcpptools.14.0.24629\lib\native\include\streambuf
; File c:\users\alist_000\cppmisc\packages\visualcpptools.14.0.24629\lib\native\include\iosfwd
; File c:\users\alist_000\cppmisc\packages\visualcpptools.14.0.24629\lib\native\include\streambuf
; File c:\users\alist_000\cppmisc\packages\visualcpptools.14.0.24629\lib\native\include\ostream
; File c:\users\alist_000\cppmisc\packages\visualcpptools.14.0.24629\lib\native\include\xiosbase
; File c:\users\alist_000\cppmisc\packages\visualcpptools.14.0.24629\lib\native\include\ostream
; File c:\users\alist_000\cppmisc\packages\visualcpptools.14.0.24629\lib\native\include\ios
; File c:\users\alist_000\cppmisc\packages\visualcpptools.14.0.24629\lib\native\include\xiosbase
; File c:\users\alist_000\cppmisc\packages\visualcpptools.14.0.24629\lib\native\include\ios
; File c:\users\alist_000\cppmisc\packages\visualcpptools.14.0.24629\lib\native\include\xiosbase
; File c:\users\alist_000\cppmisc\packages\visualcpptools.14.0.24629\lib\native\include\ostream
; File c:\users\alist_000\cppmisc\packages\visualcpptools.14.0.24629\lib\native\include\ios
; File c:\users\alist_000\cppmisc\packages\visualcpptools.14.0.24629\lib\native\include\ostream
;	COMDAT ??$?6U?$char_traits@D@std@@@std@@YAAEAV?$basic_ostream@DU?$char_traits@D@std@@@0@AEAV10@PEBD@Z
_TEXT	SEGMENT
_Ok$ = 32
$T1 = 48
$T2 = 64
$T3 = 72
$T4 = 112
$T5 = 152
_Ostr$dead$ = 240
_State$ = 240
_Val$ = 248
_Ostr$ = 256
??$?6U?$char_traits@D@std@@@std@@YAAEAV?$basic_ostream@DU?$char_traits@D@std@@@0@AEAV10@PEBD@Z PROC ; std::operator<<<std::char_traits<char> >, COMDAT

; 773  : 	{	// insert NTBS into char stream

$LN191:
  00000	48 89 4c 24 08	 mov	 QWORD PTR [rsp+8], rcx
  00005	56		 push	 rsi
  00006	57		 push	 rdi
  00007	41 54		 push	 r12
  00009	41 56		 push	 r14
  0000b	41 57		 push	 r15
  0000d	48 81 ec c0 00
	00 00		 sub	 rsp, 192		; 000000c0H
  00014	48 c7 44 24 40
	fe ff ff ff	 mov	 QWORD PTR $T2[rsp], -2
  0001d	48 89 9c 24 f8
	00 00 00	 mov	 QWORD PTR [rsp+248], rbx
  00025	4c 8b fa	 mov	 r15, rdx
  00028	48 8d 35 00 00
	00 00		 lea	 rsi, OFFSET FLAT:?cout@std@@3V?$basic_ostream@DU?$char_traits@D@std@@@1@A ; std::cout
  0002f	48 89 b4 24 00
	01 00 00	 mov	 QWORD PTR _Ostr$[rsp], rsi

; 774  : 	typedef char _Elem;
; 775  : 	typedef basic_ostream<_Elem, _Traits> _Myos;
; 776  : 	ios_base::iostate _State = ios_base::goodbit;

  00037	33 db		 xor	 ebx, ebx
  00039	89 9c 24 f0 00
	00 00		 mov	 DWORD PTR _State$[rsp], ebx
; File c:\users\alist_000\cppmisc\packages\visualcpptools.14.0.24629\lib\native\include\iosfwd

; 479  : 		return (_CSTD strlen(_First));

  00040	49 83 ce ff	 or	 r14, -1
$LL184@operator:
  00044	49 ff c6	 inc	 r14
  00047	42 38 1c 32	 cmp	 BYTE PTR [rdx+r14], bl
  0004b	75 f7		 jne	 SHORT $LL184@operator
; File c:\users\alist_000\cppmisc\packages\visualcpptools.14.0.24629\lib\native\include\ostream

; 778  : 	streamsize _Pad = _Ostr.width() <= 0 || _Ostr.width() <= _Count

  0004d	48 8b 05 00 00
	00 00		 mov	 rax, QWORD PTR ?cout@std@@3V?$basic_ostream@DU?$char_traits@D@std@@@1@A
  00054	48 63 48 04	 movsxd	 rcx, DWORD PTR [rax+4]
; File c:\users\alist_000\cppmisc\packages\visualcpptools.14.0.24629\lib\native\include\xiosbase

; 423  : 		return (_Wide);

  00058	48 8b 7c 31 28	 mov	 rdi, QWORD PTR [rcx+rsi+40]
; File c:\users\alist_000\cppmisc\packages\visualcpptools.14.0.24629\lib\native\include\ostream

; 778  : 	streamsize _Pad = _Ostr.width() <= 0 || _Ostr.width() <= _Count

  0005d	48 85 ff	 test	 rdi, rdi
  00060	7e 0a		 jle	 SHORT $LN17@operator
  00062	49 3b fe	 cmp	 rdi, r14
  00065	7e 05		 jle	 SHORT $LN17@operator
  00067	49 2b fe	 sub	 rdi, r14
  0006a	eb 02		 jmp	 SHORT $LN18@operator
$LN17@operator:
  0006c	33 ff		 xor	 edi, edi
$LN18@operator:

; 99   : 			: _Myostr(_Ostr)

  0006e	4c 8b e6	 mov	 r12, rsi
  00071	48 89 74 24 20	 mov	 QWORD PTR _Ok$[rsp], rsi
; File c:\users\alist_000\cppmisc\packages\visualcpptools.14.0.24629\lib\native\include\ios

; 92   : 		return (_Mystrbuf);

  00076	48 8b 4c 31 48	 mov	 rcx, QWORD PTR [rcx+rsi+72]
; File c:\users\alist_000\cppmisc\packages\visualcpptools.14.0.24629\lib\native\include\ostream

; 101  : 			if (_Myostr.rdbuf() != 0)

  0007b	48 85 c9	 test	 rcx, rcx
  0007e	74 0d		 je	 SHORT $LN38@operator

; 102  : 				_Myostr.rdbuf()->_Lock();

  00080	48 8b 01	 mov	 rax, QWORD PTR [rcx]
  00083	ff 50 08	 call	 QWORD PTR [rax+8]
  00086	48 8b 05 00 00
	00 00		 mov	 rax, QWORD PTR ?cout@std@@3V?$basic_ostream@DU?$char_traits@D@std@@@1@A
$LN38@operator:

; 124  : 			if (_Ostr.good() && _Ostr.tie() != 0 && _Ostr.tie() != &_Ostr)

  0008d	48 63 48 04	 movsxd	 rcx, DWORD PTR [rax+4]
; File c:\users\alist_000\cppmisc\packages\visualcpptools.14.0.24629\lib\native\include\xiosbase

; 339  : 		return (rdstate() == goodbit);

  00091	83 7c 31 10 00	 cmp	 DWORD PTR [rcx+rsi+16], 0
; File c:\users\alist_000\cppmisc\packages\visualcpptools.14.0.24629\lib\native\include\ostream

; 124  : 			if (_Ostr.good() && _Ostr.tie() != 0 && _Ostr.tie() != &_Ostr)

  00096	75 1b		 jne	 SHORT $LN34@operator
; File c:\users\alist_000\cppmisc\packages\visualcpptools.14.0.24629\lib\native\include\ios

; 80   : 		return (_Tiestr);

  00098	48 8b 4c 31 50	 mov	 rcx, QWORD PTR [rcx+rsi+80]
; File c:\users\alist_000\cppmisc\packages\visualcpptools.14.0.24629\lib\native\include\ostream

; 124  : 			if (_Ostr.good() && _Ostr.tie() != 0 && _Ostr.tie() != &_Ostr)

  0009d	48 85 c9	 test	 rcx, rcx
  000a0	74 11		 je	 SHORT $LN34@operator
  000a2	48 3b ce	 cmp	 rcx, rsi
  000a5	74 0c		 je	 SHORT $LN34@operator

; 125  : 				_Ostr.tie()->flush();

  000a7	e8 00 00 00 00	 call	 ?flush@?$basic_ostream@DU?$char_traits@D@std@@@std@@QEAAAEAV12@XZ ; std::basic_ostream<char,std::char_traits<char> >::flush
  000ac	48 8b 05 00 00
	00 00		 mov	 rax, QWORD PTR ?cout@std@@3V?$basic_ostream@DU?$char_traits@D@std@@@1@A
$LN34@operator:

; 126  : 			_Ok = _Ostr.good();	// store test only after flushing tie

  000b3	48 63 48 04	 movsxd	 rcx, DWORD PTR [rax+4]
; File c:\users\alist_000\cppmisc\packages\visualcpptools.14.0.24629\lib\native\include\xiosbase

; 339  : 		return (rdstate() == goodbit);

  000b7	83 7c 31 10 00	 cmp	 DWORD PTR [rcx+rsi+16], 0
  000bc	0f 94 c0	 sete	 al
  000bf	88 44 24 28	 mov	 BYTE PTR _Ok$[rsp+8], al
; File c:\users\alist_000\cppmisc\packages\visualcpptools.14.0.24629\lib\native\include\ostream

; 782  : 	if (!_Ok)

  000c3	84 c0		 test	 al, al
  000c5	75 0a		 jne	 SHORT $LN8@operator

; 783  : 		_State |= ios_base::badbit;

  000c7	bb 04 00 00 00	 mov	 ebx, 4

; 784  : 	else

  000cc	e9 23 01 00 00	 jmp	 $LN22@operator
$LN8@operator:
; File c:\users\alist_000\cppmisc\packages\visualcpptools.14.0.24629\lib\native\include\xiosbase

; 378  : 		return (_Fmtfl);

  000d1	8b 44 31 18	 mov	 eax, DWORD PTR [rcx+rsi+24]
; File c:\users\alist_000\cppmisc\packages\visualcpptools.14.0.24629\lib\native\include\ostream

; 787  : 		if ((_Ostr.flags() & ios_base::adjustfield) != ios_base::left)

  000d5	25 c0 01 00 00	 and	 eax, 448		; 000001c0H
  000da	83 f8 40	 cmp	 eax, 64			; 00000040H
  000dd	74 67		 je	 SHORT $LN181@operator
  000df	90		 npad	 1
$LL4@operator:

; 788  : 			for (; 0 < _Pad; --_Pad)	// pad on left

  000e0	48 85 ff	 test	 rdi, rdi
  000e3	7e 59		 jle	 SHORT $LN3@operator

; 789  : 				if (_Traits::eq_int_type(_Traits::eof(),

  000e5	48 8b 06	 mov	 rax, QWORD PTR [rsi]
  000e8	48 63 48 04	 movsxd	 rcx, DWORD PTR [rax+4]
; File c:\users\alist_000\cppmisc\packages\visualcpptools.14.0.24629\lib\native\include\ios

; 113  : 		return (_Fillch);

  000ec	44 0f b6 44 31
	58		 movzx	 r8d, BYTE PTR [rcx+rsi+88]

; 92   : 		return (_Mystrbuf);

  000f2	48 8b 4c 31 48	 mov	 rcx, QWORD PTR [rcx+rsi+72]
; File c:\users\alist_000\cppmisc\packages\visualcpptools.14.0.24629\lib\native\include\streambuf

; 314  : 		return (*_IPnext != 0 ? *_IPcount : 0);

  000f7	48 8b 41 40	 mov	 rax, QWORD PTR [rcx+64]
  000fb	48 83 38 00	 cmp	 QWORD PTR [rax], 0
  000ff	74 25		 je	 SHORT $LN68@operator
  00101	48 8b 51 58	 mov	 rdx, QWORD PTR [rcx+88]
  00105	8b 02		 mov	 eax, DWORD PTR [rdx]

; 200  : 		return (0 < _Pnavail()

  00107	85 c0		 test	 eax, eax
  00109	7e 1b		 jle	 SHORT $LN68@operator

; 308  : 		--*_IPcount;

  0010b	ff c8		 dec	 eax
  0010d	89 02		 mov	 DWORD PTR [rdx], eax

; 309  : 		return ((*_IPnext)++);

  0010f	48 8b 49 40	 mov	 rcx, QWORD PTR [rcx+64]
  00113	48 8b 11	 mov	 rdx, QWORD PTR [rcx]
  00116	48 8d 42 01	 lea	 rax, QWORD PTR [rdx+1]
  0011a	48 89 01	 mov	 QWORD PTR [rcx], rax

; 200  : 		return (0 < _Pnavail()

  0011d	44 88 02	 mov	 BYTE PTR [rdx], r8b
; File c:\users\alist_000\cppmisc\packages\visualcpptools.14.0.24629\lib\native\include\iosfwd

; 536  : 		return ((unsigned char)_Ch);

  00120	41 0f b6 c0	 movzx	 eax, r8b
; File c:\users\alist_000\cppmisc\packages\visualcpptools.14.0.24629\lib\native\include\streambuf

; 200  : 		return (0 < _Pnavail()

  00124	eb 0a		 jmp	 SHORT $LN69@operator
$LN68@operator:
; File c:\users\alist_000\cppmisc\packages\visualcpptools.14.0.24629\lib\native\include\iosfwd

; 536  : 		return ((unsigned char)_Ch);

  00126	41 0f b6 d0	 movzx	 edx, r8b
; File c:\users\alist_000\cppmisc\packages\visualcpptools.14.0.24629\lib\native\include\streambuf

; 200  : 		return (0 < _Pnavail()

  0012a	48 8b 01	 mov	 rax, QWORD PTR [rcx]
  0012d	ff 50 18	 call	 QWORD PTR [rax+24]
$LN69@operator:
  00130	83 f8 ff	 cmp	 eax, -1
; File c:\users\alist_000\cppmisc\packages\visualcpptools.14.0.24629\lib\native\include\ostream

; 789  : 				if (_Traits::eq_int_type(_Traits::eof(),

  00133	0f 84 89 00 00
	00		 je	 $LN189@operator

; 788  : 			for (; 0 < _Pad; --_Pad)	// pad on left

  00139	48 ff cf	 dec	 rdi
  0013c	eb a2		 jmp	 SHORT $LL4@operator
$LN3@operator:
  0013e	85 db		 test	 ebx, ebx

; 797  : 			&& _Ostr.rdbuf()->sputn(_Val, _Count) != _Count)

  00140	0f 85 88 00 00
	00		 jne	 $LN6@operator
$LN181@operator:
  00146	48 8b 06	 mov	 rax, QWORD PTR [rsi]
  00149	48 63 48 04	 movsxd	 rcx, DWORD PTR [rax+4]
; File c:\users\alist_000\cppmisc\packages\visualcpptools.14.0.24629\lib\native\include\ios

; 92   : 		return (_Mystrbuf);

  0014d	48 8b 4c 31 48	 mov	 rcx, QWORD PTR [rcx+rsi+72]
; File c:\users\alist_000\cppmisc\packages\visualcpptools.14.0.24629\lib\native\include\streambuf

; 208  : 		return (xsputn(_Ptr, _Count));

  00152	48 8b 01	 mov	 rax, QWORD PTR [rcx]
  00155	4d 8b c6	 mov	 r8, r14
  00158	49 8b d7	 mov	 rdx, r15
  0015b	ff 50 48	 call	 QWORD PTR [rax+72]
; File c:\users\alist_000\cppmisc\packages\visualcpptools.14.0.24629\lib\native\include\ostream

; 797  : 			&& _Ostr.rdbuf()->sputn(_Val, _Count) != _Count)

  0015e	49 3b c6	 cmp	 rax, r14
  00161	75 5f		 jne	 SHORT $LN189@operator
$LL185@operator:

; 799  : 
; 800  : 		if (_State == ios_base::goodbit)
; 801  : 			for (; 0 < _Pad; --_Pad)	// pad on right

  00163	48 85 ff	 test	 rdi, rdi
  00166	7e 66		 jle	 SHORT $LN6@operator

; 802  : 				if (_Traits::eq_int_type(_Traits::eof(),

  00168	48 8b 06	 mov	 rax, QWORD PTR [rsi]
  0016b	48 63 48 04	 movsxd	 rcx, DWORD PTR [rax+4]
; File c:\users\alist_000\cppmisc\packages\visualcpptools.14.0.24629\lib\native\include\ios

; 113  : 		return (_Fillch);

  0016f	44 0f b6 44 31
	58		 movzx	 r8d, BYTE PTR [rcx+rsi+88]

; 92   : 		return (_Mystrbuf);

  00175	48 8b 4c 31 48	 mov	 rcx, QWORD PTR [rcx+rsi+72]
; File c:\users\alist_000\cppmisc\packages\visualcpptools.14.0.24629\lib\native\include\streambuf

; 314  : 		return (*_IPnext != 0 ? *_IPcount : 0);

  0017a	48 8b 41 40	 mov	 rax, QWORD PTR [rcx+64]
  0017e	48 83 38 00	 cmp	 QWORD PTR [rax], 0
  00182	74 25		 je	 SHORT $LN98@operator
  00184	48 8b 51 58	 mov	 rdx, QWORD PTR [rcx+88]
  00188	8b 02		 mov	 eax, DWORD PTR [rdx]

; 200  : 		return (0 < _Pnavail()

  0018a	85 c0		 test	 eax, eax
  0018c	7e 1b		 jle	 SHORT $LN98@operator

; 308  : 		--*_IPcount;

  0018e	ff c8		 dec	 eax
  00190	89 02		 mov	 DWORD PTR [rdx], eax

; 309  : 		return ((*_IPnext)++);

  00192	48 8b 49 40	 mov	 rcx, QWORD PTR [rcx+64]
  00196	48 8b 11	 mov	 rdx, QWORD PTR [rcx]
  00199	48 8d 42 01	 lea	 rax, QWORD PTR [rdx+1]
  0019d	48 89 01	 mov	 QWORD PTR [rcx], rax

; 200  : 		return (0 < _Pnavail()

  001a0	44 88 02	 mov	 BYTE PTR [rdx], r8b
; File c:\users\alist_000\cppmisc\packages\visualcpptools.14.0.24629\lib\native\include\iosfwd

; 536  : 		return ((unsigned char)_Ch);

  001a3	41 0f b6 c0	 movzx	 eax, r8b
; File c:\users\alist_000\cppmisc\packages\visualcpptools.14.0.24629\lib\native\include\streambuf

; 200  : 		return (0 < _Pnavail()

  001a7	eb 0a		 jmp	 SHORT $LN99@operator
$LN98@operator:
; File c:\users\alist_000\cppmisc\packages\visualcpptools.14.0.24629\lib\native\include\iosfwd

; 536  : 		return ((unsigned char)_Ch);

  001a9	41 0f b6 d0	 movzx	 edx, r8b
; File c:\users\alist_000\cppmisc\packages\visualcpptools.14.0.24629\lib\native\include\streambuf

; 200  : 		return (0 < _Pnavail()

  001ad	48 8b 01	 mov	 rax, QWORD PTR [rcx]
  001b0	ff 50 18	 call	 QWORD PTR [rax+24]
$LN99@operator:
  001b3	83 f8 ff	 cmp	 eax, -1
; File c:\users\alist_000\cppmisc\packages\visualcpptools.14.0.24629\lib\native\include\ostream

; 802  : 				if (_Traits::eq_int_type(_Traits::eof(),

  001b6	75 05		 jne	 SHORT $LN5@operator

; 803  : 					_Ostr.rdbuf()->sputc(_Ostr.fill())))
; 804  : 					{	// insertion failed, quit
; 805  : 					_State |= ios_base::badbit;

  001b8	83 cb 04	 or	 ebx, 4

; 806  : 					break;

  001bb	eb 0a		 jmp	 SHORT $LN188@operator
$LN5@operator:

; 799  : 
; 800  : 		if (_State == ios_base::goodbit)
; 801  : 			for (; 0 < _Pad; --_Pad)	// pad on right

  001bd	48 ff cf	 dec	 rdi
  001c0	eb a1		 jmp	 SHORT $LL185@operator
$LN189@operator:

; 798  : 			_State |= ios_base::badbit;

  001c2	bb 04 00 00 00	 mov	 ebx, 4
$LN188@operator:

; 790  : 					_Ostr.rdbuf()->sputc(_Ostr.fill())))
; 791  : 					{	// insertion failed, quit
; 792  : 					_State |= ios_base::badbit;

  001c7	89 9c 24 f0 00
	00 00		 mov	 DWORD PTR _State$[rsp], ebx
$LN6@operator:

; 807  : 					}
; 808  : 		_Ostr.width(0);

  001ce	48 8b 06	 mov	 rax, QWORD PTR [rsi]
  001d1	48 63 48 04	 movsxd	 rcx, DWORD PTR [rax+4]
; File c:\users\alist_000\cppmisc\packages\visualcpptools.14.0.24629\lib\native\include\xiosbase

; 429  : 		_Wide = _Newwidth;

  001d5	48 c7 44 31 28
	00 00 00 00	 mov	 QWORD PTR [rcx+rsi+40], 0
; File c:\users\alist_000\cppmisc\packages\visualcpptools.14.0.24629\lib\native\include\ostream
  001de	eb 14		 jmp	 SHORT $LN22@operator
$LN23@operator:
; File c:\users\alist_000\cppmisc\packages\visualcpptools.14.0.24629\lib\native\include\ios
  001e0	48 8b b4 24 00
	01 00 00	 mov	 rsi, QWORD PTR _Ostr$[rsp]
  001e8	8b 9c 24 f0 00
	00 00		 mov	 ebx, DWORD PTR _State$[rsp]
  001ef	4c 8b 64 24 20	 mov	 r12, QWORD PTR _Ok$[rsp]
$LN22@operator:
; File c:\users\alist_000\cppmisc\packages\visualcpptools.14.0.24629\lib\native\include\ostream

; 812  : 	_Ostr.setstate(_State);

  001f4	48 8b 06	 mov	 rax, QWORD PTR [rsi]
  001f7	48 63 50 04	 movsxd	 rdx, DWORD PTR [rax+4]
  001fb	48 03 d6	 add	 rdx, rsi
; File c:\users\alist_000\cppmisc\packages\visualcpptools.14.0.24629\lib\native\include\ios

; 59   : 		if (_State != goodbit)

  001fe	85 db		 test	 ebx, ebx
  00200	0f 84 bc 00 00
	00		 je	 $LN159@operator
; File c:\users\alist_000\cppmisc\packages\visualcpptools.14.0.24629\lib\native\include\xiosbase

; 315  : 		return (_Mystate);

  00206	8b 42 10	 mov	 eax, DWORD PTR [rdx+16]
; File c:\users\alist_000\cppmisc\packages\visualcpptools.14.0.24629\lib\native\include\ios

; 60   : 			clear((iostate)((int)rdstate() | (int)_State), _Reraise);

  00209	0b c3		 or	 eax, ebx
  0020b	8b c8		 mov	 ecx, eax
  0020d	83 c9 04	 or	 ecx, 4
  00210	48 83 7a 48 00	 cmp	 QWORD PTR [rdx+72], 0
  00215	0f 45 c8	 cmovne	 ecx, eax
; File c:\users\alist_000\cppmisc\packages\visualcpptools.14.0.24629\lib\native\include\xiosbase

; 288  : 		_Mystate = (iostate)(_State & _Statmask);

  00218	83 e1 17	 and	 ecx, 23
  0021b	89 4a 10	 mov	 DWORD PTR [rdx+16], ecx

; 289  : 		if ((_Mystate & _Except) == 0)

  0021e	8b 42 14	 mov	 eax, DWORD PTR [rdx+20]
  00221	23 c1		 and	 eax, ecx
  00223	0f 84 99 00 00
	00		 je	 $LN159@operator

; 294  : 			_THROW_NCEE(failure, "ios_base::badbit set");

  00229	ba 01 00 00 00	 mov	 edx, 1
  0022e	48 8d 4c 24 30	 lea	 rcx, QWORD PTR $T1[rsp]

; 290  : 			;
; 291  : 		else if (_Reraise)
; 292  : 			_RERAISE;
; 293  : 		else if (_Mystate & _Except & badbit)

  00233	a8 04		 test	 al, 4
  00235	74 2b		 je	 SHORT $LN156@operator

; 294  : 			_THROW_NCEE(failure, "ios_base::badbit set");

  00237	e8 00 00 00 00	 call	 ?make_error_code@std@@YA?AVerror_code@1@W4io_errc@1@@Z ; std::make_error_code
  0023c	4c 8b c0	 mov	 r8, rax
  0023f	48 8d 15 00 00
	00 00		 lea	 rdx, OFFSET FLAT:??_C@_0BF@PHHKMMFD@ios_base?3?3badbit?5set?$AA@
  00246	48 8d 4c 24 48	 lea	 rcx, QWORD PTR $T3[rsp]
  0024b	e8 00 00 00 00	 call	 ??0failure@ios_base@std@@QEAA@PEBDAEBVerror_code@2@@Z ; std::ios_base::failure::failure
  00250	48 8d 15 00 00
	00 00		 lea	 rdx, OFFSET FLAT:_TI5?AVfailure@ios_base@std@@
  00257	48 8d 4c 24 48	 lea	 rcx, QWORD PTR $T3[rsp]
  0025c	e8 00 00 00 00	 call	 _CxxThrowException
  00261	cc		 int	 3
$LN156@operator:

; 295  : 		else if (_Mystate & _Except & failbit)

  00262	a8 02		 test	 al, 2
  00264	74 2b		 je	 SHORT $LN158@operator

; 296  : 			_THROW_NCEE(failure, "ios_base::failbit set");

  00266	e8 00 00 00 00	 call	 ?make_error_code@std@@YA?AVerror_code@1@W4io_errc@1@@Z ; std::make_error_code
  0026b	4c 8b c0	 mov	 r8, rax
  0026e	48 8d 15 00 00
	00 00		 lea	 rdx, OFFSET FLAT:??_C@_0BG@FMKFHCIL@ios_base?3?3failbit?5set?$AA@
  00275	48 8d 4c 24 70	 lea	 rcx, QWORD PTR $T4[rsp]
  0027a	e8 00 00 00 00	 call	 ??0failure@ios_base@std@@QEAA@PEBDAEBVerror_code@2@@Z ; std::ios_base::failure::failure
  0027f	48 8d 15 00 00
	00 00		 lea	 rdx, OFFSET FLAT:_TI5?AVfailure@ios_base@std@@
  00286	48 8d 4c 24 70	 lea	 rcx, QWORD PTR $T4[rsp]
  0028b	e8 00 00 00 00	 call	 _CxxThrowException
  00290	cc		 int	 3
$LN158@operator:

; 297  : 		else
; 298  : 			_THROW_NCEE(failure, "ios_base::eofbit set");

  00291	e8 00 00 00 00	 call	 ?make_error_code@std@@YA?AVerror_code@1@W4io_errc@1@@Z ; std::make_error_code
  00296	4c 8b c0	 mov	 r8, rax
  00299	48 8d 15 00 00
	00 00		 lea	 rdx, OFFSET FLAT:??_C@_0BF@OOHOMBOF@ios_base?3?3eofbit?5set?$AA@
  002a0	48 8d 8c 24 98
	00 00 00	 lea	 rcx, QWORD PTR $T5[rsp]
  002a8	e8 00 00 00 00	 call	 ??0failure@ios_base@std@@QEAA@PEBDAEBVerror_code@2@@Z ; std::ios_base::failure::failure
  002ad	48 8d 15 00 00
	00 00		 lea	 rdx, OFFSET FLAT:_TI5?AVfailure@ios_base@std@@
  002b4	48 8d 8c 24 98
	00 00 00	 lea	 rcx, QWORD PTR $T5[rsp]
  002bc	e8 00 00 00 00	 call	 _CxxThrowException
  002c1	90		 npad	 1
$LN159@operator:
; File c:\users\alist_000\cppmisc\packages\visualcpptools.14.0.24629\lib\native\include\ostream

; 132  : 			if (!_STD uncaught_exception())

  002c2	e8 00 00 00 00	 call	 ?uncaught_exception@std@@YA_NXZ ; std::uncaught_exception
  002c7	84 c0		 test	 al, al
  002c9	75 09		 jne	 SHORT $LN164@operator

; 133  : 				this->_Myostr._Osfx();

  002cb	49 8b cc	 mov	 rcx, r12
  002ce	e8 00 00 00 00	 call	 ?_Osfx@?$basic_ostream@DU?$char_traits@D@std@@@std@@QEAAXXZ ; std::basic_ostream<char,std::char_traits<char> >::_Osfx
  002d3	90		 npad	 1
$LN164@operator:

; 107  : 			if (_Myostr.rdbuf() != 0)

  002d4	49 8b 0c 24	 mov	 rcx, QWORD PTR [r12]
  002d8	48 63 51 04	 movsxd	 rdx, DWORD PTR [rcx+4]
; File c:\users\alist_000\cppmisc\packages\visualcpptools.14.0.24629\lib\native\include\ios

; 92   : 		return (_Mystrbuf);

  002dc	4a 8b 4c 22 48	 mov	 rcx, QWORD PTR [rdx+r12+72]
; File c:\users\alist_000\cppmisc\packages\visualcpptools.14.0.24629\lib\native\include\ostream

; 107  : 			if (_Myostr.rdbuf() != 0)

  002e1	48 85 c9	 test	 rcx, rcx
  002e4	74 07		 je	 SHORT $LN168@operator

; 108  : 				_Myostr.rdbuf()->_Unlock();

  002e6	48 8b 11	 mov	 rdx, QWORD PTR [rcx]
  002e9	ff 52 10	 call	 QWORD PTR [rdx+16]
  002ec	90		 npad	 1
$LN168@operator:

; 813  : 	return (_Ostr);

  002ed	48 8b c6	 mov	 rax, rsi

; 814  : 	}

  002f0	48 8b 9c 24 f8
	00 00 00	 mov	 rbx, QWORD PTR [rsp+248]
  002f8	48 81 c4 c0 00
	00 00		 add	 rsp, 192		; 000000c0H
  002ff	41 5f		 pop	 r15
  00301	41 5e		 pop	 r14
  00303	41 5c		 pop	 r12
  00305	5f		 pop	 rdi
  00306	5e		 pop	 rsi
  00307	c3		 ret	 0
$LN187@operator:
??$?6U?$char_traits@D@std@@@std@@YAAEAV?$basic_ostream@DU?$char_traits@D@std@@@0@AEAV10@PEBD@Z ENDP ; std::operator<<<std::char_traits<char> >
_TEXT	ENDS
;	COMDAT text$x
text$x	SEGMENT
_Ok$ = 32
$T1 = 48
$T2 = 64
$T3 = 72
$T4 = 112
$T5 = 152
_Ostr$dead$ = 240
_State$ = 240
_Val$ = 248
_Ostr$ = 256
?dtor$2@?0???$?6U?$char_traits@D@std@@@std@@YAAEAV?$basic_ostream@DU?$char_traits@D@std@@@0@AEAV10@PEBD@Z@4HA PROC ; `std::operator<<<std::char_traits<char> >'::`1'::dtor$2
  00000	48 8d 8a 20 00
	00 00		 lea	 rcx, QWORD PTR _Ok$[rdx]
  00007	e9 00 00 00 00	 jmp	 ??1_Sentry_base@?$basic_ostream@DU?$char_traits@D@std@@@std@@QEAA@XZ ; std::basic_ostream<char,std::char_traits<char> >::_Sentry_base::~_Sentry_base
?dtor$2@?0???$?6U?$char_traits@D@std@@@std@@YAAEAV?$basic_ostream@DU?$char_traits@D@std@@@0@AEAV10@PEBD@Z@4HA ENDP ; `std::operator<<<std::char_traits<char> >'::`1'::dtor$2
_Ok$ = 32
$T1 = 48
$T2 = 64
$T3 = 72
$T4 = 112
$T5 = 152
_Ostr$dead$ = 240
_State$ = 240
_Val$ = 248
_Ostr$ = 256
?dtor$0@?0???$?6U?$char_traits@D@std@@@std@@YAAEAV?$basic_ostream@DU?$char_traits@D@std@@@0@AEAV10@PEBD@Z@4HA PROC ; `std::operator<<<std::char_traits<char> >'::`1'::dtor$0
  0000c	48 8d 8a 20 00
	00 00		 lea	 rcx, QWORD PTR _Ok$[rdx]
  00013	e9 00 00 00 00	 jmp	 ??1sentry@?$basic_ostream@DU?$char_traits@D@std@@@std@@QEAA@XZ ; std::basic_ostream<char,std::char_traits<char> >::sentry::~sentry
?dtor$0@?0???$?6U?$char_traits@D@std@@@std@@YAAEAV?$basic_ostream@DU?$char_traits@D@std@@@0@AEAV10@PEBD@Z@4HA ENDP ; `std::operator<<<std::char_traits<char> >'::`1'::dtor$0
_Ok$ = 32
$T1 = 48
$T2 = 64
$T3 = 72
$T4 = 112
$T5 = 152
_Ostr$dead$ = 240
_State$ = 240
_Val$ = 248
_Ostr$ = 256
?catch$13@?0???$?6U?$char_traits@D@std@@@std@@YAAEAV?$basic_ostream@DU?$char_traits@D@std@@@0@AEAV10@PEBD@Z@4HA PROC ; `std::operator<<<std::char_traits<char> >'::`1'::catch$13

; 809  : 		_CATCH_IO_(_Ostr)

  00018	48 89 54 24 10	 mov	 QWORD PTR [rsp+16], rdx
  0001d	55		 push	 rbp
  0001e	48 83 ec 20	 sub	 rsp, 32			; 00000020H
  00022	48 8b ea	 mov	 rbp, rdx
__catch$??$?6U?$char_traits@D@std@@@std@@YAAEAV?$basic_ostream@DU?$char_traits@D@std@@@0@AEAV10@PEBD@Z$0:
  00025	48 8b 8d 00 01
	00 00		 mov	 rcx, QWORD PTR _Ostr$[rbp]
  0002c	48 8b 01	 mov	 rax, QWORD PTR [rcx]
  0002f	48 63 50 04	 movsxd	 rdx, DWORD PTR [rax+4]
  00033	48 03 d1	 add	 rdx, rcx
; File c:\users\alist_000\cppmisc\packages\visualcpptools.14.0.24629\lib\native\include\xiosbase

; 315  : 		return (_Mystate);

  00036	8b 42 10	 mov	 eax, DWORD PTR [rdx+16]
; File c:\users\alist_000\cppmisc\packages\visualcpptools.14.0.24629\lib\native\include\ios

; 60   : 			clear((iostate)((int)rdstate() | (int)_State), _Reraise);

  00039	83 c8 04	 or	 eax, 4

; 45   : 		ios_base::clear((iostate)(_Mystrbuf == 0

  0003c	48 83 7a 48 00	 cmp	 QWORD PTR [rdx+72], 0
  00041	75 03		 jne	 SHORT $LN127@catch$13
  00043	83 c8 04	 or	 eax, 4
$LN127@catch$13:
; File c:\users\alist_000\cppmisc\packages\visualcpptools.14.0.24629\lib\native\include\xiosbase

; 288  : 		_Mystate = (iostate)(_State & _Statmask);

  00046	83 e0 17	 and	 eax, 23
  00049	89 42 10	 mov	 DWORD PTR [rdx+16], eax

; 289  : 		if ((_Mystate & _Except) == 0)

  0004c	85 42 14	 test	 DWORD PTR [rdx+20], eax
  0004f	75 09		 jne	 SHORT $LN130@catch$13
; File c:\users\alist_000\cppmisc\packages\visualcpptools.14.0.24629\lib\native\include\ostream

; 809  : 		_CATCH_IO_(_Ostr)

  00051	48 8d 05 00 00
	00 00		 lea	 rax, $LN23@catch$13
  00058	eb 0a		 jmp	 SHORT $LN190@catch$13
$LN130@catch$13:
; File c:\users\alist_000\cppmisc\packages\visualcpptools.14.0.24629\lib\native\include\xiosbase

; 292  : 			_RERAISE;

  0005a	33 d2		 xor	 edx, edx
  0005c	33 c9		 xor	 ecx, ecx
  0005e	e8 00 00 00 00	 call	 _CxxThrowException
  00063	90		 npad	 1
$LN190@catch$13:
  00064	48 83 c4 20	 add	 rsp, 32			; 00000020H
  00068	5d		 pop	 rbp
  00069	c3		 ret	 0
  0006a	cc		 int	 3
?catch$13@?0???$?6U?$char_traits@D@std@@@std@@YAAEAV?$basic_ostream@DU?$char_traits@D@std@@@0@AEAV10@PEBD@Z@4HA ENDP ; `std::operator<<<std::char_traits<char> >'::`1'::catch$13
text$x	ENDS
; Function compile flags: /Ogtpy
;	COMDAT text$x
text$x	SEGMENT
_Ok$ = 32
$T1 = 48
$T2 = 64
$T3 = 72
$T4 = 112
$T5 = 152
_Ostr$dead$ = 240
_State$ = 240
_Val$ = 248
_Ostr$ = 256
?dtor$2@?0???$?6U?$char_traits@D@std@@@std@@YAAEAV?$basic_ostream@DU?$char_traits@D@std@@@0@AEAV10@PEBD@Z@4HA PROC ; `std::operator<<<std::char_traits<char> >'::`1'::dtor$2
  00000	48 8d 8a 20 00
	00 00		 lea	 rcx, QWORD PTR _Ok$[rdx]
  00007	e9 00 00 00 00	 jmp	 ??1_Sentry_base@?$basic_ostream@DU?$char_traits@D@std@@@std@@QEAA@XZ ; std::basic_ostream<char,std::char_traits<char> >::_Sentry_base::~_Sentry_base
?dtor$2@?0???$?6U?$char_traits@D@std@@@std@@YAAEAV?$basic_ostream@DU?$char_traits@D@std@@@0@AEAV10@PEBD@Z@4HA ENDP ; `std::operator<<<std::char_traits<char> >'::`1'::dtor$2
text$x	ENDS
; Function compile flags: /Ogtpy
;	COMDAT text$x
text$x	SEGMENT
_Ok$ = 32
$T1 = 48
$T2 = 64
$T3 = 72
$T4 = 112
$T5 = 152
_Ostr$dead$ = 240
_State$ = 240
_Val$ = 248
_Ostr$ = 256
?dtor$0@?0???$?6U?$char_traits@D@std@@@std@@YAAEAV?$basic_ostream@DU?$char_traits@D@std@@@0@AEAV10@PEBD@Z@4HA PROC ; `std::operator<<<std::char_traits<char> >'::`1'::dtor$0
  0000c	48 8d 8a 20 00
	00 00		 lea	 rcx, QWORD PTR _Ok$[rdx]
  00013	e9 00 00 00 00	 jmp	 ??1sentry@?$basic_ostream@DU?$char_traits@D@std@@@std@@QEAA@XZ ; std::basic_ostream<char,std::char_traits<char> >::sentry::~sentry
?dtor$0@?0???$?6U?$char_traits@D@std@@@std@@YAAEAV?$basic_ostream@DU?$char_traits@D@std@@@0@AEAV10@PEBD@Z@4HA ENDP ; `std::operator<<<std::char_traits<char> >'::`1'::dtor$0
text$x	ENDS
; Function compile flags: /Ogtpy
; File c:\users\alist_000\cppmisc\packages\visualcpptools.14.0.24629\lib\native\include\ostream
; File c:\users\alist_000\cppmisc\packages\visualcpptools.14.0.24629\lib\native\include\xiosbase
; File c:\users\alist_000\cppmisc\packages\visualcpptools.14.0.24629\lib\native\include\ios
; File c:\users\alist_000\cppmisc\packages\visualcpptools.14.0.24629\lib\native\include\xiosbase
; File c:\users\alist_000\cppmisc\packages\visualcpptools.14.0.24629\lib\native\include\ostream
; File c:\users\alist_000\cppmisc\packages\visualcpptools.14.0.24629\lib\native\include\xiosbase
;	COMDAT text$x
text$x	SEGMENT
_Ok$ = 32
$T1 = 48
$T2 = 64
$T3 = 72
$T4 = 112
$T5 = 152
_Ostr$dead$ = 240
_State$ = 240
_Val$ = 248
_Ostr$ = 256
?catch$13@?0???$?6U?$char_traits@D@std@@@std@@YAAEAV?$basic_ostream@DU?$char_traits@D@std@@@0@AEAV10@PEBD@Z@4HA PROC ; `std::operator<<<std::char_traits<char> >'::`1'::catch$13
; File c:\users\alist_000\cppmisc\packages\visualcpptools.14.0.24629\lib\native\include\ostream

; 809  : 		_CATCH_IO_(_Ostr)

  00018	48 89 54 24 10	 mov	 QWORD PTR [rsp+16], rdx
  0001d	55		 push	 rbp
  0001e	48 83 ec 20	 sub	 rsp, 32			; 00000020H
  00022	48 8b ea	 mov	 rbp, rdx
__catch$??$?6U?$char_traits@D@std@@@std@@YAAEAV?$basic_ostream@DU?$char_traits@D@std@@@0@AEAV10@PEBD@Z$0:
  00025	48 8b 8d 00 01
	00 00		 mov	 rcx, QWORD PTR _Ostr$[rbp]
  0002c	48 8b 01	 mov	 rax, QWORD PTR [rcx]
  0002f	48 63 50 04	 movsxd	 rdx, DWORD PTR [rax+4]
  00033	48 03 d1	 add	 rdx, rcx
; File c:\users\alist_000\cppmisc\packages\visualcpptools.14.0.24629\lib\native\include\xiosbase

; 315  : 		return (_Mystate);

  00036	8b 42 10	 mov	 eax, DWORD PTR [rdx+16]
; File c:\users\alist_000\cppmisc\packages\visualcpptools.14.0.24629\lib\native\include\ios

; 60   : 			clear((iostate)((int)rdstate() | (int)_State), _Reraise);

  00039	83 c8 04	 or	 eax, 4

; 45   : 		ios_base::clear((iostate)(_Mystrbuf == 0

  0003c	48 83 7a 48 00	 cmp	 QWORD PTR [rdx+72], 0
  00041	75 03		 jne	 SHORT $LN127@catch$13
  00043	83 c8 04	 or	 eax, 4
$LN127@catch$13:
; File c:\users\alist_000\cppmisc\packages\visualcpptools.14.0.24629\lib\native\include\xiosbase

; 288  : 		_Mystate = (iostate)(_State & _Statmask);

  00046	83 e0 17	 and	 eax, 23
  00049	89 42 10	 mov	 DWORD PTR [rdx+16], eax

; 289  : 		if ((_Mystate & _Except) == 0)

  0004c	85 42 14	 test	 DWORD PTR [rdx+20], eax
  0004f	75 09		 jne	 SHORT $LN130@catch$13
; File c:\users\alist_000\cppmisc\packages\visualcpptools.14.0.24629\lib\native\include\ostream

; 809  : 		_CATCH_IO_(_Ostr)

  00051	48 8d 05 00 00
	00 00		 lea	 rax, $LN23@catch$13
  00058	eb 0a		 jmp	 SHORT $LN190@catch$13
$LN130@catch$13:
; File c:\users\alist_000\cppmisc\packages\visualcpptools.14.0.24629\lib\native\include\xiosbase

; 292  : 			_RERAISE;

  0005a	33 d2		 xor	 edx, edx
  0005c	33 c9		 xor	 ecx, ecx
  0005e	e8 00 00 00 00	 call	 _CxxThrowException
  00063	90		 npad	 1
$LN190@catch$13:
  00064	48 83 c4 20	 add	 rsp, 32			; 00000020H
  00068	5d		 pop	 rbp
  00069	c3		 ret	 0
  0006a	cc		 int	 3
?catch$13@?0???$?6U?$char_traits@D@std@@@std@@YAAEAV?$basic_ostream@DU?$char_traits@D@std@@@0@AEAV10@PEBD@Z@4HA ENDP ; `std::operator<<<std::char_traits<char> >'::`1'::catch$13
text$x	ENDS
; Function compile flags: /Ogtpy
; File c:\users\alist_000\cppmisc\packages\visualcpptools.14.0.24629\lib\native\include\chrono
;	COMDAT ??$?0HX@?$duration@HU?$ratio@$0OBA@$00@std@@@chrono@std@@QEAA@AEBH@Z
_TEXT	SEGMENT
this$ = 8
_Val$ = 16
??$?0HX@?$duration@HU?$ratio@$0OBA@$00@std@@@chrono@std@@QEAA@AEBH@Z PROC ; std::chrono::duration<int,std::ratio<3600,1> >::duration<int,std::ratio<3600,1> ><int,void>, COMDAT

; 114  : 			: _MyRep(static_cast<_Rep>(_Val))

  00000	8b 02		 mov	 eax, DWORD PTR [rdx]
  00002	89 01		 mov	 DWORD PTR [rcx], eax

; 116  : 		}

  00004	48 8b c1	 mov	 rax, rcx
  00007	c3		 ret	 0
??$?0HX@?$duration@HU?$ratio@$0OBA@$00@std@@@chrono@std@@QEAA@AEBH@Z ENDP ; std::chrono::duration<int,std::ratio<3600,1> >::duration<int,std::ratio<3600,1> ><int,void>
_TEXT	ENDS
; Function compile flags: /Ogtpy
; File c:\users\alist_000\cppmisc\packages\visualcpptools.14.0.24629\lib\native\include\thread
; File c:\users\alist_000\cppmisc\packages\visualcpptools.14.0.24629\lib\native\include\chrono
; File c:\users\alist_000\cppmisc\packages\visualcpptools.14.0.24629\lib\native\include\thread
; File c:\users\alist_000\cppmisc\packages\visualcpptools.14.0.24629\lib\native\include\chrono
; File c:\users\alist_000\cppmisc\packages\visualcpptools.14.0.24629\lib\native\include\thread
;	COMDAT ??$sleep_for@HU?$ratio@$0OBA@$00@std@@@this_thread@std@@YAXAEBV?$duration@HU?$ratio@$0OBA@$00@std@@@chrono@1@@Z
_TEXT	SEGMENT
$T1 = 32
_Tgt$ = 32
__$ArrayPad$ = 48
_Rel_time$ = 80
??$sleep_for@HU?$ratio@$0OBA@$00@std@@@this_thread@std@@YAXAEBV?$duration@HU?$ratio@$0OBA@$00@std@@@chrono@1@@Z PROC ; std::this_thread::sleep_for<int,std::ratio<3600,1> >, COMDAT

; 133  : 	{	// sleep for duration

$LN147:
  00000	40 53		 push	 rbx
  00002	48 83 ec 40	 sub	 rsp, 64			; 00000040H
  00006	48 8b 05 00 00
	00 00		 mov	 rax, QWORD PTR __security_cookie
  0000d	48 33 c4	 xor	 rax, rsp
  00010	48 89 44 24 30	 mov	 QWORD PTR __$ArrayPad$[rsp], rax
; File c:\users\alist_000\cppmisc\packages\visualcpptools.14.0.24629\lib\native\include\chrono

; 507  : 	return (_CT(_Left).count() < _CT(_Right).count());

  00015	83 39 00	 cmp	 DWORD PTR [rcx], 0
; File c:\users\alist_000\cppmisc\packages\visualcpptools.14.0.24629\lib\native\include\thread

; 133  : 	{	// sleep for duration

  00018	48 8b d9	 mov	 rbx, rcx
; File c:\users\alist_000\cppmisc\packages\visualcpptools.14.0.24629\lib\native\include\chrono

; 1015 : 	if (_Rel_time <= chrono::duration<_Rep, _Period>::zero())

  0001b	7f 0d		 jg	 SHORT $LN4@sleep_for

; 1016 : 		{	// negative or zero relative time, return zero
; 1017 : 		_Xt.sec = 0;

  0001d	33 c0		 xor	 eax, eax
  0001f	48 89 44 24 20	 mov	 QWORD PTR $T1[rsp], rax

; 1018 : 		_Xt.nsec = 0;

  00024	89 44 24 28	 mov	 DWORD PTR $T1[rsp+8], eax

; 1019 : 		}
; 1020 : 	else

  00028	eb 4c		 jmp	 SHORT $LN5@sleep_for
$LN4@sleep_for:

; 972  : 		return (time_point(duration(_Xtime_get_ticks())));

  0002a	e8 00 00 00 00	 call	 _Xtime_get_ticks

; 554  : 	return (_CF::num == 1 && _CF::den == 1

  0002f	4c 63 03	 movsxd	 r8, DWORD PTR [rbx]
  00032	48 ba 00 a0 b8
	30 46 03 00 00	 mov	 rdx, 3600000000000	; 0000034630b8a000H
  0003c	48 6b c8 64	 imul	 rcx, rax, 100		; 00000064H
  00040	4c 0f af c2	 imul	 r8, rdx
  00044	48 b8 b3 94 d6
	26 e8 0b 2e 11	 mov	 rax, 1237940039285380275 ; 112e0be826d694b3H

; 170  : 		_MyRep += _Right._MyRep;

  0004e	4c 03 c1	 add	 r8, rcx

; 554  : 	return (_CF::num == 1 && _CF::den == 1

  00051	49 f7 e8	 imul	 r8
  00054	48 c1 fa 1a	 sar	 rdx, 26
  00058	48 8b c2	 mov	 rax, rdx
  0005b	48 c1 e8 3f	 shr	 rax, 63			; 0000003fH
  0005f	48 03 d0	 add	 rdx, rax
  00062	48 69 c2 00 ca
	9a 3b		 imul	 rax, rdx, 1000000000	; 3b9aca00H

; 1025 : 		_Xt.sec = chrono::duration_cast<chrono::seconds>(_T0).count();

  00069	48 89 54 24 20	 mov	 QWORD PTR $T1[rsp], rdx

; 176  : 		_MyRep -= _Right._MyRep;

  0006e	44 2b c0	 sub	 r8d, eax

; 1027 : 		_Xt.nsec = (long)_T0.count();

  00071	44 89 44 24 28	 mov	 DWORD PTR $T1[rsp+8], r8d
$LN5@sleep_for:
; File c:\users\alist_000\cppmisc\packages\visualcpptools.14.0.24629\lib\native\include\thread

; 134  : 	stdext::threads::xtime _Tgt = _To_xtime(_Rel_time);

  00076	0f 28 44 24 20	 movaps	 xmm0, XMMWORD PTR $T1[rsp]

; 127  : 	_Thrd_sleep(_Abs_time);

  0007b	48 8d 4c 24 20	 lea	 rcx, QWORD PTR _Tgt$[rsp]

; 134  : 	stdext::threads::xtime _Tgt = _To_xtime(_Rel_time);

  00080	66 0f 7f 44 24
	20		 movdqa	 XMMWORD PTR _Tgt$[rsp], xmm0

; 127  : 	_Thrd_sleep(_Abs_time);

  00086	e8 00 00 00 00	 call	 _Thrd_sleep

; 135  : 	this_thread::sleep_until(&_Tgt);
; 136  : 	}

  0008b	48 8b 4c 24 30	 mov	 rcx, QWORD PTR __$ArrayPad$[rsp]
  00090	48 33 cc	 xor	 rcx, rsp
  00093	e8 00 00 00 00	 call	 __security_check_cookie
  00098	48 83 c4 40	 add	 rsp, 64			; 00000040H
  0009c	5b		 pop	 rbx
  0009d	c3		 ret	 0
??$sleep_for@HU?$ratio@$0OBA@$00@std@@@this_thread@std@@YAXAEBV?$duration@HU?$ratio@$0OBA@$00@std@@@chrono@1@@Z ENDP ; std::this_thread::sleep_for<int,std::ratio<3600,1> >
_TEXT	ENDS
; Function compile flags: /Ogtpy
; File c:\users\alist_000\cppmisc\packages\visualcpptools.14.0.24629\lib\native\include\vector
; File c:\users\alist_000\cppmisc\packages\visualcpptools.14.0.24629\lib\native\include\xstddef
; File c:\users\alist_000\cppmisc\packages\visualcpptools.14.0.24629\lib\native\include\xmemory0
; File c:\users\alist_000\cppmisc\packages\visualcpptools.14.0.24629\lib\native\include\thread
; File c:\users\alist_000\cppmisc\packages\visualcpptools.14.0.24629\lib\native\include\memory
; File c:\users\alist_000\cppmisc\packages\visualcpptools.14.0.24629\lib\native\include\vector
; File c:\users\alist_000\cppmisc\packages\visualcpptools.14.0.24629\lib\native\include\xmemory0
; File c:\users\alist_000\cppmisc\packages\visualcpptools.14.0.24629\lib\native\include\thread
; File c:\users\alist_000\cppmisc\packages\visualcpptools.14.0.24629\lib\native\include\memory
; File c:\users\alist_000\cppmisc\packages\visualcpptools.14.0.24629\lib\native\include\vector
; File c:\users\alist_000\cppmisc\packages\visualcpptools.14.0.24629\lib\native\include\xmemory
; File c:\users\alist_000\cppmisc\packages\visualcpptools.14.0.24629\lib\native\include\vector
;	COMDAT ??$emplace_back@V<lambda_e77d7e1e559843f44c4e0b6d970cdb28>@@@?$vector@Vthread@std@@V?$allocator@Vthread@std@@@2@@std@@QEAAX$$QEAV<lambda_e77d7e1e559843f44c4e0b6d970cdb28>@@@Z
_TEXT	SEGMENT
_Oldsize$1 = 48
_Ptr$ = 64
$T2 = 72
$T3 = 128
_Newvec$4 = 128
this$ = 128
<_Val_0>$dead$ = 136
$T5 = 136
_Emplaced$6 = 136
$T7 = 144
_Newcapacity$8 = 144
$T9 = 152
??$emplace_back@V<lambda_e77d7e1e559843f44c4e0b6d970cdb28>@@@?$vector@Vthread@std@@V?$allocator@Vthread@std@@@2@@std@@QEAAX$$QEAV<lambda_e77d7e1e559843f44c4e0b6d970cdb28>@@@Z PROC ; std::vector<std::thread,std::allocator<std::thread> >::emplace_back<<lambda_e77d7e1e559843f44c4e0b6d970cdb28> >, COMDAT

; 885  : 		{	// insert by perfectly forwarding into element at end, provide strong guarantee

  00000	4c 8b dc	 mov	 r11, rsp
  00003	49 89 53 10	 mov	 QWORD PTR [r11+16], rdx
  00007	53		 push	 rbx
  00008	56		 push	 rsi
  00009	57		 push	 rdi
  0000a	41 56		 push	 r14
  0000c	41 57		 push	 r15
  0000e	48 83 ec 50	 sub	 rsp, 80			; 00000050H
  00012	49 c7 43 c0 fe
	ff ff ff	 mov	 QWORD PTR [r11-64], -2
  0001a	48 8b f9	 mov	 rdi, rcx

; 1705 : 		return (this->_Myend() != this->_Mylast());

  0001d	48 8b 41 10	 mov	 rax, QWORD PTR [rcx+16]
  00021	48 8b 59 08	 mov	 rbx, QWORD PTR [rcx+8]
  00025	48 3b c3	 cmp	 rax, rbx

; 886  : 		if (_Has_unused_capacity())

  00028	74 45		 je	 SHORT $LN2@emplace_ba
; File c:\users\alist_000\cppmisc\packages\visualcpptools.14.0.24629\lib\native\include\xstddef

; 642  : 	return (_Ptr);

  0002a	49 89 5b 08	 mov	 QWORD PTR [r11+8], rbx
; File c:\users\alist_000\cppmisc\packages\visualcpptools.14.0.24629\lib\native\include\xmemory0

; 833  : 		::new ((void *)_Ptr) _Objty(_STD forward<_Types>(_Args)...);

  0002e	49 89 5b 18	 mov	 QWORD PTR [r11+24], rbx
  00032	48 85 db	 test	 rbx, rbx
  00035	74 2e		 je	 SHORT $LN113@emplace_ba
; File c:\users\alist_000\cppmisc\packages\visualcpptools.14.0.24629\lib\native\include\thread

; 46   : 		_Launch(&_Thr,

  00037	49 8d 4b 10	 lea	 rcx, QWORD PTR [r11+16]
  0003b	e8 00 00 00 00	 call	 ??$make_unique@V?$tuple@V<lambda_e77d7e1e559843f44c4e0b6d970cdb28>@@@std@@V<lambda_e77d7e1e559843f44c4e0b6d970cdb28>@@@std@@YA?AV?$unique_ptr@V?$tuple@V<lambda_e77d7e1e559843f44c4e0b6d970cdb28>@@@std@@U?$default_delete@V?$tuple@V<lambda_e77d7e1e559843f44c4e0b6d970cdb28>@@@std@@@2@@0@$$QEAV<lambda_e77d7e1e559843f44c4e0b6d970cdb28>@@@Z ; std::make_unique<std::tuple<<lambda_e77d7e1e559843f44c4e0b6d970cdb28> >,<lambda_e77d7e1e559843f44c4e0b6d970cdb28> >
  00040	90		 npad	 1
  00041	48 8b d0	 mov	 rdx, rax
  00044	48 8b cb	 mov	 rcx, rbx
  00047	e8 00 00 00 00	 call	 ??$_Launch@V?$unique_ptr@V?$tuple@V<lambda_e77d7e1e559843f44c4e0b6d970cdb28>@@@std@@U?$default_delete@V?$tuple@V<lambda_e77d7e1e559843f44c4e0b6d970cdb28>@@@std@@@2@@std@@@std@@YAXPEAU_Thrd_imp_t@@$$QEAV?$unique_ptr@V?$tuple@V<lambda_e77d7e1e559843f44c4e0b6d970cdb28>@@@std@@U?$default_delete@V?$tuple@V<lambda_e77d7e1e559843f44c4e0b6d970cdb28>@@@std@@@2@@0@@Z ; std::_Launch<std::unique_ptr<std::tuple<<lambda_e77d7e1e559843f44c4e0b6d970cdb28> >,std::default_delete<std::tuple<<lambda_e77d7e1e559843f44c4e0b6d970cdb28> > > > >
  0004c	90		 npad	 1
; File c:\users\alist_000\cppmisc\packages\visualcpptools.14.0.24629\lib\native\include\memory

; 1409 : 		if (get() != pointer())

  0004d	48 8b 8c 24 88
	00 00 00	 mov	 rcx, QWORD PTR $T5[rsp]
  00055	48 85 c9	 test	 rcx, rcx
  00058	74 0b		 je	 SHORT $LN113@emplace_ba

; 1199 : 		delete _Ptr;

  0005a	ba 01 00 00 00	 mov	 edx, 1
  0005f	e8 00 00 00 00	 call	 ??3@YAXPEAX_K@Z		; operator delete
  00064	90		 npad	 1
$LN113@emplace_ba:
; File c:\users\alist_000\cppmisc\packages\visualcpptools.14.0.24629\lib\native\include\vector

; 879  : 		++this->_Mylast();

  00065	48 83 47 08 10	 add	 QWORD PTR [rdi+8], 16

; 887  : 			{
; 888  : 			_Emplace_back_with_unused_capacity(_STD forward<_Valty>(_Val)...);
; 889  : 			}
; 890  : 		else

  0006a	e9 de 00 00 00	 jmp	 $LN3@emplace_ba
$LN2@emplace_ba:

; 1684 : 		return (this->_Mylast() - this->_Myfirst());

  0006f	48 8b 11	 mov	 rdx, QWORD PTR [rcx]
  00072	48 2b da	 sub	 rbx, rdx
  00075	48 c1 fb 04	 sar	 rbx, 4
  00079	48 89 5c 24 30	 mov	 QWORD PTR _Oldsize$1[rsp], rbx

; 891  : 			{	// reallocate
; 892  : 			const size_type _Oldsize = size();
; 893  : 
; 894  : 			if (_Oldsize == max_size())

  0007e	48 b9 ff ff ff
	ff ff ff ff 0f	 mov	 rcx, 1152921504606846975 ; 0fffffffffffffffH
  00088	48 3b d9	 cmp	 rbx, rcx
  0008b	75 06		 jne	 SHORT $LN4@emplace_ba

; 895  : 				{
; 896  : 				_Xlength();

  0008d	e8 00 00 00 00	 call	 ?_Xlength@?$vector@Vthread@std@@V?$allocator@Vthread@std@@@2@@std@@CAXXZ ; std::vector<std::thread,std::allocator<std::thread> >::_Xlength
  00092	cc		 int	 3
$LN4@emplace_ba:

; 897  : 				}
; 898  : 
; 899  : 			const size_type _Newsize = _Oldsize + 1;

  00093	4c 8d 7b 01	 lea	 r15, QWORD PTR [rbx+1]

; 1694 : 		return (this->_Myend() - this->_Myfirst());

  00097	48 2b c2	 sub	 rax, rdx
  0009a	48 c1 f8 04	 sar	 rax, 4

; 1866 : 		if (_Oldcapacity > max_size() - _Oldcapacity / 2)

  0009e	48 8b d0	 mov	 rdx, rax
  000a1	48 d1 ea	 shr	 rdx, 1
  000a4	48 2b ca	 sub	 rcx, rdx
  000a7	48 3b c1	 cmp	 rax, rcx
  000aa	76 05		 jbe	 SHORT $LN184@emplace_ba

; 1867 : 			{
; 1868 : 			return (_Newsize);	// geometric growth would overflow

  000ac	49 8b f7	 mov	 rsi, r15
  000af	eb 0b		 jmp	 SHORT $LN347@emplace_ba
$LN184@emplace_ba:

; 1869 : 			}
; 1870 : 
; 1871 : 		const size_type _Geometric = _Oldcapacity + _Oldcapacity / 2;

  000b1	48 8d 34 02	 lea	 rsi, QWORD PTR [rdx+rax]

; 1872 : 
; 1873 : 		if (_Geometric < _Newsize)

  000b5	49 3b f7	 cmp	 rsi, r15
  000b8	49 0f 42 f7	 cmovb	 rsi, r15
$LN347@emplace_ba:
  000bc	48 89 b4 24 90
	00 00 00	 mov	 QWORD PTR _Newcapacity$8[rsp], rsi

; 900  : 			const size_type _Newcapacity = _Calculate_growth(_Newsize);
; 901  : 			bool _Emplaced = false;

  000c4	c6 84 24 88 00
	00 00 00	 mov	 BYTE PTR _Emplaced$6[rsp], 0

; 902  : 			const pointer _Newvec = this->_Getal().allocate(_Newcapacity);

  000cc	48 8b d6	 mov	 rdx, rsi
  000cf	e8 00 00 00 00	 call	 ?allocate@?$_Wrap_alloc@V?$allocator@Vthread@std@@@std@@@std@@QEAAPEAVthread@2@_K@Z ; std::_Wrap_alloc<std::allocator<std::thread> >::allocate
  000d4	4c 8b f0	 mov	 r14, rax
  000d7	48 89 84 24 80
	00 00 00	 mov	 QWORD PTR _Newvec$4[rsp], rax

; 903  : 
; 904  : 			_TRY_BEGIN
; 905  : 			this->_Getal().construct(_Unfancy(_Newvec + _Oldsize), _STD forward<_Valty>(_Val)...);

  000df	48 c1 e3 04	 shl	 rbx, 4
  000e3	48 03 d8	 add	 rbx, rax
  000e6	48 89 5c 24 40	 mov	 QWORD PTR _Ptr$[rsp], rbx
; File c:\users\alist_000\cppmisc\packages\visualcpptools.14.0.24629\lib\native\include\xmemory0

; 833  : 		::new ((void *)_Ptr) _Objty(_STD forward<_Types>(_Args)...);

  000eb	48 89 5c 24 48	 mov	 QWORD PTR $T2[rsp], rbx
  000f0	74 32		 je	 SHORT $LN298@emplace_ba
; File c:\users\alist_000\cppmisc\packages\visualcpptools.14.0.24629\lib\native\include\thread

; 46   : 		_Launch(&_Thr,

  000f2	48 8d 8c 24 98
	00 00 00	 lea	 rcx, QWORD PTR $T9[rsp]
  000fa	e8 00 00 00 00	 call	 ??$make_unique@V?$tuple@V<lambda_e77d7e1e559843f44c4e0b6d970cdb28>@@@std@@V<lambda_e77d7e1e559843f44c4e0b6d970cdb28>@@@std@@YA?AV?$unique_ptr@V?$tuple@V<lambda_e77d7e1e559843f44c4e0b6d970cdb28>@@@std@@U?$default_delete@V?$tuple@V<lambda_e77d7e1e559843f44c4e0b6d970cdb28>@@@std@@@2@@0@$$QEAV<lambda_e77d7e1e559843f44c4e0b6d970cdb28>@@@Z ; std::make_unique<std::tuple<<lambda_e77d7e1e559843f44c4e0b6d970cdb28> >,<lambda_e77d7e1e559843f44c4e0b6d970cdb28> >
  000ff	90		 npad	 1
  00100	48 8b d0	 mov	 rdx, rax
  00103	48 8b cb	 mov	 rcx, rbx
  00106	e8 00 00 00 00	 call	 ??$_Launch@V?$unique_ptr@V?$tuple@V<lambda_e77d7e1e559843f44c4e0b6d970cdb28>@@@std@@U?$default_delete@V?$tuple@V<lambda_e77d7e1e559843f44c4e0b6d970cdb28>@@@std@@@2@@std@@@std@@YAXPEAU_Thrd_imp_t@@$$QEAV?$unique_ptr@V?$tuple@V<lambda_e77d7e1e559843f44c4e0b6d970cdb28>@@@std@@U?$default_delete@V?$tuple@V<lambda_e77d7e1e559843f44c4e0b6d970cdb28>@@@std@@@2@@0@@Z ; std::_Launch<std::unique_ptr<std::tuple<<lambda_e77d7e1e559843f44c4e0b6d970cdb28> >,std::default_delete<std::tuple<<lambda_e77d7e1e559843f44c4e0b6d970cdb28> > > > >
  0010b	90		 npad	 1
; File c:\users\alist_000\cppmisc\packages\visualcpptools.14.0.24629\lib\native\include\memory

; 1409 : 		if (get() != pointer())

  0010c	48 8b 8c 24 98
	00 00 00	 mov	 rcx, QWORD PTR $T9[rsp]
  00114	48 85 c9	 test	 rcx, rcx
  00117	74 0b		 je	 SHORT $LN298@emplace_ba

; 1199 : 		delete _Ptr;

  00119	ba 01 00 00 00	 mov	 edx, 1
  0011e	e8 00 00 00 00	 call	 ??3@YAXPEAX_K@Z		; operator delete
  00123	90		 npad	 1
$LN298@emplace_ba:
; File c:\users\alist_000\cppmisc\packages\visualcpptools.14.0.24629\lib\native\include\vector

; 906  : 			_Emplaced = true;

  00124	c6 84 24 88 00
	00 00 01	 mov	 BYTE PTR _Emplaced$6[rsp], 1
; File c:\users\alist_000\cppmisc\packages\visualcpptools.14.0.24629\lib\native\include\xmemory

; 302  : 	return (_Uninitialized_move_al_unchecked1(_First, _Last, _Dest, _Al,

  0012c	4d 8b c6	 mov	 r8, r14
  0012f	48 8b 57 08	 mov	 rdx, QWORD PTR [rdi+8]
  00133	48 8b 0f	 mov	 rcx, QWORD PTR [rdi]
  00136	e8 00 00 00 00	 call	 ??$_Uninitialized_move_al_unchecked1@PEAVthread@std@@PEAV12@V?$allocator@Vthread@std@@@2@@std@@YAPEAVthread@0@PEAV10@00AEAU?$_Wrap_alloc@V?$allocator@Vthread@std@@@std@@@0@U_General_ptr_iterator_tag@0@U_Any_tag@0@@Z ; std::_Uninitialized_move_al_unchecked1<std::thread * __ptr64,std::thread * __ptr64,std::allocator<std::thread> >
  0013b	90		 npad	 1
; File c:\users\alist_000\cppmisc\packages\visualcpptools.14.0.24629\lib\native\include\vector

; 918  : 			_Change_array(_Newvec, _Newsize, _Newcapacity);

  0013c	4c 8b ce	 mov	 r9, rsi
  0013f	4d 8b c7	 mov	 r8, r15
  00142	49 8b d6	 mov	 rdx, r14
  00145	48 8b cf	 mov	 rcx, rdi
  00148	e8 00 00 00 00	 call	 ?_Change_array@?$vector@Vthread@std@@V?$allocator@Vthread@std@@@2@@std@@AEAAXQEAVthread@2@_K1@Z ; std::vector<std::thread,std::allocator<std::thread> >::_Change_array
$LN3@emplace_ba:

; 919  : 			}
; 920  : 		}

  0014d	48 83 c4 50	 add	 rsp, 80			; 00000050H
  00151	41 5f		 pop	 r15
  00153	41 5e		 pop	 r14
  00155	5f		 pop	 rdi
  00156	5e		 pop	 rsi
  00157	5b		 pop	 rbx
  00158	c3		 ret	 0
$LN346@emplace_ba:
??$emplace_back@V<lambda_e77d7e1e559843f44c4e0b6d970cdb28>@@@?$vector@Vthread@std@@V?$allocator@Vthread@std@@@2@@std@@QEAAX$$QEAV<lambda_e77d7e1e559843f44c4e0b6d970cdb28>@@@Z ENDP ; std::vector<std::thread,std::allocator<std::thread> >::emplace_back<<lambda_e77d7e1e559843f44c4e0b6d970cdb28> >
_TEXT	ENDS
;	COMDAT text$x
text$x	SEGMENT
_Oldsize$1 = 48
_Ptr$ = 64
$T2 = 72
$T3 = 128
_Newvec$4 = 128
this$ = 128
<_Val_0>$dead$ = 136
$T5 = 136
_Emplaced$6 = 136
$T7 = 144
_Newcapacity$8 = 144
$T9 = 152
?dtor$16@?0???$emplace_back@V<lambda_e77d7e1e559843f44c4e0b6d970cdb28>@@@?$vector@Vthread@std@@V?$allocator@Vthread@std@@@2@@std@@QEAAX$$QEAV<lambda_e77d7e1e559843f44c4e0b6d970cdb28>@@@Z@4HA PROC ; `std::vector<std::thread,std::allocator<std::thread> >::emplace_back<<lambda_e77d7e1e559843f44c4e0b6d970cdb28> >'::`1'::dtor$16
  00000	40 55		 push	 rbp
  00002	48 83 ec 20	 sub	 rsp, 32			; 00000020H
  00006	48 8b ea	 mov	 rbp, rdx
  00009	48 8b 95 80 00
	00 00		 mov	 rdx, QWORD PTR $T3[rbp]
  00010	48 8b 8d 90 00
	00 00		 mov	 rcx, QWORD PTR $T7[rbp]
  00017	e8 00 00 00 00	 call	 ??3@YAXPEAX0@Z		; operator delete
  0001c	48 83 c4 20	 add	 rsp, 32			; 00000020H
  00020	5d		 pop	 rbp
  00021	c3		 ret	 0
?dtor$16@?0???$emplace_back@V<lambda_e77d7e1e559843f44c4e0b6d970cdb28>@@@?$vector@Vthread@std@@V?$allocator@Vthread@std@@@2@@std@@QEAAX$$QEAV<lambda_e77d7e1e559843f44c4e0b6d970cdb28>@@@Z@4HA ENDP ; `std::vector<std::thread,std::allocator<std::thread> >::emplace_back<<lambda_e77d7e1e559843f44c4e0b6d970cdb28> >'::`1'::dtor$16
_Oldsize$1 = 48
_Ptr$ = 64
$T2 = 72
$T3 = 128
_Newvec$4 = 128
this$ = 128
<_Val_0>$dead$ = 136
$T5 = 136
_Emplaced$6 = 136
$T7 = 144
_Newcapacity$8 = 144
$T9 = 152
?dtor$18@?0???$emplace_back@V<lambda_e77d7e1e559843f44c4e0b6d970cdb28>@@@?$vector@Vthread@std@@V?$allocator@Vthread@std@@@2@@std@@QEAAX$$QEAV<lambda_e77d7e1e559843f44c4e0b6d970cdb28>@@@Z@4HA PROC ; `std::vector<std::thread,std::allocator<std::thread> >::emplace_back<<lambda_e77d7e1e559843f44c4e0b6d970cdb28> >'::`1'::dtor$18
  00022	48 8d 8a 88 00
	00 00		 lea	 rcx, QWORD PTR $T5[rdx]
  00029	e9 00 00 00 00	 jmp	 ??1?$unique_ptr@V?$tuple@V<lambda_e77d7e1e559843f44c4e0b6d970cdb28>@@@std@@U?$default_delete@V?$tuple@V<lambda_e77d7e1e559843f44c4e0b6d970cdb28>@@@std@@@2@@std@@QEAA@XZ ; std::unique_ptr<std::tuple<<lambda_e77d7e1e559843f44c4e0b6d970cdb28> >,std::default_delete<std::tuple<<lambda_e77d7e1e559843f44c4e0b6d970cdb28> > > >::~unique_ptr<std::tuple<<lambda_e77d7e1e559843f44c4e0b6d970cdb28> >,std::default_delete<std::tuple<<lambda_e77d7e1e559843f44c4e0b6d970cdb28> > > >
?dtor$18@?0???$emplace_back@V<lambda_e77d7e1e559843f44c4e0b6d970cdb28>@@@?$vector@Vthread@std@@V?$allocator@Vthread@std@@@2@@std@@QEAAX$$QEAV<lambda_e77d7e1e559843f44c4e0b6d970cdb28>@@@Z@4HA ENDP ; `std::vector<std::thread,std::allocator<std::thread> >::emplace_back<<lambda_e77d7e1e559843f44c4e0b6d970cdb28> >'::`1'::dtor$18
_Oldsize$1 = 48
_Ptr$ = 64
$T2 = 72
$T3 = 128
_Newvec$4 = 128
this$ = 128
<_Val_0>$dead$ = 136
$T5 = 136
_Emplaced$6 = 136
$T7 = 144
_Newcapacity$8 = 144
$T9 = 152
?dtor$72@?0???$emplace_back@V<lambda_e77d7e1e559843f44c4e0b6d970cdb28>@@@?$vector@Vthread@std@@V?$allocator@Vthread@std@@@2@@std@@QEAAX$$QEAV<lambda_e77d7e1e559843f44c4e0b6d970cdb28>@@@Z@4HA PROC ; `std::vector<std::thread,std::allocator<std::thread> >::emplace_back<<lambda_e77d7e1e559843f44c4e0b6d970cdb28> >'::`1'::dtor$72
  0002e	40 55		 push	 rbp
  00030	48 83 ec 20	 sub	 rsp, 32			; 00000020H
  00034	48 8b ea	 mov	 rbp, rdx
  00037	48 8b 55 40	 mov	 rdx, QWORD PTR _Ptr$[rbp]
  0003b	48 8b 4d 48	 mov	 rcx, QWORD PTR $T2[rbp]
  0003f	e8 00 00 00 00	 call	 ??3@YAXPEAX0@Z		; operator delete
  00044	48 83 c4 20	 add	 rsp, 32			; 00000020H
  00048	5d		 pop	 rbp
  00049	c3		 ret	 0
?dtor$72@?0???$emplace_back@V<lambda_e77d7e1e559843f44c4e0b6d970cdb28>@@@?$vector@Vthread@std@@V?$allocator@Vthread@std@@@2@@std@@QEAAX$$QEAV<lambda_e77d7e1e559843f44c4e0b6d970cdb28>@@@Z@4HA ENDP ; `std::vector<std::thread,std::allocator<std::thread> >::emplace_back<<lambda_e77d7e1e559843f44c4e0b6d970cdb28> >'::`1'::dtor$72
_Oldsize$1 = 48
_Ptr$ = 64
$T2 = 72
$T3 = 128
_Newvec$4 = 128
this$ = 128
<_Val_0>$dead$ = 136
$T5 = 136
_Emplaced$6 = 136
$T7 = 144
_Newcapacity$8 = 144
$T9 = 152
?dtor$74@?0???$emplace_back@V<lambda_e77d7e1e559843f44c4e0b6d970cdb28>@@@?$vector@Vthread@std@@V?$allocator@Vthread@std@@@2@@std@@QEAAX$$QEAV<lambda_e77d7e1e559843f44c4e0b6d970cdb28>@@@Z@4HA PROC ; `std::vector<std::thread,std::allocator<std::thread> >::emplace_back<<lambda_e77d7e1e559843f44c4e0b6d970cdb28> >'::`1'::dtor$74
  0004a	48 8d 8a 98 00
	00 00		 lea	 rcx, QWORD PTR $T9[rdx]
  00051	e9 00 00 00 00	 jmp	 ??1?$unique_ptr@V?$tuple@V<lambda_e77d7e1e559843f44c4e0b6d970cdb28>@@@std@@U?$default_delete@V?$tuple@V<lambda_e77d7e1e559843f44c4e0b6d970cdb28>@@@std@@@2@@std@@QEAA@XZ ; std::unique_ptr<std::tuple<<lambda_e77d7e1e559843f44c4e0b6d970cdb28> >,std::default_delete<std::tuple<<lambda_e77d7e1e559843f44c4e0b6d970cdb28> > > >::~unique_ptr<std::tuple<<lambda_e77d7e1e559843f44c4e0b6d970cdb28> >,std::default_delete<std::tuple<<lambda_e77d7e1e559843f44c4e0b6d970cdb28> > > >
?dtor$74@?0???$emplace_back@V<lambda_e77d7e1e559843f44c4e0b6d970cdb28>@@@?$vector@Vthread@std@@V?$allocator@Vthread@std@@@2@@std@@QEAAX$$QEAV<lambda_e77d7e1e559843f44c4e0b6d970cdb28>@@@Z@4HA ENDP ; `std::vector<std::thread,std::allocator<std::thread> >::emplace_back<<lambda_e77d7e1e559843f44c4e0b6d970cdb28> >'::`1'::dtor$74
_Oldsize$1 = 48
_Ptr$ = 64
$T2 = 72
$T3 = 128
_Newvec$4 = 128
this$ = 128
<_Val_0>$dead$ = 136
$T5 = 136
_Emplaced$6 = 136
$T7 = 144
_Newcapacity$8 = 144
$T9 = 152
?catch$95@?0???$emplace_back@V<lambda_e77d7e1e559843f44c4e0b6d970cdb28>@@@?$vector@Vthread@std@@V?$allocator@Vthread@std@@@2@@std@@QEAAX$$QEAV<lambda_e77d7e1e559843f44c4e0b6d970cdb28>@@@Z@4HA PROC ; `std::vector<std::thread,std::allocator<std::thread> >::emplace_back<<lambda_e77d7e1e559843f44c4e0b6d970cdb28> >'::`1'::catch$95

; 907  : 			_Umove_if_noexcept(this->_Myfirst(), this->_Mylast(), _Newvec);
; 908  : 			_CATCH_ALL

  00056	48 89 54 24 10	 mov	 QWORD PTR [rsp+16], rdx
  0005b	53		 push	 rbx
  0005c	55		 push	 rbp
  0005d	48 83 ec 38	 sub	 rsp, 56			; 00000038H
  00061	48 8b ea	 mov	 rbp, rdx
__catch$??$emplace_back@V<lambda_e77d7e1e559843f44c4e0b6d970cdb28>@@@?$vector@Vthread@std@@V?$allocator@Vthread@std@@@2@@std@@QEAAX$$QEAV<lambda_e77d7e1e559843f44c4e0b6d970cdb28>@@@Z$0:

; 907  : 			_Umove_if_noexcept(this->_Myfirst(), this->_Mylast(), _Newvec);
; 908  : 			_CATCH_ALL
; 909  : 			if (_Emplaced)
; 910  : 				{
; 911  : 				this->_Getal().destroy(_Unfancy(_Newvec + _Oldsize));

  00064	48 8b 9d 80 00
	00 00		 mov	 rbx, QWORD PTR _Newvec$4[rbp]

; 907  : 			_Umove_if_noexcept(this->_Myfirst(), this->_Mylast(), _Newvec);
; 908  : 			_CATCH_ALL
; 909  : 			if (_Emplaced)

  0006b	80 bd 88 00 00
	00 00		 cmp	 BYTE PTR _Emplaced$6[rbp], 0
  00072	74 18		 je	 SHORT $LN6@catch$95

; 907  : 			_Umove_if_noexcept(this->_Myfirst(), this->_Mylast(), _Newvec);
; 908  : 			_CATCH_ALL
; 909  : 			if (_Emplaced)
; 910  : 				{
; 911  : 				this->_Getal().destroy(_Unfancy(_Newvec + _Oldsize));

  00074	48 8b 4d 30	 mov	 rcx, QWORD PTR _Oldsize$1[rbp]
  00078	48 c1 e1 04	 shl	 rcx, 4
  0007c	48 03 cb	 add	 rcx, rbx
  0007f	e8 00 00 00 00	 call	 ??$_Unfancy@Vthread@std@@@std@@YAPEAVthread@0@PEAV10@@Z ; std::_Unfancy<std::thread>
  00084	48 8b d0	 mov	 rdx, rax
  00087	e8 00 00 00 00	 call	 ??$destroy@Vthread@std@@@?$_Wrap_alloc@V?$allocator@Vthread@std@@@std@@@std@@QEAAXPEAVthread@1@@Z ; std::_Wrap_alloc<std::allocator<std::thread> >::destroy<std::thread>
$LN6@catch$95:

; 907  : 			_Umove_if_noexcept(this->_Myfirst(), this->_Mylast(), _Newvec);
; 908  : 			_CATCH_ALL
; 909  : 			if (_Emplaced)
; 910  : 				{
; 911  : 				this->_Getal().destroy(_Unfancy(_Newvec + _Oldsize));
; 912  : 				}
; 913  : 
; 914  : 			this->_Getal().deallocate(_Newvec, _Newcapacity);

  0008c	4c 8b 85 90 00
	00 00		 mov	 r8, QWORD PTR _Newcapacity$8[rbp]
  00093	48 8b d3	 mov	 rdx, rbx
  00096	e8 00 00 00 00	 call	 ?deallocate@?$_Wrap_alloc@V?$allocator@Vthread@std@@@std@@@std@@QEAAXPEAVthread@2@_K@Z ; std::_Wrap_alloc<std::allocator<std::thread> >::deallocate

; 907  : 			_Umove_if_noexcept(this->_Myfirst(), this->_Mylast(), _Newvec);
; 908  : 			_CATCH_ALL
; 909  : 			if (_Emplaced)
; 910  : 				{
; 911  : 				this->_Getal().destroy(_Unfancy(_Newvec + _Oldsize));
; 912  : 				}
; 913  : 
; 914  : 			this->_Getal().deallocate(_Newvec, _Newcapacity);
; 915  : 			_RERAISE;

  0009b	33 d2		 xor	 edx, edx
  0009d	33 c9		 xor	 ecx, ecx
  0009f	e8 00 00 00 00	 call	 _CxxThrowException
  000a4	90		 npad	 1
?catch$95@?0???$emplace_back@V<lambda_e77d7e1e559843f44c4e0b6d970cdb28>@@@?$vector@Vthread@std@@V?$allocator@Vthread@std@@@2@@std@@QEAAX$$QEAV<lambda_e77d7e1e559843f44c4e0b6d970cdb28>@@@Z@4HA ENDP ; `std::vector<std::thread,std::allocator<std::thread> >::emplace_back<<lambda_e77d7e1e559843f44c4e0b6d970cdb28> >'::`1'::catch$95
text$x	ENDS
; Function compile flags: /Ogtpy
;	COMDAT text$x
text$x	SEGMENT
_Oldsize$1 = 48
_Ptr$ = 64
$T2 = 72
$T3 = 128
_Newvec$4 = 128
this$ = 128
<_Val_0>$dead$ = 136
$T5 = 136
_Emplaced$6 = 136
$T7 = 144
_Newcapacity$8 = 144
$T9 = 152
?dtor$16@?0???$emplace_back@V<lambda_e77d7e1e559843f44c4e0b6d970cdb28>@@@?$vector@Vthread@std@@V?$allocator@Vthread@std@@@2@@std@@QEAAX$$QEAV<lambda_e77d7e1e559843f44c4e0b6d970cdb28>@@@Z@4HA PROC ; `std::vector<std::thread,std::allocator<std::thread> >::emplace_back<<lambda_e77d7e1e559843f44c4e0b6d970cdb28> >'::`1'::dtor$16
  00000	40 55		 push	 rbp
  00002	48 83 ec 20	 sub	 rsp, 32			; 00000020H
  00006	48 8b ea	 mov	 rbp, rdx
  00009	48 8b 95 80 00
	00 00		 mov	 rdx, QWORD PTR $T3[rbp]
  00010	48 8b 8d 90 00
	00 00		 mov	 rcx, QWORD PTR $T7[rbp]
  00017	e8 00 00 00 00	 call	 ??3@YAXPEAX0@Z		; operator delete
  0001c	48 83 c4 20	 add	 rsp, 32			; 00000020H
  00020	5d		 pop	 rbp
  00021	c3		 ret	 0
?dtor$16@?0???$emplace_back@V<lambda_e77d7e1e559843f44c4e0b6d970cdb28>@@@?$vector@Vthread@std@@V?$allocator@Vthread@std@@@2@@std@@QEAAX$$QEAV<lambda_e77d7e1e559843f44c4e0b6d970cdb28>@@@Z@4HA ENDP ; `std::vector<std::thread,std::allocator<std::thread> >::emplace_back<<lambda_e77d7e1e559843f44c4e0b6d970cdb28> >'::`1'::dtor$16
text$x	ENDS
; Function compile flags: /Ogtpy
;	COMDAT text$x
text$x	SEGMENT
_Oldsize$1 = 48
_Ptr$ = 64
$T2 = 72
$T3 = 128
_Newvec$4 = 128
this$ = 128
<_Val_0>$dead$ = 136
$T5 = 136
_Emplaced$6 = 136
$T7 = 144
_Newcapacity$8 = 144
$T9 = 152
?dtor$18@?0???$emplace_back@V<lambda_e77d7e1e559843f44c4e0b6d970cdb28>@@@?$vector@Vthread@std@@V?$allocator@Vthread@std@@@2@@std@@QEAAX$$QEAV<lambda_e77d7e1e559843f44c4e0b6d970cdb28>@@@Z@4HA PROC ; `std::vector<std::thread,std::allocator<std::thread> >::emplace_back<<lambda_e77d7e1e559843f44c4e0b6d970cdb28> >'::`1'::dtor$18
  00022	48 8d 8a 88 00
	00 00		 lea	 rcx, QWORD PTR $T5[rdx]
  00029	e9 00 00 00 00	 jmp	 ??1?$unique_ptr@V?$tuple@V<lambda_e77d7e1e559843f44c4e0b6d970cdb28>@@@std@@U?$default_delete@V?$tuple@V<lambda_e77d7e1e559843f44c4e0b6d970cdb28>@@@std@@@2@@std@@QEAA@XZ ; std::unique_ptr<std::tuple<<lambda_e77d7e1e559843f44c4e0b6d970cdb28> >,std::default_delete<std::tuple<<lambda_e77d7e1e559843f44c4e0b6d970cdb28> > > >::~unique_ptr<std::tuple<<lambda_e77d7e1e559843f44c4e0b6d970cdb28> >,std::default_delete<std::tuple<<lambda_e77d7e1e559843f44c4e0b6d970cdb28> > > >
?dtor$18@?0???$emplace_back@V<lambda_e77d7e1e559843f44c4e0b6d970cdb28>@@@?$vector@Vthread@std@@V?$allocator@Vthread@std@@@2@@std@@QEAAX$$QEAV<lambda_e77d7e1e559843f44c4e0b6d970cdb28>@@@Z@4HA ENDP ; `std::vector<std::thread,std::allocator<std::thread> >::emplace_back<<lambda_e77d7e1e559843f44c4e0b6d970cdb28> >'::`1'::dtor$18
text$x	ENDS
; Function compile flags: /Ogtpy
;	COMDAT text$x
text$x	SEGMENT
_Oldsize$1 = 48
_Ptr$ = 64
$T2 = 72
$T3 = 128
_Newvec$4 = 128
this$ = 128
<_Val_0>$dead$ = 136
$T5 = 136
_Emplaced$6 = 136
$T7 = 144
_Newcapacity$8 = 144
$T9 = 152
?dtor$72@?0???$emplace_back@V<lambda_e77d7e1e559843f44c4e0b6d970cdb28>@@@?$vector@Vthread@std@@V?$allocator@Vthread@std@@@2@@std@@QEAAX$$QEAV<lambda_e77d7e1e559843f44c4e0b6d970cdb28>@@@Z@4HA PROC ; `std::vector<std::thread,std::allocator<std::thread> >::emplace_back<<lambda_e77d7e1e559843f44c4e0b6d970cdb28> >'::`1'::dtor$72
  0002e	40 55		 push	 rbp
  00030	48 83 ec 20	 sub	 rsp, 32			; 00000020H
  00034	48 8b ea	 mov	 rbp, rdx
  00037	48 8b 55 40	 mov	 rdx, QWORD PTR _Ptr$[rbp]
  0003b	48 8b 4d 48	 mov	 rcx, QWORD PTR $T2[rbp]
  0003f	e8 00 00 00 00	 call	 ??3@YAXPEAX0@Z		; operator delete
  00044	48 83 c4 20	 add	 rsp, 32			; 00000020H
  00048	5d		 pop	 rbp
  00049	c3		 ret	 0
?dtor$72@?0???$emplace_back@V<lambda_e77d7e1e559843f44c4e0b6d970cdb28>@@@?$vector@Vthread@std@@V?$allocator@Vthread@std@@@2@@std@@QEAAX$$QEAV<lambda_e77d7e1e559843f44c4e0b6d970cdb28>@@@Z@4HA ENDP ; `std::vector<std::thread,std::allocator<std::thread> >::emplace_back<<lambda_e77d7e1e559843f44c4e0b6d970cdb28> >'::`1'::dtor$72
text$x	ENDS
; Function compile flags: /Ogtpy
;	COMDAT text$x
text$x	SEGMENT
_Oldsize$1 = 48
_Ptr$ = 64
$T2 = 72
$T3 = 128
_Newvec$4 = 128
this$ = 128
<_Val_0>$dead$ = 136
$T5 = 136
_Emplaced$6 = 136
$T7 = 144
_Newcapacity$8 = 144
$T9 = 152
?dtor$74@?0???$emplace_back@V<lambda_e77d7e1e559843f44c4e0b6d970cdb28>@@@?$vector@Vthread@std@@V?$allocator@Vthread@std@@@2@@std@@QEAAX$$QEAV<lambda_e77d7e1e559843f44c4e0b6d970cdb28>@@@Z@4HA PROC ; `std::vector<std::thread,std::allocator<std::thread> >::emplace_back<<lambda_e77d7e1e559843f44c4e0b6d970cdb28> >'::`1'::dtor$74
  0004a	48 8d 8a 98 00
	00 00		 lea	 rcx, QWORD PTR $T9[rdx]
  00051	e9 00 00 00 00	 jmp	 ??1?$unique_ptr@V?$tuple@V<lambda_e77d7e1e559843f44c4e0b6d970cdb28>@@@std@@U?$default_delete@V?$tuple@V<lambda_e77d7e1e559843f44c4e0b6d970cdb28>@@@std@@@2@@std@@QEAA@XZ ; std::unique_ptr<std::tuple<<lambda_e77d7e1e559843f44c4e0b6d970cdb28> >,std::default_delete<std::tuple<<lambda_e77d7e1e559843f44c4e0b6d970cdb28> > > >::~unique_ptr<std::tuple<<lambda_e77d7e1e559843f44c4e0b6d970cdb28> >,std::default_delete<std::tuple<<lambda_e77d7e1e559843f44c4e0b6d970cdb28> > > >
?dtor$74@?0???$emplace_back@V<lambda_e77d7e1e559843f44c4e0b6d970cdb28>@@@?$vector@Vthread@std@@V?$allocator@Vthread@std@@@2@@std@@QEAAX$$QEAV<lambda_e77d7e1e559843f44c4e0b6d970cdb28>@@@Z@4HA ENDP ; `std::vector<std::thread,std::allocator<std::thread> >::emplace_back<<lambda_e77d7e1e559843f44c4e0b6d970cdb28> >'::`1'::dtor$74
text$x	ENDS
; Function compile flags: /Ogtpy
;	COMDAT text$x
text$x	SEGMENT
_Oldsize$1 = 48
_Ptr$ = 64
$T2 = 72
$T3 = 128
_Newvec$4 = 128
this$ = 128
<_Val_0>$dead$ = 136
$T5 = 136
_Emplaced$6 = 136
$T7 = 144
_Newcapacity$8 = 144
$T9 = 152
?catch$95@?0???$emplace_back@V<lambda_e77d7e1e559843f44c4e0b6d970cdb28>@@@?$vector@Vthread@std@@V?$allocator@Vthread@std@@@2@@std@@QEAAX$$QEAV<lambda_e77d7e1e559843f44c4e0b6d970cdb28>@@@Z@4HA PROC ; `std::vector<std::thread,std::allocator<std::thread> >::emplace_back<<lambda_e77d7e1e559843f44c4e0b6d970cdb28> >'::`1'::catch$95

; 908  : 			_CATCH_ALL

  00056	48 89 54 24 10	 mov	 QWORD PTR [rsp+16], rdx
  0005b	53		 push	 rbx
  0005c	55		 push	 rbp
  0005d	48 83 ec 38	 sub	 rsp, 56			; 00000038H
  00061	48 8b ea	 mov	 rbp, rdx
__catch$??$emplace_back@V<lambda_e77d7e1e559843f44c4e0b6d970cdb28>@@@?$vector@Vthread@std@@V?$allocator@Vthread@std@@@2@@std@@QEAAX$$QEAV<lambda_e77d7e1e559843f44c4e0b6d970cdb28>@@@Z$0:

; 910  : 				{
; 911  : 				this->_Getal().destroy(_Unfancy(_Newvec + _Oldsize));

  00064	48 8b 9d 80 00
	00 00		 mov	 rbx, QWORD PTR _Newvec$4[rbp]

; 909  : 			if (_Emplaced)

  0006b	80 bd 88 00 00
	00 00		 cmp	 BYTE PTR _Emplaced$6[rbp], 0
  00072	74 18		 je	 SHORT $LN6@catch$95

; 910  : 				{
; 911  : 				this->_Getal().destroy(_Unfancy(_Newvec + _Oldsize));

  00074	48 8b 4d 30	 mov	 rcx, QWORD PTR _Oldsize$1[rbp]
  00078	48 c1 e1 04	 shl	 rcx, 4
  0007c	48 03 cb	 add	 rcx, rbx
  0007f	e8 00 00 00 00	 call	 ??$_Unfancy@Vthread@std@@@std@@YAPEAVthread@0@PEAV10@@Z ; std::_Unfancy<std::thread>
  00084	48 8b d0	 mov	 rdx, rax
  00087	e8 00 00 00 00	 call	 ??$destroy@Vthread@std@@@?$_Wrap_alloc@V?$allocator@Vthread@std@@@std@@@std@@QEAAXPEAVthread@1@@Z ; std::_Wrap_alloc<std::allocator<std::thread> >::destroy<std::thread>
$LN6@catch$95:

; 912  : 				}
; 913  : 
; 914  : 			this->_Getal().deallocate(_Newvec, _Newcapacity);

  0008c	4c 8b 85 90 00
	00 00		 mov	 r8, QWORD PTR _Newcapacity$8[rbp]
  00093	48 8b d3	 mov	 rdx, rbx
  00096	e8 00 00 00 00	 call	 ?deallocate@?$_Wrap_alloc@V?$allocator@Vthread@std@@@std@@@std@@QEAAXPEAVthread@2@_K@Z ; std::_Wrap_alloc<std::allocator<std::thread> >::deallocate

; 915  : 			_RERAISE;

  0009b	33 d2		 xor	 edx, edx
  0009d	33 c9		 xor	 ecx, ecx
  0009f	e8 00 00 00 00	 call	 _CxxThrowException
  000a4	90		 npad	 1
?catch$95@?0???$emplace_back@V<lambda_e77d7e1e559843f44c4e0b6d970cdb28>@@@?$vector@Vthread@std@@V?$allocator@Vthread@std@@@2@@std@@QEAAX$$QEAV<lambda_e77d7e1e559843f44c4e0b6d970cdb28>@@@Z@4HA ENDP ; `std::vector<std::thread,std::allocator<std::thread> >::emplace_back<<lambda_e77d7e1e559843f44c4e0b6d970cdb28> >'::`1'::catch$95
text$x	ENDS
; Function compile flags: /Ogtpy
; File c:\users\alist_000\cppmisc\packages\visualcpptools.14.0.24629\lib\native\include\type_traits
;	COMDAT ??$move@AEAU?$_Wrap_alloc@V?$allocator@D@std@@@std@@@std@@YA$$QEAU?$_Wrap_alloc@V?$allocator@D@std@@@0@AEAU10@@Z
_TEXT	SEGMENT
_Arg$ = 8
??$move@AEAU?$_Wrap_alloc@V?$allocator@D@std@@@std@@@std@@YA$$QEAU?$_Wrap_alloc@V?$allocator@D@std@@@0@AEAU10@@Z PROC ; std::move<std::_Wrap_alloc<std::allocator<char> > & __ptr64>, COMDAT

; 1346 : 	return (static_cast<typename remove_reference<_Ty>::type&&>(_Arg));

  00000	48 8b c1	 mov	 rax, rcx

; 1347 : 	}

  00003	c3		 ret	 0
??$move@AEAU?$_Wrap_alloc@V?$allocator@D@std@@@std@@@std@@YA$$QEAU?$_Wrap_alloc@V?$allocator@D@std@@@0@AEAU10@@Z ENDP ; std::move<std::_Wrap_alloc<std::allocator<char> > & __ptr64>
_TEXT	ENDS
; Function compile flags: /Ogtpy
; File c:\users\alist_000\cppmisc\packages\visualcpptools.14.0.24629\lib\native\include\xstring
;	COMDAT ??$?0U?$_Wrap_alloc@V?$allocator@D@std@@@std@@X@?$_String_alloc@U?$_String_base_types@DV?$allocator@D@std@@@std@@@std@@QEAA@$$QEAU?$_Wrap_alloc@V?$allocator@D@std@@@1@@Z
_TEXT	SEGMENT
this$ = 8
_Al$ = 16
??$?0U?$_Wrap_alloc@V?$allocator@D@std@@@std@@X@?$_String_alloc@U?$_String_base_types@DV?$allocator@D@std@@@std@@@std@@QEAA@$$QEAU?$_Wrap_alloc@V?$allocator@D@std@@@1@@Z PROC ; std::_String_alloc<std::_String_base_types<char,std::allocator<char> > >::_String_alloc<std::_String_base_types<char,std::allocator<char> > ><std::_Wrap_alloc<std::allocator<char> >,void>, COMDAT

; 1606 : 		_Mysize(0),

  00000	33 c0		 xor	 eax, eax
  00002	48 89 41 10	 mov	 QWORD PTR [rcx+16], rax

; 1607 : 		_Myres(0)

  00006	48 89 41 18	 mov	 QWORD PTR [rcx+24], rax

; 1713 : 		}

  0000a	48 8b c1	 mov	 rax, rcx
  0000d	c3		 ret	 0
??$?0U?$_Wrap_alloc@V?$allocator@D@std@@@std@@X@?$_String_alloc@U?$_String_base_types@DV?$allocator@D@std@@@std@@@std@@QEAA@$$QEAU?$_Wrap_alloc@V?$allocator@D@std@@@1@@Z ENDP ; std::_String_alloc<std::_String_base_types<char,std::allocator<char> > >::_String_alloc<std::_String_base_types<char,std::allocator<char> > ><std::_Wrap_alloc<std::allocator<char> >,void>
_TEXT	ENDS
; Function compile flags: /Ogtpy
; File c:\users\alist_000\cppmisc\packages\visualcpptools.14.0.24629\lib\native\include\type_traits
;	COMDAT ??$move@AEAV?$basic_string@DU?$char_traits@D@std@@V?$allocator@D@2@@std@@@std@@YA$$QEAV?$basic_string@DU?$char_traits@D@std@@V?$allocator@D@2@@0@AEAV10@@Z
_TEXT	SEGMENT
_Arg$ = 8
??$move@AEAV?$basic_string@DU?$char_traits@D@std@@V?$allocator@D@2@@std@@@std@@YA$$QEAV?$basic_string@DU?$char_traits@D@std@@V?$allocator@D@2@@0@AEAV10@@Z PROC ; std::move<std::basic_string<char,std::char_traits<char>,std::allocator<char> > & __ptr64>, COMDAT

; 1346 : 	return (static_cast<typename remove_reference<_Ty>::type&&>(_Arg));

  00000	48 8b c1	 mov	 rax, rcx

; 1347 : 	}

  00003	c3		 ret	 0
??$move@AEAV?$basic_string@DU?$char_traits@D@std@@V?$allocator@D@2@@std@@@std@@YA$$QEAV?$basic_string@DU?$char_traits@D@std@@V?$allocator@D@2@@0@AEAV10@@Z ENDP ; std::move<std::basic_string<char,std::char_traits<char>,std::allocator<char> > & __ptr64>
_TEXT	ENDS
; Function compile flags: /Ogtpy
; File c:\users\alist_000\cppmisc\packages\visualcpptools.14.0.24629\lib\native\include\xutility
; File c:\users\alist_000\cppmisc\packages\visualcpptools.14.0.24629\lib\native\include\vector
; File c:\users\alist_000\cppmisc\packages\visualcpptools.14.0.24629\lib\native\include\xutility
;	COMDAT ??$?0$$V@?$_Compressed_pair@U?$_Wrap_alloc@V?$allocator@Vthread@std@@@std@@@std@@V?$_Vector_val@U?$_Simple_types@Vthread@std@@@std@@@2@$00@std@@QEAA@U_Zero_then_variadic_args_t@1@@Z
_TEXT	SEGMENT
this$ = 8
__formal$dead$ = 16
??$?0$$V@?$_Compressed_pair@U?$_Wrap_alloc@V?$allocator@Vthread@std@@@std@@@std@@V?$_Vector_val@U?$_Simple_types@Vthread@std@@@std@@@2@$00@std@@QEAA@U_Zero_then_variadic_args_t@1@@Z PROC ; std::_Compressed_pair<std::_Wrap_alloc<std::allocator<std::thread> >,std::_Vector_val<std::_Simple_types<std::thread> >,1>::_Compressed_pair<std::_Wrap_alloc<std::allocator<std::thread> >,std::_Vector_val<std::_Simple_types<std::thread> >,1><>, COMDAT
; File c:\users\alist_000\cppmisc\packages\visualcpptools.14.0.24629\lib\native\include\vector

; 478  : 		: _Myfirst(),

  00000	33 c0		 xor	 eax, eax
  00002	48 89 01	 mov	 QWORD PTR [rcx], rax

; 479  : 		_Mylast(),

  00005	48 89 41 08	 mov	 QWORD PTR [rcx+8], rax

; 480  : 		_Myend()

  00009	48 89 41 10	 mov	 QWORD PTR [rcx+16], rax
; File c:\users\alist_000\cppmisc\packages\visualcpptools.14.0.24629\lib\native\include\xutility

; 295  : 		}

  0000d	48 8b c1	 mov	 rax, rcx
  00010	c3		 ret	 0
??$?0$$V@?$_Compressed_pair@U?$_Wrap_alloc@V?$allocator@Vthread@std@@@std@@@std@@V?$_Vector_val@U?$_Simple_types@Vthread@std@@@std@@@2@$00@std@@QEAA@U_Zero_then_variadic_args_t@1@@Z ENDP ; std::_Compressed_pair<std::_Wrap_alloc<std::allocator<std::thread> >,std::_Vector_val<std::_Simple_types<std::thread> >,1>::_Compressed_pair<std::_Wrap_alloc<std::allocator<std::thread> >,std::_Vector_val<std::_Simple_types<std::thread> >,1><>
_TEXT	ENDS
; Function compile flags: /Ogtpy
; File c:\users\alist_000\cppmisc\packages\visualcpptools.14.0.24629\lib\native\include\xmemory0
;	COMDAT ??$?0V?$allocator@D@std@@@?$_Wrap_alloc@V?$allocator@D@std@@@std@@QEAA@$$QEAV?$allocator@D@1@@Z
_TEXT	SEGMENT
this$ = 8
_Right$ = 16
??$?0V?$allocator@D@std@@@?$_Wrap_alloc@V?$allocator@D@std@@@std@@QEAA@$$QEAV?$allocator@D@1@@Z PROC ; std::_Wrap_alloc<std::allocator<char> >::_Wrap_alloc<std::allocator<char> ><std::allocator<char> >, COMDAT

; 1047 : 		}

  00000	48 8b c1	 mov	 rax, rcx
  00003	c3		 ret	 0
??$?0V?$allocator@D@std@@@?$_Wrap_alloc@V?$allocator@D@std@@@std@@QEAA@$$QEAV?$allocator@D@1@@Z ENDP ; std::_Wrap_alloc<std::allocator<char> >::_Wrap_alloc<std::allocator<char> ><std::allocator<char> >
_TEXT	ENDS
; Function compile flags: /Ogtpy
; File c:\users\alist_000\cppmisc\packages\visualcpptools.14.0.24629\lib\native\include\xutility
; File c:\users\alist_000\cppmisc\packages\visualcpptools.14.0.24629\lib\native\include\xstring
; File c:\users\alist_000\cppmisc\packages\visualcpptools.14.0.24629\lib\native\include\xutility
;	COMDAT ??$?0$$V@?$_Compressed_pair@U?$_Wrap_alloc@V?$allocator@D@std@@@std@@V?$_String_val@U?$_Simple_types@D@std@@@2@$00@std@@QEAA@U_Zero_then_variadic_args_t@1@@Z
_TEXT	SEGMENT
this$ = 8
__formal$ = 16
??$?0$$V@?$_Compressed_pair@U?$_Wrap_alloc@V?$allocator@D@std@@@std@@V?$_String_val@U?$_Simple_types@D@std@@@2@$00@std@@QEAA@U_Zero_then_variadic_args_t@1@@Z PROC ; std::_Compressed_pair<std::_Wrap_alloc<std::allocator<char> >,std::_String_val<std::_Simple_types<char> >,1>::_Compressed_pair<std::_Wrap_alloc<std::allocator<char> >,std::_String_val<std::_Simple_types<char> >,1><>, COMDAT
; File c:\users\alist_000\cppmisc\packages\visualcpptools.14.0.24629\lib\native\include\xstring

; 1606 : 		_Mysize(0),

  00000	33 c0		 xor	 eax, eax
  00002	48 89 41 10	 mov	 QWORD PTR [rcx+16], rax

; 1607 : 		_Myres(0)

  00006	48 89 41 18	 mov	 QWORD PTR [rcx+24], rax
; File c:\users\alist_000\cppmisc\packages\visualcpptools.14.0.24629\lib\native\include\xutility

; 295  : 		}

  0000a	48 8b c1	 mov	 rax, rcx
  0000d	c3		 ret	 0
??$?0$$V@?$_Compressed_pair@U?$_Wrap_alloc@V?$allocator@D@std@@@std@@V?$_String_val@U?$_Simple_types@D@std@@@2@$00@std@@QEAA@U_Zero_then_variadic_args_t@1@@Z ENDP ; std::_Compressed_pair<std::_Wrap_alloc<std::allocator<char> >,std::_String_val<std::_Simple_types<char> >,1>::_Compressed_pair<std::_Wrap_alloc<std::allocator<char> >,std::_String_val<std::_Simple_types<char> >,1><>
_TEXT	ENDS
; Function compile flags: /Ogtpy
; File c:\users\alist_000\cppmisc\packages\visualcpptools.14.0.24629\lib\native\include\xstddef
;	COMDAT ??$addressof@PEAD@std@@YAPEAPEADAEAPEAD@Z
_TEXT	SEGMENT
_Val$ = 8
??$addressof@PEAD@std@@YAPEAPEADAEAPEAD@Z PROC		; std::addressof<char * __ptr64>, COMDAT

; 629  : 	return (__builtin_addressof(_Val));

  00000	48 8b c1	 mov	 rax, rcx

; 630  : 	}

  00003	c3		 ret	 0
??$addressof@PEAD@std@@YAPEAPEADAEAPEAD@Z ENDP		; std::addressof<char * __ptr64>
_TEXT	ENDS
; Function compile flags: /Ogtpy
; File c:\users\alist_000\cppmisc\packages\visualcpptools.14.0.24629\lib\native\include\xmemory0
;	COMDAT ??$destroy@PEAD@?$_Wrap_alloc@V?$allocator@D@std@@@std@@QEAAXPEAPEAD@Z
_TEXT	SEGMENT
this$ = 8
_Ptr$ = 16
??$destroy@PEAD@?$_Wrap_alloc@V?$allocator@D@std@@@std@@QEAAXPEAPEAD@Z PROC ; std::_Wrap_alloc<std::allocator<char> >::destroy<char * __ptr64>, COMDAT

; 1096 : 		_Mytraits::destroy(*this, _Ptr);
; 1097 : 		}

  00000	c2 00 00	 ret	 0
??$destroy@PEAD@?$_Wrap_alloc@V?$allocator@D@std@@@std@@QEAAXPEAPEAD@Z ENDP ; std::_Wrap_alloc<std::allocator<char> >::destroy<char * __ptr64>
_TEXT	ENDS
; Function compile flags: /Ogtpy
; File c:\users\alist_000\cppmisc\packages\visualcpptools.14.0.24629\lib\native\include\xmemory0
;	COMDAT ??$construct@PEADAEAPEAD@?$_Wrap_alloc@V?$allocator@D@std@@@std@@QEAAXPEAPEADAEAPEAD@Z
_TEXT	SEGMENT
this$ = 8
_Ptr$ = 16
<_Args_0>$ = 24
??$construct@PEADAEAPEAD@?$_Wrap_alloc@V?$allocator@D@std@@@std@@QEAAXPEAPEADAEAPEAD@Z PROC ; std::_Wrap_alloc<std::allocator<char> >::construct<char * __ptr64,char * __ptr64 & __ptr64>, COMDAT

; 833  : 		::new ((void *)_Ptr) _Objty(_STD forward<_Types>(_Args)...);

  00000	48 85 d2	 test	 rdx, rdx
  00003	74 06		 je	 SHORT $LN13@construct
  00005	49 8b 00	 mov	 rax, QWORD PTR [r8]
  00008	48 89 02	 mov	 QWORD PTR [rdx], rax
$LN13@construct:

; 1089 : 		_Mytraits::construct(*this, _Ptr,
; 1090 : 			_STD forward<_Types>(_Args)...);
; 1091 : 		}

  0000b	c3		 ret	 0
??$construct@PEADAEAPEAD@?$_Wrap_alloc@V?$allocator@D@std@@@std@@QEAAXPEAPEADAEAPEAD@Z ENDP ; std::_Wrap_alloc<std::allocator<char> >::construct<char * __ptr64,char * __ptr64 & __ptr64>
_TEXT	ENDS
; Function compile flags: /Ogtpy
; File c:\users\alist_000\cppmisc\packages\visualcpptools.14.0.24629\lib\native\include\xmemory0
; File c:\users\alist_000\cppmisc\packages\visualcpptools.14.0.24629\lib\native\include\thread
; File c:\users\alist_000\cppmisc\packages\visualcpptools.14.0.24629\lib\native\include\xmemory0
; File c:\users\alist_000\cppmisc\packages\visualcpptools.14.0.24629\lib\native\include\thread
; File c:\users\alist_000\cppmisc\packages\visualcpptools.14.0.24629\lib\native\include\xmemory0
;	COMDAT ??$_Destroy_range@V?$allocator@Vthread@std@@@std@@PEAVthread@2@@std@@YAXPEAVthread@0@0AEAU?$_Wrap_alloc@V?$allocator@Vthread@std@@@std@@@0@@Z
_TEXT	SEGMENT
_First$ = 48
_Last$ = 56
_Al$dead$ = 64
??$_Destroy_range@V?$allocator@Vthread@std@@@std@@PEAVthread@2@@std@@YAXPEAVthread@0@0AEAU?$_Wrap_alloc@V?$allocator@Vthread@std@@@std@@@0@@Z PROC ; std::_Destroy_range<std::allocator<std::thread>,std::thread * __ptr64>, COMDAT

; 1207 : 	{	// destroy [_First, _Last), choose optimization

$LN40:
  00000	48 83 ec 28	 sub	 rsp, 40			; 00000028H

; 1193 : 	for (; _First != _Last; ++_First)

  00004	48 3b ca	 cmp	 rcx, rdx
  00007	74 16		 je	 SHORT $LN5@Destroy_ra
  00009	0f 1f 80 00 00
	00 00		 npad	 7
$LL6@Destroy_ra:
; File c:\users\alist_000\cppmisc\packages\visualcpptools.14.0.24629\lib\native\include\thread

; 79   : 		return (!_Thr_is_null(_Thr));

  00010	83 79 08 00	 cmp	 DWORD PTR [rcx+8], 0

; 54   : 		if (joinable())

  00014	75 0e		 jne	 SHORT $LN39@Destroy_ra
; File c:\users\alist_000\cppmisc\packages\visualcpptools.14.0.24629\lib\native\include\xmemory0

; 1193 : 	for (; _First != _Last; ++_First)

  00016	48 83 c1 10	 add	 rcx, 16
  0001a	48 3b ca	 cmp	 rcx, rdx
  0001d	75 f1		 jne	 SHORT $LL6@Destroy_ra
$LN5@Destroy_ra:

; 1214 : 	}

  0001f	48 83 c4 28	 add	 rsp, 40			; 00000028H
  00023	c3		 ret	 0
$LN39@Destroy_ra:
; File c:\users\alist_000\cppmisc\packages\visualcpptools.14.0.24629\lib\native\include\thread

; 55   : 			_STD terminate();

  00024	e8 00 00 00 00	 call	 terminate
  00029	cc		 int	 3
$LN38@Destroy_ra:
??$_Destroy_range@V?$allocator@Vthread@std@@@std@@PEAVthread@2@@std@@YAXPEAVthread@0@0AEAU?$_Wrap_alloc@V?$allocator@Vthread@std@@@std@@@0@@Z ENDP ; std::_Destroy_range<std::allocator<std::thread>,std::thread * __ptr64>
_TEXT	ENDS
; Function compile flags: /Ogtpy
; File c:\users\alist_000\cppmisc\packages\visualcpptools.14.0.24629\lib\native\include\xstddef
;	COMDAT ??$_Unfancy@D@std@@YAPEADPEAD@Z
_TEXT	SEGMENT
_Ptr$ = 8
??$_Unfancy@D@std@@YAPEADPEAD@Z PROC			; std::_Unfancy<char>, COMDAT

; 642  : 	return (_Ptr);

  00000	48 8b c1	 mov	 rax, rcx

; 643  : 	}

  00003	c3		 ret	 0
??$_Unfancy@D@std@@YAPEADPEAD@Z ENDP			; std::_Unfancy<char>
_TEXT	ENDS
; Function compile flags: /Ogtpy
; File c:\users\alist_000\cppmisc\packages\visualcpptools.14.0.24629\lib\native\include\utility
;	COMDAT ??$_Min_value@_K@std@@YAAEB_KAEB_K0@Z
_TEXT	SEGMENT
_Left$ = 8
_Right$ = 16
??$_Min_value@_K@std@@YAAEB_KAEB_K0@Z PROC		; std::_Min_value<unsigned __int64>, COMDAT

; 24   : 	return (_Right < _Left ? _Right : _Left);

  00000	48 8b 01	 mov	 rax, QWORD PTR [rcx]
  00003	48 39 02	 cmp	 QWORD PTR [rdx], rax
  00006	48 0f 42 ca	 cmovb	 rcx, rdx
  0000a	48 8b c1	 mov	 rax, rcx

; 25   : 	}

  0000d	c3		 ret	 0
??$_Min_value@_K@std@@YAAEB_KAEB_K0@Z ENDP		; std::_Min_value<unsigned __int64>
_TEXT	ENDS
; Function compile flags: /Ogtpy
; File c:\users\alist_000\cppmisc\packages\visualcpptools.14.0.24629\lib\native\include\xmemory
;	COMDAT ??$_Uninitialized_move@PEAVthread@std@@PEAV12@V?$allocator@Vthread@std@@@2@@std@@YAPEAVthread@0@PEAV10@00AEAU?$_Wrap_alloc@V?$allocator@Vthread@std@@@std@@@0@@Z
_TEXT	SEGMENT
_First$ = 64
_Last$ = 72
_Dest$ = 80
_Al$dead$ = 88
??$_Uninitialized_move@PEAVthread@std@@PEAV12@V?$allocator@Vthread@std@@@2@@std@@YAPEAVthread@0@PEAV10@00AEAU?$_Wrap_alloc@V?$allocator@Vthread@std@@@std@@@0@@Z PROC ; std::_Uninitialized_move<std::thread * __ptr64,std::thread * __ptr64,std::allocator<std::thread> >, COMDAT

; 312  : 	{	// move [_First, _Last) to raw _Dest, using _Al

$LN19:
  00000	48 83 ec 38	 sub	 rsp, 56			; 00000038H

; 302  : 	return (_Uninitialized_move_al_unchecked1(_First, _Last, _Dest, _Al,

  00004	e8 00 00 00 00	 call	 ??$_Uninitialized_move_al_unchecked1@PEAVthread@std@@PEAV12@V?$allocator@Vthread@std@@@2@@std@@YAPEAVthread@0@PEAV10@00AEAU?$_Wrap_alloc@V?$allocator@Vthread@std@@@std@@@0@U_General_ptr_iterator_tag@0@U_Any_tag@0@@Z ; std::_Uninitialized_move_al_unchecked1<std::thread * __ptr64,std::thread * __ptr64,std::allocator<std::thread> >

; 313  : 		// note: only called internally from elsewhere in the STL, debug checks
; 314  : 		// and deprecation warnings omitted
; 315  : 	return (_Rechecked(_Dest,
; 316  : 		_Uninitialized_move_al_unchecked(_Unchecked(_First), _Unchecked(_Last),
; 317  : 			_Unchecked(_Dest), _Al)));
; 318  : 	}

  00009	48 83 c4 38	 add	 rsp, 56			; 00000038H
  0000d	c3		 ret	 0
??$_Uninitialized_move@PEAVthread@std@@PEAV12@V?$allocator@Vthread@std@@@2@@std@@YAPEAVthread@0@PEAV10@00AEAU?$_Wrap_alloc@V?$allocator@Vthread@std@@@std@@@0@@Z ENDP ; std::_Uninitialized_move<std::thread * __ptr64,std::thread * __ptr64,std::allocator<std::thread> >
_TEXT	ENDS
; Function compile flags: /Ogtpy
;	COMDAT ??__F_Static@?1???$_Immortalize@V_Iostream_error_category@std@@@std@@YAAEAV_Iostream_error_category@0@XZ@YAXXZ
text$yd	SEGMENT
??__F_Static@?1???$_Immortalize@V_Iostream_error_category@std@@@std@@YAAEAV_Iostream_error_category@0@XZ@YAXXZ PROC ; `std::_Immortalize<std::_Iostream_error_category>'::`2'::`dynamic atexit destructor for '_Static'', COMDAT
  00000	c2 00 00	 ret	 0
??__F_Static@?1???$_Immortalize@V_Iostream_error_category@std@@@std@@YAAEAV_Iostream_error_category@0@XZ@YAXXZ ENDP ; `std::_Immortalize<std::_Iostream_error_category>'::`2'::`dynamic atexit destructor for '_Static''
text$yd	ENDS
; Function compile flags: /Ogtpy
; File c:\users\alist_000\cppmisc\packages\visualcpptools.14.0.24629\lib\native\include\system_error
;	COMDAT ??1?$_Immortalizer@V_Iostream_error_category@std@@@std@@QEAA@XZ
_TEXT	SEGMENT
this$ = 8
??1?$_Immortalizer@V_Iostream_error_category@std@@@std@@QEAA@XZ PROC ; std::_Immortalizer<std::_Iostream_error_category>::~_Immortalizer<std::_Iostream_error_category>, COMDAT

; 683  : 		}

  00000	c2 00 00	 ret	 0
??1?$_Immortalizer@V_Iostream_error_category@std@@@std@@QEAA@XZ ENDP ; std::_Immortalizer<std::_Iostream_error_category>::~_Immortalizer<std::_Iostream_error_category>
_TEXT	ENDS
; Function compile flags: /Ogtpy
; File c:\users\alist_000\cppmisc\packages\visualcpptools.14.0.24629\lib\native\include\system_error
;	COMDAT ??0?$_Immortalizer@V_Iostream_error_category@std@@@std@@QEAA@XZ
_TEXT	SEGMENT
this$ = 8
??0?$_Immortalizer@V_Iostream_error_category@std@@@std@@QEAA@XZ PROC ; std::_Immortalizer<std::_Iostream_error_category>::_Immortalizer<std::_Iostream_error_category>, COMDAT

; 677  : 		{	// construct _Ty inside _Storage
; 678  : 		::new (static_cast<void *>(&_Storage)) _Ty();

  00000	48 85 c9	 test	 rcx, rcx
  00003	74 12		 je	 SHORT $LN16@Immortaliz

; 612  : 		{	// default constructor

  00005	48 8d 05 00 00
	00 00		 lea	 rax, OFFSET FLAT:??_7_Iostream_error_category@std@@6B@

; 613  : 		_Addr = _Iostream_addr;

  0000c	48 c7 41 08 05
	00 00 00	 mov	 QWORD PTR [rcx+8], 5
  00014	48 89 01	 mov	 QWORD PTR [rcx], rax
$LN16@Immortaliz:

; 679  : 		}

  00017	48 8b c1	 mov	 rax, rcx
  0001a	c3		 ret	 0
??0?$_Immortalizer@V_Iostream_error_category@std@@@std@@QEAA@XZ ENDP ; std::_Immortalizer<std::_Iostream_error_category>::_Immortalizer<std::_Iostream_error_category>
_TEXT	ENDS
; Function compile flags: /Ogtpy
; File c:\users\alist_000\cppmisc\packages\visualcpptools.14.0.24629\lib\native\include\ostream
;	COMDAT ??Bsentry@?$basic_ostream@DU?$char_traits@D@std@@@std@@QEBA_NXZ
_TEXT	SEGMENT
this$ = 8
??Bsentry@?$basic_ostream@DU?$char_traits@D@std@@@std@@QEBA_NXZ PROC ; std::basic_ostream<char,std::char_traits<char> >::sentry::operator bool, COMDAT

; 142  : 			return (_Ok);

  00000	0f b6 41 08	 movzx	 eax, BYTE PTR [rcx+8]

; 143  : 			}

  00004	c3		 ret	 0
??Bsentry@?$basic_ostream@DU?$char_traits@D@std@@@std@@QEBA_NXZ ENDP ; std::basic_ostream<char,std::char_traits<char> >::sentry::operator bool
_TEXT	ENDS
; Function compile flags: /Ogtpy
; File c:\users\alist_000\cppmisc\packages\visualcpptools.14.0.24629\lib\native\include\ostream
; File c:\users\alist_000\cppmisc\packages\visualcpptools.14.0.24629\lib\native\include\ios
; File c:\users\alist_000\cppmisc\packages\visualcpptools.14.0.24629\lib\native\include\ostream
;	COMDAT ??1sentry@?$basic_ostream@DU?$char_traits@D@std@@@std@@QEAA@XZ
_TEXT	SEGMENT
$T1 = 32
this$ = 64
??1sentry@?$basic_ostream@DU?$char_traits@D@std@@@std@@QEAA@XZ PROC ; std::basic_ostream<char,std::char_traits<char> >::sentry::~sentry, COMDAT

; 130  : 			{	// destroy the object

$LN13:
  00000	40 53		 push	 rbx
  00002	48 83 ec 30	 sub	 rsp, 48			; 00000030H
  00006	48 c7 44 24 20
	fe ff ff ff	 mov	 QWORD PTR $T1[rsp], -2
  0000f	48 8b d9	 mov	 rbx, rcx

; 131  :  #if _HAS_EXCEPTIONS
; 132  : 			if (!_STD uncaught_exception())

  00012	e8 00 00 00 00	 call	 ?uncaught_exception@std@@YA_NXZ ; std::uncaught_exception
  00017	90		 npad	 1
  00018	84 c0		 test	 al, al
  0001a	75 09		 jne	 SHORT $LN2@sentry

; 133  : 				this->_Myostr._Osfx();

  0001c	48 8b 0b	 mov	 rcx, QWORD PTR [rbx]
  0001f	e8 00 00 00 00	 call	 ?_Osfx@?$basic_ostream@DU?$char_traits@D@std@@@std@@QEAAXXZ ; std::basic_ostream<char,std::char_traits<char> >::_Osfx
  00024	90		 npad	 1
$LN2@sentry:

; 107  : 			if (_Myostr.rdbuf() != 0)

  00025	48 8b 13	 mov	 rdx, QWORD PTR [rbx]
  00028	48 8b 02	 mov	 rax, QWORD PTR [rdx]
  0002b	48 63 48 04	 movsxd	 rcx, DWORD PTR [rax+4]
; File c:\users\alist_000\cppmisc\packages\visualcpptools.14.0.24629\lib\native\include\ios

; 92   : 		return (_Mystrbuf);

  0002f	48 8b 4c 11 48	 mov	 rcx, QWORD PTR [rcx+rdx+72]
; File c:\users\alist_000\cppmisc\packages\visualcpptools.14.0.24629\lib\native\include\ostream

; 107  : 			if (_Myostr.rdbuf() != 0)

  00034	48 85 c9	 test	 rcx, rcx
  00037	74 07		 je	 SHORT $LN12@sentry

; 108  : 				_Myostr.rdbuf()->_Unlock();

  00039	48 8b 01	 mov	 rax, QWORD PTR [rcx]
  0003c	ff 50 10	 call	 QWORD PTR [rax+16]
  0003f	90		 npad	 1
$LN12@sentry:

; 134  : 
; 135  :  #else /* _HAS_EXCEPTIONS */
; 136  : 			this->_Myostr._Osfx();
; 137  :  #endif /* _HAS_EXCEPTIONS */
; 138  : 			}

  00040	48 83 c4 30	 add	 rsp, 48			; 00000030H
  00044	5b		 pop	 rbx
  00045	c3		 ret	 0
??1sentry@?$basic_ostream@DU?$char_traits@D@std@@@std@@QEAA@XZ ENDP ; std::basic_ostream<char,std::char_traits<char> >::sentry::~sentry
_TEXT	ENDS
; Function compile flags: /Ogtpy
; File c:\users\alist_000\cppmisc\packages\visualcpptools.14.0.24629\lib\native\include\ostream
; File c:\users\alist_000\cppmisc\packages\visualcpptools.14.0.24629\lib\native\include\ios
; File c:\users\alist_000\cppmisc\packages\visualcpptools.14.0.24629\lib\native\include\ostream
; File c:\users\alist_000\cppmisc\packages\visualcpptools.14.0.24629\lib\native\include\xiosbase
; File c:\users\alist_000\cppmisc\packages\visualcpptools.14.0.24629\lib\native\include\ostream
; File c:\users\alist_000\cppmisc\packages\visualcpptools.14.0.24629\lib\native\include\ios
; File c:\users\alist_000\cppmisc\packages\visualcpptools.14.0.24629\lib\native\include\ostream
; File c:\users\alist_000\cppmisc\packages\visualcpptools.14.0.24629\lib\native\include\xiosbase
; File c:\users\alist_000\cppmisc\packages\visualcpptools.14.0.24629\lib\native\include\ostream
;	COMDAT ??0sentry@?$basic_ostream@DU?$char_traits@D@std@@@std@@QEAA@AEAV12@@Z
_TEXT	SEGMENT
$T1 = 32
this$ = 64
_Ostr$ = 72
??0sentry@?$basic_ostream@DU?$char_traits@D@std@@@std@@QEAA@AEAV12@@Z PROC ; std::basic_ostream<char,std::char_traits<char> >::sentry::sentry, COMDAT

; 123  : 			{	// construct locking and testing stream

$LN26:
  00000	48 89 4c 24 08	 mov	 QWORD PTR [rsp+8], rcx
  00005	57		 push	 rdi
  00006	48 83 ec 30	 sub	 rsp, 48			; 00000030H
  0000a	48 c7 44 24 20
	fe ff ff ff	 mov	 QWORD PTR $T1[rsp], -2
  00013	48 89 5c 24 48	 mov	 QWORD PTR [rsp+72], rbx
  00018	48 8b da	 mov	 rbx, rdx
  0001b	48 8b f9	 mov	 rdi, rcx

; 99   : 			: _Myostr(_Ostr)

  0001e	48 89 11	 mov	 QWORD PTR [rcx], rdx

; 101  : 			if (_Myostr.rdbuf() != 0)

  00021	48 8b 02	 mov	 rax, QWORD PTR [rdx]
  00024	4c 63 40 04	 movsxd	 r8, DWORD PTR [rax+4]
; File c:\users\alist_000\cppmisc\packages\visualcpptools.14.0.24629\lib\native\include\ios

; 92   : 		return (_Mystrbuf);

  00028	49 8b 4c 10 48	 mov	 rcx, QWORD PTR [r8+rdx+72]
; File c:\users\alist_000\cppmisc\packages\visualcpptools.14.0.24629\lib\native\include\ostream

; 101  : 			if (_Myostr.rdbuf() != 0)

  0002d	48 85 c9	 test	 rcx, rcx
  00030	74 07		 je	 SHORT $LN6@sentry

; 102  : 				_Myostr.rdbuf()->_Lock();

  00032	48 8b 01	 mov	 rax, QWORD PTR [rcx]
  00035	ff 50 08	 call	 QWORD PTR [rax+8]
  00038	90		 npad	 1
$LN6@sentry:

; 124  : 			if (_Ostr.good() && _Ostr.tie() != 0 && _Ostr.tie() != &_Ostr)

  00039	48 8b 03	 mov	 rax, QWORD PTR [rbx]
  0003c	48 63 48 04	 movsxd	 rcx, DWORD PTR [rax+4]
; File c:\users\alist_000\cppmisc\packages\visualcpptools.14.0.24629\lib\native\include\xiosbase

; 339  : 		return (rdstate() == goodbit);

  00040	83 7c 19 10 00	 cmp	 DWORD PTR [rcx+rbx+16], 0
; File c:\users\alist_000\cppmisc\packages\visualcpptools.14.0.24629\lib\native\include\ostream

; 124  : 			if (_Ostr.good() && _Ostr.tie() != 0 && _Ostr.tie() != &_Ostr)

  00045	75 14		 jne	 SHORT $LN2@sentry
; File c:\users\alist_000\cppmisc\packages\visualcpptools.14.0.24629\lib\native\include\ios

; 80   : 		return (_Tiestr);

  00047	48 8b 4c 19 50	 mov	 rcx, QWORD PTR [rcx+rbx+80]
; File c:\users\alist_000\cppmisc\packages\visualcpptools.14.0.24629\lib\native\include\ostream

; 124  : 			if (_Ostr.good() && _Ostr.tie() != 0 && _Ostr.tie() != &_Ostr)

  0004c	48 85 c9	 test	 rcx, rcx
  0004f	74 0a		 je	 SHORT $LN2@sentry
  00051	48 3b cb	 cmp	 rcx, rbx
  00054	74 05		 je	 SHORT $LN2@sentry

; 125  : 				_Ostr.tie()->flush();

  00056	e8 00 00 00 00	 call	 ?flush@?$basic_ostream@DU?$char_traits@D@std@@@std@@QEAAAEAV12@XZ ; std::basic_ostream<char,std::char_traits<char> >::flush
$LN2@sentry:

; 126  : 			_Ok = _Ostr.good();	// store test only after flushing tie

  0005b	48 8b 03	 mov	 rax, QWORD PTR [rbx]
  0005e	48 63 48 04	 movsxd	 rcx, DWORD PTR [rax+4]
; File c:\users\alist_000\cppmisc\packages\visualcpptools.14.0.24629\lib\native\include\xiosbase

; 339  : 		return (rdstate() == goodbit);

  00062	83 7c 19 10 00	 cmp	 DWORD PTR [rcx+rbx+16], 0
  00067	0f 94 c0	 sete	 al
; File c:\users\alist_000\cppmisc\packages\visualcpptools.14.0.24629\lib\native\include\ostream

; 126  : 			_Ok = _Ostr.good();	// store test only after flushing tie

  0006a	88 47 08	 mov	 BYTE PTR [rdi+8], al

; 127  : 			}

  0006d	48 8b c7	 mov	 rax, rdi
  00070	48 8b 5c 24 48	 mov	 rbx, QWORD PTR [rsp+72]
  00075	48 83 c4 30	 add	 rsp, 48			; 00000030H
  00079	5f		 pop	 rdi
  0007a	c3		 ret	 0
??0sentry@?$basic_ostream@DU?$char_traits@D@std@@@std@@QEAA@AEAV12@@Z ENDP ; std::basic_ostream<char,std::char_traits<char> >::sentry::sentry
_TEXT	ENDS
;	COMDAT text$x
text$x	SEGMENT
$T1 = 32
this$ = 64
_Ostr$ = 72
?dtor$0@?0???0sentry@?$basic_ostream@DU?$char_traits@D@std@@@std@@QEAA@AEAV12@@Z@4HA PROC ; `std::basic_ostream<char,std::char_traits<char> >::sentry::sentry'::`1'::dtor$0
  00000	48 8b 8a 40 00
	00 00		 mov	 rcx, QWORD PTR this$[rdx]
  00007	e9 00 00 00 00	 jmp	 ??1_Sentry_base@?$basic_ostream@DU?$char_traits@D@std@@@std@@QEAA@XZ ; std::basic_ostream<char,std::char_traits<char> >::_Sentry_base::~_Sentry_base
?dtor$0@?0???0sentry@?$basic_ostream@DU?$char_traits@D@std@@@std@@QEAA@AEAV12@@Z@4HA ENDP ; `std::basic_ostream<char,std::char_traits<char> >::sentry::sentry'::`1'::dtor$0
text$x	ENDS
; Function compile flags: /Ogtpy
;	COMDAT text$x
text$x	SEGMENT
$T1 = 32
this$ = 64
_Ostr$ = 72
?dtor$0@?0???0sentry@?$basic_ostream@DU?$char_traits@D@std@@@std@@QEAA@AEAV12@@Z@4HA PROC ; `std::basic_ostream<char,std::char_traits<char> >::sentry::sentry'::`1'::dtor$0
  00000	48 8b 8a 40 00
	00 00		 mov	 rcx, QWORD PTR this$[rdx]
  00007	e9 00 00 00 00	 jmp	 ??1_Sentry_base@?$basic_ostream@DU?$char_traits@D@std@@@std@@QEAA@XZ ; std::basic_ostream<char,std::char_traits<char> >::_Sentry_base::~_Sentry_base
?dtor$0@?0???0sentry@?$basic_ostream@DU?$char_traits@D@std@@@std@@QEAA@AEAV12@@Z@4HA ENDP ; `std::basic_ostream<char,std::char_traits<char> >::sentry::sentry'::`1'::dtor$0
text$x	ENDS
; Function compile flags: /Ogtpy
; File c:\users\alist_000\cppmisc\packages\visualcpptools.14.0.24629\lib\native\include\vector
;	COMDAT ??0?$_Vector_val@U?$_Simple_types@Vthread@std@@@std@@@std@@QEAA@XZ
_TEXT	SEGMENT
this$ = 8
??0?$_Vector_val@U?$_Simple_types@Vthread@std@@@std@@@std@@QEAA@XZ PROC ; std::_Vector_val<std::_Simple_types<std::thread> >::_Vector_val<std::_Simple_types<std::thread> >, COMDAT

; 478  : 		: _Myfirst(),

  00000	33 c0		 xor	 eax, eax
  00002	48 89 01	 mov	 QWORD PTR [rcx], rax

; 479  : 		_Mylast(),

  00005	48 89 41 08	 mov	 QWORD PTR [rcx+8], rax

; 480  : 		_Myend()

  00009	48 89 41 10	 mov	 QWORD PTR [rcx+16], rax

; 482  : 		}

  0000d	48 8b c1	 mov	 rax, rcx
  00010	c3		 ret	 0
??0?$_Vector_val@U?$_Simple_types@Vthread@std@@@std@@@std@@QEAA@XZ ENDP ; std::_Vector_val<std::_Simple_types<std::thread> >::_Vector_val<std::_Simple_types<std::thread> >
_TEXT	ENDS
; Function compile flags: /Ogtpy
; File c:\users\alist_000\cppmisc\packages\visualcpptools.14.0.24629\lib\native\include\xmemory0
;	COMDAT ??0?$_Wrap_alloc@V?$allocator@Vthread@std@@@std@@@std@@QEAA@XZ
_TEXT	SEGMENT
this$ = 8
??0?$_Wrap_alloc@V?$allocator@Vthread@std@@@std@@@std@@QEAA@XZ PROC ; std::_Wrap_alloc<std::allocator<std::thread> >::_Wrap_alloc<std::allocator<std::thread> >, COMDAT

; 1031 : 		}

  00000	48 8b c1	 mov	 rax, rcx
  00003	c3		 ret	 0
??0?$_Wrap_alloc@V?$allocator@Vthread@std@@@std@@@std@@QEAA@XZ ENDP ; std::_Wrap_alloc<std::allocator<std::thread> >::_Wrap_alloc<std::allocator<std::thread> >
_TEXT	ENDS
; Function compile flags: /Ogtpy
; File c:\users\alist_000\cppmisc\packages\visualcpptools.14.0.24629\lib\native\include\vector
;	COMDAT ?_Calculate_growth@?$vector@Vthread@std@@V?$allocator@Vthread@std@@@2@@std@@AEBA_K_K@Z
_TEXT	SEGMENT
this$ = 8
_Newsize$ = 16
?_Calculate_growth@?$vector@Vthread@std@@V?$allocator@Vthread@std@@@2@@std@@AEBA_K_K@Z PROC ; std::vector<std::thread,std::allocator<std::thread> >::_Calculate_growth, COMDAT

; 1694 : 		return (this->_Myend() - this->_Myfirst());

  00000	4c 8b 41 10	 mov	 r8, QWORD PTR [rcx+16]

; 1864 : 		const size_type _Oldcapacity = capacity();
; 1865 : 
; 1866 : 		if (_Oldcapacity > max_size() - _Oldcapacity / 2)

  00004	48 b8 ff ff ff
	ff ff ff ff 0f	 mov	 rax, 1152921504606846975 ; 0fffffffffffffffH

; 1694 : 		return (this->_Myend() - this->_Myfirst());

  0000e	4c 2b 01	 sub	 r8, QWORD PTR [rcx]
  00011	49 c1 f8 04	 sar	 r8, 4

; 1864 : 		const size_type _Oldcapacity = capacity();
; 1865 : 
; 1866 : 		if (_Oldcapacity > max_size() - _Oldcapacity / 2)

  00015	49 8b c8	 mov	 rcx, r8
  00018	48 d1 e9	 shr	 rcx, 1
  0001b	48 2b c1	 sub	 rax, rcx
  0001e	4c 3b c0	 cmp	 r8, rax
  00021	76 04		 jbe	 SHORT $LN2@Calculate_

; 1867 : 			{
; 1868 : 			return (_Newsize);	// geometric growth would overflow

  00023	48 8b c2	 mov	 rax, rdx

; 1874 : 			{
; 1875 : 			return (_Newsize);	// geometric growth would be insufficient
; 1876 : 			}
; 1877 : 
; 1878 : 		return (_Geometric);	// geometric growth is sufficient
; 1879 : 		}

  00026	c3		 ret	 0
$LN2@Calculate_:

; 1869 : 			}
; 1870 : 
; 1871 : 		const size_type _Geometric = _Oldcapacity + _Oldcapacity / 2;

  00027	4a 8d 04 01	 lea	 rax, QWORD PTR [rcx+r8]

; 1872 : 
; 1873 : 		if (_Geometric < _Newsize)

  0002b	48 3b c2	 cmp	 rax, rdx
  0002e	48 0f 42 c2	 cmovb	 rax, rdx

; 1874 : 			{
; 1875 : 			return (_Newsize);	// geometric growth would be insufficient
; 1876 : 			}
; 1877 : 
; 1878 : 		return (_Geometric);	// geometric growth is sufficient
; 1879 : 		}

  00032	c3		 ret	 0
?_Calculate_growth@?$vector@Vthread@std@@V?$allocator@Vthread@std@@@2@@std@@AEBA_K_K@Z ENDP ; std::vector<std::thread,std::allocator<std::thread> >::_Calculate_growth
_TEXT	ENDS
; Function compile flags: /Ogtpy
; File c:\users\alist_000\cppmisc\packages\visualcpptools.14.0.24629\lib\native\include\vector
;	COMDAT ?_Has_unused_capacity@?$vector@Vthread@std@@V?$allocator@Vthread@std@@@2@@std@@AEBA_NXZ
_TEXT	SEGMENT
this$ = 8
?_Has_unused_capacity@?$vector@Vthread@std@@V?$allocator@Vthread@std@@@2@@std@@AEBA_NXZ PROC ; std::vector<std::thread,std::allocator<std::thread> >::_Has_unused_capacity, COMDAT

; 1704 : 		{	// micro-optimization for capacity() != size()

  00000	48 8b 41 08	 mov	 rax, QWORD PTR [rcx+8]
  00004	48 39 41 10	 cmp	 QWORD PTR [rcx+16], rax
  00008	0f 95 c0	 setne	 al

; 1705 : 		return (this->_Myend() != this->_Mylast());
; 1706 : 		}

  0000b	c3		 ret	 0
?_Has_unused_capacity@?$vector@Vthread@std@@V?$allocator@Vthread@std@@@2@@std@@AEBA_NXZ ENDP ; std::vector<std::thread,std::allocator<std::thread> >::_Has_unused_capacity
_TEXT	ENDS
; Function compile flags: /Ogtpy
; File c:\users\alist_000\cppmisc\packages\visualcpptools.14.0.24629\lib\native\include\xstring
;	COMDAT ??0?$_String_val@U?$_Simple_types@D@std@@@std@@QEAA@XZ
_TEXT	SEGMENT
this$ = 8
??0?$_String_val@U?$_Simple_types@D@std@@@std@@QEAA@XZ PROC ; std::_String_val<std::_Simple_types<char> >::_String_val<std::_Simple_types<char> >, COMDAT

; 1606 : 		_Mysize(0),

  00000	33 c0		 xor	 eax, eax
  00002	48 89 41 10	 mov	 QWORD PTR [rcx+16], rax

; 1607 : 		_Myres(0)

  00006	48 89 41 18	 mov	 QWORD PTR [rcx+24], rax

; 1609 : 		}

  0000a	48 8b c1	 mov	 rax, rcx
  0000d	c3		 ret	 0
??0?$_String_val@U?$_Simple_types@D@std@@@std@@QEAA@XZ ENDP ; std::_String_val<std::_Simple_types<char> >::_String_val<std::_Simple_types<char> >
_TEXT	ENDS
; Function compile flags: /Ogtpy
; File c:\users\alist_000\cppmisc\packages\visualcpptools.14.0.24629\lib\native\include\xmemory0
;	COMDAT ??0?$_Wrap_alloc@V?$allocator@D@std@@@std@@QEAA@XZ
_TEXT	SEGMENT
this$ = 8
??0?$_Wrap_alloc@V?$allocator@D@std@@@std@@QEAA@XZ PROC	; std::_Wrap_alloc<std::allocator<char> >::_Wrap_alloc<std::allocator<char> >, COMDAT

; 1031 : 		}

  00000	48 8b c1	 mov	 rax, rcx
  00003	c3		 ret	 0
??0?$_Wrap_alloc@V?$allocator@D@std@@@std@@QEAA@XZ ENDP	; std::_Wrap_alloc<std::allocator<char> >::_Wrap_alloc<std::allocator<char> >
_TEXT	ENDS
; Function compile flags: /Ogtpy
; File c:\users\alist_000\cppmisc\packages\visualcpptools.14.0.24629\lib\native\include\streambuf
;	COMDAT ?sputn@?$basic_streambuf@DU?$char_traits@D@std@@@std@@QEAA_JPEBD_J@Z
_TEXT	SEGMENT
this$ = 8
_Ptr$ = 16
_Count$ = 24
?sputn@?$basic_streambuf@DU?$char_traits@D@std@@@std@@QEAA_JPEBD_J@Z PROC ; std::basic_streambuf<char,std::char_traits<char> >::sputn, COMDAT

; 208  : 		return (xsputn(_Ptr, _Count));

  00000	48 8b 01	 mov	 rax, QWORD PTR [rcx]
  00003	48 ff 60 48	 rex_jmp QWORD PTR [rax+72]
?sputn@?$basic_streambuf@DU?$char_traits@D@std@@@std@@QEAA_JPEBD_J@Z ENDP ; std::basic_streambuf<char,std::char_traits<char> >::sputn
_TEXT	ENDS
; Function compile flags: /Ogtpy
; File c:\users\alist_000\cppmisc\packages\visualcpptools.14.0.24629\lib\native\include\streambuf
; File c:\users\alist_000\cppmisc\packages\visualcpptools.14.0.24629\lib\native\include\iosfwd
; File c:\users\alist_000\cppmisc\packages\visualcpptools.14.0.24629\lib\native\include\streambuf
; File c:\users\alist_000\cppmisc\packages\visualcpptools.14.0.24629\lib\native\include\iosfwd
; File c:\users\alist_000\cppmisc\packages\visualcpptools.14.0.24629\lib\native\include\streambuf
;	COMDAT ?sputc@?$basic_streambuf@DU?$char_traits@D@std@@@std@@QEAAHD@Z
_TEXT	SEGMENT
this$ = 8
_Ch$ = 16
?sputc@?$basic_streambuf@DU?$char_traits@D@std@@@std@@QEAAHD@Z PROC ; std::basic_streambuf<char,std::char_traits<char> >::sputc, COMDAT

; 314  : 		return (*_IPnext != 0 ? *_IPcount : 0);

  00000	48 8b 41 40	 mov	 rax, QWORD PTR [rcx+64]

; 199  : 		{	// put a character

  00004	44 0f b6 c2	 movzx	 r8d, dl

; 314  : 		return (*_IPnext != 0 ? *_IPcount : 0);

  00008	48 83 38 00	 cmp	 QWORD PTR [rax], 0
  0000c	74 24		 je	 SHORT $LN3@sputc
  0000e	48 8b 51 58	 mov	 rdx, QWORD PTR [rcx+88]
  00012	8b 02		 mov	 eax, DWORD PTR [rdx]

; 200  : 		return (0 < _Pnavail()

  00014	85 c0		 test	 eax, eax
  00016	7e 1a		 jle	 SHORT $LN3@sputc

; 308  : 		--*_IPcount;

  00018	ff c8		 dec	 eax
  0001a	89 02		 mov	 DWORD PTR [rdx], eax

; 309  : 		return ((*_IPnext)++);

  0001c	48 8b 49 40	 mov	 rcx, QWORD PTR [rcx+64]
  00020	48 8b 11	 mov	 rdx, QWORD PTR [rcx]
  00023	48 8d 42 01	 lea	 rax, QWORD PTR [rdx+1]
  00027	48 89 01	 mov	 QWORD PTR [rcx], rax

; 200  : 		return (0 < _Pnavail()

  0002a	44 88 02	 mov	 BYTE PTR [rdx], r8b
; File c:\users\alist_000\cppmisc\packages\visualcpptools.14.0.24629\lib\native\include\iosfwd

; 536  : 		return ((unsigned char)_Ch);

  0002d	41 0f b6 c0	 movzx	 eax, r8b
; File c:\users\alist_000\cppmisc\packages\visualcpptools.14.0.24629\lib\native\include\streambuf

; 203  : 		}

  00031	c3		 ret	 0
$LN3@sputc:

; 200  : 		return (0 < _Pnavail()

  00032	48 8b 01	 mov	 rax, QWORD PTR [rcx]
; File c:\users\alist_000\cppmisc\packages\visualcpptools.14.0.24629\lib\native\include\iosfwd

; 536  : 		return ((unsigned char)_Ch);

  00035	41 0f b6 d0	 movzx	 edx, r8b
; File c:\users\alist_000\cppmisc\packages\visualcpptools.14.0.24629\lib\native\include\streambuf

; 200  : 		return (0 < _Pnavail()

  00039	48 ff 60 18	 rex_jmp QWORD PTR [rax+24]
?sputc@?$basic_streambuf@DU?$char_traits@D@std@@@std@@QEAAHD@Z ENDP ; std::basic_streambuf<char,std::char_traits<char> >::sputc
_TEXT	ENDS
; Function compile flags: /Ogtpy
; File c:\users\alist_000\cppmisc\packages\visualcpptools.14.0.24629\lib\native\include\ios
;	COMDAT ?fill@?$basic_ios@DU?$char_traits@D@std@@@std@@QEBADXZ
_TEXT	SEGMENT
this$ = 8
?fill@?$basic_ios@DU?$char_traits@D@std@@@std@@QEBADXZ PROC ; std::basic_ios<char,std::char_traits<char> >::fill, COMDAT

; 113  : 		return (_Fillch);

  00000	0f b6 41 58	 movzx	 eax, BYTE PTR [rcx+88]

; 114  : 		}

  00004	c3		 ret	 0
?fill@?$basic_ios@DU?$char_traits@D@std@@@std@@QEBADXZ ENDP ; std::basic_ios<char,std::char_traits<char> >::fill
_TEXT	ENDS
; Function compile flags: /Ogtpy
; File c:\users\alist_000\cppmisc\packages\visualcpptools.14.0.24629\lib\native\include\ios
;	COMDAT ?rdbuf@?$basic_ios@DU?$char_traits@D@std@@@std@@QEBAPEAV?$basic_streambuf@DU?$char_traits@D@std@@@2@XZ
_TEXT	SEGMENT
this$ = 8
?rdbuf@?$basic_ios@DU?$char_traits@D@std@@@std@@QEBAPEAV?$basic_streambuf@DU?$char_traits@D@std@@@2@XZ PROC ; std::basic_ios<char,std::char_traits<char> >::rdbuf, COMDAT

; 92   : 		return (_Mystrbuf);

  00000	48 8b 41 48	 mov	 rax, QWORD PTR [rcx+72]

; 93   : 		}

  00004	c3		 ret	 0
?rdbuf@?$basic_ios@DU?$char_traits@D@std@@@std@@QEBAPEAV?$basic_streambuf@DU?$char_traits@D@std@@@2@XZ ENDP ; std::basic_ios<char,std::char_traits<char> >::rdbuf
_TEXT	ENDS
; Function compile flags: /Ogtpy
; File c:\users\alist_000\cppmisc\packages\visualcpptools.14.0.24629\lib\native\include\ios
;	COMDAT ?setstate@?$basic_ios@DU?$char_traits@D@std@@@std@@QEAAXH_N@Z
_TEXT	SEGMENT
this$ = 8
_State$ = 16
_Reraise$ = 24
?setstate@?$basic_ios@DU?$char_traits@D@std@@@std@@QEAAXH_N@Z PROC ; std::basic_ios<char,std::char_traits<char> >::setstate, COMDAT

; 59   : 		if (_State != goodbit)

  00000	85 d2		 test	 edx, edx
  00002	74 17		 je	 SHORT $LN2@setstate

; 60   : 			clear((iostate)((int)rdstate() | (int)_State), _Reraise);

  00004	8b 41 10	 mov	 eax, DWORD PTR [rcx+16]
  00007	0b c2		 or	 eax, edx
  00009	8b d0		 mov	 edx, eax
  0000b	83 ca 04	 or	 edx, 4
  0000e	48 83 79 48 00	 cmp	 QWORD PTR [rcx+72], 0
  00013	0f 45 d0	 cmovne	 edx, eax

; 45   : 		ios_base::clear((iostate)(_Mystrbuf == 0

  00016	e9 00 00 00 00	 jmp	 ?clear@ios_base@std@@QEAAXH_N@Z ; std::ios_base::clear
$LN2@setstate:

; 61   : 		}

  0001b	c3		 ret	 0
?setstate@?$basic_ios@DU?$char_traits@D@std@@@std@@QEAAXH_N@Z ENDP ; std::basic_ios<char,std::char_traits<char> >::setstate
_TEXT	ENDS
; Function compile flags: /Ogtpy
; File c:\users\alist_000\cppmisc\packages\visualcpptools.14.0.24629\lib\native\include\ostream
;	COMDAT ??1_Sentry_base@?$basic_ostream@DU?$char_traits@D@std@@@std@@QEAA@XZ
_TEXT	SEGMENT
$T1 = 32
this$ = 64
??1_Sentry_base@?$basic_ostream@DU?$char_traits@D@std@@@std@@QEAA@XZ PROC ; std::basic_ostream<char,std::char_traits<char> >::_Sentry_base::~_Sentry_base, COMDAT

; 106  : 			{	// destroy after unlocking

$LN8:
  00000	48 83 ec 38	 sub	 rsp, 56			; 00000038H
  00004	48 c7 44 24 20
	fe ff ff ff	 mov	 QWORD PTR $T1[rsp], -2

; 107  : 			if (_Myostr.rdbuf() != 0)

  0000d	48 8b 11	 mov	 rdx, QWORD PTR [rcx]
  00010	48 8b 02	 mov	 rax, QWORD PTR [rdx]
  00013	48 63 48 04	 movsxd	 rcx, DWORD PTR [rax+4]
  00017	48 8b 4c 11 48	 mov	 rcx, QWORD PTR [rcx+rdx+72]
  0001c	48 85 c9	 test	 rcx, rcx
  0001f	74 07		 je	 SHORT $LN2@Sentry_bas

; 108  : 				_Myostr.rdbuf()->_Unlock();

  00021	48 8b 01	 mov	 rax, QWORD PTR [rcx]
  00024	ff 50 10	 call	 QWORD PTR [rax+16]
  00027	90		 npad	 1
$LN2@Sentry_bas:

; 109  : 			}

  00028	48 83 c4 38	 add	 rsp, 56			; 00000038H
  0002c	c3		 ret	 0
??1_Sentry_base@?$basic_ostream@DU?$char_traits@D@std@@@std@@QEAA@XZ ENDP ; std::basic_ostream<char,std::char_traits<char> >::_Sentry_base::~_Sentry_base
_TEXT	ENDS
; Function compile flags: /Ogtpy
; File c:\users\alist_000\cppmisc\packages\visualcpptools.14.0.24629\lib\native\include\ostream
;	COMDAT ??0_Sentry_base@?$basic_ostream@DU?$char_traits@D@std@@@std@@QEAA@AEAV12@@Z
_TEXT	SEGMENT
this$ = 48
_Ostr$ = 56
??0_Sentry_base@?$basic_ostream@DU?$char_traits@D@std@@@std@@QEAA@AEAV12@@Z PROC ; std::basic_ostream<char,std::char_traits<char> >::_Sentry_base::_Sentry_base, COMDAT

; 100  : 			{	// lock the stream buffer, if there

$LN10:
  00000	40 53		 push	 rbx
  00002	48 83 ec 20	 sub	 rsp, 32			; 00000020H

; 99   : 			: _Myostr(_Ostr)

  00006	48 89 11	 mov	 QWORD PTR [rcx], rdx

; 100  : 			{	// lock the stream buffer, if there

  00009	48 8b d9	 mov	 rbx, rcx

; 101  : 			if (_Myostr.rdbuf() != 0)

  0000c	48 8b 02	 mov	 rax, QWORD PTR [rdx]
  0000f	4c 63 40 04	 movsxd	 r8, DWORD PTR [rax+4]
  00013	49 8b 4c 10 48	 mov	 rcx, QWORD PTR [r8+rdx+72]
  00018	48 85 c9	 test	 rcx, rcx
  0001b	74 06		 je	 SHORT $LN8@Sentry_bas

; 102  : 				_Myostr.rdbuf()->_Lock();

  0001d	48 8b 01	 mov	 rax, QWORD PTR [rcx]
  00020	ff 50 08	 call	 QWORD PTR [rax+8]
$LN8@Sentry_bas:

; 103  : 			}

  00023	48 8b c3	 mov	 rax, rbx
  00026	48 83 c4 20	 add	 rsp, 32			; 00000020H
  0002a	5b		 pop	 rbx
  0002b	c3		 ret	 0
??0_Sentry_base@?$basic_ostream@DU?$char_traits@D@std@@@std@@QEAA@AEAV12@@Z ENDP ; std::basic_ostream<char,std::char_traits<char> >::_Sentry_base::_Sentry_base
_TEXT	ENDS
; Function compile flags: /Ogtpy
; File c:\users\alist_000\cppmisc\packages\visualcpptools.14.0.24629\lib\native\include\xmemory0
;	COMDAT ??0?$allocator@Vthread@std@@@std@@QEAA@XZ
_TEXT	SEGMENT
this$ = 8
??0?$allocator@Vthread@std@@@std@@QEAA@XZ PROC		; std::allocator<std::thread>::allocator<std::thread>, COMDAT

; 796  : 		{	// construct default allocator (do nothing)
; 797  : 		}

  00000	48 8b c1	 mov	 rax, rcx
  00003	c3		 ret	 0
??0?$allocator@Vthread@std@@@std@@QEAA@XZ ENDP		; std::allocator<std::thread>::allocator<std::thread>
_TEXT	ENDS
; Function compile flags: /Ogtpy
; File c:\users\alist_000\cppmisc\packages\visualcpptools.14.0.24629\lib\native\include\xstring
;	COMDAT ??0_Bxty@?$_String_val@U?$_Simple_types@D@std@@@std@@QEAA@XZ
_TEXT	SEGMENT
this$ = 8
??0_Bxty@?$_String_val@U?$_Simple_types@D@std@@@std@@QEAA@XZ PROC ; std::_String_val<std::_Simple_types<char> >::_Bxty::_Bxty, COMDAT

; 1644 : 			{	// user-provided, for fancy pointers
; 1645 : 			}

  00000	48 8b c1	 mov	 rax, rcx
  00003	c3		 ret	 0
??0_Bxty@?$_String_val@U?$_Simple_types@D@std@@@std@@QEAA@XZ ENDP ; std::_String_val<std::_Simple_types<char> >::_Bxty::_Bxty
_TEXT	ENDS
; Function compile flags: /Ogtpy
; File c:\users\alist_000\cppmisc\packages\visualcpptools.14.0.24629\lib\native\include\xmemory0
;	COMDAT ??0?$allocator@D@std@@QEAA@XZ
_TEXT	SEGMENT
this$ = 8
??0?$allocator@D@std@@QEAA@XZ PROC			; std::allocator<char>::allocator<char>, COMDAT

; 796  : 		{	// construct default allocator (do nothing)
; 797  : 		}

  00000	48 8b c1	 mov	 rax, rcx
  00003	c3		 ret	 0
??0?$allocator@D@std@@QEAA@XZ ENDP			; std::allocator<char>::allocator<char>
_TEXT	ENDS
; Function compile flags: /Ogtpy
; File c:\users\alist_000\cppmisc\packages\visualcpptools.14.0.24629\lib\native\include\ostream
; File c:\users\alist_000\cppmisc\packages\visualcpptools.14.0.24629\lib\native\include\ios
; File c:\users\alist_000\cppmisc\packages\visualcpptools.14.0.24629\lib\native\include\streambuf
; File c:\users\alist_000\cppmisc\packages\visualcpptools.14.0.24629\lib\native\include\ostream
; File c:\users\alist_000\cppmisc\packages\visualcpptools.14.0.24629\lib\native\include\ios
; File c:\users\alist_000\cppmisc\packages\visualcpptools.14.0.24629\lib\native\include\xiosbase
; File c:\users\alist_000\cppmisc\packages\visualcpptools.14.0.24629\lib\native\include\ostream
; File c:\users\alist_000\cppmisc\packages\visualcpptools.14.0.24629\lib\native\include\ios
; File c:\users\alist_000\cppmisc\packages\visualcpptools.14.0.24629\lib\native\include\ostream
;	COMDAT ?flush@?$basic_ostream@DU?$char_traits@D@std@@@std@@QEAAAEAV12@XZ
_TEXT	SEGMENT
$T1 = 32
_Ok$2 = 40
$T3 = 56
$T4 = 72
$T5 = 72
$T6 = 72
this$ = 128
?flush@?$basic_ostream@DU?$char_traits@D@std@@@std@@QEAAAEAV12@XZ PROC ; std::basic_ostream<char,std::char_traits<char> >::flush, COMDAT

; 567  : 		{	// flush output stream

$LN74:
  00000	40 53		 push	 rbx
  00002	48 83 ec 70	 sub	 rsp, 112		; 00000070H
  00006	48 c7 44 24 20
	fe ff ff ff	 mov	 QWORD PTR $T1[rsp], -2
  0000f	48 8b d9	 mov	 rbx, rcx

; 568  : 		if (_Myios::rdbuf() != 0)

  00012	48 8b 01	 mov	 rax, QWORD PTR [rcx]
  00015	48 63 50 04	 movsxd	 rdx, DWORD PTR [rax+4]
  00019	48 83 7c 0a 48
	00		 cmp	 QWORD PTR [rdx+rcx+72], 0
  0001f	0f 84 25 01 00
	00		 je	 $LN63@flush

; 569  : 			{	// buffer exists, flush it
; 570  : 			const sentry _Ok(*this);

  00025	48 8b d1	 mov	 rdx, rcx
  00028	48 8d 4c 24 28	 lea	 rcx, QWORD PTR _Ok$2[rsp]
  0002d	e8 00 00 00 00	 call	 ??0sentry@?$basic_ostream@DU?$char_traits@D@std@@@std@@QEAA@AEAV12@@Z ; std::basic_ostream<char,std::char_traits<char> >::sentry::sentry
  00032	90		 npad	 1

; 572  : 			if (_Ok && _Myios::rdbuf()->pubsync() == -1)

  00033	80 7c 24 30 00	 cmp	 BYTE PTR _Ok$2[rsp+8], 0
  00038	0f 84 db 00 00
	00		 je	 $LN56@flush
  0003e	48 8b 03	 mov	 rax, QWORD PTR [rbx]
  00041	48 63 48 04	 movsxd	 rcx, DWORD PTR [rax+4]
; File c:\users\alist_000\cppmisc\packages\visualcpptools.14.0.24629\lib\native\include\ios

; 92   : 		return (_Mystrbuf);

  00045	48 8b 4c 19 48	 mov	 rcx, QWORD PTR [rcx+rbx+72]
; File c:\users\alist_000\cppmisc\packages\visualcpptools.14.0.24629\lib\native\include\streambuf

; 145  : 		return (sync());

  0004a	48 8b 01	 mov	 rax, QWORD PTR [rcx]
  0004d	ff 50 68	 call	 QWORD PTR [rax+104]
; File c:\users\alist_000\cppmisc\packages\visualcpptools.14.0.24629\lib\native\include\ostream

; 572  : 			if (_Ok && _Myios::rdbuf()->pubsync() == -1)

  00050	83 f8 ff	 cmp	 eax, -1
  00053	0f 85 c0 00 00
	00		 jne	 $LN56@flush

; 573  : 				_Myios::setstate(ios_base::badbit);	// sync failed

  00059	48 8b 03	 mov	 rax, QWORD PTR [rbx]
  0005c	48 63 50 04	 movsxd	 rdx, DWORD PTR [rax+4]
  00060	48 03 d3	 add	 rdx, rbx
; File c:\users\alist_000\cppmisc\packages\visualcpptools.14.0.24629\lib\native\include\ios

; 60   : 			clear((iostate)((int)rdstate() | (int)_State), _Reraise);

  00063	8b 4a 10	 mov	 ecx, DWORD PTR [rdx+16]
  00066	83 c9 04	 or	 ecx, 4
  00069	48 83 7a 48 00	 cmp	 QWORD PTR [rdx+72], 0
  0006e	0f 45 4a 10	 cmovne	 ecx, DWORD PTR [rdx+16]
; File c:\users\alist_000\cppmisc\packages\visualcpptools.14.0.24629\lib\native\include\xiosbase

; 288  : 		_Mystate = (iostate)(_State & _Statmask);

  00072	83 e1 13	 and	 ecx, 19
  00075	83 c9 04	 or	 ecx, 4
  00078	89 4a 10	 mov	 DWORD PTR [rdx+16], ecx

; 289  : 		if ((_Mystate & _Except) == 0)

  0007b	8b 42 14	 mov	 eax, DWORD PTR [rdx+20]
  0007e	23 c1		 and	 eax, ecx
  00080	0f 84 93 00 00
	00		 je	 $LN56@flush

; 294  : 			_THROW_NCEE(failure, "ios_base::badbit set");

  00086	ba 01 00 00 00	 mov	 edx, 1
  0008b	48 8d 4c 24 38	 lea	 rcx, QWORD PTR $T3[rsp]

; 290  : 			;
; 291  : 		else if (_Reraise)
; 292  : 			_RERAISE;
; 293  : 		else if (_Mystate & _Except & badbit)

  00090	a8 04		 test	 al, 4
  00092	74 2b		 je	 SHORT $LN53@flush

; 294  : 			_THROW_NCEE(failure, "ios_base::badbit set");

  00094	e8 00 00 00 00	 call	 ?make_error_code@std@@YA?AVerror_code@1@W4io_errc@1@@Z ; std::make_error_code
  00099	4c 8b c0	 mov	 r8, rax
  0009c	48 8d 15 00 00
	00 00		 lea	 rdx, OFFSET FLAT:??_C@_0BF@PHHKMMFD@ios_base?3?3badbit?5set?$AA@
  000a3	48 8d 4c 24 48	 lea	 rcx, QWORD PTR $T6[rsp]
  000a8	e8 00 00 00 00	 call	 ??0failure@ios_base@std@@QEAA@PEBDAEBVerror_code@2@@Z ; std::ios_base::failure::failure
  000ad	48 8d 15 00 00
	00 00		 lea	 rdx, OFFSET FLAT:_TI5?AVfailure@ios_base@std@@
  000b4	48 8d 4c 24 48	 lea	 rcx, QWORD PTR $T6[rsp]
  000b9	e8 00 00 00 00	 call	 _CxxThrowException
  000be	cc		 int	 3
$LN53@flush:

; 295  : 		else if (_Mystate & _Except & failbit)

  000bf	a8 02		 test	 al, 2
  000c1	74 2b		 je	 SHORT $LN55@flush

; 296  : 			_THROW_NCEE(failure, "ios_base::failbit set");

  000c3	e8 00 00 00 00	 call	 ?make_error_code@std@@YA?AVerror_code@1@W4io_errc@1@@Z ; std::make_error_code
  000c8	4c 8b c0	 mov	 r8, rax
  000cb	48 8d 15 00 00
	00 00		 lea	 rdx, OFFSET FLAT:??_C@_0BG@FMKFHCIL@ios_base?3?3failbit?5set?$AA@
  000d2	48 8d 4c 24 48	 lea	 rcx, QWORD PTR $T5[rsp]
  000d7	e8 00 00 00 00	 call	 ??0failure@ios_base@std@@QEAA@PEBDAEBVerror_code@2@@Z ; std::ios_base::failure::failure
  000dc	48 8d 15 00 00
	00 00		 lea	 rdx, OFFSET FLAT:_TI5?AVfailure@ios_base@std@@
  000e3	48 8d 4c 24 48	 lea	 rcx, QWORD PTR $T5[rsp]
  000e8	e8 00 00 00 00	 call	 _CxxThrowException
  000ed	cc		 int	 3
$LN55@flush:

; 297  : 		else
; 298  : 			_THROW_NCEE(failure, "ios_base::eofbit set");

  000ee	e8 00 00 00 00	 call	 ?make_error_code@std@@YA?AVerror_code@1@W4io_errc@1@@Z ; std::make_error_code
  000f3	4c 8b c0	 mov	 r8, rax
  000f6	48 8d 15 00 00
	00 00		 lea	 rdx, OFFSET FLAT:??_C@_0BF@OOHOMBOF@ios_base?3?3eofbit?5set?$AA@
  000fd	48 8d 4c 24 48	 lea	 rcx, QWORD PTR $T4[rsp]
  00102	e8 00 00 00 00	 call	 ??0failure@ios_base@std@@QEAA@PEBDAEBVerror_code@2@@Z ; std::ios_base::failure::failure
  00107	48 8d 15 00 00
	00 00		 lea	 rdx, OFFSET FLAT:_TI5?AVfailure@ios_base@std@@
  0010e	48 8d 4c 24 48	 lea	 rcx, QWORD PTR $T4[rsp]
  00113	e8 00 00 00 00	 call	 _CxxThrowException
  00118	90		 npad	 1
$LN56@flush:
; File c:\users\alist_000\cppmisc\packages\visualcpptools.14.0.24629\lib\native\include\ostream

; 132  : 			if (!_STD uncaught_exception())

  00119	e8 00 00 00 00	 call	 ?uncaught_exception@std@@YA_NXZ ; std::uncaught_exception
  0011e	84 c0		 test	 al, al
  00120	75 0b		 jne	 SHORT $LN62@flush

; 133  : 				this->_Myostr._Osfx();

  00122	48 8b 4c 24 28	 mov	 rcx, QWORD PTR _Ok$2[rsp]
  00127	e8 00 00 00 00	 call	 ?_Osfx@?$basic_ostream@DU?$char_traits@D@std@@@std@@QEAAXXZ ; std::basic_ostream<char,std::char_traits<char> >::_Osfx
  0012c	90		 npad	 1
$LN62@flush:

; 107  : 			if (_Myostr.rdbuf() != 0)

  0012d	48 8b 54 24 28	 mov	 rdx, QWORD PTR _Ok$2[rsp]
  00132	48 8b 02	 mov	 rax, QWORD PTR [rdx]
  00135	48 63 48 04	 movsxd	 rcx, DWORD PTR [rax+4]
; File c:\users\alist_000\cppmisc\packages\visualcpptools.14.0.24629\lib\native\include\ios

; 92   : 		return (_Mystrbuf);

  00139	48 8b 4c 11 48	 mov	 rcx, QWORD PTR [rcx+rdx+72]
; File c:\users\alist_000\cppmisc\packages\visualcpptools.14.0.24629\lib\native\include\ostream

; 107  : 			if (_Myostr.rdbuf() != 0)

  0013e	48 85 c9	 test	 rcx, rcx
  00141	74 07		 je	 SHORT $LN66@flush

; 108  : 				_Myostr.rdbuf()->_Unlock();

  00143	48 8b 01	 mov	 rax, QWORD PTR [rcx]
  00146	ff 50 10	 call	 QWORD PTR [rax+16]
  00149	90		 npad	 1
$LN66@flush:
$LN63@flush:

; 574  : 			}
; 575  : 		return (*this);

  0014a	48 8b c3	 mov	 rax, rbx

; 576  : 		}

  0014d	48 83 c4 70	 add	 rsp, 112		; 00000070H
  00151	5b		 pop	 rbx
  00152	c3		 ret	 0
$LN73@flush:
?flush@?$basic_ostream@DU?$char_traits@D@std@@@std@@QEAAAEAV12@XZ ENDP ; std::basic_ostream<char,std::char_traits<char> >::flush
_TEXT	ENDS
;	COMDAT text$x
text$x	SEGMENT
$T1 = 32
_Ok$2 = 40
$T3 = 56
$T4 = 72
$T5 = 72
$T6 = 72
this$ = 128
?dtor$0@?0??flush@?$basic_ostream@DU?$char_traits@D@std@@@std@@QEAAAEAV12@XZ@4HA PROC ; `std::basic_ostream<char,std::char_traits<char> >::flush'::`1'::dtor$0
  00000	48 8d 8a 28 00
	00 00		 lea	 rcx, QWORD PTR _Ok$2[rdx]
  00007	e9 00 00 00 00	 jmp	 ??1sentry@?$basic_ostream@DU?$char_traits@D@std@@@std@@QEAA@XZ ; std::basic_ostream<char,std::char_traits<char> >::sentry::~sentry
?dtor$0@?0??flush@?$basic_ostream@DU?$char_traits@D@std@@@std@@QEAAAEAV12@XZ@4HA ENDP ; `std::basic_ostream<char,std::char_traits<char> >::flush'::`1'::dtor$0
text$x	ENDS
; Function compile flags: /Ogtpy
;	COMDAT text$x
text$x	SEGMENT
$T1 = 32
_Ok$2 = 40
$T3 = 56
$T4 = 72
$T5 = 72
$T6 = 72
this$ = 128
?dtor$0@?0??flush@?$basic_ostream@DU?$char_traits@D@std@@@std@@QEAAAEAV12@XZ@4HA PROC ; `std::basic_ostream<char,std::char_traits<char> >::flush'::`1'::dtor$0
  00000	48 8d 8a 28 00
	00 00		 lea	 rcx, QWORD PTR _Ok$2[rdx]
  00007	e9 00 00 00 00	 jmp	 ??1sentry@?$basic_ostream@DU?$char_traits@D@std@@@std@@QEAA@XZ ; std::basic_ostream<char,std::char_traits<char> >::sentry::~sentry
?dtor$0@?0??flush@?$basic_ostream@DU?$char_traits@D@std@@@std@@QEAAAEAV12@XZ@4HA ENDP ; `std::basic_ostream<char,std::char_traits<char> >::flush'::`1'::dtor$0
text$x	ENDS
; Function compile flags: /Ogtpy
; File c:\users\alist_000\cppmisc\packages\visualcpptools.14.0.24629\lib\native\include\ostream
; File c:\users\alist_000\cppmisc\packages\visualcpptools.14.0.24629\lib\native\include\xiosbase
; File c:\users\alist_000\cppmisc\packages\visualcpptools.14.0.24629\lib\native\include\ostream
; File c:\users\alist_000\cppmisc\packages\visualcpptools.14.0.24629\lib\native\include\ios
; File c:\users\alist_000\cppmisc\packages\visualcpptools.14.0.24629\lib\native\include\streambuf
; File c:\users\alist_000\cppmisc\packages\visualcpptools.14.0.24629\lib\native\include\ostream
; File c:\users\alist_000\cppmisc\packages\visualcpptools.14.0.24629\lib\native\include\ios
; File c:\users\alist_000\cppmisc\packages\visualcpptools.14.0.24629\lib\native\include\xiosbase
; File c:\users\alist_000\cppmisc\packages\visualcpptools.14.0.24629\lib\native\include\ostream
;	COMDAT ?_Osfx@?$basic_ostream@DU?$char_traits@D@std@@@std@@QEAAXXZ
_TEXT	SEGMENT
$T1 = 32
$T2 = 48
$T3 = 56
$T4 = 96
$T5 = 136
this$ = 192
?_Osfx@?$basic_ostream@DU?$char_traits@D@std@@@std@@QEAAXXZ PROC ; std::basic_ostream<char,std::char_traits<char> >::_Osfx, COMDAT

; 165  : 		{	// perform any wrapup

$LN44:
  00000	40 53		 push	 rbx
  00002	48 81 ec b0 00
	00 00		 sub	 rsp, 176		; 000000b0H
  00009	48 c7 44 24 30
	fe ff ff ff	 mov	 QWORD PTR $T2[rsp], -2
  00012	48 8b d9	 mov	 rbx, rcx

; 167  : 		if (this->good() && this->flags() & ios_base::unitbuf)

  00015	48 8b 01	 mov	 rax, QWORD PTR [rcx]
  00018	48 63 50 04	 movsxd	 rdx, DWORD PTR [rax+4]
; File c:\users\alist_000\cppmisc\packages\visualcpptools.14.0.24629\lib\native\include\xiosbase

; 339  : 		return (rdstate() == goodbit);

  0001c	83 7c 0a 10 00	 cmp	 DWORD PTR [rdx+rcx+16], 0
; File c:\users\alist_000\cppmisc\packages\visualcpptools.14.0.24629\lib\native\include\ostream

; 167  : 		if (this->good() && this->flags() & ios_base::unitbuf)

  00021	0f 85 e3 00 00
	00		 jne	 $LN37@Osfx
  00027	f6 44 0a 18 02	 test	 BYTE PTR [rdx+rcx+24], 2
  0002c	0f 84 d8 00 00
	00		 je	 $LN37@Osfx
; File c:\users\alist_000\cppmisc\packages\visualcpptools.14.0.24629\lib\native\include\ios

; 92   : 		return (_Mystrbuf);

  00032	48 8b 4c 0a 48	 mov	 rcx, QWORD PTR [rdx+rcx+72]
; File c:\users\alist_000\cppmisc\packages\visualcpptools.14.0.24629\lib\native\include\streambuf

; 145  : 		return (sync());

  00037	48 8b 01	 mov	 rax, QWORD PTR [rcx]
  0003a	ff 50 68	 call	 QWORD PTR [rax+104]
; File c:\users\alist_000\cppmisc\packages\visualcpptools.14.0.24629\lib\native\include\ostream

; 168  : 			if (_Myios::rdbuf()->pubsync() == -1)	// flush stream as needed

  0003d	83 f8 ff	 cmp	 eax, -1
  00040	0f 85 c4 00 00
	00		 jne	 $LN37@Osfx

; 169  : 				_Myios::setstate(ios_base::badbit);

  00046	48 8b 03	 mov	 rax, QWORD PTR [rbx]
  00049	48 63 50 04	 movsxd	 rdx, DWORD PTR [rax+4]
  0004d	48 03 d3	 add	 rdx, rbx
; File c:\users\alist_000\cppmisc\packages\visualcpptools.14.0.24629\lib\native\include\ios

; 60   : 			clear((iostate)((int)rdstate() | (int)_State), _Reraise);

  00050	8b 4a 10	 mov	 ecx, DWORD PTR [rdx+16]
  00053	83 c9 04	 or	 ecx, 4
  00056	48 83 7a 48 00	 cmp	 QWORD PTR [rdx+72], 0
  0005b	0f 45 4a 10	 cmovne	 ecx, DWORD PTR [rdx+16]
; File c:\users\alist_000\cppmisc\packages\visualcpptools.14.0.24629\lib\native\include\xiosbase

; 288  : 		_Mystate = (iostate)(_State & _Statmask);

  0005f	83 e1 13	 and	 ecx, 19
  00062	83 c9 04	 or	 ecx, 4
  00065	89 4a 10	 mov	 DWORD PTR [rdx+16], ecx

; 289  : 		if ((_Mystate & _Except) == 0)

  00068	8b 42 14	 mov	 eax, DWORD PTR [rdx+20]
  0006b	23 c1		 and	 eax, ecx
  0006d	0f 84 97 00 00
	00		 je	 $LN37@Osfx

; 294  : 			_THROW_NCEE(failure, "ios_base::badbit set");

  00073	ba 01 00 00 00	 mov	 edx, 1
  00078	48 8d 4c 24 20	 lea	 rcx, QWORD PTR $T1[rsp]

; 290  : 			;
; 291  : 		else if (_Reraise)
; 292  : 			_RERAISE;
; 293  : 		else if (_Mystate & _Except & badbit)

  0007d	a8 04		 test	 al, 4
  0007f	74 2a		 je	 SHORT $LN34@Osfx

; 294  : 			_THROW_NCEE(failure, "ios_base::badbit set");

  00081	e8 00 00 00 00	 call	 ?make_error_code@std@@YA?AVerror_code@1@W4io_errc@1@@Z ; std::make_error_code
  00086	4c 8b c0	 mov	 r8, rax
  00089	48 8d 15 00 00
	00 00		 lea	 rdx, OFFSET FLAT:??_C@_0BF@PHHKMMFD@ios_base?3?3badbit?5set?$AA@
  00090	48 8d 4c 24 38	 lea	 rcx, QWORD PTR $T3[rsp]
  00095	e8 00 00 00 00	 call	 ??0failure@ios_base@std@@QEAA@PEBDAEBVerror_code@2@@Z ; std::ios_base::failure::failure
  0009a	48 8d 15 00 00
	00 00		 lea	 rdx, OFFSET FLAT:_TI5?AVfailure@ios_base@std@@
  000a1	48 8d 4c 24 38	 lea	 rcx, QWORD PTR $T3[rsp]
  000a6	e8 00 00 00 00	 call	 _CxxThrowException
$LN34@Osfx:

; 295  : 		else if (_Mystate & _Except & failbit)

  000ab	a8 02		 test	 al, 2
  000ad	74 2a		 je	 SHORT $LN36@Osfx

; 296  : 			_THROW_NCEE(failure, "ios_base::failbit set");

  000af	e8 00 00 00 00	 call	 ?make_error_code@std@@YA?AVerror_code@1@W4io_errc@1@@Z ; std::make_error_code
  000b4	4c 8b c0	 mov	 r8, rax
  000b7	48 8d 15 00 00
	00 00		 lea	 rdx, OFFSET FLAT:??_C@_0BG@FMKFHCIL@ios_base?3?3failbit?5set?$AA@
  000be	48 8d 4c 24 60	 lea	 rcx, QWORD PTR $T4[rsp]
  000c3	e8 00 00 00 00	 call	 ??0failure@ios_base@std@@QEAA@PEBDAEBVerror_code@2@@Z ; std::ios_base::failure::failure
  000c8	48 8d 15 00 00
	00 00		 lea	 rdx, OFFSET FLAT:_TI5?AVfailure@ios_base@std@@
  000cf	48 8d 4c 24 60	 lea	 rcx, QWORD PTR $T4[rsp]
  000d4	e8 00 00 00 00	 call	 _CxxThrowException
$LN36@Osfx:

; 297  : 		else
; 298  : 			_THROW_NCEE(failure, "ios_base::eofbit set");

  000d9	e8 00 00 00 00	 call	 ?make_error_code@std@@YA?AVerror_code@1@W4io_errc@1@@Z ; std::make_error_code
  000de	4c 8b c0	 mov	 r8, rax
  000e1	48 8d 15 00 00
	00 00		 lea	 rdx, OFFSET FLAT:??_C@_0BF@OOHOMBOF@ios_base?3?3eofbit?5set?$AA@
  000e8	48 8d 8c 24 88
	00 00 00	 lea	 rcx, QWORD PTR $T5[rsp]
  000f0	e8 00 00 00 00	 call	 ??0failure@ios_base@std@@QEAA@PEBDAEBVerror_code@2@@Z ; std::ios_base::failure::failure
  000f5	48 8d 15 00 00
	00 00		 lea	 rdx, OFFSET FLAT:_TI5?AVfailure@ios_base@std@@
  000fc	48 8d 8c 24 88
	00 00 00	 lea	 rcx, QWORD PTR $T5[rsp]
  00104	e8 00 00 00 00	 call	 _CxxThrowException
  00109	90		 npad	 1
$LN37@Osfx:
$LN9@Osfx:
; File c:\users\alist_000\cppmisc\packages\visualcpptools.14.0.24629\lib\native\include\ostream

; 172  : 		}

  0010a	48 81 c4 b0 00
	00 00		 add	 rsp, 176		; 000000b0H
  00111	5b		 pop	 rbx
  00112	c3		 ret	 0
$LN42@Osfx:
?_Osfx@?$basic_ostream@DU?$char_traits@D@std@@@std@@QEAAXXZ ENDP ; std::basic_ostream<char,std::char_traits<char> >::_Osfx
_TEXT	ENDS
;	COMDAT text$x
text$x	SEGMENT
$T1 = 32
$T2 = 48
$T3 = 56
$T4 = 96
$T5 = 136
this$ = 192
?catch$0@?0??_Osfx@?$basic_ostream@DU?$char_traits@D@std@@@std@@QEAAXXZ@4HA PROC ; `std::basic_ostream<char,std::char_traits<char> >::_Osfx'::`1'::catch$0

; 170  : 		_CATCH_ALL

  00000	48 89 54 24 10	 mov	 QWORD PTR [rsp+16], rdx
  00005	55		 push	 rbp
  00006	48 83 ec 20	 sub	 rsp, 32			; 00000020H
  0000a	48 8b ea	 mov	 rbp, rdx
__catch$?_Osfx@?$basic_ostream@DU?$char_traits@D@std@@@std@@QEAAXXZ$0:

; 170  : 		_CATCH_ALL
; 171  : 		_CATCH_END

  0000d	48 8d 05 00 00
	00 00		 lea	 rax, $LN9@catch$0
  00014	48 83 c4 20	 add	 rsp, 32			; 00000020H
  00018	5d		 pop	 rbp
  00019	c3		 ret	 0
  0001a	cc		 int	 3
?catch$0@?0??_Osfx@?$basic_ostream@DU?$char_traits@D@std@@@std@@QEAAXXZ@4HA ENDP ; `std::basic_ostream<char,std::char_traits<char> >::_Osfx'::`1'::catch$0
text$x	ENDS
; Function compile flags: /Ogtpy
;	COMDAT text$x
text$x	SEGMENT
$T1 = 32
$T2 = 48
$T3 = 56
$T4 = 96
$T5 = 136
this$ = 192
?catch$0@?0??_Osfx@?$basic_ostream@DU?$char_traits@D@std@@@std@@QEAAXXZ@4HA PROC ; `std::basic_ostream<char,std::char_traits<char> >::_Osfx'::`1'::catch$0

; 170  : 		_CATCH_ALL

  00000	48 89 54 24 10	 mov	 QWORD PTR [rsp+16], rdx
  00005	55		 push	 rbp
  00006	48 83 ec 20	 sub	 rsp, 32			; 00000020H
  0000a	48 8b ea	 mov	 rbp, rdx
__catch$?_Osfx@?$basic_ostream@DU?$char_traits@D@std@@@std@@QEAAXXZ$0:

; 171  : 		_CATCH_END

  0000d	48 8d 05 00 00
	00 00		 lea	 rax, $LN9@catch$0
  00014	48 83 c4 20	 add	 rsp, 32			; 00000020H
  00018	5d		 pop	 rbp
  00019	c3		 ret	 0
  0001a	cc		 int	 3
?catch$0@?0??_Osfx@?$basic_ostream@DU?$char_traits@D@std@@@std@@QEAAXXZ@4HA ENDP ; `std::basic_ostream<char,std::char_traits<char> >::_Osfx'::`1'::catch$0
text$x	ENDS
; Function compile flags: /Ogtpy
; File c:\users\alist_000\cppmisc\packages\visualcpptools.14.0.24629\lib\native\include\streambuf
;	COMDAT ?_Pnavail@?$basic_streambuf@DU?$char_traits@D@std@@@std@@IEBA_JXZ
_TEXT	SEGMENT
this$ = 8
?_Pnavail@?$basic_streambuf@DU?$char_traits@D@std@@@std@@IEBA_JXZ PROC ; std::basic_streambuf<char,std::char_traits<char> >::_Pnavail, COMDAT

; 314  : 		return (*_IPnext != 0 ? *_IPcount : 0);

  00000	48 8b 41 40	 mov	 rax, QWORD PTR [rcx+64]
  00004	48 83 38 00	 cmp	 QWORD PTR [rax], 0
  00008	74 08		 je	 SHORT $LN3@Pnavail
  0000a	48 8b 41 58	 mov	 rax, QWORD PTR [rcx+88]
  0000e	48 63 00	 movsxd	 rax, DWORD PTR [rax]

; 315  : 		}

  00011	c3		 ret	 0
$LN3@Pnavail:

; 314  : 		return (*_IPnext != 0 ? *_IPcount : 0);

  00012	33 c0		 xor	 eax, eax
  00014	48 98		 cdqe

; 315  : 		}

  00016	c3		 ret	 0
?_Pnavail@?$basic_streambuf@DU?$char_traits@D@std@@@std@@IEBA_JXZ ENDP ; std::basic_streambuf<char,std::char_traits<char> >::_Pnavail
_TEXT	ENDS
; Function compile flags: /Ogtpy
; File c:\users\alist_000\cppmisc\packages\visualcpptools.14.0.24629\lib\native\include\streambuf
;	COMDAT ?_Pninc@?$basic_streambuf@DU?$char_traits@D@std@@@std@@IEAAPEADXZ
_TEXT	SEGMENT
this$ = 8
?_Pninc@?$basic_streambuf@DU?$char_traits@D@std@@@std@@IEAAPEADXZ PROC ; std::basic_streambuf<char,std::char_traits<char> >::_Pninc, COMDAT

; 308  : 		--*_IPcount;

  00000	48 8b 41 58	 mov	 rax, QWORD PTR [rcx+88]
  00004	ff 08		 dec	 DWORD PTR [rax]

; 309  : 		return ((*_IPnext)++);

  00006	48 8b 51 40	 mov	 rdx, QWORD PTR [rcx+64]
  0000a	48 8b 02	 mov	 rax, QWORD PTR [rdx]
  0000d	48 8d 48 01	 lea	 rcx, QWORD PTR [rax+1]
  00011	48 89 0a	 mov	 QWORD PTR [rdx], rcx

; 310  : 		}

  00014	c3		 ret	 0
?_Pninc@?$basic_streambuf@DU?$char_traits@D@std@@@std@@IEAAPEADXZ ENDP ; std::basic_streambuf<char,std::char_traits<char> >::_Pninc
_TEXT	ENDS
; Function compile flags: /Ogtpy
; File c:\users\alist_000\cppmisc\packages\visualcpptools.14.0.24629\lib\native\include\ios
;	COMDAT ?tie@?$basic_ios@DU?$char_traits@D@std@@@std@@QEBAPEAV?$basic_ostream@DU?$char_traits@D@std@@@2@XZ
_TEXT	SEGMENT
this$ = 8
?tie@?$basic_ios@DU?$char_traits@D@std@@@std@@QEBAPEAV?$basic_ostream@DU?$char_traits@D@std@@@2@XZ PROC ; std::basic_ios<char,std::char_traits<char> >::tie, COMDAT

; 80   : 		return (_Tiestr);

  00000	48 8b 41 50	 mov	 rax, QWORD PTR [rcx+80]

; 81   : 		}

  00004	c3		 ret	 0
?tie@?$basic_ios@DU?$char_traits@D@std@@@std@@QEBAPEAV?$basic_ostream@DU?$char_traits@D@std@@@2@XZ ENDP ; std::basic_ios<char,std::char_traits<char> >::tie
_TEXT	ENDS
; Function compile flags: /Ogtpy
; File c:\users\alist_000\cppmisc\packages\visualcpptools.14.0.24629\lib\native\include\ios
;	COMDAT ?clear@?$basic_ios@DU?$char_traits@D@std@@@std@@QEAAXH_N@Z
_TEXT	SEGMENT
this$ = 8
_State$ = 16
_Reraise$ = 24
?clear@?$basic_ios@DU?$char_traits@D@std@@@std@@QEAAXH_N@Z PROC ; std::basic_ios<char,std::char_traits<char> >::clear, COMDAT

; 44   : 		{	// set state, possibly reraise exception

  00000	8b c2		 mov	 eax, edx
  00002	83 ca 04	 or	 edx, 4
  00005	48 83 79 48 00	 cmp	 QWORD PTR [rcx+72], 0
  0000a	0f 45 d0	 cmovne	 edx, eax

; 45   : 		ios_base::clear((iostate)(_Mystrbuf == 0

  0000d	e9 00 00 00 00	 jmp	 ?clear@ios_base@std@@QEAAXH_N@Z ; std::ios_base::clear
?clear@?$basic_ios@DU?$char_traits@D@std@@@std@@QEAAXH_N@Z ENDP ; std::basic_ios<char,std::char_traits<char> >::clear
_TEXT	ENDS
; Function compile flags: /Ogtpy
; File c:\users\alist_000\cppmisc\packages\visualcpptools.14.0.24629\lib\native\include\streambuf
;	COMDAT ?pubsync@?$basic_streambuf@DU?$char_traits@D@std@@@std@@QEAAHXZ
_TEXT	SEGMENT
this$ = 8
?pubsync@?$basic_streambuf@DU?$char_traits@D@std@@@std@@QEAAHXZ PROC ; std::basic_streambuf<char,std::char_traits<char> >::pubsync, COMDAT

; 145  : 		return (sync());

  00000	48 8b 01	 mov	 rax, QWORD PTR [rcx]
  00003	48 ff 60 68	 rex_jmp QWORD PTR [rax+104]
?pubsync@?$basic_streambuf@DU?$char_traits@D@std@@@std@@QEAAHXZ ENDP ; std::basic_streambuf<char,std::char_traits<char> >::pubsync
_TEXT	ENDS
; Function compile flags: /Ogtpy
; File c:\users\alist_000\cppmisc\packages\visualcpptools.14.0.24629\lib\native\include\chrono
;	COMDAT ??$_To_xtime@HU?$ratio@$0OBA@$00@std@@@std@@YA?AUxtime@@AEBV?$duration@HU?$ratio@$0OBA@$00@std@@@chrono@0@@Z
_TEXT	SEGMENT
$T1 = 48
_Rel_time$ = 56
??$_To_xtime@HU?$ratio@$0OBA@$00@std@@@std@@YA?AUxtime@@AEBV?$duration@HU?$ratio@$0OBA@$00@std@@@chrono@0@@Z PROC ; std::_To_xtime<int,std::ratio<3600,1> >, COMDAT

; 1013 : 	{	// convert duration to xtime

$LN144:
  00000	48 89 5c 24 08	 mov	 QWORD PTR [rsp+8], rbx
  00005	57		 push	 rdi
  00006	48 83 ec 20	 sub	 rsp, 32			; 00000020H

; 507  : 	return (_CT(_Left).count() < _CT(_Right).count());

  0000a	83 3a 00	 cmp	 DWORD PTR [rdx], 0

; 1013 : 	{	// convert duration to xtime

  0000d	48 8b fa	 mov	 rdi, rdx
  00010	48 8b d9	 mov	 rbx, rcx

; 1014 : 	xtime _Xt;
; 1015 : 	if (_Rel_time <= chrono::duration<_Rep, _Period>::zero())

  00013	7f 16		 jg	 SHORT $LN2@To_xtime

; 1016 : 		{	// negative or zero relative time, return zero
; 1017 : 		_Xt.sec = 0;

  00015	33 c0		 xor	 eax, eax
  00017	48 89 01	 mov	 QWORD PTR [rcx], rax

; 1018 : 		_Xt.nsec = 0;

  0001a	89 41 08	 mov	 DWORD PTR [rcx+8], eax

; 1026 : 		_T0 -= chrono::seconds(_Xt.sec);
; 1027 : 		_Xt.nsec = (long)_T0.count();
; 1028 : 		}
; 1029 : 	return (_Xt);

  0001d	48 8b c1	 mov	 rax, rcx

; 1030 : 	}

  00020	48 8b 5c 24 30	 mov	 rbx, QWORD PTR [rsp+48]
  00025	48 83 c4 20	 add	 rsp, 32			; 00000020H
  00029	5f		 pop	 rdi
  0002a	c3		 ret	 0
$LN2@To_xtime:

; 972  : 		return (time_point(duration(_Xtime_get_ticks())));

  0002b	e8 00 00 00 00	 call	 _Xtime_get_ticks

; 554  : 	return (_CF::num == 1 && _CF::den == 1

  00030	4c 63 07	 movsxd	 r8, DWORD PTR [rdi]
  00033	48 ba 00 a0 b8
	30 46 03 00 00	 mov	 rdx, 3600000000000	; 0000034630b8a000H
  0003d	48 6b c8 64	 imul	 rcx, rax, 100		; 00000064H
  00041	4c 0f af c2	 imul	 r8, rdx
  00045	48 b8 b3 94 d6
	26 e8 0b 2e 11	 mov	 rax, 1237940039285380275 ; 112e0be826d694b3H

; 170  : 		_MyRep += _Right._MyRep;

  0004f	4c 03 c1	 add	 r8, rcx

; 554  : 	return (_CF::num == 1 && _CF::den == 1

  00052	49 f7 e8	 imul	 r8
  00055	48 c1 fa 1a	 sar	 rdx, 26
  00059	48 8b c2	 mov	 rax, rdx
  0005c	48 c1 e8 3f	 shr	 rax, 63			; 0000003fH
  00060	48 03 d0	 add	 rdx, rax
  00063	48 69 c2 00 ca
	9a 3b		 imul	 rax, rdx, 1000000000	; 3b9aca00H

; 1019 : 		}
; 1020 : 	else
; 1021 : 		{	// positive relative time, convert
; 1022 : 		chrono::nanoseconds _T0 =
; 1023 : 			chrono::system_clock::now().time_since_epoch();
; 1024 : 		_T0 += chrono::duration_cast<chrono::nanoseconds>(_Rel_time);
; 1025 : 		_Xt.sec = chrono::duration_cast<chrono::seconds>(_T0).count();

  0006a	48 89 13	 mov	 QWORD PTR [rbx], rdx

; 176  : 		_MyRep -= _Right._MyRep;

  0006d	44 2b c0	 sub	 r8d, eax

; 1026 : 		_T0 -= chrono::seconds(_Xt.sec);
; 1027 : 		_Xt.nsec = (long)_T0.count();
; 1028 : 		}
; 1029 : 	return (_Xt);

  00070	48 8b c3	 mov	 rax, rbx
  00073	44 89 43 08	 mov	 DWORD PTR [rbx+8], r8d

; 1030 : 	}

  00077	48 8b 5c 24 30	 mov	 rbx, QWORD PTR [rsp+48]
  0007c	48 83 c4 20	 add	 rsp, 32			; 00000020H
  00080	5f		 pop	 rdi
  00081	c3		 ret	 0
??$_To_xtime@HU?$ratio@$0OBA@$00@std@@@std@@YA?AUxtime@@AEBV?$duration@HU?$ratio@$0OBA@$00@std@@@chrono@0@@Z ENDP ; std::_To_xtime<int,std::ratio<3600,1> >
_TEXT	ENDS
; Function compile flags: /Ogtpy
; File c:\users\alist_000\cppmisc\packages\visualcpptools.14.0.24629\lib\native\include\type_traits
;	COMDAT ??$forward@V<lambda_e77d7e1e559843f44c4e0b6d970cdb28>@@@std@@YA$$QEAV<lambda_e77d7e1e559843f44c4e0b6d970cdb28>@@AEAV1@@Z
_TEXT	SEGMENT
_Arg$ = 8
??$forward@V<lambda_e77d7e1e559843f44c4e0b6d970cdb28>@@@std@@YA$$QEAV<lambda_e77d7e1e559843f44c4e0b6d970cdb28>@@AEAV1@@Z PROC ; std::forward<<lambda_e77d7e1e559843f44c4e0b6d970cdb28> >, COMDAT

; 1330 : 	return (static_cast<_Ty&&>(_Arg));

  00000	48 8b c1	 mov	 rax, rcx

; 1331 : 	}

  00003	c3		 ret	 0
??$forward@V<lambda_e77d7e1e559843f44c4e0b6d970cdb28>@@@std@@YA$$QEAV<lambda_e77d7e1e559843f44c4e0b6d970cdb28>@@AEAV1@@Z ENDP ; std::forward<<lambda_e77d7e1e559843f44c4e0b6d970cdb28> >
_TEXT	ENDS
; Function compile flags: /Ogtpy
; File c:\users\alist_000\cppmisc\packages\visualcpptools.14.0.24629\lib\native\include\vector
; File c:\users\alist_000\cppmisc\packages\visualcpptools.14.0.24629\lib\native\include\xstddef
; File c:\users\alist_000\cppmisc\packages\visualcpptools.14.0.24629\lib\native\include\xmemory0
; File c:\users\alist_000\cppmisc\packages\visualcpptools.14.0.24629\lib\native\include\thread
; File c:\users\alist_000\cppmisc\packages\visualcpptools.14.0.24629\lib\native\include\memory
; File c:\users\alist_000\cppmisc\packages\visualcpptools.14.0.24629\lib\native\include\vector
;	COMDAT ??$_Emplace_back_with_unused_capacity@V<lambda_e77d7e1e559843f44c4e0b6d970cdb28>@@@?$vector@Vthread@std@@V?$allocator@Vthread@std@@@2@@std@@AEAAX$$QEAV<lambda_e77d7e1e559843f44c4e0b6d970cdb28>@@@Z
_TEXT	SEGMENT
$T1 = 32
$T2 = 64
this$ = 64
<_Val_0>$dead$ = 72
$T3 = 72
$T4 = 80
??$_Emplace_back_with_unused_capacity@V<lambda_e77d7e1e559843f44c4e0b6d970cdb28>@@@?$vector@Vthread@std@@V?$allocator@Vthread@std@@@2@@std@@AEAAX$$QEAV<lambda_e77d7e1e559843f44c4e0b6d970cdb28>@@@Z PROC ; std::vector<std::thread,std::allocator<std::thread> >::_Emplace_back_with_unused_capacity<<lambda_e77d7e1e559843f44c4e0b6d970cdb28> >, COMDAT

; 875  : 		{	// insert by perfectly forwarding into element at end, provide strong guarantee

  00000	48 89 54 24 10	 mov	 QWORD PTR [rsp+16], rdx
  00005	57		 push	 rdi
  00006	48 83 ec 30	 sub	 rsp, 48			; 00000030H
  0000a	48 c7 44 24 20
	fe ff ff ff	 mov	 QWORD PTR $T1[rsp], -2
  00013	48 89 5c 24 58	 mov	 QWORD PTR [rsp+88], rbx
  00018	48 8b d9	 mov	 rbx, rcx
; File c:\users\alist_000\cppmisc\packages\visualcpptools.14.0.24629\lib\native\include\xstddef

; 642  : 	return (_Ptr);

  0001b	48 8b 79 08	 mov	 rdi, QWORD PTR [rcx+8]
  0001f	48 89 7c 24 40	 mov	 QWORD PTR $T2[rsp], rdi
; File c:\users\alist_000\cppmisc\packages\visualcpptools.14.0.24629\lib\native\include\xmemory0

; 833  : 		::new ((void *)_Ptr) _Objty(_STD forward<_Types>(_Args)...);

  00024	48 89 7c 24 50	 mov	 QWORD PTR $T4[rsp], rdi
  00029	48 85 ff	 test	 rdi, rdi
  0002c	74 2c		 je	 SHORT $LN78@Emplace_ba
; File c:\users\alist_000\cppmisc\packages\visualcpptools.14.0.24629\lib\native\include\thread

; 46   : 		_Launch(&_Thr,

  0002e	48 8d 4c 24 48	 lea	 rcx, QWORD PTR $T3[rsp]
  00033	e8 00 00 00 00	 call	 ??$make_unique@V?$tuple@V<lambda_e77d7e1e559843f44c4e0b6d970cdb28>@@@std@@V<lambda_e77d7e1e559843f44c4e0b6d970cdb28>@@@std@@YA?AV?$unique_ptr@V?$tuple@V<lambda_e77d7e1e559843f44c4e0b6d970cdb28>@@@std@@U?$default_delete@V?$tuple@V<lambda_e77d7e1e559843f44c4e0b6d970cdb28>@@@std@@@2@@0@$$QEAV<lambda_e77d7e1e559843f44c4e0b6d970cdb28>@@@Z ; std::make_unique<std::tuple<<lambda_e77d7e1e559843f44c4e0b6d970cdb28> >,<lambda_e77d7e1e559843f44c4e0b6d970cdb28> >
  00038	90		 npad	 1
  00039	48 8b d0	 mov	 rdx, rax
  0003c	48 8b cf	 mov	 rcx, rdi
  0003f	e8 00 00 00 00	 call	 ??$_Launch@V?$unique_ptr@V?$tuple@V<lambda_e77d7e1e559843f44c4e0b6d970cdb28>@@@std@@U?$default_delete@V?$tuple@V<lambda_e77d7e1e559843f44c4e0b6d970cdb28>@@@std@@@2@@std@@@std@@YAXPEAU_Thrd_imp_t@@$$QEAV?$unique_ptr@V?$tuple@V<lambda_e77d7e1e559843f44c4e0b6d970cdb28>@@@std@@U?$default_delete@V?$tuple@V<lambda_e77d7e1e559843f44c4e0b6d970cdb28>@@@std@@@2@@0@@Z ; std::_Launch<std::unique_ptr<std::tuple<<lambda_e77d7e1e559843f44c4e0b6d970cdb28> >,std::default_delete<std::tuple<<lambda_e77d7e1e559843f44c4e0b6d970cdb28> > > > >
  00044	90		 npad	 1
; File c:\users\alist_000\cppmisc\packages\visualcpptools.14.0.24629\lib\native\include\memory

; 1409 : 		if (get() != pointer())

  00045	48 8b 4c 24 48	 mov	 rcx, QWORD PTR $T3[rsp]
  0004a	48 85 c9	 test	 rcx, rcx
  0004d	74 0b		 je	 SHORT $LN78@Emplace_ba

; 1199 : 		delete _Ptr;

  0004f	ba 01 00 00 00	 mov	 edx, 1
  00054	e8 00 00 00 00	 call	 ??3@YAXPEAX_K@Z		; operator delete
  00059	90		 npad	 1
$LN78@Emplace_ba:
; File c:\users\alist_000\cppmisc\packages\visualcpptools.14.0.24629\lib\native\include\vector

; 879  : 		++this->_Mylast();

  0005a	48 83 43 08 10	 add	 QWORD PTR [rbx+8], 16

; 880  : 		}

  0005f	48 8b 5c 24 58	 mov	 rbx, QWORD PTR [rsp+88]
  00064	48 83 c4 30	 add	 rsp, 48			; 00000030H
  00068	5f		 pop	 rdi
  00069	c3		 ret	 0
??$_Emplace_back_with_unused_capacity@V<lambda_e77d7e1e559843f44c4e0b6d970cdb28>@@@?$vector@Vthread@std@@V?$allocator@Vthread@std@@@2@@std@@AEAAX$$QEAV<lambda_e77d7e1e559843f44c4e0b6d970cdb28>@@@Z ENDP ; std::vector<std::thread,std::allocator<std::thread> >::_Emplace_back_with_unused_capacity<<lambda_e77d7e1e559843f44c4e0b6d970cdb28> >
_TEXT	ENDS
;	COMDAT text$x
text$x	SEGMENT
$T1 = 32
$T2 = 64
this$ = 64
<_Val_0>$dead$ = 72
$T3 = 72
$T4 = 80
?dtor$8@?0???$_Emplace_back_with_unused_capacity@V<lambda_e77d7e1e559843f44c4e0b6d970cdb28>@@@?$vector@Vthread@std@@V?$allocator@Vthread@std@@@2@@std@@AEAAX$$QEAV<lambda_e77d7e1e559843f44c4e0b6d970cdb28>@@@Z@4HA PROC ; `std::vector<std::thread,std::allocator<std::thread> >::_Emplace_back_with_unused_capacity<<lambda_e77d7e1e559843f44c4e0b6d970cdb28> >'::`1'::dtor$8
  00000	40 55		 push	 rbp
  00002	48 83 ec 20	 sub	 rsp, 32			; 00000020H
  00006	48 8b ea	 mov	 rbp, rdx
  00009	48 8b 55 40	 mov	 rdx, QWORD PTR $T2[rbp]
  0000d	48 8b 4d 50	 mov	 rcx, QWORD PTR $T4[rbp]
  00011	e8 00 00 00 00	 call	 ??3@YAXPEAX0@Z		; operator delete
  00016	48 83 c4 20	 add	 rsp, 32			; 00000020H
  0001a	5d		 pop	 rbp
  0001b	c3		 ret	 0
?dtor$8@?0???$_Emplace_back_with_unused_capacity@V<lambda_e77d7e1e559843f44c4e0b6d970cdb28>@@@?$vector@Vthread@std@@V?$allocator@Vthread@std@@@2@@std@@AEAAX$$QEAV<lambda_e77d7e1e559843f44c4e0b6d970cdb28>@@@Z@4HA ENDP ; `std::vector<std::thread,std::allocator<std::thread> >::_Emplace_back_with_unused_capacity<<lambda_e77d7e1e559843f44c4e0b6d970cdb28> >'::`1'::dtor$8
$T1 = 32
$T2 = 64
this$ = 64
<_Val_0>$dead$ = 72
$T3 = 72
$T4 = 80
?dtor$10@?0???$_Emplace_back_with_unused_capacity@V<lambda_e77d7e1e559843f44c4e0b6d970cdb28>@@@?$vector@Vthread@std@@V?$allocator@Vthread@std@@@2@@std@@AEAAX$$QEAV<lambda_e77d7e1e559843f44c4e0b6d970cdb28>@@@Z@4HA PROC ; `std::vector<std::thread,std::allocator<std::thread> >::_Emplace_back_with_unused_capacity<<lambda_e77d7e1e559843f44c4e0b6d970cdb28> >'::`1'::dtor$10
  0001c	48 8d 8a 48 00
	00 00		 lea	 rcx, QWORD PTR $T3[rdx]
  00023	e9 00 00 00 00	 jmp	 ??1?$unique_ptr@V?$tuple@V<lambda_e77d7e1e559843f44c4e0b6d970cdb28>@@@std@@U?$default_delete@V?$tuple@V<lambda_e77d7e1e559843f44c4e0b6d970cdb28>@@@std@@@2@@std@@QEAA@XZ ; std::unique_ptr<std::tuple<<lambda_e77d7e1e559843f44c4e0b6d970cdb28> >,std::default_delete<std::tuple<<lambda_e77d7e1e559843f44c4e0b6d970cdb28> > > >::~unique_ptr<std::tuple<<lambda_e77d7e1e559843f44c4e0b6d970cdb28> >,std::default_delete<std::tuple<<lambda_e77d7e1e559843f44c4e0b6d970cdb28> > > >
?dtor$10@?0???$_Emplace_back_with_unused_capacity@V<lambda_e77d7e1e559843f44c4e0b6d970cdb28>@@@?$vector@Vthread@std@@V?$allocator@Vthread@std@@@2@@std@@AEAAX$$QEAV<lambda_e77d7e1e559843f44c4e0b6d970cdb28>@@@Z@4HA ENDP ; `std::vector<std::thread,std::allocator<std::thread> >::_Emplace_back_with_unused_capacity<<lambda_e77d7e1e559843f44c4e0b6d970cdb28> >'::`1'::dtor$10
text$x	ENDS
; Function compile flags: /Ogtpy
;	COMDAT text$x
text$x	SEGMENT
$T1 = 32
$T2 = 64
this$ = 64
<_Val_0>$dead$ = 72
$T3 = 72
$T4 = 80
?dtor$8@?0???$_Emplace_back_with_unused_capacity@V<lambda_e77d7e1e559843f44c4e0b6d970cdb28>@@@?$vector@Vthread@std@@V?$allocator@Vthread@std@@@2@@std@@AEAAX$$QEAV<lambda_e77d7e1e559843f44c4e0b6d970cdb28>@@@Z@4HA PROC ; `std::vector<std::thread,std::allocator<std::thread> >::_Emplace_back_with_unused_capacity<<lambda_e77d7e1e559843f44c4e0b6d970cdb28> >'::`1'::dtor$8
  00000	40 55		 push	 rbp
  00002	48 83 ec 20	 sub	 rsp, 32			; 00000020H
  00006	48 8b ea	 mov	 rbp, rdx
  00009	48 8b 55 40	 mov	 rdx, QWORD PTR $T2[rbp]
  0000d	48 8b 4d 50	 mov	 rcx, QWORD PTR $T4[rbp]
  00011	e8 00 00 00 00	 call	 ??3@YAXPEAX0@Z		; operator delete
  00016	48 83 c4 20	 add	 rsp, 32			; 00000020H
  0001a	5d		 pop	 rbp
  0001b	c3		 ret	 0
?dtor$8@?0???$_Emplace_back_with_unused_capacity@V<lambda_e77d7e1e559843f44c4e0b6d970cdb28>@@@?$vector@Vthread@std@@V?$allocator@Vthread@std@@@2@@std@@AEAAX$$QEAV<lambda_e77d7e1e559843f44c4e0b6d970cdb28>@@@Z@4HA ENDP ; `std::vector<std::thread,std::allocator<std::thread> >::_Emplace_back_with_unused_capacity<<lambda_e77d7e1e559843f44c4e0b6d970cdb28> >'::`1'::dtor$8
text$x	ENDS
; Function compile flags: /Ogtpy
;	COMDAT text$x
text$x	SEGMENT
$T1 = 32
$T2 = 64
this$ = 64
<_Val_0>$dead$ = 72
$T3 = 72
$T4 = 80
?dtor$10@?0???$_Emplace_back_with_unused_capacity@V<lambda_e77d7e1e559843f44c4e0b6d970cdb28>@@@?$vector@Vthread@std@@V?$allocator@Vthread@std@@@2@@std@@AEAAX$$QEAV<lambda_e77d7e1e559843f44c4e0b6d970cdb28>@@@Z@4HA PROC ; `std::vector<std::thread,std::allocator<std::thread> >::_Emplace_back_with_unused_capacity<<lambda_e77d7e1e559843f44c4e0b6d970cdb28> >'::`1'::dtor$10
  0001c	48 8d 8a 48 00
	00 00		 lea	 rcx, QWORD PTR $T3[rdx]
  00023	e9 00 00 00 00	 jmp	 ??1?$unique_ptr@V?$tuple@V<lambda_e77d7e1e559843f44c4e0b6d970cdb28>@@@std@@U?$default_delete@V?$tuple@V<lambda_e77d7e1e559843f44c4e0b6d970cdb28>@@@std@@@2@@std@@QEAA@XZ ; std::unique_ptr<std::tuple<<lambda_e77d7e1e559843f44c4e0b6d970cdb28> >,std::default_delete<std::tuple<<lambda_e77d7e1e559843f44c4e0b6d970cdb28> > > >::~unique_ptr<std::tuple<<lambda_e77d7e1e559843f44c4e0b6d970cdb28> >,std::default_delete<std::tuple<<lambda_e77d7e1e559843f44c4e0b6d970cdb28> > > >
?dtor$10@?0???$_Emplace_back_with_unused_capacity@V<lambda_e77d7e1e559843f44c4e0b6d970cdb28>@@@?$vector@Vthread@std@@V?$allocator@Vthread@std@@@2@@std@@AEAAX$$QEAV<lambda_e77d7e1e559843f44c4e0b6d970cdb28>@@@Z@4HA ENDP ; `std::vector<std::thread,std::allocator<std::thread> >::_Emplace_back_with_unused_capacity<<lambda_e77d7e1e559843f44c4e0b6d970cdb28> >'::`1'::dtor$10
text$x	ENDS
; Function compile flags: /Ogtpy
; File c:\users\alist_000\cppmisc\packages\visualcpptools.14.0.24629\lib\native\include\xstddef
;	COMDAT ??$_Unfancy@Vthread@std@@@std@@YAPEAVthread@0@PEAV10@@Z
_TEXT	SEGMENT
_Ptr$ = 8
??$_Unfancy@Vthread@std@@@std@@YAPEAVthread@0@PEAV10@@Z PROC ; std::_Unfancy<std::thread>, COMDAT

; 642  : 	return (_Ptr);

  00000	48 8b c1	 mov	 rax, rcx

; 643  : 	}

  00003	c3		 ret	 0
??$_Unfancy@Vthread@std@@@std@@YAPEAVthread@0@PEAV10@@Z ENDP ; std::_Unfancy<std::thread>
_TEXT	ENDS
; Function compile flags: /Ogtpy
; File c:\users\alist_000\cppmisc\packages\visualcpptools.14.0.24629\lib\native\include\xmemory0
; File c:\users\alist_000\cppmisc\packages\visualcpptools.14.0.24629\lib\native\include\thread
; File c:\users\alist_000\cppmisc\packages\visualcpptools.14.0.24629\lib\native\include\memory
; File c:\users\alist_000\cppmisc\packages\visualcpptools.14.0.24629\lib\native\include\xmemory0
;	COMDAT ??$construct@Vthread@std@@V<lambda_e77d7e1e559843f44c4e0b6d970cdb28>@@@?$_Wrap_alloc@V?$allocator@Vthread@std@@@std@@@std@@QEAAXPEAVthread@1@$$QEAV<lambda_e77d7e1e559843f44c4e0b6d970cdb28>@@@Z
_TEXT	SEGMENT
$T1 = 32
$T2 = 64
this$dead$ = 64
_Ptr$ = 72
$T3 = 80
<_Args_0>$dead$ = 80
??$construct@Vthread@std@@V<lambda_e77d7e1e559843f44c4e0b6d970cdb28>@@@?$_Wrap_alloc@V?$allocator@Vthread@std@@@std@@@std@@QEAAXPEAVthread@1@$$QEAV<lambda_e77d7e1e559843f44c4e0b6d970cdb28>@@@Z PROC ; std::_Wrap_alloc<std::allocator<std::thread> >::construct<std::thread,<lambda_e77d7e1e559843f44c4e0b6d970cdb28> >, COMDAT

; 1088 : 		{	// construct _Ty(_Types...) at _Ptr

  00000	4c 89 44 24 18	 mov	 QWORD PTR [rsp+24], r8
  00005	48 89 54 24 10	 mov	 QWORD PTR [rsp+16], rdx
  0000a	48 89 4c 24 08	 mov	 QWORD PTR [rsp+8], rcx
  0000f	53		 push	 rbx
  00010	48 83 ec 30	 sub	 rsp, 48			; 00000030H
  00014	48 c7 44 24 20
	fe ff ff ff	 mov	 QWORD PTR $T1[rsp], -2
  0001d	48 8b da	 mov	 rbx, rdx

; 833  : 		::new ((void *)_Ptr) _Objty(_STD forward<_Types>(_Args)...);

  00020	48 89 54 24 40	 mov	 QWORD PTR $T2[rsp], rdx
  00025	48 85 d2	 test	 rdx, rdx
  00028	74 2c		 je	 SHORT $LN59@construct
; File c:\users\alist_000\cppmisc\packages\visualcpptools.14.0.24629\lib\native\include\thread

; 46   : 		_Launch(&_Thr,

  0002a	48 8d 4c 24 50	 lea	 rcx, QWORD PTR $T3[rsp]
  0002f	e8 00 00 00 00	 call	 ??$make_unique@V?$tuple@V<lambda_e77d7e1e559843f44c4e0b6d970cdb28>@@@std@@V<lambda_e77d7e1e559843f44c4e0b6d970cdb28>@@@std@@YA?AV?$unique_ptr@V?$tuple@V<lambda_e77d7e1e559843f44c4e0b6d970cdb28>@@@std@@U?$default_delete@V?$tuple@V<lambda_e77d7e1e559843f44c4e0b6d970cdb28>@@@std@@@2@@0@$$QEAV<lambda_e77d7e1e559843f44c4e0b6d970cdb28>@@@Z ; std::make_unique<std::tuple<<lambda_e77d7e1e559843f44c4e0b6d970cdb28> >,<lambda_e77d7e1e559843f44c4e0b6d970cdb28> >
  00034	90		 npad	 1
  00035	48 8b d0	 mov	 rdx, rax
  00038	48 8b cb	 mov	 rcx, rbx
  0003b	e8 00 00 00 00	 call	 ??$_Launch@V?$unique_ptr@V?$tuple@V<lambda_e77d7e1e559843f44c4e0b6d970cdb28>@@@std@@U?$default_delete@V?$tuple@V<lambda_e77d7e1e559843f44c4e0b6d970cdb28>@@@std@@@2@@std@@@std@@YAXPEAU_Thrd_imp_t@@$$QEAV?$unique_ptr@V?$tuple@V<lambda_e77d7e1e559843f44c4e0b6d970cdb28>@@@std@@U?$default_delete@V?$tuple@V<lambda_e77d7e1e559843f44c4e0b6d970cdb28>@@@std@@@2@@0@@Z ; std::_Launch<std::unique_ptr<std::tuple<<lambda_e77d7e1e559843f44c4e0b6d970cdb28> >,std::default_delete<std::tuple<<lambda_e77d7e1e559843f44c4e0b6d970cdb28> > > > >
  00040	90		 npad	 1
; File c:\users\alist_000\cppmisc\packages\visualcpptools.14.0.24629\lib\native\include\memory

; 1409 : 		if (get() != pointer())

  00041	48 8b 4c 24 50	 mov	 rcx, QWORD PTR $T3[rsp]
  00046	48 85 c9	 test	 rcx, rcx
  00049	74 0b		 je	 SHORT $LN59@construct

; 1199 : 		delete _Ptr;

  0004b	ba 01 00 00 00	 mov	 edx, 1
  00050	e8 00 00 00 00	 call	 ??3@YAXPEAX_K@Z		; operator delete
  00055	90		 npad	 1
$LN59@construct:
; File c:\users\alist_000\cppmisc\packages\visualcpptools.14.0.24629\lib\native\include\xmemory0

; 1091 : 		}

  00056	48 83 c4 30	 add	 rsp, 48			; 00000030H
  0005a	5b		 pop	 rbx
  0005b	c3		 ret	 0
??$construct@Vthread@std@@V<lambda_e77d7e1e559843f44c4e0b6d970cdb28>@@@?$_Wrap_alloc@V?$allocator@Vthread@std@@@std@@@std@@QEAAXPEAVthread@1@$$QEAV<lambda_e77d7e1e559843f44c4e0b6d970cdb28>@@@Z ENDP ; std::_Wrap_alloc<std::allocator<std::thread> >::construct<std::thread,<lambda_e77d7e1e559843f44c4e0b6d970cdb28> >
_TEXT	ENDS
;	COMDAT text$x
text$x	SEGMENT
$T1 = 32
$T2 = 64
this$dead$ = 64
_Ptr$ = 72
$T3 = 80
<_Args_0>$dead$ = 80
?dtor$2@?0???$construct@Vthread@std@@V<lambda_e77d7e1e559843f44c4e0b6d970cdb28>@@@?$_Wrap_alloc@V?$allocator@Vthread@std@@@std@@@std@@QEAAXPEAVthread@1@$$QEAV<lambda_e77d7e1e559843f44c4e0b6d970cdb28>@@@Z@4HA PROC ; `std::_Wrap_alloc<std::allocator<std::thread> >::construct<std::thread,<lambda_e77d7e1e559843f44c4e0b6d970cdb28> >'::`1'::dtor$2
  00000	40 55		 push	 rbp
  00002	48 83 ec 20	 sub	 rsp, 32			; 00000020H
  00006	48 8b ea	 mov	 rbp, rdx
  00009	48 8b 55 48	 mov	 rdx, QWORD PTR _Ptr$[rbp]
  0000d	48 8b 4d 40	 mov	 rcx, QWORD PTR $T2[rbp]
  00011	e8 00 00 00 00	 call	 ??3@YAXPEAX0@Z		; operator delete
  00016	48 83 c4 20	 add	 rsp, 32			; 00000020H
  0001a	5d		 pop	 rbp
  0001b	c3		 ret	 0
?dtor$2@?0???$construct@Vthread@std@@V<lambda_e77d7e1e559843f44c4e0b6d970cdb28>@@@?$_Wrap_alloc@V?$allocator@Vthread@std@@@std@@@std@@QEAAXPEAVthread@1@$$QEAV<lambda_e77d7e1e559843f44c4e0b6d970cdb28>@@@Z@4HA ENDP ; `std::_Wrap_alloc<std::allocator<std::thread> >::construct<std::thread,<lambda_e77d7e1e559843f44c4e0b6d970cdb28> >'::`1'::dtor$2
$T1 = 32
$T2 = 64
this$dead$ = 64
_Ptr$ = 72
$T3 = 80
<_Args_0>$dead$ = 80
?dtor$4@?0???$construct@Vthread@std@@V<lambda_e77d7e1e559843f44c4e0b6d970cdb28>@@@?$_Wrap_alloc@V?$allocator@Vthread@std@@@std@@@std@@QEAAXPEAVthread@1@$$QEAV<lambda_e77d7e1e559843f44c4e0b6d970cdb28>@@@Z@4HA PROC ; `std::_Wrap_alloc<std::allocator<std::thread> >::construct<std::thread,<lambda_e77d7e1e559843f44c4e0b6d970cdb28> >'::`1'::dtor$4
  0001c	48 8d 8a 50 00
	00 00		 lea	 rcx, QWORD PTR $T3[rdx]
  00023	e9 00 00 00 00	 jmp	 ??1?$unique_ptr@V?$tuple@V<lambda_e77d7e1e559843f44c4e0b6d970cdb28>@@@std@@U?$default_delete@V?$tuple@V<lambda_e77d7e1e559843f44c4e0b6d970cdb28>@@@std@@@2@@std@@QEAA@XZ ; std::unique_ptr<std::tuple<<lambda_e77d7e1e559843f44c4e0b6d970cdb28> >,std::default_delete<std::tuple<<lambda_e77d7e1e559843f44c4e0b6d970cdb28> > > >::~unique_ptr<std::tuple<<lambda_e77d7e1e559843f44c4e0b6d970cdb28> >,std::default_delete<std::tuple<<lambda_e77d7e1e559843f44c4e0b6d970cdb28> > > >
?dtor$4@?0???$construct@Vthread@std@@V<lambda_e77d7e1e559843f44c4e0b6d970cdb28>@@@?$_Wrap_alloc@V?$allocator@Vthread@std@@@std@@@std@@QEAAXPEAVthread@1@$$QEAV<lambda_e77d7e1e559843f44c4e0b6d970cdb28>@@@Z@4HA ENDP ; `std::_Wrap_alloc<std::allocator<std::thread> >::construct<std::thread,<lambda_e77d7e1e559843f44c4e0b6d970cdb28> >'::`1'::dtor$4
text$x	ENDS
; Function compile flags: /Ogtpy
;	COMDAT text$x
text$x	SEGMENT
$T1 = 32
$T2 = 64
this$dead$ = 64
_Ptr$ = 72
$T3 = 80
<_Args_0>$dead$ = 80
?dtor$2@?0???$construct@Vthread@std@@V<lambda_e77d7e1e559843f44c4e0b6d970cdb28>@@@?$_Wrap_alloc@V?$allocator@Vthread@std@@@std@@@std@@QEAAXPEAVthread@1@$$QEAV<lambda_e77d7e1e559843f44c4e0b6d970cdb28>@@@Z@4HA PROC ; `std::_Wrap_alloc<std::allocator<std::thread> >::construct<std::thread,<lambda_e77d7e1e559843f44c4e0b6d970cdb28> >'::`1'::dtor$2
  00000	40 55		 push	 rbp
  00002	48 83 ec 20	 sub	 rsp, 32			; 00000020H
  00006	48 8b ea	 mov	 rbp, rdx
  00009	48 8b 55 48	 mov	 rdx, QWORD PTR _Ptr$[rbp]
  0000d	48 8b 4d 40	 mov	 rcx, QWORD PTR $T2[rbp]
  00011	e8 00 00 00 00	 call	 ??3@YAXPEAX0@Z		; operator delete
  00016	48 83 c4 20	 add	 rsp, 32			; 00000020H
  0001a	5d		 pop	 rbp
  0001b	c3		 ret	 0
?dtor$2@?0???$construct@Vthread@std@@V<lambda_e77d7e1e559843f44c4e0b6d970cdb28>@@@?$_Wrap_alloc@V?$allocator@Vthread@std@@@std@@@std@@QEAAXPEAVthread@1@$$QEAV<lambda_e77d7e1e559843f44c4e0b6d970cdb28>@@@Z@4HA ENDP ; `std::_Wrap_alloc<std::allocator<std::thread> >::construct<std::thread,<lambda_e77d7e1e559843f44c4e0b6d970cdb28> >'::`1'::dtor$2
text$x	ENDS
; Function compile flags: /Ogtpy
;	COMDAT text$x
text$x	SEGMENT
$T1 = 32
$T2 = 64
this$dead$ = 64
_Ptr$ = 72
$T3 = 80
<_Args_0>$dead$ = 80
?dtor$4@?0???$construct@Vthread@std@@V<lambda_e77d7e1e559843f44c4e0b6d970cdb28>@@@?$_Wrap_alloc@V?$allocator@Vthread@std@@@std@@@std@@QEAAXPEAVthread@1@$$QEAV<lambda_e77d7e1e559843f44c4e0b6d970cdb28>@@@Z@4HA PROC ; `std::_Wrap_alloc<std::allocator<std::thread> >::construct<std::thread,<lambda_e77d7e1e559843f44c4e0b6d970cdb28> >'::`1'::dtor$4
  0001c	48 8d 8a 50 00
	00 00		 lea	 rcx, QWORD PTR $T3[rdx]
  00023	e9 00 00 00 00	 jmp	 ??1?$unique_ptr@V?$tuple@V<lambda_e77d7e1e559843f44c4e0b6d970cdb28>@@@std@@U?$default_delete@V?$tuple@V<lambda_e77d7e1e559843f44c4e0b6d970cdb28>@@@std@@@2@@std@@QEAA@XZ ; std::unique_ptr<std::tuple<<lambda_e77d7e1e559843f44c4e0b6d970cdb28> >,std::default_delete<std::tuple<<lambda_e77d7e1e559843f44c4e0b6d970cdb28> > > >::~unique_ptr<std::tuple<<lambda_e77d7e1e559843f44c4e0b6d970cdb28> >,std::default_delete<std::tuple<<lambda_e77d7e1e559843f44c4e0b6d970cdb28> > > >
?dtor$4@?0???$construct@Vthread@std@@V<lambda_e77d7e1e559843f44c4e0b6d970cdb28>@@@?$_Wrap_alloc@V?$allocator@Vthread@std@@@std@@@std@@QEAAXPEAVthread@1@$$QEAV<lambda_e77d7e1e559843f44c4e0b6d970cdb28>@@@Z@4HA ENDP ; `std::_Wrap_alloc<std::allocator<std::thread> >::construct<std::thread,<lambda_e77d7e1e559843f44c4e0b6d970cdb28> >'::`1'::dtor$4
text$x	ENDS
; Function compile flags: /Ogtpy
; File c:\users\alist_000\cppmisc\packages\visualcpptools.14.0.24629\lib\native\include\xmemory0
; File c:\users\alist_000\cppmisc\packages\visualcpptools.14.0.24629\lib\native\include\thread
; File c:\users\alist_000\cppmisc\packages\visualcpptools.14.0.24629\lib\native\include\xmemory0
; File c:\users\alist_000\cppmisc\packages\visualcpptools.14.0.24629\lib\native\include\thread
; File c:\users\alist_000\cppmisc\packages\visualcpptools.14.0.24629\lib\native\include\xmemory0
;	COMDAT ??$destroy@Vthread@std@@@?$_Wrap_alloc@V?$allocator@Vthread@std@@@std@@@std@@QEAAXPEAVthread@1@@Z
_TEXT	SEGMENT
this$dead$ = 48
_Ptr$ = 56
??$destroy@Vthread@std@@@?$_Wrap_alloc@V?$allocator@Vthread@std@@@std@@@std@@QEAAXPEAVthread@1@@Z PROC ; std::_Wrap_alloc<std::allocator<std::thread> >::destroy<std::thread>, COMDAT

; 1095 : 		{	// destroy object at _Ptr

$LN25:
  00000	48 83 ec 28	 sub	 rsp, 40			; 00000028H
; File c:\users\alist_000\cppmisc\packages\visualcpptools.14.0.24629\lib\native\include\thread

; 79   : 		return (!_Thr_is_null(_Thr));

  00004	83 7a 08 00	 cmp	 DWORD PTR [rdx+8], 0

; 54   : 		if (joinable())

  00008	75 05		 jne	 SHORT $LN23@destroy
; File c:\users\alist_000\cppmisc\packages\visualcpptools.14.0.24629\lib\native\include\xmemory0

; 1097 : 		}

  0000a	48 83 c4 28	 add	 rsp, 40			; 00000028H
  0000e	c3		 ret	 0
$LN23@destroy:
; File c:\users\alist_000\cppmisc\packages\visualcpptools.14.0.24629\lib\native\include\thread

; 55   : 			_STD terminate();

  0000f	e8 00 00 00 00	 call	 terminate
  00014	cc		 int	 3
$LN22@destroy:
??$destroy@Vthread@std@@@?$_Wrap_alloc@V?$allocator@Vthread@std@@@std@@@std@@QEAAXPEAVthread@1@@Z ENDP ; std::_Wrap_alloc<std::allocator<std::thread> >::destroy<std::thread>
_TEXT	ENDS
; Function compile flags: /Ogtpy
; File c:\users\alist_000\cppmisc\packages\visualcpptools.14.0.24629\lib\native\include\type_traits
;	COMDAT ??$forward@U?$_Wrap_alloc@V?$allocator@D@std@@@std@@@std@@YA$$QEAU?$_Wrap_alloc@V?$allocator@D@std@@@0@AEAU10@@Z
_TEXT	SEGMENT
_Arg$ = 8
??$forward@U?$_Wrap_alloc@V?$allocator@D@std@@@std@@@std@@YA$$QEAU?$_Wrap_alloc@V?$allocator@D@std@@@0@AEAU10@@Z PROC ; std::forward<std::_Wrap_alloc<std::allocator<char> > >, COMDAT

; 1330 : 	return (static_cast<_Ty&&>(_Arg));

  00000	48 8b c1	 mov	 rax, rcx

; 1331 : 	}

  00003	c3		 ret	 0
??$forward@U?$_Wrap_alloc@V?$allocator@D@std@@@std@@@std@@YA$$QEAU?$_Wrap_alloc@V?$allocator@D@std@@@0@AEAU10@@Z ENDP ; std::forward<std::_Wrap_alloc<std::allocator<char> > >
_TEXT	ENDS
; Function compile flags: /Ogtpy
; File c:\users\alist_000\cppmisc\packages\visualcpptools.14.0.24629\lib\native\include\xutility
; File c:\users\alist_000\cppmisc\packages\visualcpptools.14.0.24629\lib\native\include\xstring
; File c:\users\alist_000\cppmisc\packages\visualcpptools.14.0.24629\lib\native\include\xutility
;	COMDAT ??$?0U?$_Wrap_alloc@V?$allocator@D@std@@@std@@$$V@?$_Compressed_pair@U?$_Wrap_alloc@V?$allocator@D@std@@@std@@V?$_String_val@U?$_Simple_types@D@std@@@2@$00@std@@QEAA@U_One_then_variadic_args_t@1@$$QEAU?$_Wrap_alloc@V?$allocator@D@std@@@1@@Z
_TEXT	SEGMENT
this$ = 8
__formal$ = 16
_Val1$ = 24
??$?0U?$_Wrap_alloc@V?$allocator@D@std@@@std@@$$V@?$_Compressed_pair@U?$_Wrap_alloc@V?$allocator@D@std@@@std@@V?$_String_val@U?$_Simple_types@D@std@@@2@$00@std@@QEAA@U_One_then_variadic_args_t@1@$$QEAU?$_Wrap_alloc@V?$allocator@D@std@@@1@@Z PROC ; std::_Compressed_pair<std::_Wrap_alloc<std::allocator<char> >,std::_String_val<std::_Simple_types<char> >,1>::_Compressed_pair<std::_Wrap_alloc<std::allocator<char> >,std::_String_val<std::_Simple_types<char> >,1><std::_Wrap_alloc<std::allocator<char> > >, COMDAT
; File c:\users\alist_000\cppmisc\packages\visualcpptools.14.0.24629\lib\native\include\xstring

; 1606 : 		_Mysize(0),

  00000	33 c0		 xor	 eax, eax
  00002	48 89 41 10	 mov	 QWORD PTR [rcx+16], rax

; 1607 : 		_Myres(0)

  00006	48 89 41 18	 mov	 QWORD PTR [rcx+24], rax
; File c:\users\alist_000\cppmisc\packages\visualcpptools.14.0.24629\lib\native\include\xutility

; 304  : 		}

  0000a	48 8b c1	 mov	 rax, rcx
  0000d	c3		 ret	 0
??$?0U?$_Wrap_alloc@V?$allocator@D@std@@@std@@$$V@?$_Compressed_pair@U?$_Wrap_alloc@V?$allocator@D@std@@@std@@V?$_String_val@U?$_Simple_types@D@std@@@2@$00@std@@QEAA@U_One_then_variadic_args_t@1@$$QEAU?$_Wrap_alloc@V?$allocator@D@std@@@1@@Z ENDP ; std::_Compressed_pair<std::_Wrap_alloc<std::allocator<char> >,std::_String_val<std::_Simple_types<char> >,1>::_Compressed_pair<std::_Wrap_alloc<std::allocator<char> >,std::_String_val<std::_Simple_types<char> >,1><std::_Wrap_alloc<std::allocator<char> > >
_TEXT	ENDS
; Function compile flags: /Ogtpy
; File c:\users\alist_000\cppmisc\packages\visualcpptools.14.0.24629\lib\native\include\type_traits
;	COMDAT ??$forward@V?$allocator@D@std@@@std@@YA$$QEAV?$allocator@D@0@AEAV10@@Z
_TEXT	SEGMENT
_Arg$ = 8
??$forward@V?$allocator@D@std@@@std@@YA$$QEAV?$allocator@D@0@AEAV10@@Z PROC ; std::forward<std::allocator<char> >, COMDAT

; 1330 : 	return (static_cast<_Ty&&>(_Arg));

  00000	48 8b c1	 mov	 rax, rcx

; 1331 : 	}

  00003	c3		 ret	 0
??$forward@V?$allocator@D@std@@@std@@YA$$QEAV?$allocator@D@0@AEAV10@@Z ENDP ; std::forward<std::allocator<char> >
_TEXT	ENDS
; Function compile flags: /Ogtpy
; File c:\users\alist_000\cppmisc\packages\visualcpptools.14.0.24629\lib\native\include\xmemory0
;	COMDAT ??$destroy@PEAD@?$allocator_traits@V?$allocator@D@std@@@std@@SAXAEAV?$allocator@D@1@PEAPEAD@Z
_TEXT	SEGMENT
_Al$ = 8
_Ptr$ = 16
??$destroy@PEAD@?$allocator_traits@V?$allocator@D@std@@@std@@SAXAEAV?$allocator@D@1@PEAPEAD@Z PROC ; std::allocator_traits<std::allocator<char> >::destroy<char * __ptr64>, COMDAT

; 958  : 		_Al.destroy(_Ptr);
; 959  : 		}

  00000	c2 00 00	 ret	 0
??$destroy@PEAD@?$allocator_traits@V?$allocator@D@std@@@std@@SAXAEAV?$allocator@D@1@PEAPEAD@Z ENDP ; std::allocator_traits<std::allocator<char> >::destroy<char * __ptr64>
_TEXT	ENDS
; Function compile flags: /Ogtpy
; File c:\users\alist_000\cppmisc\packages\visualcpptools.14.0.24629\lib\native\include\type_traits
;	COMDAT ??$forward@AEAPEAD@std@@YAAEAPEADAEAPEAD@Z
_TEXT	SEGMENT
_Arg$ = 8
??$forward@AEAPEAD@std@@YAAEAPEADAEAPEAD@Z PROC		; std::forward<char * __ptr64 & __ptr64>, COMDAT

; 1330 : 	return (static_cast<_Ty&&>(_Arg));

  00000	48 8b c1	 mov	 rax, rcx

; 1331 : 	}

  00003	c3		 ret	 0
??$forward@AEAPEAD@std@@YAAEAPEADAEAPEAD@Z ENDP		; std::forward<char * __ptr64 & __ptr64>
_TEXT	ENDS
; Function compile flags: /Ogtpy
; File c:\users\alist_000\cppmisc\packages\visualcpptools.14.0.24629\lib\native\include\xmemory0
;	COMDAT ??$construct@PEADAEAPEAD@?$allocator_traits@V?$allocator@D@std@@@std@@SAXAEAV?$allocator@D@1@PEAPEADAEAPEAD@Z
_TEXT	SEGMENT
_Al$ = 8
_Ptr$ = 16
<_Args_0>$ = 24
??$construct@PEADAEAPEAD@?$allocator_traits@V?$allocator@D@std@@@std@@SAXAEAV?$allocator@D@1@PEAPEADAEAPEAD@Z PROC ; std::allocator_traits<std::allocator<char> >::construct<char * __ptr64,char * __ptr64 & __ptr64>, COMDAT

; 833  : 		::new ((void *)_Ptr) _Objty(_STD forward<_Types>(_Args)...);

  00000	48 85 d2	 test	 rdx, rdx
  00003	74 06		 je	 SHORT $LN8@construct
  00005	49 8b 00	 mov	 rax, QWORD PTR [r8]
  00008	48 89 02	 mov	 QWORD PTR [rdx], rax
$LN8@construct:

; 952  : 		_Al.construct(_Ptr, _STD forward<_Types>(_Args)...);
; 953  : 		}

  0000b	c3		 ret	 0
??$construct@PEADAEAPEAD@?$allocator_traits@V?$allocator@D@std@@@std@@SAXAEAV?$allocator@D@1@PEAPEADAEAPEAD@Z ENDP ; std::allocator_traits<std::allocator<char> >::construct<char * __ptr64,char * __ptr64 & __ptr64>
_TEXT	ENDS
; Function compile flags: /Ogtpy
; File c:\users\alist_000\cppmisc\packages\visualcpptools.14.0.24629\lib\native\include\xmemory0
; File c:\users\alist_000\cppmisc\packages\visualcpptools.14.0.24629\lib\native\include\thread
; File c:\users\alist_000\cppmisc\packages\visualcpptools.14.0.24629\lib\native\include\xmemory0
; File c:\users\alist_000\cppmisc\packages\visualcpptools.14.0.24629\lib\native\include\thread
; File c:\users\alist_000\cppmisc\packages\visualcpptools.14.0.24629\lib\native\include\xmemory0
;	COMDAT ??$_Destroy_range1@V?$allocator@Vthread@std@@@std@@PEAVthread@2@@std@@YAXPEAVthread@0@0AEAU?$_Wrap_alloc@V?$allocator@Vthread@std@@@std@@@0@U?$integral_constant@_N$0A@@0@@Z
_TEXT	SEGMENT
_First$ = 48
_Last$ = 56
_Al$dead$ = 64
__formal$dead$ = 72
??$_Destroy_range1@V?$allocator@Vthread@std@@@std@@PEAVthread@2@@std@@YAXPEAVthread@0@0AEAU?$_Wrap_alloc@V?$allocator@Vthread@std@@@std@@@0@U?$integral_constant@_N$0A@@0@@Z PROC ; std::_Destroy_range1<std::allocator<std::thread>,std::thread * __ptr64>, COMDAT

; 1192 : 	{	// destroy [_First, _Last), no special optimization

$LN37:
  00000	48 83 ec 28	 sub	 rsp, 40			; 00000028H

; 1193 : 	for (; _First != _Last; ++_First)

  00004	48 3b ca	 cmp	 rcx, rdx
  00007	74 16		 je	 SHORT $LN3@Destroy_ra
  00009	0f 1f 80 00 00
	00 00		 npad	 7
$LL4@Destroy_ra:
; File c:\users\alist_000\cppmisc\packages\visualcpptools.14.0.24629\lib\native\include\thread

; 79   : 		return (!_Thr_is_null(_Thr));

  00010	83 79 08 00	 cmp	 DWORD PTR [rcx+8], 0

; 54   : 		if (joinable())

  00014	75 0e		 jne	 SHORT $LN36@Destroy_ra
; File c:\users\alist_000\cppmisc\packages\visualcpptools.14.0.24629\lib\native\include\xmemory0

; 1193 : 	for (; _First != _Last; ++_First)

  00016	48 83 c1 10	 add	 rcx, 16
  0001a	48 3b ca	 cmp	 rcx, rdx
  0001d	75 f1		 jne	 SHORT $LL4@Destroy_ra
$LN3@Destroy_ra:

; 1195 : 	}

  0001f	48 83 c4 28	 add	 rsp, 40			; 00000028H
  00023	c3		 ret	 0
$LN36@Destroy_ra:
; File c:\users\alist_000\cppmisc\packages\visualcpptools.14.0.24629\lib\native\include\thread

; 55   : 			_STD terminate();

  00024	e8 00 00 00 00	 call	 terminate
  00029	cc		 int	 3
$LN35@Destroy_ra:
??$_Destroy_range1@V?$allocator@Vthread@std@@@std@@PEAVthread@2@@std@@YAXPEAVthread@0@0AEAU?$_Wrap_alloc@V?$allocator@Vthread@std@@@std@@@0@U?$integral_constant@_N$0A@@0@@Z ENDP ; std::_Destroy_range1<std::allocator<std::thread>,std::thread * __ptr64>
_TEXT	ENDS
; Function compile flags: /Ogtpy
; File c:\users\alist_000\cppmisc\packages\visualcpptools.14.0.24629\lib\native\include\xutility
;	COMDAT ??$_Unchecked@PEAVthread@std@@@std@@YAPEAVthread@0@PEAV10@@Z
_TEXT	SEGMENT
_Src$ = 8
??$_Unchecked@PEAVthread@std@@@std@@YAPEAVthread@0@PEAV10@@Z PROC ; std::_Unchecked<std::thread * __ptr64>, COMDAT

; 442  : 	return (_Src);

  00000	48 8b c1	 mov	 rax, rcx

; 443  : 	}

  00003	c3		 ret	 0
??$_Unchecked@PEAVthread@std@@@std@@YAPEAVthread@0@PEAV10@@Z ENDP ; std::_Unchecked<std::thread * __ptr64>
_TEXT	ENDS
; Function compile flags: /Ogtpy
; File c:\users\alist_000\cppmisc\packages\visualcpptools.14.0.24629\lib\native\include\xmemory
;	COMDAT ??$_Uninitialized_move_al_unchecked@PEAVthread@std@@PEAV12@V?$allocator@Vthread@std@@@2@@std@@YAPEAVthread@0@PEAV10@00AEAU?$_Wrap_alloc@V?$allocator@Vthread@std@@@std@@@0@@Z
_TEXT	SEGMENT
_First$ = 64
_Last$ = 72
_Dest$ = 80
_Al$dead$ = 88
??$_Uninitialized_move_al_unchecked@PEAVthread@std@@PEAV12@V?$allocator@Vthread@std@@@2@@std@@YAPEAVthread@0@PEAV10@00AEAU?$_Wrap_alloc@V?$allocator@Vthread@std@@@std@@@0@@Z PROC ; std::_Uninitialized_move_al_unchecked<std::thread * __ptr64,std::thread * __ptr64,std::allocator<std::thread> >, COMDAT

; 301  : 	{	// move [_First, _Last) to raw _Dest, using _Al, choose optimization

$LN9:
  00000	48 83 ec 38	 sub	 rsp, 56			; 00000038H

; 302  : 	return (_Uninitialized_move_al_unchecked1(_First, _Last, _Dest, _Al,

  00004	e8 00 00 00 00	 call	 ??$_Uninitialized_move_al_unchecked1@PEAVthread@std@@PEAV12@V?$allocator@Vthread@std@@@2@@std@@YAPEAVthread@0@PEAV10@00AEAU?$_Wrap_alloc@V?$allocator@Vthread@std@@@std@@@0@U_General_ptr_iterator_tag@0@U_Any_tag@0@@Z ; std::_Uninitialized_move_al_unchecked1<std::thread * __ptr64,std::thread * __ptr64,std::allocator<std::thread> >

; 303  : 		_Ptr_move_cat(_First, _Dest),
; 304  : 		_Uses_default_construct_t<_Alloc, decltype(_Unfancy(_Dest)), decltype(_STD move(*_First))>()));
; 305  : 	}

  00009	48 83 c4 38	 add	 rsp, 56			; 00000038H
  0000d	c3		 ret	 0
??$_Uninitialized_move_al_unchecked@PEAVthread@std@@PEAV12@V?$allocator@Vthread@std@@@2@@std@@YAPEAVthread@0@PEAV10@00AEAU?$_Wrap_alloc@V?$allocator@Vthread@std@@@std@@@0@@Z ENDP ; std::_Uninitialized_move_al_unchecked<std::thread * __ptr64,std::thread * __ptr64,std::allocator<std::thread> >
_TEXT	ENDS
; Function compile flags: /Ogtpy
; File c:\users\alist_000\cppmisc\packages\visualcpptools.14.0.24629\lib\native\include\xutility
;	COMDAT ??$_Rechecked@PEAVthread@std@@PEAV12@@std@@YAAEAPEAVthread@0@AEAPEAV10@PEAV10@@Z
_TEXT	SEGMENT
_Dest$ = 8
_Src$ = 16
??$_Rechecked@PEAVthread@std@@PEAV12@@std@@YAAEAPEAVthread@0@AEAPEAV10@PEAV10@@Z PROC ; std::_Rechecked<std::thread * __ptr64,std::thread * __ptr64>, COMDAT

; 472  : 	_Dest = _Src;

  00000	48 89 11	 mov	 QWORD PTR [rcx], rdx

; 473  : 	return (_Dest);

  00003	48 8b c1	 mov	 rax, rcx

; 474  : 	}

  00006	c3		 ret	 0
??$_Rechecked@PEAVthread@std@@PEAV12@@std@@YAAEAPEAVthread@0@AEAPEAV10@PEAV10@@Z ENDP ; std::_Rechecked<std::thread * __ptr64,std::thread * __ptr64>
_TEXT	ENDS
; Function compile flags: /Ogtpy
; File c:\users\alist_000\cppmisc\packages\visualcpptools.14.0.24629\lib\native\include\vector
;	COMDAT ?_Orphan_range@?$vector@Vthread@std@@V?$allocator@Vthread@std@@@2@@std@@AEBAXPEAVthread@2@0@Z
_TEXT	SEGMENT
this$dead$ = 8
__formal$dead$ = 16
__formal$dead$ = 24
?_Orphan_range@?$vector@Vthread@std@@V?$allocator@Vthread@std@@@2@@std@@AEBAXPEAVthread@2@0@Z PROC ; std::vector<std::thread,std::allocator<std::thread> >::_Orphan_range, COMDAT

; 1970 : 		}

  00000	c2 00 00	 ret	 0
?_Orphan_range@?$vector@Vthread@std@@V?$allocator@Vthread@std@@@2@@std@@AEBAXPEAVthread@2@0@Z ENDP ; std::vector<std::thread,std::allocator<std::thread> >::_Orphan_range
_TEXT	ENDS
; Function compile flags: /Ogtpy
; File c:\users\alist_000\cppmisc\packages\visualcpptools.14.0.24629\lib\native\include\xmemory0
;	COMDAT ??0?$_Wrap_alloc@V?$allocator@D@std@@@std@@QEAA@$$QEAU01@@Z
_TEXT	SEGMENT
this$ = 8
_Right$ = 16
??0?$_Wrap_alloc@V?$allocator@D@std@@@std@@QEAA@$$QEAU01@@Z PROC ; std::_Wrap_alloc<std::allocator<char> >::_Wrap_alloc<std::allocator<char> >, COMDAT

; 1041 : 		}

  00000	48 8b c1	 mov	 rax, rcx
  00003	c3		 ret	 0
??0?$_Wrap_alloc@V?$allocator@D@std@@@std@@QEAA@$$QEAU01@@Z ENDP ; std::_Wrap_alloc<std::allocator<char> >::_Wrap_alloc<std::allocator<char> >
_TEXT	ENDS
; Function compile flags: /Ogtpy
; File c:\users\alist_000\cppmisc\packages\visualcpptools.14.0.24629\lib\native\include\chrono
;	COMDAT ?zero@?$duration@HU?$ratio@$0OBA@$00@std@@@chrono@std@@SA?AV123@XZ
_TEXT	SEGMENT
__$ReturnUdt$ = 8
?zero@?$duration@HU?$ratio@$0OBA@$00@std@@@chrono@std@@SA?AV123@XZ PROC ; std::chrono::duration<int,std::ratio<3600,1> >::zero, COMDAT

; 114  : 			: _MyRep(static_cast<_Rep>(_Val))

  00000	c7 01 00 00 00
	00		 mov	 DWORD PTR [rcx], 0

; 206  : 		return (_Myt(duration_values<_Rep>::zero()));

  00006	48 8b c1	 mov	 rax, rcx

; 207  : 		}

  00009	c3		 ret	 0
?zero@?$duration@HU?$ratio@$0OBA@$00@std@@@chrono@std@@SA?AV123@XZ ENDP ; std::chrono::duration<int,std::ratio<3600,1> >::zero
_TEXT	ENDS
; Function compile flags: /Ogtpy
; File c:\users\alist_000\cppmisc\packages\visualcpptools.14.0.24629\lib\native\include\chrono
;	COMDAT ?count@?$duration@_JU?$ratio@$00$00@std@@@chrono@std@@QEBA_JXZ
_TEXT	SEGMENT
this$ = 8
?count@?$duration@_JU?$ratio@$00$00@std@@@chrono@std@@QEBA_JXZ PROC ; std::chrono::duration<__int64,std::ratio<1,1> >::count, COMDAT

; 133  : 		return (_MyRep);

  00000	48 8b 01	 mov	 rax, QWORD PTR [rcx]

; 134  : 		}

  00003	c3		 ret	 0
?count@?$duration@_JU?$ratio@$00$00@std@@@chrono@std@@QEBA_JXZ ENDP ; std::chrono::duration<__int64,std::ratio<1,1> >::count
_TEXT	ENDS
; Function compile flags: /Ogtpy
; File c:\users\alist_000\cppmisc\packages\visualcpptools.14.0.24629\lib\native\include\chrono
;	COMDAT ??Z?$duration@_JU?$ratio@$00$0DLJKMKAA@@std@@@chrono@std@@QEAAAEAV012@AEBV012@@Z
_TEXT	SEGMENT
this$ = 8
_Right$ = 16
??Z?$duration@_JU?$ratio@$00$0DLJKMKAA@@std@@@chrono@std@@QEAAAEAV012@AEBV012@@Z PROC ; std::chrono::duration<__int64,std::ratio<1,1000000000> >::operator-=, COMDAT

; 176  : 		_MyRep -= _Right._MyRep;

  00000	48 8b 02	 mov	 rax, QWORD PTR [rdx]
  00003	48 29 01	 sub	 QWORD PTR [rcx], rax

; 177  : 		return (*this);

  00006	48 8b c1	 mov	 rax, rcx

; 178  : 		}

  00009	c3		 ret	 0
??Z?$duration@_JU?$ratio@$00$0DLJKMKAA@@std@@@chrono@std@@QEAAAEAV012@AEBV012@@Z ENDP ; std::chrono::duration<__int64,std::ratio<1,1000000000> >::operator-=
_TEXT	ENDS
; Function compile flags: /Ogtpy
; File c:\users\alist_000\cppmisc\packages\visualcpptools.14.0.24629\lib\native\include\chrono
;	COMDAT ??Y?$duration@_JU?$ratio@$00$0DLJKMKAA@@std@@@chrono@std@@QEAAAEAV012@AEBV012@@Z
_TEXT	SEGMENT
this$ = 8
_Right$ = 16
??Y?$duration@_JU?$ratio@$00$0DLJKMKAA@@std@@@chrono@std@@QEAAAEAV012@AEBV012@@Z PROC ; std::chrono::duration<__int64,std::ratio<1,1000000000> >::operator+=, COMDAT

; 170  : 		_MyRep += _Right._MyRep;

  00000	48 8b 02	 mov	 rax, QWORD PTR [rdx]
  00003	48 01 01	 add	 QWORD PTR [rcx], rax

; 171  : 		return (*this);

  00006	48 8b c1	 mov	 rax, rcx

; 172  : 		}

  00009	c3		 ret	 0
??Y?$duration@_JU?$ratio@$00$0DLJKMKAA@@std@@@chrono@std@@QEAAAEAV012@AEBV012@@Z ENDP ; std::chrono::duration<__int64,std::ratio<1,1000000000> >::operator+=
_TEXT	ENDS
; Function compile flags: /Ogtpy
; File c:\users\alist_000\cppmisc\packages\visualcpptools.14.0.24629\lib\native\include\chrono
;	COMDAT ?count@?$duration@_JU?$ratio@$00$0DLJKMKAA@@std@@@chrono@std@@QEBA_JXZ
_TEXT	SEGMENT
this$ = 8
?count@?$duration@_JU?$ratio@$00$0DLJKMKAA@@std@@@chrono@std@@QEBA_JXZ PROC ; std::chrono::duration<__int64,std::ratio<1,1000000000> >::count, COMDAT

; 133  : 		return (_MyRep);

  00000	48 8b 01	 mov	 rax, QWORD PTR [rcx]

; 134  : 		}

  00003	c3		 ret	 0
?count@?$duration@_JU?$ratio@$00$0DLJKMKAA@@std@@@chrono@std@@QEBA_JXZ ENDP ; std::chrono::duration<__int64,std::ratio<1,1000000000> >::count
_TEXT	ENDS
; Function compile flags: /Ogtpy
; File c:\users\alist_000\cppmisc\packages\visualcpptools.14.0.24629\lib\native\include\chrono
;	COMDAT ?zero@?$duration_values@H@chrono@std@@SAHXZ
_TEXT	SEGMENT
?zero@?$duration_values@H@chrono@std@@SAHXZ PROC	; std::chrono::duration_values<int>::zero, COMDAT

; 38   : 		return (_Rep(0));

  00000	33 c0		 xor	 eax, eax

; 39   : 		}

  00002	c3		 ret	 0
?zero@?$duration_values@H@chrono@std@@SAHXZ ENDP	; std::chrono::duration_values<int>::zero
_TEXT	ENDS
; Function compile flags: /Ogtpy
; File c:\users\alist_000\cppmisc\packages\visualcpptools.14.0.24629\lib\native\include\chrono
;	COMDAT ??$?NHU?$ratio@$0OBA@$00@std@@HU01@@chrono@std@@YA_NAEBV?$duration@HU?$ratio@$0OBA@$00@std@@@01@0@Z
_TEXT	SEGMENT
_Left$ = 8
_Right$ = 16
??$?NHU?$ratio@$0OBA@$00@std@@HU01@@chrono@std@@YA_NAEBV?$duration@HU?$ratio@$0OBA@$00@std@@@01@0@Z PROC ; std::chrono::operator<=<int,std::ratio<3600,1>,int,std::ratio<3600,1> >, COMDAT

; 517  : 	{	// test if duration <= duration

  00000	8b 01		 mov	 eax, DWORD PTR [rcx]
  00002	39 02		 cmp	 DWORD PTR [rdx], eax
  00004	0f 9d c0	 setge	 al

; 518  : 	return (!(_Right < _Left));
; 519  : 	}

  00007	c3		 ret	 0
??$?NHU?$ratio@$0OBA@$00@std@@HU01@@chrono@std@@YA_NAEBV?$duration@HU?$ratio@$0OBA@$00@std@@@01@0@Z ENDP ; std::chrono::operator<=<int,std::ratio<3600,1>,int,std::ratio<3600,1> >
_TEXT	ENDS
; Function compile flags: /Ogtpy
; File c:\users\alist_000\cppmisc\packages\visualcpptools.14.0.24629\lib\native\include\chrono
;	COMDAT ??$?0_JU?$ratio@$00$0JIJGIA@@std@@X@?$duration@_JU?$ratio@$00$0DLJKMKAA@@std@@@chrono@std@@QEAA@AEBV?$duration@_JU?$ratio@$00$0JIJGIA@@std@@@12@@Z
_TEXT	SEGMENT
this$ = 8
_Dur$ = 16
??$?0_JU?$ratio@$00$0JIJGIA@@std@@X@?$duration@_JU?$ratio@$00$0DLJKMKAA@@std@@@chrono@std@@QEAA@AEBV?$duration@_JU?$ratio@$00$0JIJGIA@@std@@@12@@Z PROC ; std::chrono::duration<__int64,std::ratio<1,1000000000> >::duration<__int64,std::ratio<1,1000000000> ><__int64,std::ratio<1,10000000>,void>, COMDAT

; 554  : 	return (_CF::num == 1 && _CF::den == 1

  00000	48 6b 02 64	 imul	 rax, QWORD PTR [rdx], 100 ; 00000064H

; 127  : 			: _MyRep(chrono::duration_cast<_Myt>(_Dur).count())

  00004	48 89 01	 mov	 QWORD PTR [rcx], rax

; 129  : 		}

  00007	48 8b c1	 mov	 rax, rcx
  0000a	c3		 ret	 0
??$?0_JU?$ratio@$00$0JIJGIA@@std@@X@?$duration@_JU?$ratio@$00$0DLJKMKAA@@std@@@chrono@std@@QEAA@AEBV?$duration@_JU?$ratio@$00$0JIJGIA@@std@@@12@@Z ENDP ; std::chrono::duration<__int64,std::ratio<1,1000000000> >::duration<__int64,std::ratio<1,1000000000> ><__int64,std::ratio<1,10000000>,void>
_TEXT	ENDS
; Function compile flags: /Ogtpy
; File c:\users\alist_000\cppmisc\packages\visualcpptools.14.0.24629\lib\native\include\chrono
;	COMDAT ??$duration_cast@V?$duration@_JU?$ratio@$00$0DLJKMKAA@@std@@@chrono@std@@HU?$ratio@$0OBA@$00@3@@chrono@std@@YA?AV?$duration@_JU?$ratio@$00$0DLJKMKAA@@std@@@01@AEBV?$duration@HU?$ratio@$0OBA@$00@std@@@01@@Z
_TEXT	SEGMENT
__$ReturnUdt$ = 8
_Dur$ = 16
??$duration_cast@V?$duration@_JU?$ratio@$00$0DLJKMKAA@@std@@@chrono@std@@HU?$ratio@$0OBA@$00@3@@chrono@std@@YA?AV?$duration@_JU?$ratio@$00$0DLJKMKAA@@std@@@01@AEBV?$duration@HU?$ratio@$0OBA@$00@std@@@01@@Z PROC ; std::chrono::duration_cast<std::chrono::duration<__int64,std::ratio<1,1000000000> >,int,std::ratio<3600,1> >, COMDAT

; 550  : 	typedef ratio_divide<_Period, typename _To::period> _CF;
; 551  : 
; 552  : 	typedef typename _To::rep _ToRep;
; 553  : 	typedef typename common_type<_ToRep, _Rep, intmax_t>::type _CR;
; 554  : 	return (_CF::num == 1 && _CF::den == 1

  00000	48 63 02	 movsxd	 rax, DWORD PTR [rdx]
  00003	48 ba 00 a0 b8
	30 46 03 00 00	 mov	 rdx, 3600000000000	; 0000034630b8a000H
  0000d	48 0f af c2	 imul	 rax, rdx
  00011	48 89 01	 mov	 QWORD PTR [rcx], rax
  00014	48 8b c1	 mov	 rax, rcx

; 555  : 			? static_cast<_To>(static_cast<_ToRep>(_Dur.count()))
; 556  : 		: _CF::num != 1 && _CF::den == 1
; 557  : 			? static_cast<_To>(static_cast<_ToRep>(
; 558  : 				static_cast<_CR>(
; 559  : 					_Dur.count()) * static_cast<_CR>(_CF::num)))
; 560  : 		: _CF::num == 1 && _CF::den != 1
; 561  : 			? static_cast<_To>(static_cast<_ToRep>(
; 562  : 				static_cast<_CR>(_Dur.count())
; 563  : 					/ static_cast<_CR>(_CF::den)))
; 564  : 		: static_cast<_To>(static_cast<_ToRep>(
; 565  : 			static_cast<_CR>(_Dur.count()) * static_cast<_CR>(_CF::num)
; 566  : 				/ static_cast<_CR>(_CF::den))));
; 567  : 	}

  00017	c3		 ret	 0
??$duration_cast@V?$duration@_JU?$ratio@$00$0DLJKMKAA@@std@@@chrono@std@@HU?$ratio@$0OBA@$00@3@@chrono@std@@YA?AV?$duration@_JU?$ratio@$00$0DLJKMKAA@@std@@@01@AEBV?$duration@HU?$ratio@$0OBA@$00@std@@@01@@Z ENDP ; std::chrono::duration_cast<std::chrono::duration<__int64,std::ratio<1,1000000000> >,int,std::ratio<3600,1> >
_TEXT	ENDS
; Function compile flags: /Ogtpy
; File c:\users\alist_000\cppmisc\packages\visualcpptools.14.0.24629\lib\native\include\chrono
;	COMDAT ??$duration_cast@V?$duration@_JU?$ratio@$00$00@std@@@chrono@std@@_JU?$ratio@$00$0DLJKMKAA@@3@@chrono@std@@YA?AV?$duration@_JU?$ratio@$00$00@std@@@01@AEBV?$duration@_JU?$ratio@$00$0DLJKMKAA@@std@@@01@@Z
_TEXT	SEGMENT
__$ReturnUdt$ = 8
_Dur$ = 16
??$duration_cast@V?$duration@_JU?$ratio@$00$00@std@@@chrono@std@@_JU?$ratio@$00$0DLJKMKAA@@3@@chrono@std@@YA?AV?$duration@_JU?$ratio@$00$00@std@@@01@AEBV?$duration@_JU?$ratio@$00$0DLJKMKAA@@std@@@01@@Z PROC ; std::chrono::duration_cast<std::chrono::duration<__int64,std::ratio<1,1> >,__int64,std::ratio<1,1000000000> >, COMDAT

; 550  : 	typedef ratio_divide<_Period, typename _To::period> _CF;
; 551  : 
; 552  : 	typedef typename _To::rep _ToRep;
; 553  : 	typedef typename common_type<_ToRep, _Rep, intmax_t>::type _CR;
; 554  : 	return (_CF::num == 1 && _CF::den == 1

  00000	48 b8 b3 94 d6
	26 e8 0b 2e 11	 mov	 rax, 1237940039285380275 ; 112e0be826d694b3H
  0000a	48 f7 2a	 imul	 QWORD PTR [rdx]
  0000d	48 c1 fa 1a	 sar	 rdx, 26
  00011	48 8b c2	 mov	 rax, rdx
  00014	48 c1 e8 3f	 shr	 rax, 63			; 0000003fH
  00018	48 03 d0	 add	 rdx, rax
  0001b	48 8b c1	 mov	 rax, rcx
  0001e	48 89 11	 mov	 QWORD PTR [rcx], rdx

; 555  : 			? static_cast<_To>(static_cast<_ToRep>(_Dur.count()))
; 556  : 		: _CF::num != 1 && _CF::den == 1
; 557  : 			? static_cast<_To>(static_cast<_ToRep>(
; 558  : 				static_cast<_CR>(
; 559  : 					_Dur.count()) * static_cast<_CR>(_CF::num)))
; 560  : 		: _CF::num == 1 && _CF::den != 1
; 561  : 			? static_cast<_To>(static_cast<_ToRep>(
; 562  : 				static_cast<_CR>(_Dur.count())
; 563  : 					/ static_cast<_CR>(_CF::den)))
; 564  : 		: static_cast<_To>(static_cast<_ToRep>(
; 565  : 			static_cast<_CR>(_Dur.count()) * static_cast<_CR>(_CF::num)
; 566  : 				/ static_cast<_CR>(_CF::den))));
; 567  : 	}

  00021	c3		 ret	 0
??$duration_cast@V?$duration@_JU?$ratio@$00$00@std@@@chrono@std@@_JU?$ratio@$00$0DLJKMKAA@@3@@chrono@std@@YA?AV?$duration@_JU?$ratio@$00$00@std@@@01@AEBV?$duration@_JU?$ratio@$00$0DLJKMKAA@@std@@@01@@Z ENDP ; std::chrono::duration_cast<std::chrono::duration<__int64,std::ratio<1,1> >,__int64,std::ratio<1,1000000000> >
_TEXT	ENDS
; Function compile flags: /Ogtpy
; File c:\users\alist_000\cppmisc\packages\visualcpptools.14.0.24629\lib\native\include\chrono
;	COMDAT ??$?0_JX@?$duration@_JU?$ratio@$00$00@std@@@chrono@std@@QEAA@AEB_J@Z
_TEXT	SEGMENT
this$ = 8
_Val$ = 16
??$?0_JX@?$duration@_JU?$ratio@$00$00@std@@@chrono@std@@QEAA@AEB_J@Z PROC ; std::chrono::duration<__int64,std::ratio<1,1> >::duration<__int64,std::ratio<1,1> ><__int64,void>, COMDAT

; 114  : 			: _MyRep(static_cast<_Rep>(_Val))

  00000	48 8b 02	 mov	 rax, QWORD PTR [rdx]
  00003	48 89 01	 mov	 QWORD PTR [rcx], rax

; 116  : 		}

  00006	48 8b c1	 mov	 rax, rcx
  00009	c3		 ret	 0
??$?0_JX@?$duration@_JU?$ratio@$00$00@std@@@chrono@std@@QEAA@AEB_J@Z ENDP ; std::chrono::duration<__int64,std::ratio<1,1> >::duration<__int64,std::ratio<1,1> ><__int64,void>
_TEXT	ENDS
; Function compile flags: /Ogtpy
; File c:\users\alist_000\cppmisc\packages\visualcpptools.14.0.24629\lib\native\include\chrono
;	COMDAT ??$?0_JU?$ratio@$00$00@std@@X@?$duration@_JU?$ratio@$00$0DLJKMKAA@@std@@@chrono@std@@QEAA@AEBV?$duration@_JU?$ratio@$00$00@std@@@12@@Z
_TEXT	SEGMENT
this$ = 8
_Dur$ = 16
??$?0_JU?$ratio@$00$00@std@@X@?$duration@_JU?$ratio@$00$0DLJKMKAA@@std@@@chrono@std@@QEAA@AEBV?$duration@_JU?$ratio@$00$00@std@@@12@@Z PROC ; std::chrono::duration<__int64,std::ratio<1,1000000000> >::duration<__int64,std::ratio<1,1000000000> ><__int64,std::ratio<1,1>,void>, COMDAT

; 554  : 	return (_CF::num == 1 && _CF::den == 1

  00000	48 69 02 00 ca
	9a 3b		 imul	 rax, QWORD PTR [rdx], 1000000000 ; 3b9aca00H

; 127  : 			: _MyRep(chrono::duration_cast<_Myt>(_Dur).count())

  00007	48 89 01	 mov	 QWORD PTR [rcx], rax

; 129  : 		}

  0000a	48 8b c1	 mov	 rax, rcx
  0000d	c3		 ret	 0
??$?0_JU?$ratio@$00$00@std@@X@?$duration@_JU?$ratio@$00$0DLJKMKAA@@std@@@chrono@std@@QEAA@AEBV?$duration@_JU?$ratio@$00$00@std@@@12@@Z ENDP ; std::chrono::duration<__int64,std::ratio<1,1000000000> >::duration<__int64,std::ratio<1,1000000000> ><__int64,std::ratio<1,1>,void>
_TEXT	ENDS
; Function compile flags: /Ogtpy
; File c:\users\alist_000\cppmisc\packages\visualcpptools.14.0.24629\lib\native\include\xmemory0
; File c:\users\alist_000\cppmisc\packages\visualcpptools.14.0.24629\lib\native\include\thread
; File c:\users\alist_000\cppmisc\packages\visualcpptools.14.0.24629\lib\native\include\memory
; File c:\users\alist_000\cppmisc\packages\visualcpptools.14.0.24629\lib\native\include\xmemory0
;	COMDAT ??$construct@Vthread@std@@V<lambda_e77d7e1e559843f44c4e0b6d970cdb28>@@@?$allocator_traits@V?$allocator@Vthread@std@@@std@@@std@@SAXAEAV?$allocator@Vthread@std@@@1@PEAVthread@1@$$QEAV<lambda_e77d7e1e559843f44c4e0b6d970cdb28>@@@Z
_TEXT	SEGMENT
$T1 = 32
$T2 = 64
_Al$dead$ = 64
_Ptr$ = 72
$T3 = 80
<_Args_0>$dead$ = 80
??$construct@Vthread@std@@V<lambda_e77d7e1e559843f44c4e0b6d970cdb28>@@@?$allocator_traits@V?$allocator@Vthread@std@@@std@@@std@@SAXAEAV?$allocator@Vthread@std@@@1@PEAVthread@1@$$QEAV<lambda_e77d7e1e559843f44c4e0b6d970cdb28>@@@Z PROC ; std::allocator_traits<std::allocator<std::thread> >::construct<std::thread,<lambda_e77d7e1e559843f44c4e0b6d970cdb28> >, COMDAT

; 951  : 		{	// construct _Objty(_Types...) at _Ptr

  00000	4c 89 44 24 18	 mov	 QWORD PTR [rsp+24], r8
  00005	48 89 54 24 10	 mov	 QWORD PTR [rsp+16], rdx
  0000a	48 89 4c 24 08	 mov	 QWORD PTR [rsp+8], rcx
  0000f	53		 push	 rbx
  00010	48 83 ec 30	 sub	 rsp, 48			; 00000030H
  00014	48 c7 44 24 20
	fe ff ff ff	 mov	 QWORD PTR $T1[rsp], -2
  0001d	48 8b da	 mov	 rbx, rdx

; 833  : 		::new ((void *)_Ptr) _Objty(_STD forward<_Types>(_Args)...);

  00020	48 89 54 24 40	 mov	 QWORD PTR $T2[rsp], rdx
  00025	48 85 d2	 test	 rdx, rdx
  00028	74 2c		 je	 SHORT $LN54@construct
; File c:\users\alist_000\cppmisc\packages\visualcpptools.14.0.24629\lib\native\include\thread

; 46   : 		_Launch(&_Thr,

  0002a	48 8d 4c 24 50	 lea	 rcx, QWORD PTR $T3[rsp]
  0002f	e8 00 00 00 00	 call	 ??$make_unique@V?$tuple@V<lambda_e77d7e1e559843f44c4e0b6d970cdb28>@@@std@@V<lambda_e77d7e1e559843f44c4e0b6d970cdb28>@@@std@@YA?AV?$unique_ptr@V?$tuple@V<lambda_e77d7e1e559843f44c4e0b6d970cdb28>@@@std@@U?$default_delete@V?$tuple@V<lambda_e77d7e1e559843f44c4e0b6d970cdb28>@@@std@@@2@@0@$$QEAV<lambda_e77d7e1e559843f44c4e0b6d970cdb28>@@@Z ; std::make_unique<std::tuple<<lambda_e77d7e1e559843f44c4e0b6d970cdb28> >,<lambda_e77d7e1e559843f44c4e0b6d970cdb28> >
  00034	90		 npad	 1
  00035	48 8b d0	 mov	 rdx, rax
  00038	48 8b cb	 mov	 rcx, rbx
  0003b	e8 00 00 00 00	 call	 ??$_Launch@V?$unique_ptr@V?$tuple@V<lambda_e77d7e1e559843f44c4e0b6d970cdb28>@@@std@@U?$default_delete@V?$tuple@V<lambda_e77d7e1e559843f44c4e0b6d970cdb28>@@@std@@@2@@std@@@std@@YAXPEAU_Thrd_imp_t@@$$QEAV?$unique_ptr@V?$tuple@V<lambda_e77d7e1e559843f44c4e0b6d970cdb28>@@@std@@U?$default_delete@V?$tuple@V<lambda_e77d7e1e559843f44c4e0b6d970cdb28>@@@std@@@2@@0@@Z ; std::_Launch<std::unique_ptr<std::tuple<<lambda_e77d7e1e559843f44c4e0b6d970cdb28> >,std::default_delete<std::tuple<<lambda_e77d7e1e559843f44c4e0b6d970cdb28> > > > >
  00040	90		 npad	 1
; File c:\users\alist_000\cppmisc\packages\visualcpptools.14.0.24629\lib\native\include\memory

; 1409 : 		if (get() != pointer())

  00041	48 8b 4c 24 50	 mov	 rcx, QWORD PTR $T3[rsp]
  00046	48 85 c9	 test	 rcx, rcx
  00049	74 0b		 je	 SHORT $LN54@construct

; 1199 : 		delete _Ptr;

  0004b	ba 01 00 00 00	 mov	 edx, 1
  00050	e8 00 00 00 00	 call	 ??3@YAXPEAX_K@Z		; operator delete
  00055	90		 npad	 1
$LN54@construct:
; File c:\users\alist_000\cppmisc\packages\visualcpptools.14.0.24629\lib\native\include\xmemory0

; 953  : 		}

  00056	48 83 c4 30	 add	 rsp, 48			; 00000030H
  0005a	5b		 pop	 rbx
  0005b	c3		 ret	 0
??$construct@Vthread@std@@V<lambda_e77d7e1e559843f44c4e0b6d970cdb28>@@@?$allocator_traits@V?$allocator@Vthread@std@@@std@@@std@@SAXAEAV?$allocator@Vthread@std@@@1@PEAVthread@1@$$QEAV<lambda_e77d7e1e559843f44c4e0b6d970cdb28>@@@Z ENDP ; std::allocator_traits<std::allocator<std::thread> >::construct<std::thread,<lambda_e77d7e1e559843f44c4e0b6d970cdb28> >
_TEXT	ENDS
;	COMDAT text$x
text$x	SEGMENT
$T1 = 32
$T2 = 64
_Al$dead$ = 64
_Ptr$ = 72
$T3 = 80
<_Args_0>$dead$ = 80
?dtor$1@?0???$construct@Vthread@std@@V<lambda_e77d7e1e559843f44c4e0b6d970cdb28>@@@?$allocator_traits@V?$allocator@Vthread@std@@@std@@@std@@SAXAEAV?$allocator@Vthread@std@@@1@PEAVthread@1@$$QEAV<lambda_e77d7e1e559843f44c4e0b6d970cdb28>@@@Z@4HA PROC ; `std::allocator_traits<std::allocator<std::thread> >::construct<std::thread,<lambda_e77d7e1e559843f44c4e0b6d970cdb28> >'::`1'::dtor$1
  00000	40 55		 push	 rbp
  00002	48 83 ec 20	 sub	 rsp, 32			; 00000020H
  00006	48 8b ea	 mov	 rbp, rdx
  00009	48 8b 55 48	 mov	 rdx, QWORD PTR _Ptr$[rbp]
  0000d	48 8b 4d 40	 mov	 rcx, QWORD PTR $T2[rbp]
  00011	e8 00 00 00 00	 call	 ??3@YAXPEAX0@Z		; operator delete
  00016	48 83 c4 20	 add	 rsp, 32			; 00000020H
  0001a	5d		 pop	 rbp
  0001b	c3		 ret	 0
?dtor$1@?0???$construct@Vthread@std@@V<lambda_e77d7e1e559843f44c4e0b6d970cdb28>@@@?$allocator_traits@V?$allocator@Vthread@std@@@std@@@std@@SAXAEAV?$allocator@Vthread@std@@@1@PEAVthread@1@$$QEAV<lambda_e77d7e1e559843f44c4e0b6d970cdb28>@@@Z@4HA ENDP ; `std::allocator_traits<std::allocator<std::thread> >::construct<std::thread,<lambda_e77d7e1e559843f44c4e0b6d970cdb28> >'::`1'::dtor$1
$T1 = 32
$T2 = 64
_Al$dead$ = 64
_Ptr$ = 72
$T3 = 80
<_Args_0>$dead$ = 80
?dtor$3@?0???$construct@Vthread@std@@V<lambda_e77d7e1e559843f44c4e0b6d970cdb28>@@@?$allocator_traits@V?$allocator@Vthread@std@@@std@@@std@@SAXAEAV?$allocator@Vthread@std@@@1@PEAVthread@1@$$QEAV<lambda_e77d7e1e559843f44c4e0b6d970cdb28>@@@Z@4HA PROC ; `std::allocator_traits<std::allocator<std::thread> >::construct<std::thread,<lambda_e77d7e1e559843f44c4e0b6d970cdb28> >'::`1'::dtor$3
  0001c	48 8d 8a 50 00
	00 00		 lea	 rcx, QWORD PTR $T3[rdx]
  00023	e9 00 00 00 00	 jmp	 ??1?$unique_ptr@V?$tuple@V<lambda_e77d7e1e559843f44c4e0b6d970cdb28>@@@std@@U?$default_delete@V?$tuple@V<lambda_e77d7e1e559843f44c4e0b6d970cdb28>@@@std@@@2@@std@@QEAA@XZ ; std::unique_ptr<std::tuple<<lambda_e77d7e1e559843f44c4e0b6d970cdb28> >,std::default_delete<std::tuple<<lambda_e77d7e1e559843f44c4e0b6d970cdb28> > > >::~unique_ptr<std::tuple<<lambda_e77d7e1e559843f44c4e0b6d970cdb28> >,std::default_delete<std::tuple<<lambda_e77d7e1e559843f44c4e0b6d970cdb28> > > >
?dtor$3@?0???$construct@Vthread@std@@V<lambda_e77d7e1e559843f44c4e0b6d970cdb28>@@@?$allocator_traits@V?$allocator@Vthread@std@@@std@@@std@@SAXAEAV?$allocator@Vthread@std@@@1@PEAVthread@1@$$QEAV<lambda_e77d7e1e559843f44c4e0b6d970cdb28>@@@Z@4HA ENDP ; `std::allocator_traits<std::allocator<std::thread> >::construct<std::thread,<lambda_e77d7e1e559843f44c4e0b6d970cdb28> >'::`1'::dtor$3
text$x	ENDS
; Function compile flags: /Ogtpy
;	COMDAT text$x
text$x	SEGMENT
$T1 = 32
$T2 = 64
_Al$dead$ = 64
_Ptr$ = 72
$T3 = 80
<_Args_0>$dead$ = 80
?dtor$1@?0???$construct@Vthread@std@@V<lambda_e77d7e1e559843f44c4e0b6d970cdb28>@@@?$allocator_traits@V?$allocator@Vthread@std@@@std@@@std@@SAXAEAV?$allocator@Vthread@std@@@1@PEAVthread@1@$$QEAV<lambda_e77d7e1e559843f44c4e0b6d970cdb28>@@@Z@4HA PROC ; `std::allocator_traits<std::allocator<std::thread> >::construct<std::thread,<lambda_e77d7e1e559843f44c4e0b6d970cdb28> >'::`1'::dtor$1
  00000	40 55		 push	 rbp
  00002	48 83 ec 20	 sub	 rsp, 32			; 00000020H
  00006	48 8b ea	 mov	 rbp, rdx
  00009	48 8b 55 48	 mov	 rdx, QWORD PTR _Ptr$[rbp]
  0000d	48 8b 4d 40	 mov	 rcx, QWORD PTR $T2[rbp]
  00011	e8 00 00 00 00	 call	 ??3@YAXPEAX0@Z		; operator delete
  00016	48 83 c4 20	 add	 rsp, 32			; 00000020H
  0001a	5d		 pop	 rbp
  0001b	c3		 ret	 0
?dtor$1@?0???$construct@Vthread@std@@V<lambda_e77d7e1e559843f44c4e0b6d970cdb28>@@@?$allocator_traits@V?$allocator@Vthread@std@@@std@@@std@@SAXAEAV?$allocator@Vthread@std@@@1@PEAVthread@1@$$QEAV<lambda_e77d7e1e559843f44c4e0b6d970cdb28>@@@Z@4HA ENDP ; `std::allocator_traits<std::allocator<std::thread> >::construct<std::thread,<lambda_e77d7e1e559843f44c4e0b6d970cdb28> >'::`1'::dtor$1
text$x	ENDS
; Function compile flags: /Ogtpy
;	COMDAT text$x
text$x	SEGMENT
$T1 = 32
$T2 = 64
_Al$dead$ = 64
_Ptr$ = 72
$T3 = 80
<_Args_0>$dead$ = 80
?dtor$3@?0???$construct@Vthread@std@@V<lambda_e77d7e1e559843f44c4e0b6d970cdb28>@@@?$allocator_traits@V?$allocator@Vthread@std@@@std@@@std@@SAXAEAV?$allocator@Vthread@std@@@1@PEAVthread@1@$$QEAV<lambda_e77d7e1e559843f44c4e0b6d970cdb28>@@@Z@4HA PROC ; `std::allocator_traits<std::allocator<std::thread> >::construct<std::thread,<lambda_e77d7e1e559843f44c4e0b6d970cdb28> >'::`1'::dtor$3
  0001c	48 8d 8a 50 00
	00 00		 lea	 rcx, QWORD PTR $T3[rdx]
  00023	e9 00 00 00 00	 jmp	 ??1?$unique_ptr@V?$tuple@V<lambda_e77d7e1e559843f44c4e0b6d970cdb28>@@@std@@U?$default_delete@V?$tuple@V<lambda_e77d7e1e559843f44c4e0b6d970cdb28>@@@std@@@2@@std@@QEAA@XZ ; std::unique_ptr<std::tuple<<lambda_e77d7e1e559843f44c4e0b6d970cdb28> >,std::default_delete<std::tuple<<lambda_e77d7e1e559843f44c4e0b6d970cdb28> > > >::~unique_ptr<std::tuple<<lambda_e77d7e1e559843f44c4e0b6d970cdb28> >,std::default_delete<std::tuple<<lambda_e77d7e1e559843f44c4e0b6d970cdb28> > > >
?dtor$3@?0???$construct@Vthread@std@@V<lambda_e77d7e1e559843f44c4e0b6d970cdb28>@@@?$allocator_traits@V?$allocator@Vthread@std@@@std@@@std@@SAXAEAV?$allocator@Vthread@std@@@1@PEAVthread@1@$$QEAV<lambda_e77d7e1e559843f44c4e0b6d970cdb28>@@@Z@4HA ENDP ; `std::allocator_traits<std::allocator<std::thread> >::construct<std::thread,<lambda_e77d7e1e559843f44c4e0b6d970cdb28> >'::`1'::dtor$3
text$x	ENDS
; Function compile flags: /Ogtpy
; File c:\users\alist_000\cppmisc\packages\visualcpptools.14.0.24629\lib\native\include\xmemory0
; File c:\users\alist_000\cppmisc\packages\visualcpptools.14.0.24629\lib\native\include\thread
; File c:\users\alist_000\cppmisc\packages\visualcpptools.14.0.24629\lib\native\include\xmemory0
; File c:\users\alist_000\cppmisc\packages\visualcpptools.14.0.24629\lib\native\include\thread
; File c:\users\alist_000\cppmisc\packages\visualcpptools.14.0.24629\lib\native\include\xmemory0
;	COMDAT ??$destroy@Vthread@std@@@?$allocator_traits@V?$allocator@Vthread@std@@@std@@@std@@SAXAEAV?$allocator@Vthread@std@@@1@PEAVthread@1@@Z
_TEXT	SEGMENT
_Al$dead$ = 48
_Ptr$ = 56
??$destroy@Vthread@std@@@?$allocator_traits@V?$allocator@Vthread@std@@@std@@@std@@SAXAEAV?$allocator@Vthread@std@@@1@PEAVthread@1@@Z PROC ; std::allocator_traits<std::allocator<std::thread> >::destroy<std::thread>, COMDAT

; 957  : 		{	// destroy object at _Ptr

$LN22:
  00000	48 83 ec 28	 sub	 rsp, 40			; 00000028H
; File c:\users\alist_000\cppmisc\packages\visualcpptools.14.0.24629\lib\native\include\thread

; 79   : 		return (!_Thr_is_null(_Thr));

  00004	83 7a 08 00	 cmp	 DWORD PTR [rdx+8], 0

; 54   : 		if (joinable())

  00008	75 05		 jne	 SHORT $LN20@destroy
; File c:\users\alist_000\cppmisc\packages\visualcpptools.14.0.24629\lib\native\include\xmemory0

; 959  : 		}

  0000a	48 83 c4 28	 add	 rsp, 40			; 00000028H
  0000e	c3		 ret	 0
$LN20@destroy:
; File c:\users\alist_000\cppmisc\packages\visualcpptools.14.0.24629\lib\native\include\thread

; 55   : 			_STD terminate();

  0000f	e8 00 00 00 00	 call	 terminate
  00014	cc		 int	 3
$LN19@destroy:
??$destroy@Vthread@std@@@?$allocator_traits@V?$allocator@Vthread@std@@@std@@@std@@SAXAEAV?$allocator@Vthread@std@@@1@PEAVthread@1@@Z ENDP ; std::allocator_traits<std::allocator<std::thread> >::destroy<std::thread>
_TEXT	ENDS
; Function compile flags: /Ogtpy
; File c:\users\alist_000\cppmisc\packages\visualcpptools.14.0.24629\lib\native\include\xmemory0
;	COMDAT ??$destroy@PEAD@?$allocator@D@std@@QEAAXPEAPEAD@Z
_TEXT	SEGMENT
this$ = 8
_Ptr$ = 16
??$destroy@PEAD@?$allocator@D@std@@QEAAXPEAPEAD@Z PROC	; std::allocator<char>::destroy<char * __ptr64>, COMDAT

; 839  : 		_Ptr->~_Uty();
; 840  : 		}

  00000	c2 00 00	 ret	 0
??$destroy@PEAD@?$allocator@D@std@@QEAAXPEAPEAD@Z ENDP	; std::allocator<char>::destroy<char * __ptr64>
_TEXT	ENDS
; Function compile flags: /Ogtpy
; File c:\users\alist_000\cppmisc\packages\visualcpptools.14.0.24629\lib\native\include\xmemory0
;	COMDAT ??$construct@PEADAEAPEAD@?$allocator@D@std@@QEAAXPEAPEADAEAPEAD@Z
_TEXT	SEGMENT
this$ = 8
_Ptr$ = 16
<_Args_0>$ = 24
??$construct@PEADAEAPEAD@?$allocator@D@std@@QEAAXPEAPEADAEAPEAD@Z PROC ; std::allocator<char>::construct<char * __ptr64,char * __ptr64 & __ptr64>, COMDAT

; 833  : 		::new ((void *)_Ptr) _Objty(_STD forward<_Types>(_Args)...);

  00000	48 85 d2	 test	 rdx, rdx
  00003	74 06		 je	 SHORT $LN3@construct
  00005	49 8b 00	 mov	 rax, QWORD PTR [r8]
  00008	48 89 02	 mov	 QWORD PTR [rdx], rax
$LN3@construct:

; 834  : 		}

  0000b	c3		 ret	 0
??$construct@PEADAEAPEAD@?$allocator@D@std@@QEAAXPEAPEADAEAPEAD@Z ENDP ; std::allocator<char>::construct<char * __ptr64,char * __ptr64 & __ptr64>
_TEXT	ENDS
; Function compile flags: /Ogtpy
; File c:\users\alist_000\cppmisc\packages\visualcpptools.14.0.24629\lib\native\include\xutility
;	COMDAT ??$_Ptr_move_cat@Vthread@std@@V12@@std@@YA?AU_General_ptr_iterator_tag@0@AEBQEAVthread@0@0@Z
_TEXT	SEGMENT
__formal$dead$ = 8
__formal$dead$ = 16
??$_Ptr_move_cat@Vthread@std@@V12@@std@@YA?AU_General_ptr_iterator_tag@0@AEBQEAVthread@0@0@Z PROC ; std::_Ptr_move_cat<std::thread,std::thread>, COMDAT

; 824  : 	return {};

  00000	33 c0		 xor	 eax, eax

; 825  : 	}

  00002	c3		 ret	 0
??$_Ptr_move_cat@Vthread@std@@V12@@std@@YA?AU_General_ptr_iterator_tag@0@AEBQEAVthread@0@0@Z ENDP ; std::_Ptr_move_cat<std::thread,std::thread>
_TEXT	ENDS
; Function compile flags: /Ogtpy
; File c:\users\alist_000\cppmisc\packages\visualcpptools.14.0.24629\lib\native\include\xmemory
; File c:\users\alist_000\cppmisc\packages\visualcpptools.14.0.24629\lib\native\include\xmemory0
; File c:\users\alist_000\cppmisc\packages\visualcpptools.14.0.24629\lib\native\include\thread
; File c:\users\alist_000\cppmisc\packages\visualcpptools.14.0.24629\lib\native\include\xmemory
;	COMDAT ??$_Uninitialized_move_al_unchecked1@PEAVthread@std@@PEAV12@V?$allocator@Vthread@std@@@2@@std@@YAPEAVthread@0@PEAV10@00AEAU?$_Wrap_alloc@V?$allocator@Vthread@std@@@std@@@0@U_General_ptr_iterator_tag@0@U_Any_tag@0@@Z
_TEXT	SEGMENT
_First$ = 8
_Last$ = 16
_Dest$ = 24
_Al$dead$ = 32
__formal$dead$ = 40
__formal$dead$ = 48
??$_Uninitialized_move_al_unchecked1@PEAVthread@std@@PEAV12@V?$allocator@Vthread@std@@@2@@std@@YAPEAVthread@0@PEAV10@00AEAU?$_Wrap_alloc@V?$allocator@Vthread@std@@@std@@@0@U_General_ptr_iterator_tag@0@U_Any_tag@0@@Z PROC ; std::_Uninitialized_move_al_unchecked1<std::thread * __ptr64,std::thread * __ptr64,std::allocator<std::thread> >, COMDAT

; 277  : 	for (; _First != _Last; ++_Dest, (void)++_First)

  00000	48 3b ca	 cmp	 rcx, rdx
  00003	74 21		 je	 SHORT $LN3@Uninitiali
  00005	33 c0		 xor	 eax, eax
$LL4@Uninitiali:
; File c:\users\alist_000\cppmisc\packages\visualcpptools.14.0.24629\lib\native\include\xmemory0

; 833  : 		::new ((void *)_Ptr) _Objty(_STD forward<_Types>(_Args)...);

  00007	4d 85 c0	 test	 r8, r8
  0000a	74 0d		 je	 SHORT $LN2@Uninitiali
; File c:\users\alist_000\cppmisc\packages\visualcpptools.14.0.24629\lib\native\include\thread

; 59   : 		: _Thr(_Other._Thr)

  0000c	0f 10 01	 movups	 xmm0, XMMWORD PTR [rcx]
  0000f	41 0f 11 00	 movups	 XMMWORD PTR [r8], xmm0

; 60   : 		{	// move from _Other
; 61   : 		_Thr_set_null(_Other._Thr);

  00013	48 89 01	 mov	 QWORD PTR [rcx], rax
  00016	89 41 08	 mov	 DWORD PTR [rcx+8], eax
$LN2@Uninitiali:
; File c:\users\alist_000\cppmisc\packages\visualcpptools.14.0.24629\lib\native\include\xmemory

; 277  : 	for (; _First != _Last; ++_Dest, (void)++_First)

  00019	49 83 c0 10	 add	 r8, 16
  0001d	48 83 c1 10	 add	 rcx, 16
  00021	48 3b ca	 cmp	 rcx, rdx
  00024	75 e1		 jne	 SHORT $LL4@Uninitiali
$LN3@Uninitiali:

; 278  : 		_Al.construct(_Unfancy(_Dest), _STD move(*_First));
; 279  : 	_CATCH_ALL
; 280  : 	_Destroy_range(_Next, _Dest, _Al);
; 281  : 	_RERAISE;
; 282  : 	_CATCH_END
; 283  : 
; 284  : 	return (_Dest);

  00026	49 8b c0	 mov	 rax, r8

; 285  : 	}

  00029	c3		 ret	 0
??$_Uninitialized_move_al_unchecked1@PEAVthread@std@@PEAV12@V?$allocator@Vthread@std@@@2@@std@@YAPEAVthread@0@PEAV10@00AEAU?$_Wrap_alloc@V?$allocator@Vthread@std@@@std@@@0@U_General_ptr_iterator_tag@0@U_Any_tag@0@@Z ENDP ; std::_Uninitialized_move_al_unchecked1<std::thread * __ptr64,std::thread * __ptr64,std::allocator<std::thread> >
_TEXT	ENDS
; Function compile flags: /Ogtpy
; File c:\users\alist_000\cppmisc\packages\visualcpptools.14.0.24629\lib\native\include\xutility
;	COMDAT ??$?0U?$integral_constant@_N$00@std@@@_Any_tag@std@@QEAA@$$QEAU?$integral_constant@_N$00@1@@Z
_TEXT	SEGMENT
this$ = 8
__formal$dead$ = 16
??$?0U?$integral_constant@_N$00@std@@@_Any_tag@std@@QEAA@$$QEAU?$integral_constant@_N$00@1@@Z PROC ; std::_Any_tag::_Any_tag<std::integral_constant<bool,1> >, COMDAT

; 568  : 		constexpr _Any_tag(_Ty&&) _NOEXCEPT {}

  00000	48 8b c1	 mov	 rax, rcx
  00003	c3		 ret	 0
??$?0U?$integral_constant@_N$00@std@@@_Any_tag@std@@QEAA@$$QEAU?$integral_constant@_N$00@1@@Z ENDP ; std::_Any_tag::_Any_tag<std::integral_constant<bool,1> >
_TEXT	ENDS
; Function compile flags: /Ogtpy
; File c:\users\alist_000\cppmisc\packages\visualcpptools.14.0.24629\lib\native\include\chrono
;	COMDAT ?count@?$duration@HU?$ratio@$0OBA@$00@std@@@chrono@std@@QEBAHXZ
_TEXT	SEGMENT
this$ = 8
?count@?$duration@HU?$ratio@$0OBA@$00@std@@@chrono@std@@QEBAHXZ PROC ; std::chrono::duration<int,std::ratio<3600,1> >::count, COMDAT

; 133  : 		return (_MyRep);

  00000	8b 01		 mov	 eax, DWORD PTR [rcx]

; 134  : 		}

  00002	c3		 ret	 0
?count@?$duration@HU?$ratio@$0OBA@$00@std@@@chrono@std@@QEBAHXZ ENDP ; std::chrono::duration<int,std::ratio<3600,1> >::count
_TEXT	ENDS
; Function compile flags: /Ogtpy
; File c:\users\alist_000\cppmisc\packages\visualcpptools.14.0.24629\lib\native\include\type_traits
;	COMDAT ??$move@AEAVthread@std@@@std@@YA$$QEAVthread@0@AEAV10@@Z
_TEXT	SEGMENT
_Arg$ = 8
??$move@AEAVthread@std@@@std@@YA$$QEAVthread@0@AEAV10@@Z PROC ; std::move<std::thread & __ptr64>, COMDAT

; 1346 : 	return (static_cast<typename remove_reference<_Ty>::type&&>(_Arg));

  00000	48 8b c1	 mov	 rax, rcx

; 1347 : 	}

  00003	c3		 ret	 0
??$move@AEAVthread@std@@@std@@YA$$QEAVthread@0@AEAV10@@Z ENDP ; std::move<std::thread & __ptr64>
_TEXT	ENDS
; Function compile flags: /Ogtpy
; File c:\users\alist_000\cppmisc\packages\visualcpptools.14.0.24629\lib\native\include\chrono
;	COMDAT ??$?MHU?$ratio@$0OBA@$00@std@@HU01@@chrono@std@@YA_NAEBV?$duration@HU?$ratio@$0OBA@$00@std@@@01@0@Z
_TEXT	SEGMENT
_Left$ = 8
_Right$ = 16
??$?MHU?$ratio@$0OBA@$00@std@@HU01@@chrono@std@@YA_NAEBV?$duration@HU?$ratio@$0OBA@$00@std@@@01@0@Z PROC ; std::chrono::operator<<int,std::ratio<3600,1>,int,std::ratio<3600,1> >, COMDAT

; 503  : 	{	// test if duration < duration

  00000	8b 02		 mov	 eax, DWORD PTR [rdx]
  00002	39 01		 cmp	 DWORD PTR [rcx], eax
  00004	0f 9c c0	 setl	 al

; 504  : 	typedef typename common_type<
; 505  : 		duration<_Rep1, _Period1>,
; 506  : 		duration<_Rep2, _Period2> >::type _CT;
; 507  : 	return (_CT(_Left).count() < _CT(_Right).count());
; 508  : 	}

  00007	c3		 ret	 0
??$?MHU?$ratio@$0OBA@$00@std@@HU01@@chrono@std@@YA_NAEBV?$duration@HU?$ratio@$0OBA@$00@std@@@01@0@Z ENDP ; std::chrono::operator<<int,std::ratio<3600,1>,int,std::ratio<3600,1> >
_TEXT	ENDS
; Function compile flags: /Ogtpy
; File c:\users\alist_000\cppmisc\packages\visualcpptools.14.0.24629\lib\native\include\chrono
;	COMDAT ??$duration_cast@V?$duration@_JU?$ratio@$00$0DLJKMKAA@@std@@@chrono@std@@_JU?$ratio@$00$0JIJGIA@@3@@chrono@std@@YA?AV?$duration@_JU?$ratio@$00$0DLJKMKAA@@std@@@01@AEBV?$duration@_JU?$ratio@$00$0JIJGIA@@std@@@01@@Z
_TEXT	SEGMENT
__$ReturnUdt$ = 8
_Dur$ = 16
??$duration_cast@V?$duration@_JU?$ratio@$00$0DLJKMKAA@@std@@@chrono@std@@_JU?$ratio@$00$0JIJGIA@@3@@chrono@std@@YA?AV?$duration@_JU?$ratio@$00$0DLJKMKAA@@std@@@01@AEBV?$duration@_JU?$ratio@$00$0JIJGIA@@std@@@01@@Z PROC ; std::chrono::duration_cast<std::chrono::duration<__int64,std::ratio<1,1000000000> >,__int64,std::ratio<1,10000000> >, COMDAT

; 550  : 	typedef ratio_divide<_Period, typename _To::period> _CF;
; 551  : 
; 552  : 	typedef typename _To::rep _ToRep;
; 553  : 	typedef typename common_type<_ToRep, _Rep, intmax_t>::type _CR;
; 554  : 	return (_CF::num == 1 && _CF::den == 1

  00000	48 6b 02 64	 imul	 rax, QWORD PTR [rdx], 100 ; 00000064H
  00004	48 89 01	 mov	 QWORD PTR [rcx], rax
  00007	48 8b c1	 mov	 rax, rcx

; 555  : 			? static_cast<_To>(static_cast<_ToRep>(_Dur.count()))
; 556  : 		: _CF::num != 1 && _CF::den == 1
; 557  : 			? static_cast<_To>(static_cast<_ToRep>(
; 558  : 				static_cast<_CR>(
; 559  : 					_Dur.count()) * static_cast<_CR>(_CF::num)))
; 560  : 		: _CF::num == 1 && _CF::den != 1
; 561  : 			? static_cast<_To>(static_cast<_ToRep>(
; 562  : 				static_cast<_CR>(_Dur.count())
; 563  : 					/ static_cast<_CR>(_CF::den)))
; 564  : 		: static_cast<_To>(static_cast<_ToRep>(
; 565  : 			static_cast<_CR>(_Dur.count()) * static_cast<_CR>(_CF::num)
; 566  : 				/ static_cast<_CR>(_CF::den))));
; 567  : 	}

  0000a	c3		 ret	 0
??$duration_cast@V?$duration@_JU?$ratio@$00$0DLJKMKAA@@std@@@chrono@std@@_JU?$ratio@$00$0JIJGIA@@3@@chrono@std@@YA?AV?$duration@_JU?$ratio@$00$0DLJKMKAA@@std@@@01@AEBV?$duration@_JU?$ratio@$00$0JIJGIA@@std@@@01@@Z ENDP ; std::chrono::duration_cast<std::chrono::duration<__int64,std::ratio<1,1000000000> >,__int64,std::ratio<1,10000000> >
_TEXT	ENDS
; Function compile flags: /Ogtpy
; File c:\users\alist_000\cppmisc\packages\visualcpptools.14.0.24629\lib\native\include\chrono
;	COMDAT ??$duration_cast@V?$duration@_JU?$ratio@$00$0DLJKMKAA@@std@@@chrono@std@@_JU?$ratio@$00$00@3@@chrono@std@@YA?AV?$duration@_JU?$ratio@$00$0DLJKMKAA@@std@@@01@AEBV?$duration@_JU?$ratio@$00$00@std@@@01@@Z
_TEXT	SEGMENT
__$ReturnUdt$ = 8
_Dur$ = 16
??$duration_cast@V?$duration@_JU?$ratio@$00$0DLJKMKAA@@std@@@chrono@std@@_JU?$ratio@$00$00@3@@chrono@std@@YA?AV?$duration@_JU?$ratio@$00$0DLJKMKAA@@std@@@01@AEBV?$duration@_JU?$ratio@$00$00@std@@@01@@Z PROC ; std::chrono::duration_cast<std::chrono::duration<__int64,std::ratio<1,1000000000> >,__int64,std::ratio<1,1> >, COMDAT

; 550  : 	typedef ratio_divide<_Period, typename _To::period> _CF;
; 551  : 
; 552  : 	typedef typename _To::rep _ToRep;
; 553  : 	typedef typename common_type<_ToRep, _Rep, intmax_t>::type _CR;
; 554  : 	return (_CF::num == 1 && _CF::den == 1

  00000	48 69 02 00 ca
	9a 3b		 imul	 rax, QWORD PTR [rdx], 1000000000 ; 3b9aca00H
  00007	48 89 01	 mov	 QWORD PTR [rcx], rax
  0000a	48 8b c1	 mov	 rax, rcx

; 555  : 			? static_cast<_To>(static_cast<_ToRep>(_Dur.count()))
; 556  : 		: _CF::num != 1 && _CF::den == 1
; 557  : 			? static_cast<_To>(static_cast<_ToRep>(
; 558  : 				static_cast<_CR>(
; 559  : 					_Dur.count()) * static_cast<_CR>(_CF::num)))
; 560  : 		: _CF::num == 1 && _CF::den != 1
; 561  : 			? static_cast<_To>(static_cast<_ToRep>(
; 562  : 				static_cast<_CR>(_Dur.count())
; 563  : 					/ static_cast<_CR>(_CF::den)))
; 564  : 		: static_cast<_To>(static_cast<_ToRep>(
; 565  : 			static_cast<_CR>(_Dur.count()) * static_cast<_CR>(_CF::num)
; 566  : 				/ static_cast<_CR>(_CF::den))));
; 567  : 	}

  0000d	c3		 ret	 0
??$duration_cast@V?$duration@_JU?$ratio@$00$0DLJKMKAA@@std@@@chrono@std@@_JU?$ratio@$00$00@3@@chrono@std@@YA?AV?$duration@_JU?$ratio@$00$0DLJKMKAA@@std@@@01@AEBV?$duration@_JU?$ratio@$00$00@std@@@01@@Z ENDP ; std::chrono::duration_cast<std::chrono::duration<__int64,std::ratio<1,1000000000> >,__int64,std::ratio<1,1> >
_TEXT	ENDS
; Function compile flags: /Ogtpy
; File c:\users\alist_000\cppmisc\packages\visualcpptools.14.0.24629\lib\native\include\xmemory0
; File c:\users\alist_000\cppmisc\packages\visualcpptools.14.0.24629\lib\native\include\thread
; File c:\users\alist_000\cppmisc\packages\visualcpptools.14.0.24629\lib\native\include\memory
; File c:\users\alist_000\cppmisc\packages\visualcpptools.14.0.24629\lib\native\include\xmemory0
;	COMDAT ??$construct@Vthread@std@@V<lambda_e77d7e1e559843f44c4e0b6d970cdb28>@@@?$allocator@Vthread@std@@@std@@QEAAXPEAVthread@1@$$QEAV<lambda_e77d7e1e559843f44c4e0b6d970cdb28>@@@Z
_TEXT	SEGMENT
$T1 = 32
this$dead$ = 64
$T2 = 64
_Ptr$ = 72
<_Args_0>$dead$ = 80
$T3 = 80
??$construct@Vthread@std@@V<lambda_e77d7e1e559843f44c4e0b6d970cdb28>@@@?$allocator@Vthread@std@@@std@@QEAAXPEAVthread@1@$$QEAV<lambda_e77d7e1e559843f44c4e0b6d970cdb28>@@@Z PROC ; std::allocator<std::thread>::construct<std::thread,<lambda_e77d7e1e559843f44c4e0b6d970cdb28> >, COMDAT

; 832  : 		{	// construct _Objty(_Types...) at _Ptr

  00000	4c 89 44 24 18	 mov	 QWORD PTR [rsp+24], r8
  00005	48 89 54 24 10	 mov	 QWORD PTR [rsp+16], rdx
  0000a	48 89 4c 24 08	 mov	 QWORD PTR [rsp+8], rcx
  0000f	53		 push	 rbx
  00010	48 83 ec 30	 sub	 rsp, 48			; 00000030H
  00014	48 c7 44 24 20
	fe ff ff ff	 mov	 QWORD PTR $T1[rsp], -2
  0001d	48 8b da	 mov	 rbx, rdx

; 833  : 		::new ((void *)_Ptr) _Objty(_STD forward<_Types>(_Args)...);

  00020	48 89 54 24 40	 mov	 QWORD PTR $T2[rsp], rdx
  00025	48 85 d2	 test	 rdx, rdx
  00028	74 2c		 je	 SHORT $LN49@construct
; File c:\users\alist_000\cppmisc\packages\visualcpptools.14.0.24629\lib\native\include\thread

; 46   : 		_Launch(&_Thr,

  0002a	48 8d 4c 24 50	 lea	 rcx, QWORD PTR $T3[rsp]
  0002f	e8 00 00 00 00	 call	 ??$make_unique@V?$tuple@V<lambda_e77d7e1e559843f44c4e0b6d970cdb28>@@@std@@V<lambda_e77d7e1e559843f44c4e0b6d970cdb28>@@@std@@YA?AV?$unique_ptr@V?$tuple@V<lambda_e77d7e1e559843f44c4e0b6d970cdb28>@@@std@@U?$default_delete@V?$tuple@V<lambda_e77d7e1e559843f44c4e0b6d970cdb28>@@@std@@@2@@0@$$QEAV<lambda_e77d7e1e559843f44c4e0b6d970cdb28>@@@Z ; std::make_unique<std::tuple<<lambda_e77d7e1e559843f44c4e0b6d970cdb28> >,<lambda_e77d7e1e559843f44c4e0b6d970cdb28> >
  00034	90		 npad	 1
  00035	48 8b d0	 mov	 rdx, rax
  00038	48 8b cb	 mov	 rcx, rbx
  0003b	e8 00 00 00 00	 call	 ??$_Launch@V?$unique_ptr@V?$tuple@V<lambda_e77d7e1e559843f44c4e0b6d970cdb28>@@@std@@U?$default_delete@V?$tuple@V<lambda_e77d7e1e559843f44c4e0b6d970cdb28>@@@std@@@2@@std@@@std@@YAXPEAU_Thrd_imp_t@@$$QEAV?$unique_ptr@V?$tuple@V<lambda_e77d7e1e559843f44c4e0b6d970cdb28>@@@std@@U?$default_delete@V?$tuple@V<lambda_e77d7e1e559843f44c4e0b6d970cdb28>@@@std@@@2@@0@@Z ; std::_Launch<std::unique_ptr<std::tuple<<lambda_e77d7e1e559843f44c4e0b6d970cdb28> >,std::default_delete<std::tuple<<lambda_e77d7e1e559843f44c4e0b6d970cdb28> > > > >
  00040	90		 npad	 1
; File c:\users\alist_000\cppmisc\packages\visualcpptools.14.0.24629\lib\native\include\memory

; 1409 : 		if (get() != pointer())

  00041	48 8b 4c 24 50	 mov	 rcx, QWORD PTR $T3[rsp]
  00046	48 85 c9	 test	 rcx, rcx
  00049	74 0b		 je	 SHORT $LN49@construct

; 1199 : 		delete _Ptr;

  0004b	ba 01 00 00 00	 mov	 edx, 1
  00050	e8 00 00 00 00	 call	 ??3@YAXPEAX_K@Z		; operator delete
  00055	90		 npad	 1
$LN49@construct:
; File c:\users\alist_000\cppmisc\packages\visualcpptools.14.0.24629\lib\native\include\xmemory0

; 834  : 		}

  00056	48 83 c4 30	 add	 rsp, 48			; 00000030H
  0005a	5b		 pop	 rbx
  0005b	c3		 ret	 0
??$construct@Vthread@std@@V<lambda_e77d7e1e559843f44c4e0b6d970cdb28>@@@?$allocator@Vthread@std@@@std@@QEAAXPEAVthread@1@$$QEAV<lambda_e77d7e1e559843f44c4e0b6d970cdb28>@@@Z ENDP ; std::allocator<std::thread>::construct<std::thread,<lambda_e77d7e1e559843f44c4e0b6d970cdb28> >
_TEXT	ENDS
;	COMDAT text$x
text$x	SEGMENT
$T1 = 32
this$dead$ = 64
$T2 = 64
_Ptr$ = 72
<_Args_0>$dead$ = 80
$T3 = 80
?dtor$0@?0???$construct@Vthread@std@@V<lambda_e77d7e1e559843f44c4e0b6d970cdb28>@@@?$allocator@Vthread@std@@@std@@QEAAXPEAVthread@1@$$QEAV<lambda_e77d7e1e559843f44c4e0b6d970cdb28>@@@Z@4HA PROC ; `std::allocator<std::thread>::construct<std::thread,<lambda_e77d7e1e559843f44c4e0b6d970cdb28> >'::`1'::dtor$0
  00000	40 55		 push	 rbp
  00002	48 83 ec 20	 sub	 rsp, 32			; 00000020H
  00006	48 8b ea	 mov	 rbp, rdx
  00009	48 8b 55 48	 mov	 rdx, QWORD PTR _Ptr$[rbp]
  0000d	48 8b 4d 40	 mov	 rcx, QWORD PTR $T2[rbp]
  00011	e8 00 00 00 00	 call	 ??3@YAXPEAX0@Z		; operator delete
  00016	48 83 c4 20	 add	 rsp, 32			; 00000020H
  0001a	5d		 pop	 rbp
  0001b	c3		 ret	 0
?dtor$0@?0???$construct@Vthread@std@@V<lambda_e77d7e1e559843f44c4e0b6d970cdb28>@@@?$allocator@Vthread@std@@@std@@QEAAXPEAVthread@1@$$QEAV<lambda_e77d7e1e559843f44c4e0b6d970cdb28>@@@Z@4HA ENDP ; `std::allocator<std::thread>::construct<std::thread,<lambda_e77d7e1e559843f44c4e0b6d970cdb28> >'::`1'::dtor$0
$T1 = 32
this$dead$ = 64
$T2 = 64
_Ptr$ = 72
<_Args_0>$dead$ = 80
$T3 = 80
?dtor$2@?0???$construct@Vthread@std@@V<lambda_e77d7e1e559843f44c4e0b6d970cdb28>@@@?$allocator@Vthread@std@@@std@@QEAAXPEAVthread@1@$$QEAV<lambda_e77d7e1e559843f44c4e0b6d970cdb28>@@@Z@4HA PROC ; `std::allocator<std::thread>::construct<std::thread,<lambda_e77d7e1e559843f44c4e0b6d970cdb28> >'::`1'::dtor$2
  0001c	48 8d 8a 50 00
	00 00		 lea	 rcx, QWORD PTR $T3[rdx]
  00023	e9 00 00 00 00	 jmp	 ??1?$unique_ptr@V?$tuple@V<lambda_e77d7e1e559843f44c4e0b6d970cdb28>@@@std@@U?$default_delete@V?$tuple@V<lambda_e77d7e1e559843f44c4e0b6d970cdb28>@@@std@@@2@@std@@QEAA@XZ ; std::unique_ptr<std::tuple<<lambda_e77d7e1e559843f44c4e0b6d970cdb28> >,std::default_delete<std::tuple<<lambda_e77d7e1e559843f44c4e0b6d970cdb28> > > >::~unique_ptr<std::tuple<<lambda_e77d7e1e559843f44c4e0b6d970cdb28> >,std::default_delete<std::tuple<<lambda_e77d7e1e559843f44c4e0b6d970cdb28> > > >
?dtor$2@?0???$construct@Vthread@std@@V<lambda_e77d7e1e559843f44c4e0b6d970cdb28>@@@?$allocator@Vthread@std@@@std@@QEAAXPEAVthread@1@$$QEAV<lambda_e77d7e1e559843f44c4e0b6d970cdb28>@@@Z@4HA ENDP ; `std::allocator<std::thread>::construct<std::thread,<lambda_e77d7e1e559843f44c4e0b6d970cdb28> >'::`1'::dtor$2
text$x	ENDS
; Function compile flags: /Ogtpy
;	COMDAT text$x
text$x	SEGMENT
$T1 = 32
this$dead$ = 64
$T2 = 64
_Ptr$ = 72
<_Args_0>$dead$ = 80
$T3 = 80
?dtor$0@?0???$construct@Vthread@std@@V<lambda_e77d7e1e559843f44c4e0b6d970cdb28>@@@?$allocator@Vthread@std@@@std@@QEAAXPEAVthread@1@$$QEAV<lambda_e77d7e1e559843f44c4e0b6d970cdb28>@@@Z@4HA PROC ; `std::allocator<std::thread>::construct<std::thread,<lambda_e77d7e1e559843f44c4e0b6d970cdb28> >'::`1'::dtor$0
  00000	40 55		 push	 rbp
  00002	48 83 ec 20	 sub	 rsp, 32			; 00000020H
  00006	48 8b ea	 mov	 rbp, rdx
  00009	48 8b 55 48	 mov	 rdx, QWORD PTR _Ptr$[rbp]
  0000d	48 8b 4d 40	 mov	 rcx, QWORD PTR $T2[rbp]
  00011	e8 00 00 00 00	 call	 ??3@YAXPEAX0@Z		; operator delete
  00016	48 83 c4 20	 add	 rsp, 32			; 00000020H
  0001a	5d		 pop	 rbp
  0001b	c3		 ret	 0
?dtor$0@?0???$construct@Vthread@std@@V<lambda_e77d7e1e559843f44c4e0b6d970cdb28>@@@?$allocator@Vthread@std@@@std@@QEAAXPEAVthread@1@$$QEAV<lambda_e77d7e1e559843f44c4e0b6d970cdb28>@@@Z@4HA ENDP ; `std::allocator<std::thread>::construct<std::thread,<lambda_e77d7e1e559843f44c4e0b6d970cdb28> >'::`1'::dtor$0
text$x	ENDS
; Function compile flags: /Ogtpy
;	COMDAT text$x
text$x	SEGMENT
$T1 = 32
this$dead$ = 64
$T2 = 64
_Ptr$ = 72
<_Args_0>$dead$ = 80
$T3 = 80
?dtor$2@?0???$construct@Vthread@std@@V<lambda_e77d7e1e559843f44c4e0b6d970cdb28>@@@?$allocator@Vthread@std@@@std@@QEAAXPEAVthread@1@$$QEAV<lambda_e77d7e1e559843f44c4e0b6d970cdb28>@@@Z@4HA PROC ; `std::allocator<std::thread>::construct<std::thread,<lambda_e77d7e1e559843f44c4e0b6d970cdb28> >'::`1'::dtor$2
  0001c	48 8d 8a 50 00
	00 00		 lea	 rcx, QWORD PTR $T3[rdx]
  00023	e9 00 00 00 00	 jmp	 ??1?$unique_ptr@V?$tuple@V<lambda_e77d7e1e559843f44c4e0b6d970cdb28>@@@std@@U?$default_delete@V?$tuple@V<lambda_e77d7e1e559843f44c4e0b6d970cdb28>@@@std@@@2@@std@@QEAA@XZ ; std::unique_ptr<std::tuple<<lambda_e77d7e1e559843f44c4e0b6d970cdb28> >,std::default_delete<std::tuple<<lambda_e77d7e1e559843f44c4e0b6d970cdb28> > > >::~unique_ptr<std::tuple<<lambda_e77d7e1e559843f44c4e0b6d970cdb28> >,std::default_delete<std::tuple<<lambda_e77d7e1e559843f44c4e0b6d970cdb28> > > >
?dtor$2@?0???$construct@Vthread@std@@V<lambda_e77d7e1e559843f44c4e0b6d970cdb28>@@@?$allocator@Vthread@std@@@std@@QEAAXPEAVthread@1@$$QEAV<lambda_e77d7e1e559843f44c4e0b6d970cdb28>@@@Z@4HA ENDP ; `std::allocator<std::thread>::construct<std::thread,<lambda_e77d7e1e559843f44c4e0b6d970cdb28> >'::`1'::dtor$2
text$x	ENDS
; Function compile flags: /Ogtpy
; File c:\users\alist_000\cppmisc\packages\visualcpptools.14.0.24629\lib\native\include\xmemory0
; File c:\users\alist_000\cppmisc\packages\visualcpptools.14.0.24629\lib\native\include\thread
; File c:\users\alist_000\cppmisc\packages\visualcpptools.14.0.24629\lib\native\include\xmemory0
; File c:\users\alist_000\cppmisc\packages\visualcpptools.14.0.24629\lib\native\include\thread
; File c:\users\alist_000\cppmisc\packages\visualcpptools.14.0.24629\lib\native\include\xmemory0
;	COMDAT ??$destroy@Vthread@std@@@?$allocator@Vthread@std@@@std@@QEAAXPEAVthread@1@@Z
_TEXT	SEGMENT
this$dead$ = 48
_Ptr$ = 56
??$destroy@Vthread@std@@@?$allocator@Vthread@std@@@std@@QEAAXPEAVthread@1@@Z PROC ; std::allocator<std::thread>::destroy<std::thread>, COMDAT

; 838  : 		{	// destroy object at _Ptr

$LN19:
  00000	48 83 ec 28	 sub	 rsp, 40			; 00000028H
; File c:\users\alist_000\cppmisc\packages\visualcpptools.14.0.24629\lib\native\include\thread

; 79   : 		return (!_Thr_is_null(_Thr));

  00004	83 7a 08 00	 cmp	 DWORD PTR [rdx+8], 0

; 54   : 		if (joinable())

  00008	75 05		 jne	 SHORT $LN17@destroy
; File c:\users\alist_000\cppmisc\packages\visualcpptools.14.0.24629\lib\native\include\xmemory0

; 840  : 		}

  0000a	48 83 c4 28	 add	 rsp, 40			; 00000028H
  0000e	c3		 ret	 0
$LN17@destroy:
; File c:\users\alist_000\cppmisc\packages\visualcpptools.14.0.24629\lib\native\include\thread

; 55   : 			_STD terminate();

  0000f	e8 00 00 00 00	 call	 terminate
  00014	cc		 int	 3
$LN16@destroy:
??$destroy@Vthread@std@@@?$allocator@Vthread@std@@@std@@QEAAXPEAVthread@1@@Z ENDP ; std::allocator<std::thread>::destroy<std::thread>
_TEXT	ENDS
; Function compile flags: /Ogtpy
; File c:\users\alist_000\cppmisc\packages\visualcpptools.14.0.24629\lib\native\include\xmemory0
; File c:\users\alist_000\cppmisc\packages\visualcpptools.14.0.24629\lib\native\include\thread
; File c:\users\alist_000\cppmisc\packages\visualcpptools.14.0.24629\lib\native\include\xmemory0
;	COMDAT ??$construct@Vthread@std@@V12@@?$_Wrap_alloc@V?$allocator@Vthread@std@@@std@@@std@@QEAAXPEAVthread@1@$$QEAV21@@Z
_TEXT	SEGMENT
this$dead$ = 8
_Ptr$ = 16
<_Args_0>$ = 24
??$construct@Vthread@std@@V12@@?$_Wrap_alloc@V?$allocator@Vthread@std@@@std@@@std@@QEAAXPEAVthread@1@$$QEAV21@@Z PROC ; std::_Wrap_alloc<std::allocator<std::thread> >::construct<std::thread,std::thread>, COMDAT

; 833  : 		::new ((void *)_Ptr) _Objty(_STD forward<_Types>(_Args)...);

  00000	48 85 d2	 test	 rdx, rdx
  00003	74 10		 je	 SHORT $LN13@construct
; File c:\users\alist_000\cppmisc\packages\visualcpptools.14.0.24629\lib\native\include\thread

; 59   : 		: _Thr(_Other._Thr)

  00005	41 0f 10 00	 movups	 xmm0, XMMWORD PTR [r8]

; 60   : 		{	// move from _Other
; 61   : 		_Thr_set_null(_Other._Thr);

  00009	33 c0		 xor	 eax, eax
  0000b	0f 11 02	 movups	 XMMWORD PTR [rdx], xmm0
  0000e	49 89 00	 mov	 QWORD PTR [r8], rax
  00011	41 89 40 08	 mov	 DWORD PTR [r8+8], eax
$LN13@construct:
; File c:\users\alist_000\cppmisc\packages\visualcpptools.14.0.24629\lib\native\include\xmemory0

; 1091 : 		}

  00015	c3		 ret	 0
??$construct@Vthread@std@@V12@@?$_Wrap_alloc@V?$allocator@Vthread@std@@@std@@@std@@QEAAXPEAVthread@1@$$QEAV21@@Z ENDP ; std::_Wrap_alloc<std::allocator<std::thread> >::construct<std::thread,std::thread>
_TEXT	ENDS
; Function compile flags: /Ogtpy
; File c:\users\alist_000\cppmisc\packages\visualcpptools.14.0.24629\lib\native\include\thread
;	COMDAT ??_Gthread@std@@QEAAPEAXI@Z
_TEXT	SEGMENT
this$ = 48
__flags$dead$ = 56
??_Gthread@std@@QEAAPEAXI@Z PROC			; std::thread::`scalar deleting destructor', COMDAT
$LN15:
  00000	48 83 ec 28	 sub	 rsp, 40			; 00000028H

; 79   : 		return (!_Thr_is_null(_Thr));

  00004	83 79 08 00	 cmp	 DWORD PTR [rcx+8], 0

; 54   : 		if (joinable())

  00008	75 08		 jne	 SHORT $LN13@scalar
  0000a	48 8b c1	 mov	 rax, rcx
  0000d	48 83 c4 28	 add	 rsp, 40			; 00000028H
  00011	c3		 ret	 0
$LN13@scalar:

; 55   : 			_STD terminate();

  00012	e8 00 00 00 00	 call	 terminate
  00017	cc		 int	 3
$LN12@scalar:
??_Gthread@std@@QEAAPEAXI@Z ENDP			; std::thread::`scalar deleting destructor'
_TEXT	ENDS
; Function compile flags: /Ogtpy
; File c:\users\alist_000\cppmisc\packages\visualcpptools.14.0.24629\lib\native\include\thread
; File c:\users\alist_000\cppmisc\packages\visualcpptools.14.0.24629\lib\native\include\memory
; File c:\users\alist_000\cppmisc\packages\visualcpptools.14.0.24629\lib\native\include\thread
;	COMDAT ??$?0V<lambda_e77d7e1e559843f44c4e0b6d970cdb28>@@$$VX@thread@std@@QEAA@$$QEAV<lambda_e77d7e1e559843f44c4e0b6d970cdb28>@@@Z
_TEXT	SEGMENT
$T1 = 32
this$ = 64
_Fx$dead$ = 72
$T2 = 72
??$?0V<lambda_e77d7e1e559843f44c4e0b6d970cdb28>@@$$VX@thread@std@@QEAA@$$QEAV<lambda_e77d7e1e559843f44c4e0b6d970cdb28>@@@Z PROC ; std::thread::thread<<lambda_e77d7e1e559843f44c4e0b6d970cdb28>,void>, COMDAT

; 45   : 		{	// construct with _Fx(_Ax...)

  00000	48 89 54 24 10	 mov	 QWORD PTR [rsp+16], rdx
  00005	53		 push	 rbx
  00006	48 83 ec 30	 sub	 rsp, 48			; 00000030H
  0000a	48 c7 44 24 20
	fe ff ff ff	 mov	 QWORD PTR $T1[rsp], -2
  00013	48 8b d9	 mov	 rbx, rcx

; 46   : 		_Launch(&_Thr,

  00016	48 8d 4c 24 48	 lea	 rcx, QWORD PTR $T2[rsp]
  0001b	e8 00 00 00 00	 call	 ??$make_unique@V?$tuple@V<lambda_e77d7e1e559843f44c4e0b6d970cdb28>@@@std@@V<lambda_e77d7e1e559843f44c4e0b6d970cdb28>@@@std@@YA?AV?$unique_ptr@V?$tuple@V<lambda_e77d7e1e559843f44c4e0b6d970cdb28>@@@std@@U?$default_delete@V?$tuple@V<lambda_e77d7e1e559843f44c4e0b6d970cdb28>@@@std@@@2@@0@$$QEAV<lambda_e77d7e1e559843f44c4e0b6d970cdb28>@@@Z ; std::make_unique<std::tuple<<lambda_e77d7e1e559843f44c4e0b6d970cdb28> >,<lambda_e77d7e1e559843f44c4e0b6d970cdb28> >
  00020	90		 npad	 1
  00021	48 8b d0	 mov	 rdx, rax
  00024	48 8b cb	 mov	 rcx, rbx
  00027	e8 00 00 00 00	 call	 ??$_Launch@V?$unique_ptr@V?$tuple@V<lambda_e77d7e1e559843f44c4e0b6d970cdb28>@@@std@@U?$default_delete@V?$tuple@V<lambda_e77d7e1e559843f44c4e0b6d970cdb28>@@@std@@@2@@std@@@std@@YAXPEAU_Thrd_imp_t@@$$QEAV?$unique_ptr@V?$tuple@V<lambda_e77d7e1e559843f44c4e0b6d970cdb28>@@@std@@U?$default_delete@V?$tuple@V<lambda_e77d7e1e559843f44c4e0b6d970cdb28>@@@std@@@2@@0@@Z ; std::_Launch<std::unique_ptr<std::tuple<<lambda_e77d7e1e559843f44c4e0b6d970cdb28> >,std::default_delete<std::tuple<<lambda_e77d7e1e559843f44c4e0b6d970cdb28> > > > >
  0002c	90		 npad	 1
; File c:\users\alist_000\cppmisc\packages\visualcpptools.14.0.24629\lib\native\include\memory

; 1409 : 		if (get() != pointer())

  0002d	48 8b 4c 24 48	 mov	 rcx, QWORD PTR $T2[rsp]
  00032	48 85 c9	 test	 rcx, rcx
  00035	74 0a		 je	 SHORT $LN38@thread

; 1199 : 		delete _Ptr;

  00037	ba 01 00 00 00	 mov	 edx, 1
  0003c	e8 00 00 00 00	 call	 ??3@YAXPEAX_K@Z		; operator delete
$LN38@thread:
; File c:\users\alist_000\cppmisc\packages\visualcpptools.14.0.24629\lib\native\include\thread

; 49   : 		}

  00041	48 8b c3	 mov	 rax, rbx
  00044	48 83 c4 30	 add	 rsp, 48			; 00000030H
  00048	5b		 pop	 rbx
  00049	c3		 ret	 0
??$?0V<lambda_e77d7e1e559843f44c4e0b6d970cdb28>@@$$VX@thread@std@@QEAA@$$QEAV<lambda_e77d7e1e559843f44c4e0b6d970cdb28>@@@Z ENDP ; std::thread::thread<<lambda_e77d7e1e559843f44c4e0b6d970cdb28>,void>
_TEXT	ENDS
;	COMDAT text$x
text$x	SEGMENT
$T1 = 32
this$ = 64
_Fx$dead$ = 72
$T2 = 72
?dtor$0@?0???$?0V<lambda_e77d7e1e559843f44c4e0b6d970cdb28>@@$$VX@thread@std@@QEAA@$$QEAV<lambda_e77d7e1e559843f44c4e0b6d970cdb28>@@@Z@4HA PROC ; `std::thread::thread<<lambda_e77d7e1e559843f44c4e0b6d970cdb28>,void>'::`1'::dtor$0
  00000	48 8d 8a 48 00
	00 00		 lea	 rcx, QWORD PTR $T2[rdx]
  00007	e9 00 00 00 00	 jmp	 ??1?$unique_ptr@V?$tuple@V<lambda_e77d7e1e559843f44c4e0b6d970cdb28>@@@std@@U?$default_delete@V?$tuple@V<lambda_e77d7e1e559843f44c4e0b6d970cdb28>@@@std@@@2@@std@@QEAA@XZ ; std::unique_ptr<std::tuple<<lambda_e77d7e1e559843f44c4e0b6d970cdb28> >,std::default_delete<std::tuple<<lambda_e77d7e1e559843f44c4e0b6d970cdb28> > > >::~unique_ptr<std::tuple<<lambda_e77d7e1e559843f44c4e0b6d970cdb28> >,std::default_delete<std::tuple<<lambda_e77d7e1e559843f44c4e0b6d970cdb28> > > >
?dtor$0@?0???$?0V<lambda_e77d7e1e559843f44c4e0b6d970cdb28>@@$$VX@thread@std@@QEAA@$$QEAV<lambda_e77d7e1e559843f44c4e0b6d970cdb28>@@@Z@4HA ENDP ; `std::thread::thread<<lambda_e77d7e1e559843f44c4e0b6d970cdb28>,void>'::`1'::dtor$0
text$x	ENDS
; Function compile flags: /Ogtpy
;	COMDAT text$x
text$x	SEGMENT
$T1 = 32
this$ = 64
_Fx$dead$ = 72
$T2 = 72
?dtor$0@?0???$?0V<lambda_e77d7e1e559843f44c4e0b6d970cdb28>@@$$VX@thread@std@@QEAA@$$QEAV<lambda_e77d7e1e559843f44c4e0b6d970cdb28>@@@Z@4HA PROC ; `std::thread::thread<<lambda_e77d7e1e559843f44c4e0b6d970cdb28>,void>'::`1'::dtor$0
  00000	48 8d 8a 48 00
	00 00		 lea	 rcx, QWORD PTR $T2[rdx]
  00007	e9 00 00 00 00	 jmp	 ??1?$unique_ptr@V?$tuple@V<lambda_e77d7e1e559843f44c4e0b6d970cdb28>@@@std@@U?$default_delete@V?$tuple@V<lambda_e77d7e1e559843f44c4e0b6d970cdb28>@@@std@@@2@@std@@QEAA@XZ ; std::unique_ptr<std::tuple<<lambda_e77d7e1e559843f44c4e0b6d970cdb28> >,std::default_delete<std::tuple<<lambda_e77d7e1e559843f44c4e0b6d970cdb28> > > >::~unique_ptr<std::tuple<<lambda_e77d7e1e559843f44c4e0b6d970cdb28> >,std::default_delete<std::tuple<<lambda_e77d7e1e559843f44c4e0b6d970cdb28> > > >
?dtor$0@?0???$?0V<lambda_e77d7e1e559843f44c4e0b6d970cdb28>@@$$VX@thread@std@@QEAA@$$QEAV<lambda_e77d7e1e559843f44c4e0b6d970cdb28>@@@Z@4HA ENDP ; `std::thread::thread<<lambda_e77d7e1e559843f44c4e0b6d970cdb28>,void>'::`1'::dtor$0
text$x	ENDS
; Function compile flags: /Ogtpy
; File c:\users\alist_000\cppmisc\packages\visualcpptools.14.0.24629\lib\native\include\type_traits
;	COMDAT ??$forward@Vthread@std@@@std@@YA$$QEAVthread@0@AEAV10@@Z
_TEXT	SEGMENT
_Arg$ = 8
??$forward@Vthread@std@@@std@@YA$$QEAVthread@0@AEAV10@@Z PROC ; std::forward<std::thread>, COMDAT

; 1330 : 	return (static_cast<_Ty&&>(_Arg));

  00000	48 8b c1	 mov	 rax, rcx

; 1331 : 	}

  00003	c3		 ret	 0
??$forward@Vthread@std@@@std@@YA$$QEAVthread@0@AEAV10@@Z ENDP ; std::forward<std::thread>
_TEXT	ENDS
; Function compile flags: /Ogtpy
; File c:\users\alist_000\cppmisc\packages\visualcpptools.14.0.24629\lib\native\include\xmemory0
; File c:\users\alist_000\cppmisc\packages\visualcpptools.14.0.24629\lib\native\include\thread
; File c:\users\alist_000\cppmisc\packages\visualcpptools.14.0.24629\lib\native\include\xmemory0
;	COMDAT ??$construct@Vthread@std@@V12@@?$allocator_traits@V?$allocator@Vthread@std@@@std@@@std@@SAXAEAV?$allocator@Vthread@std@@@1@PEAVthread@1@$$QEAV31@@Z
_TEXT	SEGMENT
_Al$dead$ = 8
_Ptr$ = 16
<_Args_0>$ = 24
??$construct@Vthread@std@@V12@@?$allocator_traits@V?$allocator@Vthread@std@@@std@@@std@@SAXAEAV?$allocator@Vthread@std@@@1@PEAVthread@1@$$QEAV31@@Z PROC ; std::allocator_traits<std::allocator<std::thread> >::construct<std::thread,std::thread>, COMDAT

; 833  : 		::new ((void *)_Ptr) _Objty(_STD forward<_Types>(_Args)...);

  00000	48 85 d2	 test	 rdx, rdx
  00003	74 10		 je	 SHORT $LN8@construct
; File c:\users\alist_000\cppmisc\packages\visualcpptools.14.0.24629\lib\native\include\thread

; 59   : 		: _Thr(_Other._Thr)

  00005	41 0f 10 00	 movups	 xmm0, XMMWORD PTR [r8]

; 60   : 		{	// move from _Other
; 61   : 		_Thr_set_null(_Other._Thr);

  00009	33 c0		 xor	 eax, eax
  0000b	0f 11 02	 movups	 XMMWORD PTR [rdx], xmm0
  0000e	49 89 00	 mov	 QWORD PTR [r8], rax
  00011	41 89 40 08	 mov	 DWORD PTR [r8+8], eax
$LN8@construct:
; File c:\users\alist_000\cppmisc\packages\visualcpptools.14.0.24629\lib\native\include\xmemory0

; 953  : 		}

  00015	c3		 ret	 0
??$construct@Vthread@std@@V12@@?$allocator_traits@V?$allocator@Vthread@std@@@std@@@std@@SAXAEAV?$allocator@Vthread@std@@@1@PEAVthread@1@$$QEAV31@@Z ENDP ; std::allocator_traits<std::allocator<std::thread> >::construct<std::thread,std::thread>
_TEXT	ENDS
; Function compile flags: /Ogtpy
; File c:\users\alist_000\cppmisc\packages\visualcpptools.14.0.24629\lib\native\include\memory
;	COMDAT ??1?$unique_ptr@V?$tuple@V<lambda_e77d7e1e559843f44c4e0b6d970cdb28>@@@std@@U?$default_delete@V?$tuple@V<lambda_e77d7e1e559843f44c4e0b6d970cdb28>@@@std@@@2@@std@@QEAA@XZ
_TEXT	SEGMENT
this$ = 8
??1?$unique_ptr@V?$tuple@V<lambda_e77d7e1e559843f44c4e0b6d970cdb28>@@@std@@U?$default_delete@V?$tuple@V<lambda_e77d7e1e559843f44c4e0b6d970cdb28>@@@std@@@2@@std@@QEAA@XZ PROC ; std::unique_ptr<std::tuple<<lambda_e77d7e1e559843f44c4e0b6d970cdb28> >,std::default_delete<std::tuple<<lambda_e77d7e1e559843f44c4e0b6d970cdb28> > > >::~unique_ptr<std::tuple<<lambda_e77d7e1e559843f44c4e0b6d970cdb28> >,std::default_delete<std::tuple<<lambda_e77d7e1e559843f44c4e0b6d970cdb28> > > >, COMDAT

; 1409 : 		if (get() != pointer())

  00000	48 8b 09	 mov	 rcx, QWORD PTR [rcx]
  00003	48 85 c9	 test	 rcx, rcx
  00006	74 0a		 je	 SHORT $LN29@unique_ptr

; 1199 : 		delete _Ptr;

  00008	ba 01 00 00 00	 mov	 edx, 1
  0000d	e9 00 00 00 00	 jmp	 ??3@YAXPEAX_K@Z		; operator delete
$LN29@unique_ptr:

; 1410 : 			this->get_deleter()(get());
; 1411 : 		}

  00012	c3		 ret	 0
??1?$unique_ptr@V?$tuple@V<lambda_e77d7e1e559843f44c4e0b6d970cdb28>@@@std@@U?$default_delete@V?$tuple@V<lambda_e77d7e1e559843f44c4e0b6d970cdb28>@@@std@@@2@@std@@QEAA@XZ ENDP ; std::unique_ptr<std::tuple<<lambda_e77d7e1e559843f44c4e0b6d970cdb28> >,std::default_delete<std::tuple<<lambda_e77d7e1e559843f44c4e0b6d970cdb28> > > >::~unique_ptr<std::tuple<<lambda_e77d7e1e559843f44c4e0b6d970cdb28> >,std::default_delete<std::tuple<<lambda_e77d7e1e559843f44c4e0b6d970cdb28> > > >
_TEXT	ENDS
; Function compile flags: /Ogtpy
; File c:\users\alist_000\cppmisc\packages\visualcpptools.14.0.24629\lib\native\include\memory
;	COMDAT ?get_deleter@?$_Unique_ptr_base@V?$tuple@V<lambda_e77d7e1e559843f44c4e0b6d970cdb28>@@@std@@U?$default_delete@V?$tuple@V<lambda_e77d7e1e559843f44c4e0b6d970cdb28>@@@std@@@2@@std@@QEAAAEAU?$default_delete@V?$tuple@V<lambda_e77d7e1e559843f44c4e0b6d970cdb28>@@@std@@@2@XZ
_TEXT	SEGMENT
this$ = 8
?get_deleter@?$_Unique_ptr_base@V?$tuple@V<lambda_e77d7e1e559843f44c4e0b6d970cdb28>@@@std@@U?$default_delete@V?$tuple@V<lambda_e77d7e1e559843f44c4e0b6d970cdb28>@@@std@@@2@@std@@QEAAAEAU?$default_delete@V?$tuple@V<lambda_e77d7e1e559843f44c4e0b6d970cdb28>@@@std@@@2@XZ PROC ; std::_Unique_ptr_base<std::tuple<<lambda_e77d7e1e559843f44c4e0b6d970cdb28> >,std::default_delete<std::tuple<<lambda_e77d7e1e559843f44c4e0b6d970cdb28> > > >::get_deleter, COMDAT

; 1266 : 		return (_Mypair._Get_first());

  00000	48 8b c1	 mov	 rax, rcx

; 1267 : 		}

  00003	c3		 ret	 0
?get_deleter@?$_Unique_ptr_base@V?$tuple@V<lambda_e77d7e1e559843f44c4e0b6d970cdb28>@@@std@@U?$default_delete@V?$tuple@V<lambda_e77d7e1e559843f44c4e0b6d970cdb28>@@@std@@@2@@std@@QEAAAEAU?$default_delete@V?$tuple@V<lambda_e77d7e1e559843f44c4e0b6d970cdb28>@@@std@@@2@XZ ENDP ; std::_Unique_ptr_base<std::tuple<<lambda_e77d7e1e559843f44c4e0b6d970cdb28> >,std::default_delete<std::tuple<<lambda_e77d7e1e559843f44c4e0b6d970cdb28> > > >::get_deleter
_TEXT	ENDS
; Function compile flags: /Ogtpy
; File c:\users\alist_000\cppmisc\packages\visualcpptools.14.0.24629\lib\native\include\memory
;	COMDAT ?get@?$unique_ptr@V?$tuple@V<lambda_e77d7e1e559843f44c4e0b6d970cdb28>@@@std@@U?$default_delete@V?$tuple@V<lambda_e77d7e1e559843f44c4e0b6d970cdb28>@@@std@@@2@@std@@QEBAPEAV?$tuple@V<lambda_e77d7e1e559843f44c4e0b6d970cdb28>@@@2@XZ
_TEXT	SEGMENT
this$ = 8
?get@?$unique_ptr@V?$tuple@V<lambda_e77d7e1e559843f44c4e0b6d970cdb28>@@@std@@U?$default_delete@V?$tuple@V<lambda_e77d7e1e559843f44c4e0b6d970cdb28>@@@std@@@2@@std@@QEBAPEAV?$tuple@V<lambda_e77d7e1e559843f44c4e0b6d970cdb28>@@@2@XZ PROC ; std::unique_ptr<std::tuple<<lambda_e77d7e1e559843f44c4e0b6d970cdb28> >,std::default_delete<std::tuple<<lambda_e77d7e1e559843f44c4e0b6d970cdb28> > > >::get, COMDAT

; 1425 : 		return (this->_Myptr());

  00000	48 8b 01	 mov	 rax, QWORD PTR [rcx]

; 1426 : 		}

  00003	c3		 ret	 0
?get@?$unique_ptr@V?$tuple@V<lambda_e77d7e1e559843f44c4e0b6d970cdb28>@@@std@@U?$default_delete@V?$tuple@V<lambda_e77d7e1e559843f44c4e0b6d970cdb28>@@@std@@@2@@std@@QEBAPEAV?$tuple@V<lambda_e77d7e1e559843f44c4e0b6d970cdb28>@@@2@XZ ENDP ; std::unique_ptr<std::tuple<<lambda_e77d7e1e559843f44c4e0b6d970cdb28> >,std::default_delete<std::tuple<<lambda_e77d7e1e559843f44c4e0b6d970cdb28> > > >::get
_TEXT	ENDS
; Function compile flags: /Ogtpy
; File c:\users\alist_000\cppmisc\packages\visualcpptools.14.0.24629\lib\native\include\memory
;	COMDAT ??R?$default_delete@V?$tuple@V<lambda_e77d7e1e559843f44c4e0b6d970cdb28>@@@std@@@std@@QEBAXPEAV?$tuple@V<lambda_e77d7e1e559843f44c4e0b6d970cdb28>@@@1@@Z
_TEXT	SEGMENT
this$dead$ = 8
_Ptr$ = 16
??R?$default_delete@V?$tuple@V<lambda_e77d7e1e559843f44c4e0b6d970cdb28>@@@std@@@std@@QEBAXPEAV?$tuple@V<lambda_e77d7e1e559843f44c4e0b6d970cdb28>@@@1@@Z PROC ; std::default_delete<std::tuple<<lambda_e77d7e1e559843f44c4e0b6d970cdb28> > >::operator(), COMDAT

; 1196 : 		{	// delete a pointer

  00000	48 8b ca	 mov	 rcx, rdx

; 1197 : 		static_assert(0 < sizeof (_Ty),
; 1198 : 			"can't delete an incomplete type");
; 1199 : 		delete _Ptr;

  00003	ba 01 00 00 00	 mov	 edx, 1
  00008	e9 00 00 00 00	 jmp	 ??3@YAXPEAX_K@Z		; operator delete
??R?$default_delete@V?$tuple@V<lambda_e77d7e1e559843f44c4e0b6d970cdb28>@@@std@@@std@@QEBAXPEAV?$tuple@V<lambda_e77d7e1e559843f44c4e0b6d970cdb28>@@@1@@Z ENDP ; std::default_delete<std::tuple<<lambda_e77d7e1e559843f44c4e0b6d970cdb28> > >::operator()
_TEXT	ENDS
; Function compile flags: /Ogtpy
; File c:\users\alist_000\cppmisc\packages\visualcpptools.14.0.24629\lib\native\include\xutility
;	COMDAT ?_Get_first@?$_Compressed_pair@U?$default_delete@V?$tuple@V<lambda_e77d7e1e559843f44c4e0b6d970cdb28>@@@std@@@std@@PEAV?$tuple@V<lambda_e77d7e1e559843f44c4e0b6d970cdb28>@@@2@$00@std@@QEAAAEAU?$default_delete@V?$tuple@V<lambda_e77d7e1e559843f44c4e0b6d970cdb28>@@@std@@@2@XZ
_TEXT	SEGMENT
this$ = 8
?_Get_first@?$_Compressed_pair@U?$default_delete@V?$tuple@V<lambda_e77d7e1e559843f44c4e0b6d970cdb28>@@@std@@@std@@PEAV?$tuple@V<lambda_e77d7e1e559843f44c4e0b6d970cdb28>@@@2@$00@std@@QEAAAEAU?$default_delete@V?$tuple@V<lambda_e77d7e1e559843f44c4e0b6d970cdb28>@@@std@@@2@XZ PROC ; std::_Compressed_pair<std::default_delete<std::tuple<<lambda_e77d7e1e559843f44c4e0b6d970cdb28> > >,std::tuple<<lambda_e77d7e1e559843f44c4e0b6d970cdb28> > * __ptr64,1>::_Get_first, COMDAT

; 309  : 		return (*this);

  00000	48 8b c1	 mov	 rax, rcx

; 310  : 		}

  00003	c3		 ret	 0
?_Get_first@?$_Compressed_pair@U?$default_delete@V?$tuple@V<lambda_e77d7e1e559843f44c4e0b6d970cdb28>@@@std@@@std@@PEAV?$tuple@V<lambda_e77d7e1e559843f44c4e0b6d970cdb28>@@@2@$00@std@@QEAAAEAU?$default_delete@V?$tuple@V<lambda_e77d7e1e559843f44c4e0b6d970cdb28>@@@std@@@2@XZ ENDP ; std::_Compressed_pair<std::default_delete<std::tuple<<lambda_e77d7e1e559843f44c4e0b6d970cdb28> > >,std::tuple<<lambda_e77d7e1e559843f44c4e0b6d970cdb28> > * __ptr64,1>::_Get_first
_TEXT	ENDS
; Function compile flags: /Ogtpy
; File c:\users\alist_000\cppmisc\packages\visualcpptools.14.0.24629\lib\native\include\memory
;	COMDAT ?_Myptr@?$_Unique_ptr_base@V?$tuple@V<lambda_e77d7e1e559843f44c4e0b6d970cdb28>@@@std@@U?$default_delete@V?$tuple@V<lambda_e77d7e1e559843f44c4e0b6d970cdb28>@@@std@@@2@@std@@QEBAAEBQEAV?$tuple@V<lambda_e77d7e1e559843f44c4e0b6d970cdb28>@@@2@XZ
_TEXT	SEGMENT
this$ = 8
?_Myptr@?$_Unique_ptr_base@V?$tuple@V<lambda_e77d7e1e559843f44c4e0b6d970cdb28>@@@std@@U?$default_delete@V?$tuple@V<lambda_e77d7e1e559843f44c4e0b6d970cdb28>@@@std@@@2@@std@@QEBAAEBQEAV?$tuple@V<lambda_e77d7e1e559843f44c4e0b6d970cdb28>@@@2@XZ PROC ; std::_Unique_ptr_base<std::tuple<<lambda_e77d7e1e559843f44c4e0b6d970cdb28> >,std::default_delete<std::tuple<<lambda_e77d7e1e559843f44c4e0b6d970cdb28> > > >::_Myptr, COMDAT

; 1281 : 		return (_Mypair._Get_second());

  00000	48 8b c1	 mov	 rax, rcx

; 1282 : 		}

  00003	c3		 ret	 0
?_Myptr@?$_Unique_ptr_base@V?$tuple@V<lambda_e77d7e1e559843f44c4e0b6d970cdb28>@@@std@@U?$default_delete@V?$tuple@V<lambda_e77d7e1e559843f44c4e0b6d970cdb28>@@@std@@@2@@std@@QEBAAEBQEAV?$tuple@V<lambda_e77d7e1e559843f44c4e0b6d970cdb28>@@@2@XZ ENDP ; std::_Unique_ptr_base<std::tuple<<lambda_e77d7e1e559843f44c4e0b6d970cdb28> >,std::default_delete<std::tuple<<lambda_e77d7e1e559843f44c4e0b6d970cdb28> > > >::_Myptr
_TEXT	ENDS
; Function compile flags: /Ogtpy
; File c:\users\alist_000\cppmisc\packages\visualcpptools.14.0.24629\lib\native\include\xutility
;	COMDAT ?_Get_second@?$_Compressed_pair@U?$default_delete@V?$tuple@V<lambda_e77d7e1e559843f44c4e0b6d970cdb28>@@@std@@@std@@PEAV?$tuple@V<lambda_e77d7e1e559843f44c4e0b6d970cdb28>@@@2@$00@std@@QEBAAEBQEAV?$tuple@V<lambda_e77d7e1e559843f44c4e0b6d970cdb28>@@@2@XZ
_TEXT	SEGMENT
this$ = 8
?_Get_second@?$_Compressed_pair@U?$default_delete@V?$tuple@V<lambda_e77d7e1e559843f44c4e0b6d970cdb28>@@@std@@@std@@PEAV?$tuple@V<lambda_e77d7e1e559843f44c4e0b6d970cdb28>@@@2@$00@std@@QEBAAEBQEAV?$tuple@V<lambda_e77d7e1e559843f44c4e0b6d970cdb28>@@@2@XZ PROC ; std::_Compressed_pair<std::default_delete<std::tuple<<lambda_e77d7e1e559843f44c4e0b6d970cdb28> > >,std::tuple<<lambda_e77d7e1e559843f44c4e0b6d970cdb28> > * __ptr64,1>::_Get_second, COMDAT

; 334  : 		return (_Myval2);

  00000	48 8b c1	 mov	 rax, rcx

; 335  : 		}

  00003	c3		 ret	 0
?_Get_second@?$_Compressed_pair@U?$default_delete@V?$tuple@V<lambda_e77d7e1e559843f44c4e0b6d970cdb28>@@@std@@@std@@PEAV?$tuple@V<lambda_e77d7e1e559843f44c4e0b6d970cdb28>@@@2@$00@std@@QEBAAEBQEAV?$tuple@V<lambda_e77d7e1e559843f44c4e0b6d970cdb28>@@@2@XZ ENDP ; std::_Compressed_pair<std::default_delete<std::tuple<<lambda_e77d7e1e559843f44c4e0b6d970cdb28> > >,std::tuple<<lambda_e77d7e1e559843f44c4e0b6d970cdb28> > * __ptr64,1>::_Get_second
_TEXT	ENDS
; Function compile flags: /Ogtpy
; File c:\users\alist_000\cppmisc\packages\visualcpptools.14.0.24629\lib\native\include\memory
; File c:\users\alist_000\cppmisc\packages\visualcpptools.14.0.24629\lib\native\include\xutility
; File c:\users\alist_000\cppmisc\packages\visualcpptools.14.0.24629\lib\native\include\memory
;	COMDAT ??$make_unique@V?$tuple@V<lambda_e77d7e1e559843f44c4e0b6d970cdb28>@@@std@@V<lambda_e77d7e1e559843f44c4e0b6d970cdb28>@@@std@@YA?AV?$unique_ptr@V?$tuple@V<lambda_e77d7e1e559843f44c4e0b6d970cdb28>@@@std@@U?$default_delete@V?$tuple@V<lambda_e77d7e1e559843f44c4e0b6d970cdb28>@@@std@@@2@@0@$$QEAV<lambda_e77d7e1e559843f44c4e0b6d970cdb28>@@@Z
_TEXT	SEGMENT
$T1 = 32
__$ReturnUdt$ = 64
<_Args_0>$dead$ = 72
$T2 = 72
??$make_unique@V?$tuple@V<lambda_e77d7e1e559843f44c4e0b6d970cdb28>@@@std@@V<lambda_e77d7e1e559843f44c4e0b6d970cdb28>@@@std@@YA?AV?$unique_ptr@V?$tuple@V<lambda_e77d7e1e559843f44c4e0b6d970cdb28>@@@std@@U?$default_delete@V?$tuple@V<lambda_e77d7e1e559843f44c4e0b6d970cdb28>@@@std@@@2@@0@$$QEAV<lambda_e77d7e1e559843f44c4e0b6d970cdb28>@@@Z PROC ; std::make_unique<std::tuple<<lambda_e77d7e1e559843f44c4e0b6d970cdb28> >,<lambda_e77d7e1e559843f44c4e0b6d970cdb28> >, COMDAT

; 1644 : 	{	// make a unique_ptr

  00000	40 53		 push	 rbx
  00002	48 83 ec 30	 sub	 rsp, 48			; 00000030H
  00006	48 8b d9	 mov	 rbx, rcx
  00009	c7 44 24 20 00
	00 00 00	 mov	 DWORD PTR $T1[rsp], 0

; 1645 : 	return (unique_ptr<_Ty>(new _Ty(_STD forward<_Types>(_Args)...)));

  00011	b9 01 00 00 00	 mov	 ecx, 1
  00016	e8 00 00 00 00	 call	 ??2@YAPEAX_K@Z		; operator new
  0001b	48 89 44 24 48	 mov	 QWORD PTR $T2[rsp], rax
; File c:\users\alist_000\cppmisc\packages\visualcpptools.14.0.24629\lib\native\include\xutility

; 293  : 		: _Ty1(), _Myval2(_STD forward<_Other2>(_Val2)...)

  00020	48 89 03	 mov	 QWORD PTR [rbx], rax
; File c:\users\alist_000\cppmisc\packages\visualcpptools.14.0.24629\lib\native\include\memory

; 1645 : 	return (unique_ptr<_Ty>(new _Ty(_STD forward<_Types>(_Args)...)));

  00023	48 8b c3	 mov	 rax, rbx

; 1646 : 	}

  00026	48 83 c4 30	 add	 rsp, 48			; 00000030H
  0002a	5b		 pop	 rbx
  0002b	c3		 ret	 0
??$make_unique@V?$tuple@V<lambda_e77d7e1e559843f44c4e0b6d970cdb28>@@@std@@V<lambda_e77d7e1e559843f44c4e0b6d970cdb28>@@@std@@YA?AV?$unique_ptr@V?$tuple@V<lambda_e77d7e1e559843f44c4e0b6d970cdb28>@@@std@@U?$default_delete@V?$tuple@V<lambda_e77d7e1e559843f44c4e0b6d970cdb28>@@@std@@@2@@0@$$QEAV<lambda_e77d7e1e559843f44c4e0b6d970cdb28>@@@Z ENDP ; std::make_unique<std::tuple<<lambda_e77d7e1e559843f44c4e0b6d970cdb28> >,<lambda_e77d7e1e559843f44c4e0b6d970cdb28> >
_TEXT	ENDS
; Function compile flags: /Ogtpy
; File c:\users\alist_000\cppmisc\packages\visualcpptools.14.0.24629\lib\native\include\thr\xthread
; File c:\users\alist_000\cppmisc\packages\visualcpptools.14.0.24629\lib\native\include\memory
; File c:\users\alist_000\cppmisc\packages\visualcpptools.14.0.24629\lib\native\include\xutility
; File c:\users\alist_000\cppmisc\packages\visualcpptools.14.0.24629\lib\native\include\thr\xthread
; File c:\users\alist_000\cppmisc\packages\visualcpptools.14.0.24629\lib\native\include\memory
; File c:\users\alist_000\cppmisc\packages\visualcpptools.14.0.24629\lib\native\include\thr\xthread
;	COMDAT ??$_Launch@V?$unique_ptr@V?$tuple@V<lambda_e77d7e1e559843f44c4e0b6d970cdb28>@@@std@@U?$default_delete@V?$tuple@V<lambda_e77d7e1e559843f44c4e0b6d970cdb28>@@@std@@@2@@std@@@std@@YAXPEAU_Thrd_imp_t@@$$QEAV?$unique_ptr@V?$tuple@V<lambda_e77d7e1e559843f44c4e0b6d970cdb28>@@@std@@U?$default_delete@V?$tuple@V<lambda_e77d7e1e559843f44c4e0b6d970cdb28>@@@std@@@2@@0@@Z
_TEXT	SEGMENT
_Cnd_cleaner$1 = 40
_Mtx_cleaner$2 = 56
_Launcher$ = 72
_Thr$ = 128
_Tg$ = 136
??$_Launch@V?$unique_ptr@V?$tuple@V<lambda_e77d7e1e559843f44c4e0b6d970cdb28>@@@std@@U?$default_delete@V?$tuple@V<lambda_e77d7e1e559843f44c4e0b6d970cdb28>@@@std@@@2@@std@@@std@@YAXPEAU_Thrd_imp_t@@$$QEAV?$unique_ptr@V?$tuple@V<lambda_e77d7e1e559843f44c4e0b6d970cdb28>@@@std@@U?$default_delete@V?$tuple@V<lambda_e77d7e1e559843f44c4e0b6d970cdb28>@@@std@@@2@@0@@Z PROC ; std::_Launch<std::unique_ptr<std::tuple<<lambda_e77d7e1e559843f44c4e0b6d970cdb28> >,std::default_delete<std::tuple<<lambda_e77d7e1e559843f44c4e0b6d970cdb28> > > > >, COMDAT

; 257  : 	{	// launch a new thread

  00000	48 8b c4	 mov	 rax, rsp
  00003	57		 push	 rdi
  00004	48 83 ec 70	 sub	 rsp, 112		; 00000070H
  00008	48 c7 40 a8 fe
	ff ff ff	 mov	 QWORD PTR [rax-88], -2
  00010	48 89 58 08	 mov	 QWORD PTR [rax+8], rbx
  00014	48 89 70 10	 mov	 QWORD PTR [rax+16], rsi
  00018	48 8b da	 mov	 rbx, rdx
  0001b	48 8b f9	 mov	 rdi, rcx

; 168  : 		{	// initialize handshake

  0001e	48 8d 35 00 00
	00 00		 lea	 rsi, OFFSET FLAT:??_7_Pad@std@@6B@
  00025	48 89 70 d0	 mov	 QWORD PTR [rax-48], rsi

; 90   : 	return (_Check_C_return(_Cnd_init(_Cnd)));

  00029	48 8d 48 d8	 lea	 rcx, QWORD PTR [rax-40]
  0002d	e8 00 00 00 00	 call	 _Cnd_init

; 34   : 	if (_Res != _Thrd_success)

  00032	85 c0		 test	 eax, eax
  00034	74 07		 je	 SHORT $LN18@Launch

; 35   : 		_Throw_C_error(_Res);

  00036	8b c8		 mov	 ecx, eax
  00038	e8 00 00 00 00	 call	 ?_Throw_C_error@std@@YAXH@Z ; std::_Throw_C_error
$LN18@Launch:

; 118  : 		: _Active(true), _MyCndp(_Cndp)

  0003d	c6 44 24 28 01	 mov	 BYTE PTR _Cnd_cleaner$1[rsp], 1
  00042	48 8b 44 24 50	 mov	 rax, QWORD PTR _Launcher$[rsp+8]
  00047	48 89 44 24 30	 mov	 QWORD PTR _Cnd_cleaner$1[rsp+8], rax

; 65   : 	return (_Check_C_return(_Mtx_init(_Mtx, _Type)));

  0004c	ba 01 00 00 00	 mov	 edx, 1
  00051	48 8d 4c 24 58	 lea	 rcx, QWORD PTR _Launcher$[rsp+16]
  00056	e8 00 00 00 00	 call	 _Mtx_init

; 34   : 	if (_Res != _Thrd_success)

  0005b	85 c0		 test	 eax, eax
  0005d	74 07		 je	 SHORT $LN25@Launch

; 35   : 		_Throw_C_error(_Res);

  0005f	8b c8		 mov	 ecx, eax
  00061	e8 00 00 00 00	 call	 ?_Throw_C_error@std@@YAXH@Z ; std::_Throw_C_error
$LN25@Launch:

; 142  : 		: _Active(true), _MyMtxp(_Mtxp)

  00066	c6 44 24 38 01	 mov	 BYTE PTR _Mtx_cleaner$2[rsp], 1
  0006b	48 8b 4c 24 58	 mov	 rcx, QWORD PTR _Launcher$[rsp+16]
  00070	48 89 4c 24 40	 mov	 QWORD PTR _Mtx_cleaner$2[rsp+8], rcx

; 173  : 		_Started = false;

  00075	c6 44 24 60 00	 mov	 BYTE PTR _Launcher$[rsp+24], 0

; 70   : 	return (_Check_C_return(_Mtx_lock(_Mtx)));

  0007a	e8 00 00 00 00	 call	 _Mtx_lock

; 34   : 	if (_Res != _Thrd_success)

  0007f	85 c0		 test	 eax, eax
  00081	74 08		 je	 SHORT $LN32@Launch

; 35   : 		_Throw_C_error(_Res);

  00083	8b c8		 mov	 ecx, eax
  00085	e8 00 00 00 00	 call	 ?_Throw_C_error@std@@YAXH@Z ; std::_Throw_C_error
  0008a	90		 npad	 1
$LN32@Launch:

; 227  : 		{	// construct from target

  0008b	48 8d 05 00 00
	00 00		 lea	 rax, OFFSET FLAT:??_7?$_LaunchPad@V?$unique_ptr@V?$tuple@V<lambda_e77d7e1e559843f44c4e0b6d970cdb28>@@@std@@U?$default_delete@V?$tuple@V<lambda_e77d7e1e559843f44c4e0b6d970cdb28>@@@std@@@2@@std@@@std@@6B@
  00092	48 89 44 24 48	 mov	 QWORD PTR _Launcher$[rsp], rax
; File c:\users\alist_000\cppmisc\packages\visualcpptools.14.0.24629\lib\native\include\memory

; 1425 : 		return (this->_Myptr());

  00097	48 8b 03	 mov	 rax, QWORD PTR [rbx]

; 1436 : 		this->_Myptr() = pointer();

  0009a	48 c7 03 00 00
	00 00		 mov	 QWORD PTR [rbx], 0
; File c:\users\alist_000\cppmisc\packages\visualcpptools.14.0.24629\lib\native\include\xutility

; 302  : 			_Myval2(_STD forward<_Other2>(_Val2)...)

  000a1	48 89 44 24 68	 mov	 QWORD PTR _Launcher$[rsp+32], rax
; File c:\users\alist_000\cppmisc\packages\visualcpptools.14.0.24629\lib\native\include\thr\xthread

; 49   : 	int _Res = _Thrd_start(_Thr, _Fp, _Arg);

  000a6	4c 8d 44 24 48	 lea	 r8, QWORD PTR _Launcher$[rsp]
  000ab	48 8d 15 00 00
	00 00		 lea	 rdx, OFFSET FLAT:?_Call_func@_Pad@std@@CAIPEAX@Z ; std::_Pad::_Call_func
  000b2	48 8b cf	 mov	 rcx, rdi
  000b5	e8 00 00 00 00	 call	 _Thrd_start

; 50   : 	return (_Check_C_return(_Res != _Thrd_error ? _Res : _Thrd_nomem));

  000ba	b9 01 00 00 00	 mov	 ecx, 1
  000bf	83 f8 04	 cmp	 eax, 4
  000c2	0f 45 c8	 cmovne	 ecx, eax

; 34   : 	if (_Res != _Thrd_success)

  000c5	85 c9		 test	 ecx, ecx
  000c7	74 05		 je	 SHORT $LN160@Launch

; 35   : 		_Throw_C_error(_Res);

  000c9	e8 00 00 00 00	 call	 ?_Throw_C_error@std@@YAXH@Z ; std::_Throw_C_error
$LN160@Launch:

; 189  : 		while (!_Started)

  000ce	80 7c 24 60 00	 cmp	 BYTE PTR _Launcher$[rsp+24], 0
  000d3	75 2c		 jne	 SHORT $LN94@Launch
  000d5	66 66 66 0f 1f
	84 00 00 00 00
	00		 npad	 11
$LL93@Launch:

; 95   : 	return (_Check_C_return(_Cnd_wait(_Cnd, _Mtx)));

  000e0	48 8b 54 24 58	 mov	 rdx, QWORD PTR _Launcher$[rsp+16]
  000e5	48 8b 4c 24 50	 mov	 rcx, QWORD PTR _Launcher$[rsp+8]
  000ea	e8 00 00 00 00	 call	 _Cnd_wait

; 34   : 	if (_Res != _Thrd_success)

  000ef	85 c0		 test	 eax, eax
  000f1	74 07		 je	 SHORT $LN104@Launch

; 35   : 		_Throw_C_error(_Res);

  000f3	8b c8		 mov	 ecx, eax
  000f5	e8 00 00 00 00	 call	 ?_Throw_C_error@std@@YAXH@Z ; std::_Throw_C_error
$LN104@Launch:

; 189  : 		while (!_Started)

  000fa	80 7c 24 60 00	 cmp	 BYTE PTR _Launcher$[rsp+24], 0
  000ff	74 df		 je	 SHORT $LL93@Launch
$LN94@Launch:
; File c:\users\alist_000\cppmisc\packages\visualcpptools.14.0.24629\lib\native\include\memory

; 1409 : 		if (get() != pointer())

  00101	48 8b 4c 24 68	 mov	 rcx, QWORD PTR _Launcher$[rsp+32]
  00106	48 85 c9	 test	 rcx, rcx
  00109	74 0b		 je	 SHORT $LN138@Launch

; 1199 : 		delete _Ptr;

  0010b	ba 01 00 00 00	 mov	 edx, 1
  00110	e8 00 00 00 00	 call	 ??3@YAXPEAX_K@Z		; operator delete
  00115	90		 npad	 1
$LN138@Launch:
; File c:\users\alist_000\cppmisc\packages\visualcpptools.14.0.24629\lib\native\include\thr\xthread

; 180  : 		{	// clean up handshake; non-virtual due to type-erasure

  00116	48 89 74 24 48	 mov	 QWORD PTR _Launcher$[rsp], rsi

; 118  : 		: _Active(true), _MyCndp(_Cndp)

  0011b	48 8b 7c 24 50	 mov	 rdi, QWORD PTR _Launcher$[rsp+8]

; 142  : 		: _Active(true), _MyMtxp(_Mtxp)

  00120	48 8b 5c 24 58	 mov	 rbx, QWORD PTR _Launcher$[rsp+16]

; 85   : 	return (_Check_C_return(_Mtx_unlock(_Mtx)));

  00125	48 8b cb	 mov	 rcx, rbx
  00128	e8 00 00 00 00	 call	 _Mtx_unlock

; 34   : 	if (_Res != _Thrd_success)

  0012d	85 c0		 test	 eax, eax
  0012f	74 07		 je	 SHORT $LN163@Launch

; 35   : 		_Throw_C_error(_Res);

  00131	8b c8		 mov	 ecx, eax
  00133	e8 00 00 00 00	 call	 ?_Throw_C_error@std@@YAXH@Z ; std::_Throw_C_error
$LN163@Launch:

; 149  : 			_Mtx_destroy(_MyMtxp);

  00138	48 8b cb	 mov	 rcx, rbx
  0013b	e8 00 00 00 00	 call	 _Mtx_destroy

; 125  : 			_Cnd_destroy(_MyCndp);

  00140	48 8b cf	 mov	 rcx, rdi
  00143	e8 00 00 00 00	 call	 _Cnd_destroy
  00148	90		 npad	 1

; 258  : 	_LaunchPad<_Target> _Launcher(_STD forward<_Target>(_Tg));
; 259  : 	_Launcher._Launch(_Thr);
; 260  : 	}

  00149	4c 8d 5c 24 70	 lea	 r11, QWORD PTR [rsp+112]
  0014e	49 8b 5b 10	 mov	 rbx, QWORD PTR [r11+16]
  00152	49 8b 73 18	 mov	 rsi, QWORD PTR [r11+24]
  00156	49 8b e3	 mov	 rsp, r11
  00159	5f		 pop	 rdi
  0015a	c3		 ret	 0
??$_Launch@V?$unique_ptr@V?$tuple@V<lambda_e77d7e1e559843f44c4e0b6d970cdb28>@@@std@@U?$default_delete@V?$tuple@V<lambda_e77d7e1e559843f44c4e0b6d970cdb28>@@@std@@@2@@std@@@std@@YAXPEAU_Thrd_imp_t@@$$QEAV?$unique_ptr@V?$tuple@V<lambda_e77d7e1e559843f44c4e0b6d970cdb28>@@@std@@U?$default_delete@V?$tuple@V<lambda_e77d7e1e559843f44c4e0b6d970cdb28>@@@std@@@2@@0@@Z ENDP ; std::_Launch<std::unique_ptr<std::tuple<<lambda_e77d7e1e559843f44c4e0b6d970cdb28> >,std::default_delete<std::tuple<<lambda_e77d7e1e559843f44c4e0b6d970cdb28> > > > >
_TEXT	ENDS
;	COMDAT text$x
text$x	SEGMENT
_Cnd_cleaner$1 = 40
_Mtx_cleaner$2 = 56
_Launcher$ = 72
_Thr$ = 128
_Tg$ = 136
?dtor$4@?0???$_Launch@V?$unique_ptr@V?$tuple@V<lambda_e77d7e1e559843f44c4e0b6d970cdb28>@@@std@@U?$default_delete@V?$tuple@V<lambda_e77d7e1e559843f44c4e0b6d970cdb28>@@@std@@@2@@std@@@std@@YAXPEAU_Thrd_imp_t@@$$QEAV?$unique_ptr@V?$tuple@V<lambda_e77d7e1e559843f44c4e0b6d970cdb28>@@@std@@U?$default_delete@V?$tuple@V<lambda_e77d7e1e559843f44c4e0b6d970cdb28>@@@std@@@2@@0@@Z@4HA PROC ; `std::_Launch<std::unique_ptr<std::tuple<<lambda_e77d7e1e559843f44c4e0b6d970cdb28> >,std::default_delete<std::tuple<<lambda_e77d7e1e559843f44c4e0b6d970cdb28> > > > >'::`1'::dtor$4
  00000	48 8d 8a 28 00
	00 00		 lea	 rcx, QWORD PTR _Cnd_cleaner$1[rdx]
  00007	e9 00 00 00 00	 jmp	 ??1_Auto_cnd@std@@QEAA@XZ ; std::_Auto_cnd::~_Auto_cnd
?dtor$4@?0???$_Launch@V?$unique_ptr@V?$tuple@V<lambda_e77d7e1e559843f44c4e0b6d970cdb28>@@@std@@U?$default_delete@V?$tuple@V<lambda_e77d7e1e559843f44c4e0b6d970cdb28>@@@std@@@2@@std@@@std@@YAXPEAU_Thrd_imp_t@@$$QEAV?$unique_ptr@V?$tuple@V<lambda_e77d7e1e559843f44c4e0b6d970cdb28>@@@std@@U?$default_delete@V?$tuple@V<lambda_e77d7e1e559843f44c4e0b6d970cdb28>@@@std@@@2@@0@@Z@4HA ENDP ; `std::_Launch<std::unique_ptr<std::tuple<<lambda_e77d7e1e559843f44c4e0b6d970cdb28> >,std::default_delete<std::tuple<<lambda_e77d7e1e559843f44c4e0b6d970cdb28> > > > >'::`1'::dtor$4
_Cnd_cleaner$1 = 40
_Mtx_cleaner$2 = 56
_Launcher$ = 72
_Thr$ = 128
_Tg$ = 136
?dtor$5@?0???$_Launch@V?$unique_ptr@V?$tuple@V<lambda_e77d7e1e559843f44c4e0b6d970cdb28>@@@std@@U?$default_delete@V?$tuple@V<lambda_e77d7e1e559843f44c4e0b6d970cdb28>@@@std@@@2@@std@@@std@@YAXPEAU_Thrd_imp_t@@$$QEAV?$unique_ptr@V?$tuple@V<lambda_e77d7e1e559843f44c4e0b6d970cdb28>@@@std@@U?$default_delete@V?$tuple@V<lambda_e77d7e1e559843f44c4e0b6d970cdb28>@@@std@@@2@@0@@Z@4HA PROC ; `std::_Launch<std::unique_ptr<std::tuple<<lambda_e77d7e1e559843f44c4e0b6d970cdb28> >,std::default_delete<std::tuple<<lambda_e77d7e1e559843f44c4e0b6d970cdb28> > > > >'::`1'::dtor$5
  0000c	48 8d 8a 38 00
	00 00		 lea	 rcx, QWORD PTR _Mtx_cleaner$2[rdx]
  00013	e9 00 00 00 00	 jmp	 ??1_Auto_mtx@std@@QEAA@XZ ; std::_Auto_mtx::~_Auto_mtx
?dtor$5@?0???$_Launch@V?$unique_ptr@V?$tuple@V<lambda_e77d7e1e559843f44c4e0b6d970cdb28>@@@std@@U?$default_delete@V?$tuple@V<lambda_e77d7e1e559843f44c4e0b6d970cdb28>@@@std@@@2@@std@@@std@@YAXPEAU_Thrd_imp_t@@$$QEAV?$unique_ptr@V?$tuple@V<lambda_e77d7e1e559843f44c4e0b6d970cdb28>@@@std@@U?$default_delete@V?$tuple@V<lambda_e77d7e1e559843f44c4e0b6d970cdb28>@@@std@@@2@@0@@Z@4HA ENDP ; `std::_Launch<std::unique_ptr<std::tuple<<lambda_e77d7e1e559843f44c4e0b6d970cdb28> >,std::default_delete<std::tuple<<lambda_e77d7e1e559843f44c4e0b6d970cdb28> > > > >'::`1'::dtor$5
_Cnd_cleaner$1 = 40
_Mtx_cleaner$2 = 56
_Launcher$ = 72
_Thr$ = 128
_Tg$ = 136
?dtor$0@?0???$_Launch@V?$unique_ptr@V?$tuple@V<lambda_e77d7e1e559843f44c4e0b6d970cdb28>@@@std@@U?$default_delete@V?$tuple@V<lambda_e77d7e1e559843f44c4e0b6d970cdb28>@@@std@@@2@@std@@@std@@YAXPEAU_Thrd_imp_t@@$$QEAV?$unique_ptr@V?$tuple@V<lambda_e77d7e1e559843f44c4e0b6d970cdb28>@@@std@@U?$default_delete@V?$tuple@V<lambda_e77d7e1e559843f44c4e0b6d970cdb28>@@@std@@@2@@0@@Z@4HA PROC ; `std::_Launch<std::unique_ptr<std::tuple<<lambda_e77d7e1e559843f44c4e0b6d970cdb28> >,std::default_delete<std::tuple<<lambda_e77d7e1e559843f44c4e0b6d970cdb28> > > > >'::`1'::dtor$0
  00018	48 8d 8a 48 00
	00 00		 lea	 rcx, QWORD PTR _Launcher$[rdx]
  0001f	e9 00 00 00 00	 jmp	 ??1?$_LaunchPad@V?$unique_ptr@V?$tuple@V<lambda_e77d7e1e559843f44c4e0b6d970cdb28>@@@std@@U?$default_delete@V?$tuple@V<lambda_e77d7e1e559843f44c4e0b6d970cdb28>@@@std@@@2@@std@@@std@@QEAA@XZ
?dtor$0@?0???$_Launch@V?$unique_ptr@V?$tuple@V<lambda_e77d7e1e559843f44c4e0b6d970cdb28>@@@std@@U?$default_delete@V?$tuple@V<lambda_e77d7e1e559843f44c4e0b6d970cdb28>@@@std@@@2@@std@@@std@@YAXPEAU_Thrd_imp_t@@$$QEAV?$unique_ptr@V?$tuple@V<lambda_e77d7e1e559843f44c4e0b6d970cdb28>@@@std@@U?$default_delete@V?$tuple@V<lambda_e77d7e1e559843f44c4e0b6d970cdb28>@@@std@@@2@@0@@Z@4HA ENDP ; `std::_Launch<std::unique_ptr<std::tuple<<lambda_e77d7e1e559843f44c4e0b6d970cdb28> >,std::default_delete<std::tuple<<lambda_e77d7e1e559843f44c4e0b6d970cdb28> > > > >'::`1'::dtor$0
text$x	ENDS
; Function compile flags: /Ogtpy
;	COMDAT text$x
text$x	SEGMENT
_Cnd_cleaner$1 = 40
_Mtx_cleaner$2 = 56
_Launcher$ = 72
_Thr$ = 128
_Tg$ = 136
?dtor$4@?0???$_Launch@V?$unique_ptr@V?$tuple@V<lambda_e77d7e1e559843f44c4e0b6d970cdb28>@@@std@@U?$default_delete@V?$tuple@V<lambda_e77d7e1e559843f44c4e0b6d970cdb28>@@@std@@@2@@std@@@std@@YAXPEAU_Thrd_imp_t@@$$QEAV?$unique_ptr@V?$tuple@V<lambda_e77d7e1e559843f44c4e0b6d970cdb28>@@@std@@U?$default_delete@V?$tuple@V<lambda_e77d7e1e559843f44c4e0b6d970cdb28>@@@std@@@2@@0@@Z@4HA PROC ; `std::_Launch<std::unique_ptr<std::tuple<<lambda_e77d7e1e559843f44c4e0b6d970cdb28> >,std::default_delete<std::tuple<<lambda_e77d7e1e559843f44c4e0b6d970cdb28> > > > >'::`1'::dtor$4
  00000	48 8d 8a 28 00
	00 00		 lea	 rcx, QWORD PTR _Cnd_cleaner$1[rdx]
  00007	e9 00 00 00 00	 jmp	 ??1_Auto_cnd@std@@QEAA@XZ ; std::_Auto_cnd::~_Auto_cnd
?dtor$4@?0???$_Launch@V?$unique_ptr@V?$tuple@V<lambda_e77d7e1e559843f44c4e0b6d970cdb28>@@@std@@U?$default_delete@V?$tuple@V<lambda_e77d7e1e559843f44c4e0b6d970cdb28>@@@std@@@2@@std@@@std@@YAXPEAU_Thrd_imp_t@@$$QEAV?$unique_ptr@V?$tuple@V<lambda_e77d7e1e559843f44c4e0b6d970cdb28>@@@std@@U?$default_delete@V?$tuple@V<lambda_e77d7e1e559843f44c4e0b6d970cdb28>@@@std@@@2@@0@@Z@4HA ENDP ; `std::_Launch<std::unique_ptr<std::tuple<<lambda_e77d7e1e559843f44c4e0b6d970cdb28> >,std::default_delete<std::tuple<<lambda_e77d7e1e559843f44c4e0b6d970cdb28> > > > >'::`1'::dtor$4
text$x	ENDS
; Function compile flags: /Ogtpy
;	COMDAT text$x
text$x	SEGMENT
_Cnd_cleaner$1 = 40
_Mtx_cleaner$2 = 56
_Launcher$ = 72
_Thr$ = 128
_Tg$ = 136
?dtor$5@?0???$_Launch@V?$unique_ptr@V?$tuple@V<lambda_e77d7e1e559843f44c4e0b6d970cdb28>@@@std@@U?$default_delete@V?$tuple@V<lambda_e77d7e1e559843f44c4e0b6d970cdb28>@@@std@@@2@@std@@@std@@YAXPEAU_Thrd_imp_t@@$$QEAV?$unique_ptr@V?$tuple@V<lambda_e77d7e1e559843f44c4e0b6d970cdb28>@@@std@@U?$default_delete@V?$tuple@V<lambda_e77d7e1e559843f44c4e0b6d970cdb28>@@@std@@@2@@0@@Z@4HA PROC ; `std::_Launch<std::unique_ptr<std::tuple<<lambda_e77d7e1e559843f44c4e0b6d970cdb28> >,std::default_delete<std::tuple<<lambda_e77d7e1e559843f44c4e0b6d970cdb28> > > > >'::`1'::dtor$5
  0000c	48 8d 8a 38 00
	00 00		 lea	 rcx, QWORD PTR _Mtx_cleaner$2[rdx]
  00013	e9 00 00 00 00	 jmp	 ??1_Auto_mtx@std@@QEAA@XZ ; std::_Auto_mtx::~_Auto_mtx
?dtor$5@?0???$_Launch@V?$unique_ptr@V?$tuple@V<lambda_e77d7e1e559843f44c4e0b6d970cdb28>@@@std@@U?$default_delete@V?$tuple@V<lambda_e77d7e1e559843f44c4e0b6d970cdb28>@@@std@@@2@@std@@@std@@YAXPEAU_Thrd_imp_t@@$$QEAV?$unique_ptr@V?$tuple@V<lambda_e77d7e1e559843f44c4e0b6d970cdb28>@@@std@@U?$default_delete@V?$tuple@V<lambda_e77d7e1e559843f44c4e0b6d970cdb28>@@@std@@@2@@0@@Z@4HA ENDP ; `std::_Launch<std::unique_ptr<std::tuple<<lambda_e77d7e1e559843f44c4e0b6d970cdb28> >,std::default_delete<std::tuple<<lambda_e77d7e1e559843f44c4e0b6d970cdb28> > > > >'::`1'::dtor$5
text$x	ENDS
; Function compile flags: /Ogtpy
;	COMDAT text$x
text$x	SEGMENT
_Cnd_cleaner$1 = 40
_Mtx_cleaner$2 = 56
_Launcher$ = 72
_Thr$ = 128
_Tg$ = 136
?dtor$0@?0???$_Launch@V?$unique_ptr@V?$tuple@V<lambda_e77d7e1e559843f44c4e0b6d970cdb28>@@@std@@U?$default_delete@V?$tuple@V<lambda_e77d7e1e559843f44c4e0b6d970cdb28>@@@std@@@2@@std@@@std@@YAXPEAU_Thrd_imp_t@@$$QEAV?$unique_ptr@V?$tuple@V<lambda_e77d7e1e559843f44c4e0b6d970cdb28>@@@std@@U?$default_delete@V?$tuple@V<lambda_e77d7e1e559843f44c4e0b6d970cdb28>@@@std@@@2@@0@@Z@4HA PROC ; `std::_Launch<std::unique_ptr<std::tuple<<lambda_e77d7e1e559843f44c4e0b6d970cdb28> >,std::default_delete<std::tuple<<lambda_e77d7e1e559843f44c4e0b6d970cdb28> > > > >'::`1'::dtor$0
  00018	48 8d 8a 48 00
	00 00		 lea	 rcx, QWORD PTR _Launcher$[rdx]
  0001f	e9 00 00 00 00	 jmp	 ??1?$_LaunchPad@V?$unique_ptr@V?$tuple@V<lambda_e77d7e1e559843f44c4e0b6d970cdb28>@@@std@@U?$default_delete@V?$tuple@V<lambda_e77d7e1e559843f44c4e0b6d970cdb28>@@@std@@@2@@std@@@std@@QEAA@XZ
?dtor$0@?0???$_Launch@V?$unique_ptr@V?$tuple@V<lambda_e77d7e1e559843f44c4e0b6d970cdb28>@@@std@@U?$default_delete@V?$tuple@V<lambda_e77d7e1e559843f44c4e0b6d970cdb28>@@@std@@@2@@std@@@std@@YAXPEAU_Thrd_imp_t@@$$QEAV?$unique_ptr@V?$tuple@V<lambda_e77d7e1e559843f44c4e0b6d970cdb28>@@@std@@U?$default_delete@V?$tuple@V<lambda_e77d7e1e559843f44c4e0b6d970cdb28>@@@std@@@2@@0@@Z@4HA ENDP ; `std::_Launch<std::unique_ptr<std::tuple<<lambda_e77d7e1e559843f44c4e0b6d970cdb28> >,std::default_delete<std::tuple<<lambda_e77d7e1e559843f44c4e0b6d970cdb28> > > > >'::`1'::dtor$0
text$x	ENDS
; Function compile flags: /Ogtpy
; File c:\users\alist_000\cppmisc\packages\visualcpptools.14.0.24629\lib\native\include\xmemory0
; File c:\users\alist_000\cppmisc\packages\visualcpptools.14.0.24629\lib\native\include\thread
; File c:\users\alist_000\cppmisc\packages\visualcpptools.14.0.24629\lib\native\include\xmemory0
;	COMDAT ??$construct@Vthread@std@@V12@@?$allocator@Vthread@std@@@std@@QEAAXPEAVthread@1@$$QEAV21@@Z
_TEXT	SEGMENT
this$dead$ = 8
_Ptr$ = 16
<_Args_0>$ = 24
??$construct@Vthread@std@@V12@@?$allocator@Vthread@std@@@std@@QEAAXPEAVthread@1@$$QEAV21@@Z PROC ; std::allocator<std::thread>::construct<std::thread,std::thread>, COMDAT

; 833  : 		::new ((void *)_Ptr) _Objty(_STD forward<_Types>(_Args)...);

  00000	48 85 d2	 test	 rdx, rdx
  00003	74 10		 je	 SHORT $LN3@construct
; File c:\users\alist_000\cppmisc\packages\visualcpptools.14.0.24629\lib\native\include\thread

; 59   : 		: _Thr(_Other._Thr)

  00005	41 0f 10 00	 movups	 xmm0, XMMWORD PTR [r8]

; 60   : 		{	// move from _Other
; 61   : 		_Thr_set_null(_Other._Thr);

  00009	33 c0		 xor	 eax, eax
  0000b	0f 11 02	 movups	 XMMWORD PTR [rdx], xmm0
  0000e	49 89 00	 mov	 QWORD PTR [r8], rax
  00011	41 89 40 08	 mov	 DWORD PTR [r8+8], eax
$LN3@construct:
; File c:\users\alist_000\cppmisc\packages\visualcpptools.14.0.24629\lib\native\include\xmemory0

; 834  : 		}

  00015	c3		 ret	 0
??$construct@Vthread@std@@V12@@?$allocator@Vthread@std@@@std@@QEAAXPEAVthread@1@$$QEAV21@@Z ENDP ; std::allocator<std::thread>::construct<std::thread,std::thread>
_TEXT	ENDS
; Function compile flags: /Ogtpy
; File c:\users\alist_000\cppmisc\packages\visualcpptools.14.0.24629\lib\native\include\memory
; File c:\users\alist_000\cppmisc\packages\visualcpptools.14.0.24629\lib\native\include\thr\xthread
;	COMDAT ??1?$_LaunchPad@V?$unique_ptr@V?$tuple@V<lambda_e77d7e1e559843f44c4e0b6d970cdb28>@@@std@@U?$default_delete@V?$tuple@V<lambda_e77d7e1e559843f44c4e0b6d970cdb28>@@@std@@@2@@std@@@std@@QEAA@XZ
_TEXT	SEGMENT
$T1 = 32
this$ = 64
??1?$_LaunchPad@V?$unique_ptr@V?$tuple@V<lambda_e77d7e1e559843f44c4e0b6d970cdb28>@@@std@@U?$default_delete@V?$tuple@V<lambda_e77d7e1e559843f44c4e0b6d970cdb28>@@@std@@@2@@std@@@std@@QEAA@XZ PROC ; std::_LaunchPad<std::unique_ptr<std::tuple<<lambda_e77d7e1e559843f44c4e0b6d970cdb28> >,std::default_delete<std::tuple<<lambda_e77d7e1e559843f44c4e0b6d970cdb28> > > > >::~_LaunchPad<std::unique_ptr<std::tuple<<lambda_e77d7e1e559843f44c4e0b6d970cdb28> >,std::default_delete<std::tuple<<lambda_e77d7e1e559843f44c4e0b6d970cdb28> > > > >, COMDAT
  00000	40 57		 push	 rdi
  00002	48 83 ec 30	 sub	 rsp, 48			; 00000030H
  00006	48 c7 44 24 20
	fe ff ff ff	 mov	 QWORD PTR $T1[rsp], -2
  0000f	48 89 5c 24 40	 mov	 QWORD PTR [rsp+64], rbx
  00014	48 8b d9	 mov	 rbx, rcx
; File c:\users\alist_000\cppmisc\packages\visualcpptools.14.0.24629\lib\native\include\memory

; 1425 : 		return (this->_Myptr());

  00017	48 8b 49 20	 mov	 rcx, QWORD PTR [rcx+32]

; 1409 : 		if (get() != pointer())

  0001b	48 85 c9	 test	 rcx, rcx
  0001e	74 0b		 je	 SHORT $LN32@LaunchPad

; 1199 : 		delete _Ptr;

  00020	ba 01 00 00 00	 mov	 edx, 1
  00025	e8 00 00 00 00	 call	 ??3@YAXPEAX_K@Z		; operator delete
  0002a	90		 npad	 1
$LN32@LaunchPad:
; File c:\users\alist_000\cppmisc\packages\visualcpptools.14.0.24629\lib\native\include\thr\xthread

; 180  : 		{	// clean up handshake; non-virtual due to type-erasure

  0002b	48 8d 05 00 00
	00 00		 lea	 rax, OFFSET FLAT:??_7_Pad@std@@6B@
  00032	48 89 03	 mov	 QWORD PTR [rbx], rax

; 181  : 		_Auto_cnd _Cnd_cleaner(_Cond);

  00035	48 8b 7b 08	 mov	 rdi, QWORD PTR [rbx+8]

; 182  : 		_Auto_mtx _Mtx_cleaner(_Mtx);

  00039	48 8b 5b 10	 mov	 rbx, QWORD PTR [rbx+16]

; 85   : 	return (_Check_C_return(_Mtx_unlock(_Mtx)));

  0003d	48 8b cb	 mov	 rcx, rbx
  00040	e8 00 00 00 00	 call	 _Mtx_unlock
  00045	90		 npad	 1

; 34   : 	if (_Res != _Thrd_success)

  00046	85 c0		 test	 eax, eax
  00048	74 08		 je	 SHORT $LN54@LaunchPad

; 35   : 		_Throw_C_error(_Res);

  0004a	8b c8		 mov	 ecx, eax
  0004c	e8 00 00 00 00	 call	 ?_Throw_C_error@std@@YAXH@Z ; std::_Throw_C_error
  00051	90		 npad	 1
$LN54@LaunchPad:

; 149  : 			_Mtx_destroy(_MyMtxp);

  00052	48 8b cb	 mov	 rcx, rbx
  00055	e8 00 00 00 00	 call	 _Mtx_destroy
  0005a	90		 npad	 1

; 125  : 			_Cnd_destroy(_MyCndp);

  0005b	48 8b cf	 mov	 rcx, rdi
  0005e	e8 00 00 00 00	 call	 _Cnd_destroy
  00063	90		 npad	 1
  00064	48 8b 5c 24 40	 mov	 rbx, QWORD PTR [rsp+64]
  00069	48 83 c4 30	 add	 rsp, 48			; 00000030H
  0006d	5f		 pop	 rdi
  0006e	c3		 ret	 0
??1?$_LaunchPad@V?$unique_ptr@V?$tuple@V<lambda_e77d7e1e559843f44c4e0b6d970cdb28>@@@std@@U?$default_delete@V?$tuple@V<lambda_e77d7e1e559843f44c4e0b6d970cdb28>@@@std@@@2@@std@@@std@@QEAA@XZ ENDP ; std::_LaunchPad<std::unique_ptr<std::tuple<<lambda_e77d7e1e559843f44c4e0b6d970cdb28> >,std::default_delete<std::tuple<<lambda_e77d7e1e559843f44c4e0b6d970cdb28> > > > >::~_LaunchPad<std::unique_ptr<std::tuple<<lambda_e77d7e1e559843f44c4e0b6d970cdb28> >,std::default_delete<std::tuple<<lambda_e77d7e1e559843f44c4e0b6d970cdb28> > > > >
_TEXT	ENDS
; Function compile flags: /Ogtpy
; File c:\users\alist_000\cppmisc\packages\visualcpptools.14.0.24629\lib\native\include\thr\xthread
;	COMDAT ?_Go@?$_LaunchPad@V?$unique_ptr@V?$tuple@V<lambda_e77d7e1e559843f44c4e0b6d970cdb28>@@@std@@U?$default_delete@V?$tuple@V<lambda_e77d7e1e559843f44c4e0b6d970cdb28>@@@std@@@2@@std@@@std@@UEAAXXZ
_TEXT	SEGMENT
this$ = 8
?_Go@?$_LaunchPad@V?$unique_ptr@V?$tuple@V<lambda_e77d7e1e559843f44c4e0b6d970cdb28>@@@std@@U?$default_delete@V?$tuple@V<lambda_e77d7e1e559843f44c4e0b6d970cdb28>@@@std@@@2@@std@@@std@@UEAAXXZ PROC ; std::_LaunchPad<std::unique_ptr<std::tuple<<lambda_e77d7e1e559843f44c4e0b6d970cdb28> >,std::default_delete<std::tuple<<lambda_e77d7e1e559843f44c4e0b6d970cdb28> > > > >::_Go, COMDAT

; 232  : 		_Run(this);

  00000	e9 00 00 00 00	 jmp	 ?_Run@?$_LaunchPad@V?$unique_ptr@V?$tuple@V<lambda_e77d7e1e559843f44c4e0b6d970cdb28>@@@std@@U?$default_delete@V?$tuple@V<lambda_e77d7e1e559843f44c4e0b6d970cdb28>@@@std@@@2@@std@@@std@@CAXPEAV12@@Z ; std::_LaunchPad<std::unique_ptr<std::tuple<<lambda_e77d7e1e559843f44c4e0b6d970cdb28> >,std::default_delete<std::tuple<<lambda_e77d7e1e559843f44c4e0b6d970cdb28> > > > >::_Run
?_Go@?$_LaunchPad@V?$unique_ptr@V?$tuple@V<lambda_e77d7e1e559843f44c4e0b6d970cdb28>@@@std@@U?$default_delete@V?$tuple@V<lambda_e77d7e1e559843f44c4e0b6d970cdb28>@@@std@@@2@@std@@@std@@UEAAXXZ ENDP ; std::_LaunchPad<std::unique_ptr<std::tuple<<lambda_e77d7e1e559843f44c4e0b6d970cdb28> >,std::default_delete<std::tuple<<lambda_e77d7e1e559843f44c4e0b6d970cdb28> > > > >::_Go
_TEXT	ENDS
; Function compile flags: /Ogtpy
; File c:\users\alist_000\cppmisc\packages\visualcpptools.14.0.24629\lib\native\include\memory
; File c:\users\alist_000\cppmisc\packages\visualcpptools.14.0.24629\lib\native\include\xutility
; File c:\users\alist_000\cppmisc\packages\visualcpptools.14.0.24629\lib\native\include\memory
;	COMDAT ??0?$unique_ptr@V?$tuple@V<lambda_e77d7e1e559843f44c4e0b6d970cdb28>@@@std@@U?$default_delete@V?$tuple@V<lambda_e77d7e1e559843f44c4e0b6d970cdb28>@@@std@@@2@@std@@QEAA@PEAV?$tuple@V<lambda_e77d7e1e559843f44c4e0b6d970cdb28>@@@1@@Z
_TEXT	SEGMENT
this$ = 8
_Ptr$ = 16
??0?$unique_ptr@V?$tuple@V<lambda_e77d7e1e559843f44c4e0b6d970cdb28>@@@std@@U?$default_delete@V?$tuple@V<lambda_e77d7e1e559843f44c4e0b6d970cdb28>@@@std@@@2@@std@@QEAA@PEAV?$tuple@V<lambda_e77d7e1e559843f44c4e0b6d970cdb28>@@@1@@Z PROC ; std::unique_ptr<std::tuple<<lambda_e77d7e1e559843f44c4e0b6d970cdb28> >,std::default_delete<std::tuple<<lambda_e77d7e1e559843f44c4e0b6d970cdb28> > > >::unique_ptr<std::tuple<<lambda_e77d7e1e559843f44c4e0b6d970cdb28> >,std::default_delete<std::tuple<<lambda_e77d7e1e559843f44c4e0b6d970cdb28> > > >, COMDAT
; File c:\users\alist_000\cppmisc\packages\visualcpptools.14.0.24629\lib\native\include\xutility

; 293  : 		: _Ty1(), _Myval2(_STD forward<_Other2>(_Val2)...)

  00000	48 89 11	 mov	 QWORD PTR [rcx], rdx
; File c:\users\alist_000\cppmisc\packages\visualcpptools.14.0.24629\lib\native\include\memory

; 1327 : 		}

  00003	48 8b c1	 mov	 rax, rcx
  00006	c3		 ret	 0
??0?$unique_ptr@V?$tuple@V<lambda_e77d7e1e559843f44c4e0b6d970cdb28>@@@std@@U?$default_delete@V?$tuple@V<lambda_e77d7e1e559843f44c4e0b6d970cdb28>@@@std@@@2@@std@@QEAA@PEAV?$tuple@V<lambda_e77d7e1e559843f44c4e0b6d970cdb28>@@@1@@Z ENDP ; std::unique_ptr<std::tuple<<lambda_e77d7e1e559843f44c4e0b6d970cdb28> >,std::default_delete<std::tuple<<lambda_e77d7e1e559843f44c4e0b6d970cdb28> > > >::unique_ptr<std::tuple<<lambda_e77d7e1e559843f44c4e0b6d970cdb28> >,std::default_delete<std::tuple<<lambda_e77d7e1e559843f44c4e0b6d970cdb28> > > >
_TEXT	ENDS
; Function compile flags: /Ogtpy
; File c:\users\alist_000\cppmisc\packages\visualcpptools.14.0.24629\lib\native\include\thr\xthread
; File c:\users\alist_000\cppmisc\packages\visualcpptools.14.0.24629\lib\native\include\memory
; File c:\users\alist_000\cppmisc\packages\visualcpptools.14.0.24629\lib\native\include\thr\xthread
; File c:\users\alist_000\cppmisc\packages\visualcpptools.14.0.24629\lib\native\include\type_traits
; File c:\users\alist_000\cppmisc\packages\visualcpptools.14.0.24629\lib\native\include\memory
; File c:\users\alist_000\cppmisc\packages\visualcpptools.14.0.24629\lib\native\include\thr\xthread
;	COMDAT ?_Run@?$_LaunchPad@V?$unique_ptr@V?$tuple@V<lambda_e77d7e1e559843f44c4e0b6d970cdb28>@@@std@@U?$default_delete@V?$tuple@V<lambda_e77d7e1e559843f44c4e0b6d970cdb28>@@@std@@@2@@std@@@std@@CAXPEAV12@@Z
_TEXT	SEGMENT
$T1 = 32
_Ln$ = 64
?_Run@?$_LaunchPad@V?$unique_ptr@V?$tuple@V<lambda_e77d7e1e559843f44c4e0b6d970cdb28>@@@std@@U?$default_delete@V?$tuple@V<lambda_e77d7e1e559843f44c4e0b6d970cdb28>@@@std@@@2@@std@@@std@@CAXPEAV12@@Z PROC ; std::_LaunchPad<std::unique_ptr<std::tuple<<lambda_e77d7e1e559843f44c4e0b6d970cdb28> >,std::default_delete<std::tuple<<lambda_e77d7e1e559843f44c4e0b6d970cdb28> > > > >::_Run, COMDAT

; 244  : 		{	// construct local unique_ptr and call function object within

  00000	40 57		 push	 rdi
  00002	48 83 ec 30	 sub	 rsp, 48			; 00000030H
  00006	48 c7 44 24 20
	fe ff ff ff	 mov	 QWORD PTR $T1[rsp], -2
  0000f	48 89 5c 24 40	 mov	 QWORD PTR [rsp+64], rbx
  00014	48 8b d9	 mov	 rbx, rcx
; File c:\users\alist_000\cppmisc\packages\visualcpptools.14.0.24629\lib\native\include\memory

; 1425 : 		return (this->_Myptr());

  00017	48 8b 79 20	 mov	 rdi, QWORD PTR [rcx+32]

; 1436 : 		this->_Myptr() = pointer();

  0001b	48 c7 41 20 00
	00 00 00	 mov	 QWORD PTR [rcx+32], 0
; File c:\users\alist_000\cppmisc\packages\visualcpptools.14.0.24629\lib\native\include\thr\xthread

; 70   : 	return (_Check_C_return(_Mtx_lock(_Mtx)));

  00023	48 8b 49 10	 mov	 rcx, QWORD PTR [rcx+16]
  00027	e8 00 00 00 00	 call	 _Mtx_lock
  0002c	90		 npad	 1

; 34   : 	if (_Res != _Thrd_success)

  0002d	85 c0		 test	 eax, eax
  0002f	74 08		 je	 SHORT $LN54@Run

; 35   : 		_Throw_C_error(_Res);

  00031	8b c8		 mov	 ecx, eax
  00033	e8 00 00 00 00	 call	 ?_Throw_C_error@std@@YAXH@Z ; std::_Throw_C_error
  00038	90		 npad	 1
$LN54@Run:

; 196  : 		_Started = true;

  00039	c6 43 18 01	 mov	 BYTE PTR [rbx+24], 1

; 111  : 	return (_Check_C_return(_Cnd_signal(_Cnd)));

  0003d	48 8b 4b 08	 mov	 rcx, QWORD PTR [rbx+8]
  00041	e8 00 00 00 00	 call	 _Cnd_signal
  00046	90		 npad	 1

; 34   : 	if (_Res != _Thrd_success)

  00047	85 c0		 test	 eax, eax
  00049	74 08		 je	 SHORT $LN59@Run

; 35   : 		_Throw_C_error(_Res);

  0004b	8b c8		 mov	 ecx, eax
  0004d	e8 00 00 00 00	 call	 ?_Throw_C_error@std@@YAXH@Z ; std::_Throw_C_error
  00052	90		 npad	 1
$LN59@Run:

; 85   : 	return (_Check_C_return(_Mtx_unlock(_Mtx)));

  00053	48 8b 4b 10	 mov	 rcx, QWORD PTR [rbx+16]
  00057	e8 00 00 00 00	 call	 _Mtx_unlock
  0005c	90		 npad	 1

; 34   : 	if (_Res != _Thrd_success)

  0005d	85 c0		 test	 eax, eax
  0005f	74 08		 je	 SHORT $LN64@Run

; 35   : 		_Throw_C_error(_Res);

  00061	8b c8		 mov	 ecx, eax
  00063	e8 00 00 00 00	 call	 ?_Throw_C_error@std@@YAXH@Z ; std::_Throw_C_error
  00068	90		 npad	 1
$LN64@Run:
; File c:\users\alist_000\cppmisc\packages\visualcpptools.14.0.24629\lib\native\include\type_traits

; 1529 : _IMPLEMENT_INVOKE(_EMPTY_ARGUMENT, _EMPTY_ARGUMENT)

  00069	e8 00 00 00 00	 call	 ??R<lambda_e77d7e1e559843f44c4e0b6d970cdb28>@@QEBAXXZ ; <lambda_e77d7e1e559843f44c4e0b6d970cdb28>::operator()
  0006e	90		 npad	 1
; File c:\users\alist_000\cppmisc\packages\visualcpptools.14.0.24629\lib\native\include\memory

; 1409 : 		if (get() != pointer())

  0006f	48 85 ff	 test	 rdi, rdi
  00072	74 0e		 je	 SHORT $LN124@Run

; 1199 : 		delete _Ptr;

  00074	ba 01 00 00 00	 mov	 edx, 1
  00079	48 8b cf	 mov	 rcx, rdi
  0007c	e8 00 00 00 00	 call	 ??3@YAXPEAX_K@Z		; operator delete
  00081	90		 npad	 1
$LN124@Run:
; File c:\users\alist_000\cppmisc\packages\visualcpptools.14.0.24629\lib\native\include\thr\xthread

; 249  : 		}

  00082	48 8b 5c 24 40	 mov	 rbx, QWORD PTR [rsp+64]
  00087	48 83 c4 30	 add	 rsp, 48			; 00000030H
  0008b	5f		 pop	 rdi
  0008c	c3		 ret	 0
?_Run@?$_LaunchPad@V?$unique_ptr@V?$tuple@V<lambda_e77d7e1e559843f44c4e0b6d970cdb28>@@@std@@U?$default_delete@V?$tuple@V<lambda_e77d7e1e559843f44c4e0b6d970cdb28>@@@std@@@2@@std@@@std@@CAXPEAV12@@Z ENDP ; std::_LaunchPad<std::unique_ptr<std::tuple<<lambda_e77d7e1e559843f44c4e0b6d970cdb28> >,std::default_delete<std::tuple<<lambda_e77d7e1e559843f44c4e0b6d970cdb28> > > > >::_Run
_TEXT	ENDS
; Function compile flags: /Ogtpy
; File c:\users\alist_000\cppmisc\packages\visualcpptools.14.0.24629\lib\native\include\memory
;	COMDAT ??D?$unique_ptr@V?$tuple@V<lambda_e77d7e1e559843f44c4e0b6d970cdb28>@@@std@@U?$default_delete@V?$tuple@V<lambda_e77d7e1e559843f44c4e0b6d970cdb28>@@@std@@@2@@std@@QEBAAEAV?$tuple@V<lambda_e77d7e1e559843f44c4e0b6d970cdb28>@@@1@XZ
_TEXT	SEGMENT
this$ = 8
??D?$unique_ptr@V?$tuple@V<lambda_e77d7e1e559843f44c4e0b6d970cdb28>@@@std@@U?$default_delete@V?$tuple@V<lambda_e77d7e1e559843f44c4e0b6d970cdb28>@@@std@@@2@@std@@QEBAAEAV?$tuple@V<lambda_e77d7e1e559843f44c4e0b6d970cdb28>@@@1@XZ PROC ; std::unique_ptr<std::tuple<<lambda_e77d7e1e559843f44c4e0b6d970cdb28> >,std::default_delete<std::tuple<<lambda_e77d7e1e559843f44c4e0b6d970cdb28> > > >::operator*, COMDAT

; 1415 : 		return (*get());

  00000	48 8b 01	 mov	 rax, QWORD PTR [rcx]

; 1416 : 		}

  00003	c3		 ret	 0
??D?$unique_ptr@V?$tuple@V<lambda_e77d7e1e559843f44c4e0b6d970cdb28>@@@std@@U?$default_delete@V?$tuple@V<lambda_e77d7e1e559843f44c4e0b6d970cdb28>@@@std@@@2@@std@@QEBAAEAV?$tuple@V<lambda_e77d7e1e559843f44c4e0b6d970cdb28>@@@1@XZ ENDP ; std::unique_ptr<std::tuple<<lambda_e77d7e1e559843f44c4e0b6d970cdb28> >,std::default_delete<std::tuple<<lambda_e77d7e1e559843f44c4e0b6d970cdb28> > > >::operator*
_TEXT	ENDS
; Function compile flags: /Ogtpy
; File c:\users\alist_000\cppmisc\packages\visualcpptools.14.0.24629\lib\native\include\memory
; File c:\users\alist_000\cppmisc\packages\visualcpptools.14.0.24629\lib\native\include\xutility
; File c:\users\alist_000\cppmisc\packages\visualcpptools.14.0.24629\lib\native\include\memory
;	COMDAT ??0?$unique_ptr@V?$tuple@V<lambda_e77d7e1e559843f44c4e0b6d970cdb28>@@@std@@U?$default_delete@V?$tuple@V<lambda_e77d7e1e559843f44c4e0b6d970cdb28>@@@std@@@2@@std@@QEAA@$$QEAV01@@Z
_TEXT	SEGMENT
this$ = 8
_Right$ = 16
??0?$unique_ptr@V?$tuple@V<lambda_e77d7e1e559843f44c4e0b6d970cdb28>@@@std@@U?$default_delete@V?$tuple@V<lambda_e77d7e1e559843f44c4e0b6d970cdb28>@@@std@@@2@@std@@QEAA@$$QEAV01@@Z PROC ; std::unique_ptr<std::tuple<<lambda_e77d7e1e559843f44c4e0b6d970cdb28> >,std::default_delete<std::tuple<<lambda_e77d7e1e559843f44c4e0b6d970cdb28> > > >::unique_ptr<std::tuple<<lambda_e77d7e1e559843f44c4e0b6d970cdb28> >,std::default_delete<std::tuple<<lambda_e77d7e1e559843f44c4e0b6d970cdb28> > > >, COMDAT

; 1425 : 		return (this->_Myptr());

  00000	48 8b 02	 mov	 rax, QWORD PTR [rdx]

; 1436 : 		this->_Myptr() = pointer();

  00003	48 c7 02 00 00
	00 00		 mov	 QWORD PTR [rdx], 0
; File c:\users\alist_000\cppmisc\packages\visualcpptools.14.0.24629\lib\native\include\xutility

; 302  : 			_Myval2(_STD forward<_Other2>(_Val2)...)

  0000a	48 89 01	 mov	 QWORD PTR [rcx], rax
; File c:\users\alist_000\cppmisc\packages\visualcpptools.14.0.24629\lib\native\include\memory

; 1348 : 		}

  0000d	48 8b c1	 mov	 rax, rcx
  00010	c3		 ret	 0
??0?$unique_ptr@V?$tuple@V<lambda_e77d7e1e559843f44c4e0b6d970cdb28>@@@std@@U?$default_delete@V?$tuple@V<lambda_e77d7e1e559843f44c4e0b6d970cdb28>@@@std@@@2@@std@@QEAA@$$QEAV01@@Z ENDP ; std::unique_ptr<std::tuple<<lambda_e77d7e1e559843f44c4e0b6d970cdb28> >,std::default_delete<std::tuple<<lambda_e77d7e1e559843f44c4e0b6d970cdb28> > > >::unique_ptr<std::tuple<<lambda_e77d7e1e559843f44c4e0b6d970cdb28> >,std::default_delete<std::tuple<<lambda_e77d7e1e559843f44c4e0b6d970cdb28> > > >
_TEXT	ENDS
; Function compile flags: /Ogtpy
; File c:\users\alist_000\cppmisc\packages\visualcpptools.14.0.24629\lib\native\include\memory
;	COMDAT ?release@?$unique_ptr@V?$tuple@V<lambda_e77d7e1e559843f44c4e0b6d970cdb28>@@@std@@U?$default_delete@V?$tuple@V<lambda_e77d7e1e559843f44c4e0b6d970cdb28>@@@std@@@2@@std@@QEAAPEAV?$tuple@V<lambda_e77d7e1e559843f44c4e0b6d970cdb28>@@@2@XZ
_TEXT	SEGMENT
this$ = 8
?release@?$unique_ptr@V?$tuple@V<lambda_e77d7e1e559843f44c4e0b6d970cdb28>@@@std@@U?$default_delete@V?$tuple@V<lambda_e77d7e1e559843f44c4e0b6d970cdb28>@@@std@@@2@@std@@QEAAPEAV?$tuple@V<lambda_e77d7e1e559843f44c4e0b6d970cdb28>@@@2@XZ PROC ; std::unique_ptr<std::tuple<<lambda_e77d7e1e559843f44c4e0b6d970cdb28> >,std::default_delete<std::tuple<<lambda_e77d7e1e559843f44c4e0b6d970cdb28> > > >::release, COMDAT

; 1425 : 		return (this->_Myptr());

  00000	48 8b 01	 mov	 rax, QWORD PTR [rcx]

; 1435 : 		pointer _Ans = get();
; 1436 : 		this->_Myptr() = pointer();

  00003	48 c7 01 00 00
	00 00		 mov	 QWORD PTR [rcx], 0

; 1437 : 		return (_Ans);
; 1438 : 		}

  0000a	c3		 ret	 0
?release@?$unique_ptr@V?$tuple@V<lambda_e77d7e1e559843f44c4e0b6d970cdb28>@@@std@@U?$default_delete@V?$tuple@V<lambda_e77d7e1e559843f44c4e0b6d970cdb28>@@@std@@@2@@std@@QEAAPEAV?$tuple@V<lambda_e77d7e1e559843f44c4e0b6d970cdb28>@@@2@XZ ENDP ; std::unique_ptr<std::tuple<<lambda_e77d7e1e559843f44c4e0b6d970cdb28> >,std::default_delete<std::tuple<<lambda_e77d7e1e559843f44c4e0b6d970cdb28> > > >::release
_TEXT	ENDS
; Function compile flags: /Ogtpy
; File c:\users\alist_000\cppmisc\packages\visualcpptools.14.0.24629\lib\native\include\memory
;	COMDAT ?_Myptr@?$_Unique_ptr_base@V?$tuple@V<lambda_e77d7e1e559843f44c4e0b6d970cdb28>@@@std@@U?$default_delete@V?$tuple@V<lambda_e77d7e1e559843f44c4e0b6d970cdb28>@@@std@@@2@@std@@QEAAAEAPEAV?$tuple@V<lambda_e77d7e1e559843f44c4e0b6d970cdb28>@@@2@XZ
_TEXT	SEGMENT
this$ = 8
?_Myptr@?$_Unique_ptr_base@V?$tuple@V<lambda_e77d7e1e559843f44c4e0b6d970cdb28>@@@std@@U?$default_delete@V?$tuple@V<lambda_e77d7e1e559843f44c4e0b6d970cdb28>@@@std@@@2@@std@@QEAAAEAPEAV?$tuple@V<lambda_e77d7e1e559843f44c4e0b6d970cdb28>@@@2@XZ PROC ; std::_Unique_ptr_base<std::tuple<<lambda_e77d7e1e559843f44c4e0b6d970cdb28> >,std::default_delete<std::tuple<<lambda_e77d7e1e559843f44c4e0b6d970cdb28> > > >::_Myptr, COMDAT

; 1276 : 		return (_Mypair._Get_second());

  00000	48 8b c1	 mov	 rax, rcx

; 1277 : 		}

  00003	c3		 ret	 0
?_Myptr@?$_Unique_ptr_base@V?$tuple@V<lambda_e77d7e1e559843f44c4e0b6d970cdb28>@@@std@@U?$default_delete@V?$tuple@V<lambda_e77d7e1e559843f44c4e0b6d970cdb28>@@@std@@@2@@std@@QEAAAEAPEAV?$tuple@V<lambda_e77d7e1e559843f44c4e0b6d970cdb28>@@@2@XZ ENDP ; std::_Unique_ptr_base<std::tuple<<lambda_e77d7e1e559843f44c4e0b6d970cdb28> >,std::default_delete<std::tuple<<lambda_e77d7e1e559843f44c4e0b6d970cdb28> > > >::_Myptr
_TEXT	ENDS
; Function compile flags: /Ogtpy
; File c:\users\alist_000\cppmisc\packages\visualcpptools.14.0.24629\lib\native\include\xutility
;	COMDAT ?_Get_second@?$_Compressed_pair@U?$default_delete@V?$tuple@V<lambda_e77d7e1e559843f44c4e0b6d970cdb28>@@@std@@@std@@PEAV?$tuple@V<lambda_e77d7e1e559843f44c4e0b6d970cdb28>@@@2@$00@std@@QEAAAEAPEAV?$tuple@V<lambda_e77d7e1e559843f44c4e0b6d970cdb28>@@@2@XZ
_TEXT	SEGMENT
this$ = 8
?_Get_second@?$_Compressed_pair@U?$default_delete@V?$tuple@V<lambda_e77d7e1e559843f44c4e0b6d970cdb28>@@@std@@@std@@PEAV?$tuple@V<lambda_e77d7e1e559843f44c4e0b6d970cdb28>@@@2@$00@std@@QEAAAEAPEAV?$tuple@V<lambda_e77d7e1e559843f44c4e0b6d970cdb28>@@@2@XZ PROC ; std::_Compressed_pair<std::default_delete<std::tuple<<lambda_e77d7e1e559843f44c4e0b6d970cdb28> > >,std::tuple<<lambda_e77d7e1e559843f44c4e0b6d970cdb28> > * __ptr64,1>::_Get_second, COMDAT

; 329  : 		return (_Myval2);

  00000	48 8b c1	 mov	 rax, rcx

; 330  : 		}

  00003	c3		 ret	 0
?_Get_second@?$_Compressed_pair@U?$default_delete@V?$tuple@V<lambda_e77d7e1e559843f44c4e0b6d970cdb28>@@@std@@@std@@PEAV?$tuple@V<lambda_e77d7e1e559843f44c4e0b6d970cdb28>@@@2@$00@std@@QEAAAEAPEAV?$tuple@V<lambda_e77d7e1e559843f44c4e0b6d970cdb28>@@@2@XZ ENDP ; std::_Compressed_pair<std::default_delete<std::tuple<<lambda_e77d7e1e559843f44c4e0b6d970cdb28> > >,std::tuple<<lambda_e77d7e1e559843f44c4e0b6d970cdb28> > * __ptr64,1>::_Get_second
_TEXT	ENDS
; Function compile flags: /Ogtpy
; File c:\users\alist_000\cppmisc\packages\visualcpptools.14.0.24629\lib\native\include\tuple
;	COMDAT ??$?0V<lambda_e77d7e1e559843f44c4e0b6d970cdb28>@@$$V$0A@@?$tuple@V<lambda_e77d7e1e559843f44c4e0b6d970cdb28>@@@std@@QEAA@$$QEAV<lambda_e77d7e1e559843f44c4e0b6d970cdb28>@@@Z
_TEXT	SEGMENT
this$ = 8
_This_arg$dead$ = 16
??$?0V<lambda_e77d7e1e559843f44c4e0b6d970cdb28>@@$$V$0A@@?$tuple@V<lambda_e77d7e1e559843f44c4e0b6d970cdb28>@@@std@@QEAA@$$QEAV<lambda_e77d7e1e559843f44c4e0b6d970cdb28>@@@Z PROC ; std::tuple<<lambda_e77d7e1e559843f44c4e0b6d970cdb28> >::tuple<<lambda_e77d7e1e559843f44c4e0b6d970cdb28> ><<lambda_e77d7e1e559843f44c4e0b6d970cdb28>,0>, COMDAT

; 422  : 		}

  00000	48 8b c1	 mov	 rax, rcx
  00003	c3		 ret	 0
??$?0V<lambda_e77d7e1e559843f44c4e0b6d970cdb28>@@$$V$0A@@?$tuple@V<lambda_e77d7e1e559843f44c4e0b6d970cdb28>@@@std@@QEAA@$$QEAV<lambda_e77d7e1e559843f44c4e0b6d970cdb28>@@@Z ENDP ; std::tuple<<lambda_e77d7e1e559843f44c4e0b6d970cdb28> >::tuple<<lambda_e77d7e1e559843f44c4e0b6d970cdb28> ><<lambda_e77d7e1e559843f44c4e0b6d970cdb28>,0>
_TEXT	ENDS
; Function compile flags: /Ogtpy
; File c:\users\alist_000\cppmisc\packages\visualcpptools.14.0.24629\lib\native\include\type_traits
;	COMDAT ??$forward@V?$unique_ptr@V?$tuple@V<lambda_e77d7e1e559843f44c4e0b6d970cdb28>@@@std@@U?$default_delete@V?$tuple@V<lambda_e77d7e1e559843f44c4e0b6d970cdb28>@@@std@@@2@@std@@@std@@YA$$QEAV?$unique_ptr@V?$tuple@V<lambda_e77d7e1e559843f44c4e0b6d970cdb28>@@@std@@U?$default_delete@V?$tuple@V<lambda_e77d7e1e559843f44c4e0b6d970cdb28>@@@std@@@2@@0@AEAV10@@Z
_TEXT	SEGMENT
_Arg$ = 8
??$forward@V?$unique_ptr@V?$tuple@V<lambda_e77d7e1e559843f44c4e0b6d970cdb28>@@@std@@U?$default_delete@V?$tuple@V<lambda_e77d7e1e559843f44c4e0b6d970cdb28>@@@std@@@2@@std@@@std@@YA$$QEAV?$unique_ptr@V?$tuple@V<lambda_e77d7e1e559843f44c4e0b6d970cdb28>@@@std@@U?$default_delete@V?$tuple@V<lambda_e77d7e1e559843f44c4e0b6d970cdb28>@@@std@@@2@@0@AEAV10@@Z PROC ; std::forward<std::unique_ptr<std::tuple<<lambda_e77d7e1e559843f44c4e0b6d970cdb28> >,std::default_delete<std::tuple<<lambda_e77d7e1e559843f44c4e0b6d970cdb28> > > > >, COMDAT

; 1330 : 	return (static_cast<_Ty&&>(_Arg));

  00000	48 8b c1	 mov	 rax, rcx

; 1331 : 	}

  00003	c3		 ret	 0
??$forward@V?$unique_ptr@V?$tuple@V<lambda_e77d7e1e559843f44c4e0b6d970cdb28>@@@std@@U?$default_delete@V?$tuple@V<lambda_e77d7e1e559843f44c4e0b6d970cdb28>@@@std@@@2@@std@@@std@@YA$$QEAV?$unique_ptr@V?$tuple@V<lambda_e77d7e1e559843f44c4e0b6d970cdb28>@@@std@@U?$default_delete@V?$tuple@V<lambda_e77d7e1e559843f44c4e0b6d970cdb28>@@@std@@@2@@0@AEAV10@@Z ENDP ; std::forward<std::unique_ptr<std::tuple<<lambda_e77d7e1e559843f44c4e0b6d970cdb28> >,std::default_delete<std::tuple<<lambda_e77d7e1e559843f44c4e0b6d970cdb28> > > > >
_TEXT	ENDS
; Function compile flags: /Ogtpy
; File c:\users\alist_000\cppmisc\packages\visualcpptools.14.0.24629\lib\native\include\thr\xthread
; File c:\users\alist_000\cppmisc\packages\visualcpptools.14.0.24629\lib\native\include\memory
; File c:\users\alist_000\cppmisc\packages\visualcpptools.14.0.24629\lib\native\include\thr\xthread
; File c:\users\alist_000\cppmisc\packages\visualcpptools.14.0.24629\lib\native\include\xutility
; File c:\users\alist_000\cppmisc\packages\visualcpptools.14.0.24629\lib\native\include\thr\xthread
;	COMDAT ??$?0V?$unique_ptr@V?$tuple@V<lambda_e77d7e1e559843f44c4e0b6d970cdb28>@@@std@@U?$default_delete@V?$tuple@V<lambda_e77d7e1e559843f44c4e0b6d970cdb28>@@@std@@@2@@std@@@?$_LaunchPad@V?$unique_ptr@V?$tuple@V<lambda_e77d7e1e559843f44c4e0b6d970cdb28>@@@std@@U?$default_delete@V?$tuple@V<lambda_e77d7e1e559843f44c4e0b6d970cdb28>@@@std@@@2@@std@@@std@@QEAA@$$QEAV?$unique_ptr@V?$tuple@V<lambda_e77d7e1e559843f44c4e0b6d970cdb28>@@@std@@U?$default_delete@V?$tuple@V<lambda_e77d7e1e559843f44c4e0b6d970cdb28>@@@std@@@2@@1@@Z
_TEXT	SEGMENT
this$ = 48
_Tgt$ = 56
??$?0V?$unique_ptr@V?$tuple@V<lambda_e77d7e1e559843f44c4e0b6d970cdb28>@@@std@@U?$default_delete@V?$tuple@V<lambda_e77d7e1e559843f44c4e0b6d970cdb28>@@@std@@@2@@std@@@?$_LaunchPad@V?$unique_ptr@V?$tuple@V<lambda_e77d7e1e559843f44c4e0b6d970cdb28>@@@std@@U?$default_delete@V?$tuple@V<lambda_e77d7e1e559843f44c4e0b6d970cdb28>@@@std@@@2@@std@@@std@@QEAA@$$QEAV?$unique_ptr@V?$tuple@V<lambda_e77d7e1e559843f44c4e0b6d970cdb28>@@@std@@U?$default_delete@V?$tuple@V<lambda_e77d7e1e559843f44c4e0b6d970cdb28>@@@std@@@2@@1@@Z PROC ; std::_LaunchPad<std::unique_ptr<std::tuple<<lambda_e77d7e1e559843f44c4e0b6d970cdb28> >,std::default_delete<std::tuple<<lambda_e77d7e1e559843f44c4e0b6d970cdb28> > > > >::_LaunchPad<std::unique_ptr<std::tuple<<lambda_e77d7e1e559843f44c4e0b6d970cdb28> >,std::default_delete<std::tuple<<lambda_e77d7e1e559843f44c4e0b6d970cdb28> > > > ><std::unique_ptr<std::tuple<<lambda_e77d7e1e559843f44c4e0b6d970cdb28> >,std::default_delete<std::tuple<<lambda_e77d7e1e559843f44c4e0b6d970cdb28> > > > >, COMDAT

; 227  : 		{	// construct from target

  00000	48 89 5c 24 08	 mov	 QWORD PTR [rsp+8], rbx
  00005	57		 push	 rdi
  00006	48 83 ec 20	 sub	 rsp, 32			; 00000020H
  0000a	48 8b da	 mov	 rbx, rdx
  0000d	48 8b f9	 mov	 rdi, rcx
  00010	e8 00 00 00 00	 call	 ??0_Pad@std@@QEAA@XZ	; std::_Pad::_Pad
  00015	48 8d 05 00 00
	00 00		 lea	 rax, OFFSET FLAT:??_7?$_LaunchPad@V?$unique_ptr@V?$tuple@V<lambda_e77d7e1e559843f44c4e0b6d970cdb28>@@@std@@U?$default_delete@V?$tuple@V<lambda_e77d7e1e559843f44c4e0b6d970cdb28>@@@std@@@2@@std@@@std@@6B@
  0001c	48 89 07	 mov	 QWORD PTR [rdi], rax
; File c:\users\alist_000\cppmisc\packages\visualcpptools.14.0.24629\lib\native\include\memory

; 1425 : 		return (this->_Myptr());

  0001f	48 8b 03	 mov	 rax, QWORD PTR [rbx]

; 1436 : 		this->_Myptr() = pointer();

  00022	48 c7 03 00 00
	00 00		 mov	 QWORD PTR [rbx], 0
; File c:\users\alist_000\cppmisc\packages\visualcpptools.14.0.24629\lib\native\include\thr\xthread

; 228  : 		}

  00029	48 8b 5c 24 30	 mov	 rbx, QWORD PTR [rsp+48]
; File c:\users\alist_000\cppmisc\packages\visualcpptools.14.0.24629\lib\native\include\xutility

; 302  : 			_Myval2(_STD forward<_Other2>(_Val2)...)

  0002e	48 89 47 20	 mov	 QWORD PTR [rdi+32], rax
; File c:\users\alist_000\cppmisc\packages\visualcpptools.14.0.24629\lib\native\include\thr\xthread

; 228  : 		}

  00032	48 8b c7	 mov	 rax, rdi
  00035	48 83 c4 20	 add	 rsp, 32			; 00000020H
  00039	5f		 pop	 rdi
  0003a	c3		 ret	 0
??$?0V?$unique_ptr@V?$tuple@V<lambda_e77d7e1e559843f44c4e0b6d970cdb28>@@@std@@U?$default_delete@V?$tuple@V<lambda_e77d7e1e559843f44c4e0b6d970cdb28>@@@std@@@2@@std@@@?$_LaunchPad@V?$unique_ptr@V?$tuple@V<lambda_e77d7e1e559843f44c4e0b6d970cdb28>@@@std@@U?$default_delete@V?$tuple@V<lambda_e77d7e1e559843f44c4e0b6d970cdb28>@@@std@@@2@@std@@@std@@QEAA@$$QEAV?$unique_ptr@V?$tuple@V<lambda_e77d7e1e559843f44c4e0b6d970cdb28>@@@std@@U?$default_delete@V?$tuple@V<lambda_e77d7e1e559843f44c4e0b6d970cdb28>@@@std@@@2@@1@@Z ENDP ; std::_LaunchPad<std::unique_ptr<std::tuple<<lambda_e77d7e1e559843f44c4e0b6d970cdb28> >,std::default_delete<std::tuple<<lambda_e77d7e1e559843f44c4e0b6d970cdb28> > > > >::_LaunchPad<std::unique_ptr<std::tuple<<lambda_e77d7e1e559843f44c4e0b6d970cdb28> >,std::default_delete<std::tuple<<lambda_e77d7e1e559843f44c4e0b6d970cdb28> > > > ><std::unique_ptr<std::tuple<<lambda_e77d7e1e559843f44c4e0b6d970cdb28> >,std::default_delete<std::tuple<<lambda_e77d7e1e559843f44c4e0b6d970cdb28> > > > >
_TEXT	ENDS
; Function compile flags: /Ogtpy
; File c:\users\alist_000\cppmisc\packages\visualcpptools.14.0.24629\lib\native\include\memory
; File c:\users\alist_000\cppmisc\packages\visualcpptools.14.0.24629\lib\native\include\xutility
; File c:\users\alist_000\cppmisc\packages\visualcpptools.14.0.24629\lib\native\include\memory
;	COMDAT ??$?0PEAV?$tuple@V<lambda_e77d7e1e559843f44c4e0b6d970cdb28>@@@std@@@?$_Unique_ptr_base@V?$tuple@V<lambda_e77d7e1e559843f44c4e0b6d970cdb28>@@@std@@U?$default_delete@V?$tuple@V<lambda_e77d7e1e559843f44c4e0b6d970cdb28>@@@std@@@2@@std@@QEAA@PEAV?$tuple@V<lambda_e77d7e1e559843f44c4e0b6d970cdb28>@@@1@@Z
_TEXT	SEGMENT
this$ = 8
_Ptr$ = 16
??$?0PEAV?$tuple@V<lambda_e77d7e1e559843f44c4e0b6d970cdb28>@@@std@@@?$_Unique_ptr_base@V?$tuple@V<lambda_e77d7e1e559843f44c4e0b6d970cdb28>@@@std@@U?$default_delete@V?$tuple@V<lambda_e77d7e1e559843f44c4e0b6d970cdb28>@@@std@@@2@@std@@QEAA@PEAV?$tuple@V<lambda_e77d7e1e559843f44c4e0b6d970cdb28>@@@1@@Z PROC ; std::_Unique_ptr_base<std::tuple<<lambda_e77d7e1e559843f44c4e0b6d970cdb28> >,std::default_delete<std::tuple<<lambda_e77d7e1e559843f44c4e0b6d970cdb28> > > >::_Unique_ptr_base<std::tuple<<lambda_e77d7e1e559843f44c4e0b6d970cdb28> >,std::default_delete<std::tuple<<lambda_e77d7e1e559843f44c4e0b6d970cdb28> > > ><std::tuple<<lambda_e77d7e1e559843f44c4e0b6d970cdb28> > * __ptr64>, COMDAT
; File c:\users\alist_000\cppmisc\packages\visualcpptools.14.0.24629\lib\native\include\xutility

; 293  : 		: _Ty1(), _Myval2(_STD forward<_Other2>(_Val2)...)

  00000	48 89 11	 mov	 QWORD PTR [rcx], rdx
; File c:\users\alist_000\cppmisc\packages\visualcpptools.14.0.24629\lib\native\include\memory

; 1262 : 		}

  00003	48 8b c1	 mov	 rax, rcx
  00006	c3		 ret	 0
??$?0PEAV?$tuple@V<lambda_e77d7e1e559843f44c4e0b6d970cdb28>@@@std@@@?$_Unique_ptr_base@V?$tuple@V<lambda_e77d7e1e559843f44c4e0b6d970cdb28>@@@std@@U?$default_delete@V?$tuple@V<lambda_e77d7e1e559843f44c4e0b6d970cdb28>@@@std@@@2@@std@@QEAA@PEAV?$tuple@V<lambda_e77d7e1e559843f44c4e0b6d970cdb28>@@@1@@Z ENDP ; std::_Unique_ptr_base<std::tuple<<lambda_e77d7e1e559843f44c4e0b6d970cdb28> >,std::default_delete<std::tuple<<lambda_e77d7e1e559843f44c4e0b6d970cdb28> > > >::_Unique_ptr_base<std::tuple<<lambda_e77d7e1e559843f44c4e0b6d970cdb28> >,std::default_delete<std::tuple<<lambda_e77d7e1e559843f44c4e0b6d970cdb28> > > ><std::tuple<<lambda_e77d7e1e559843f44c4e0b6d970cdb28> > * __ptr64>
_TEXT	ENDS
; Function compile flags: /Ogtpy
; File c:\users\alist_000\cppmisc\packages\visualcpptools.14.0.24629\lib\native\include\thr\xthread
; File c:\users\alist_000\cppmisc\packages\visualcpptools.14.0.24629\lib\native\include\type_traits
; File c:\users\alist_000\cppmisc\packages\visualcpptools.14.0.24629\lib\native\include\thr\xthread
;	COMDAT ??$_Execute@$0A@@?$_LaunchPad@V?$unique_ptr@V?$tuple@V<lambda_e77d7e1e559843f44c4e0b6d970cdb28>@@@std@@U?$default_delete@V?$tuple@V<lambda_e77d7e1e559843f44c4e0b6d970cdb28>@@@std@@@2@@std@@@std@@CAXAEAV?$tuple@V<lambda_e77d7e1e559843f44c4e0b6d970cdb28>@@@1@U?$integer_sequence@_K$0A@@1@@Z
_TEXT	SEGMENT
_Tup$dead$ = 8
__formal$dead$ = 16
??$_Execute@$0A@@?$_LaunchPad@V?$unique_ptr@V?$tuple@V<lambda_e77d7e1e559843f44c4e0b6d970cdb28>@@@std@@U?$default_delete@V?$tuple@V<lambda_e77d7e1e559843f44c4e0b6d970cdb28>@@@std@@@2@@std@@@std@@CAXAEAV?$tuple@V<lambda_e77d7e1e559843f44c4e0b6d970cdb28>@@@1@U?$integer_sequence@_K$0A@@1@@Z PROC ; std::_LaunchPad<std::unique_ptr<std::tuple<<lambda_e77d7e1e559843f44c4e0b6d970cdb28> >,std::default_delete<std::tuple<<lambda_e77d7e1e559843f44c4e0b6d970cdb28> > > > >::_Execute<0>, COMDAT
; File c:\users\alist_000\cppmisc\packages\visualcpptools.14.0.24629\lib\native\include\type_traits

; 1529 : _IMPLEMENT_INVOKE(_EMPTY_ARGUMENT, _EMPTY_ARGUMENT)

  00000	e9 00 00 00 00	 jmp	 ??R<lambda_e77d7e1e559843f44c4e0b6d970cdb28>@@QEBAXXZ ; <lambda_e77d7e1e559843f44c4e0b6d970cdb28>::operator()
??$_Execute@$0A@@?$_LaunchPad@V?$unique_ptr@V?$tuple@V<lambda_e77d7e1e559843f44c4e0b6d970cdb28>@@@std@@U?$default_delete@V?$tuple@V<lambda_e77d7e1e559843f44c4e0b6d970cdb28>@@@std@@@2@@std@@@std@@CAXAEAV?$tuple@V<lambda_e77d7e1e559843f44c4e0b6d970cdb28>@@@1@U?$integer_sequence@_K$0A@@1@@Z ENDP ; std::_LaunchPad<std::unique_ptr<std::tuple<<lambda_e77d7e1e559843f44c4e0b6d970cdb28> >,std::default_delete<std::tuple<<lambda_e77d7e1e559843f44c4e0b6d970cdb28> > > > >::_Execute<0>
_TEXT	ENDS
; Function compile flags: /Ogtpy
; File c:\users\alist_000\cppmisc\packages\visualcpptools.14.0.24629\lib\native\include\type_traits
;	COMDAT ??$forward@U?$default_delete@V?$tuple@V<lambda_e77d7e1e559843f44c4e0b6d970cdb28>@@@std@@@std@@@std@@YA$$QEAU?$default_delete@V?$tuple@V<lambda_e77d7e1e559843f44c4e0b6d970cdb28>@@@std@@@0@AEAU10@@Z
_TEXT	SEGMENT
_Arg$ = 8
??$forward@U?$default_delete@V?$tuple@V<lambda_e77d7e1e559843f44c4e0b6d970cdb28>@@@std@@@std@@@std@@YA$$QEAU?$default_delete@V?$tuple@V<lambda_e77d7e1e559843f44c4e0b6d970cdb28>@@@std@@@0@AEAU10@@Z PROC ; std::forward<std::default_delete<std::tuple<<lambda_e77d7e1e559843f44c4e0b6d970cdb28> > > >, COMDAT

; 1330 : 	return (static_cast<_Ty&&>(_Arg));

  00000	48 8b c1	 mov	 rax, rcx

; 1331 : 	}

  00003	c3		 ret	 0
??$forward@U?$default_delete@V?$tuple@V<lambda_e77d7e1e559843f44c4e0b6d970cdb28>@@@std@@@std@@@std@@YA$$QEAU?$default_delete@V?$tuple@V<lambda_e77d7e1e559843f44c4e0b6d970cdb28>@@@std@@@0@AEAU10@@Z ENDP ; std::forward<std::default_delete<std::tuple<<lambda_e77d7e1e559843f44c4e0b6d970cdb28> > > >
_TEXT	ENDS
; Function compile flags: /Ogtpy
; File c:\users\alist_000\cppmisc\packages\visualcpptools.14.0.24629\lib\native\include\memory
; File c:\users\alist_000\cppmisc\packages\visualcpptools.14.0.24629\lib\native\include\xutility
; File c:\users\alist_000\cppmisc\packages\visualcpptools.14.0.24629\lib\native\include\memory
;	COMDAT ??$?0PEAV?$tuple@V<lambda_e77d7e1e559843f44c4e0b6d970cdb28>@@@std@@U?$default_delete@V?$tuple@V<lambda_e77d7e1e559843f44c4e0b6d970cdb28>@@@std@@@1@@?$_Unique_ptr_base@V?$tuple@V<lambda_e77d7e1e559843f44c4e0b6d970cdb28>@@@std@@U?$default_delete@V?$tuple@V<lambda_e77d7e1e559843f44c4e0b6d970cdb28>@@@std@@@2@@std@@QEAA@PEAV?$tuple@V<lambda_e77d7e1e559843f44c4e0b6d970cdb28>@@@1@$$QEAU?$default_delete@V?$tuple@V<lambda_e77d7e1e559843f44c4e0b6d970cdb28>@@@std@@@1@@Z
_TEXT	SEGMENT
this$ = 8
_Ptr$ = 16
_Dt$dead$ = 24
??$?0PEAV?$tuple@V<lambda_e77d7e1e559843f44c4e0b6d970cdb28>@@@std@@U?$default_delete@V?$tuple@V<lambda_e77d7e1e559843f44c4e0b6d970cdb28>@@@std@@@1@@?$_Unique_ptr_base@V?$tuple@V<lambda_e77d7e1e559843f44c4e0b6d970cdb28>@@@std@@U?$default_delete@V?$tuple@V<lambda_e77d7e1e559843f44c4e0b6d970cdb28>@@@std@@@2@@std@@QEAA@PEAV?$tuple@V<lambda_e77d7e1e559843f44c4e0b6d970cdb28>@@@1@$$QEAU?$default_delete@V?$tuple@V<lambda_e77d7e1e559843f44c4e0b6d970cdb28>@@@std@@@1@@Z PROC ; std::_Unique_ptr_base<std::tuple<<lambda_e77d7e1e559843f44c4e0b6d970cdb28> >,std::default_delete<std::tuple<<lambda_e77d7e1e559843f44c4e0b6d970cdb28> > > >::_Unique_ptr_base<std::tuple<<lambda_e77d7e1e559843f44c4e0b6d970cdb28> >,std::default_delete<std::tuple<<lambda_e77d7e1e559843f44c4e0b6d970cdb28> > > ><std::tuple<<lambda_e77d7e1e559843f44c4e0b6d970cdb28> > * __ptr64,std::default_delete<std::tuple<<lambda_e77d7e1e559843f44c4e0b6d970cdb28> > > >, COMDAT
; File c:\users\alist_000\cppmisc\packages\visualcpptools.14.0.24629\lib\native\include\xutility

; 302  : 			_Myval2(_STD forward<_Other2>(_Val2)...)

  00000	48 89 11	 mov	 QWORD PTR [rcx], rdx
; File c:\users\alist_000\cppmisc\packages\visualcpptools.14.0.24629\lib\native\include\memory

; 1256 : 		}

  00003	48 8b c1	 mov	 rax, rcx
  00006	c3		 ret	 0
??$?0PEAV?$tuple@V<lambda_e77d7e1e559843f44c4e0b6d970cdb28>@@@std@@U?$default_delete@V?$tuple@V<lambda_e77d7e1e559843f44c4e0b6d970cdb28>@@@std@@@1@@?$_Unique_ptr_base@V?$tuple@V<lambda_e77d7e1e559843f44c4e0b6d970cdb28>@@@std@@U?$default_delete@V?$tuple@V<lambda_e77d7e1e559843f44c4e0b6d970cdb28>@@@std@@@2@@std@@QEAA@PEAV?$tuple@V<lambda_e77d7e1e559843f44c4e0b6d970cdb28>@@@1@$$QEAU?$default_delete@V?$tuple@V<lambda_e77d7e1e559843f44c4e0b6d970cdb28>@@@std@@@1@@Z ENDP ; std::_Unique_ptr_base<std::tuple<<lambda_e77d7e1e559843f44c4e0b6d970cdb28> >,std::default_delete<std::tuple<<lambda_e77d7e1e559843f44c4e0b6d970cdb28> > > >::_Unique_ptr_base<std::tuple<<lambda_e77d7e1e559843f44c4e0b6d970cdb28> >,std::default_delete<std::tuple<<lambda_e77d7e1e559843f44c4e0b6d970cdb28> > > ><std::tuple<<lambda_e77d7e1e559843f44c4e0b6d970cdb28> > * __ptr64,std::default_delete<std::tuple<<lambda_e77d7e1e559843f44c4e0b6d970cdb28> > > >
_TEXT	ENDS
; Function compile flags: /Ogtpy
; File c:\users\alist_000\cppmisc\packages\visualcpptools.14.0.24629\lib\native\include\tuple
;	COMDAT ??$?0U_Exact_args_t@std@@V<lambda_e77d7e1e559843f44c4e0b6d970cdb28>@@$$V$0A@@?$tuple@V<lambda_e77d7e1e559843f44c4e0b6d970cdb28>@@@std@@QEAA@U_Exact_args_t@1@$$QEAV<lambda_e77d7e1e559843f44c4e0b6d970cdb28>@@@Z
_TEXT	SEGMENT
this$ = 8
__formal$dead$ = 16
_This_arg$dead$ = 24
??$?0U_Exact_args_t@std@@V<lambda_e77d7e1e559843f44c4e0b6d970cdb28>@@$$V$0A@@?$tuple@V<lambda_e77d7e1e559843f44c4e0b6d970cdb28>@@@std@@QEAA@U_Exact_args_t@1@$$QEAV<lambda_e77d7e1e559843f44c4e0b6d970cdb28>@@@Z PROC ; std::tuple<<lambda_e77d7e1e559843f44c4e0b6d970cdb28> >::tuple<<lambda_e77d7e1e559843f44c4e0b6d970cdb28> ><std::_Exact_args_t,<lambda_e77d7e1e559843f44c4e0b6d970cdb28>,0>, COMDAT

; 292  : 		}

  00000	48 8b c1	 mov	 rax, rcx
  00003	c3		 ret	 0
??$?0U_Exact_args_t@std@@V<lambda_e77d7e1e559843f44c4e0b6d970cdb28>@@$$V$0A@@?$tuple@V<lambda_e77d7e1e559843f44c4e0b6d970cdb28>@@@std@@QEAA@U_Exact_args_t@1@$$QEAV<lambda_e77d7e1e559843f44c4e0b6d970cdb28>@@@Z ENDP ; std::tuple<<lambda_e77d7e1e559843f44c4e0b6d970cdb28> >::tuple<<lambda_e77d7e1e559843f44c4e0b6d970cdb28> ><std::_Exact_args_t,<lambda_e77d7e1e559843f44c4e0b6d970cdb28>,0>
_TEXT	ENDS
; Function compile flags: /Ogtpy
; File c:\users\alist_000\cppmisc\packages\visualcpptools.14.0.24629\lib\native\include\xutility
;	COMDAT ??$?0AEAPEAV?$tuple@V<lambda_e77d7e1e559843f44c4e0b6d970cdb28>@@@std@@@?$_Compressed_pair@U?$default_delete@V?$tuple@V<lambda_e77d7e1e559843f44c4e0b6d970cdb28>@@@std@@@std@@PEAV?$tuple@V<lambda_e77d7e1e559843f44c4e0b6d970cdb28>@@@2@$00@std@@QEAA@U_Zero_then_variadic_args_t@1@AEAPEAV?$tuple@V<lambda_e77d7e1e559843f44c4e0b6d970cdb28>@@@1@@Z
_TEXT	SEGMENT
this$ = 8
__formal$dead$ = 16
<_Val2_0>$ = 24
??$?0AEAPEAV?$tuple@V<lambda_e77d7e1e559843f44c4e0b6d970cdb28>@@@std@@@?$_Compressed_pair@U?$default_delete@V?$tuple@V<lambda_e77d7e1e559843f44c4e0b6d970cdb28>@@@std@@@std@@PEAV?$tuple@V<lambda_e77d7e1e559843f44c4e0b6d970cdb28>@@@2@$00@std@@QEAA@U_Zero_then_variadic_args_t@1@AEAPEAV?$tuple@V<lambda_e77d7e1e559843f44c4e0b6d970cdb28>@@@1@@Z PROC ; std::_Compressed_pair<std::default_delete<std::tuple<<lambda_e77d7e1e559843f44c4e0b6d970cdb28> > >,std::tuple<<lambda_e77d7e1e559843f44c4e0b6d970cdb28> > * __ptr64,1>::_Compressed_pair<std::default_delete<std::tuple<<lambda_e77d7e1e559843f44c4e0b6d970cdb28> > >,std::tuple<<lambda_e77d7e1e559843f44c4e0b6d970cdb28> > * __ptr64,1><std::tuple<<lambda_e77d7e1e559843f44c4e0b6d970cdb28> > * __ptr64 & __ptr64>, COMDAT

; 293  : 		: _Ty1(), _Myval2(_STD forward<_Other2>(_Val2)...)

  00000	49 8b 00	 mov	 rax, QWORD PTR [r8]
  00003	48 89 01	 mov	 QWORD PTR [rcx], rax

; 295  : 		}

  00006	48 8b c1	 mov	 rax, rcx
  00009	c3		 ret	 0
??$?0AEAPEAV?$tuple@V<lambda_e77d7e1e559843f44c4e0b6d970cdb28>@@@std@@@?$_Compressed_pair@U?$default_delete@V?$tuple@V<lambda_e77d7e1e559843f44c4e0b6d970cdb28>@@@std@@@std@@PEAV?$tuple@V<lambda_e77d7e1e559843f44c4e0b6d970cdb28>@@@2@$00@std@@QEAA@U_Zero_then_variadic_args_t@1@AEAPEAV?$tuple@V<lambda_e77d7e1e559843f44c4e0b6d970cdb28>@@@1@@Z ENDP ; std::_Compressed_pair<std::default_delete<std::tuple<<lambda_e77d7e1e559843f44c4e0b6d970cdb28> > >,std::tuple<<lambda_e77d7e1e559843f44c4e0b6d970cdb28> > * __ptr64,1>::_Compressed_pair<std::default_delete<std::tuple<<lambda_e77d7e1e559843f44c4e0b6d970cdb28> > >,std::tuple<<lambda_e77d7e1e559843f44c4e0b6d970cdb28> > * __ptr64,1><std::tuple<<lambda_e77d7e1e559843f44c4e0b6d970cdb28> > * __ptr64 & __ptr64>
_TEXT	ENDS
; Function compile flags: /Ogtpy
; File c:\users\alist_000\cppmisc\packages\visualcpptools.14.0.24629\lib\native\include\tuple
;	COMDAT ??$get@$0A@V<lambda_e77d7e1e559843f44c4e0b6d970cdb28>@@@std@@YAAEAV<lambda_e77d7e1e559843f44c4e0b6d970cdb28>@@AEAV?$tuple@V<lambda_e77d7e1e559843f44c4e0b6d970cdb28>@@@0@@Z
_TEXT	SEGMENT
_Tuple$ = 8
??$get@$0A@V<lambda_e77d7e1e559843f44c4e0b6d970cdb28>@@@std@@YAAEAV<lambda_e77d7e1e559843f44c4e0b6d970cdb28>@@AEAV?$tuple@V<lambda_e77d7e1e559843f44c4e0b6d970cdb28>@@@0@@Z PROC ; std::get<0,<lambda_e77d7e1e559843f44c4e0b6d970cdb28> >, COMDAT

; 790  : 	typedef typename tuple_element<_Index, tuple<_Types...> >::_Ttype
; 791  : 		_Ttype;
; 792  : 	return (((_Ttype&)_Tuple)._Myfirst._Val);

  00000	48 8b c1	 mov	 rax, rcx

; 793  : 	}

  00003	c3		 ret	 0
??$get@$0A@V<lambda_e77d7e1e559843f44c4e0b6d970cdb28>@@@std@@YAAEAV<lambda_e77d7e1e559843f44c4e0b6d970cdb28>@@AEAV?$tuple@V<lambda_e77d7e1e559843f44c4e0b6d970cdb28>@@@0@@Z ENDP ; std::get<0,<lambda_e77d7e1e559843f44c4e0b6d970cdb28> >
_TEXT	ENDS
; Function compile flags: /Ogtpy
; File c:\users\alist_000\cppmisc\packages\visualcpptools.14.0.24629\lib\native\include\type_traits
;	COMDAT ??$move@AEAV<lambda_e77d7e1e559843f44c4e0b6d970cdb28>@@@std@@YA$$QEAV<lambda_e77d7e1e559843f44c4e0b6d970cdb28>@@AEAV1@@Z
_TEXT	SEGMENT
_Arg$ = 8
??$move@AEAV<lambda_e77d7e1e559843f44c4e0b6d970cdb28>@@@std@@YA$$QEAV<lambda_e77d7e1e559843f44c4e0b6d970cdb28>@@AEAV1@@Z PROC ; std::move<<lambda_e77d7e1e559843f44c4e0b6d970cdb28> & __ptr64>, COMDAT

; 1346 : 	return (static_cast<typename remove_reference<_Ty>::type&&>(_Arg));

  00000	48 8b c1	 mov	 rax, rcx

; 1347 : 	}

  00003	c3		 ret	 0
??$move@AEAV<lambda_e77d7e1e559843f44c4e0b6d970cdb28>@@@std@@YA$$QEAV<lambda_e77d7e1e559843f44c4e0b6d970cdb28>@@AEAV1@@Z ENDP ; std::move<<lambda_e77d7e1e559843f44c4e0b6d970cdb28> & __ptr64>
_TEXT	ENDS
; Function compile flags: /Ogtpy
; File c:\users\alist_000\cppmisc\packages\visualcpptools.14.0.24629\lib\native\include\type_traits
;	COMDAT ??$invoke@V<lambda_e77d7e1e559843f44c4e0b6d970cdb28>@@$$V@std@@YAX$$QEAV<lambda_e77d7e1e559843f44c4e0b6d970cdb28>@@@Z
_TEXT	SEGMENT
_Obj$dead$ = 8
??$invoke@V<lambda_e77d7e1e559843f44c4e0b6d970cdb28>@@$$V@std@@YAX$$QEAV<lambda_e77d7e1e559843f44c4e0b6d970cdb28>@@@Z PROC ; std::invoke<<lambda_e77d7e1e559843f44c4e0b6d970cdb28> >, COMDAT

; 1529 : _IMPLEMENT_INVOKE(_EMPTY_ARGUMENT, _EMPTY_ARGUMENT)

  00000	e9 00 00 00 00	 jmp	 ??R<lambda_e77d7e1e559843f44c4e0b6d970cdb28>@@QEBAXXZ ; <lambda_e77d7e1e559843f44c4e0b6d970cdb28>::operator()
??$invoke@V<lambda_e77d7e1e559843f44c4e0b6d970cdb28>@@$$V@std@@YAX$$QEAV<lambda_e77d7e1e559843f44c4e0b6d970cdb28>@@@Z ENDP ; std::invoke<<lambda_e77d7e1e559843f44c4e0b6d970cdb28> >
_TEXT	ENDS
; Function compile flags: /Ogtpy
; File c:\users\alist_000\cppmisc\packages\visualcpptools.14.0.24629\lib\native\include\xutility
;	COMDAT ??$?0U?$default_delete@V?$tuple@V<lambda_e77d7e1e559843f44c4e0b6d970cdb28>@@@std@@@std@@AEAPEAV?$tuple@V<lambda_e77d7e1e559843f44c4e0b6d970cdb28>@@@1@@?$_Compressed_pair@U?$default_delete@V?$tuple@V<lambda_e77d7e1e559843f44c4e0b6d970cdb28>@@@std@@@std@@PEAV?$tuple@V<lambda_e77d7e1e559843f44c4e0b6d970cdb28>@@@2@$00@std@@QEAA@U_One_then_variadic_args_t@1@$$QEAU?$default_delete@V?$tuple@V<lambda_e77d7e1e559843f44c4e0b6d970cdb28>@@@std@@@1@AEAPEAV?$tuple@V<lambda_e77d7e1e559843f44c4e0b6d970cdb28>@@@1@@Z
_TEXT	SEGMENT
this$ = 8
__formal$dead$ = 16
_Val1$dead$ = 24
<_Val2_0>$ = 32
??$?0U?$default_delete@V?$tuple@V<lambda_e77d7e1e559843f44c4e0b6d970cdb28>@@@std@@@std@@AEAPEAV?$tuple@V<lambda_e77d7e1e559843f44c4e0b6d970cdb28>@@@1@@?$_Compressed_pair@U?$default_delete@V?$tuple@V<lambda_e77d7e1e559843f44c4e0b6d970cdb28>@@@std@@@std@@PEAV?$tuple@V<lambda_e77d7e1e559843f44c4e0b6d970cdb28>@@@2@$00@std@@QEAA@U_One_then_variadic_args_t@1@$$QEAU?$default_delete@V?$tuple@V<lambda_e77d7e1e559843f44c4e0b6d970cdb28>@@@std@@@1@AEAPEAV?$tuple@V<lambda_e77d7e1e559843f44c4e0b6d970cdb28>@@@1@@Z PROC ; std::_Compressed_pair<std::default_delete<std::tuple<<lambda_e77d7e1e559843f44c4e0b6d970cdb28> > >,std::tuple<<lambda_e77d7e1e559843f44c4e0b6d970cdb28> > * __ptr64,1>::_Compressed_pair<std::default_delete<std::tuple<<lambda_e77d7e1e559843f44c4e0b6d970cdb28> > >,std::tuple<<lambda_e77d7e1e559843f44c4e0b6d970cdb28> > * __ptr64,1><std::default_delete<std::tuple<<lambda_e77d7e1e559843f44c4e0b6d970cdb28> > >,std::tuple<<lambda_e77d7e1e559843f44c4e0b6d970cdb28> > * __ptr64 & __ptr64>, COMDAT

; 302  : 			_Myval2(_STD forward<_Other2>(_Val2)...)

  00000	49 8b 01	 mov	 rax, QWORD PTR [r9]
  00003	48 89 01	 mov	 QWORD PTR [rcx], rax

; 304  : 		}

  00006	48 8b c1	 mov	 rax, rcx
  00009	c3		 ret	 0
??$?0U?$default_delete@V?$tuple@V<lambda_e77d7e1e559843f44c4e0b6d970cdb28>@@@std@@@std@@AEAPEAV?$tuple@V<lambda_e77d7e1e559843f44c4e0b6d970cdb28>@@@1@@?$_Compressed_pair@U?$default_delete@V?$tuple@V<lambda_e77d7e1e559843f44c4e0b6d970cdb28>@@@std@@@std@@PEAV?$tuple@V<lambda_e77d7e1e559843f44c4e0b6d970cdb28>@@@2@$00@std@@QEAA@U_One_then_variadic_args_t@1@$$QEAU?$default_delete@V?$tuple@V<lambda_e77d7e1e559843f44c4e0b6d970cdb28>@@@std@@@1@AEAPEAV?$tuple@V<lambda_e77d7e1e559843f44c4e0b6d970cdb28>@@@1@@Z ENDP ; std::_Compressed_pair<std::default_delete<std::tuple<<lambda_e77d7e1e559843f44c4e0b6d970cdb28> > >,std::tuple<<lambda_e77d7e1e559843f44c4e0b6d970cdb28> > * __ptr64,1>::_Compressed_pair<std::default_delete<std::tuple<<lambda_e77d7e1e559843f44c4e0b6d970cdb28> > >,std::tuple<<lambda_e77d7e1e559843f44c4e0b6d970cdb28> > * __ptr64,1><std::default_delete<std::tuple<<lambda_e77d7e1e559843f44c4e0b6d970cdb28> > >,std::tuple<<lambda_e77d7e1e559843f44c4e0b6d970cdb28> > * __ptr64 & __ptr64>
_TEXT	ENDS
; Function compile flags: /Ogtpy
; File c:\users\alist_000\cppmisc\packages\visualcpptools.14.0.24629\lib\native\include\type_traits
;	COMDAT ??$_Call@V<lambda_e77d7e1e559843f44c4e0b6d970cdb28>@@$$V@_Invoker_functor@std@@SAX$$QEAV<lambda_e77d7e1e559843f44c4e0b6d970cdb28>@@@Z
_TEXT	SEGMENT
_Obj$dead$ = 8
??$_Call@V<lambda_e77d7e1e559843f44c4e0b6d970cdb28>@@$$V@_Invoker_functor@std@@SAX$$QEAV<lambda_e77d7e1e559843f44c4e0b6d970cdb28>@@@Z PROC ; std::_Invoker_functor::_Call<<lambda_e77d7e1e559843f44c4e0b6d970cdb28> >, COMDAT

; 1529 : _IMPLEMENT_INVOKE(_EMPTY_ARGUMENT, _EMPTY_ARGUMENT)

  00000	e9 00 00 00 00	 jmp	 ??R<lambda_e77d7e1e559843f44c4e0b6d970cdb28>@@QEBAXXZ ; <lambda_e77d7e1e559843f44c4e0b6d970cdb28>::operator()
??$_Call@V<lambda_e77d7e1e559843f44c4e0b6d970cdb28>@@$$V@_Invoker_functor@std@@SAX$$QEAV<lambda_e77d7e1e559843f44c4e0b6d970cdb28>@@@Z ENDP ; std::_Invoker_functor::_Call<<lambda_e77d7e1e559843f44c4e0b6d970cdb28> >
_TEXT	ENDS
; Function compile flags: /Ogtpy
; File c:\users\alist_000\cppmisc\packages\visualcpptools.14.0.24629\lib\native\include\tuple
;	COMDAT ??$?0U_Exact_args_t@std@@$0A@@?$tuple@$$V@std@@QEAA@U_Exact_args_t@1@@Z
_TEXT	SEGMENT
this$ = 8
__formal$dead$ = 16
??$?0U_Exact_args_t@std@@$0A@@?$tuple@$$V@std@@QEAA@U_Exact_args_t@1@@Z PROC ; std::tuple<>::tuple<><std::_Exact_args_t,0>, COMDAT

; 249  : 		}

  00000	48 8b c1	 mov	 rax, rcx
  00003	c3		 ret	 0
??$?0U_Exact_args_t@std@@$0A@@?$tuple@$$V@std@@QEAA@U_Exact_args_t@1@@Z ENDP ; std::tuple<>::tuple<><std::_Exact_args_t,0>
_TEXT	ENDS
; Function compile flags: /Ogtpy
; File c:\users\alist_000\cppmisc\packages\visualcpptools.14.0.24629\lib\native\include\tuple
;	COMDAT ??$?0V<lambda_e77d7e1e559843f44c4e0b6d970cdb28>@@@?$_Tuple_val@V<lambda_e77d7e1e559843f44c4e0b6d970cdb28>@@@std@@QEAA@$$QEAV<lambda_e77d7e1e559843f44c4e0b6d970cdb28>@@@Z
_TEXT	SEGMENT
this$ = 8
_Arg$dead$ = 16
??$?0V<lambda_e77d7e1e559843f44c4e0b6d970cdb28>@@@?$_Tuple_val@V<lambda_e77d7e1e559843f44c4e0b6d970cdb28>@@@std@@QEAA@$$QEAV<lambda_e77d7e1e559843f44c4e0b6d970cdb28>@@@Z PROC ; std::_Tuple_val<<lambda_e77d7e1e559843f44c4e0b6d970cdb28> >::_Tuple_val<<lambda_e77d7e1e559843f44c4e0b6d970cdb28> ><<lambda_e77d7e1e559843f44c4e0b6d970cdb28> >, COMDAT

; 165  : 		}

  00000	48 8b c1	 mov	 rax, rcx
  00003	c3		 ret	 0
??$?0V<lambda_e77d7e1e559843f44c4e0b6d970cdb28>@@@?$_Tuple_val@V<lambda_e77d7e1e559843f44c4e0b6d970cdb28>@@@std@@QEAA@$$QEAV<lambda_e77d7e1e559843f44c4e0b6d970cdb28>@@@Z ENDP ; std::_Tuple_val<<lambda_e77d7e1e559843f44c4e0b6d970cdb28> >::_Tuple_val<<lambda_e77d7e1e559843f44c4e0b6d970cdb28> ><<lambda_e77d7e1e559843f44c4e0b6d970cdb28> >
_TEXT	ENDS
; Function compile flags: /Ogtpy
; File c:\users\alist_000\cppmisc\packages\visualcpptools.14.0.24629\lib\native\include\type_traits
;	COMDAT ??$forward@AEAPEAV?$tuple@V<lambda_e77d7e1e559843f44c4e0b6d970cdb28>@@@std@@@std@@YAAEAPEAV?$tuple@V<lambda_e77d7e1e559843f44c4e0b6d970cdb28>@@@0@AEAPEAV10@@Z
_TEXT	SEGMENT
_Arg$ = 8
??$forward@AEAPEAV?$tuple@V<lambda_e77d7e1e559843f44c4e0b6d970cdb28>@@@std@@@std@@YAAEAPEAV?$tuple@V<lambda_e77d7e1e559843f44c4e0b6d970cdb28>@@@0@AEAPEAV10@@Z PROC ; std::forward<std::tuple<<lambda_e77d7e1e559843f44c4e0b6d970cdb28> > * __ptr64 & __ptr64>, COMDAT

; 1330 : 	return (static_cast<_Ty&&>(_Arg));

  00000	48 8b c1	 mov	 rax, rcx

; 1331 : 	}

  00003	c3		 ret	 0
??$forward@AEAPEAV?$tuple@V<lambda_e77d7e1e559843f44c4e0b6d970cdb28>@@@std@@@std@@YAAEAPEAV?$tuple@V<lambda_e77d7e1e559843f44c4e0b6d970cdb28>@@@0@AEAPEAV10@@Z ENDP ; std::forward<std::tuple<<lambda_e77d7e1e559843f44c4e0b6d970cdb28> > * __ptr64 & __ptr64>
_TEXT	ENDS
END
